; ModuleID = 'Project_CodeNet_C++1400/p02368/s341909802.cpp'
source_filename = "Project_CodeNet_C++1400/p02368/s341909802.cpp"
target datalayout = "e-m:e-i64:64-f80:128-n8:16:32:64-S128"
target triple = "x86_64-unknown-linux-gnu"

%"class.std::ios_base::Init" = type { i8 }
%"class.std::basic_istream" = type { i32 (...)**, i64, %"class.std::basic_ios" }
%"class.std::basic_ios" = type { %"class.std::ios_base", %"class.std::basic_ostream"*, i8, i8, %"class.std::basic_streambuf"*, %"class.std::ctype"*, %"class.std::num_put"*, %"class.std::num_get"* }
%"class.std::ios_base" = type { i32 (...)**, i64, i64, i32, i32, i32, %"struct.std::ios_base::_Callback_list"*, %"struct.std::ios_base::_Words", [8 x %"struct.std::ios_base::_Words"], i32, %"struct.std::ios_base::_Words"*, %"class.std::locale" }
%"struct.std::ios_base::_Callback_list" = type { %"struct.std::ios_base::_Callback_list"*, void (i32, %"class.std::ios_base"*, i32)*, i32, i32 }
%"struct.std::ios_base::_Words" = type { i8*, i64 }
%"class.std::locale" = type { %"class.std::locale::_Impl"* }
%"class.std::locale::_Impl" = type { i32, %"class.std::locale::facet"**, i64, %"class.std::locale::facet"**, i8** }
%"class.std::locale::facet" = type <{ i32 (...)**, i32, [4 x i8] }>
%"class.std::basic_ostream" = type { i32 (...)**, %"class.std::basic_ios" }
%"class.std::basic_streambuf" = type { i32 (...)**, i8*, i8*, i8*, i8*, i8*, i8*, %"class.std::locale" }
%"class.std::ctype" = type <{ %"class.std::locale::facet.base", [4 x i8], %struct.__locale_struct*, i8, [7 x i8], i32*, i32*, i16*, i8, [256 x i8], [256 x i8], i8, [6 x i8] }>
%"class.std::locale::facet.base" = type <{ i32 (...)**, i32 }>
%struct.__locale_struct = type { [13 x %struct.__locale_data*], i16*, i32*, i32*, [13 x i8*] }
%struct.__locale_data = type opaque
%"class.std::num_put" = type { %"class.std::locale::facet.base", [4 x i8] }
%"class.std::num_get" = type { %"class.std::locale::facet.base", [4 x i8] }
%class.Graph = type { i32, %"class.std::vector" }
%"class.std::vector" = type { %"struct.std::_Vector_base" }
%"struct.std::_Vector_base" = type { %"struct.std::_Vector_base<std::vector<Edge, std::allocator<Edge> >, std::allocator<std::vector<Edge, std::allocator<Edge> > > >::_Vector_impl" }
%"struct.std::_Vector_base<std::vector<Edge, std::allocator<Edge> >, std::allocator<std::vector<Edge, std::allocator<Edge> > > >::_Vector_impl" = type { %"class.std::vector.0"*, %"class.std::vector.0"*, %"class.std::vector.0"* }
%"class.std::vector.0" = type { %"struct.std::_Vector_base.1" }
%"struct.std::_Vector_base.1" = type { %"struct.std::_Vector_base<Edge, std::allocator<Edge> >::_Vector_impl" }
%"struct.std::_Vector_base<Edge, std::allocator<Edge> >::_Vector_impl" = type { %class.Edge*, %class.Edge*, %class.Edge* }
%class.Edge = type { i32, i32, double }
%"class.std::allocator.2" = type { i8 }
%"class.std::vector.5" = type { %"struct.std::_Vector_base.6" }
%"struct.std::_Vector_base.6" = type { %"struct.std::_Vector_base<int, std::allocator<int> >::_Vector_impl" }
%"struct.std::_Vector_base<int, std::allocator<int> >::_Vector_impl" = type { i32*, i32*, i32* }
%"class.std::allocator.7" = type { i8 }
%"class.std::priority_queue" = type <{ %"class.std::vector.10", %"struct.std::greater", [7 x i8] }>
%"class.std::vector.10" = type { %"struct.std::_Vector_base.11" }
%"struct.std::_Vector_base.11" = type { %"struct.std::_Vector_base<std::tuple<double, int>, std::allocator<std::tuple<double, int> > >::_Vector_impl" }
%"struct.std::_Vector_base<std::tuple<double, int>, std::allocator<std::tuple<double, int> > >::_Vector_impl" = type { %"class.std::tuple"*, %"class.std::tuple"*, %"class.std::tuple"* }
%"class.std::tuple" = type { %"struct.std::_Tuple_impl" }
%"struct.std::_Tuple_impl" = type { %"struct.std::_Tuple_impl.15", %"struct.std::_Head_base.16" }
%"struct.std::_Tuple_impl.15" = type { %"struct.std::_Head_base" }
%"struct.std::_Head_base" = type { i32 }
%"struct.std::_Head_base.16" = type { double }
%"struct.std::greater" = type { i8 }
%"class.__gnu_cxx::__normal_iterator" = type { %class.Edge* }
%"class.__gnu_cxx::new_allocator.8" = type { i8 }
%"class.__gnu_cxx::__normal_iterator.46" = type { %"class.std::tuple"* }
%"class.std::allocator.12" = type { i8 }
%"class.std::vector.17" = type { %"struct.std::_Vector_base.18" }
%"struct.std::_Vector_base.18" = type { %"struct.std::_Vector_base<double, std::allocator<double> >::_Vector_impl" }
%"struct.std::_Vector_base<double, std::allocator<double> >::_Vector_impl" = type { double*, double*, double* }
%"class.std::allocator.19" = type { i8 }
%"class.__gnu_cxx::new_allocator.20" = type { i8 }
%"class.std::set" = type { %"class.std::_Rb_tree" }
%"class.std::_Rb_tree" = type { %"struct.std::_Rb_tree<int, int, std::_Identity<int>, std::less<int>, std::allocator<int> >::_Rb_tree_impl" }
%"struct.std::_Rb_tree<int, int, std::_Identity<int>, std::less<int>, std::allocator<int> >::_Rb_tree_impl" = type { %"struct.std::less", %"struct.std::_Rb_tree_node_base", i64 }
%"struct.std::less" = type { i8 }
%"struct.std::_Rb_tree_node_base" = type { i32, %"struct.std::_Rb_tree_node_base"*, %"struct.std::_Rb_tree_node_base"*, %"struct.std::_Rb_tree_node_base"* }
%"struct.std::_Rb_tree_const_iterator" = type { %"struct.std::_Rb_tree_node_base"* }
%"struct.std::pair" = type <{ %"struct.std::_Rb_tree_const_iterator", i8, [7 x i8] }>
%"struct.std::pair.49" = type <{ %"struct.std::_Rb_tree_iterator", i8, [7 x i8] }>
%"struct.std::_Rb_tree_iterator" = type { %"struct.std::_Rb_tree_node_base"* }
%"class.std::vector.26" = type { %"struct.std::_Vector_base.27" }
%"struct.std::_Vector_base.27" = type { %"struct.std::_Vector_base<std::vector<int, std::allocator<int> >, std::allocator<std::vector<int, std::allocator<int> > > >::_Vector_impl" }
%"struct.std::_Vector_base<std::vector<int, std::allocator<int> >, std::allocator<std::vector<int, std::allocator<int> > > >::_Vector_impl" = type { %"class.std::vector.5"*, %"class.std::vector.5"*, %"class.std::vector.5"* }
%"class.std::vector.31" = type { %"struct.std::_Bvector_base" }
%"struct.std::_Bvector_base" = type { %"struct.std::_Bvector_base<std::allocator<bool> >::_Bvector_impl" }
%"struct.std::_Bvector_base<std::allocator<bool> >::_Bvector_impl" = type { %"struct.std::_Bit_iterator", %"struct.std::_Bit_iterator", i64* }
%"struct.std::_Bit_iterator" = type { %"struct.std::_Bit_iterator_base.base", [4 x i8] }
%"struct.std::_Bit_iterator_base.base" = type <{ i64*, i32 }>
%"class.std::allocator.35" = type { i8 }
%"class.std::stack" = type { %"class.std::deque" }
%"class.std::deque" = type { %"class.std::_Deque_base" }
%"class.std::_Deque_base" = type { %"struct.std::_Deque_base<int, std::allocator<int> >::_Deque_impl" }
%"struct.std::_Deque_base<int, std::allocator<int> >::_Deque_impl" = type { i32**, i64, %"struct.std::_Deque_iterator", %"struct.std::_Deque_iterator" }
%"struct.std::_Deque_iterator" = type { i32*, i32*, i32*, i32** }
%"struct.std::_Bit_reference" = type { i64*, i64 }
%"class.std::allocator" = type { i8 }
%"class.__gnu_cxx::new_allocator.36" = type { i8 }
%"struct.std::_Bit_iterator_base" = type <{ i64*, i32, [4 x i8] }>
%"class.__gnu_cxx::new_allocator" = type { i8 }
%"class.std::allocator.32" = type { i8 }
%"class.__gnu_cxx::__normal_iterator.39" = type { i32* }
%"class.__gnu_cxx::__normal_iterator.38" = type { i32* }
%"class.std::allocator.28" = type { i8 }
%"struct.std::__false_type" = type { i8 }
%"class.std::tuple.40" = type { %"struct.std::_Tuple_impl.41" }
%"struct.std::_Tuple_impl.41" = type { %"struct.std::_Tuple_impl.42", %"struct.std::_Head_base.44" }
%"struct.std::_Tuple_impl.42" = type { %"struct.std::_Head_base.43" }
%"struct.std::_Head_base.43" = type { i32* }
%"struct.std::_Head_base.44" = type { double* }
%"struct.std::_Rb_tree_node" = type <{ %"struct.std::_Rb_tree_node_base", %"struct.__gnu_cxx::__aligned_membuf", [4 x i8] }>
%"struct.__gnu_cxx::__aligned_membuf" = type { [4 x i8] }
%"class.std::allocator.22" = type { i8 }
%"class.__gnu_cxx::new_allocator.23" = type { i8 }
%"class.std::move_iterator" = type { %"class.std::vector.0"* }
%"class.__gnu_cxx::new_allocator.3" = type { i8 }
%"class.std::move_iterator.45" = type { %class.Edge* }
%"class.__gnu_cxx::new_allocator.13" = type { i8 }
%"struct.__gnu_cxx::__ops::_Iter_comp_iter" = type { %"struct.std::greater" }
%"struct.__gnu_cxx::__ops::_Iter_comp_val" = type { %"struct.std::greater" }
%"class.std::move_iterator.47" = type { %"class.std::tuple"* }
%"class.__gnu_cxx::__normal_iterator.48" = type { %"class.std::tuple"* }
%"struct.std::_Rb_tree<int, int, std::_Identity<int>, std::less<int>, std::allocator<int> >::_Alloc_node" = type { %"class.std::_Rb_tree"* }
%"struct.std::_Identity" = type { i8 }
%"struct.std::pair.51" = type { %"struct.std::_Rb_tree_node_base"*, %"struct.std::_Rb_tree_node_base"* }
%"class.__gnu_cxx::new_allocator.29" = type { i8 }
%"class.__gnu_cxx::new_allocator.33" = type { i8 }
%"struct.std::iterator" = type { i8 }
%"class.std::allocator.52" = type { i8 }
%"class.__gnu_cxx::new_allocator.53" = type { i8 }
%"struct.std::integral_constant" = type { i8 }
%"struct.__gnu_cxx::__allocator_always_compares_equal" = type { i8 }
%"class.std::move_iterator.55" = type { %"class.std::vector.5"* }
%"class.std::move_iterator.56" = type { i32* }
%"struct.std::forward_iterator_tag" = type { i8 }
%"struct.std::random_access_iterator_tag" = type { i8 }

$_ZNSt6vectorIS_I4EdgeSaIS0_EESaIS2_EEixEm = comdat any

$_ZNK4Edge4fromEv = comdat any

$_ZNSt6vectorI4EdgeSaIS0_EE9push_backERKS0_ = comdat any

$_ZNSt6vectorI4EdgeSaIS0_EE9push_backEOS0_ = comdat any

$_ZN4EdgeC2Eiid = comdat any

$_ZNK5Graph4sizeEv = comdat any

$_ZNSaIiEC2Ev = comdat any

$_ZNSt6vectorIiSaIiEEC2EmRKiRKS0_ = comdat any

$_ZNSaIiED2Ev = comdat any

$_ZNSt6vectorISt5tupleIJdiEESaIS1_EEC2Ev = comdat any

$_ZNSt14priority_queueISt5tupleIJdiEESt6vectorIS1_SaIS1_EESt7greaterIS1_EEC2ERKS6_OS4_ = comdat any

$_ZNSt6vectorISt5tupleIJdiEESaIS1_EED2Ev = comdat any

$_ZNSt14priority_queueISt5tupleIJdiEESt6vectorIS1_SaIS1_EESt7greaterIS1_EE4pushEOS1_ = comdat any

$_ZNSt5tupleIJdiEEC2IiRKivEEOT_OT0_ = comdat any

$_ZNKSt14priority_queueISt5tupleIJdiEESt6vectorIS1_SaIS1_EESt7greaterIS1_EE5emptyEv = comdat any

$_ZSt3getILm0EJdiEERKNSt13tuple_elementIXT_ESt5tupleIJDpT0_EEE4typeERKS4_ = comdat any

$_ZNKSt14priority_queueISt5tupleIJdiEESt6vectorIS1_SaIS1_EESt7greaterIS1_EE3topEv = comdat any

$_ZSt3getILm1EJdiEERKNSt13tuple_elementIXT_ESt5tupleIJDpT0_EEE4typeERKS4_ = comdat any

$_ZNSt14priority_queueISt5tupleIJdiEESt6vectorIS1_SaIS1_EESt7greaterIS1_EE3popEv = comdat any

$_ZNSt6vectorIiSaIiEEixEm = comdat any

$_ZNK5Graph4edgeEi = comdat any

$_ZNKSt6vectorI4EdgeSaIS0_EE5beginEv = comdat any

$_ZNKSt6vectorI4EdgeSaIS0_EE3endEv = comdat any

$_ZN9__gnu_cxxneIPK4EdgeSt6vectorIS1_SaIS1_EEEEbRKNS_17__normal_iteratorIT_T0_EESC_ = comdat any

$_ZNK9__gnu_cxx17__normal_iteratorIPK4EdgeSt6vectorIS1_SaIS1_EEEdeEv = comdat any

$_ZNK4Edge6weightEv = comdat any

$_ZNK4Edge2toEv = comdat any

$_ZNSt5tupleIJdiEEC2IdivEEOT_OT0_ = comdat any

$_ZN9__gnu_cxx17__normal_iteratorIPK4EdgeSt6vectorIS1_SaIS1_EEEppEv = comdat any

$_ZNSt14priority_queueISt5tupleIJdiEESt6vectorIS1_SaIS1_EESt7greaterIS1_EED2Ev = comdat any

$_ZNSt6vectorIiSaIiEED2Ev = comdat any

$_ZNSaIdEC2Ev = comdat any

$_ZNSt6vectorIdSaIdEEC2EmRKdRKS0_ = comdat any

$_ZNSaIdED2Ev = comdat any

$_ZNSt6vectorIdSaIdEEixEm = comdat any

$_ZNSt6vectorIdSaIdEED2Ev = comdat any

$_ZNSt3setIiSt4lessIiESaIiEEC2ERKS3_ = comdat any

$_ZNKSt3setIiSt4lessIiESaIiEE5countERKi = comdat any

$_ZNKSt3setIiSt4lessIiESaIiEE4sizeEv = comdat any

$_ZNSt3setIiSt4lessIiESaIiEED2Ev = comdat any

$_ZNSt3setIiSt4lessIiESaIiEE6insertERKi = comdat any

$_ZNSt6vectorIS_IiSaIiEESaIS1_EEC2Ev = comdat any

$_ZNSaIbEC2Ev = comdat any

$_ZNSt6vectorIbSaIbEEC2EmRKbRKS0_ = comdat any

$_ZNSaIbED2Ev = comdat any

$_ZNSt5dequeIiSaIiEEC2Ev = comdat any

$_ZNSt5stackIiSt5dequeIiSaIiEEEC2EOS2_ = comdat any

$_ZNSt5dequeIiSaIiEED2Ev = comdat any

$_ZNSt6vectorIbSaIbEEixEm = comdat any

$_ZNKSt14_Bit_referencecvbEv = comdat any

$_ZNSt6vectorI4EdgeSaIS0_EEC2Ev = comdat any

$_ZNSaISt6vectorI4EdgeSaIS0_EEEC2Ev = comdat any

$_ZNSt6vectorIS_I4EdgeSaIS0_EESaIS2_EEC2EmRKS2_RKS3_ = comdat any

$_ZNSaISt6vectorI4EdgeSaIS0_EEED2Ev = comdat any

$_ZNSt6vectorI4EdgeSaIS0_EED2Ev = comdat any

$_ZNSt6vectorIbSaIbEEaSEOS1_ = comdat any

$_ZNSt6vectorIbSaIbEED2Ev = comdat any

$_ZNKSt5stackIiSt5dequeIiSaIiEEE5emptyEv = comdat any

$_ZNSt5stackIiSt5dequeIiSaIiEEE3topEv = comdat any

$_ZNSt5stackIiSt5dequeIiSaIiEEE3popEv = comdat any

$_ZNSt6vectorIS_IiSaIiEESaIS1_EE9push_backEOS1_ = comdat any

$_ZNSt6vectorIS_I4EdgeSaIS0_EESaIS2_EED2Ev = comdat any

$_ZNSt5stackIiSt5dequeIiSaIiEEED2Ev = comdat any

$_ZNSt6vectorIS_IiSaIiEESaIS1_EED2Ev = comdat any

$_ZNSt14_Bit_referenceaSEb = comdat any

$_ZNSt5stackIiSt5dequeIiSaIiEEE4pushERKi = comdat any

$_ZNSt6vectorIiSaIiEEC2Ev = comdat any

$_ZNSt6vectorIiSaIiEE9push_backERKi = comdat any

$_ZNKSt6vectorIS_I4EdgeSaIS0_EESaIS2_EEixEm = comdat any

$_ZNSt6vectorIiSaIiEE6insertIN9__gnu_cxx17__normal_iteratorIPiS1_EEvEES6_NS4_IPKiS1_EET_SA_ = comdat any

$_ZNSt6vectorIiSaIiEE3endEv = comdat any

$_ZN9__gnu_cxx17__normal_iteratorIPKiSt6vectorIiSaIiEEEC2IPiEERKNS0_IT_NS_11__enable_ifIXsr3std10__are_sameIS9_S8_EE7__valueES5_E6__typeEEE = comdat any

$_ZNSt6vectorIiSaIiEE5beginEv = comdat any

$_ZNSt5tupleIJdiEEC2IdRKivEEOT_OT0_ = comdat any

$_ZSt3tieIJdiEESt5tupleIJDpRT_EES3_ = comdat any

$_ZNSt5tupleIJRdRiEEaSIdiEERS2_OS_IJT_T0_EE = comdat any

$_ZSt3getILm0EJdiEERNSt13tuple_elementIXT_ESt5tupleIJDpT0_EEE4typeERS4_ = comdat any

$_ZSt10make_tupleIJRdRiEESt5tupleIJDpNSt17__decay_and_stripIT_E6__typeEEEDpOS4_ = comdat any

$_ZNSt5tupleIJdiEEaSEOS0_ = comdat any

$_ZSt3minIiERKT_S2_S2_ = comdat any

$_ZNSt3setIiSt4lessIiESaIiEEC2Ev = comdat any

$_ZN9__gnu_cxxneIPiSt6vectorIiSaIiEEEEbRKNS_17__normal_iteratorIT_T0_EESA_ = comdat any

$_ZNK9__gnu_cxx17__normal_iteratorIPiSt6vectorIiSaIiEEEdeEv = comdat any

$_ZN9__gnu_cxx17__normal_iteratorIPiSt6vectorIiSaIiEEEppEv = comdat any

$_ZNSt3setIiSt4lessIiESaIiEE6insertEOi = comdat any

$_ZN5GraphC2Ei = comdat any

$_ZNSt6vectorIiSaIiEEC2EmRKS0_ = comdat any

$_ZNKSt6vectorIS_IiSaIiEESaIS1_EE4sizeEv = comdat any

$_ZNSt6vectorIS_IiSaIiEESaIS1_EEixEm = comdat any

$_ZN5GraphD2Ev = comdat any

$_ZSt7forwardIiEOT_RNSt16remove_referenceIS0_E4typeE = comdat any

$_ZSt7forwardIRKiEOT_RNSt16remove_referenceIS2_E4typeE = comdat any

$_ZNSt11_Tuple_implILm0EJdiEEC2IiJRKiEvEEOT_DpOT0_ = comdat any

$_ZNSt11_Tuple_implILm1EJiEEC2ERKi = comdat any

$_ZNSt10_Head_baseILm0EdLb0EEC2IiEEOT_ = comdat any

$_ZNSt10_Head_baseILm1EiLb0EEC2ERKi = comdat any

$_ZSt12__get_helperILm0EdJiEERKT0_RKSt11_Tuple_implIXT_EJS0_DpT1_EE = comdat any

$_ZNSt11_Tuple_implILm0EJdiEE7_M_headERKS0_ = comdat any

$_ZNSt10_Head_baseILm0EdLb0EE7_M_headERKS0_ = comdat any

$_ZSt12__get_helperILm1EiJEERKT0_RKSt11_Tuple_implIXT_EJS0_DpT1_EE = comdat any

$_ZNSt11_Tuple_implILm1EJiEE7_M_headERKS0_ = comdat any

$_ZNSt10_Head_baseILm1EiLb0EE7_M_headERKS0_ = comdat any

$_ZSt7forwardIdEOT_RNSt16remove_referenceIS0_E4typeE = comdat any

$_ZNSt11_Tuple_implILm0EJdiEEC2IdJiEvEEOT_DpOT0_ = comdat any

$_ZNSt11_Tuple_implILm1EJiEEC2IiEEOT_ = comdat any

$_ZNSt10_Head_baseILm0EdLb0EEC2IdEEOT_ = comdat any

$_ZNSt10_Head_baseILm1EiLb0EEC2IiEEOT_ = comdat any

$_ZNSt8_Rb_treeIiiSt9_IdentityIiESt4lessIiESaIiEED2Ev = comdat any

$_ZNSt8_Rb_treeIiiSt9_IdentityIiESt4lessIiESaIiEE8_M_eraseEPSt13_Rb_tree_nodeIiE = comdat any

$_ZNSt8_Rb_treeIiiSt9_IdentityIiESt4lessIiESaIiEE8_M_beginEv = comdat any

$_ZNSt8_Rb_treeIiiSt9_IdentityIiESt4lessIiESaIiEE13_Rb_tree_implIS3_Lb1EED2Ev = comdat any

$__clang_call_terminate = comdat any

$_ZNSt8_Rb_treeIiiSt9_IdentityIiESt4lessIiESaIiEE8_S_rightEPSt18_Rb_tree_node_base = comdat any

$_ZNSt8_Rb_treeIiiSt9_IdentityIiESt4lessIiESaIiEE7_S_leftEPSt18_Rb_tree_node_base = comdat any

$_ZNSt8_Rb_treeIiiSt9_IdentityIiESt4lessIiESaIiEE12_M_drop_nodeEPSt13_Rb_tree_nodeIiE = comdat any

$_ZNSt8_Rb_treeIiiSt9_IdentityIiESt4lessIiESaIiEE15_M_destroy_nodeEPSt13_Rb_tree_nodeIiE = comdat any

$_ZNSt8_Rb_treeIiiSt9_IdentityIiESt4lessIiESaIiEE11_M_put_nodeEPSt13_Rb_tree_nodeIiE = comdat any

$_ZNSt16allocator_traitsISaISt13_Rb_tree_nodeIiEEE7destroyIiEEvRS2_PT_ = comdat any

$_ZNSt8_Rb_treeIiiSt9_IdentityIiESt4lessIiESaIiEE21_M_get_Node_allocatorEv = comdat any

$_ZNSt13_Rb_tree_nodeIiE9_M_valptrEv = comdat any

$_ZN9__gnu_cxx13new_allocatorISt13_Rb_tree_nodeIiEE7destroyIiEEvPT_ = comdat any

$_ZN9__gnu_cxx16__aligned_membufIiE6_M_ptrEv = comdat any

$_ZN9__gnu_cxx16__aligned_membufIiE7_M_addrEv = comdat any

$_ZNSt16allocator_traitsISaISt13_Rb_tree_nodeIiEEE10deallocateERS2_PS1_m = comdat any

$_ZN9__gnu_cxx13new_allocatorISt13_Rb_tree_nodeIiEE10deallocateEPS2_m = comdat any

$_ZN9__gnu_cxx13new_allocatorISt13_Rb_tree_nodeIiEED2Ev = comdat any

$_ZNSt11_Tuple_implILm0EJdiEEC2IdJRKiEvEEOT_DpOT0_ = comdat any

$_ZSt12__get_helperILm0EdJiEERT0_RSt11_Tuple_implIXT_EJS0_DpT1_EE = comdat any

$_ZNSt11_Tuple_implILm0EJdiEE7_M_headERS0_ = comdat any

$_ZNSt10_Head_baseILm0EdLb0EE7_M_headERS0_ = comdat any

$_ZSt7forwardIRdEOT_RNSt16remove_referenceIS1_E4typeE = comdat any

$_ZSt7forwardIRiEOT_RNSt16remove_referenceIS1_E4typeE = comdat any

$_ZNSt5tupleIJdiEEC2IRdRivEEOT_OT0_ = comdat any

$_ZNSt11_Tuple_implILm0EJdiEEC2IRdJRiEvEEOT_DpOT0_ = comdat any

$_ZNSt11_Tuple_implILm1EJiEEC2IRiEEOT_ = comdat any

$_ZNSt10_Head_baseILm0EdLb0EEC2IRdEEOT_ = comdat any

$_ZNSt10_Head_baseILm1EiLb0EEC2IRiEEOT_ = comdat any

$_ZNSt6vectorIS_I4EdgeSaIS0_EESaIS2_EEC2Ev = comdat any

$_ZNSt6vectorIS_I4EdgeSaIS0_EESaIS2_EE6resizeEm = comdat any

$_ZNSt12_Vector_baseISt6vectorI4EdgeSaIS1_EESaIS3_EEC2Ev = comdat any

$_ZNSt12_Vector_baseISt6vectorI4EdgeSaIS1_EESaIS3_EE12_Vector_implC2Ev = comdat any

$_ZN9__gnu_cxx13new_allocatorISt6vectorI4EdgeSaIS2_EEEC2Ev = comdat any

$_ZNKSt6vectorIS_I4EdgeSaIS0_EESaIS2_EE4sizeEv = comdat any

$_ZNSt6vectorIS_I4EdgeSaIS0_EESaIS2_EE17_M_default_appendEm = comdat any

$_ZNSt6vectorIS_I4EdgeSaIS0_EESaIS2_EE15_M_erase_at_endEPS2_ = comdat any

$_ZSt27__uninitialized_default_n_aIPSt6vectorI4EdgeSaIS1_EEmS3_ET_S5_T0_RSaIT1_E = comdat any

$_ZNSt12_Vector_baseISt6vectorI4EdgeSaIS1_EESaIS3_EE19_M_get_Tp_allocatorEv = comdat any

$_ZNKSt6vectorIS_I4EdgeSaIS0_EESaIS2_EE12_M_check_lenEmPKc = comdat any

$_ZNSt12_Vector_baseISt6vectorI4EdgeSaIS1_EESaIS3_EE11_M_allocateEm = comdat any

$_ZSt34__uninitialized_move_if_noexcept_aIPSt6vectorI4EdgeSaIS1_EES4_SaIS3_EET0_T_S7_S6_RT1_ = comdat any

$_ZSt8_DestroyIPSt6vectorI4EdgeSaIS1_EES3_EvT_S5_RSaIT0_E = comdat any

$_ZNSt12_Vector_baseISt6vectorI4EdgeSaIS1_EESaIS3_EE13_M_deallocateEPS3_m = comdat any

$_ZSt25__uninitialized_default_nIPSt6vectorI4EdgeSaIS1_EEmET_S5_T0_ = comdat any

$_ZNSt27__uninitialized_default_n_1ILb0EE18__uninit_default_nIPSt6vectorI4EdgeSaIS3_EEmEET_S7_T0_ = comdat any

$_ZSt10_ConstructISt6vectorI4EdgeSaIS1_EEJEEvPT_DpOT0_ = comdat any

$_ZSt11__addressofISt6vectorI4EdgeSaIS1_EEEPT_RS4_ = comdat any

$_ZSt8_DestroyIPSt6vectorI4EdgeSaIS1_EEEvT_S5_ = comdat any

$_ZNSt12_Destroy_auxILb0EE9__destroyIPSt6vectorI4EdgeSaIS3_EEEEvT_S7_ = comdat any

$_ZSt8_DestroyISt6vectorI4EdgeSaIS1_EEEvPT_ = comdat any

$_ZNKSt6vectorIS_I4EdgeSaIS0_EESaIS2_EE8max_sizeEv = comdat any

$_ZSt3maxImERKT_S2_S2_ = comdat any

$_ZNSt16allocator_traitsISaISt6vectorI4EdgeSaIS1_EEEE8max_sizeERKS4_ = comdat any

$_ZNKSt12_Vector_baseISt6vectorI4EdgeSaIS1_EESaIS3_EE19_M_get_Tp_allocatorEv = comdat any

$_ZNK9__gnu_cxx13new_allocatorISt6vectorI4EdgeSaIS2_EEE8max_sizeEv = comdat any

$_ZNSt16allocator_traitsISaISt6vectorI4EdgeSaIS1_EEEE8allocateERS4_m = comdat any

$_ZN9__gnu_cxx13new_allocatorISt6vectorI4EdgeSaIS2_EEE8allocateEmPKv = comdat any

$_ZSt22__uninitialized_copy_aISt13move_iteratorIPSt6vectorI4EdgeSaIS2_EEES5_S4_ET0_T_S8_S7_RSaIT1_E = comdat any

$_ZSt32__make_move_if_noexcept_iteratorIPSt6vectorI4EdgeSaIS1_EESt13move_iteratorIS4_EET0_T_ = comdat any

$_ZSt18uninitialized_copyISt13move_iteratorIPSt6vectorI4EdgeSaIS2_EEES5_ET0_T_S8_S7_ = comdat any

$_ZNSt20__uninitialized_copyILb0EE13__uninit_copyISt13move_iteratorIPSt6vectorI4EdgeSaIS4_EEES7_EET0_T_SA_S9_ = comdat any

$_ZStneIPSt6vectorI4EdgeSaIS1_EEEbRKSt13move_iteratorIT_ES9_ = comdat any

$_ZSt10_ConstructISt6vectorI4EdgeSaIS1_EEJS3_EEvPT_DpOT0_ = comdat any

$_ZNKSt13move_iteratorIPSt6vectorI4EdgeSaIS1_EEEdeEv = comdat any

$_ZNSt13move_iteratorIPSt6vectorI4EdgeSaIS1_EEEppEv = comdat any

$_ZSteqIPSt6vectorI4EdgeSaIS1_EEEbRKSt13move_iteratorIT_ES9_ = comdat any

$_ZNKSt13move_iteratorIPSt6vectorI4EdgeSaIS1_EEE4baseEv = comdat any

$_ZSt7forwardISt6vectorI4EdgeSaIS1_EEEOT_RNSt16remove_referenceIS4_E4typeE = comdat any

$_ZNSt6vectorI4EdgeSaIS0_EEC2EOS2_ = comdat any

$_ZSt4moveIRSt6vectorI4EdgeSaIS1_EEEONSt16remove_referenceIT_E4typeEOS6_ = comdat any

$_ZNSt12_Vector_baseI4EdgeSaIS0_EEC2EOS2_ = comdat any

$_ZSt4moveIRSaI4EdgeEEONSt16remove_referenceIT_E4typeEOS4_ = comdat any

$_ZNSt12_Vector_baseI4EdgeSaIS0_EE19_M_get_Tp_allocatorEv = comdat any

$_ZNSt12_Vector_baseI4EdgeSaIS0_EE12_Vector_implC2EOS1_ = comdat any

$_ZNSt12_Vector_baseI4EdgeSaIS0_EE12_Vector_impl12_M_swap_dataERS3_ = comdat any

$_ZN9__gnu_cxx13new_allocatorI4EdgeEC2ERKS2_ = comdat any

$_ZSt4swapIP4EdgeEvRT_S3_ = comdat any

$_ZSt4moveIRP4EdgeEONSt16remove_referenceIT_E4typeEOS4_ = comdat any

$_ZNSt13move_iteratorIPSt6vectorI4EdgeSaIS1_EEEC2ES4_ = comdat any

$_ZNSt16allocator_traitsISaISt6vectorI4EdgeSaIS1_EEEE10deallocateERS4_PS3_m = comdat any

$_ZN9__gnu_cxx13new_allocatorISt6vectorI4EdgeSaIS2_EEE10deallocateEPS4_m = comdat any

$_ZNSt12_Vector_baseISt6vectorI4EdgeSaIS1_EESaIS3_EED2Ev = comdat any

$_ZNSt12_Vector_baseISt6vectorI4EdgeSaIS1_EESaIS3_EE12_Vector_implD2Ev = comdat any

$_ZN9__gnu_cxx13new_allocatorISt6vectorI4EdgeSaIS2_EEED2Ev = comdat any

$_ZNSt16allocator_traitsISaI4EdgeEE9constructIS0_JRKS0_EEEvRS1_PT_DpOT0_ = comdat any

$_ZNSt6vectorI4EdgeSaIS0_EE19_M_emplace_back_auxIJRKS0_EEEvDpOT_ = comdat any

$_ZN9__gnu_cxx13new_allocatorI4EdgeE9constructIS1_JRKS1_EEEvPT_DpOT0_ = comdat any

$_ZSt7forwardIRK4EdgeEOT_RNSt16remove_referenceIS3_E4typeE = comdat any

$_ZNKSt6vectorI4EdgeSaIS0_EE12_M_check_lenEmPKc = comdat any

$_ZNSt12_Vector_baseI4EdgeSaIS0_EE11_M_allocateEm = comdat any

$_ZNKSt6vectorI4EdgeSaIS0_EE4sizeEv = comdat any

$_ZSt34__uninitialized_move_if_noexcept_aIP4EdgeS1_SaIS0_EET0_T_S4_S3_RT1_ = comdat any

$_ZNSt16allocator_traitsISaI4EdgeEE7destroyIS0_EEvRS1_PT_ = comdat any

$_ZSt8_DestroyIP4EdgeS0_EvT_S2_RSaIT0_E = comdat any

$_ZNSt12_Vector_baseI4EdgeSaIS0_EE13_M_deallocateEPS0_m = comdat any

$_ZNKSt6vectorI4EdgeSaIS0_EE8max_sizeEv = comdat any

$_ZNSt16allocator_traitsISaI4EdgeEE8max_sizeERKS1_ = comdat any

$_ZNKSt12_Vector_baseI4EdgeSaIS0_EE19_M_get_Tp_allocatorEv = comdat any

$_ZNK9__gnu_cxx13new_allocatorI4EdgeE8max_sizeEv = comdat any

$_ZNSt16allocator_traitsISaI4EdgeEE8allocateERS1_m = comdat any

$_ZN9__gnu_cxx13new_allocatorI4EdgeE8allocateEmPKv = comdat any

$_ZSt22__uninitialized_copy_aISt13move_iteratorIP4EdgeES2_S1_ET0_T_S5_S4_RSaIT1_E = comdat any

$_ZSt32__make_move_if_noexcept_iteratorIP4EdgeSt13move_iteratorIS1_EET0_T_ = comdat any

$_ZSt18uninitialized_copyISt13move_iteratorIP4EdgeES2_ET0_T_S5_S4_ = comdat any

$_ZNSt20__uninitialized_copyILb0EE13__uninit_copyISt13move_iteratorIP4EdgeES4_EET0_T_S7_S6_ = comdat any

$_ZStneIP4EdgeEbRKSt13move_iteratorIT_ES6_ = comdat any

$_ZSt10_ConstructI4EdgeJS0_EEvPT_DpOT0_ = comdat any

$_ZSt11__addressofI4EdgeEPT_RS1_ = comdat any

$_ZNKSt13move_iteratorIP4EdgeEdeEv = comdat any

$_ZNSt13move_iteratorIP4EdgeEppEv = comdat any

$_ZSt8_DestroyIP4EdgeEvT_S2_ = comdat any

$_ZSteqIP4EdgeEbRKSt13move_iteratorIT_ES6_ = comdat any

$_ZNKSt13move_iteratorIP4EdgeE4baseEv = comdat any

$_ZSt7forwardI4EdgeEOT_RNSt16remove_referenceIS1_E4typeE = comdat any

$_ZNSt12_Destroy_auxILb1EE9__destroyIP4EdgeEEvT_S4_ = comdat any

$_ZNSt13move_iteratorIP4EdgeEC2ES1_ = comdat any

$_ZN9__gnu_cxx13new_allocatorI4EdgeE7destroyIS1_EEvPT_ = comdat any

$_ZNSt16allocator_traitsISaI4EdgeEE10deallocateERS1_PS0_m = comdat any

$_ZN9__gnu_cxx13new_allocatorI4EdgeE10deallocateEPS1_m = comdat any

$_ZNSt6vectorI4EdgeSaIS0_EE12emplace_backIJS0_EEEvDpOT_ = comdat any

$_ZSt4moveIR4EdgeEONSt16remove_referenceIT_E4typeEOS3_ = comdat any

$_ZNSt16allocator_traitsISaI4EdgeEE9constructIS0_JS0_EEEvRS1_PT_DpOT0_ = comdat any

$_ZNSt6vectorI4EdgeSaIS0_EE19_M_emplace_back_auxIJS0_EEEvDpOT_ = comdat any

$_ZN9__gnu_cxx13new_allocatorI4EdgeE9constructIS1_JS1_EEEvPT_DpOT0_ = comdat any

$_ZN9__gnu_cxx13new_allocatorIiEC2Ev = comdat any

$_ZN9__gnu_cxx13new_allocatorIiED2Ev = comdat any

$_ZNSt12_Vector_baseIiSaIiEEC2EmRKS0_ = comdat any

$_ZNSt6vectorIiSaIiEE18_M_fill_initializeEmRKi = comdat any

$_ZNSt12_Vector_baseIiSaIiEED2Ev = comdat any

$_ZNSt12_Vector_baseIiSaIiEE12_Vector_implC2ERKS0_ = comdat any

$_ZNSt12_Vector_baseIiSaIiEE17_M_create_storageEm = comdat any

$_ZNSt12_Vector_baseIiSaIiEE12_Vector_implD2Ev = comdat any

$_ZNSaIiEC2ERKS_ = comdat any

$_ZN9__gnu_cxx13new_allocatorIiEC2ERKS1_ = comdat any

$_ZNSt12_Vector_baseIiSaIiEE11_M_allocateEm = comdat any

$_ZNSt16allocator_traitsISaIiEE8allocateERS0_m = comdat any

$_ZN9__gnu_cxx13new_allocatorIiE8allocateEmPKv = comdat any

$_ZNK9__gnu_cxx13new_allocatorIiE8max_sizeEv = comdat any

$_ZSt24__uninitialized_fill_n_aIPimiiET_S1_T0_RKT1_RSaIT2_E = comdat any

$_ZNSt12_Vector_baseIiSaIiEE19_M_get_Tp_allocatorEv = comdat any

$_ZSt20uninitialized_fill_nIPimiET_S1_T0_RKT1_ = comdat any

$_ZNSt22__uninitialized_fill_nILb1EE15__uninit_fill_nIPimiEET_S3_T0_RKT1_ = comdat any

$_ZSt6fill_nIPimiET_S1_T0_RKT1_ = comdat any

$_ZSt10__fill_n_aIPimiEN9__gnu_cxx11__enable_ifIXsr11__is_scalarIT1_EE7__valueET_E6__typeES4_T0_RKS3_ = comdat any

$_ZSt12__niter_baseIPiENSt11_Niter_baseIT_E13iterator_typeES2_ = comdat any

$_ZNSt10_Iter_baseIPiLb0EE7_S_baseES0_ = comdat any

$_ZNSt12_Vector_baseIiSaIiEE13_M_deallocateEPim = comdat any

$_ZNSt16allocator_traitsISaIiEE10deallocateERS0_Pim = comdat any

$_ZN9__gnu_cxx13new_allocatorIiE10deallocateEPim = comdat any

$_ZSt8_DestroyIPiiEvT_S1_RSaIT0_E = comdat any

$_ZSt8_DestroyIPiEvT_S1_ = comdat any

$_ZNSt12_Destroy_auxILb1EE9__destroyIPiEEvT_S3_ = comdat any

$_ZNSt12_Vector_baseISt5tupleIJdiEESaIS1_EEC2Ev = comdat any

$_ZNSt12_Vector_baseISt5tupleIJdiEESaIS1_EE12_Vector_implC2Ev = comdat any

$_ZNSaISt5tupleIJdiEEEC2Ev = comdat any

$_ZN9__gnu_cxx13new_allocatorISt5tupleIJdiEEEC2Ev = comdat any

$_ZSt8_DestroyIPSt5tupleIJdiEES1_EvT_S3_RSaIT0_E = comdat any

$_ZNSt12_Vector_baseISt5tupleIJdiEESaIS1_EE19_M_get_Tp_allocatorEv = comdat any

$_ZNSt12_Vector_baseISt5tupleIJdiEESaIS1_EED2Ev = comdat any

$_ZSt8_DestroyIPSt5tupleIJdiEEEvT_S3_ = comdat any

$_ZNSt12_Destroy_auxILb1EE9__destroyIPSt5tupleIJdiEEEEvT_S5_ = comdat any

$_ZNSt12_Vector_baseISt5tupleIJdiEESaIS1_EE13_M_deallocateEPS1_m = comdat any

$_ZNSt12_Vector_baseISt5tupleIJdiEESaIS1_EE12_Vector_implD2Ev = comdat any

$_ZNSt16allocator_traitsISaISt5tupleIJdiEEEE10deallocateERS2_PS1_m = comdat any

$_ZN9__gnu_cxx13new_allocatorISt5tupleIJdiEEE10deallocateEPS2_m = comdat any

$_ZNSaISt5tupleIJdiEEED2Ev = comdat any

$_ZN9__gnu_cxx13new_allocatorISt5tupleIJdiEEED2Ev = comdat any

$_ZSt4moveIRSt6vectorISt5tupleIJdiEESaIS2_EEEONSt16remove_referenceIT_E4typeEOS7_ = comdat any

$_ZNSt6vectorISt5tupleIJdiEESaIS1_EEC2EOS3_ = comdat any

$_ZSt9make_heapIN9__gnu_cxx17__normal_iteratorIPSt5tupleIJdiEESt6vectorIS3_SaIS3_EEEESt7greaterIS3_EEvT_SB_T0_ = comdat any

$_ZNSt6vectorISt5tupleIJdiEESaIS1_EE5beginEv = comdat any

$_ZNSt6vectorISt5tupleIJdiEESaIS1_EE3endEv = comdat any

$_ZNSt12_Vector_baseISt5tupleIJdiEESaIS1_EEC2EOS3_ = comdat any

$_ZSt4moveIRSaISt5tupleIJdiEEEEONSt16remove_referenceIT_E4typeEOS5_ = comdat any

$_ZNSt12_Vector_baseISt5tupleIJdiEESaIS1_EE12_Vector_implC2EOS2_ = comdat any

$_ZNSt12_Vector_baseISt5tupleIJdiEESaIS1_EE12_Vector_impl12_M_swap_dataERS4_ = comdat any

$_ZNSaISt5tupleIJdiEEEC2ERKS1_ = comdat any

$_ZN9__gnu_cxx13new_allocatorISt5tupleIJdiEEEC2ERKS3_ = comdat any

$_ZSt4swapIPSt5tupleIJdiEEEvRT_S4_ = comdat any

$_ZSt4moveIRPSt5tupleIJdiEEEONSt16remove_referenceIT_E4typeEOS5_ = comdat any

$_ZSt11__make_heapIN9__gnu_cxx17__normal_iteratorIPSt5tupleIJdiEESt6vectorIS3_SaIS3_EEEENS0_5__ops15_Iter_comp_iterISt7greaterIS3_EEEEvT_SE_T0_ = comdat any

$_ZN9__gnu_cxx5__ops16__iter_comp_iterISt7greaterISt5tupleIJdiEEEEENS0_15_Iter_comp_iterIT_EES7_ = comdat any

$_ZN9__gnu_cxxmiIPSt5tupleIJdiEESt6vectorIS2_SaIS2_EEEENS_17__normal_iteratorIT_T0_E15difference_typeERKSA_SD_ = comdat any

$_ZSt4moveIRSt5tupleIJdiEEEONSt16remove_referenceIT_E4typeEOS4_ = comdat any

$_ZNK9__gnu_cxx17__normal_iteratorIPSt5tupleIJdiEESt6vectorIS2_SaIS2_EEEplEl = comdat any

$_ZNK9__gnu_cxx17__normal_iteratorIPSt5tupleIJdiEESt6vectorIS2_SaIS2_EEEdeEv = comdat any

$_ZNSt5tupleIJdiEEC2EOS0_ = comdat any

$_ZSt13__adjust_heapIN9__gnu_cxx17__normal_iteratorIPSt5tupleIJdiEESt6vectorIS3_SaIS3_EEEElS3_NS0_5__ops15_Iter_comp_iterISt7greaterIS3_EEEEvT_T0_SF_T1_T2_ = comdat any

$_ZNK9__gnu_cxx17__normal_iteratorIPSt5tupleIJdiEESt6vectorIS2_SaIS2_EEE4baseEv = comdat any

$_ZN9__gnu_cxx17__normal_iteratorIPSt5tupleIJdiEESt6vectorIS2_SaIS2_EEEC2ERKS3_ = comdat any

$_ZNSt11_Tuple_implILm0EJdiEEC2EOS0_ = comdat any

$_ZSt4moveIRSt11_Tuple_implILm1EJiEEEONSt16remove_referenceIT_E4typeEOS4_ = comdat any

$_ZNSt11_Tuple_implILm0EJdiEE7_M_tailERS0_ = comdat any

$_ZNSt11_Tuple_implILm1EJiEEC2EOS0_ = comdat any

$_ZNSt11_Tuple_implILm1EJiEE7_M_headERS0_ = comdat any

$_ZNSt10_Head_baseILm1EiLb0EE7_M_headERS0_ = comdat any

$_ZN9__gnu_cxx5__ops15_Iter_comp_iterISt7greaterISt5tupleIJdiEEEEclINS_17__normal_iteratorIPS4_St6vectorIS4_SaIS4_EEEESD_EEbT_T0_ = comdat any

$_ZSt11__push_heapIN9__gnu_cxx17__normal_iteratorIPSt5tupleIJdiEESt6vectorIS3_SaIS3_EEEElS3_NS0_5__ops14_Iter_comp_valISt7greaterIS3_EEEEvT_T0_SF_T1_T2_ = comdat any

$_ZN9__gnu_cxx5__ops15__iter_comp_valISt7greaterISt5tupleIJdiEEEEENS0_14_Iter_comp_valIT_EENS0_15_Iter_comp_iterIS7_EE = comdat any

$_ZNKSt7greaterISt5tupleIJdiEEEclERKS1_S4_ = comdat any

$_ZStgtIJdiEJdiEEbRKSt5tupleIJDpT_EERKS0_IJDpT0_EE = comdat any

$_ZStltIJdiEJdiEEbRKSt5tupleIJDpT_EERKS0_IJDpT0_EE = comdat any

$_ZNSt15__tuple_compareISt5tupleIJdiEES1_Lm0ELm2EE6__lessERKS1_S4_ = comdat any

$_ZNSt15__tuple_compareISt5tupleIJdiEES1_Lm1ELm2EE6__lessERKS1_S4_ = comdat any

$_ZNSt15__tuple_compareISt5tupleIJdiEES1_Lm2ELm2EE6__lessERKS1_S4_ = comdat any

$_ZN9__gnu_cxx5__ops14_Iter_comp_valISt7greaterISt5tupleIJdiEEEEclINS_17__normal_iteratorIPS4_St6vectorIS4_SaIS4_EEEES4_EEbT_RT0_ = comdat any

$_ZN9__gnu_cxx5__ops14_Iter_comp_valISt7greaterISt5tupleIJdiEEEEC2ES5_ = comdat any

$_ZN9__gnu_cxx5__ops15_Iter_comp_iterISt7greaterISt5tupleIJdiEEEEC2ES5_ = comdat any

$_ZNSt6vectorISt5tupleIJdiEESaIS1_EE9push_backEOS1_ = comdat any

$_ZSt9push_heapIN9__gnu_cxx17__normal_iteratorIPSt5tupleIJdiEESt6vectorIS3_SaIS3_EEEESt7greaterIS3_EEvT_SB_T0_ = comdat any

$_ZNSt6vectorISt5tupleIJdiEESaIS1_EE12emplace_backIJS1_EEEvDpOT_ = comdat any

$_ZNSt16allocator_traitsISaISt5tupleIJdiEEEE9constructIS1_JS1_EEEvRS2_PT_DpOT0_ = comdat any

$_ZSt7forwardISt5tupleIJdiEEEOT_RNSt16remove_referenceIS2_E4typeE = comdat any

$_ZNSt6vectorISt5tupleIJdiEESaIS1_EE19_M_emplace_back_auxIJS1_EEEvDpOT_ = comdat any

$_ZN9__gnu_cxx13new_allocatorISt5tupleIJdiEEE9constructIS2_JS2_EEEvPT_DpOT0_ = comdat any

$_ZNKSt6vectorISt5tupleIJdiEESaIS1_EE12_M_check_lenEmPKc = comdat any

$_ZNSt12_Vector_baseISt5tupleIJdiEESaIS1_EE11_M_allocateEm = comdat any

$_ZNKSt6vectorISt5tupleIJdiEESaIS1_EE4sizeEv = comdat any

$_ZSt34__uninitialized_move_if_noexcept_aIPSt5tupleIJdiEES2_SaIS1_EET0_T_S5_S4_RT1_ = comdat any

$_ZNSt16allocator_traitsISaISt5tupleIJdiEEEE7destroyIS1_EEvRS2_PT_ = comdat any

$_ZNKSt6vectorISt5tupleIJdiEESaIS1_EE8max_sizeEv = comdat any

$_ZNSt16allocator_traitsISaISt5tupleIJdiEEEE8max_sizeERKS2_ = comdat any

$_ZNKSt12_Vector_baseISt5tupleIJdiEESaIS1_EE19_M_get_Tp_allocatorEv = comdat any

$_ZNK9__gnu_cxx13new_allocatorISt5tupleIJdiEEE8max_sizeEv = comdat any

$_ZNSt16allocator_traitsISaISt5tupleIJdiEEEE8allocateERS2_m = comdat any

$_ZN9__gnu_cxx13new_allocatorISt5tupleIJdiEEE8allocateEmPKv = comdat any

$_ZSt22__uninitialized_copy_aISt13move_iteratorIPSt5tupleIJdiEEES3_S2_ET0_T_S6_S5_RSaIT1_E = comdat any

$_ZSt32__make_move_if_noexcept_iteratorIPSt5tupleIJdiEESt13move_iteratorIS2_EET0_T_ = comdat any

$_ZSt18uninitialized_copyISt13move_iteratorIPSt5tupleIJdiEEES3_ET0_T_S6_S5_ = comdat any

$_ZNSt20__uninitialized_copyILb0EE13__uninit_copyISt13move_iteratorIPSt5tupleIJdiEEES5_EET0_T_S8_S7_ = comdat any

$_ZStneIPSt5tupleIJdiEEEbRKSt13move_iteratorIT_ES7_ = comdat any

$_ZSt10_ConstructISt5tupleIJdiEEJS1_EEvPT_DpOT0_ = comdat any

$_ZSt11__addressofISt5tupleIJdiEEEPT_RS2_ = comdat any

$_ZNKSt13move_iteratorIPSt5tupleIJdiEEEdeEv = comdat any

$_ZNSt13move_iteratorIPSt5tupleIJdiEEEppEv = comdat any

$_ZSteqIPSt5tupleIJdiEEEbRKSt13move_iteratorIT_ES7_ = comdat any

$_ZNKSt13move_iteratorIPSt5tupleIJdiEEE4baseEv = comdat any

$_ZNSt13move_iteratorIPSt5tupleIJdiEEEC2ES2_ = comdat any

$_ZN9__gnu_cxx13new_allocatorISt5tupleIJdiEEE7destroyIS2_EEvPT_ = comdat any

$_ZNK9__gnu_cxx17__normal_iteratorIPSt5tupleIJdiEESt6vectorIS2_SaIS2_EEEmiEl = comdat any

$_ZN9__gnu_cxx5__ops15__iter_comp_valISt7greaterISt5tupleIJdiEEEEENS0_14_Iter_comp_valIT_EES7_ = comdat any

$_ZNKSt6vectorISt5tupleIJdiEESaIS1_EE5emptyEv = comdat any

$_ZN9__gnu_cxxeqIPKSt5tupleIJdiEESt6vectorIS2_SaIS2_EEEEbRKNS_17__normal_iteratorIT_T0_EESD_ = comdat any

$_ZNKSt6vectorISt5tupleIJdiEESaIS1_EE5beginEv = comdat any

$_ZNKSt6vectorISt5tupleIJdiEESaIS1_EE3endEv = comdat any

$_ZNK9__gnu_cxx17__normal_iteratorIPKSt5tupleIJdiEESt6vectorIS2_SaIS2_EEE4baseEv = comdat any

$_ZN9__gnu_cxx17__normal_iteratorIPKSt5tupleIJdiEESt6vectorIS2_SaIS2_EEEC2ERKS4_ = comdat any

$_ZNKSt6vectorISt5tupleIJdiEESaIS1_EE5frontEv = comdat any

$_ZNK9__gnu_cxx17__normal_iteratorIPKSt5tupleIJdiEESt6vectorIS2_SaIS2_EEEdeEv = comdat any

$_ZSt8pop_heapIN9__gnu_cxx17__normal_iteratorIPSt5tupleIJdiEESt6vectorIS3_SaIS3_EEEESt7greaterIS3_EEvT_SB_T0_ = comdat any

$_ZNSt6vectorISt5tupleIJdiEESaIS1_EE8pop_backEv = comdat any

$_ZN9__gnu_cxx17__normal_iteratorIPSt5tupleIJdiEESt6vectorIS2_SaIS2_EEEmmEv = comdat any

$_ZSt10__pop_heapIN9__gnu_cxx17__normal_iteratorIPSt5tupleIJdiEESt6vectorIS3_SaIS3_EEEENS0_5__ops15_Iter_comp_iterISt7greaterIS3_EEEEvT_SE_SE_T0_ = comdat any

$_ZN9__gnu_cxx17__normal_iteratorIPK4EdgeSt6vectorIS1_SaIS1_EEEC2ERKS3_ = comdat any

$_ZNK9__gnu_cxx17__normal_iteratorIPK4EdgeSt6vectorIS1_SaIS1_EEE4baseEv = comdat any

$_ZN9__gnu_cxx13new_allocatorIdEC2Ev = comdat any

$_ZN9__gnu_cxx13new_allocatorIdED2Ev = comdat any

$_ZNSt12_Vector_baseIdSaIdEEC2EmRKS0_ = comdat any

$_ZNSt6vectorIdSaIdEE18_M_fill_initializeEmRKd = comdat any

$_ZNSt12_Vector_baseIdSaIdEED2Ev = comdat any

$_ZNSt12_Vector_baseIdSaIdEE12_Vector_implC2ERKS0_ = comdat any

$_ZNSt12_Vector_baseIdSaIdEE17_M_create_storageEm = comdat any

$_ZNSt12_Vector_baseIdSaIdEE12_Vector_implD2Ev = comdat any

$_ZNSaIdEC2ERKS_ = comdat any

$_ZN9__gnu_cxx13new_allocatorIdEC2ERKS1_ = comdat any

$_ZNSt12_Vector_baseIdSaIdEE11_M_allocateEm = comdat any

$_ZNSt16allocator_traitsISaIdEE8allocateERS0_m = comdat any

$_ZN9__gnu_cxx13new_allocatorIdE8allocateEmPKv = comdat any

$_ZNK9__gnu_cxx13new_allocatorIdE8max_sizeEv = comdat any

$_ZSt24__uninitialized_fill_n_aIPdmddET_S1_T0_RKT1_RSaIT2_E = comdat any

$_ZNSt12_Vector_baseIdSaIdEE19_M_get_Tp_allocatorEv = comdat any

$_ZSt20uninitialized_fill_nIPdmdET_S1_T0_RKT1_ = comdat any

$_ZNSt22__uninitialized_fill_nILb1EE15__uninit_fill_nIPdmdEET_S3_T0_RKT1_ = comdat any

$_ZSt6fill_nIPdmdET_S1_T0_RKT1_ = comdat any

$_ZSt10__fill_n_aIPdmdEN9__gnu_cxx11__enable_ifIXsr11__is_scalarIT1_EE7__valueET_E6__typeES4_T0_RKS3_ = comdat any

$_ZSt12__niter_baseIPdENSt11_Niter_baseIT_E13iterator_typeES2_ = comdat any

$_ZNSt10_Iter_baseIPdLb0EE7_S_baseES0_ = comdat any

$_ZNSt12_Vector_baseIdSaIdEE13_M_deallocateEPdm = comdat any

$_ZNSt16allocator_traitsISaIdEE10deallocateERS0_Pdm = comdat any

$_ZN9__gnu_cxx13new_allocatorIdE10deallocateEPdm = comdat any

$_ZSt8_DestroyIPddEvT_S1_RSaIT0_E = comdat any

$_ZSt8_DestroyIPdEvT_S1_ = comdat any

$_ZNSt12_Destroy_auxILb1EE9__destroyIPdEEvT_S3_ = comdat any

$_ZNSt8_Rb_treeIiiSt9_IdentityIiESt4lessIiESaIiEEC2ERKS5_ = comdat any

$_ZN9__gnu_cxx14__alloc_traitsISaISt13_Rb_tree_nodeIiEEE17_S_select_on_copyERKS3_ = comdat any

$_ZNKSt8_Rb_treeIiiSt9_IdentityIiESt4lessIiESaIiEE21_M_get_Node_allocatorEv = comdat any

$_ZNSt8_Rb_treeIiiSt9_IdentityIiESt4lessIiESaIiEE13_Rb_tree_implIS3_Lb1EEC2ERKS3_OSaISt13_Rb_tree_nodeIiEE = comdat any

$_ZNSaISt13_Rb_tree_nodeIiEED2Ev = comdat any

$_ZNKSt8_Rb_treeIiiSt9_IdentityIiESt4lessIiESaIiEE7_M_rootEv = comdat any

$_ZNSt8_Rb_treeIiiSt9_IdentityIiESt4lessIiESaIiEE7_M_copyEPKSt13_Rb_tree_nodeIiEPS7_ = comdat any

$_ZNKSt8_Rb_treeIiiSt9_IdentityIiESt4lessIiESaIiEE8_M_beginEv = comdat any

$_ZNSt8_Rb_treeIiiSt9_IdentityIiESt4lessIiESaIiEE6_M_endEv = comdat any

$_ZNSt8_Rb_treeIiiSt9_IdentityIiESt4lessIiESaIiEE7_M_rootEv = comdat any

$_ZNSt8_Rb_treeIiiSt9_IdentityIiESt4lessIiESaIiEE10_S_minimumEPSt18_Rb_tree_node_base = comdat any

$_ZNSt8_Rb_treeIiiSt9_IdentityIiESt4lessIiESaIiEE11_M_leftmostEv = comdat any

$_ZNSt8_Rb_treeIiiSt9_IdentityIiESt4lessIiESaIiEE10_S_maximumEPSt18_Rb_tree_node_base = comdat any

$_ZNSt8_Rb_treeIiiSt9_IdentityIiESt4lessIiESaIiEE12_M_rightmostEv = comdat any

$_ZNSt16allocator_traitsISaISt13_Rb_tree_nodeIiEEE37select_on_container_copy_constructionERKS2_ = comdat any

$_ZNSaISt13_Rb_tree_nodeIiEEC2ERKS1_ = comdat any

$_ZN9__gnu_cxx13new_allocatorISt13_Rb_tree_nodeIiEEC2ERKS3_ = comdat any

$_ZSt4moveIRSaISt13_Rb_tree_nodeIiEEEONSt16remove_referenceIT_E4typeEOS5_ = comdat any

$_ZNSt8_Rb_treeIiiSt9_IdentityIiESt4lessIiESaIiEE13_Rb_tree_implIS3_Lb1EE13_M_initializeEv = comdat any

$_ZNSt8_Rb_treeIiiSt9_IdentityIiESt4lessIiESaIiEE11_Alloc_nodeC2ERS5_ = comdat any

$_ZNSt8_Rb_treeIiiSt9_IdentityIiESt4lessIiESaIiEE7_M_copyINS5_11_Alloc_nodeEEEPSt13_Rb_tree_nodeIiEPKS9_SA_RT_ = comdat any

$_ZNSt8_Rb_treeIiiSt9_IdentityIiESt4lessIiESaIiEE13_M_clone_nodeINS5_11_Alloc_nodeEEEPSt13_Rb_tree_nodeIiEPKS9_RT_ = comdat any

$_ZNSt8_Rb_treeIiiSt9_IdentityIiESt4lessIiESaIiEE8_S_rightEPKSt18_Rb_tree_node_base = comdat any

$_ZNSt8_Rb_treeIiiSt9_IdentityIiESt4lessIiESaIiEE7_S_leftEPKSt18_Rb_tree_node_base = comdat any

$_ZNKSt8_Rb_treeIiiSt9_IdentityIiESt4lessIiESaIiEE11_Alloc_nodeclIRKiEEPSt13_Rb_tree_nodeIiEOT_ = comdat any

$_ZNKSt13_Rb_tree_nodeIiE9_M_valptrEv = comdat any

$_ZNSt8_Rb_treeIiiSt9_IdentityIiESt4lessIiESaIiEE14_M_create_nodeIJRKiEEEPSt13_Rb_tree_nodeIiEDpOT_ = comdat any

$_ZNSt8_Rb_treeIiiSt9_IdentityIiESt4lessIiESaIiEE11_M_get_nodeEv = comdat any

$_ZNSt8_Rb_treeIiiSt9_IdentityIiESt4lessIiESaIiEE17_M_construct_nodeIJRKiEEEvPSt13_Rb_tree_nodeIiEDpOT_ = comdat any

$_ZNSt16allocator_traitsISaISt13_Rb_tree_nodeIiEEE8allocateERS2_m = comdat any

$_ZN9__gnu_cxx13new_allocatorISt13_Rb_tree_nodeIiEE8allocateEmPKv = comdat any

$_ZNK9__gnu_cxx13new_allocatorISt13_Rb_tree_nodeIiEE8max_sizeEv = comdat any

$_ZNSt16allocator_traitsISaISt13_Rb_tree_nodeIiEEE9constructIiJRKiEEEvRS2_PT_DpOT0_ = comdat any

$_ZN9__gnu_cxx13new_allocatorISt13_Rb_tree_nodeIiEE9constructIiJRKiEEEvPT_DpOT0_ = comdat any

$_ZNK9__gnu_cxx16__aligned_membufIiE6_M_ptrEv = comdat any

$_ZNK9__gnu_cxx16__aligned_membufIiE7_M_addrEv = comdat any

$_ZNSt18_Rb_tree_node_base10_S_minimumEPS_ = comdat any

$_ZNSt18_Rb_tree_node_base10_S_maximumEPS_ = comdat any

$_ZNKSt8_Rb_treeIiiSt9_IdentityIiESt4lessIiESaIiEE4findERKi = comdat any

$_ZNKSt23_Rb_tree_const_iteratorIiEeqERKS0_ = comdat any

$_ZNKSt8_Rb_treeIiiSt9_IdentityIiESt4lessIiESaIiEE3endEv = comdat any

$_ZNKSt8_Rb_treeIiiSt9_IdentityIiESt4lessIiESaIiEE14_M_lower_boundEPKSt13_Rb_tree_nodeIiES9_RKi = comdat any

$_ZNKSt8_Rb_treeIiiSt9_IdentityIiESt4lessIiESaIiEE6_M_endEv = comdat any

$_ZNKSt4lessIiEclERKiS2_ = comdat any

$_ZNSt8_Rb_treeIiiSt9_IdentityIiESt4lessIiESaIiEE6_S_keyEPKSt18_Rb_tree_node_base = comdat any

$_ZNSt8_Rb_treeIiiSt9_IdentityIiESt4lessIiESaIiEE6_S_keyEPKSt13_Rb_tree_nodeIiE = comdat any

$_ZNSt23_Rb_tree_const_iteratorIiEC2EPKSt18_Rb_tree_node_base = comdat any

$_ZNKSt9_IdentityIiEclERKi = comdat any

$_ZNSt8_Rb_treeIiiSt9_IdentityIiESt4lessIiESaIiEE8_S_valueEPKSt13_Rb_tree_nodeIiE = comdat any

$_ZNSt8_Rb_treeIiiSt9_IdentityIiESt4lessIiESaIiEE8_S_valueEPKSt18_Rb_tree_node_base = comdat any

$_ZNKSt8_Rb_treeIiiSt9_IdentityIiESt4lessIiESaIiEE4sizeEv = comdat any

$_ZNSt8_Rb_treeIiiSt9_IdentityIiESt4lessIiESaIiEE16_M_insert_uniqueIRKiEESt4pairISt17_Rb_tree_iteratorIiEbEOT_ = comdat any

$_ZNSt4pairISt23_Rb_tree_const_iteratorIiEbEC2IRSt17_Rb_tree_iteratorIiERbvEEOT_OT0_ = comdat any

$_ZNSt8_Rb_treeIiiSt9_IdentityIiESt4lessIiESaIiEE24_M_get_insert_unique_posERKi = comdat any

$_ZNSt8_Rb_treeIiiSt9_IdentityIiESt4lessIiESaIiEE10_M_insert_IRKiNS5_11_Alloc_nodeEEESt17_Rb_tree_iteratorIiEPSt18_Rb_tree_node_baseSD_OT_RT0_ = comdat any

$_ZNSt4pairISt17_Rb_tree_iteratorIiEbEC2IS1_bvEEOT_OT0_ = comdat any

$_ZNSt17_Rb_tree_iteratorIiEC2EPSt18_Rb_tree_node_base = comdat any

$_ZNKSt17_Rb_tree_iteratorIiEeqERKS0_ = comdat any

$_ZNSt8_Rb_treeIiiSt9_IdentityIiESt4lessIiESaIiEE5beginEv = comdat any

$_ZNSt4pairIPSt18_Rb_tree_node_baseS1_EC2IRPSt13_Rb_tree_nodeIiES7_vEEOT_OT0_ = comdat any

$_ZNSt17_Rb_tree_iteratorIiEmmEv = comdat any

$_ZNSt4pairIPSt18_Rb_tree_node_baseS1_EC2IRS1_vEEOT_RKS1_ = comdat any

$_ZSt7forwardIRPSt13_Rb_tree_nodeIiEEOT_RNSt16remove_referenceIS4_E4typeE = comdat any

$_ZSt7forwardIRPSt18_Rb_tree_node_baseEOT_RNSt16remove_referenceIS3_E4typeE = comdat any

$_ZSt7forwardISt17_Rb_tree_iteratorIiEEOT_RNSt16remove_referenceIS2_E4typeE = comdat any

$_ZSt7forwardIbEOT_RNSt16remove_referenceIS0_E4typeE = comdat any

$_ZSt7forwardIRSt17_Rb_tree_iteratorIiEEOT_RNSt16remove_referenceIS3_E4typeE = comdat any

$_ZNSt23_Rb_tree_const_iteratorIiEC2ERKSt17_Rb_tree_iteratorIiE = comdat any

$_ZSt7forwardIRbEOT_RNSt16remove_referenceIS1_E4typeE = comdat any

$_ZNSt12_Vector_baseISt6vectorIiSaIiEESaIS2_EEC2Ev = comdat any

$_ZNSt12_Vector_baseISt6vectorIiSaIiEESaIS2_EE12_Vector_implC2Ev = comdat any

$_ZNSaISt6vectorIiSaIiEEEC2Ev = comdat any

$_ZN9__gnu_cxx13new_allocatorISt6vectorIiSaIiEEEC2Ev = comdat any

$_ZSt8_DestroyIPSt6vectorIiSaIiEES2_EvT_S4_RSaIT0_E = comdat any

$_ZNSt12_Vector_baseISt6vectorIiSaIiEESaIS2_EE19_M_get_Tp_allocatorEv = comdat any

$_ZNSt12_Vector_baseISt6vectorIiSaIiEESaIS2_EED2Ev = comdat any

$_ZSt8_DestroyIPSt6vectorIiSaIiEEEvT_S4_ = comdat any

$_ZNSt12_Destroy_auxILb0EE9__destroyIPSt6vectorIiSaIiEEEEvT_S6_ = comdat any

$_ZSt8_DestroyISt6vectorIiSaIiEEEvPT_ = comdat any

$_ZSt11__addressofISt6vectorIiSaIiEEEPT_RS3_ = comdat any

$_ZNSt12_Vector_baseISt6vectorIiSaIiEESaIS2_EE13_M_deallocateEPS2_m = comdat any

$_ZNSt12_Vector_baseISt6vectorIiSaIiEESaIS2_EE12_Vector_implD2Ev = comdat any

$_ZNSt16allocator_traitsISaISt6vectorIiSaIiEEEE10deallocateERS3_PS2_m = comdat any

$_ZN9__gnu_cxx13new_allocatorISt6vectorIiSaIiEEE10deallocateEPS3_m = comdat any

$_ZNSaISt6vectorIiSaIiEEED2Ev = comdat any

$_ZN9__gnu_cxx13new_allocatorISt6vectorIiSaIiEEED2Ev = comdat any

$_ZN9__gnu_cxx13new_allocatorIbEC2Ev = comdat any

$_ZN9__gnu_cxx13new_allocatorIbED2Ev = comdat any

$_ZNSt13_Bvector_baseISaIbEEC2ERKS0_ = comdat any

$_ZNSt6vectorIbSaIbEE13_M_initializeEm = comdat any

$_ZSt4fillIPmiEvT_S1_RKT0_ = comdat any

$_ZNKSt13_Bvector_baseISaIbEE13_Bvector_impl11_M_end_addrEv = comdat any

$_ZNSt13_Bvector_baseISaIbEED2Ev = comdat any

$_ZNSaImEC2IbEERKSaIT_E = comdat any

$_ZNSt13_Bvector_baseISaIbEE13_Bvector_implC2EOSaImE = comdat any

$_ZNSaImED2Ev = comdat any

$_ZN9__gnu_cxx13new_allocatorImEC2Ev = comdat any

$_ZSt4moveIRSaImEEONSt16remove_referenceIT_E4typeEOS3_ = comdat any

$_ZNSaImEC2ERKS_ = comdat any

$_ZNSt13_Bit_iteratorC2Ev = comdat any

$_ZN9__gnu_cxx13new_allocatorImEC2ERKS1_ = comdat any

$_ZNSt18_Bit_iterator_baseC2EPmj = comdat any

$_ZN9__gnu_cxx13new_allocatorImED2Ev = comdat any

$_ZNSt13_Bvector_baseISaIbEE11_M_allocateEm = comdat any

$_ZNSt13_Bvector_baseISaIbEE8_S_nwordEm = comdat any

$_ZSt11__addressofImEPT_RS0_ = comdat any

$_ZNSt13_Bit_iteratorC2EPmj = comdat any

$_ZNKSt13_Bit_iteratorplEl = comdat any

$_ZNSt16allocator_traitsISaImEE8allocateERS0_m = comdat any

$_ZN9__gnu_cxx13new_allocatorImE8allocateEmPKv = comdat any

$_ZNK9__gnu_cxx13new_allocatorImE8max_sizeEv = comdat any

$_ZNSt13_Bit_iteratorpLEl = comdat any

$_ZNSt18_Bit_iterator_base7_M_incrEl = comdat any

$_ZSt8__fill_aIPmiEN9__gnu_cxx11__enable_ifIXsr11__is_scalarIT0_EE7__valueEvE6__typeET_S6_RKS3_ = comdat any

$_ZSt12__niter_baseIPmENSt11_Niter_baseIT_E13iterator_typeES2_ = comdat any

$_ZNSt10_Iter_baseIPmLb0EE7_S_baseES0_ = comdat any

$_ZNSt13_Bvector_baseISaIbEE13_M_deallocateEv = comdat any

$_ZNSt13_Bvector_baseISaIbEE13_Bvector_implD2Ev = comdat any

$_ZNSt16allocator_traitsISaImEE10deallocateERS0_Pmm = comdat any

$_ZN9__gnu_cxx13new_allocatorImE10deallocateEPmm = comdat any

$_ZNSt11_Deque_baseIiSaIiEEC2Ev = comdat any

$_ZNSt11_Deque_baseIiSaIiEE11_Deque_implC2Ev = comdat any

$_ZNSt11_Deque_baseIiSaIiEE17_M_initialize_mapEm = comdat any

$_ZNSt11_Deque_baseIiSaIiEE11_Deque_implD2Ev = comdat any

$_ZNSt15_Deque_iteratorIiRiPiEC2Ev = comdat any

$_ZSt16__deque_buf_sizem = comdat any

$_ZNSt11_Deque_baseIiSaIiEE15_M_allocate_mapEm = comdat any

$_ZNSt11_Deque_baseIiSaIiEE15_M_create_nodesEPPiS3_ = comdat any

$_ZNSt11_Deque_baseIiSaIiEE17_M_deallocate_mapEPPim = comdat any

$_ZNSt15_Deque_iteratorIiRiPiE11_M_set_nodeEPS1_ = comdat any

$_ZNKSt11_Deque_baseIiSaIiEE20_M_get_map_allocatorEv = comdat any

$_ZNSt16allocator_traitsISaIPiEE8allocateERS1_m = comdat any

$_ZNSaIPiED2Ev = comdat any

$_ZNKSt11_Deque_baseIiSaIiEE19_M_get_Tp_allocatorEv = comdat any

$_ZNSaIPiEC2IiEERKSaIT_E = comdat any

$_ZN9__gnu_cxx13new_allocatorIPiEC2Ev = comdat any

$_ZN9__gnu_cxx13new_allocatorIPiE8allocateEmPKv = comdat any

$_ZNK9__gnu_cxx13new_allocatorIPiE8max_sizeEv = comdat any

$_ZN9__gnu_cxx13new_allocatorIPiED2Ev = comdat any

$_ZNSt11_Deque_baseIiSaIiEE16_M_allocate_nodeEv = comdat any

$_ZNSt11_Deque_baseIiSaIiEE16_M_destroy_nodesEPPiS3_ = comdat any

$_ZNSt11_Deque_baseIiSaIiEE18_M_deallocate_nodeEPi = comdat any

$_ZNSt16allocator_traitsISaIPiEE10deallocateERS1_PS0_m = comdat any

$_ZN9__gnu_cxx13new_allocatorIPiE10deallocateEPS1_m = comdat any

$_ZNSt15_Deque_iteratorIiRiPiE14_S_buffer_sizeEv = comdat any

$_ZNSt5dequeIiSaIiEE15_M_destroy_dataESt15_Deque_iteratorIiRiPiES5_RKS0_ = comdat any

$_ZNSt5dequeIiSaIiEE5beginEv = comdat any

$_ZNSt5dequeIiSaIiEE3endEv = comdat any

$_ZNSt11_Deque_baseIiSaIiEE19_M_get_Tp_allocatorEv = comdat any

$_ZNSt11_Deque_baseIiSaIiEED2Ev = comdat any

$_ZNSt15_Deque_iteratorIiRiPiEC2ERKS2_ = comdat any

$_ZSt4moveIRSt5dequeIiSaIiEEEONSt16remove_referenceIT_E4typeEOS5_ = comdat any

$_ZNSt5dequeIiSaIiEEC2EOS1_ = comdat any

$_ZNSt11_Deque_baseIiSaIiEEC2EOS1_ = comdat any

$_ZSt4moveIRSt11_Deque_baseIiSaIiEEEONSt16remove_referenceIT_E4typeEOS5_ = comdat any

$_ZNSt11_Deque_baseIiSaIiEEC2EOS1_St17integral_constantIbLb1EE = comdat any

$_ZSt4moveIRSaIiEEONSt16remove_referenceIT_E4typeEOS3_ = comdat any

$_ZNSt11_Deque_baseIiSaIiEE11_Deque_implC2EOS0_ = comdat any

$_ZNSt11_Deque_baseIiSaIiEE11_Deque_impl12_M_swap_dataERS2_ = comdat any

$_ZSt4swapISt15_Deque_iteratorIiRiPiEEvRT_S5_ = comdat any

$_ZSt4swapIPPiEvRT_S3_ = comdat any

$_ZSt4swapImEvRT_S1_ = comdat any

$_ZSt4moveIRSt15_Deque_iteratorIiRiPiEEONSt16remove_referenceIT_E4typeEOS6_ = comdat any

$_ZSt4moveIRPPiEONSt16remove_referenceIT_E4typeEOS4_ = comdat any

$_ZSt4moveIRmEONSt16remove_referenceIT_E4typeEOS2_ = comdat any

$_ZNKSt13_Bit_iteratordeEv = comdat any

$_ZNSt14_Bit_referenceC2EPmm = comdat any

$_ZNSt12_Vector_baseI4EdgeSaIS0_EEC2Ev = comdat any

$_ZNSt12_Vector_baseI4EdgeSaIS0_EE12_Vector_implC2Ev = comdat any

$_ZNSaI4EdgeEC2Ev = comdat any

$_ZN9__gnu_cxx13new_allocatorI4EdgeEC2Ev = comdat any

$_ZNSt12_Vector_baseI4EdgeSaIS0_EED2Ev = comdat any

$_ZNSt12_Vector_baseI4EdgeSaIS0_EE12_Vector_implD2Ev = comdat any

$_ZN9__gnu_cxx13new_allocatorI4EdgeED2Ev = comdat any

$_ZNSt12_Vector_baseISt6vectorI4EdgeSaIS1_EESaIS3_EEC2EmRKS4_ = comdat any

$_ZNSt6vectorIS_I4EdgeSaIS0_EESaIS2_EE18_M_fill_initializeEmRKS2_ = comdat any

$_ZNSt12_Vector_baseISt6vectorI4EdgeSaIS1_EESaIS3_EE12_Vector_implC2ERKS4_ = comdat any

$_ZNSt12_Vector_baseISt6vectorI4EdgeSaIS1_EESaIS3_EE17_M_create_storageEm = comdat any

$_ZNSaISt6vectorI4EdgeSaIS0_EEEC2ERKS3_ = comdat any

$_ZN9__gnu_cxx13new_allocatorISt6vectorI4EdgeSaIS2_EEEC2ERKS5_ = comdat any

$_ZSt24__uninitialized_fill_n_aIPSt6vectorI4EdgeSaIS1_EEmS3_S3_ET_S5_T0_RKT1_RSaIT2_E = comdat any

$_ZSt20uninitialized_fill_nIPSt6vectorI4EdgeSaIS1_EEmS3_ET_S5_T0_RKT1_ = comdat any

$_ZNSt22__uninitialized_fill_nILb0EE15__uninit_fill_nIPSt6vectorI4EdgeSaIS3_EEmS5_EET_S7_T0_RKT1_ = comdat any

$_ZSt10_ConstructISt6vectorI4EdgeSaIS1_EEJRKS3_EEvPT_DpOT0_ = comdat any

$_ZSt7forwardIRKSt6vectorI4EdgeSaIS1_EEEOT_RNSt16remove_referenceIS6_E4typeE = comdat any

$_ZNSt6vectorI4EdgeSaIS0_EEC2ERKS2_ = comdat any

$_ZN9__gnu_cxx14__alloc_traitsISaI4EdgeEE17_S_select_on_copyERKS2_ = comdat any

$_ZNSt12_Vector_baseI4EdgeSaIS0_EEC2EmRKS1_ = comdat any

$_ZNSaI4EdgeED2Ev = comdat any

$_ZSt22__uninitialized_copy_aIN9__gnu_cxx17__normal_iteratorIPK4EdgeSt6vectorIS2_SaIS2_EEEEPS2_S2_ET0_T_SB_SA_RSaIT1_E = comdat any

$_ZNSt16allocator_traitsISaI4EdgeEE37select_on_container_copy_constructionERKS1_ = comdat any

$_ZNSaI4EdgeEC2ERKS0_ = comdat any

$_ZNSt12_Vector_baseI4EdgeSaIS0_EE12_Vector_implC2ERKS1_ = comdat any

$_ZNSt12_Vector_baseI4EdgeSaIS0_EE17_M_create_storageEm = comdat any

$_ZSt18uninitialized_copyIN9__gnu_cxx17__normal_iteratorIPK4EdgeSt6vectorIS2_SaIS2_EEEEPS2_ET0_T_SB_SA_ = comdat any

$_ZNSt20__uninitialized_copyILb0EE13__uninit_copyIN9__gnu_cxx17__normal_iteratorIPK4EdgeSt6vectorIS4_SaIS4_EEEEPS4_EET0_T_SD_SC_ = comdat any

$_ZSt10_ConstructI4EdgeJRKS0_EEvPT_DpOT0_ = comdat any

$_ZSt15__alloc_on_moveISaImEEvRT_S2_ = comdat any

$_ZNSt13_Bvector_baseISaIbEE20_M_get_Bit_allocatorEv = comdat any

$_ZSt18__do_alloc_on_moveISaImEEvRT_S2_St17integral_constantIbLb1EE = comdat any

$_ZNKSt5dequeIiSaIiEE5emptyEv = comdat any

$_ZSteqIiRiPiEbRKSt15_Deque_iteratorIT_T0_T1_ES8_ = comdat any

$_ZNSt5dequeIiSaIiEE4backEv = comdat any

$_ZNSt15_Deque_iteratorIiRiPiEmmEv = comdat any

$_ZNKSt15_Deque_iteratorIiRiPiEdeEv = comdat any

$_ZNSt5dequeIiSaIiEE8pop_backEv = comdat any

$_ZNSt16allocator_traitsISaIiEE7destroyIiEEvRS0_PT_ = comdat any

$_ZNSt5dequeIiSaIiEE15_M_pop_back_auxEv = comdat any

$_ZN9__gnu_cxx13new_allocatorIiE7destroyIiEEvPT_ = comdat any

$_ZNSt6vectorIS_IiSaIiEESaIS1_EE12emplace_backIJS1_EEEvDpOT_ = comdat any

$_ZSt4moveIRSt6vectorIiSaIiEEEONSt16remove_referenceIT_E4typeEOS5_ = comdat any

$_ZNSt16allocator_traitsISaISt6vectorIiSaIiEEEE9constructIS2_JS2_EEEvRS3_PT_DpOT0_ = comdat any

$_ZSt7forwardISt6vectorIiSaIiEEEOT_RNSt16remove_referenceIS3_E4typeE = comdat any

$_ZNSt6vectorIS_IiSaIiEESaIS1_EE19_M_emplace_back_auxIJS1_EEEvDpOT_ = comdat any

$_ZN9__gnu_cxx13new_allocatorISt6vectorIiSaIiEEE9constructIS3_JS3_EEEvPT_DpOT0_ = comdat any

$_ZNSt6vectorIiSaIiEEC2EOS1_ = comdat any

$_ZNSt12_Vector_baseIiSaIiEEC2EOS1_ = comdat any

$_ZNSt12_Vector_baseIiSaIiEE12_Vector_implC2EOS0_ = comdat any

$_ZNSt12_Vector_baseIiSaIiEE12_Vector_impl12_M_swap_dataERS2_ = comdat any

$_ZSt4swapIPiEvRT_S2_ = comdat any

$_ZSt4moveIRPiEONSt16remove_referenceIT_E4typeEOS3_ = comdat any

$_ZNKSt6vectorIS_IiSaIiEESaIS1_EE12_M_check_lenEmPKc = comdat any

$_ZNSt12_Vector_baseISt6vectorIiSaIiEESaIS2_EE11_M_allocateEm = comdat any

$_ZSt34__uninitialized_move_if_noexcept_aIPSt6vectorIiSaIiEES3_SaIS2_EET0_T_S6_S5_RT1_ = comdat any

$_ZNSt16allocator_traitsISaISt6vectorIiSaIiEEEE7destroyIS2_EEvRS3_PT_ = comdat any

$_ZNKSt6vectorIS_IiSaIiEESaIS1_EE8max_sizeEv = comdat any

$_ZNSt16allocator_traitsISaISt6vectorIiSaIiEEEE8max_sizeERKS3_ = comdat any

$_ZNKSt12_Vector_baseISt6vectorIiSaIiEESaIS2_EE19_M_get_Tp_allocatorEv = comdat any

$_ZNK9__gnu_cxx13new_allocatorISt6vectorIiSaIiEEE8max_sizeEv = comdat any

$_ZNSt16allocator_traitsISaISt6vectorIiSaIiEEEE8allocateERS3_m = comdat any

$_ZN9__gnu_cxx13new_allocatorISt6vectorIiSaIiEEE8allocateEmPKv = comdat any

$_ZSt22__uninitialized_copy_aISt13move_iteratorIPSt6vectorIiSaIiEEES4_S3_ET0_T_S7_S6_RSaIT1_E = comdat any

$_ZSt32__make_move_if_noexcept_iteratorIPSt6vectorIiSaIiEESt13move_iteratorIS3_EET0_T_ = comdat any

$_ZSt18uninitialized_copyISt13move_iteratorIPSt6vectorIiSaIiEEES4_ET0_T_S7_S6_ = comdat any

$_ZNSt20__uninitialized_copyILb0EE13__uninit_copyISt13move_iteratorIPSt6vectorIiSaIiEEES6_EET0_T_S9_S8_ = comdat any

$_ZStneIPSt6vectorIiSaIiEEEbRKSt13move_iteratorIT_ES8_ = comdat any

$_ZSt10_ConstructISt6vectorIiSaIiEEJS2_EEvPT_DpOT0_ = comdat any

$_ZNKSt13move_iteratorIPSt6vectorIiSaIiEEEdeEv = comdat any

$_ZNSt13move_iteratorIPSt6vectorIiSaIiEEEppEv = comdat any

$_ZSteqIPSt6vectorIiSaIiEEEbRKSt13move_iteratorIT_ES8_ = comdat any

$_ZNKSt13move_iteratorIPSt6vectorIiSaIiEEE4baseEv = comdat any

$_ZNSt13move_iteratorIPSt6vectorIiSaIiEEEC2ES3_ = comdat any

$_ZN9__gnu_cxx13new_allocatorISt6vectorIiSaIiEEE7destroyIS3_EEvPT_ = comdat any

$_ZNSt5dequeIiSaIiEE9push_backERKi = comdat any

$_ZNSt16allocator_traitsISaIiEE9constructIiJRKiEEEvRS0_PT_DpOT0_ = comdat any

$_ZNSt5dequeIiSaIiEE16_M_push_back_auxIJRKiEEEvDpOT_ = comdat any

$_ZN9__gnu_cxx13new_allocatorIiE9constructIiJRKiEEEvPT_DpOT0_ = comdat any

$_ZNSt5dequeIiSaIiEE22_M_reserve_map_at_backEm = comdat any

$_ZNSt5dequeIiSaIiEE17_M_reallocate_mapEmb = comdat any

$_ZSt4copyIPPiS1_ET0_T_S3_S2_ = comdat any

$_ZSt13copy_backwardIPPiS1_ET0_T_S3_S2_ = comdat any

$_ZSt14__copy_move_a2ILb0EPPiS1_ET1_T0_S3_S2_ = comdat any

$_ZSt12__miter_baseIPPiENSt11_Miter_baseIT_E13iterator_typeES3_ = comdat any

$_ZSt13__copy_move_aILb0EPPiS1_ET1_T0_S3_S2_ = comdat any

$_ZSt12__niter_baseIPPiENSt11_Niter_baseIT_E13iterator_typeES3_ = comdat any

$_ZNSt11__copy_moveILb0ELb1ESt26random_access_iterator_tagE8__copy_mIPiEEPT_PKS4_S7_S5_ = comdat any

$_ZNSt10_Iter_baseIPPiLb0EE7_S_baseES1_ = comdat any

$_ZSt23__copy_move_backward_a2ILb0EPPiS1_ET1_T0_S3_S2_ = comdat any

$_ZSt22__copy_move_backward_aILb0EPPiS1_ET1_T0_S3_S2_ = comdat any

$_ZNSt20__copy_move_backwardILb0ELb1ESt26random_access_iterator_tagE13__copy_move_bIPiEEPT_PKS4_S7_S5_ = comdat any

$_ZNSt12_Vector_baseIiSaIiEEC2Ev = comdat any

$_ZNSt12_Vector_baseIiSaIiEE12_Vector_implC2Ev = comdat any

$_ZNSt6vectorIiSaIiEE19_M_emplace_back_auxIJRKiEEEvDpOT_ = comdat any

$_ZNKSt6vectorIiSaIiEE12_M_check_lenEmPKc = comdat any

$_ZNKSt6vectorIiSaIiEE4sizeEv = comdat any

$_ZSt34__uninitialized_move_if_noexcept_aIPiS0_SaIiEET0_T_S3_S2_RT1_ = comdat any

$_ZNKSt6vectorIiSaIiEE8max_sizeEv = comdat any

$_ZNSt16allocator_traitsISaIiEE8max_sizeERKS0_ = comdat any

$_ZNKSt12_Vector_baseIiSaIiEE19_M_get_Tp_allocatorEv = comdat any

$_ZSt22__uninitialized_copy_aISt13move_iteratorIPiES1_iET0_T_S4_S3_RSaIT1_E = comdat any

$_ZSt32__make_move_if_noexcept_iteratorIPiSt13move_iteratorIS0_EET0_T_ = comdat any

$_ZSt18uninitialized_copyISt13move_iteratorIPiES1_ET0_T_S4_S3_ = comdat any

$_ZNSt20__uninitialized_copyILb1EE13__uninit_copyISt13move_iteratorIPiES3_EET0_T_S6_S5_ = comdat any

$_ZSt4copyISt13move_iteratorIPiES1_ET0_T_S4_S3_ = comdat any

$_ZSt14__copy_move_a2ILb1EPiS0_ET1_T0_S2_S1_ = comdat any

$_ZSt12__miter_baseISt13move_iteratorIPiEENSt11_Miter_baseIT_E13iterator_typeES4_ = comdat any

$_ZSt13__copy_move_aILb1EPiS0_ET1_T0_S2_S1_ = comdat any

$_ZNSt11__copy_moveILb1ELb1ESt26random_access_iterator_tagE8__copy_mIiEEPT_PKS3_S6_S4_ = comdat any

$_ZNSt10_Iter_baseISt13move_iteratorIPiELb1EE7_S_baseES2_ = comdat any

$_ZNKSt13move_iteratorIPiE4baseEv = comdat any

$_ZNSt13move_iteratorIPiEC2ES0_ = comdat any

$_ZN9__gnu_cxx17__normal_iteratorIPiSt6vectorIiSaIiEEEC2ERKS1_ = comdat any

$_ZN9__gnu_cxxmiIPKiSt6vectorIiSaIiEEEENS_17__normal_iteratorIT_T0_E15difference_typeERKS9_SC_ = comdat any

$_ZNKSt6vectorIiSaIiEE6cbeginEv = comdat any

$_ZNSt6vectorIiSaIiEE18_M_insert_dispatchIN9__gnu_cxx17__normal_iteratorIPiS1_EEEEvS6_T_S7_St12__false_type = comdat any

$_ZNK9__gnu_cxx17__normal_iteratorIPiSt6vectorIiSaIiEEEplEl = comdat any

$_ZNK9__gnu_cxx17__normal_iteratorIPKiSt6vectorIiSaIiEEE4baseEv = comdat any

$_ZN9__gnu_cxx17__normal_iteratorIPKiSt6vectorIiSaIiEEEC2ERKS2_ = comdat any

$_ZNSt6vectorIiSaIiEE15_M_range_insertIN9__gnu_cxx17__normal_iteratorIPiS1_EEEEvS6_T_S7_St20forward_iterator_tag = comdat any

$_ZSt8distanceIN9__gnu_cxx17__normal_iteratorIPiSt6vectorIiSaIiEEEEENSt15iterator_traitsIT_E15difference_typeES8_S8_ = comdat any

$_ZN9__gnu_cxxmiIPiSt6vectorIiSaIiEEEENS_17__normal_iteratorIT_T0_E15difference_typeERKS8_SB_ = comdat any

$_ZSt22__uninitialized_move_aIPiS0_SaIiEET0_T_S3_S2_RT1_ = comdat any

$_ZSt13move_backwardIPiS0_ET0_T_S2_S1_ = comdat any

$_ZNK9__gnu_cxx17__normal_iteratorIPiSt6vectorIiSaIiEEE4baseEv = comdat any

$_ZSt4copyIN9__gnu_cxx17__normal_iteratorIPiSt6vectorIiSaIiEEEES6_ET0_T_S8_S7_ = comdat any

$_ZSt7advanceIN9__gnu_cxx17__normal_iteratorIPiSt6vectorIiSaIiEEEEmEvRT_T0_ = comdat any

$_ZSt22__uninitialized_copy_aIN9__gnu_cxx17__normal_iteratorIPiSt6vectorIiSaIiEEEES2_iET0_T_S8_S7_RSaIT1_E = comdat any

$_ZSt10__distanceIN9__gnu_cxx17__normal_iteratorIPiSt6vectorIiSaIiEEEEENSt15iterator_traitsIT_E15difference_typeES8_S8_St26random_access_iterator_tag = comdat any

$_ZSt19__iterator_categoryIN9__gnu_cxx17__normal_iteratorIPiSt6vectorIiSaIiEEEEENSt15iterator_traitsIT_E17iterator_categoryERKS8_ = comdat any

$_ZSt18make_move_iteratorIPiESt13move_iteratorIT_ES2_ = comdat any

$_ZSt23__copy_move_backward_a2ILb1EPiS0_ET1_T0_S2_S1_ = comdat any

$_ZSt12__miter_baseIPiENSt11_Miter_baseIT_E13iterator_typeES2_ = comdat any

$_ZSt22__copy_move_backward_aILb1EPiS0_ET1_T0_S2_S1_ = comdat any

$_ZNSt20__copy_move_backwardILb1ELb1ESt26random_access_iterator_tagE13__copy_move_bIiEEPT_PKS3_S6_S4_ = comdat any

$_ZSt14__copy_move_a2ILb0EN9__gnu_cxx17__normal_iteratorIPiSt6vectorIiSaIiEEEES6_ET1_T0_S8_S7_ = comdat any

$_ZSt12__miter_baseIN9__gnu_cxx17__normal_iteratorIPiSt6vectorIiSaIiEEEEENSt11_Miter_baseIT_E13iterator_typeES8_ = comdat any

$_ZSt13__copy_move_aILb0EPiS0_ET1_T0_S2_S1_ = comdat any

$_ZSt12__niter_baseIN9__gnu_cxx17__normal_iteratorIPiSt6vectorIiSaIiEEEEENSt11_Niter_baseIT_E13iterator_typeES8_ = comdat any

$_ZNSt11__copy_moveILb0ELb1ESt26random_access_iterator_tagE8__copy_mIiEEPT_PKS3_S6_S4_ = comdat any

$_ZNSt10_Iter_baseIN9__gnu_cxx17__normal_iteratorIPiSt6vectorIiSaIiEEEELb1EE7_S_baseES6_ = comdat any

$_ZNSt10_Iter_baseIN9__gnu_cxx17__normal_iteratorIPiSt6vectorIiSaIiEEEELb0EE7_S_baseES6_ = comdat any

$_ZSt9__advanceIN9__gnu_cxx17__normal_iteratorIPiSt6vectorIiSaIiEEEElEvRT_T0_St26random_access_iterator_tag = comdat any

$_ZN9__gnu_cxx17__normal_iteratorIPiSt6vectorIiSaIiEEEpLEl = comdat any

$_ZSt18uninitialized_copyIN9__gnu_cxx17__normal_iteratorIPiSt6vectorIiSaIiEEEES2_ET0_T_S8_S7_ = comdat any

$_ZNSt20__uninitialized_copyILb1EE13__uninit_copyIN9__gnu_cxx17__normal_iteratorIPiSt6vectorIiSaIiEEEES4_EET0_T_SA_S9_ = comdat any

$_ZSt4copyIN9__gnu_cxx17__normal_iteratorIPiSt6vectorIiSaIiEEEES2_ET0_T_S8_S7_ = comdat any

$_ZSt14__copy_move_a2ILb0EN9__gnu_cxx17__normal_iteratorIPiSt6vectorIiSaIiEEEES2_ET1_T0_S8_S7_ = comdat any

$_ZNSt5tupleIJRdRiEEC2ES0_S1_ = comdat any

$_ZNSt11_Tuple_implILm0EJRdRiEEC2ES0_S1_ = comdat any

$_ZNSt11_Tuple_implILm1EJRiEEC2ES0_ = comdat any

$_ZNSt10_Head_baseILm0ERdLb0EEC2ES0_ = comdat any

$_ZNSt10_Head_baseILm1ERiLb0EEC2ES0_ = comdat any

$_ZNSt11_Tuple_implILm0EJRdRiEEaSIdJiEEERS2_OS_ILm0EJT_DpT0_EE = comdat any

$_ZNSt11_Tuple_implILm0EJRdRiEE7_M_headERS2_ = comdat any

$_ZNSt11_Tuple_implILm0EJRdRiEE7_M_tailERS2_ = comdat any

$_ZNSt11_Tuple_implILm1EJRiEEaSIiEERS1_OS_ILm1EJT_EE = comdat any

$_ZNSt10_Head_baseILm0ERdLb0EE7_M_headERS1_ = comdat any

$_ZNSt11_Tuple_implILm1EJRiEE7_M_headERS1_ = comdat any

$_ZNSt10_Head_baseILm1ERiLb0EE7_M_headERS1_ = comdat any

$_ZNSt11_Tuple_implILm0EJdiEEaSEOS0_ = comdat any

$_ZNSt11_Tuple_implILm1EJiEEaSEOS0_ = comdat any

$_ZNSt8_Rb_treeIiiSt9_IdentityIiESt4lessIiESaIiEEC2Ev = comdat any

$_ZNSt8_Rb_treeIiiSt9_IdentityIiESt4lessIiESaIiEE13_Rb_tree_implIS3_Lb1EEC2Ev = comdat any

$_ZNSaISt13_Rb_tree_nodeIiEEC2Ev = comdat any

$_ZN9__gnu_cxx13new_allocatorISt13_Rb_tree_nodeIiEEC2Ev = comdat any

$_ZNSt8_Rb_treeIiiSt9_IdentityIiESt4lessIiESaIiEE16_M_insert_uniqueIiEESt4pairISt17_Rb_tree_iteratorIiEbEOT_ = comdat any

$_ZSt4moveIRiEONSt16remove_referenceIT_E4typeEOS2_ = comdat any

$_ZNKSt9_IdentityIiEclERi = comdat any

$_ZNSt8_Rb_treeIiiSt9_IdentityIiESt4lessIiESaIiEE10_M_insert_IiNS5_11_Alloc_nodeEEESt17_Rb_tree_iteratorIiEPSt18_Rb_tree_node_baseSB_OT_RT0_ = comdat any

$_ZNKSt8_Rb_treeIiiSt9_IdentityIiESt4lessIiESaIiEE11_Alloc_nodeclIiEEPSt13_Rb_tree_nodeIiEOT_ = comdat any

$_ZNSt8_Rb_treeIiiSt9_IdentityIiESt4lessIiESaIiEE14_M_create_nodeIJiEEEPSt13_Rb_tree_nodeIiEDpOT_ = comdat any

$_ZNSt8_Rb_treeIiiSt9_IdentityIiESt4lessIiESaIiEE17_M_construct_nodeIJiEEEvPSt13_Rb_tree_nodeIiEDpOT_ = comdat any

$_ZNSt16allocator_traitsISaISt13_Rb_tree_nodeIiEEE9constructIiJiEEEvRS2_PT_DpOT0_ = comdat any

$_ZN9__gnu_cxx13new_allocatorISt13_Rb_tree_nodeIiEE9constructIiJiEEEvPT_DpOT0_ = comdat any

$_ZNSt6vectorIiSaIiEE21_M_default_initializeEm = comdat any

$_ZSt27__uninitialized_default_n_aIPimiET_S1_T0_RSaIT1_E = comdat any

$_ZSt25__uninitialized_default_nIPimET_S1_T0_ = comdat any

$_ZNSt27__uninitialized_default_n_1ILb1EE18__uninit_default_nIPimEET_S3_T0_ = comdat any

@_ZL3INF = internal constant double 0x7FD5555555555555, align 8
@_ZStL8__ioinit = internal global %"class.std::ios_base::Init" zeroinitializer, align 1
@__dso_handle = external global i8
@_ZSt3cin = external global %"class.std::basic_istream", align 8
@_ZSt4cout = external global %"class.std::basic_ostream", align 8
@.str = private unnamed_addr constant [26 x i8] c"vector::_M_default_append\00", align 1
@.str.1 = private unnamed_addr constant [28 x i8] c"vector::_M_emplace_back_aux\00", align 1
@.str.2 = private unnamed_addr constant [24 x i8] c"vector::_M_range_insert\00", align 1
@llvm.global_ctors = appending global [1 x { i32, void ()*, i8* }] [{ i32, void ()*, i8* } { i32 65535, void ()* @_GLOBAL__sub_I_s341909802.cpp, i8* null }]
@x = common global i32 0
@y = common global i32 0
@x.3 = common global i32 0
@y.4 = common global i32 0
@x.5 = common global i32 0
@y.6 = common global i32 0
@x.7 = common global i32 0
@y.8 = common global i32 0
@x.9 = common global i32 0
@y.10 = common global i32 0
@x.11 = common global i32 0
@y.12 = common global i32 0
@x.13 = common global i32 0
@y.14 = common global i32 0
@x.15 = common global i32 0
@y.16 = common global i32 0
@x.17 = common global i32 0
@y.18 = common global i32 0
@x.19 = common global i32 0
@y.20 = common global i32 0
@x.21 = common global i32 0
@y.22 = common global i32 0
@x.23 = common global i32 0
@y.24 = common global i32 0
@x.25 = common global i32 0
@y.26 = common global i32 0
@x.27 = common global i32 0
@y.28 = common global i32 0
@x.29 = common global i32 0
@y.30 = common global i32 0
@x.31 = common global i32 0
@y.32 = common global i32 0
@x.33 = common global i32 0
@y.34 = common global i32 0
@x.35 = common global i32 0
@y.36 = common global i32 0
@x.37 = common global i32 0
@y.38 = common global i32 0
@x.39 = common global i32 0
@y.40 = common global i32 0
@x.41 = common global i32 0
@y.42 = common global i32 0
@x.43 = common global i32 0
@y.44 = common global i32 0
@x.45 = common global i32 0
@y.46 = common global i32 0
@x.47 = common global i32 0
@y.48 = common global i32 0
@x.49 = common global i32 0
@y.50 = common global i32 0
@x.51 = common global i32 0
@y.52 = common global i32 0
@x.53 = common global i32 0
@y.54 = common global i32 0
@x.55 = common global i32 0
@y.56 = common global i32 0
@x.57 = common global i32 0
@y.58 = common global i32 0
@x.59 = common global i32 0
@y.60 = common global i32 0
@x.61 = common global i32 0
@y.62 = common global i32 0
@x.63 = common global i32 0
@y.64 = common global i32 0
@x.65 = common global i32 0
@y.66 = common global i32 0
@x.67 = common global i32 0
@y.68 = common global i32 0
@x.69 = common global i32 0
@y.70 = common global i32 0
@x.71 = common global i32 0
@y.72 = common global i32 0
@x.73 = common global i32 0
@y.74 = common global i32 0
@x.75 = common global i32 0
@y.76 = common global i32 0
@x.77 = common global i32 0
@y.78 = common global i32 0
@x.79 = common global i32 0
@y.80 = common global i32 0
@x.81 = common global i32 0
@y.82 = common global i32 0
@x.83 = common global i32 0
@y.84 = common global i32 0
@x.85 = common global i32 0
@y.86 = common global i32 0
@x.87 = common global i32 0
@y.88 = common global i32 0
@x.89 = common global i32 0
@y.90 = common global i32 0
@x.91 = common global i32 0
@y.92 = common global i32 0
@x.93 = common global i32 0
@y.94 = common global i32 0
@x.95 = common global i32 0
@y.96 = common global i32 0
@x.97 = common global i32 0
@y.98 = common global i32 0
@x.99 = common global i32 0
@y.100 = common global i32 0
@x.101 = common global i32 0
@y.102 = common global i32 0
@x.103 = common global i32 0
@y.104 = common global i32 0
@x.105 = common global i32 0
@y.106 = common global i32 0
@x.107 = common global i32 0
@y.108 = common global i32 0
@x.109 = common global i32 0
@y.110 = common global i32 0
@x.111 = common global i32 0
@y.112 = common global i32 0
@x.113 = common global i32 0
@y.114 = common global i32 0
@x.115 = common global i32 0
@y.116 = common global i32 0
@x.117 = common global i32 0
@y.118 = common global i32 0
@x.119 = common global i32 0
@y.120 = common global i32 0
@x.121 = common global i32 0
@y.122 = common global i32 0
@x.123 = common global i32 0
@y.124 = common global i32 0
@x.125 = common global i32 0
@y.126 = common global i32 0
@x.127 = common global i32 0
@y.128 = common global i32 0
@x.129 = common global i32 0
@y.130 = common global i32 0
@x.131 = common global i32 0
@y.132 = common global i32 0
@x.133 = common global i32 0
@y.134 = common global i32 0
@x.135 = common global i32 0
@y.136 = common global i32 0
@x.137 = common global i32 0
@y.138 = common global i32 0
@x.139 = common global i32 0
@y.140 = common global i32 0
@x.141 = common global i32 0
@y.142 = common global i32 0
@x.143 = common global i32 0
@y.144 = common global i32 0
@x.145 = common global i32 0
@y.146 = common global i32 0
@x.147 = common global i32 0
@y.148 = common global i32 0
@x.149 = common global i32 0
@y.150 = common global i32 0
@x.151 = common global i32 0
@y.152 = common global i32 0
@x.153 = common global i32 0
@y.154 = common global i32 0
@x.155 = common global i32 0
@y.156 = common global i32 0
@x.157 = common global i32 0
@y.158 = common global i32 0
@x.159 = common global i32 0
@y.160 = common global i32 0
@x.161 = common global i32 0
@y.162 = common global i32 0
@x.163 = common global i32 0
@y.164 = common global i32 0
@x.165 = common global i32 0
@y.166 = common global i32 0
@x.167 = common global i32 0
@y.168 = common global i32 0
@x.169 = common global i32 0
@y.170 = common global i32 0
@x.171 = common global i32 0
@y.172 = common global i32 0
@x.173 = common global i32 0
@y.174 = common global i32 0
@x.175 = common global i32 0
@y.176 = common global i32 0
@x.177 = common global i32 0
@y.178 = common global i32 0
@x.179 = common global i32 0
@y.180 = common global i32 0
@x.181 = common global i32 0
@y.182 = common global i32 0
@x.183 = common global i32 0
@y.184 = common global i32 0
@x.185 = common global i32 0
@y.186 = common global i32 0
@x.187 = common global i32 0
@y.188 = common global i32 0
@x.189 = common global i32 0
@y.190 = common global i32 0
@x.191 = common global i32 0
@y.192 = common global i32 0
@x.193 = common global i32 0
@y.194 = common global i32 0
@x.195 = common global i32 0
@y.196 = common global i32 0
@x.197 = common global i32 0
@y.198 = common global i32 0
@x.199 = common global i32 0
@y.200 = common global i32 0
@x.201 = common global i32 0
@y.202 = common global i32 0
@x.203 = common global i32 0
@y.204 = common global i32 0
@x.205 = common global i32 0
@y.206 = common global i32 0
@x.207 = common global i32 0
@y.208 = common global i32 0
@x.209 = common global i32 0
@y.210 = common global i32 0
@x.211 = common global i32 0
@y.212 = common global i32 0
@x.213 = common global i32 0
@y.214 = common global i32 0
@x.215 = common global i32 0
@y.216 = common global i32 0
@x.217 = common global i32 0
@y.218 = common global i32 0
@x.219 = common global i32 0
@y.220 = common global i32 0
@x.221 = common global i32 0
@y.222 = common global i32 0
@x.223 = common global i32 0
@y.224 = common global i32 0
@x.225 = common global i32 0
@y.226 = common global i32 0
@x.227 = common global i32 0
@y.228 = common global i32 0
@x.229 = common global i32 0
@y.230 = common global i32 0
@x.231 = common global i32 0
@y.232 = common global i32 0
@x.233 = common global i32 0
@y.234 = common global i32 0
@x.235 = common global i32 0
@y.236 = common global i32 0
@x.237 = common global i32 0
@y.238 = common global i32 0
@x.239 = common global i32 0
@y.240 = common global i32 0
@x.241 = common global i32 0
@y.242 = common global i32 0
@x.243 = common global i32 0
@y.244 = common global i32 0
@x.245 = common global i32 0
@y.246 = common global i32 0
@x.247 = common global i32 0
@y.248 = common global i32 0
@x.249 = common global i32 0
@y.250 = common global i32 0
@x.251 = common global i32 0
@y.252 = common global i32 0
@x.253 = common global i32 0
@y.254 = common global i32 0
@x.255 = common global i32 0
@y.256 = common global i32 0
@x.257 = common global i32 0
@y.258 = common global i32 0
@x.259 = common global i32 0
@y.260 = common global i32 0
@x.261 = common global i32 0
@y.262 = common global i32 0
@x.263 = common global i32 0
@y.264 = common global i32 0
@x.265 = common global i32 0
@y.266 = common global i32 0
@x.267 = common global i32 0
@y.268 = common global i32 0
@x.269 = common global i32 0
@y.270 = common global i32 0
@x.271 = common global i32 0
@y.272 = common global i32 0
@x.273 = common global i32 0
@y.274 = common global i32 0
@x.275 = common global i32 0
@y.276 = common global i32 0
@x.277 = common global i32 0
@y.278 = common global i32 0
@x.279 = common global i32 0
@y.280 = common global i32 0
@x.281 = common global i32 0
@y.282 = common global i32 0
@x.283 = common global i32 0
@y.284 = common global i32 0
@x.285 = common global i32 0
@y.286 = common global i32 0
@x.287 = common global i32 0
@y.288 = common global i32 0
@x.289 = common global i32 0
@y.290 = common global i32 0
@x.291 = common global i32 0
@y.292 = common global i32 0
@x.293 = common global i32 0
@y.294 = common global i32 0
@x.295 = common global i32 0
@y.296 = common global i32 0
@x.297 = common global i32 0
@y.298 = common global i32 0
@x.299 = common global i32 0
@y.300 = common global i32 0
@x.301 = common global i32 0
@y.302 = common global i32 0
@x.303 = common global i32 0
@y.304 = common global i32 0
@x.305 = common global i32 0
@y.306 = common global i32 0
@x.307 = common global i32 0
@y.308 = common global i32 0
@x.309 = common global i32 0
@y.310 = common global i32 0
@x.311 = common global i32 0
@y.312 = common global i32 0
@x.313 = common global i32 0
@y.314 = common global i32 0
@x.315 = common global i32 0
@y.316 = common global i32 0
@x.317 = common global i32 0
@y.318 = common global i32 0
@x.319 = common global i32 0
@y.320 = common global i32 0
@x.321 = common global i32 0
@y.322 = common global i32 0
@x.323 = common global i32 0
@y.324 = common global i32 0
@x.325 = common global i32 0
@y.326 = common global i32 0
@x.327 = common global i32 0
@y.328 = common global i32 0
@x.329 = common global i32 0
@y.330 = common global i32 0
@x.331 = common global i32 0
@y.332 = common global i32 0
@x.333 = common global i32 0
@y.334 = common global i32 0
@x.335 = common global i32 0
@y.336 = common global i32 0
@x.337 = common global i32 0
@y.338 = common global i32 0
@x.339 = common global i32 0
@y.340 = common global i32 0
@x.341 = common global i32 0
@y.342 = common global i32 0
@x.343 = common global i32 0
@y.344 = common global i32 0
@x.345 = common global i32 0
@y.346 = common global i32 0
@x.347 = common global i32 0
@y.348 = common global i32 0
@x.349 = common global i32 0
@y.350 = common global i32 0
@x.351 = common global i32 0
@y.352 = common global i32 0
@x.353 = common global i32 0
@y.354 = common global i32 0
@x.355 = common global i32 0
@y.356 = common global i32 0
@x.357 = common global i32 0
@y.358 = common global i32 0
@x.359 = common global i32 0
@y.360 = common global i32 0
@x.361 = common global i32 0
@y.362 = common global i32 0
@x.363 = common global i32 0
@y.364 = common global i32 0
@x.365 = common global i32 0
@y.366 = common global i32 0
@x.367 = common global i32 0
@y.368 = common global i32 0
@x.369 = common global i32 0
@y.370 = common global i32 0
@x.371 = common global i32 0
@y.372 = common global i32 0
@x.373 = common global i32 0
@y.374 = common global i32 0
@x.375 = common global i32 0
@y.376 = common global i32 0
@x.377 = common global i32 0
@y.378 = common global i32 0
@x.379 = common global i32 0
@y.380 = common global i32 0
@x.381 = common global i32 0
@y.382 = common global i32 0
@x.383 = common global i32 0
@y.384 = common global i32 0
@x.385 = common global i32 0
@y.386 = common global i32 0
@x.387 = common global i32 0
@y.388 = common global i32 0
@x.389 = common global i32 0
@y.390 = common global i32 0
@x.391 = common global i32 0
@y.392 = common global i32 0
@x.393 = common global i32 0
@y.394 = common global i32 0
@x.395 = common global i32 0
@y.396 = common global i32 0
@x.397 = common global i32 0
@y.398 = common global i32 0
@x.399 = common global i32 0
@y.400 = common global i32 0
@x.401 = common global i32 0
@y.402 = common global i32 0
@x.403 = common global i32 0
@y.404 = common global i32 0
@x.405 = common global i32 0
@y.406 = common global i32 0
@x.407 = common global i32 0
@y.408 = common global i32 0
@x.409 = common global i32 0
@y.410 = common global i32 0
@x.411 = common global i32 0
@y.412 = common global i32 0
@x.413 = common global i32 0
@y.414 = common global i32 0
@x.415 = common global i32 0
@y.416 = common global i32 0
@x.417 = common global i32 0
@y.418 = common global i32 0
@x.419 = common global i32 0
@y.420 = common global i32 0
@x.421 = common global i32 0
@y.422 = common global i32 0
@x.423 = common global i32 0
@y.424 = common global i32 0
@x.425 = common global i32 0
@y.426 = common global i32 0
@x.427 = common global i32 0
@y.428 = common global i32 0
@x.429 = common global i32 0
@y.430 = common global i32 0
@x.431 = common global i32 0
@y.432 = common global i32 0
@x.433 = common global i32 0
@y.434 = common global i32 0
@x.435 = common global i32 0
@y.436 = common global i32 0
@x.437 = common global i32 0
@y.438 = common global i32 0
@x.439 = common global i32 0
@y.440 = common global i32 0
@x.441 = common global i32 0
@y.442 = common global i32 0
@x.443 = common global i32 0
@y.444 = common global i32 0
@x.445 = common global i32 0
@y.446 = common global i32 0
@x.447 = common global i32 0
@y.448 = common global i32 0
@x.449 = common global i32 0
@y.450 = common global i32 0
@x.451 = common global i32 0
@y.452 = common global i32 0
@x.453 = common global i32 0
@y.454 = common global i32 0
@x.455 = common global i32 0
@y.456 = common global i32 0
@x.457 = common global i32 0
@y.458 = common global i32 0
@x.459 = common global i32 0
@y.460 = common global i32 0
@x.461 = common global i32 0
@y.462 = common global i32 0
@x.463 = common global i32 0
@y.464 = common global i32 0
@x.465 = common global i32 0
@y.466 = common global i32 0
@x.467 = common global i32 0
@y.468 = common global i32 0
@x.469 = common global i32 0
@y.470 = common global i32 0
@x.471 = common global i32 0
@y.472 = common global i32 0
@x.473 = common global i32 0
@y.474 = common global i32 0
@x.475 = common global i32 0
@y.476 = common global i32 0
@x.477 = common global i32 0
@y.478 = common global i32 0
@x.479 = common global i32 0
@y.480 = common global i32 0
@x.481 = common global i32 0
@y.482 = common global i32 0
@x.483 = common global i32 0
@y.484 = common global i32 0
@x.485 = common global i32 0
@y.486 = common global i32 0
@x.487 = common global i32 0
@y.488 = common global i32 0
@x.489 = common global i32 0
@y.490 = common global i32 0
@x.491 = common global i32 0
@y.492 = common global i32 0
@x.493 = common global i32 0
@y.494 = common global i32 0
@x.495 = common global i32 0
@y.496 = common global i32 0
@x.497 = common global i32 0
@y.498 = common global i32 0
@x.499 = common global i32 0
@y.500 = common global i32 0
@x.501 = common global i32 0
@y.502 = common global i32 0
@x.503 = common global i32 0
@y.504 = common global i32 0
@x.505 = common global i32 0
@y.506 = common global i32 0
@x.507 = common global i32 0
@y.508 = common global i32 0
@x.509 = common global i32 0
@y.510 = common global i32 0
@x.511 = common global i32 0
@y.512 = common global i32 0
@x.513 = common global i32 0
@y.514 = common global i32 0
@x.515 = common global i32 0
@y.516 = common global i32 0
@x.517 = common global i32 0
@y.518 = common global i32 0
@x.519 = common global i32 0
@y.520 = common global i32 0
@x.521 = common global i32 0
@y.522 = common global i32 0
@x.523 = common global i32 0
@y.524 = common global i32 0
@x.525 = common global i32 0
@y.526 = common global i32 0
@x.527 = common global i32 0
@y.528 = common global i32 0
@x.529 = common global i32 0
@y.530 = common global i32 0
@x.531 = common global i32 0
@y.532 = common global i32 0
@x.533 = common global i32 0
@y.534 = common global i32 0
@x.535 = common global i32 0
@y.536 = common global i32 0
@x.537 = common global i32 0
@y.538 = common global i32 0
@x.539 = common global i32 0
@y.540 = common global i32 0
@x.541 = common global i32 0
@y.542 = common global i32 0
@x.543 = common global i32 0
@y.544 = common global i32 0
@x.545 = common global i32 0
@y.546 = common global i32 0
@x.547 = common global i32 0
@y.548 = common global i32 0
@x.549 = common global i32 0
@y.550 = common global i32 0
@x.551 = common global i32 0
@y.552 = common global i32 0
@x.553 = common global i32 0
@y.554 = common global i32 0
@x.555 = common global i32 0
@y.556 = common global i32 0
@x.557 = common global i32 0
@y.558 = common global i32 0
@x.559 = common global i32 0
@y.560 = common global i32 0
@x.561 = common global i32 0
@y.562 = common global i32 0
@x.563 = common global i32 0
@y.564 = common global i32 0
@x.565 = common global i32 0
@y.566 = common global i32 0
@x.567 = common global i32 0
@y.568 = common global i32 0
@x.569 = common global i32 0
@y.570 = common global i32 0
@x.571 = common global i32 0
@y.572 = common global i32 0
@x.573 = common global i32 0
@y.574 = common global i32 0
@x.575 = common global i32 0
@y.576 = common global i32 0
@x.577 = common global i32 0
@y.578 = common global i32 0
@x.579 = common global i32 0
@y.580 = common global i32 0
@x.581 = common global i32 0
@y.582 = common global i32 0
@x.583 = common global i32 0
@y.584 = common global i32 0
@x.585 = common global i32 0
@y.586 = common global i32 0
@x.587 = common global i32 0
@y.588 = common global i32 0
@x.589 = common global i32 0
@y.590 = common global i32 0
@x.591 = common global i32 0
@y.592 = common global i32 0
@x.593 = common global i32 0
@y.594 = common global i32 0
@x.595 = common global i32 0
@y.596 = common global i32 0
@x.597 = common global i32 0
@y.598 = common global i32 0
@x.599 = common global i32 0
@y.600 = common global i32 0
@x.601 = common global i32 0
@y.602 = common global i32 0
@x.603 = common global i32 0
@y.604 = common global i32 0
@x.605 = common global i32 0
@y.606 = common global i32 0
@x.607 = common global i32 0
@y.608 = common global i32 0
@x.609 = common global i32 0
@y.610 = common global i32 0
@x.611 = common global i32 0
@y.612 = common global i32 0
@x.613 = common global i32 0
@y.614 = common global i32 0
@x.615 = common global i32 0
@y.616 = common global i32 0
@x.617 = common global i32 0
@y.618 = common global i32 0
@x.619 = common global i32 0
@y.620 = common global i32 0
@x.621 = common global i32 0
@y.622 = common global i32 0
@x.623 = common global i32 0
@y.624 = common global i32 0
@x.625 = common global i32 0
@y.626 = common global i32 0
@x.627 = common global i32 0
@y.628 = common global i32 0
@x.629 = common global i32 0
@y.630 = common global i32 0
@x.631 = common global i32 0
@y.632 = common global i32 0
@x.633 = common global i32 0
@y.634 = common global i32 0
@x.635 = common global i32 0
@y.636 = common global i32 0
@x.637 = common global i32 0
@y.638 = common global i32 0
@x.639 = common global i32 0
@y.640 = common global i32 0
@x.641 = common global i32 0
@y.642 = common global i32 0
@x.643 = common global i32 0
@y.644 = common global i32 0
@x.645 = common global i32 0
@y.646 = common global i32 0
@x.647 = common global i32 0
@y.648 = common global i32 0
@x.649 = common global i32 0
@y.650 = common global i32 0
@x.651 = common global i32 0
@y.652 = common global i32 0
@x.653 = common global i32 0
@y.654 = common global i32 0
@x.655 = common global i32 0
@y.656 = common global i32 0
@x.657 = common global i32 0
@y.658 = common global i32 0
@x.659 = common global i32 0
@y.660 = common global i32 0
@x.661 = common global i32 0
@y.662 = common global i32 0
@x.663 = common global i32 0
@y.664 = common global i32 0
@x.665 = common global i32 0
@y.666 = common global i32 0
@x.667 = common global i32 0
@y.668 = common global i32 0
@x.669 = common global i32 0
@y.670 = common global i32 0
@x.671 = common global i32 0
@y.672 = common global i32 0
@x.673 = common global i32 0
@y.674 = common global i32 0
@x.675 = common global i32 0
@y.676 = common global i32 0
@x.677 = common global i32 0
@y.678 = common global i32 0
@x.679 = common global i32 0
@y.680 = common global i32 0
@x.681 = common global i32 0
@y.682 = common global i32 0
@x.683 = common global i32 0
@y.684 = common global i32 0
@x.685 = common global i32 0
@y.686 = common global i32 0
@x.687 = common global i32 0
@y.688 = common global i32 0
@x.689 = common global i32 0
@y.690 = common global i32 0
@x.691 = common global i32 0
@y.692 = common global i32 0
@x.693 = common global i32 0
@y.694 = common global i32 0
@x.695 = common global i32 0
@y.696 = common global i32 0
@x.697 = common global i32 0
@y.698 = common global i32 0
@x.699 = common global i32 0
@y.700 = common global i32 0
@x.701 = common global i32 0
@y.702 = common global i32 0
@x.703 = common global i32 0
@y.704 = common global i32 0
@x.705 = common global i32 0
@y.706 = common global i32 0
@x.707 = common global i32 0
@y.708 = common global i32 0
@x.709 = common global i32 0
@y.710 = common global i32 0
@x.711 = common global i32 0
@y.712 = common global i32 0
@x.713 = common global i32 0
@y.714 = common global i32 0
@x.715 = common global i32 0
@y.716 = common global i32 0
@x.717 = common global i32 0
@y.718 = common global i32 0
@x.719 = common global i32 0
@y.720 = common global i32 0
@x.721 = common global i32 0
@y.722 = common global i32 0
@x.723 = common global i32 0
@y.724 = common global i32 0
@x.725 = common global i32 0
@y.726 = common global i32 0
@x.727 = common global i32 0
@y.728 = common global i32 0
@x.729 = common global i32 0
@y.730 = common global i32 0
@x.731 = common global i32 0
@y.732 = common global i32 0
@x.733 = common global i32 0
@y.734 = common global i32 0
@x.735 = common global i32 0
@y.736 = common global i32 0
@x.737 = common global i32 0
@y.738 = common global i32 0
@x.739 = common global i32 0
@y.740 = common global i32 0
@x.741 = common global i32 0
@y.742 = common global i32 0
@x.743 = common global i32 0
@y.744 = common global i32 0
@x.745 = common global i32 0
@y.746 = common global i32 0
@x.747 = common global i32 0
@y.748 = common global i32 0
@x.749 = common global i32 0
@y.750 = common global i32 0
@x.751 = common global i32 0
@y.752 = common global i32 0
@x.753 = common global i32 0
@y.754 = common global i32 0
@x.755 = common global i32 0
@y.756 = common global i32 0
@x.757 = common global i32 0
@y.758 = common global i32 0
@x.759 = common global i32 0
@y.760 = common global i32 0
@x.761 = common global i32 0
@y.762 = common global i32 0
@x.763 = common global i32 0
@y.764 = common global i32 0
@x.765 = common global i32 0
@y.766 = common global i32 0
@x.767 = common global i32 0
@y.768 = common global i32 0
@x.769 = common global i32 0
@y.770 = common global i32 0
@x.771 = common global i32 0
@y.772 = common global i32 0
@x.773 = common global i32 0
@y.774 = common global i32 0
@x.775 = common global i32 0
@y.776 = common global i32 0
@x.777 = common global i32 0
@y.778 = common global i32 0
@x.779 = common global i32 0
@y.780 = common global i32 0
@x.781 = common global i32 0
@y.782 = common global i32 0
@x.783 = common global i32 0
@y.784 = common global i32 0
@x.785 = common global i32 0
@y.786 = common global i32 0
@x.787 = common global i32 0
@y.788 = common global i32 0
@x.789 = common global i32 0
@y.790 = common global i32 0
@x.791 = common global i32 0
@y.792 = common global i32 0
@x.793 = common global i32 0
@y.794 = common global i32 0
@x.795 = common global i32 0
@y.796 = common global i32 0
@x.797 = common global i32 0
@y.798 = common global i32 0
@x.799 = common global i32 0
@y.800 = common global i32 0
@x.801 = common global i32 0
@y.802 = common global i32 0
@x.803 = common global i32 0
@y.804 = common global i32 0
@x.805 = common global i32 0
@y.806 = common global i32 0
@x.807 = common global i32 0
@y.808 = common global i32 0
@x.809 = common global i32 0
@y.810 = common global i32 0
@x.811 = common global i32 0
@y.812 = common global i32 0
@x.813 = common global i32 0
@y.814 = common global i32 0
@x.815 = common global i32 0
@y.816 = common global i32 0
@x.817 = common global i32 0
@y.818 = common global i32 0
@x.819 = common global i32 0
@y.820 = common global i32 0
@x.821 = common global i32 0
@y.822 = common global i32 0
@x.823 = common global i32 0
@y.824 = common global i32 0
@x.825 = common global i32 0
@y.826 = common global i32 0
@x.827 = common global i32 0
@y.828 = common global i32 0
@x.829 = common global i32 0
@y.830 = common global i32 0
@x.831 = common global i32 0
@y.832 = common global i32 0
@x.833 = common global i32 0
@y.834 = common global i32 0
@x.835 = common global i32 0
@y.836 = common global i32 0
@x.837 = common global i32 0
@y.838 = common global i32 0
@x.839 = common global i32 0
@y.840 = common global i32 0
@x.841 = common global i32 0
@y.842 = common global i32 0
@x.843 = common global i32 0
@y.844 = common global i32 0
@x.845 = common global i32 0
@y.846 = common global i32 0
@x.847 = common global i32 0
@y.848 = common global i32 0
@x.849 = common global i32 0
@y.850 = common global i32 0
@x.851 = common global i32 0
@y.852 = common global i32 0
@x.853 = common global i32 0
@y.854 = common global i32 0
@x.855 = common global i32 0
@y.856 = common global i32 0
@x.857 = common global i32 0
@y.858 = common global i32 0
@x.859 = common global i32 0
@y.860 = common global i32 0
@x.861 = common global i32 0
@y.862 = common global i32 0
@x.863 = common global i32 0
@y.864 = common global i32 0
@x.865 = common global i32 0
@y.866 = common global i32 0
@x.867 = common global i32 0
@y.868 = common global i32 0
@x.869 = common global i32 0
@y.870 = common global i32 0
@x.871 = common global i32 0
@y.872 = common global i32 0
@x.873 = common global i32 0
@y.874 = common global i32 0
@x.875 = common global i32 0
@y.876 = common global i32 0
@x.877 = common global i32 0
@y.878 = common global i32 0
@x.879 = common global i32 0
@y.880 = common global i32 0
@x.881 = common global i32 0
@y.882 = common global i32 0
@x.883 = common global i32 0
@y.884 = common global i32 0
@x.885 = common global i32 0
@y.886 = common global i32 0
@x.887 = common global i32 0
@y.888 = common global i32 0
@x.889 = common global i32 0
@y.890 = common global i32 0
@x.891 = common global i32 0
@y.892 = common global i32 0
@x.893 = common global i32 0
@y.894 = common global i32 0
@x.895 = common global i32 0
@y.896 = common global i32 0
@x.897 = common global i32 0
@y.898 = common global i32 0
@x.899 = common global i32 0
@y.900 = common global i32 0
@x.901 = common global i32 0
@y.902 = common global i32 0
@x.903 = common global i32 0
@y.904 = common global i32 0
@x.905 = common global i32 0
@y.906 = common global i32 0
@x.907 = common global i32 0
@y.908 = common global i32 0
@x.909 = common global i32 0
@y.910 = common global i32 0
@x.911 = common global i32 0
@y.912 = common global i32 0
@x.913 = common global i32 0
@y.914 = common global i32 0
@x.915 = common global i32 0
@y.916 = common global i32 0
@x.917 = common global i32 0
@y.918 = common global i32 0
@x.919 = common global i32 0
@y.920 = common global i32 0
@x.921 = common global i32 0
@y.922 = common global i32 0
@x.923 = common global i32 0
@y.924 = common global i32 0
@x.925 = common global i32 0
@y.926 = common global i32 0
@x.927 = common global i32 0
@y.928 = common global i32 0
@x.929 = common global i32 0
@y.930 = common global i32 0
@x.931 = common global i32 0
@y.932 = common global i32 0
@x.933 = common global i32 0
@y.934 = common global i32 0
@x.935 = common global i32 0
@y.936 = common global i32 0
@x.937 = common global i32 0
@y.938 = common global i32 0
@x.939 = common global i32 0
@y.940 = common global i32 0
@x.941 = common global i32 0
@y.942 = common global i32 0
@x.943 = common global i32 0
@y.944 = common global i32 0
@x.945 = common global i32 0
@y.946 = common global i32 0
@x.947 = common global i32 0
@y.948 = common global i32 0
@x.949 = common global i32 0
@y.950 = common global i32 0
@x.951 = common global i32 0
@y.952 = common global i32 0
@x.953 = common global i32 0
@y.954 = common global i32 0
@x.955 = common global i32 0
@y.956 = common global i32 0
@x.957 = common global i32 0
@y.958 = common global i32 0
@x.959 = common global i32 0
@y.960 = common global i32 0
@x.961 = common global i32 0
@y.962 = common global i32 0
@x.963 = common global i32 0
@y.964 = common global i32 0
@x.965 = common global i32 0
@y.966 = common global i32 0
@x.967 = common global i32 0
@y.968 = common global i32 0
@x.969 = common global i32 0
@y.970 = common global i32 0
@x.971 = common global i32 0
@y.972 = common global i32 0
@x.973 = common global i32 0
@y.974 = common global i32 0
@x.975 = common global i32 0
@y.976 = common global i32 0
@x.977 = common global i32 0
@y.978 = common global i32 0
@x.979 = common global i32 0
@y.980 = common global i32 0
@x.981 = common global i32 0
@y.982 = common global i32 0
@x.983 = common global i32 0
@y.984 = common global i32 0
@x.985 = common global i32 0
@y.986 = common global i32 0
@x.987 = common global i32 0
@y.988 = common global i32 0
@x.989 = common global i32 0
@y.990 = common global i32 0
@x.991 = common global i32 0
@y.992 = common global i32 0
@x.993 = common global i32 0
@y.994 = common global i32 0
@x.995 = common global i32 0
@y.996 = common global i32 0
@x.997 = common global i32 0
@y.998 = common global i32 0
@x.999 = common global i32 0
@y.1000 = common global i32 0
@x.1001 = common global i32 0
@y.1002 = common global i32 0
@x.1003 = common global i32 0
@y.1004 = common global i32 0
@x.1005 = common global i32 0
@y.1006 = common global i32 0
@x.1007 = common global i32 0
@y.1008 = common global i32 0
@x.1009 = common global i32 0
@y.1010 = common global i32 0
@x.1011 = common global i32 0
@y.1012 = common global i32 0
@x.1013 = common global i32 0
@y.1014 = common global i32 0
@x.1015 = common global i32 0
@y.1016 = common global i32 0
@x.1017 = common global i32 0
@y.1018 = common global i32 0
@x.1019 = common global i32 0
@y.1020 = common global i32 0
@x.1021 = common global i32 0
@y.1022 = common global i32 0
@x.1023 = common global i32 0
@y.1024 = common global i32 0
@x.1025 = common global i32 0
@y.1026 = common global i32 0
@x.1027 = common global i32 0
@y.1028 = common global i32 0
@x.1029 = common global i32 0
@y.1030 = common global i32 0
@x.1031 = common global i32 0
@y.1032 = common global i32 0
@x.1033 = common global i32 0
@y.1034 = common global i32 0
@x.1035 = common global i32 0
@y.1036 = common global i32 0
@x.1037 = common global i32 0
@y.1038 = common global i32 0
@x.1039 = common global i32 0
@y.1040 = common global i32 0
@x.1041 = common global i32 0
@y.1042 = common global i32 0
@x.1043 = common global i32 0
@y.1044 = common global i32 0
@x.1045 = common global i32 0
@y.1046 = common global i32 0
@x.1047 = common global i32 0
@y.1048 = common global i32 0
@x.1049 = common global i32 0
@y.1050 = common global i32 0
@x.1051 = common global i32 0
@y.1052 = common global i32 0
@x.1053 = common global i32 0
@y.1054 = common global i32 0
@x.1055 = common global i32 0
@y.1056 = common global i32 0
@x.1057 = common global i32 0
@y.1058 = common global i32 0
@x.1059 = common global i32 0
@y.1060 = common global i32 0
@x.1061 = common global i32 0
@y.1062 = common global i32 0
@x.1063 = common global i32 0
@y.1064 = common global i32 0
@x.1065 = common global i32 0
@y.1066 = common global i32 0
@x.1067 = common global i32 0
@y.1068 = common global i32 0
@x.1069 = common global i32 0
@y.1070 = common global i32 0
@x.1071 = common global i32 0
@y.1072 = common global i32 0
@x.1073 = common global i32 0
@y.1074 = common global i32 0
@x.1075 = common global i32 0
@y.1076 = common global i32 0
@x.1077 = common global i32 0
@y.1078 = common global i32 0
@x.1079 = common global i32 0
@y.1080 = common global i32 0
@x.1081 = common global i32 0
@y.1082 = common global i32 0
@x.1083 = common global i32 0
@y.1084 = common global i32 0
@x.1085 = common global i32 0
@y.1086 = common global i32 0
@x.1087 = common global i32 0
@y.1088 = common global i32 0
@x.1089 = common global i32 0
@y.1090 = common global i32 0
@x.1091 = common global i32 0
@y.1092 = common global i32 0
@x.1093 = common global i32 0
@y.1094 = common global i32 0
@x.1095 = common global i32 0
@y.1096 = common global i32 0
@x.1097 = common global i32 0
@y.1098 = common global i32 0
@x.1099 = common global i32 0
@y.1100 = common global i32 0
@x.1101 = common global i32 0
@y.1102 = common global i32 0
@x.1103 = common global i32 0
@y.1104 = common global i32 0
@x.1105 = common global i32 0
@y.1106 = common global i32 0
@x.1107 = common global i32 0
@y.1108 = common global i32 0
@x.1109 = common global i32 0
@y.1110 = common global i32 0
@x.1111 = common global i32 0
@y.1112 = common global i32 0
@x.1113 = common global i32 0
@y.1114 = common global i32 0
@x.1115 = common global i32 0
@y.1116 = common global i32 0
@x.1117 = common global i32 0
@y.1118 = common global i32 0
@x.1119 = common global i32 0
@y.1120 = common global i32 0
@x.1121 = common global i32 0
@y.1122 = common global i32 0
@x.1123 = common global i32 0
@y.1124 = common global i32 0
@x.1125 = common global i32 0
@y.1126 = common global i32 0
@x.1127 = common global i32 0
@y.1128 = common global i32 0
@x.1129 = common global i32 0
@y.1130 = common global i32 0
@x.1131 = common global i32 0
@y.1132 = common global i32 0
@x.1133 = common global i32 0
@y.1134 = common global i32 0
@x.1135 = common global i32 0
@y.1136 = common global i32 0
@x.1137 = common global i32 0
@y.1138 = common global i32 0
@x.1139 = common global i32 0
@y.1140 = common global i32 0
@x.1141 = common global i32 0
@y.1142 = common global i32 0
@x.1143 = common global i32 0
@y.1144 = common global i32 0
@x.1145 = common global i32 0
@y.1146 = common global i32 0
@x.1147 = common global i32 0
@y.1148 = common global i32 0
@x.1149 = common global i32 0
@y.1150 = common global i32 0
@x.1151 = common global i32 0
@y.1152 = common global i32 0
@x.1153 = common global i32 0
@y.1154 = common global i32 0
@x.1155 = common global i32 0
@y.1156 = common global i32 0
@x.1157 = common global i32 0
@y.1158 = common global i32 0
@x.1159 = common global i32 0
@y.1160 = common global i32 0
@x.1161 = common global i32 0
@y.1162 = common global i32 0
@x.1163 = common global i32 0
@y.1164 = common global i32 0
@x.1165 = common global i32 0
@y.1166 = common global i32 0
@x.1167 = common global i32 0
@y.1168 = common global i32 0
@x.1169 = common global i32 0
@y.1170 = common global i32 0
@x.1171 = common global i32 0
@y.1172 = common global i32 0
@x.1173 = common global i32 0
@y.1174 = common global i32 0
@x.1175 = common global i32 0
@y.1176 = common global i32 0
@x.1177 = common global i32 0
@y.1178 = common global i32 0
@x.1179 = common global i32 0
@y.1180 = common global i32 0
@x.1181 = common global i32 0
@y.1182 = common global i32 0
@x.1183 = common global i32 0
@y.1184 = common global i32 0
@x.1185 = common global i32 0
@y.1186 = common global i32 0
@x.1187 = common global i32 0
@y.1188 = common global i32 0
@x.1189 = common global i32 0
@y.1190 = common global i32 0
@x.1191 = common global i32 0
@y.1192 = common global i32 0
@x.1193 = common global i32 0
@y.1194 = common global i32 0
@x.1195 = common global i32 0
@y.1196 = common global i32 0
@x.1197 = common global i32 0
@y.1198 = common global i32 0
@x.1199 = common global i32 0
@y.1200 = common global i32 0
@x.1201 = common global i32 0
@y.1202 = common global i32 0
@x.1203 = common global i32 0
@y.1204 = common global i32 0
@x.1205 = common global i32 0
@y.1206 = common global i32 0
@x.1207 = common global i32 0
@y.1208 = common global i32 0
@x.1209 = common global i32 0
@y.1210 = common global i32 0
@x.1211 = common global i32 0
@y.1212 = common global i32 0
@x.1213 = common global i32 0
@y.1214 = common global i32 0
@x.1215 = common global i32 0
@y.1216 = common global i32 0
@x.1217 = common global i32 0
@y.1218 = common global i32 0
@x.1219 = common global i32 0
@y.1220 = common global i32 0
@x.1221 = common global i32 0
@y.1222 = common global i32 0
@x.1223 = common global i32 0
@y.1224 = common global i32 0
@x.1225 = common global i32 0
@y.1226 = common global i32 0
@x.1227 = common global i32 0
@y.1228 = common global i32 0
@x.1229 = common global i32 0
@y.1230 = common global i32 0
@x.1231 = common global i32 0
@y.1232 = common global i32 0
@x.1233 = common global i32 0
@y.1234 = common global i32 0
@x.1235 = common global i32 0
@y.1236 = common global i32 0
@x.1237 = common global i32 0
@y.1238 = common global i32 0
@x.1239 = common global i32 0
@y.1240 = common global i32 0
@x.1241 = common global i32 0
@y.1242 = common global i32 0
@x.1243 = common global i32 0
@y.1244 = common global i32 0
@x.1245 = common global i32 0
@y.1246 = common global i32 0
@x.1247 = common global i32 0
@y.1248 = common global i32 0
@x.1249 = common global i32 0
@y.1250 = common global i32 0
@x.1251 = common global i32 0
@y.1252 = common global i32 0
@x.1253 = common global i32 0
@y.1254 = common global i32 0
@x.1255 = common global i32 0
@y.1256 = common global i32 0
@x.1257 = common global i32 0
@y.1258 = common global i32 0
@x.1259 = common global i32 0
@y.1260 = common global i32 0
@x.1261 = common global i32 0
@y.1262 = common global i32 0
@x.1263 = common global i32 0
@y.1264 = common global i32 0
@x.1265 = common global i32 0
@y.1266 = common global i32 0
@x.1267 = common global i32 0
@y.1268 = common global i32 0
@x.1269 = common global i32 0
@y.1270 = common global i32 0
@x.1271 = common global i32 0
@y.1272 = common global i32 0
@x.1273 = common global i32 0
@y.1274 = common global i32 0
@x.1275 = common global i32 0
@y.1276 = common global i32 0
@x.1277 = common global i32 0
@y.1278 = common global i32 0
@x.1279 = common global i32 0
@y.1280 = common global i32 0
@x.1281 = common global i32 0
@y.1282 = common global i32 0
@x.1283 = common global i32 0
@y.1284 = common global i32 0
@x.1285 = common global i32 0
@y.1286 = common global i32 0
@x.1287 = common global i32 0
@y.1288 = common global i32 0
@x.1289 = common global i32 0
@y.1290 = common global i32 0
@x.1291 = common global i32 0
@y.1292 = common global i32 0
@x.1293 = common global i32 0
@y.1294 = common global i32 0
@x.1295 = common global i32 0
@y.1296 = common global i32 0
@x.1297 = common global i32 0
@y.1298 = common global i32 0
@x.1299 = common global i32 0
@y.1300 = common global i32 0
@x.1301 = common global i32 0
@y.1302 = common global i32 0
@x.1303 = common global i32 0
@y.1304 = common global i32 0
@x.1305 = common global i32 0
@y.1306 = common global i32 0
@x.1307 = common global i32 0
@y.1308 = common global i32 0
@x.1309 = common global i32 0
@y.1310 = common global i32 0
@x.1311 = common global i32 0
@y.1312 = common global i32 0
@x.1313 = common global i32 0
@y.1314 = common global i32 0
@x.1315 = common global i32 0
@y.1316 = common global i32 0
@x.1317 = common global i32 0
@y.1318 = common global i32 0
@x.1319 = common global i32 0
@y.1320 = common global i32 0
@x.1321 = common global i32 0
@y.1322 = common global i32 0
@x.1323 = common global i32 0
@y.1324 = common global i32 0
@x.1325 = common global i32 0
@y.1326 = common global i32 0
@x.1327 = common global i32 0
@y.1328 = common global i32 0
@x.1329 = common global i32 0
@y.1330 = common global i32 0
@x.1331 = common global i32 0
@y.1332 = common global i32 0
@x.1333 = common global i32 0
@y.1334 = common global i32 0
@x.1335 = common global i32 0
@y.1336 = common global i32 0
@x.1337 = common global i32 0
@y.1338 = common global i32 0
@x.1339 = common global i32 0
@y.1340 = common global i32 0
@x.1341 = common global i32 0
@y.1342 = common global i32 0
@x.1343 = common global i32 0
@y.1344 = common global i32 0
@x.1345 = common global i32 0
@y.1346 = common global i32 0
@x.1347 = common global i32 0
@y.1348 = common global i32 0
@x.1349 = common global i32 0
@y.1350 = common global i32 0
@x.1351 = common global i32 0
@y.1352 = common global i32 0
@x.1353 = common global i32 0
@y.1354 = common global i32 0
@x.1355 = common global i32 0
@y.1356 = common global i32 0
@x.1357 = common global i32 0
@y.1358 = common global i32 0
@x.1359 = common global i32 0
@y.1360 = common global i32 0
@x.1361 = common global i32 0
@y.1362 = common global i32 0
@x.1363 = common global i32 0
@y.1364 = common global i32 0
@x.1365 = common global i32 0
@y.1366 = common global i32 0
@x.1367 = common global i32 0
@y.1368 = common global i32 0
@x.1369 = common global i32 0
@y.1370 = common global i32 0
@x.1371 = common global i32 0
@y.1372 = common global i32 0
@x.1373 = common global i32 0
@y.1374 = common global i32 0
@x.1375 = common global i32 0
@y.1376 = common global i32 0
@x.1377 = common global i32 0
@y.1378 = common global i32 0
@x.1379 = common global i32 0
@y.1380 = common global i32 0
@x.1381 = common global i32 0
@y.1382 = common global i32 0
@x.1383 = common global i32 0
@y.1384 = common global i32 0
@x.1385 = common global i32 0
@y.1386 = common global i32 0
@x.1387 = common global i32 0
@y.1388 = common global i32 0
@x.1389 = common global i32 0
@y.1390 = common global i32 0
@x.1391 = common global i32 0
@y.1392 = common global i32 0
@x.1393 = common global i32 0
@y.1394 = common global i32 0
@x.1395 = common global i32 0
@y.1396 = common global i32 0
@x.1397 = common global i32 0
@y.1398 = common global i32 0
@x.1399 = common global i32 0
@y.1400 = common global i32 0
@x.1401 = common global i32 0
@y.1402 = common global i32 0
@x.1403 = common global i32 0
@y.1404 = common global i32 0
@x.1405 = common global i32 0
@y.1406 = common global i32 0
@x.1407 = common global i32 0
@y.1408 = common global i32 0
@x.1409 = common global i32 0
@y.1410 = common global i32 0
@x.1411 = common global i32 0
@y.1412 = common global i32 0
@x.1413 = common global i32 0
@y.1414 = common global i32 0
@x.1415 = common global i32 0
@y.1416 = common global i32 0
@x.1417 = common global i32 0
@y.1418 = common global i32 0
@x.1419 = common global i32 0
@y.1420 = common global i32 0
@x.1421 = common global i32 0
@y.1422 = common global i32 0
@x.1423 = common global i32 0
@y.1424 = common global i32 0
@x.1425 = common global i32 0
@y.1426 = common global i32 0
@x.1427 = common global i32 0
@y.1428 = common global i32 0
@x.1429 = common global i32 0
@y.1430 = common global i32 0
@x.1431 = common global i32 0
@y.1432 = common global i32 0
@x.1433 = common global i32 0
@y.1434 = common global i32 0
@x.1435 = common global i32 0
@y.1436 = common global i32 0
@x.1437 = common global i32 0
@y.1438 = common global i32 0
@x.1439 = common global i32 0
@y.1440 = common global i32 0
@x.1441 = common global i32 0
@y.1442 = common global i32 0
@x.1443 = common global i32 0
@y.1444 = common global i32 0
@x.1445 = common global i32 0
@y.1446 = common global i32 0
@x.1447 = common global i32 0
@y.1448 = common global i32 0
@x.1449 = common global i32 0
@y.1450 = common global i32 0
@x.1451 = common global i32 0
@y.1452 = common global i32 0
@x.1453 = common global i32 0
@y.1454 = common global i32 0
@x.1455 = common global i32 0
@y.1456 = common global i32 0
@x.1457 = common global i32 0
@y.1458 = common global i32 0
@x.1459 = common global i32 0
@y.1460 = common global i32 0
@x.1461 = common global i32 0
@y.1462 = common global i32 0
@x.1463 = common global i32 0
@y.1464 = common global i32 0
@x.1465 = common global i32 0
@y.1466 = common global i32 0
@x.1467 = common global i32 0
@y.1468 = common global i32 0
@x.1469 = common global i32 0
@y.1470 = common global i32 0
@x.1471 = common global i32 0
@y.1472 = common global i32 0
@x.1473 = common global i32 0
@y.1474 = common global i32 0
@x.1475 = common global i32 0
@y.1476 = common global i32 0
@x.1477 = common global i32 0
@y.1478 = common global i32 0
@x.1479 = common global i32 0
@y.1480 = common global i32 0
@x.1481 = common global i32 0
@y.1482 = common global i32 0
@x.1483 = common global i32 0
@y.1484 = common global i32 0
@x.1485 = common global i32 0
@y.1486 = common global i32 0
@x.1487 = common global i32 0
@y.1488 = common global i32 0
@x.1489 = common global i32 0
@y.1490 = common global i32 0
@x.1491 = common global i32 0
@y.1492 = common global i32 0
@x.1493 = common global i32 0
@y.1494 = common global i32 0
@x.1495 = common global i32 0
@y.1496 = common global i32 0
@x.1497 = common global i32 0
@y.1498 = common global i32 0
@x.1499 = common global i32 0
@y.1500 = common global i32 0
@x.1501 = common global i32 0
@y.1502 = common global i32 0
@x.1503 = common global i32 0
@y.1504 = common global i32 0
@x.1505 = common global i32 0
@y.1506 = common global i32 0
@x.1507 = common global i32 0
@y.1508 = common global i32 0
@x.1509 = common global i32 0
@y.1510 = common global i32 0
@x.1511 = common global i32 0
@y.1512 = common global i32 0

; Function Attrs: noinline uwtable
define void @_ZN5Graph3addERK4Edge(%class.Graph*, %class.Edge* dereferenceable(16)) #0 align 2 {
  %3 = alloca %class.Graph*, align 8
  %4 = alloca %class.Edge*, align 8
  store %class.Graph* %0, %class.Graph** %3, align 8
  store %class.Edge* %1, %class.Edge** %4, align 8
  %5 = load %class.Graph*, %class.Graph** %3, align 8
  %6 = getelementptr inbounds %class.Graph, %class.Graph* %5, i32 0, i32 1
  %7 = load %class.Edge*, %class.Edge** %4, align 8
  %8 = call i32 @_ZNK4Edge4fromEv(%class.Edge* %7)
  %9 = sext i32 %8 to i64
  %10 = call dereferenceable(24) %"class.std::vector.0"* @_ZNSt6vectorIS_I4EdgeSaIS0_EESaIS2_EEixEm(%"class.std::vector"* %6, i64 %9) #4
  %11 = load %class.Edge*, %class.Edge** %4, align 8
  call void @_ZNSt6vectorI4EdgeSaIS0_EE9push_backERKS0_(%"class.std::vector.0"* %10, %class.Edge* dereferenceable(16) %11)
  ret void
}

; Function Attrs: noinline nounwind uwtable
define linkonce_odr dereferenceable(24) %"class.std::vector.0"* @_ZNSt6vectorIS_I4EdgeSaIS0_EESaIS2_EEixEm(%"class.std::vector"*, i64) #1 comdat align 2 {
  %3 = alloca %"class.std::vector"*, align 8
  %4 = alloca i64, align 8
  store %"class.std::vector"* %0, %"class.std::vector"** %3, align 8
  store i64 %1, i64* %4, align 8
  %5 = load %"class.std::vector"*, %"class.std::vector"** %3, align 8
  %6 = bitcast %"class.std::vector"* %5 to %"struct.std::_Vector_base"*
  %7 = getelementptr inbounds %"struct.std::_Vector_base", %"struct.std::_Vector_base"* %6, i32 0, i32 0
  %8 = getelementptr inbounds %"struct.std::_Vector_base<std::vector<Edge, std::allocator<Edge> >, std::allocator<std::vector<Edge, std::allocator<Edge> > > >::_Vector_impl", %"struct.std::_Vector_base<std::vector<Edge, std::allocator<Edge> >, std::allocator<std::vector<Edge, std::allocator<Edge> > > >::_Vector_impl"* %7, i32 0, i32 0
  %9 = load %"class.std::vector.0"*, %"class.std::vector.0"** %8, align 8
  %10 = load i64, i64* %4, align 8
  %11 = getelementptr inbounds %"class.std::vector.0", %"class.std::vector.0"* %9, i64 %10
  ret %"class.std::vector.0"* %11
}

; Function Attrs: noinline nounwind uwtable
define linkonce_odr i32 @_ZNK4Edge4fromEv(%class.Edge*) #1 comdat align 2 {
  %2 = load i32, i32* @x.5
  %3 = load i32, i32* @y.6
  %4 = sub i32 %2, 1
  %5 = mul i32 %2, %4
  %6 = urem i32 %5, 2
  %7 = icmp eq i32 %6, 0
  %8 = icmp slt i32 %3, 10
  %9 = or i1 %7, %8
  br i1 %9, label %10, label %24

; <label>:10:                                     ; preds = %1, %24
  %11 = alloca %class.Edge*, align 8
  store %class.Edge* %0, %class.Edge** %11, align 8
  %12 = load %class.Edge*, %class.Edge** %11, align 8
  %13 = getelementptr inbounds %class.Edge, %class.Edge* %12, i32 0, i32 0
  %14 = load i32, i32* %13, align 8
  %15 = load i32, i32* @x.5
  %16 = load i32, i32* @y.6
  %17 = sub i32 %15, 1
  %18 = mul i32 %15, %17
  %19 = urem i32 %18, 2
  %20 = icmp eq i32 %19, 0
  %21 = icmp slt i32 %16, 10
  %22 = or i1 %20, %21
  br i1 %22, label %23, label %24

; <label>:23:                                     ; preds = %10
  ret i32 %14

; <label>:24:                                     ; preds = %10, %1
  %25 = alloca %class.Edge*, align 8
  store %class.Edge* %0, %class.Edge** %25, align 8
  %26 = load %class.Edge*, %class.Edge** %25, align 8
  %27 = getelementptr inbounds %class.Edge, %class.Edge* %26, i32 0, i32 0
  %28 = load i32, i32* %27, align 8
  br label %10
}

; Function Attrs: noinline uwtable
define linkonce_odr void @_ZNSt6vectorI4EdgeSaIS0_EE9push_backERKS0_(%"class.std::vector.0"*, %class.Edge* dereferenceable(16)) #0 comdat align 2 {
  %3 = alloca %"class.std::vector.0"*, align 8
  %4 = alloca %class.Edge*, align 8
  store %"class.std::vector.0"* %0, %"class.std::vector.0"** %3, align 8
  store %class.Edge* %1, %class.Edge** %4, align 8
  %5 = load %"class.std::vector.0"*, %"class.std::vector.0"** %3, align 8
  %6 = bitcast %"class.std::vector.0"* %5 to %"struct.std::_Vector_base.1"*
  %7 = getelementptr inbounds %"struct.std::_Vector_base.1", %"struct.std::_Vector_base.1"* %6, i32 0, i32 0
  %8 = getelementptr inbounds %"struct.std::_Vector_base<Edge, std::allocator<Edge> >::_Vector_impl", %"struct.std::_Vector_base<Edge, std::allocator<Edge> >::_Vector_impl"* %7, i32 0, i32 1
  %9 = load %class.Edge*, %class.Edge** %8, align 8
  %10 = bitcast %"class.std::vector.0"* %5 to %"struct.std::_Vector_base.1"*
  %11 = getelementptr inbounds %"struct.std::_Vector_base.1", %"struct.std::_Vector_base.1"* %10, i32 0, i32 0
  %12 = getelementptr inbounds %"struct.std::_Vector_base<Edge, std::allocator<Edge> >::_Vector_impl", %"struct.std::_Vector_base<Edge, std::allocator<Edge> >::_Vector_impl"* %11, i32 0, i32 2
  %13 = load %class.Edge*, %class.Edge** %12, align 8
  %14 = icmp ne %class.Edge* %9, %13
  br i1 %14, label %15, label %29

; <label>:15:                                     ; preds = %2
  %16 = bitcast %"class.std::vector.0"* %5 to %"struct.std::_Vector_base.1"*
  %17 = getelementptr inbounds %"struct.std::_Vector_base.1", %"struct.std::_Vector_base.1"* %16, i32 0, i32 0
  %18 = bitcast %"struct.std::_Vector_base<Edge, std::allocator<Edge> >::_Vector_impl"* %17 to %"class.std::allocator.2"*
  %19 = bitcast %"class.std::vector.0"* %5 to %"struct.std::_Vector_base.1"*
  %20 = getelementptr inbounds %"struct.std::_Vector_base.1", %"struct.std::_Vector_base.1"* %19, i32 0, i32 0
  %21 = getelementptr inbounds %"struct.std::_Vector_base<Edge, std::allocator<Edge> >::_Vector_impl", %"struct.std::_Vector_base<Edge, std::allocator<Edge> >::_Vector_impl"* %20, i32 0, i32 1
  %22 = load %class.Edge*, %class.Edge** %21, align 8
  %23 = load %class.Edge*, %class.Edge** %4, align 8
  call void @_ZNSt16allocator_traitsISaI4EdgeEE9constructIS0_JRKS0_EEEvRS1_PT_DpOT0_(%"class.std::allocator.2"* dereferenceable(1) %18, %class.Edge* %22, %class.Edge* dereferenceable(16) %23)
  %24 = bitcast %"class.std::vector.0"* %5 to %"struct.std::_Vector_base.1"*
  %25 = getelementptr inbounds %"struct.std::_Vector_base.1", %"struct.std::_Vector_base.1"* %24, i32 0, i32 0
  %26 = getelementptr inbounds %"struct.std::_Vector_base<Edge, std::allocator<Edge> >::_Vector_impl", %"struct.std::_Vector_base<Edge, std::allocator<Edge> >::_Vector_impl"* %25, i32 0, i32 1
  %27 = load %class.Edge*, %class.Edge** %26, align 8
  %28 = getelementptr inbounds %class.Edge, %class.Edge* %27, i32 1
  store %class.Edge* %28, %class.Edge** %26, align 8
  br label %31

; <label>:29:                                     ; preds = %2
  %30 = load %class.Edge*, %class.Edge** %4, align 8
  call void @_ZNSt6vectorI4EdgeSaIS0_EE19_M_emplace_back_auxIJRKS0_EEEvDpOT_(%"class.std::vector.0"* %5, %class.Edge* dereferenceable(16) %30)
  br label %31

; <label>:31:                                     ; preds = %29, %15
  ret void
}

; Function Attrs: noinline uwtable
define void @_ZN5Graph3addEiid(%class.Graph*, i32, i32, double) #0 align 2 {
  %5 = load i32, i32* @x.9
  %6 = load i32, i32* @y.10
  %7 = sub i32 %5, 1
  %8 = mul i32 %5, %7
  %9 = urem i32 %8, 2
  %10 = icmp eq i32 %9, 0
  %11 = icmp slt i32 %6, 10
  %12 = or i1 %10, %11
  br i1 %12, label %13, label %36

; <label>:13:                                     ; preds = %4, %36
  %14 = alloca %class.Graph*, align 8
  %15 = alloca i32, align 4
  %16 = alloca i32, align 4
  %17 = alloca double, align 8
  %18 = alloca %class.Edge, align 8
  store %class.Graph* %0, %class.Graph** %14, align 8
  store i32 %1, i32* %15, align 4
  store i32 %2, i32* %16, align 4
  store double %3, double* %17, align 8
  %19 = load %class.Graph*, %class.Graph** %14, align 8
  %20 = getelementptr inbounds %class.Graph, %class.Graph* %19, i32 0, i32 1
  %21 = load i32, i32* %15, align 4
  %22 = sext i32 %21 to i64
  %23 = call dereferenceable(24) %"class.std::vector.0"* @_ZNSt6vectorIS_I4EdgeSaIS0_EESaIS2_EEixEm(%"class.std::vector"* %20, i64 %22) #4
  %24 = load i32, i32* %15, align 4
  %25 = load i32, i32* %16, align 4
  %26 = load double, double* %17, align 8
  call void @_ZN4EdgeC2Eiid(%class.Edge* %18, i32 %24, i32 %25, double %26)
  call void @_ZNSt6vectorI4EdgeSaIS0_EE9push_backEOS0_(%"class.std::vector.0"* %23, %class.Edge* dereferenceable(16) %18)
  %27 = load i32, i32* @x.9
  %28 = load i32, i32* @y.10
  %29 = sub i32 %27, 1
  %30 = mul i32 %27, %29
  %31 = urem i32 %30, 2
  %32 = icmp eq i32 %31, 0
  %33 = icmp slt i32 %28, 10
  %34 = or i1 %32, %33
  br i1 %34, label %35, label %36

; <label>:35:                                     ; preds = %13
  ret void

; <label>:36:                                     ; preds = %13, %4
  %37 = alloca %class.Graph*, align 8
  %38 = alloca i32, align 4
  %39 = alloca i32, align 4
  %40 = alloca double, align 8
  %41 = alloca %class.Edge, align 8
  store %class.Graph* %0, %class.Graph** %37, align 8
  store i32 %1, i32* %38, align 4
  store i32 %2, i32* %39, align 4
  store double %3, double* %40, align 8
  %42 = load %class.Graph*, %class.Graph** %37, align 8
  %43 = getelementptr inbounds %class.Graph, %class.Graph* %42, i32 0, i32 1
  %44 = load i32, i32* %38, align 4
  %45 = sext i32 %44 to i64
  %46 = call dereferenceable(24) %"class.std::vector.0"* @_ZNSt6vectorIS_I4EdgeSaIS0_EESaIS2_EEixEm(%"class.std::vector"* %43, i64 %45) #4
  %47 = load i32, i32* %38, align 4
  %48 = load i32, i32* %39, align 4
  %49 = load double, double* %40, align 8
  call void @_ZN4EdgeC2Eiid(%class.Edge* %41, i32 %47, i32 %48, double %49)
  call void @_ZNSt6vectorI4EdgeSaIS0_EE9push_backEOS0_(%"class.std::vector.0"* %46, %class.Edge* dereferenceable(16) %41)
  br label %13
}

; Function Attrs: noinline uwtable
define linkonce_odr void @_ZNSt6vectorI4EdgeSaIS0_EE9push_backEOS0_(%"class.std::vector.0"*, %class.Edge* dereferenceable(16)) #0 comdat align 2 {
  %3 = alloca %"class.std::vector.0"*, align 8
  %4 = alloca %class.Edge*, align 8
  store %"class.std::vector.0"* %0, %"class.std::vector.0"** %3, align 8
  store %class.Edge* %1, %class.Edge** %4, align 8
  %5 = load %"class.std::vector.0"*, %"class.std::vector.0"** %3, align 8
  %6 = load %class.Edge*, %class.Edge** %4, align 8
  %7 = call dereferenceable(16) %class.Edge* @_ZSt4moveIR4EdgeEONSt16remove_referenceIT_E4typeEOS3_(%class.Edge* dereferenceable(16) %6) #4
  call void @_ZNSt6vectorI4EdgeSaIS0_EE12emplace_backIJS0_EEEvDpOT_(%"class.std::vector.0"* %5, %class.Edge* dereferenceable(16) %7)
  ret void
}

; Function Attrs: noinline nounwind uwtable
define linkonce_odr void @_ZN4EdgeC2Eiid(%class.Edge*, i32, i32, double) unnamed_addr #1 comdat align 2 {
  %5 = alloca %class.Edge*, align 8
  %6 = alloca i32, align 4
  %7 = alloca i32, align 4
  %8 = alloca double, align 8
  store %class.Edge* %0, %class.Edge** %5, align 8
  store i32 %1, i32* %6, align 4
  store i32 %2, i32* %7, align 4
  store double %3, double* %8, align 8
  %9 = load %class.Edge*, %class.Edge** %5, align 8
  %10 = getelementptr inbounds %class.Edge, %class.Edge* %9, i32 0, i32 0
  %11 = load i32, i32* %6, align 4
  store i32 %11, i32* %10, align 8
  %12 = getelementptr inbounds %class.Edge, %class.Edge* %9, i32 0, i32 1
  %13 = load i32, i32* %7, align 4
  store i32 %13, i32* %12, align 4
  %14 = getelementptr inbounds %class.Edge, %class.Edge* %9, i32 0, i32 2
  %15 = load double, double* %8, align 8
  store double %15, double* %14, align 8
  ret void
}

; Function Attrs: noinline uwtable
define double @_ZNK5Graph8DijkstraEii(%class.Graph*, i32, i32) #0 align 2 personality i8* bitcast (i32 (...)* @__gxx_personality_v0 to i8*) {
  %4 = alloca double, align 8
  %5 = alloca %class.Graph*, align 8
  %6 = alloca i32, align 4
  %7 = alloca i32, align 4
  %8 = alloca %"class.std::vector.5", align 8
  %9 = alloca i32, align 4
  %10 = alloca %"class.std::allocator.7", align 1
  %11 = alloca i8*
  %12 = alloca i32
  %13 = alloca %"class.std::priority_queue", align 8
  %14 = alloca %"struct.std::greater", align 1
  %15 = alloca %"class.std::vector.10", align 8
  %16 = alloca %"class.std::tuple", align 8
  %17 = alloca i32, align 4
  %18 = alloca double, align 8
  %19 = alloca i32, align 4
  %20 = alloca i32
  %21 = alloca %"class.std::vector.0"*, align 8
  %22 = alloca %"class.__gnu_cxx::__normal_iterator", align 8
  %23 = alloca %"class.__gnu_cxx::__normal_iterator", align 8
  %24 = alloca %class.Edge*, align 8
  %25 = alloca %"class.std::tuple", align 8
  %26 = alloca double, align 8
  %27 = alloca i32, align 4
  store %class.Graph* %0, %class.Graph** %5, align 8
  store i32 %1, i32* %6, align 4
  store i32 %2, i32* %7, align 4
  %28 = load %class.Graph*, %class.Graph** %5, align 8
  %29 = call i32 @_ZNK5Graph4sizeEv(%class.Graph* %28)
  %30 = sext i32 %29 to i64
  store i32 0, i32* %9, align 4
  call void @_ZNSaIiEC2Ev(%"class.std::allocator.7"* %10) #4
  invoke void @_ZNSt6vectorIiSaIiEEC2EmRKiRKS0_(%"class.std::vector.5"* %8, i64 %30, i32* dereferenceable(4) %9, %"class.std::allocator.7"* dereferenceable(1) %10)
          to label %31 unwind label %162

; <label>:31:                                     ; preds = %3
  call void @_ZNSaIiED2Ev(%"class.std::allocator.7"* %10) #4
  call void @_ZNSt6vectorISt5tupleIJdiEESaIS1_EEC2Ev(%"class.std::vector.10"* %15) #4
  invoke void @_ZNSt14priority_queueISt5tupleIJdiEESt6vectorIS1_SaIS1_EESt7greaterIS1_EEC2ERKS6_OS4_(%"class.std::priority_queue"* %13, %"struct.std::greater"* dereferenceable(1) %14, %"class.std::vector.10"* dereferenceable(24) %15)
          to label %32 unwind label %166

; <label>:32:                                     ; preds = %31
  call void @_ZNSt6vectorISt5tupleIJdiEESaIS1_EED2Ev(%"class.std::vector.10"* %15) #4
  store i32 0, i32* %17, align 4
  invoke void @_ZNSt5tupleIJdiEEC2IiRKivEEOT_OT0_(%"class.std::tuple"* %16, i32* dereferenceable(4) %17, i32* dereferenceable(4) %6)
          to label %33 unwind label %170

; <label>:33:                                     ; preds = %32
  %34 = load i32, i32* @x.15
  %35 = load i32, i32* @y.16
  %36 = sub i32 %34, 1
  %37 = mul i32 %34, %36
  %38 = urem i32 %37, 2
  %39 = icmp eq i32 %38, 0
  %40 = icmp slt i32 %35, 10
  %41 = or i1 %39, %40
  br i1 %41, label %42, label %310

; <label>:42:                                     ; preds = %33, %310
  %43 = load i32, i32* @x.15
  %44 = load i32, i32* @y.16
  %45 = sub i32 %43, 1
  %46 = mul i32 %43, %45
  %47 = urem i32 %46, 2
  %48 = icmp eq i32 %47, 0
  %49 = icmp slt i32 %44, 10
  %50 = or i1 %48, %49
  br i1 %50, label %51, label %310

; <label>:51:                                     ; preds = %42
  invoke void @_ZNSt14priority_queueISt5tupleIJdiEESt6vectorIS1_SaIS1_EESt7greaterIS1_EE4pushEOS1_(%"class.std::priority_queue"* %13, %"class.std::tuple"* dereferenceable(16) %16)
          to label %52 unwind label %170

; <label>:52:                                     ; preds = %51
  %53 = load i32, i32* @x.15
  %54 = load i32, i32* @y.16
  %55 = sub i32 %53, 1
  %56 = mul i32 %53, %55
  %57 = urem i32 %56, 2
  %58 = icmp eq i32 %57, 0
  %59 = icmp slt i32 %54, 10
  %60 = or i1 %58, %59
  br i1 %60, label %61, label %311

; <label>:61:                                     ; preds = %52, %311
  %62 = load i32, i32* @x.15
  %63 = load i32, i32* @y.16
  %64 = sub i32 %62, 1
  %65 = mul i32 %62, %64
  %66 = urem i32 %65, 2
  %67 = icmp eq i32 %66, 0
  %68 = icmp slt i32 %63, 10
  %69 = or i1 %67, %68
  br i1 %69, label %70, label %311

; <label>:70:                                     ; preds = %61
  br label %71

; <label>:71:                                     ; preds = %264, %198, %70
  %72 = load i32, i32* @x.15
  %73 = load i32, i32* @y.16
  %74 = sub i32 %72, 1
  %75 = mul i32 %72, %74
  %76 = urem i32 %75, 2
  %77 = icmp eq i32 %76, 0
  %78 = icmp slt i32 %73, 10
  %79 = or i1 %77, %78
  br i1 %79, label %80, label %312

; <label>:80:                                     ; preds = %71, %312
  %81 = load i32, i32* @x.15
  %82 = load i32, i32* @y.16
  %83 = sub i32 %81, 1
  %84 = mul i32 %81, %83
  %85 = urem i32 %84, 2
  %86 = icmp eq i32 %85, 0
  %87 = icmp slt i32 %82, 10
  %88 = or i1 %86, %87
  br i1 %88, label %89, label %312

; <label>:89:                                     ; preds = %80
  %90 = invoke zeroext i1 @_ZNKSt14priority_queueISt5tupleIJdiEESt6vectorIS1_SaIS1_EESt7greaterIS1_EE5emptyEv(%"class.std::priority_queue"* %13)
          to label %91 unwind label %170

; <label>:91:                                     ; preds = %89
  %92 = xor i1 %90, true
  br i1 %92, label %93, label %265

; <label>:93:                                     ; preds = %91
  %94 = invoke dereferenceable(16) %"class.std::tuple"* @_ZNKSt14priority_queueISt5tupleIJdiEESt6vectorIS1_SaIS1_EESt7greaterIS1_EE3topEv(%"class.std::priority_queue"* %13)
          to label %95 unwind label %170

; <label>:95:                                     ; preds = %93
  %96 = load i32, i32* @x.15
  %97 = load i32, i32* @y.16
  %98 = sub i32 %96, 1
  %99 = mul i32 %96, %98
  %100 = urem i32 %99, 2
  %101 = icmp eq i32 %100, 0
  %102 = icmp slt i32 %97, 10
  %103 = or i1 %101, %102
  br i1 %103, label %104, label %313

; <label>:104:                                    ; preds = %95, %313
  %105 = call dereferenceable(8) double* @_ZSt3getILm0EJdiEERKNSt13tuple_elementIXT_ESt5tupleIJDpT0_EEE4typeERKS4_(%"class.std::tuple"* dereferenceable(16) %94) #4
  %106 = load double, double* %105, align 8
  store double %106, double* %18, align 8
  %107 = load i32, i32* @x.15
  %108 = load i32, i32* @y.16
  %109 = sub i32 %107, 1
  %110 = mul i32 %107, %109
  %111 = urem i32 %110, 2
  %112 = icmp eq i32 %111, 0
  %113 = icmp slt i32 %108, 10
  %114 = or i1 %112, %113
  br i1 %114, label %115, label %313

; <label>:115:                                    ; preds = %104
  %116 = invoke dereferenceable(16) %"class.std::tuple"* @_ZNKSt14priority_queueISt5tupleIJdiEESt6vectorIS1_SaIS1_EESt7greaterIS1_EE3topEv(%"class.std::priority_queue"* %13)
          to label %117 unwind label %170

; <label>:117:                                    ; preds = %115
  %118 = load i32, i32* @x.15
  %119 = load i32, i32* @y.16
  %120 = sub i32 %118, 1
  %121 = mul i32 %118, %120
  %122 = urem i32 %121, 2
  %123 = icmp eq i32 %122, 0
  %124 = icmp slt i32 %119, 10
  %125 = or i1 %123, %124
  br i1 %125, label %126, label %316

; <label>:126:                                    ; preds = %117, %316
  %127 = call dereferenceable(4) i32* @_ZSt3getILm1EJdiEERKNSt13tuple_elementIXT_ESt5tupleIJDpT0_EEE4typeERKS4_(%"class.std::tuple"* dereferenceable(16) %116) #4
  %128 = load i32, i32* %127, align 4
  store i32 %128, i32* %19, align 4
  %129 = load i32, i32* @x.15
  %130 = load i32, i32* @y.16
  %131 = sub i32 %129, 1
  %132 = mul i32 %129, %131
  %133 = urem i32 %132, 2
  %134 = icmp eq i32 %133, 0
  %135 = icmp slt i32 %130, 10
  %136 = or i1 %134, %135
  br i1 %136, label %137, label %316

; <label>:137:                                    ; preds = %126
  invoke void @_ZNSt14priority_queueISt5tupleIJdiEESt6vectorIS1_SaIS1_EESt7greaterIS1_EE3popEv(%"class.std::priority_queue"* %13)
          to label %138 unwind label %170

; <label>:138:                                    ; preds = %137
  %139 = load i32, i32* %19, align 4
  %140 = load i32, i32* %7, align 4
  %141 = icmp eq i32 %139, %140
  br i1 %141, label %142, label %174

; <label>:142:                                    ; preds = %138
  %143 = load i32, i32* @x.15
  %144 = load i32, i32* @y.16
  %145 = sub i32 %143, 1
  %146 = mul i32 %143, %145
  %147 = urem i32 %146, 2
  %148 = icmp eq i32 %147, 0
  %149 = icmp slt i32 %144, 10
  %150 = or i1 %148, %149
  br i1 %150, label %151, label %319

; <label>:151:                                    ; preds = %142, %319
  %152 = load double, double* %18, align 8
  store double %152, double* %4, align 8
  store i32 1, i32* %20, align 4
  %153 = load i32, i32* @x.15
  %154 = load i32, i32* @y.16
  %155 = sub i32 %153, 1
  %156 = mul i32 %153, %155
  %157 = urem i32 %156, 2
  %158 = icmp eq i32 %157, 0
  %159 = icmp slt i32 %154, 10
  %160 = or i1 %158, %159
  br i1 %160, label %161, label %319

; <label>:161:                                    ; preds = %151
  br label %284

; <label>:162:                                    ; preds = %3
  %163 = landingpad { i8*, i32 }
          cleanup
  %164 = extractvalue { i8*, i32 } %163, 0
  store i8* %164, i8** %11, align 8
  %165 = extractvalue { i8*, i32 } %163, 1
  store i32 %165, i32* %12, align 4
  call void @_ZNSaIiED2Ev(%"class.std::allocator.7"* %10) #4
  br label %305

; <label>:166:                                    ; preds = %31
  %167 = landingpad { i8*, i32 }
          cleanup
  %168 = extractvalue { i8*, i32 } %167, 0
  store i8* %168, i8** %11, align 8
  %169 = extractvalue { i8*, i32 } %167, 1
  store i32 %169, i32* %12, align 4
  call void @_ZNSt6vectorISt5tupleIJdiEESaIS1_EED2Ev(%"class.std::vector.10"* %15) #4
  br label %304

; <label>:170:                                    ; preds = %242, %241, %237, %232, %221, %137, %115, %93, %89, %51, %32
  %171 = landingpad { i8*, i32 }
          cleanup
  %172 = extractvalue { i8*, i32 } %171, 0
  store i8* %172, i8** %11, align 8
  %173 = extractvalue { i8*, i32 } %171, 1
  store i32 %173, i32* %12, align 4
  call void @_ZNSt14priority_queueISt5tupleIJdiEESt6vectorIS1_SaIS1_EESt7greaterIS1_EED2Ev(%"class.std::priority_queue"* %13) #4
  br label %304

; <label>:174:                                    ; preds = %138
  %175 = load i32, i32* @x.15
  %176 = load i32, i32* @y.16
  %177 = sub i32 %175, 1
  %178 = mul i32 %175, %177
  %179 = urem i32 %178, 2
  %180 = icmp eq i32 %179, 0
  %181 = icmp slt i32 %176, 10
  %182 = or i1 %180, %181
  br i1 %182, label %183, label %321

; <label>:183:                                    ; preds = %174, %321
  %184 = load i32, i32* %19, align 4
  %185 = sext i32 %184 to i64
  %186 = call dereferenceable(4) i32* @_ZNSt6vectorIiSaIiEEixEm(%"class.std::vector.5"* %8, i64 %185) #4
  %187 = load i32, i32* %186, align 4
  %188 = icmp ne i32 %187, 0
  %189 = load i32, i32* @x.15
  %190 = load i32, i32* @y.16
  %191 = sub i32 %189, 1
  %192 = mul i32 %189, %191
  %193 = urem i32 %192, 2
  %194 = icmp eq i32 %193, 0
  %195 = icmp slt i32 %190, 10
  %196 = or i1 %194, %195
  br i1 %196, label %197, label %321

; <label>:197:                                    ; preds = %183
  br i1 %188, label %198, label %199

; <label>:198:                                    ; preds = %197
  br label %71

; <label>:199:                                    ; preds = %197
  %200 = load i32, i32* @x.15
  %201 = load i32, i32* @y.16
  %202 = sub i32 %200, 1
  %203 = mul i32 %200, %202
  %204 = urem i32 %203, 2
  %205 = icmp eq i32 %204, 0
  %206 = icmp slt i32 %201, 10
  %207 = or i1 %205, %206
  br i1 %207, label %208, label %327

; <label>:208:                                    ; preds = %199, %327
  %209 = load i32, i32* %19, align 4
  %210 = sext i32 %209 to i64
  %211 = call dereferenceable(4) i32* @_ZNSt6vectorIiSaIiEEixEm(%"class.std::vector.5"* %8, i64 %210) #4
  store i32 1, i32* %211, align 4
  %212 = load i32, i32* %19, align 4
  %213 = load i32, i32* @x.15
  %214 = load i32, i32* @y.16
  %215 = sub i32 %213, 1
  %216 = mul i32 %213, %215
  %217 = urem i32 %216, 2
  %218 = icmp eq i32 %217, 0
  %219 = icmp slt i32 %214, 10
  %220 = or i1 %218, %219
  br i1 %220, label %221, label %327

; <label>:221:                                    ; preds = %208
  %222 = invoke dereferenceable(24) %"class.std::vector.0"* @_ZNK5Graph4edgeEi(%class.Graph* %28, i32 %212)
          to label %223 unwind label %170

; <label>:223:                                    ; preds = %221
  store %"class.std::vector.0"* %222, %"class.std::vector.0"** %21, align 8
  %224 = load %"class.std::vector.0"*, %"class.std::vector.0"** %21, align 8
  %225 = call %class.Edge* @_ZNKSt6vectorI4EdgeSaIS0_EE5beginEv(%"class.std::vector.0"* %224) #4
  %226 = getelementptr inbounds %"class.__gnu_cxx::__normal_iterator", %"class.__gnu_cxx::__normal_iterator"* %22, i32 0, i32 0
  store %class.Edge* %225, %class.Edge** %226, align 8
  %227 = load %"class.std::vector.0"*, %"class.std::vector.0"** %21, align 8
  %228 = call %class.Edge* @_ZNKSt6vectorI4EdgeSaIS0_EE3endEv(%"class.std::vector.0"* %227) #4
  %229 = getelementptr inbounds %"class.__gnu_cxx::__normal_iterator", %"class.__gnu_cxx::__normal_iterator"* %23, i32 0, i32 0
  store %class.Edge* %228, %class.Edge** %229, align 8
  br label %230

; <label>:230:                                    ; preds = %262, %223
  %231 = call zeroext i1 @_ZN9__gnu_cxxneIPK4EdgeSt6vectorIS1_SaIS1_EEEEbRKNS_17__normal_iteratorIT_T0_EESC_(%"class.__gnu_cxx::__normal_iterator"* dereferenceable(8) %22, %"class.__gnu_cxx::__normal_iterator"* dereferenceable(8) %23) #4
  br i1 %231, label %232, label %264

; <label>:232:                                    ; preds = %230
  %233 = call dereferenceable(16) %class.Edge* @_ZNK9__gnu_cxx17__normal_iteratorIPK4EdgeSt6vectorIS1_SaIS1_EEEdeEv(%"class.__gnu_cxx::__normal_iterator"* %22) #4
  store %class.Edge* %233, %class.Edge** %24, align 8
  %234 = load double, double* %18, align 8
  %235 = load %class.Edge*, %class.Edge** %24, align 8
  %236 = invoke double @_ZNK4Edge6weightEv(%class.Edge* %235)
          to label %237 unwind label %170

; <label>:237:                                    ; preds = %232
  %238 = fadd double %234, %236
  store double %238, double* %26, align 8
  %239 = load %class.Edge*, %class.Edge** %24, align 8
  %240 = invoke i32 @_ZNK4Edge2toEv(%class.Edge* %239)
          to label %241 unwind label %170

; <label>:241:                                    ; preds = %237
  store i32 %240, i32* %27, align 4
  invoke void @_ZNSt5tupleIJdiEEC2IdivEEOT_OT0_(%"class.std::tuple"* %25, double* dereferenceable(8) %26, i32* dereferenceable(4) %27)
          to label %242 unwind label %170

; <label>:242:                                    ; preds = %241
  invoke void @_ZNSt14priority_queueISt5tupleIJdiEESt6vectorIS1_SaIS1_EESt7greaterIS1_EE4pushEOS1_(%"class.std::priority_queue"* %13, %"class.std::tuple"* dereferenceable(16) %25)
          to label %243 unwind label %170

; <label>:243:                                    ; preds = %242
  %244 = load i32, i32* @x.15
  %245 = load i32, i32* @y.16
  %246 = sub i32 %244, 1
  %247 = mul i32 %244, %246
  %248 = urem i32 %247, 2
  %249 = icmp eq i32 %248, 0
  %250 = icmp slt i32 %245, 10
  %251 = or i1 %249, %250
  br i1 %251, label %252, label %332

; <label>:252:                                    ; preds = %243, %332
  %253 = load i32, i32* @x.15
  %254 = load i32, i32* @y.16
  %255 = sub i32 %253, 1
  %256 = mul i32 %253, %255
  %257 = urem i32 %256, 2
  %258 = icmp eq i32 %257, 0
  %259 = icmp slt i32 %254, 10
  %260 = or i1 %258, %259
  br i1 %260, label %261, label %332

; <label>:261:                                    ; preds = %252
  br label %262

; <label>:262:                                    ; preds = %261
  %263 = call dereferenceable(8) %"class.__gnu_cxx::__normal_iterator"* @_ZN9__gnu_cxx17__normal_iteratorIPK4EdgeSt6vectorIS1_SaIS1_EEEppEv(%"class.__gnu_cxx::__normal_iterator"* %22) #4
  br label %230

; <label>:264:                                    ; preds = %230
  br label %71

; <label>:265:                                    ; preds = %91
  %266 = load i32, i32* @x.15
  %267 = load i32, i32* @y.16
  %268 = sub i32 %266, 1
  %269 = mul i32 %266, %268
  %270 = urem i32 %269, 2
  %271 = icmp eq i32 %270, 0
  %272 = icmp slt i32 %267, 10
  %273 = or i1 %271, %272
  br i1 %273, label %274, label %333

; <label>:274:                                    ; preds = %265, %333
  store double 0x7FD5555555555555, double* %4, align 8
  store i32 1, i32* %20, align 4
  %275 = load i32, i32* @x.15
  %276 = load i32, i32* @y.16
  %277 = sub i32 %275, 1
  %278 = mul i32 %275, %277
  %279 = urem i32 %278, 2
  %280 = icmp eq i32 %279, 0
  %281 = icmp slt i32 %276, 10
  %282 = or i1 %280, %281
  br i1 %282, label %283, label %333

; <label>:283:                                    ; preds = %274
  br label %284

; <label>:284:                                    ; preds = %283, %161
  %285 = load i32, i32* @x.15
  %286 = load i32, i32* @y.16
  %287 = sub i32 %285, 1
  %288 = mul i32 %285, %287
  %289 = urem i32 %288, 2
  %290 = icmp eq i32 %289, 0
  %291 = icmp slt i32 %286, 10
  %292 = or i1 %290, %291
  br i1 %292, label %293, label %334

; <label>:293:                                    ; preds = %284, %334
  call void @_ZNSt14priority_queueISt5tupleIJdiEESt6vectorIS1_SaIS1_EESt7greaterIS1_EED2Ev(%"class.std::priority_queue"* %13) #4
  call void @_ZNSt6vectorIiSaIiEED2Ev(%"class.std::vector.5"* %8) #4
  %294 = load double, double* %4, align 8
  %295 = load i32, i32* @x.15
  %296 = load i32, i32* @y.16
  %297 = sub i32 %295, 1
  %298 = mul i32 %295, %297
  %299 = urem i32 %298, 2
  %300 = icmp eq i32 %299, 0
  %301 = icmp slt i32 %296, 10
  %302 = or i1 %300, %301
  br i1 %302, label %303, label %334

; <label>:303:                                    ; preds = %293
  ret double %294

; <label>:304:                                    ; preds = %170, %166
  call void @_ZNSt6vectorIiSaIiEED2Ev(%"class.std::vector.5"* %8) #4
  br label %305

; <label>:305:                                    ; preds = %304, %162
  %306 = load i8*, i8** %11, align 8
  %307 = load i32, i32* %12, align 4
  %308 = insertvalue { i8*, i32 } undef, i8* %306, 0
  %309 = insertvalue { i8*, i32 } %308, i32 %307, 1
  resume { i8*, i32 } %309

; <label>:310:                                    ; preds = %42, %33
  br label %42

; <label>:311:                                    ; preds = %61, %52
  br label %61

; <label>:312:                                    ; preds = %80, %71
  br label %80

; <label>:313:                                    ; preds = %104, %95
  %314 = call dereferenceable(8) double* @_ZSt3getILm0EJdiEERKNSt13tuple_elementIXT_ESt5tupleIJDpT0_EEE4typeERKS4_(%"class.std::tuple"* dereferenceable(16) %94) #4
  %315 = load double, double* %314, align 8
  store double %315, double* %18, align 8
  br label %104

; <label>:316:                                    ; preds = %126, %117
  %317 = call dereferenceable(4) i32* @_ZSt3getILm1EJdiEERKNSt13tuple_elementIXT_ESt5tupleIJDpT0_EEE4typeERKS4_(%"class.std::tuple"* dereferenceable(16) %116) #4
  %318 = load i32, i32* %317, align 4
  store i32 %318, i32* %19, align 4
  br label %126

; <label>:319:                                    ; preds = %151, %142
  %320 = load double, double* %18, align 8
  store double %320, double* %4, align 8
  store i32 1, i32* %20, align 4
  br label %151

; <label>:321:                                    ; preds = %183, %174
  %322 = load i32, i32* %19, align 4
  %323 = sext i32 %322 to i64
  %324 = call dereferenceable(4) i32* @_ZNSt6vectorIiSaIiEEixEm(%"class.std::vector.5"* %8, i64 %323) #4
  %325 = load i32, i32* %324, align 4
  %326 = icmp ne i32 %325, 0
  br label %183

; <label>:327:                                    ; preds = %208, %199
  %328 = load i32, i32* %19, align 4
  %329 = sext i32 %328 to i64
  %330 = call dereferenceable(4) i32* @_ZNSt6vectorIiSaIiEEixEm(%"class.std::vector.5"* %8, i64 %329) #4
  store i32 1, i32* %330, align 4
  %331 = load i32, i32* %19, align 4
  br label %208

; <label>:332:                                    ; preds = %252, %243
  br label %252

; <label>:333:                                    ; preds = %274, %265
  store double 0x7FD5555555555555, double* %4, align 8
  store i32 1, i32* %20, align 4
  br label %274

; <label>:334:                                    ; preds = %293, %284
  call void @_ZNSt14priority_queueISt5tupleIJdiEESt6vectorIS1_SaIS1_EESt7greaterIS1_EED2Ev(%"class.std::priority_queue"* %13) #4
  call void @_ZNSt6vectorIiSaIiEED2Ev(%"class.std::vector.5"* %8) #4
  %335 = load double, double* %4, align 8
  br label %293
}

; Function Attrs: noinline nounwind uwtable
define linkonce_odr i32 @_ZNK5Graph4sizeEv(%class.Graph*) #1 comdat align 2 {
  %2 = alloca %class.Graph*, align 8
  store %class.Graph* %0, %class.Graph** %2, align 8
  %3 = load %class.Graph*, %class.Graph** %2, align 8
  %4 = getelementptr inbounds %class.Graph, %class.Graph* %3, i32 0, i32 0
  %5 = load i32, i32* %4, align 8
  ret i32 %5
}

; Function Attrs: noinline nounwind uwtable
define linkonce_odr void @_ZNSaIiEC2Ev(%"class.std::allocator.7"*) unnamed_addr #1 comdat align 2 {
  %2 = load i32, i32* @x.19
  %3 = load i32, i32* @y.20
  %4 = sub i32 %2, 1
  %5 = mul i32 %2, %4
  %6 = urem i32 %5, 2
  %7 = icmp eq i32 %6, 0
  %8 = icmp slt i32 %3, 10
  %9 = or i1 %7, %8
  br i1 %9, label %10, label %23

; <label>:10:                                     ; preds = %1, %23
  %11 = alloca %"class.std::allocator.7"*, align 8
  store %"class.std::allocator.7"* %0, %"class.std::allocator.7"** %11, align 8
  %12 = load %"class.std::allocator.7"*, %"class.std::allocator.7"** %11, align 8
  %13 = bitcast %"class.std::allocator.7"* %12 to %"class.__gnu_cxx::new_allocator.8"*
  call void @_ZN9__gnu_cxx13new_allocatorIiEC2Ev(%"class.__gnu_cxx::new_allocator.8"* %13) #4
  %14 = load i32, i32* @x.19
  %15 = load i32, i32* @y.20
  %16 = sub i32 %14, 1
  %17 = mul i32 %14, %16
  %18 = urem i32 %17, 2
  %19 = icmp eq i32 %18, 0
  %20 = icmp slt i32 %15, 10
  %21 = or i1 %19, %20
  br i1 %21, label %22, label %23

; <label>:22:                                     ; preds = %10
  ret void

; <label>:23:                                     ; preds = %10, %1
  %24 = alloca %"class.std::allocator.7"*, align 8
  store %"class.std::allocator.7"* %0, %"class.std::allocator.7"** %24, align 8
  %25 = load %"class.std::allocator.7"*, %"class.std::allocator.7"** %24, align 8
  %26 = bitcast %"class.std::allocator.7"* %25 to %"class.__gnu_cxx::new_allocator.8"*
  call void @_ZN9__gnu_cxx13new_allocatorIiEC2Ev(%"class.__gnu_cxx::new_allocator.8"* %26) #4
  br label %10
}

; Function Attrs: noinline uwtable
define linkonce_odr void @_ZNSt6vectorIiSaIiEEC2EmRKiRKS0_(%"class.std::vector.5"*, i64, i32* dereferenceable(4), %"class.std::allocator.7"* dereferenceable(1)) unnamed_addr #0 comdat align 2 personality i8* bitcast (i32 (...)* @__gxx_personality_v0 to i8*) {
  %5 = alloca %"class.std::vector.5"*, align 8
  %6 = alloca i64, align 8
  %7 = alloca i32*, align 8
  %8 = alloca %"class.std::allocator.7"*, align 8
  %9 = alloca i8*
  %10 = alloca i32
  store %"class.std::vector.5"* %0, %"class.std::vector.5"** %5, align 8
  store i64 %1, i64* %6, align 8
  store i32* %2, i32** %7, align 8
  store %"class.std::allocator.7"* %3, %"class.std::allocator.7"** %8, align 8
  %11 = load %"class.std::vector.5"*, %"class.std::vector.5"** %5, align 8
  %12 = bitcast %"class.std::vector.5"* %11 to %"struct.std::_Vector_base.6"*
  %13 = load i64, i64* %6, align 8
  %14 = load %"class.std::allocator.7"*, %"class.std::allocator.7"** %8, align 8
  call void @_ZNSt12_Vector_baseIiSaIiEEC2EmRKS0_(%"struct.std::_Vector_base.6"* %12, i64 %13, %"class.std::allocator.7"* dereferenceable(1) %14)
  %15 = load i64, i64* %6, align 8
  %16 = load i32*, i32** %7, align 8
  invoke void @_ZNSt6vectorIiSaIiEE18_M_fill_initializeEmRKi(%"class.std::vector.5"* %11, i64 %15, i32* dereferenceable(4) %16)
          to label %17 unwind label %36

; <label>:17:                                     ; preds = %4
  %18 = load i32, i32* @x.21
  %19 = load i32, i32* @y.22
  %20 = sub i32 %18, 1
  %21 = mul i32 %18, %20
  %22 = urem i32 %21, 2
  %23 = icmp eq i32 %22, 0
  %24 = icmp slt i32 %19, 10
  %25 = or i1 %23, %24
  br i1 %25, label %26, label %82

; <label>:26:                                     ; preds = %17, %82
  %27 = load i32, i32* @x.21
  %28 = load i32, i32* @y.22
  %29 = sub i32 %27, 1
  %30 = mul i32 %27, %29
  %31 = urem i32 %30, 2
  %32 = icmp eq i32 %31, 0
  %33 = icmp slt i32 %28, 10
  %34 = or i1 %32, %33
  br i1 %34, label %35, label %82

; <label>:35:                                     ; preds = %26
  ret void

; <label>:36:                                     ; preds = %4
  %37 = load i32, i32* @x.21
  %38 = load i32, i32* @y.22
  %39 = sub i32 %37, 1
  %40 = mul i32 %37, %39
  %41 = urem i32 %40, 2
  %42 = icmp eq i32 %41, 0
  %43 = icmp slt i32 %38, 10
  %44 = or i1 %42, %43
  br i1 %44, label %45, label %83

; <label>:45:                                     ; preds = %36, %83
  %46 = landingpad { i8*, i32 }
          cleanup
  %47 = extractvalue { i8*, i32 } %46, 0
  store i8* %47, i8** %9, align 8
  %48 = extractvalue { i8*, i32 } %46, 1
  store i32 %48, i32* %10, align 4
  %49 = bitcast %"class.std::vector.5"* %11 to %"struct.std::_Vector_base.6"*
  call void @_ZNSt12_Vector_baseIiSaIiEED2Ev(%"struct.std::_Vector_base.6"* %49) #4
  %50 = load i32, i32* @x.21
  %51 = load i32, i32* @y.22
  %52 = sub i32 %50, 1
  %53 = mul i32 %50, %52
  %54 = urem i32 %53, 2
  %55 = icmp eq i32 %54, 0
  %56 = icmp slt i32 %51, 10
  %57 = or i1 %55, %56
  br i1 %57, label %58, label %83

; <label>:58:                                     ; preds = %45
  br label %59

; <label>:59:                                     ; preds = %58
  %60 = load i32, i32* @x.21
  %61 = load i32, i32* @y.22
  %62 = sub i32 %60, 1
  %63 = mul i32 %60, %62
  %64 = urem i32 %63, 2
  %65 = icmp eq i32 %64, 0
  %66 = icmp slt i32 %61, 10
  %67 = or i1 %65, %66
  br i1 %67, label %68, label %88

; <label>:68:                                     ; preds = %59, %88
  %69 = load i8*, i8** %9, align 8
  %70 = load i32, i32* %10, align 4
  %71 = insertvalue { i8*, i32 } undef, i8* %69, 0
  %72 = insertvalue { i8*, i32 } %71, i32 %70, 1
  %73 = load i32, i32* @x.21
  %74 = load i32, i32* @y.22
  %75 = sub i32 %73, 1
  %76 = mul i32 %73, %75
  %77 = urem i32 %76, 2
  %78 = icmp eq i32 %77, 0
  %79 = icmp slt i32 %74, 10
  %80 = or i1 %78, %79
  br i1 %80, label %81, label %88

; <label>:81:                                     ; preds = %68
  resume { i8*, i32 } %72

; <label>:82:                                     ; preds = %26, %17
  br label %26

; <label>:83:                                     ; preds = %45, %36
  %84 = landingpad { i8*, i32 }
          cleanup
  %85 = extractvalue { i8*, i32 } %84, 0
  store i8* %85, i8** %9, align 8
  %86 = extractvalue { i8*, i32 } %84, 1
  store i32 %86, i32* %10, align 4
  %87 = bitcast %"class.std::vector.5"* %11 to %"struct.std::_Vector_base.6"*
  call void @_ZNSt12_Vector_baseIiSaIiEED2Ev(%"struct.std::_Vector_base.6"* %87) #4
  br label %45

; <label>:88:                                     ; preds = %68, %59
  %89 = load i8*, i8** %9, align 8
  %90 = load i32, i32* %10, align 4
  %91 = insertvalue { i8*, i32 } undef, i8* %89, 0
  %92 = insertvalue { i8*, i32 } %91, i32 %90, 1
  br label %68
}

declare i32 @__gxx_personality_v0(...)

; Function Attrs: noinline nounwind uwtable
define linkonce_odr void @_ZNSaIiED2Ev(%"class.std::allocator.7"*) unnamed_addr #1 comdat align 2 {
  %2 = alloca %"class.std::allocator.7"*, align 8
  store %"class.std::allocator.7"* %0, %"class.std::allocator.7"** %2, align 8
  %3 = load %"class.std::allocator.7"*, %"class.std::allocator.7"** %2, align 8
  %4 = bitcast %"class.std::allocator.7"* %3 to %"class.__gnu_cxx::new_allocator.8"*
  call void @_ZN9__gnu_cxx13new_allocatorIiED2Ev(%"class.__gnu_cxx::new_allocator.8"* %4) #4
  ret void
}

; Function Attrs: noinline nounwind uwtable
define linkonce_odr void @_ZNSt6vectorISt5tupleIJdiEESaIS1_EEC2Ev(%"class.std::vector.10"*) unnamed_addr #1 comdat align 2 personality i8* bitcast (i32 (...)* @__gxx_personality_v0 to i8*) {
  %2 = load i32, i32* @x.25
  %3 = load i32, i32* @y.26
  %4 = sub i32 %2, 1
  %5 = mul i32 %2, %4
  %6 = urem i32 %5, 2
  %7 = icmp eq i32 %6, 0
  %8 = icmp slt i32 %3, 10
  %9 = or i1 %7, %8
  br i1 %9, label %10, label %27

; <label>:10:                                     ; preds = %1, %27
  %11 = alloca %"class.std::vector.10"*, align 8
  store %"class.std::vector.10"* %0, %"class.std::vector.10"** %11, align 8
  %12 = load %"class.std::vector.10"*, %"class.std::vector.10"** %11, align 8
  %13 = bitcast %"class.std::vector.10"* %12 to %"struct.std::_Vector_base.11"*
  %14 = load i32, i32* @x.25
  %15 = load i32, i32* @y.26
  %16 = sub i32 %14, 1
  %17 = mul i32 %14, %16
  %18 = urem i32 %17, 2
  %19 = icmp eq i32 %18, 0
  %20 = icmp slt i32 %15, 10
  %21 = or i1 %19, %20
  br i1 %21, label %22, label %27

; <label>:22:                                     ; preds = %10
  invoke void @_ZNSt12_Vector_baseISt5tupleIJdiEESaIS1_EEC2Ev(%"struct.std::_Vector_base.11"* %13)
          to label %23 unwind label %24

; <label>:23:                                     ; preds = %22
  ret void

; <label>:24:                                     ; preds = %22
  %25 = landingpad { i8*, i32 }
          catch i8* null
  %26 = extractvalue { i8*, i32 } %25, 0
  call void @__clang_call_terminate(i8* %26) #8
  unreachable

; <label>:27:                                     ; preds = %10, %1
  %28 = alloca %"class.std::vector.10"*, align 8
  store %"class.std::vector.10"* %0, %"class.std::vector.10"** %28, align 8
  %29 = load %"class.std::vector.10"*, %"class.std::vector.10"** %28, align 8
  %30 = bitcast %"class.std::vector.10"* %29 to %"struct.std::_Vector_base.11"*
  br label %10
}

; Function Attrs: noinline uwtable
define linkonce_odr void @_ZNSt14priority_queueISt5tupleIJdiEESt6vectorIS1_SaIS1_EESt7greaterIS1_EEC2ERKS6_OS4_(%"class.std::priority_queue"*, %"struct.std::greater"* dereferenceable(1), %"class.std::vector.10"* dereferenceable(24)) unnamed_addr #0 comdat align 2 personality i8* bitcast (i32 (...)* @__gxx_personality_v0 to i8*) {
  %4 = load i32, i32* @x.27
  %5 = load i32, i32* @y.28
  %6 = sub i32 %4, 1
  %7 = mul i32 %4, %6
  %8 = urem i32 %7, 2
  %9 = icmp eq i32 %8, 0
  %10 = icmp slt i32 %5, 10
  %11 = or i1 %9, %10
  br i1 %11, label %12, label %57

; <label>:12:                                     ; preds = %3, %57
  %13 = alloca %"class.std::priority_queue"*, align 8
  %14 = alloca %"struct.std::greater"*, align 8
  %15 = alloca %"class.std::vector.10"*, align 8
  %16 = alloca %"class.__gnu_cxx::__normal_iterator.46", align 8
  %17 = alloca %"class.__gnu_cxx::__normal_iterator.46", align 8
  %18 = alloca %"struct.std::greater", align 1
  %19 = alloca i8*
  %20 = alloca i32
  store %"class.std::priority_queue"* %0, %"class.std::priority_queue"** %13, align 8
  store %"struct.std::greater"* %1, %"struct.std::greater"** %14, align 8
  store %"class.std::vector.10"* %2, %"class.std::vector.10"** %15, align 8
  %21 = load %"class.std::priority_queue"*, %"class.std::priority_queue"** %13, align 8
  %22 = getelementptr inbounds %"class.std::priority_queue", %"class.std::priority_queue"* %21, i32 0, i32 0
  %23 = load %"class.std::vector.10"*, %"class.std::vector.10"** %15, align 8
  %24 = call dereferenceable(24) %"class.std::vector.10"* @_ZSt4moveIRSt6vectorISt5tupleIJdiEESaIS2_EEEONSt16remove_referenceIT_E4typeEOS7_(%"class.std::vector.10"* dereferenceable(24) %23) #4
  call void @_ZNSt6vectorISt5tupleIJdiEESaIS1_EEC2EOS3_(%"class.std::vector.10"* %22, %"class.std::vector.10"* dereferenceable(24) %24) #4
  %25 = getelementptr inbounds %"class.std::priority_queue", %"class.std::priority_queue"* %21, i32 0, i32 1
  %26 = load %"struct.std::greater"*, %"struct.std::greater"** %14, align 8
  %27 = getelementptr inbounds %"class.std::priority_queue", %"class.std::priority_queue"* %21, i32 0, i32 0
  %28 = call %"class.std::tuple"* @_ZNSt6vectorISt5tupleIJdiEESaIS1_EE5beginEv(%"class.std::vector.10"* %27) #4
  %29 = getelementptr inbounds %"class.__gnu_cxx::__normal_iterator.46", %"class.__gnu_cxx::__normal_iterator.46"* %16, i32 0, i32 0
  store %"class.std::tuple"* %28, %"class.std::tuple"** %29, align 8
  %30 = getelementptr inbounds %"class.std::priority_queue", %"class.std::priority_queue"* %21, i32 0, i32 0
  %31 = call %"class.std::tuple"* @_ZNSt6vectorISt5tupleIJdiEESaIS1_EE3endEv(%"class.std::vector.10"* %30) #4
  %32 = getelementptr inbounds %"class.__gnu_cxx::__normal_iterator.46", %"class.__gnu_cxx::__normal_iterator.46"* %17, i32 0, i32 0
  store %"class.std::tuple"* %31, %"class.std::tuple"** %32, align 8
  %33 = getelementptr inbounds %"class.std::priority_queue", %"class.std::priority_queue"* %21, i32 0, i32 1
  %34 = getelementptr inbounds %"class.__gnu_cxx::__normal_iterator.46", %"class.__gnu_cxx::__normal_iterator.46"* %16, i32 0, i32 0
  %35 = load %"class.std::tuple"*, %"class.std::tuple"** %34, align 8
  %36 = getelementptr inbounds %"class.__gnu_cxx::__normal_iterator.46", %"class.__gnu_cxx::__normal_iterator.46"* %17, i32 0, i32 0
  %37 = load %"class.std::tuple"*, %"class.std::tuple"** %36, align 8
  %38 = load i32, i32* @x.27
  %39 = load i32, i32* @y.28
  %40 = sub i32 %38, 1
  %41 = mul i32 %38, %40
  %42 = urem i32 %41, 2
  %43 = icmp eq i32 %42, 0
  %44 = icmp slt i32 %39, 10
  %45 = or i1 %43, %44
  br i1 %45, label %46, label %57

; <label>:46:                                     ; preds = %12
  invoke void @_ZSt9make_heapIN9__gnu_cxx17__normal_iteratorIPSt5tupleIJdiEESt6vectorIS3_SaIS3_EEEESt7greaterIS3_EEvT_SB_T0_(%"class.std::tuple"* %35, %"class.std::tuple"* %37)
          to label %47 unwind label %48

; <label>:47:                                     ; preds = %46
  ret void

; <label>:48:                                     ; preds = %46
  %49 = landingpad { i8*, i32 }
          cleanup
  %50 = extractvalue { i8*, i32 } %49, 0
  store i8* %50, i8** %19, align 8
  %51 = extractvalue { i8*, i32 } %49, 1
  store i32 %51, i32* %20, align 4
  call void @_ZNSt6vectorISt5tupleIJdiEESaIS1_EED2Ev(%"class.std::vector.10"* %22) #4
  br label %52

; <label>:52:                                     ; preds = %48
  %53 = load i8*, i8** %19, align 8
  %54 = load i32, i32* %20, align 4
  %55 = insertvalue { i8*, i32 } undef, i8* %53, 0
  %56 = insertvalue { i8*, i32 } %55, i32 %54, 1
  resume { i8*, i32 } %56

; <label>:57:                                     ; preds = %12, %3
  %58 = alloca %"class.std::priority_queue"*, align 8
  %59 = alloca %"struct.std::greater"*, align 8
  %60 = alloca %"class.std::vector.10"*, align 8
  %61 = alloca %"class.__gnu_cxx::__normal_iterator.46", align 8
  %62 = alloca %"class.__gnu_cxx::__normal_iterator.46", align 8
  %63 = alloca %"struct.std::greater", align 1
  %64 = alloca i8*
  %65 = alloca i32
  store %"class.std::priority_queue"* %0, %"class.std::priority_queue"** %58, align 8
  store %"struct.std::greater"* %1, %"struct.std::greater"** %59, align 8
  store %"class.std::vector.10"* %2, %"class.std::vector.10"** %60, align 8
  %66 = load %"class.std::priority_queue"*, %"class.std::priority_queue"** %58, align 8
  %67 = getelementptr inbounds %"class.std::priority_queue", %"class.std::priority_queue"* %66, i32 0, i32 0
  %68 = load %"class.std::vector.10"*, %"class.std::vector.10"** %60, align 8
  %69 = call dereferenceable(24) %"class.std::vector.10"* @_ZSt4moveIRSt6vectorISt5tupleIJdiEESaIS2_EEEONSt16remove_referenceIT_E4typeEOS7_(%"class.std::vector.10"* dereferenceable(24) %68) #4
  call void @_ZNSt6vectorISt5tupleIJdiEESaIS1_EEC2EOS3_(%"class.std::vector.10"* %67, %"class.std::vector.10"* dereferenceable(24) %69) #4
  %70 = getelementptr inbounds %"class.std::priority_queue", %"class.std::priority_queue"* %66, i32 0, i32 1
  %71 = load %"struct.std::greater"*, %"struct.std::greater"** %59, align 8
  %72 = getelementptr inbounds %"class.std::priority_queue", %"class.std::priority_queue"* %66, i32 0, i32 0
  %73 = call %"class.std::tuple"* @_ZNSt6vectorISt5tupleIJdiEESaIS1_EE5beginEv(%"class.std::vector.10"* %72) #4
  %74 = getelementptr inbounds %"class.__gnu_cxx::__normal_iterator.46", %"class.__gnu_cxx::__normal_iterator.46"* %61, i32 0, i32 0
  store %"class.std::tuple"* %73, %"class.std::tuple"** %74, align 8
  %75 = getelementptr inbounds %"class.std::priority_queue", %"class.std::priority_queue"* %66, i32 0, i32 0
  %76 = call %"class.std::tuple"* @_ZNSt6vectorISt5tupleIJdiEESaIS1_EE3endEv(%"class.std::vector.10"* %75) #4
  %77 = getelementptr inbounds %"class.__gnu_cxx::__normal_iterator.46", %"class.__gnu_cxx::__normal_iterator.46"* %62, i32 0, i32 0
  store %"class.std::tuple"* %76, %"class.std::tuple"** %77, align 8
  %78 = getelementptr inbounds %"class.std::priority_queue", %"class.std::priority_queue"* %66, i32 0, i32 1
  %79 = getelementptr inbounds %"class.__gnu_cxx::__normal_iterator.46", %"class.__gnu_cxx::__normal_iterator.46"* %61, i32 0, i32 0
  %80 = load %"class.std::tuple"*, %"class.std::tuple"** %79, align 8
  %81 = getelementptr inbounds %"class.__gnu_cxx::__normal_iterator.46", %"class.__gnu_cxx::__normal_iterator.46"* %62, i32 0, i32 0
  %82 = load %"class.std::tuple"*, %"class.std::tuple"** %81, align 8
  br label %12
}

; Function Attrs: noinline nounwind uwtable
define linkonce_odr void @_ZNSt6vectorISt5tupleIJdiEESaIS1_EED2Ev(%"class.std::vector.10"*) unnamed_addr #1 comdat align 2 personality i8* bitcast (i32 (...)* @__gxx_personality_v0 to i8*) {
  %2 = alloca %"class.std::vector.10"*, align 8
  %3 = alloca i8*
  %4 = alloca i32
  store %"class.std::vector.10"* %0, %"class.std::vector.10"** %2, align 8
  %5 = load %"class.std::vector.10"*, %"class.std::vector.10"** %2, align 8
  %6 = bitcast %"class.std::vector.10"* %5 to %"struct.std::_Vector_base.11"*
  %7 = getelementptr inbounds %"struct.std::_Vector_base.11", %"struct.std::_Vector_base.11"* %6, i32 0, i32 0
  %8 = getelementptr inbounds %"struct.std::_Vector_base<std::tuple<double, int>, std::allocator<std::tuple<double, int> > >::_Vector_impl", %"struct.std::_Vector_base<std::tuple<double, int>, std::allocator<std::tuple<double, int> > >::_Vector_impl"* %7, i32 0, i32 0
  %9 = load %"class.std::tuple"*, %"class.std::tuple"** %8, align 8
  %10 = bitcast %"class.std::vector.10"* %5 to %"struct.std::_Vector_base.11"*
  %11 = getelementptr inbounds %"struct.std::_Vector_base.11", %"struct.std::_Vector_base.11"* %10, i32 0, i32 0
  %12 = getelementptr inbounds %"struct.std::_Vector_base<std::tuple<double, int>, std::allocator<std::tuple<double, int> > >::_Vector_impl", %"struct.std::_Vector_base<std::tuple<double, int>, std::allocator<std::tuple<double, int> > >::_Vector_impl"* %11, i32 0, i32 1
  %13 = load %"class.std::tuple"*, %"class.std::tuple"** %12, align 8
  %14 = bitcast %"class.std::vector.10"* %5 to %"struct.std::_Vector_base.11"*
  %15 = call dereferenceable(1) %"class.std::allocator.12"* @_ZNSt12_Vector_baseISt5tupleIJdiEESaIS1_EE19_M_get_Tp_allocatorEv(%"struct.std::_Vector_base.11"* %14) #4
  invoke void @_ZSt8_DestroyIPSt5tupleIJdiEES1_EvT_S3_RSaIT0_E(%"class.std::tuple"* %9, %"class.std::tuple"* %13, %"class.std::allocator.12"* dereferenceable(1) %15)
          to label %16 unwind label %36

; <label>:16:                                     ; preds = %1
  %17 = load i32, i32* @x.29
  %18 = load i32, i32* @y.30
  %19 = sub i32 %17, 1
  %20 = mul i32 %17, %19
  %21 = urem i32 %20, 2
  %22 = icmp eq i32 %21, 0
  %23 = icmp slt i32 %18, 10
  %24 = or i1 %22, %23
  br i1 %24, label %25, label %43

; <label>:25:                                     ; preds = %16, %43
  %26 = bitcast %"class.std::vector.10"* %5 to %"struct.std::_Vector_base.11"*
  call void @_ZNSt12_Vector_baseISt5tupleIJdiEESaIS1_EED2Ev(%"struct.std::_Vector_base.11"* %26) #4
  %27 = load i32, i32* @x.29
  %28 = load i32, i32* @y.30
  %29 = sub i32 %27, 1
  %30 = mul i32 %27, %29
  %31 = urem i32 %30, 2
  %32 = icmp eq i32 %31, 0
  %33 = icmp slt i32 %28, 10
  %34 = or i1 %32, %33
  br i1 %34, label %35, label %43

; <label>:35:                                     ; preds = %25
  ret void

; <label>:36:                                     ; preds = %1
  %37 = landingpad { i8*, i32 }
          catch i8* null
  %38 = extractvalue { i8*, i32 } %37, 0
  store i8* %38, i8** %3, align 8
  %39 = extractvalue { i8*, i32 } %37, 1
  store i32 %39, i32* %4, align 4
  %40 = bitcast %"class.std::vector.10"* %5 to %"struct.std::_Vector_base.11"*
  call void @_ZNSt12_Vector_baseISt5tupleIJdiEESaIS1_EED2Ev(%"struct.std::_Vector_base.11"* %40) #4
  br label %41

; <label>:41:                                     ; preds = %36
  %42 = load i8*, i8** %3, align 8
  call void @__clang_call_terminate(i8* %42) #8
  unreachable

; <label>:43:                                     ; preds = %25, %16
  %44 = bitcast %"class.std::vector.10"* %5 to %"struct.std::_Vector_base.11"*
  call void @_ZNSt12_Vector_baseISt5tupleIJdiEESaIS1_EED2Ev(%"struct.std::_Vector_base.11"* %44) #4
  br label %25
}

; Function Attrs: noinline uwtable
define linkonce_odr void @_ZNSt14priority_queueISt5tupleIJdiEESt6vectorIS1_SaIS1_EESt7greaterIS1_EE4pushEOS1_(%"class.std::priority_queue"*, %"class.std::tuple"* dereferenceable(16)) #0 comdat align 2 {
  %3 = load i32, i32* @x.31
  %4 = load i32, i32* @y.32
  %5 = sub i32 %3, 1
  %6 = mul i32 %3, %5
  %7 = urem i32 %6, 2
  %8 = icmp eq i32 %7, 0
  %9 = icmp slt i32 %4, 10
  %10 = or i1 %8, %9
  br i1 %10, label %11, label %41

; <label>:11:                                     ; preds = %2, %41
  %12 = alloca %"class.std::priority_queue"*, align 8
  %13 = alloca %"class.std::tuple"*, align 8
  %14 = alloca %"class.__gnu_cxx::__normal_iterator.46", align 8
  %15 = alloca %"class.__gnu_cxx::__normal_iterator.46", align 8
  %16 = alloca %"struct.std::greater", align 1
  store %"class.std::priority_queue"* %0, %"class.std::priority_queue"** %12, align 8
  store %"class.std::tuple"* %1, %"class.std::tuple"** %13, align 8
  %17 = load %"class.std::priority_queue"*, %"class.std::priority_queue"** %12, align 8
  %18 = getelementptr inbounds %"class.std::priority_queue", %"class.std::priority_queue"* %17, i32 0, i32 0
  %19 = load %"class.std::tuple"*, %"class.std::tuple"** %13, align 8
  %20 = call dereferenceable(16) %"class.std::tuple"* @_ZSt4moveIRSt5tupleIJdiEEEONSt16remove_referenceIT_E4typeEOS4_(%"class.std::tuple"* dereferenceable(16) %19) #4
  call void @_ZNSt6vectorISt5tupleIJdiEESaIS1_EE9push_backEOS1_(%"class.std::vector.10"* %18, %"class.std::tuple"* dereferenceable(16) %20)
  %21 = getelementptr inbounds %"class.std::priority_queue", %"class.std::priority_queue"* %17, i32 0, i32 0
  %22 = call %"class.std::tuple"* @_ZNSt6vectorISt5tupleIJdiEESaIS1_EE5beginEv(%"class.std::vector.10"* %21) #4
  %23 = getelementptr inbounds %"class.__gnu_cxx::__normal_iterator.46", %"class.__gnu_cxx::__normal_iterator.46"* %14, i32 0, i32 0
  store %"class.std::tuple"* %22, %"class.std::tuple"** %23, align 8
  %24 = getelementptr inbounds %"class.std::priority_queue", %"class.std::priority_queue"* %17, i32 0, i32 0
  %25 = call %"class.std::tuple"* @_ZNSt6vectorISt5tupleIJdiEESaIS1_EE3endEv(%"class.std::vector.10"* %24) #4
  %26 = getelementptr inbounds %"class.__gnu_cxx::__normal_iterator.46", %"class.__gnu_cxx::__normal_iterator.46"* %15, i32 0, i32 0
  store %"class.std::tuple"* %25, %"class.std::tuple"** %26, align 8
  %27 = getelementptr inbounds %"class.std::priority_queue", %"class.std::priority_queue"* %17, i32 0, i32 1
  %28 = getelementptr inbounds %"class.__gnu_cxx::__normal_iterator.46", %"class.__gnu_cxx::__normal_iterator.46"* %14, i32 0, i32 0
  %29 = load %"class.std::tuple"*, %"class.std::tuple"** %28, align 8
  %30 = getelementptr inbounds %"class.__gnu_cxx::__normal_iterator.46", %"class.__gnu_cxx::__normal_iterator.46"* %15, i32 0, i32 0
  %31 = load %"class.std::tuple"*, %"class.std::tuple"** %30, align 8
  call void @_ZSt9push_heapIN9__gnu_cxx17__normal_iteratorIPSt5tupleIJdiEESt6vectorIS3_SaIS3_EEEESt7greaterIS3_EEvT_SB_T0_(%"class.std::tuple"* %29, %"class.std::tuple"* %31)
  %32 = load i32, i32* @x.31
  %33 = load i32, i32* @y.32
  %34 = sub i32 %32, 1
  %35 = mul i32 %32, %34
  %36 = urem i32 %35, 2
  %37 = icmp eq i32 %36, 0
  %38 = icmp slt i32 %33, 10
  %39 = or i1 %37, %38
  br i1 %39, label %40, label %41

; <label>:40:                                     ; preds = %11
  ret void

; <label>:41:                                     ; preds = %11, %2
  %42 = alloca %"class.std::priority_queue"*, align 8
  %43 = alloca %"class.std::tuple"*, align 8
  %44 = alloca %"class.__gnu_cxx::__normal_iterator.46", align 8
  %45 = alloca %"class.__gnu_cxx::__normal_iterator.46", align 8
  %46 = alloca %"struct.std::greater", align 1
  store %"class.std::priority_queue"* %0, %"class.std::priority_queue"** %42, align 8
  store %"class.std::tuple"* %1, %"class.std::tuple"** %43, align 8
  %47 = load %"class.std::priority_queue"*, %"class.std::priority_queue"** %42, align 8
  %48 = getelementptr inbounds %"class.std::priority_queue", %"class.std::priority_queue"* %47, i32 0, i32 0
  %49 = load %"class.std::tuple"*, %"class.std::tuple"** %43, align 8
  %50 = call dereferenceable(16) %"class.std::tuple"* @_ZSt4moveIRSt5tupleIJdiEEEONSt16remove_referenceIT_E4typeEOS4_(%"class.std::tuple"* dereferenceable(16) %49) #4
  call void @_ZNSt6vectorISt5tupleIJdiEESaIS1_EE9push_backEOS1_(%"class.std::vector.10"* %48, %"class.std::tuple"* dereferenceable(16) %50)
  %51 = getelementptr inbounds %"class.std::priority_queue", %"class.std::priority_queue"* %47, i32 0, i32 0
  %52 = call %"class.std::tuple"* @_ZNSt6vectorISt5tupleIJdiEESaIS1_EE5beginEv(%"class.std::vector.10"* %51) #4
  %53 = getelementptr inbounds %"class.__gnu_cxx::__normal_iterator.46", %"class.__gnu_cxx::__normal_iterator.46"* %44, i32 0, i32 0
  store %"class.std::tuple"* %52, %"class.std::tuple"** %53, align 8
  %54 = getelementptr inbounds %"class.std::priority_queue", %"class.std::priority_queue"* %47, i32 0, i32 0
  %55 = call %"class.std::tuple"* @_ZNSt6vectorISt5tupleIJdiEESaIS1_EE3endEv(%"class.std::vector.10"* %54) #4
  %56 = getelementptr inbounds %"class.__gnu_cxx::__normal_iterator.46", %"class.__gnu_cxx::__normal_iterator.46"* %45, i32 0, i32 0
  store %"class.std::tuple"* %55, %"class.std::tuple"** %56, align 8
  %57 = getelementptr inbounds %"class.std::priority_queue", %"class.std::priority_queue"* %47, i32 0, i32 1
  %58 = getelementptr inbounds %"class.__gnu_cxx::__normal_iterator.46", %"class.__gnu_cxx::__normal_iterator.46"* %44, i32 0, i32 0
  %59 = load %"class.std::tuple"*, %"class.std::tuple"** %58, align 8
  %60 = getelementptr inbounds %"class.__gnu_cxx::__normal_iterator.46", %"class.__gnu_cxx::__normal_iterator.46"* %45, i32 0, i32 0
  %61 = load %"class.std::tuple"*, %"class.std::tuple"** %60, align 8
  call void @_ZSt9push_heapIN9__gnu_cxx17__normal_iteratorIPSt5tupleIJdiEESt6vectorIS3_SaIS3_EEEESt7greaterIS3_EEvT_SB_T0_(%"class.std::tuple"* %59, %"class.std::tuple"* %61)
  br label %11
}

; Function Attrs: noinline uwtable
define linkonce_odr void @_ZNSt5tupleIJdiEEC2IiRKivEEOT_OT0_(%"class.std::tuple"*, i32* dereferenceable(4), i32* dereferenceable(4)) unnamed_addr #0 comdat align 2 {
  %4 = load i32, i32* @x.33
  %5 = load i32, i32* @y.34
  %6 = sub i32 %4, 1
  %7 = mul i32 %4, %6
  %8 = urem i32 %7, 2
  %9 = icmp eq i32 %8, 0
  %10 = icmp slt i32 %5, 10
  %11 = or i1 %9, %10
  br i1 %11, label %12, label %31

; <label>:12:                                     ; preds = %3, %31
  %13 = alloca %"class.std::tuple"*, align 8
  %14 = alloca i32*, align 8
  %15 = alloca i32*, align 8
  store %"class.std::tuple"* %0, %"class.std::tuple"** %13, align 8
  store i32* %1, i32** %14, align 8
  store i32* %2, i32** %15, align 8
  %16 = load %"class.std::tuple"*, %"class.std::tuple"** %13, align 8
  %17 = bitcast %"class.std::tuple"* %16 to %"struct.std::_Tuple_impl"*
  %18 = load i32*, i32** %14, align 8
  %19 = call dereferenceable(4) i32* @_ZSt7forwardIiEOT_RNSt16remove_referenceIS0_E4typeE(i32* dereferenceable(4) %18) #4
  %20 = load i32*, i32** %15, align 8
  %21 = call dereferenceable(4) i32* @_ZSt7forwardIRKiEOT_RNSt16remove_referenceIS2_E4typeE(i32* dereferenceable(4) %20) #4
  call void @_ZNSt11_Tuple_implILm0EJdiEEC2IiJRKiEvEEOT_DpOT0_(%"struct.std::_Tuple_impl"* %17, i32* dereferenceable(4) %19, i32* dereferenceable(4) %21)
  %22 = load i32, i32* @x.33
  %23 = load i32, i32* @y.34
  %24 = sub i32 %22, 1
  %25 = mul i32 %22, %24
  %26 = urem i32 %25, 2
  %27 = icmp eq i32 %26, 0
  %28 = icmp slt i32 %23, 10
  %29 = or i1 %27, %28
  br i1 %29, label %30, label %31

; <label>:30:                                     ; preds = %12
  ret void

; <label>:31:                                     ; preds = %12, %3
  %32 = alloca %"class.std::tuple"*, align 8
  %33 = alloca i32*, align 8
  %34 = alloca i32*, align 8
  store %"class.std::tuple"* %0, %"class.std::tuple"** %32, align 8
  store i32* %1, i32** %33, align 8
  store i32* %2, i32** %34, align 8
  %35 = load %"class.std::tuple"*, %"class.std::tuple"** %32, align 8
  %36 = bitcast %"class.std::tuple"* %35 to %"struct.std::_Tuple_impl"*
  %37 = load i32*, i32** %33, align 8
  %38 = call dereferenceable(4) i32* @_ZSt7forwardIiEOT_RNSt16remove_referenceIS0_E4typeE(i32* dereferenceable(4) %37) #4
  %39 = load i32*, i32** %34, align 8
  %40 = call dereferenceable(4) i32* @_ZSt7forwardIRKiEOT_RNSt16remove_referenceIS2_E4typeE(i32* dereferenceable(4) %39) #4
  call void @_ZNSt11_Tuple_implILm0EJdiEEC2IiJRKiEvEEOT_DpOT0_(%"struct.std::_Tuple_impl"* %36, i32* dereferenceable(4) %38, i32* dereferenceable(4) %40)
  br label %12
}

; Function Attrs: noinline nounwind uwtable
define linkonce_odr zeroext i1 @_ZNKSt14priority_queueISt5tupleIJdiEESt6vectorIS1_SaIS1_EESt7greaterIS1_EE5emptyEv(%"class.std::priority_queue"*) #1 comdat align 2 {
  %2 = alloca %"class.std::priority_queue"*, align 8
  store %"class.std::priority_queue"* %0, %"class.std::priority_queue"** %2, align 8
  %3 = load %"class.std::priority_queue"*, %"class.std::priority_queue"** %2, align 8
  %4 = getelementptr inbounds %"class.std::priority_queue", %"class.std::priority_queue"* %3, i32 0, i32 0
  %5 = call zeroext i1 @_ZNKSt6vectorISt5tupleIJdiEESaIS1_EE5emptyEv(%"class.std::vector.10"* %4) #4
  ret i1 %5
}

; Function Attrs: noinline nounwind uwtable
define linkonce_odr dereferenceable(8) double* @_ZSt3getILm0EJdiEERKNSt13tuple_elementIXT_ESt5tupleIJDpT0_EEE4typeERKS4_(%"class.std::tuple"* dereferenceable(16)) #1 comdat {
  %2 = alloca %"class.std::tuple"*, align 8
  store %"class.std::tuple"* %0, %"class.std::tuple"** %2, align 8
  %3 = load %"class.std::tuple"*, %"class.std::tuple"** %2, align 8
  %4 = bitcast %"class.std::tuple"* %3 to %"struct.std::_Tuple_impl"*
  %5 = call dereferenceable(8) double* @_ZSt12__get_helperILm0EdJiEERKT0_RKSt11_Tuple_implIXT_EJS0_DpT1_EE(%"struct.std::_Tuple_impl"* dereferenceable(16) %4) #4
  ret double* %5
}

; Function Attrs: noinline nounwind uwtable
define linkonce_odr dereferenceable(16) %"class.std::tuple"* @_ZNKSt14priority_queueISt5tupleIJdiEESt6vectorIS1_SaIS1_EESt7greaterIS1_EE3topEv(%"class.std::priority_queue"*) #1 comdat align 2 {
  %2 = alloca %"class.std::priority_queue"*, align 8
  store %"class.std::priority_queue"* %0, %"class.std::priority_queue"** %2, align 8
  %3 = load %"class.std::priority_queue"*, %"class.std::priority_queue"** %2, align 8
  %4 = getelementptr inbounds %"class.std::priority_queue", %"class.std::priority_queue"* %3, i32 0, i32 0
  %5 = call dereferenceable(16) %"class.std::tuple"* @_ZNKSt6vectorISt5tupleIJdiEESaIS1_EE5frontEv(%"class.std::vector.10"* %4) #4
  ret %"class.std::tuple"* %5
}

; Function Attrs: noinline nounwind uwtable
define linkonce_odr dereferenceable(4) i32* @_ZSt3getILm1EJdiEERKNSt13tuple_elementIXT_ESt5tupleIJDpT0_EEE4typeERKS4_(%"class.std::tuple"* dereferenceable(16)) #1 comdat {
  %2 = load i32, i32* @x.41
  %3 = load i32, i32* @y.42
  %4 = sub i32 %2, 1
  %5 = mul i32 %2, %4
  %6 = urem i32 %5, 2
  %7 = icmp eq i32 %6, 0
  %8 = icmp slt i32 %3, 10
  %9 = or i1 %7, %8
  br i1 %9, label %10, label %24

; <label>:10:                                     ; preds = %1, %24
  %11 = alloca %"class.std::tuple"*, align 8
  store %"class.std::tuple"* %0, %"class.std::tuple"** %11, align 8
  %12 = load %"class.std::tuple"*, %"class.std::tuple"** %11, align 8
  %13 = bitcast %"class.std::tuple"* %12 to %"struct.std::_Tuple_impl.15"*
  %14 = call dereferenceable(4) i32* @_ZSt12__get_helperILm1EiJEERKT0_RKSt11_Tuple_implIXT_EJS0_DpT1_EE(%"struct.std::_Tuple_impl.15"* dereferenceable(4) %13) #4
  %15 = load i32, i32* @x.41
  %16 = load i32, i32* @y.42
  %17 = sub i32 %15, 1
  %18 = mul i32 %15, %17
  %19 = urem i32 %18, 2
  %20 = icmp eq i32 %19, 0
  %21 = icmp slt i32 %16, 10
  %22 = or i1 %20, %21
  br i1 %22, label %23, label %24

; <label>:23:                                     ; preds = %10
  ret i32* %14

; <label>:24:                                     ; preds = %10, %1
  %25 = alloca %"class.std::tuple"*, align 8
  store %"class.std::tuple"* %0, %"class.std::tuple"** %25, align 8
  %26 = load %"class.std::tuple"*, %"class.std::tuple"** %25, align 8
  %27 = bitcast %"class.std::tuple"* %26 to %"struct.std::_Tuple_impl.15"*
  %28 = call dereferenceable(4) i32* @_ZSt12__get_helperILm1EiJEERKT0_RKSt11_Tuple_implIXT_EJS0_DpT1_EE(%"struct.std::_Tuple_impl.15"* dereferenceable(4) %27) #4
  br label %10
}

; Function Attrs: noinline uwtable
define linkonce_odr void @_ZNSt14priority_queueISt5tupleIJdiEESt6vectorIS1_SaIS1_EESt7greaterIS1_EE3popEv(%"class.std::priority_queue"*) #0 comdat align 2 {
  %2 = alloca %"class.std::priority_queue"*, align 8
  %3 = alloca %"class.__gnu_cxx::__normal_iterator.46", align 8
  %4 = alloca %"class.__gnu_cxx::__normal_iterator.46", align 8
  %5 = alloca %"struct.std::greater", align 1
  store %"class.std::priority_queue"* %0, %"class.std::priority_queue"** %2, align 8
  %6 = load %"class.std::priority_queue"*, %"class.std::priority_queue"** %2, align 8
  %7 = getelementptr inbounds %"class.std::priority_queue", %"class.std::priority_queue"* %6, i32 0, i32 0
  %8 = call %"class.std::tuple"* @_ZNSt6vectorISt5tupleIJdiEESaIS1_EE5beginEv(%"class.std::vector.10"* %7) #4
  %9 = getelementptr inbounds %"class.__gnu_cxx::__normal_iterator.46", %"class.__gnu_cxx::__normal_iterator.46"* %3, i32 0, i32 0
  store %"class.std::tuple"* %8, %"class.std::tuple"** %9, align 8
  %10 = getelementptr inbounds %"class.std::priority_queue", %"class.std::priority_queue"* %6, i32 0, i32 0
  %11 = call %"class.std::tuple"* @_ZNSt6vectorISt5tupleIJdiEESaIS1_EE3endEv(%"class.std::vector.10"* %10) #4
  %12 = getelementptr inbounds %"class.__gnu_cxx::__normal_iterator.46", %"class.__gnu_cxx::__normal_iterator.46"* %4, i32 0, i32 0
  store %"class.std::tuple"* %11, %"class.std::tuple"** %12, align 8
  %13 = getelementptr inbounds %"class.std::priority_queue", %"class.std::priority_queue"* %6, i32 0, i32 1
  %14 = getelementptr inbounds %"class.__gnu_cxx::__normal_iterator.46", %"class.__gnu_cxx::__normal_iterator.46"* %3, i32 0, i32 0
  %15 = load %"class.std::tuple"*, %"class.std::tuple"** %14, align 8
  %16 = getelementptr inbounds %"class.__gnu_cxx::__normal_iterator.46", %"class.__gnu_cxx::__normal_iterator.46"* %4, i32 0, i32 0
  %17 = load %"class.std::tuple"*, %"class.std::tuple"** %16, align 8
  call void @_ZSt8pop_heapIN9__gnu_cxx17__normal_iteratorIPSt5tupleIJdiEESt6vectorIS3_SaIS3_EEEESt7greaterIS3_EEvT_SB_T0_(%"class.std::tuple"* %15, %"class.std::tuple"* %17)
  %18 = getelementptr inbounds %"class.std::priority_queue", %"class.std::priority_queue"* %6, i32 0, i32 0
  call void @_ZNSt6vectorISt5tupleIJdiEESaIS1_EE8pop_backEv(%"class.std::vector.10"* %18) #4
  ret void
}

; Function Attrs: noinline nounwind uwtable
define linkonce_odr dereferenceable(4) i32* @_ZNSt6vectorIiSaIiEEixEm(%"class.std::vector.5"*, i64) #1 comdat align 2 {
  %3 = load i32, i32* @x.45
  %4 = load i32, i32* @y.46
  %5 = sub i32 %3, 1
  %6 = mul i32 %3, %5
  %7 = urem i32 %6, 2
  %8 = icmp eq i32 %7, 0
  %9 = icmp slt i32 %4, 10
  %10 = or i1 %8, %9
  br i1 %10, label %11, label %30

; <label>:11:                                     ; preds = %2, %30
  %12 = alloca %"class.std::vector.5"*, align 8
  %13 = alloca i64, align 8
  store %"class.std::vector.5"* %0, %"class.std::vector.5"** %12, align 8
  store i64 %1, i64* %13, align 8
  %14 = load %"class.std::vector.5"*, %"class.std::vector.5"** %12, align 8
  %15 = bitcast %"class.std::vector.5"* %14 to %"struct.std::_Vector_base.6"*
  %16 = getelementptr inbounds %"struct.std::_Vector_base.6", %"struct.std::_Vector_base.6"* %15, i32 0, i32 0
  %17 = getelementptr inbounds %"struct.std::_Vector_base<int, std::allocator<int> >::_Vector_impl", %"struct.std::_Vector_base<int, std::allocator<int> >::_Vector_impl"* %16, i32 0, i32 0
  %18 = load i32*, i32** %17, align 8
  %19 = load i64, i64* %13, align 8
  %20 = getelementptr inbounds i32, i32* %18, i64 %19
  %21 = load i32, i32* @x.45
  %22 = load i32, i32* @y.46
  %23 = sub i32 %21, 1
  %24 = mul i32 %21, %23
  %25 = urem i32 %24, 2
  %26 = icmp eq i32 %25, 0
  %27 = icmp slt i32 %22, 10
  %28 = or i1 %26, %27
  br i1 %28, label %29, label %30

; <label>:29:                                     ; preds = %11
  ret i32* %20

; <label>:30:                                     ; preds = %11, %2
  %31 = alloca %"class.std::vector.5"*, align 8
  %32 = alloca i64, align 8
  store %"class.std::vector.5"* %0, %"class.std::vector.5"** %31, align 8
  store i64 %1, i64* %32, align 8
  %33 = load %"class.std::vector.5"*, %"class.std::vector.5"** %31, align 8
  %34 = bitcast %"class.std::vector.5"* %33 to %"struct.std::_Vector_base.6"*
  %35 = getelementptr inbounds %"struct.std::_Vector_base.6", %"struct.std::_Vector_base.6"* %34, i32 0, i32 0
  %36 = getelementptr inbounds %"struct.std::_Vector_base<int, std::allocator<int> >::_Vector_impl", %"struct.std::_Vector_base<int, std::allocator<int> >::_Vector_impl"* %35, i32 0, i32 0
  %37 = load i32*, i32** %36, align 8
  %38 = load i64, i64* %32, align 8
  %39 = getelementptr inbounds i32, i32* %37, i64 %38
  br label %11
}

; Function Attrs: noinline nounwind uwtable
define linkonce_odr dereferenceable(24) %"class.std::vector.0"* @_ZNK5Graph4edgeEi(%class.Graph*, i32) #1 comdat align 2 {
  %3 = alloca %class.Graph*, align 8
  %4 = alloca i32, align 4
  store %class.Graph* %0, %class.Graph** %3, align 8
  store i32 %1, i32* %4, align 4
  %5 = load %class.Graph*, %class.Graph** %3, align 8
  %6 = getelementptr inbounds %class.Graph, %class.Graph* %5, i32 0, i32 1
  %7 = load i32, i32* %4, align 4
  %8 = sext i32 %7 to i64
  %9 = call dereferenceable(24) %"class.std::vector.0"* @_ZNKSt6vectorIS_I4EdgeSaIS0_EESaIS2_EEixEm(%"class.std::vector"* %6, i64 %8) #4
  ret %"class.std::vector.0"* %9
}

; Function Attrs: noinline nounwind uwtable
define linkonce_odr %class.Edge* @_ZNKSt6vectorI4EdgeSaIS0_EE5beginEv(%"class.std::vector.0"*) #1 comdat align 2 {
  %2 = alloca %"class.__gnu_cxx::__normal_iterator", align 8
  %3 = alloca %"class.std::vector.0"*, align 8
  %4 = alloca %class.Edge*, align 8
  store %"class.std::vector.0"* %0, %"class.std::vector.0"** %3, align 8
  %5 = load %"class.std::vector.0"*, %"class.std::vector.0"** %3, align 8
  %6 = bitcast %"class.std::vector.0"* %5 to %"struct.std::_Vector_base.1"*
  %7 = getelementptr inbounds %"struct.std::_Vector_base.1", %"struct.std::_Vector_base.1"* %6, i32 0, i32 0
  %8 = getelementptr inbounds %"struct.std::_Vector_base<Edge, std::allocator<Edge> >::_Vector_impl", %"struct.std::_Vector_base<Edge, std::allocator<Edge> >::_Vector_impl"* %7, i32 0, i32 0
  %9 = load %class.Edge*, %class.Edge** %8, align 8
  store %class.Edge* %9, %class.Edge** %4, align 8
  call void @_ZN9__gnu_cxx17__normal_iteratorIPK4EdgeSt6vectorIS1_SaIS1_EEEC2ERKS3_(%"class.__gnu_cxx::__normal_iterator"* %2, %class.Edge** dereferenceable(8) %4) #4
  %10 = getelementptr inbounds %"class.__gnu_cxx::__normal_iterator", %"class.__gnu_cxx::__normal_iterator"* %2, i32 0, i32 0
  %11 = load %class.Edge*, %class.Edge** %10, align 8
  ret %class.Edge* %11
}

; Function Attrs: noinline nounwind uwtable
define linkonce_odr %class.Edge* @_ZNKSt6vectorI4EdgeSaIS0_EE3endEv(%"class.std::vector.0"*) #1 comdat align 2 {
  %2 = load i32, i32* @x.51
  %3 = load i32, i32* @y.52
  %4 = sub i32 %2, 1
  %5 = mul i32 %2, %4
  %6 = urem i32 %5, 2
  %7 = icmp eq i32 %6, 0
  %8 = icmp slt i32 %3, 10
  %9 = or i1 %7, %8
  br i1 %9, label %10, label %30

; <label>:10:                                     ; preds = %1, %30
  %11 = alloca %"class.__gnu_cxx::__normal_iterator", align 8
  %12 = alloca %"class.std::vector.0"*, align 8
  %13 = alloca %class.Edge*, align 8
  store %"class.std::vector.0"* %0, %"class.std::vector.0"** %12, align 8
  %14 = load %"class.std::vector.0"*, %"class.std::vector.0"** %12, align 8
  %15 = bitcast %"class.std::vector.0"* %14 to %"struct.std::_Vector_base.1"*
  %16 = getelementptr inbounds %"struct.std::_Vector_base.1", %"struct.std::_Vector_base.1"* %15, i32 0, i32 0
  %17 = getelementptr inbounds %"struct.std::_Vector_base<Edge, std::allocator<Edge> >::_Vector_impl", %"struct.std::_Vector_base<Edge, std::allocator<Edge> >::_Vector_impl"* %16, i32 0, i32 1
  %18 = load %class.Edge*, %class.Edge** %17, align 8
  store %class.Edge* %18, %class.Edge** %13, align 8
  call void @_ZN9__gnu_cxx17__normal_iteratorIPK4EdgeSt6vectorIS1_SaIS1_EEEC2ERKS3_(%"class.__gnu_cxx::__normal_iterator"* %11, %class.Edge** dereferenceable(8) %13) #4
  %19 = getelementptr inbounds %"class.__gnu_cxx::__normal_iterator", %"class.__gnu_cxx::__normal_iterator"* %11, i32 0, i32 0
  %20 = load %class.Edge*, %class.Edge** %19, align 8
  %21 = load i32, i32* @x.51
  %22 = load i32, i32* @y.52
  %23 = sub i32 %21, 1
  %24 = mul i32 %21, %23
  %25 = urem i32 %24, 2
  %26 = icmp eq i32 %25, 0
  %27 = icmp slt i32 %22, 10
  %28 = or i1 %26, %27
  br i1 %28, label %29, label %30

; <label>:29:                                     ; preds = %10
  ret %class.Edge* %20

; <label>:30:                                     ; preds = %10, %1
  %31 = alloca %"class.__gnu_cxx::__normal_iterator", align 8
  %32 = alloca %"class.std::vector.0"*, align 8
  %33 = alloca %class.Edge*, align 8
  store %"class.std::vector.0"* %0, %"class.std::vector.0"** %32, align 8
  %34 = load %"class.std::vector.0"*, %"class.std::vector.0"** %32, align 8
  %35 = bitcast %"class.std::vector.0"* %34 to %"struct.std::_Vector_base.1"*
  %36 = getelementptr inbounds %"struct.std::_Vector_base.1", %"struct.std::_Vector_base.1"* %35, i32 0, i32 0
  %37 = getelementptr inbounds %"struct.std::_Vector_base<Edge, std::allocator<Edge> >::_Vector_impl", %"struct.std::_Vector_base<Edge, std::allocator<Edge> >::_Vector_impl"* %36, i32 0, i32 1
  %38 = load %class.Edge*, %class.Edge** %37, align 8
  store %class.Edge* %38, %class.Edge** %33, align 8
  call void @_ZN9__gnu_cxx17__normal_iteratorIPK4EdgeSt6vectorIS1_SaIS1_EEEC2ERKS3_(%"class.__gnu_cxx::__normal_iterator"* %31, %class.Edge** dereferenceable(8) %33) #4
  %39 = getelementptr inbounds %"class.__gnu_cxx::__normal_iterator", %"class.__gnu_cxx::__normal_iterator"* %31, i32 0, i32 0
  %40 = load %class.Edge*, %class.Edge** %39, align 8
  br label %10
}

; Function Attrs: noinline nounwind uwtable
define linkonce_odr zeroext i1 @_ZN9__gnu_cxxneIPK4EdgeSt6vectorIS1_SaIS1_EEEEbRKNS_17__normal_iteratorIT_T0_EESC_(%"class.__gnu_cxx::__normal_iterator"* dereferenceable(8), %"class.__gnu_cxx::__normal_iterator"* dereferenceable(8)) #1 comdat {
  %3 = alloca %"class.__gnu_cxx::__normal_iterator"*, align 8
  %4 = alloca %"class.__gnu_cxx::__normal_iterator"*, align 8
  store %"class.__gnu_cxx::__normal_iterator"* %0, %"class.__gnu_cxx::__normal_iterator"** %3, align 8
  store %"class.__gnu_cxx::__normal_iterator"* %1, %"class.__gnu_cxx::__normal_iterator"** %4, align 8
  %5 = load %"class.__gnu_cxx::__normal_iterator"*, %"class.__gnu_cxx::__normal_iterator"** %3, align 8
  %6 = call dereferenceable(8) %class.Edge** @_ZNK9__gnu_cxx17__normal_iteratorIPK4EdgeSt6vectorIS1_SaIS1_EEE4baseEv(%"class.__gnu_cxx::__normal_iterator"* %5) #4
  %7 = load %class.Edge*, %class.Edge** %6, align 8
  %8 = load %"class.__gnu_cxx::__normal_iterator"*, %"class.__gnu_cxx::__normal_iterator"** %4, align 8
  %9 = call dereferenceable(8) %class.Edge** @_ZNK9__gnu_cxx17__normal_iteratorIPK4EdgeSt6vectorIS1_SaIS1_EEE4baseEv(%"class.__gnu_cxx::__normal_iterator"* %8) #4
  %10 = load %class.Edge*, %class.Edge** %9, align 8
  %11 = icmp ne %class.Edge* %7, %10
  ret i1 %11
}

; Function Attrs: noinline nounwind uwtable
define linkonce_odr dereferenceable(16) %class.Edge* @_ZNK9__gnu_cxx17__normal_iteratorIPK4EdgeSt6vectorIS1_SaIS1_EEEdeEv(%"class.__gnu_cxx::__normal_iterator"*) #1 comdat align 2 {
  %2 = load i32, i32* @x.55
  %3 = load i32, i32* @y.56
  %4 = sub i32 %2, 1
  %5 = mul i32 %2, %4
  %6 = urem i32 %5, 2
  %7 = icmp eq i32 %6, 0
  %8 = icmp slt i32 %3, 10
  %9 = or i1 %7, %8
  br i1 %9, label %10, label %24

; <label>:10:                                     ; preds = %1, %24
  %11 = alloca %"class.__gnu_cxx::__normal_iterator"*, align 8
  store %"class.__gnu_cxx::__normal_iterator"* %0, %"class.__gnu_cxx::__normal_iterator"** %11, align 8
  %12 = load %"class.__gnu_cxx::__normal_iterator"*, %"class.__gnu_cxx::__normal_iterator"** %11, align 8
  %13 = getelementptr inbounds %"class.__gnu_cxx::__normal_iterator", %"class.__gnu_cxx::__normal_iterator"* %12, i32 0, i32 0
  %14 = load %class.Edge*, %class.Edge** %13, align 8
  %15 = load i32, i32* @x.55
  %16 = load i32, i32* @y.56
  %17 = sub i32 %15, 1
  %18 = mul i32 %15, %17
  %19 = urem i32 %18, 2
  %20 = icmp eq i32 %19, 0
  %21 = icmp slt i32 %16, 10
  %22 = or i1 %20, %21
  br i1 %22, label %23, label %24

; <label>:23:                                     ; preds = %10
  ret %class.Edge* %14

; <label>:24:                                     ; preds = %10, %1
  %25 = alloca %"class.__gnu_cxx::__normal_iterator"*, align 8
  store %"class.__gnu_cxx::__normal_iterator"* %0, %"class.__gnu_cxx::__normal_iterator"** %25, align 8
  %26 = load %"class.__gnu_cxx::__normal_iterator"*, %"class.__gnu_cxx::__normal_iterator"** %25, align 8
  %27 = getelementptr inbounds %"class.__gnu_cxx::__normal_iterator", %"class.__gnu_cxx::__normal_iterator"* %26, i32 0, i32 0
  %28 = load %class.Edge*, %class.Edge** %27, align 8
  br label %10
}

; Function Attrs: noinline nounwind uwtable
define linkonce_odr double @_ZNK4Edge6weightEv(%class.Edge*) #1 comdat align 2 {
  %2 = alloca %class.Edge*, align 8
  store %class.Edge* %0, %class.Edge** %2, align 8
  %3 = load %class.Edge*, %class.Edge** %2, align 8
  %4 = getelementptr inbounds %class.Edge, %class.Edge* %3, i32 0, i32 2
  %5 = load double, double* %4, align 8
  ret double %5
}

; Function Attrs: noinline nounwind uwtable
define linkonce_odr i32 @_ZNK4Edge2toEv(%class.Edge*) #1 comdat align 2 {
  %2 = alloca %class.Edge*, align 8
  store %class.Edge* %0, %class.Edge** %2, align 8
  %3 = load %class.Edge*, %class.Edge** %2, align 8
  %4 = getelementptr inbounds %class.Edge, %class.Edge* %3, i32 0, i32 1
  %5 = load i32, i32* %4, align 4
  ret i32 %5
}

; Function Attrs: noinline uwtable
define linkonce_odr void @_ZNSt5tupleIJdiEEC2IdivEEOT_OT0_(%"class.std::tuple"*, double* dereferenceable(8), i32* dereferenceable(4)) unnamed_addr #0 comdat align 2 {
  %4 = alloca %"class.std::tuple"*, align 8
  %5 = alloca double*, align 8
  %6 = alloca i32*, align 8
  store %"class.std::tuple"* %0, %"class.std::tuple"** %4, align 8
  store double* %1, double** %5, align 8
  store i32* %2, i32** %6, align 8
  %7 = load %"class.std::tuple"*, %"class.std::tuple"** %4, align 8
  %8 = bitcast %"class.std::tuple"* %7 to %"struct.std::_Tuple_impl"*
  %9 = load double*, double** %5, align 8
  %10 = call dereferenceable(8) double* @_ZSt7forwardIdEOT_RNSt16remove_referenceIS0_E4typeE(double* dereferenceable(8) %9) #4
  %11 = load i32*, i32** %6, align 8
  %12 = call dereferenceable(4) i32* @_ZSt7forwardIiEOT_RNSt16remove_referenceIS0_E4typeE(i32* dereferenceable(4) %11) #4
  call void @_ZNSt11_Tuple_implILm0EJdiEEC2IdJiEvEEOT_DpOT0_(%"struct.std::_Tuple_impl"* %8, double* dereferenceable(8) %10, i32* dereferenceable(4) %12)
  ret void
}

; Function Attrs: noinline nounwind uwtable
define linkonce_odr dereferenceable(8) %"class.__gnu_cxx::__normal_iterator"* @_ZN9__gnu_cxx17__normal_iteratorIPK4EdgeSt6vectorIS1_SaIS1_EEEppEv(%"class.__gnu_cxx::__normal_iterator"*) #1 comdat align 2 {
  %2 = load i32, i32* @x.63
  %3 = load i32, i32* @y.64
  %4 = sub i32 %2, 1
  %5 = mul i32 %2, %4
  %6 = urem i32 %5, 2
  %7 = icmp eq i32 %6, 0
  %8 = icmp slt i32 %3, 10
  %9 = or i1 %7, %8
  br i1 %9, label %10, label %25

; <label>:10:                                     ; preds = %1, %25
  %11 = alloca %"class.__gnu_cxx::__normal_iterator"*, align 8
  store %"class.__gnu_cxx::__normal_iterator"* %0, %"class.__gnu_cxx::__normal_iterator"** %11, align 8
  %12 = load %"class.__gnu_cxx::__normal_iterator"*, %"class.__gnu_cxx::__normal_iterator"** %11, align 8
  %13 = getelementptr inbounds %"class.__gnu_cxx::__normal_iterator", %"class.__gnu_cxx::__normal_iterator"* %12, i32 0, i32 0
  %14 = load %class.Edge*, %class.Edge** %13, align 8
  %15 = getelementptr inbounds %class.Edge, %class.Edge* %14, i32 1
  store %class.Edge* %15, %class.Edge** %13, align 8
  %16 = load i32, i32* @x.63
  %17 = load i32, i32* @y.64
  %18 = sub i32 %16, 1
  %19 = mul i32 %16, %18
  %20 = urem i32 %19, 2
  %21 = icmp eq i32 %20, 0
  %22 = icmp slt i32 %17, 10
  %23 = or i1 %21, %22
  br i1 %23, label %24, label %25

; <label>:24:                                     ; preds = %10
  ret %"class.__gnu_cxx::__normal_iterator"* %12

; <label>:25:                                     ; preds = %10, %1
  %26 = alloca %"class.__gnu_cxx::__normal_iterator"*, align 8
  store %"class.__gnu_cxx::__normal_iterator"* %0, %"class.__gnu_cxx::__normal_iterator"** %26, align 8
  %27 = load %"class.__gnu_cxx::__normal_iterator"*, %"class.__gnu_cxx::__normal_iterator"** %26, align 8
  %28 = getelementptr inbounds %"class.__gnu_cxx::__normal_iterator", %"class.__gnu_cxx::__normal_iterator"* %27, i32 0, i32 0
  %29 = load %class.Edge*, %class.Edge** %28, align 8
  %30 = getelementptr inbounds %class.Edge, %class.Edge* %29, i32 1
  store %class.Edge* %30, %class.Edge** %28, align 8
  br label %10
}

; Function Attrs: noinline nounwind uwtable
define linkonce_odr void @_ZNSt14priority_queueISt5tupleIJdiEESt6vectorIS1_SaIS1_EESt7greaterIS1_EED2Ev(%"class.std::priority_queue"*) unnamed_addr #1 comdat align 2 {
  %2 = load i32, i32* @x.65
  %3 = load i32, i32* @y.66
  %4 = sub i32 %2, 1
  %5 = mul i32 %2, %4
  %6 = urem i32 %5, 2
  %7 = icmp eq i32 %6, 0
  %8 = icmp slt i32 %3, 10
  %9 = or i1 %7, %8
  br i1 %9, label %10, label %23

; <label>:10:                                     ; preds = %1, %23
  %11 = alloca %"class.std::priority_queue"*, align 8
  store %"class.std::priority_queue"* %0, %"class.std::priority_queue"** %11, align 8
  %12 = load %"class.std::priority_queue"*, %"class.std::priority_queue"** %11, align 8
  %13 = getelementptr inbounds %"class.std::priority_queue", %"class.std::priority_queue"* %12, i32 0, i32 0
  call void @_ZNSt6vectorISt5tupleIJdiEESaIS1_EED2Ev(%"class.std::vector.10"* %13) #4
  %14 = load i32, i32* @x.65
  %15 = load i32, i32* @y.66
  %16 = sub i32 %14, 1
  %17 = mul i32 %14, %16
  %18 = urem i32 %17, 2
  %19 = icmp eq i32 %18, 0
  %20 = icmp slt i32 %15, 10
  %21 = or i1 %19, %20
  br i1 %21, label %22, label %23

; <label>:22:                                     ; preds = %10
  ret void

; <label>:23:                                     ; preds = %10, %1
  %24 = alloca %"class.std::priority_queue"*, align 8
  store %"class.std::priority_queue"* %0, %"class.std::priority_queue"** %24, align 8
  %25 = load %"class.std::priority_queue"*, %"class.std::priority_queue"** %24, align 8
  %26 = getelementptr inbounds %"class.std::priority_queue", %"class.std::priority_queue"* %25, i32 0, i32 0
  call void @_ZNSt6vectorISt5tupleIJdiEESaIS1_EED2Ev(%"class.std::vector.10"* %26) #4
  br label %10
}

; Function Attrs: noinline nounwind uwtable
define linkonce_odr void @_ZNSt6vectorIiSaIiEED2Ev(%"class.std::vector.5"*) unnamed_addr #1 comdat align 2 personality i8* bitcast (i32 (...)* @__gxx_personality_v0 to i8*) {
  %2 = alloca %"class.std::vector.5"*, align 8
  %3 = alloca i8*
  %4 = alloca i32
  store %"class.std::vector.5"* %0, %"class.std::vector.5"** %2, align 8
  %5 = load %"class.std::vector.5"*, %"class.std::vector.5"** %2, align 8
  %6 = bitcast %"class.std::vector.5"* %5 to %"struct.std::_Vector_base.6"*
  %7 = getelementptr inbounds %"struct.std::_Vector_base.6", %"struct.std::_Vector_base.6"* %6, i32 0, i32 0
  %8 = getelementptr inbounds %"struct.std::_Vector_base<int, std::allocator<int> >::_Vector_impl", %"struct.std::_Vector_base<int, std::allocator<int> >::_Vector_impl"* %7, i32 0, i32 0
  %9 = load i32*, i32** %8, align 8
  %10 = bitcast %"class.std::vector.5"* %5 to %"struct.std::_Vector_base.6"*
  %11 = getelementptr inbounds %"struct.std::_Vector_base.6", %"struct.std::_Vector_base.6"* %10, i32 0, i32 0
  %12 = getelementptr inbounds %"struct.std::_Vector_base<int, std::allocator<int> >::_Vector_impl", %"struct.std::_Vector_base<int, std::allocator<int> >::_Vector_impl"* %11, i32 0, i32 1
  %13 = load i32*, i32** %12, align 8
  %14 = bitcast %"class.std::vector.5"* %5 to %"struct.std::_Vector_base.6"*
  %15 = call dereferenceable(1) %"class.std::allocator.7"* @_ZNSt12_Vector_baseIiSaIiEE19_M_get_Tp_allocatorEv(%"struct.std::_Vector_base.6"* %14) #4
  invoke void @_ZSt8_DestroyIPiiEvT_S1_RSaIT0_E(i32* %9, i32* %13, %"class.std::allocator.7"* dereferenceable(1) %15)
          to label %16 unwind label %18

; <label>:16:                                     ; preds = %1
  %17 = bitcast %"class.std::vector.5"* %5 to %"struct.std::_Vector_base.6"*
  call void @_ZNSt12_Vector_baseIiSaIiEED2Ev(%"struct.std::_Vector_base.6"* %17) #4
  ret void

; <label>:18:                                     ; preds = %1
  %19 = landingpad { i8*, i32 }
          catch i8* null
  %20 = extractvalue { i8*, i32 } %19, 0
  store i8* %20, i8** %3, align 8
  %21 = extractvalue { i8*, i32 } %19, 1
  store i32 %21, i32* %4, align 4
  %22 = bitcast %"class.std::vector.5"* %5 to %"struct.std::_Vector_base.6"*
  call void @_ZNSt12_Vector_baseIiSaIiEED2Ev(%"struct.std::_Vector_base.6"* %22) #4
  br label %23

; <label>:23:                                     ; preds = %18
  %24 = load i8*, i8** %3, align 8
  call void @__clang_call_terminate(i8* %24) #8
  unreachable
}

; Function Attrs: noinline uwtable
define double @_ZNK5Graph11BellmanFordEii(%class.Graph*, i32, i32) #0 align 2 personality i8* bitcast (i32 (...)* @__gxx_personality_v0 to i8*) {
  %4 = alloca double, align 8
  %5 = alloca %class.Graph*, align 8
  %6 = alloca i32, align 4
  %7 = alloca i32, align 4
  %8 = alloca %"class.std::vector.17", align 8
  %9 = alloca %"class.std::allocator.19", align 1
  %10 = alloca i8*
  %11 = alloca i32
  %12 = alloca i32, align 4
  %13 = alloca i32, align 4
  %14 = alloca %"class.std::vector.0"*, align 8
  %15 = alloca %"class.__gnu_cxx::__normal_iterator", align 8
  %16 = alloca %"class.__gnu_cxx::__normal_iterator", align 8
  %17 = alloca %class.Edge*, align 8
  %18 = alloca i32
  store %class.Graph* %0, %class.Graph** %5, align 8
  store i32 %1, i32* %6, align 4
  store i32 %2, i32* %7, align 4
  %19 = load %class.Graph*, %class.Graph** %5, align 8
  %20 = call i32 @_ZNK5Graph4sizeEv(%class.Graph* %19)
  %21 = sext i32 %20 to i64
  call void @_ZNSaIdEC2Ev(%"class.std::allocator.19"* %9) #4
  invoke void @_ZNSt6vectorIdSaIdEEC2EmRKdRKS0_(%"class.std::vector.17"* %8, i64 %21, double* dereferenceable(8) @_ZL3INF, %"class.std::allocator.19"* dereferenceable(1) %9)
          to label %22 unwind label %85

; <label>:22:                                     ; preds = %3
  call void @_ZNSaIdED2Ev(%"class.std::allocator.19"* %9) #4
  %23 = load i32, i32* %6, align 4
  %24 = sext i32 %23 to i64
  %25 = call dereferenceable(8) double* @_ZNSt6vectorIdSaIdEEixEm(%"class.std::vector.17"* %8, i64 %24) #4
  store double 0.000000e+00, double* %25, align 8
  store i32 0, i32* %12, align 4
  br label %26

; <label>:26:                                     ; preds = %192, %22
  %27 = load i32, i32* %12, align 4
  %28 = invoke i32 @_ZNK5Graph4sizeEv(%class.Graph* %19)
          to label %29 unwind label %107

; <label>:29:                                     ; preds = %26
  %30 = icmp sle i32 %27, %28
  br i1 %30, label %31, label %195

; <label>:31:                                     ; preds = %29
  store i32 0, i32* %13, align 4
  br label %32

; <label>:32:                                     ; preds = %188, %31
  %33 = load i32, i32* %13, align 4
  %34 = invoke i32 @_ZNK5Graph4sizeEv(%class.Graph* %19)
          to label %35 unwind label %107

; <label>:35:                                     ; preds = %32
  %36 = load i32, i32* @x.69
  %37 = load i32, i32* @y.70
  %38 = sub i32 %36, 1
  %39 = mul i32 %36, %38
  %40 = urem i32 %39, 2
  %41 = icmp eq i32 %40, 0
  %42 = icmp slt i32 %37, 10
  %43 = or i1 %41, %42
  br i1 %43, label %44, label %243

; <label>:44:                                     ; preds = %35, %243
  %45 = icmp slt i32 %33, %34
  %46 = load i32, i32* @x.69
  %47 = load i32, i32* @y.70
  %48 = sub i32 %46, 1
  %49 = mul i32 %46, %48
  %50 = urem i32 %49, 2
  %51 = icmp eq i32 %50, 0
  %52 = icmp slt i32 %47, 10
  %53 = or i1 %51, %52
  br i1 %53, label %54, label %243

; <label>:54:                                     ; preds = %44
  br i1 %45, label %55, label %191

; <label>:55:                                     ; preds = %54
  %56 = load i32, i32* %13, align 4
  %57 = invoke dereferenceable(24) %"class.std::vector.0"* @_ZNK5Graph4edgeEi(%class.Graph* %19, i32 %56)
          to label %58 unwind label %107

; <label>:58:                                     ; preds = %55
  store %"class.std::vector.0"* %57, %"class.std::vector.0"** %14, align 8
  %59 = load %"class.std::vector.0"*, %"class.std::vector.0"** %14, align 8
  %60 = call %class.Edge* @_ZNKSt6vectorI4EdgeSaIS0_EE5beginEv(%"class.std::vector.0"* %59) #4
  %61 = getelementptr inbounds %"class.__gnu_cxx::__normal_iterator", %"class.__gnu_cxx::__normal_iterator"* %15, i32 0, i32 0
  store %class.Edge* %60, %class.Edge** %61, align 8
  %62 = load %"class.std::vector.0"*, %"class.std::vector.0"** %14, align 8
  %63 = call %class.Edge* @_ZNKSt6vectorI4EdgeSaIS0_EE3endEv(%"class.std::vector.0"* %62) #4
  %64 = getelementptr inbounds %"class.__gnu_cxx::__normal_iterator", %"class.__gnu_cxx::__normal_iterator"* %16, i32 0, i32 0
  store %class.Edge* %63, %class.Edge** %64, align 8
  br label %65

; <label>:65:                                     ; preds = %167, %58
  %66 = call zeroext i1 @_ZN9__gnu_cxxneIPK4EdgeSt6vectorIS1_SaIS1_EEEEbRKNS_17__normal_iteratorIT_T0_EESC_(%"class.__gnu_cxx::__normal_iterator"* dereferenceable(8) %15, %"class.__gnu_cxx::__normal_iterator"* dereferenceable(8) %16) #4
  br i1 %66, label %67, label %169

; <label>:67:                                     ; preds = %65
  %68 = call dereferenceable(16) %class.Edge* @_ZNK9__gnu_cxx17__normal_iteratorIPK4EdgeSt6vectorIS1_SaIS1_EEEdeEv(%"class.__gnu_cxx::__normal_iterator"* %15) #4
  store %class.Edge* %68, %class.Edge** %17, align 8
  %69 = load i32, i32* %13, align 4
  %70 = sext i32 %69 to i64
  %71 = call dereferenceable(8) double* @_ZNSt6vectorIdSaIdEEixEm(%"class.std::vector.17"* %8, i64 %70) #4
  %72 = load double, double* %71, align 8
  %73 = load %class.Edge*, %class.Edge** %17, align 8
  %74 = invoke double @_ZNK4Edge6weightEv(%class.Edge* %73)
          to label %75 unwind label %107

; <label>:75:                                     ; preds = %67
  %76 = fadd double %72, %74
  %77 = load %class.Edge*, %class.Edge** %17, align 8
  %78 = invoke i32 @_ZNK4Edge2toEv(%class.Edge* %77)
          to label %79 unwind label %107

; <label>:79:                                     ; preds = %75
  %80 = sext i32 %78 to i64
  %81 = call dereferenceable(8) double* @_ZNSt6vectorIdSaIdEEixEm(%"class.std::vector.17"* %8, i64 %80) #4
  %82 = load double, double* %81, align 8
  %83 = fcmp oge double %76, %82
  br i1 %83, label %84, label %111

; <label>:84:                                     ; preds = %79
  br label %167

; <label>:85:                                     ; preds = %3
  %86 = load i32, i32* @x.69
  %87 = load i32, i32* @y.70
  %88 = sub i32 %86, 1
  %89 = mul i32 %86, %88
  %90 = urem i32 %89, 2
  %91 = icmp eq i32 %90, 0
  %92 = icmp slt i32 %87, 10
  %93 = or i1 %91, %92
  br i1 %93, label %94, label %245

; <label>:94:                                     ; preds = %85, %245
  %95 = landingpad { i8*, i32 }
          cleanup
  %96 = extractvalue { i8*, i32 } %95, 0
  store i8* %96, i8** %10, align 8
  %97 = extractvalue { i8*, i32 } %95, 1
  store i32 %97, i32* %11, align 4
  call void @_ZNSaIdED2Ev(%"class.std::allocator.19"* %9) #4
  %98 = load i32, i32* @x.69
  %99 = load i32, i32* @y.70
  %100 = sub i32 %98, 1
  %101 = mul i32 %98, %100
  %102 = urem i32 %101, 2
  %103 = icmp eq i32 %102, 0
  %104 = icmp slt i32 %99, 10
  %105 = or i1 %103, %104
  br i1 %105, label %106, label %245

; <label>:106:                                    ; preds = %94
  br label %238

; <label>:107:                                    ; preds = %162, %135, %130, %75, %67, %55, %32, %26
  %108 = landingpad { i8*, i32 }
          cleanup
  %109 = extractvalue { i8*, i32 } %108, 0
  store i8* %109, i8** %10, align 8
  %110 = extractvalue { i8*, i32 } %108, 1
  store i32 %110, i32* %11, align 4
  call void @_ZNSt6vectorIdSaIdEED2Ev(%"class.std::vector.17"* %8) #4
  br label %238

; <label>:111:                                    ; preds = %79
  %112 = load i32, i32* @x.69
  %113 = load i32, i32* @y.70
  %114 = sub i32 %112, 1
  %115 = mul i32 %112, %114
  %116 = urem i32 %115, 2
  %117 = icmp eq i32 %116, 0
  %118 = icmp slt i32 %113, 10
  %119 = or i1 %117, %118
  br i1 %119, label %120, label %249

; <label>:120:                                    ; preds = %111, %249
  %121 = load i32, i32* %12, align 4
  %122 = load i32, i32* @x.69
  %123 = load i32, i32* @y.70
  %124 = sub i32 %122, 1
  %125 = mul i32 %122, %124
  %126 = urem i32 %125, 2
  %127 = icmp eq i32 %126, 0
  %128 = icmp slt i32 %123, 10
  %129 = or i1 %127, %128
  br i1 %129, label %130, label %249

; <label>:130:                                    ; preds = %120
  %131 = invoke i32 @_ZNK5Graph4sizeEv(%class.Graph* %19)
          to label %132 unwind label %107

; <label>:132:                                    ; preds = %130
  %133 = icmp eq i32 %121, %131
  br i1 %133, label %134, label %135

; <label>:134:                                    ; preds = %132
  store double 0x7FD5555555555555, double* %4, align 8
  store i32 1, i32* %18, align 4
  br label %218

; <label>:135:                                    ; preds = %132
  %136 = load i32, i32* %13, align 4
  %137 = sext i32 %136 to i64
  %138 = call dereferenceable(8) double* @_ZNSt6vectorIdSaIdEEixEm(%"class.std::vector.17"* %8, i64 %137) #4
  %139 = load double, double* %138, align 8
  %140 = load %class.Edge*, %class.Edge** %17, align 8
  %141 = invoke double @_ZNK4Edge6weightEv(%class.Edge* %140)
          to label %142 unwind label %107

; <label>:142:                                    ; preds = %135
  %143 = load i32, i32* @x.69
  %144 = load i32, i32* @y.70
  %145 = sub i32 %143, 1
  %146 = mul i32 %143, %145
  %147 = urem i32 %146, 2
  %148 = icmp eq i32 %147, 0
  %149 = icmp slt i32 %144, 10
  %150 = or i1 %148, %149
  br i1 %150, label %151, label %251

; <label>:151:                                    ; preds = %142, %251
  %152 = fadd double %139, %141
  %153 = load %class.Edge*, %class.Edge** %17, align 8
  %154 = load i32, i32* @x.69
  %155 = load i32, i32* @y.70
  %156 = sub i32 %154, 1
  %157 = mul i32 %154, %156
  %158 = urem i32 %157, 2
  %159 = icmp eq i32 %158, 0
  %160 = icmp slt i32 %155, 10
  %161 = or i1 %159, %160
  br i1 %161, label %162, label %251

; <label>:162:                                    ; preds = %151
  %163 = invoke i32 @_ZNK4Edge2toEv(%class.Edge* %153)
          to label %164 unwind label %107

; <label>:164:                                    ; preds = %162
  %165 = sext i32 %163 to i64
  %166 = call dereferenceable(8) double* @_ZNSt6vectorIdSaIdEEixEm(%"class.std::vector.17"* %8, i64 %165) #4
  store double %152, double* %166, align 8
  br label %167

; <label>:167:                                    ; preds = %164, %84
  %168 = call dereferenceable(8) %"class.__gnu_cxx::__normal_iterator"* @_ZN9__gnu_cxx17__normal_iteratorIPK4EdgeSt6vectorIS1_SaIS1_EEEppEv(%"class.__gnu_cxx::__normal_iterator"* %15) #4
  br label %65

; <label>:169:                                    ; preds = %65
  %170 = load i32, i32* @x.69
  %171 = load i32, i32* @y.70
  %172 = sub i32 %170, 1
  %173 = mul i32 %170, %172
  %174 = urem i32 %173, 2
  %175 = icmp eq i32 %174, 0
  %176 = icmp slt i32 %171, 10
  %177 = or i1 %175, %176
  br i1 %177, label %178, label %264

; <label>:178:                                    ; preds = %169, %264
  %179 = load i32, i32* @x.69
  %180 = load i32, i32* @y.70
  %181 = sub i32 %179, 1
  %182 = mul i32 %179, %181
  %183 = urem i32 %182, 2
  %184 = icmp eq i32 %183, 0
  %185 = icmp slt i32 %180, 10
  %186 = or i1 %184, %185
  br i1 %186, label %187, label %264

; <label>:187:                                    ; preds = %178
  br label %188

; <label>:188:                                    ; preds = %187
  %189 = load i32, i32* %13, align 4
  %190 = add nsw i32 %189, 1
  store i32 %190, i32* %13, align 4
  br label %32

; <label>:191:                                    ; preds = %54
  br label %192

; <label>:192:                                    ; preds = %191
  %193 = load i32, i32* %12, align 4
  %194 = add nsw i32 %193, 1
  store i32 %194, i32* %12, align 4
  br label %26

; <label>:195:                                    ; preds = %29
  %196 = load i32, i32* @x.69
  %197 = load i32, i32* @y.70
  %198 = sub i32 %196, 1
  %199 = mul i32 %196, %198
  %200 = urem i32 %199, 2
  %201 = icmp eq i32 %200, 0
  %202 = icmp slt i32 %197, 10
  %203 = or i1 %201, %202
  br i1 %203, label %204, label %265

; <label>:204:                                    ; preds = %195, %265
  %205 = load i32, i32* %7, align 4
  %206 = sext i32 %205 to i64
  %207 = call dereferenceable(8) double* @_ZNSt6vectorIdSaIdEEixEm(%"class.std::vector.17"* %8, i64 %206) #4
  %208 = load double, double* %207, align 8
  store double %208, double* %4, align 8
  store i32 1, i32* %18, align 4
  %209 = load i32, i32* @x.69
  %210 = load i32, i32* @y.70
  %211 = sub i32 %209, 1
  %212 = mul i32 %209, %211
  %213 = urem i32 %212, 2
  %214 = icmp eq i32 %213, 0
  %215 = icmp slt i32 %210, 10
  %216 = or i1 %214, %215
  br i1 %216, label %217, label %265

; <label>:217:                                    ; preds = %204
  br label %218

; <label>:218:                                    ; preds = %217, %134
  %219 = load i32, i32* @x.69
  %220 = load i32, i32* @y.70
  %221 = sub i32 %219, 1
  %222 = mul i32 %219, %221
  %223 = urem i32 %222, 2
  %224 = icmp eq i32 %223, 0
  %225 = icmp slt i32 %220, 10
  %226 = or i1 %224, %225
  br i1 %226, label %227, label %270

; <label>:227:                                    ; preds = %218, %270
  call void @_ZNSt6vectorIdSaIdEED2Ev(%"class.std::vector.17"* %8) #4
  %228 = load double, double* %4, align 8
  %229 = load i32, i32* @x.69
  %230 = load i32, i32* @y.70
  %231 = sub i32 %229, 1
  %232 = mul i32 %229, %231
  %233 = urem i32 %232, 2
  %234 = icmp eq i32 %233, 0
  %235 = icmp slt i32 %230, 10
  %236 = or i1 %234, %235
  br i1 %236, label %237, label %270

; <label>:237:                                    ; preds = %227
  ret double %228

; <label>:238:                                    ; preds = %107, %106
  %239 = load i8*, i8** %10, align 8
  %240 = load i32, i32* %11, align 4
  %241 = insertvalue { i8*, i32 } undef, i8* %239, 0
  %242 = insertvalue { i8*, i32 } %241, i32 %240, 1
  resume { i8*, i32 } %242

; <label>:243:                                    ; preds = %44, %35
  %244 = icmp slt i32 %33, %34
  br label %44

; <label>:245:                                    ; preds = %94, %85
  %246 = landingpad { i8*, i32 }
          cleanup
  %247 = extractvalue { i8*, i32 } %246, 0
  store i8* %247, i8** %10, align 8
  %248 = extractvalue { i8*, i32 } %246, 1
  store i32 %248, i32* %11, align 4
  call void @_ZNSaIdED2Ev(%"class.std::allocator.19"* %9) #4
  br label %94

; <label>:249:                                    ; preds = %120, %111
  %250 = load i32, i32* %12, align 4
  br label %120

; <label>:251:                                    ; preds = %151, %142
  %252 = fsub double %139, %141
  %253 = fmul double %252, %141
  %254 = fsub double -0.000000e+00, %139
  %255 = fadd double %254, %141
  %256 = fsub double -0.000000e+00, %139
  %257 = fadd double %256, %141
  %258 = fsub double %139, %141
  %259 = fmul double %258, %141
  %260 = fsub double -0.000000e+00, %139
  %261 = fadd double %260, %141
  %262 = fadd double %139, %141
  %263 = load %class.Edge*, %class.Edge** %17, align 8
  br label %151

; <label>:264:                                    ; preds = %178, %169
  br label %178

; <label>:265:                                    ; preds = %204, %195
  %266 = load i32, i32* %7, align 4
  %267 = sext i32 %266 to i64
  %268 = call dereferenceable(8) double* @_ZNSt6vectorIdSaIdEEixEm(%"class.std::vector.17"* %8, i64 %267) #4
  %269 = load double, double* %268, align 8
  store double %269, double* %4, align 8
  store i32 1, i32* %18, align 4
  br label %204

; <label>:270:                                    ; preds = %227, %218
  call void @_ZNSt6vectorIdSaIdEED2Ev(%"class.std::vector.17"* %8) #4
  %271 = load double, double* %4, align 8
  br label %227
}

; Function Attrs: noinline nounwind uwtable
define linkonce_odr void @_ZNSaIdEC2Ev(%"class.std::allocator.19"*) unnamed_addr #1 comdat align 2 {
  %2 = alloca %"class.std::allocator.19"*, align 8
  store %"class.std::allocator.19"* %0, %"class.std::allocator.19"** %2, align 8
  %3 = load %"class.std::allocator.19"*, %"class.std::allocator.19"** %2, align 8
  %4 = bitcast %"class.std::allocator.19"* %3 to %"class.__gnu_cxx::new_allocator.20"*
  call void @_ZN9__gnu_cxx13new_allocatorIdEC2Ev(%"class.__gnu_cxx::new_allocator.20"* %4) #4
  ret void
}

; Function Attrs: noinline uwtable
define linkonce_odr void @_ZNSt6vectorIdSaIdEEC2EmRKdRKS0_(%"class.std::vector.17"*, i64, double* dereferenceable(8), %"class.std::allocator.19"* dereferenceable(1)) unnamed_addr #0 comdat align 2 personality i8* bitcast (i32 (...)* @__gxx_personality_v0 to i8*) {
  %5 = load i32, i32* @x.73
  %6 = load i32, i32* @y.74
  %7 = sub i32 %5, 1
  %8 = mul i32 %5, %7
  %9 = urem i32 %8, 2
  %10 = icmp eq i32 %9, 0
  %11 = icmp slt i32 %6, 10
  %12 = or i1 %10, %11
  br i1 %12, label %13, label %82

; <label>:13:                                     ; preds = %4, %82
  %14 = alloca %"class.std::vector.17"*, align 8
  %15 = alloca i64, align 8
  %16 = alloca double*, align 8
  %17 = alloca %"class.std::allocator.19"*, align 8
  %18 = alloca i8*
  %19 = alloca i32
  store %"class.std::vector.17"* %0, %"class.std::vector.17"** %14, align 8
  store i64 %1, i64* %15, align 8
  store double* %2, double** %16, align 8
  store %"class.std::allocator.19"* %3, %"class.std::allocator.19"** %17, align 8
  %20 = load %"class.std::vector.17"*, %"class.std::vector.17"** %14, align 8
  %21 = bitcast %"class.std::vector.17"* %20 to %"struct.std::_Vector_base.18"*
  %22 = load i64, i64* %15, align 8
  %23 = load %"class.std::allocator.19"*, %"class.std::allocator.19"** %17, align 8
  call void @_ZNSt12_Vector_baseIdSaIdEEC2EmRKS0_(%"struct.std::_Vector_base.18"* %21, i64 %22, %"class.std::allocator.19"* dereferenceable(1) %23)
  %24 = load i64, i64* %15, align 8
  %25 = load double*, double** %16, align 8
  %26 = load i32, i32* @x.73
  %27 = load i32, i32* @y.74
  %28 = sub i32 %26, 1
  %29 = mul i32 %26, %28
  %30 = urem i32 %29, 2
  %31 = icmp eq i32 %30, 0
  %32 = icmp slt i32 %27, 10
  %33 = or i1 %31, %32
  br i1 %33, label %34, label %82

; <label>:34:                                     ; preds = %13
  invoke void @_ZNSt6vectorIdSaIdEE18_M_fill_initializeEmRKd(%"class.std::vector.17"* %20, i64 %24, double* dereferenceable(8) %25)
          to label %35 unwind label %54

; <label>:35:                                     ; preds = %34
  %36 = load i32, i32* @x.73
  %37 = load i32, i32* @y.74
  %38 = sub i32 %36, 1
  %39 = mul i32 %36, %38
  %40 = urem i32 %39, 2
  %41 = icmp eq i32 %40, 0
  %42 = icmp slt i32 %37, 10
  %43 = or i1 %41, %42
  br i1 %43, label %44, label %95

; <label>:44:                                     ; preds = %35, %95
  %45 = load i32, i32* @x.73
  %46 = load i32, i32* @y.74
  %47 = sub i32 %45, 1
  %48 = mul i32 %45, %47
  %49 = urem i32 %48, 2
  %50 = icmp eq i32 %49, 0
  %51 = icmp slt i32 %46, 10
  %52 = or i1 %50, %51
  br i1 %52, label %53, label %95

; <label>:53:                                     ; preds = %44
  ret void

; <label>:54:                                     ; preds = %34
  %55 = load i32, i32* @x.73
  %56 = load i32, i32* @y.74
  %57 = sub i32 %55, 1
  %58 = mul i32 %55, %57
  %59 = urem i32 %58, 2
  %60 = icmp eq i32 %59, 0
  %61 = icmp slt i32 %56, 10
  %62 = or i1 %60, %61
  br i1 %62, label %63, label %96

; <label>:63:                                     ; preds = %54, %96
  %64 = landingpad { i8*, i32 }
          cleanup
  %65 = extractvalue { i8*, i32 } %64, 0
  store i8* %65, i8** %18, align 8
  %66 = extractvalue { i8*, i32 } %64, 1
  store i32 %66, i32* %19, align 4
  %67 = bitcast %"class.std::vector.17"* %20 to %"struct.std::_Vector_base.18"*
  call void @_ZNSt12_Vector_baseIdSaIdEED2Ev(%"struct.std::_Vector_base.18"* %67) #4
  %68 = load i32, i32* @x.73
  %69 = load i32, i32* @y.74
  %70 = sub i32 %68, 1
  %71 = mul i32 %68, %70
  %72 = urem i32 %71, 2
  %73 = icmp eq i32 %72, 0
  %74 = icmp slt i32 %69, 10
  %75 = or i1 %73, %74
  br i1 %75, label %76, label %96

; <label>:76:                                     ; preds = %63
  br label %77

; <label>:77:                                     ; preds = %76
  %78 = load i8*, i8** %18, align 8
  %79 = load i32, i32* %19, align 4
  %80 = insertvalue { i8*, i32 } undef, i8* %78, 0
  %81 = insertvalue { i8*, i32 } %80, i32 %79, 1
  resume { i8*, i32 } %81

; <label>:82:                                     ; preds = %13, %4
  %83 = alloca %"class.std::vector.17"*, align 8
  %84 = alloca i64, align 8
  %85 = alloca double*, align 8
  %86 = alloca %"class.std::allocator.19"*, align 8
  %87 = alloca i8*
  %88 = alloca i32
  store %"class.std::vector.17"* %0, %"class.std::vector.17"** %83, align 8
  store i64 %1, i64* %84, align 8
  store double* %2, double** %85, align 8
  store %"class.std::allocator.19"* %3, %"class.std::allocator.19"** %86, align 8
  %89 = load %"class.std::vector.17"*, %"class.std::vector.17"** %83, align 8
  %90 = bitcast %"class.std::vector.17"* %89 to %"struct.std::_Vector_base.18"*
  %91 = load i64, i64* %84, align 8
  %92 = load %"class.std::allocator.19"*, %"class.std::allocator.19"** %86, align 8
  call void @_ZNSt12_Vector_baseIdSaIdEEC2EmRKS0_(%"struct.std::_Vector_base.18"* %90, i64 %91, %"class.std::allocator.19"* dereferenceable(1) %92)
  %93 = load i64, i64* %84, align 8
  %94 = load double*, double** %85, align 8
  br label %13

; <label>:95:                                     ; preds = %44, %35
  br label %44

; <label>:96:                                     ; preds = %63, %54
  %97 = landingpad { i8*, i32 }
          cleanup
  %98 = extractvalue { i8*, i32 } %97, 0
  store i8* %98, i8** %18, align 8
  %99 = extractvalue { i8*, i32 } %97, 1
  store i32 %99, i32* %19, align 4
  %100 = bitcast %"class.std::vector.17"* %20 to %"struct.std::_Vector_base.18"*
  call void @_ZNSt12_Vector_baseIdSaIdEED2Ev(%"struct.std::_Vector_base.18"* %100) #4
  br label %63
}

; Function Attrs: noinline nounwind uwtable
define linkonce_odr void @_ZNSaIdED2Ev(%"class.std::allocator.19"*) unnamed_addr #1 comdat align 2 {
  %2 = alloca %"class.std::allocator.19"*, align 8
  store %"class.std::allocator.19"* %0, %"class.std::allocator.19"** %2, align 8
  %3 = load %"class.std::allocator.19"*, %"class.std::allocator.19"** %2, align 8
  %4 = bitcast %"class.std::allocator.19"* %3 to %"class.__gnu_cxx::new_allocator.20"*
  call void @_ZN9__gnu_cxx13new_allocatorIdED2Ev(%"class.__gnu_cxx::new_allocator.20"* %4) #4
  ret void
}

; Function Attrs: noinline nounwind uwtable
define linkonce_odr dereferenceable(8) double* @_ZNSt6vectorIdSaIdEEixEm(%"class.std::vector.17"*, i64) #1 comdat align 2 {
  %3 = alloca %"class.std::vector.17"*, align 8
  %4 = alloca i64, align 8
  store %"class.std::vector.17"* %0, %"class.std::vector.17"** %3, align 8
  store i64 %1, i64* %4, align 8
  %5 = load %"class.std::vector.17"*, %"class.std::vector.17"** %3, align 8
  %6 = bitcast %"class.std::vector.17"* %5 to %"struct.std::_Vector_base.18"*
  %7 = getelementptr inbounds %"struct.std::_Vector_base.18", %"struct.std::_Vector_base.18"* %6, i32 0, i32 0
  %8 = getelementptr inbounds %"struct.std::_Vector_base<double, std::allocator<double> >::_Vector_impl", %"struct.std::_Vector_base<double, std::allocator<double> >::_Vector_impl"* %7, i32 0, i32 0
  %9 = load double*, double** %8, align 8
  %10 = load i64, i64* %4, align 8
  %11 = getelementptr inbounds double, double* %9, i64 %10
  ret double* %11
}

; Function Attrs: noinline nounwind uwtable
define linkonce_odr void @_ZNSt6vectorIdSaIdEED2Ev(%"class.std::vector.17"*) unnamed_addr #1 comdat align 2 personality i8* bitcast (i32 (...)* @__gxx_personality_v0 to i8*) {
  %2 = load i32, i32* @x.79
  %3 = load i32, i32* @y.80
  %4 = sub i32 %2, 1
  %5 = mul i32 %2, %4
  %6 = urem i32 %5, 2
  %7 = icmp eq i32 %6, 0
  %8 = icmp slt i32 %3, 10
  %9 = or i1 %7, %8
  br i1 %9, label %10, label %43

; <label>:10:                                     ; preds = %1, %43
  %11 = alloca %"class.std::vector.17"*, align 8
  %12 = alloca i8*
  %13 = alloca i32
  store %"class.std::vector.17"* %0, %"class.std::vector.17"** %11, align 8
  %14 = load %"class.std::vector.17"*, %"class.std::vector.17"** %11, align 8
  %15 = bitcast %"class.std::vector.17"* %14 to %"struct.std::_Vector_base.18"*
  %16 = getelementptr inbounds %"struct.std::_Vector_base.18", %"struct.std::_Vector_base.18"* %15, i32 0, i32 0
  %17 = getelementptr inbounds %"struct.std::_Vector_base<double, std::allocator<double> >::_Vector_impl", %"struct.std::_Vector_base<double, std::allocator<double> >::_Vector_impl"* %16, i32 0, i32 0
  %18 = load double*, double** %17, align 8
  %19 = bitcast %"class.std::vector.17"* %14 to %"struct.std::_Vector_base.18"*
  %20 = getelementptr inbounds %"struct.std::_Vector_base.18", %"struct.std::_Vector_base.18"* %19, i32 0, i32 0
  %21 = getelementptr inbounds %"struct.std::_Vector_base<double, std::allocator<double> >::_Vector_impl", %"struct.std::_Vector_base<double, std::allocator<double> >::_Vector_impl"* %20, i32 0, i32 1
  %22 = load double*, double** %21, align 8
  %23 = bitcast %"class.std::vector.17"* %14 to %"struct.std::_Vector_base.18"*
  %24 = call dereferenceable(1) %"class.std::allocator.19"* @_ZNSt12_Vector_baseIdSaIdEE19_M_get_Tp_allocatorEv(%"struct.std::_Vector_base.18"* %23) #4
  %25 = load i32, i32* @x.79
  %26 = load i32, i32* @y.80
  %27 = sub i32 %25, 1
  %28 = mul i32 %25, %27
  %29 = urem i32 %28, 2
  %30 = icmp eq i32 %29, 0
  %31 = icmp slt i32 %26, 10
  %32 = or i1 %30, %31
  br i1 %32, label %33, label %43

; <label>:33:                                     ; preds = %10
  invoke void @_ZSt8_DestroyIPddEvT_S1_RSaIT0_E(double* %18, double* %22, %"class.std::allocator.19"* dereferenceable(1) %24)
          to label %34 unwind label %36

; <label>:34:                                     ; preds = %33
  %35 = bitcast %"class.std::vector.17"* %14 to %"struct.std::_Vector_base.18"*
  call void @_ZNSt12_Vector_baseIdSaIdEED2Ev(%"struct.std::_Vector_base.18"* %35) #4
  ret void

; <label>:36:                                     ; preds = %33
  %37 = landingpad { i8*, i32 }
          catch i8* null
  %38 = extractvalue { i8*, i32 } %37, 0
  store i8* %38, i8** %12, align 8
  %39 = extractvalue { i8*, i32 } %37, 1
  store i32 %39, i32* %13, align 4
  %40 = bitcast %"class.std::vector.17"* %14 to %"struct.std::_Vector_base.18"*
  call void @_ZNSt12_Vector_baseIdSaIdEED2Ev(%"struct.std::_Vector_base.18"* %40) #4
  br label %41

; <label>:41:                                     ; preds = %36
  %42 = load i8*, i8** %12, align 8
  call void @__clang_call_terminate(i8* %42) #8
  unreachable

; <label>:43:                                     ; preds = %10, %1
  %44 = alloca %"class.std::vector.17"*, align 8
  %45 = alloca i8*
  %46 = alloca i32
  store %"class.std::vector.17"* %0, %"class.std::vector.17"** %44, align 8
  %47 = load %"class.std::vector.17"*, %"class.std::vector.17"** %44, align 8
  %48 = bitcast %"class.std::vector.17"* %47 to %"struct.std::_Vector_base.18"*
  %49 = getelementptr inbounds %"struct.std::_Vector_base.18", %"struct.std::_Vector_base.18"* %48, i32 0, i32 0
  %50 = getelementptr inbounds %"struct.std::_Vector_base<double, std::allocator<double> >::_Vector_impl", %"struct.std::_Vector_base<double, std::allocator<double> >::_Vector_impl"* %49, i32 0, i32 0
  %51 = load double*, double** %50, align 8
  %52 = bitcast %"class.std::vector.17"* %47 to %"struct.std::_Vector_base.18"*
  %53 = getelementptr inbounds %"struct.std::_Vector_base.18", %"struct.std::_Vector_base.18"* %52, i32 0, i32 0
  %54 = getelementptr inbounds %"struct.std::_Vector_base<double, std::allocator<double> >::_Vector_impl", %"struct.std::_Vector_base<double, std::allocator<double> >::_Vector_impl"* %53, i32 0, i32 1
  %55 = load double*, double** %54, align 8
  %56 = bitcast %"class.std::vector.17"* %47 to %"struct.std::_Vector_base.18"*
  %57 = call dereferenceable(1) %"class.std::allocator.19"* @_ZNSt12_Vector_baseIdSaIdEE19_M_get_Tp_allocatorEv(%"struct.std::_Vector_base.18"* %56) #4
  br label %10
}

; Function Attrs: noinline uwtable
define zeroext i1 @_ZNK5Graph10cut_vertexEiRKSt3setIiSt4lessIiESaIiEE(%class.Graph*, i32, %"class.std::set"* dereferenceable(48)) #0 align 2 personality i8* bitcast (i32 (...)* @__gxx_personality_v0 to i8*) {
  %4 = alloca i1, align 1
  %5 = alloca %class.Graph*, align 8
  %6 = alloca i32, align 4
  %7 = alloca %"class.std::set"*, align 8
  %8 = alloca %"class.std::set", align 8
  %9 = alloca %"class.std::vector.0"*, align 8
  %10 = alloca i8*
  %11 = alloca i32
  %12 = alloca %"class.__gnu_cxx::__normal_iterator", align 8
  %13 = alloca %"class.__gnu_cxx::__normal_iterator", align 8
  %14 = alloca %class.Edge*, align 8
  %15 = alloca i32, align 4
  %16 = alloca i32
  store %class.Graph* %0, %class.Graph** %5, align 8
  store i32 %1, i32* %6, align 4
  store %"class.std::set"* %2, %"class.std::set"** %7, align 8
  %17 = load %class.Graph*, %class.Graph** %5, align 8
  %18 = load %"class.std::set"*, %"class.std::set"** %7, align 8
  call void @_ZNSt3setIiSt4lessIiESaIiEEC2ERKS3_(%"class.std::set"* %8, %"class.std::set"* dereferenceable(48) %18)
  %19 = load i32, i32* %6, align 4
  %20 = invoke dereferenceable(24) %"class.std::vector.0"* @_ZNK5Graph4edgeEi(%class.Graph* %17, i32 %19)
          to label %21 unwind label %111

; <label>:21:                                     ; preds = %3
  %22 = load i32, i32* @x.81
  %23 = load i32, i32* @y.82
  %24 = sub i32 %22, 1
  %25 = mul i32 %22, %24
  %26 = urem i32 %25, 2
  %27 = icmp eq i32 %26, 0
  %28 = icmp slt i32 %23, 10
  %29 = or i1 %27, %28
  br i1 %29, label %30, label %176

; <label>:30:                                     ; preds = %21, %176
  store %"class.std::vector.0"* %20, %"class.std::vector.0"** %9, align 8
  %31 = load %"class.std::vector.0"*, %"class.std::vector.0"** %9, align 8
  %32 = call %class.Edge* @_ZNKSt6vectorI4EdgeSaIS0_EE5beginEv(%"class.std::vector.0"* %31) #4
  %33 = getelementptr inbounds %"class.__gnu_cxx::__normal_iterator", %"class.__gnu_cxx::__normal_iterator"* %12, i32 0, i32 0
  store %class.Edge* %32, %class.Edge** %33, align 8
  %34 = load %"class.std::vector.0"*, %"class.std::vector.0"** %9, align 8
  %35 = call %class.Edge* @_ZNKSt6vectorI4EdgeSaIS0_EE3endEv(%"class.std::vector.0"* %34) #4
  %36 = getelementptr inbounds %"class.__gnu_cxx::__normal_iterator", %"class.__gnu_cxx::__normal_iterator"* %13, i32 0, i32 0
  store %class.Edge* %35, %class.Edge** %36, align 8
  %37 = load i32, i32* @x.81
  %38 = load i32, i32* @y.82
  %39 = sub i32 %37, 1
  %40 = mul i32 %37, %39
  %41 = urem i32 %40, 2
  %42 = icmp eq i32 %41, 0
  %43 = icmp slt i32 %38, 10
  %44 = or i1 %42, %43
  br i1 %44, label %45, label %176

; <label>:45:                                     ; preds = %30
  br label %46

; <label>:46:                                     ; preds = %161, %45
  %47 = load i32, i32* @x.81
  %48 = load i32, i32* @y.82
  %49 = sub i32 %47, 1
  %50 = mul i32 %47, %49
  %51 = urem i32 %50, 2
  %52 = icmp eq i32 %51, 0
  %53 = icmp slt i32 %48, 10
  %54 = or i1 %52, %53
  br i1 %54, label %55, label %183

; <label>:55:                                     ; preds = %46, %183
  %56 = call zeroext i1 @_ZN9__gnu_cxxneIPK4EdgeSt6vectorIS1_SaIS1_EEEEbRKNS_17__normal_iteratorIT_T0_EESC_(%"class.__gnu_cxx::__normal_iterator"* dereferenceable(8) %12, %"class.__gnu_cxx::__normal_iterator"* dereferenceable(8) %13) #4
  %57 = load i32, i32* @x.81
  %58 = load i32, i32* @y.82
  %59 = sub i32 %57, 1
  %60 = mul i32 %57, %59
  %61 = urem i32 %60, 2
  %62 = icmp eq i32 %61, 0
  %63 = icmp slt i32 %58, 10
  %64 = or i1 %62, %63
  br i1 %64, label %65, label %183

; <label>:65:                                     ; preds = %55
  br i1 %56, label %66, label %163

; <label>:66:                                     ; preds = %65
  %67 = call dereferenceable(16) %class.Edge* @_ZNK9__gnu_cxx17__normal_iteratorIPK4EdgeSt6vectorIS1_SaIS1_EEEdeEv(%"class.__gnu_cxx::__normal_iterator"* %12) #4
  store %class.Edge* %67, %class.Edge** %14, align 8
  %68 = load %class.Edge*, %class.Edge** %14, align 8
  %69 = invoke i32 @_ZNK4Edge2toEv(%class.Edge* %68)
          to label %70 unwind label %111

; <label>:70:                                     ; preds = %66
  store i32 %69, i32* %15, align 4
  %71 = invoke i64 @_ZNKSt3setIiSt4lessIiESaIiEE5countERKi(%"class.std::set"* %8, i32* dereferenceable(4) %15)
          to label %72 unwind label %111

; <label>:72:                                     ; preds = %70
  %73 = load i32, i32* @x.81
  %74 = load i32, i32* @y.82
  %75 = sub i32 %73, 1
  %76 = mul i32 %73, %75
  %77 = urem i32 %76, 2
  %78 = icmp eq i32 %77, 0
  %79 = icmp slt i32 %74, 10
  %80 = or i1 %78, %79
  br i1 %80, label %81, label %185

; <label>:81:                                     ; preds = %72, %185
  %82 = icmp ne i64 %71, 0
  %83 = load i32, i32* @x.81
  %84 = load i32, i32* @y.82
  %85 = sub i32 %83, 1
  %86 = mul i32 %83, %85
  %87 = urem i32 %86, 2
  %88 = icmp eq i32 %87, 0
  %89 = icmp slt i32 %84, 10
  %90 = or i1 %88, %89
  br i1 %90, label %91, label %185

; <label>:91:                                     ; preds = %81
  br i1 %82, label %92, label %133

; <label>:92:                                     ; preds = %91
  %93 = load i32, i32* @x.81
  %94 = load i32, i32* @y.82
  %95 = sub i32 %93, 1
  %96 = mul i32 %93, %95
  %97 = urem i32 %96, 2
  %98 = icmp eq i32 %97, 0
  %99 = icmp slt i32 %94, 10
  %100 = or i1 %98, %99
  br i1 %100, label %101, label %187

; <label>:101:                                    ; preds = %92, %187
  %102 = load i32, i32* @x.81
  %103 = load i32, i32* @y.82
  %104 = sub i32 %102, 1
  %105 = mul i32 %102, %104
  %106 = urem i32 %105, 2
  %107 = icmp eq i32 %106, 0
  %108 = icmp slt i32 %103, 10
  %109 = or i1 %107, %108
  br i1 %109, label %110, label %187

; <label>:110:                                    ; preds = %101
  br label %161

; <label>:111:                                    ; preds = %163, %137, %136, %133, %70, %66, %3
  %112 = load i32, i32* @x.81
  %113 = load i32, i32* @y.82
  %114 = sub i32 %112, 1
  %115 = mul i32 %112, %114
  %116 = urem i32 %115, 2
  %117 = icmp eq i32 %116, 0
  %118 = icmp slt i32 %113, 10
  %119 = or i1 %117, %118
  br i1 %119, label %120, label %188

; <label>:120:                                    ; preds = %111, %188
  %121 = landingpad { i8*, i32 }
          cleanup
  %122 = extractvalue { i8*, i32 } %121, 0
  store i8* %122, i8** %10, align 8
  %123 = extractvalue { i8*, i32 } %121, 1
  store i32 %123, i32* %11, align 4
  call void @_ZNSt3setIiSt4lessIiESaIiEED2Ev(%"class.std::set"* %8) #4
  %124 = load i32, i32* @x.81
  %125 = load i32, i32* @y.82
  %126 = sub i32 %124, 1
  %127 = mul i32 %124, %126
  %128 = urem i32 %127, 2
  %129 = icmp eq i32 %128, 0
  %130 = icmp slt i32 %125, 10
  %131 = or i1 %129, %130
  br i1 %131, label %132, label %188

; <label>:132:                                    ; preds = %120
  br label %171

; <label>:133:                                    ; preds = %91
  %134 = load %class.Edge*, %class.Edge** %14, align 8
  %135 = invoke i32 @_ZNK4Edge2toEv(%class.Edge* %134)
          to label %136 unwind label %111

; <label>:136:                                    ; preds = %133
  invoke void @_ZNK5Graph23cut_vertex_reachabilityEiRSt3setIiSt4lessIiESaIiEE(%class.Graph* %17, i32 %135, %"class.std::set"* dereferenceable(48) %8)
          to label %137 unwind label %111

; <label>:137:                                    ; preds = %136
  %138 = call i64 @_ZNKSt3setIiSt4lessIiESaIiEE4sizeEv(%"class.std::set"* %8) #4
  %139 = invoke i32 @_ZNK5Graph4sizeEv(%class.Graph* %17)
          to label %140 unwind label %111

; <label>:140:                                    ; preds = %137
  %141 = load i32, i32* @x.81
  %142 = load i32, i32* @y.82
  %143 = sub i32 %141, 1
  %144 = mul i32 %141, %143
  %145 = urem i32 %144, 2
  %146 = icmp eq i32 %145, 0
  %147 = icmp slt i32 %142, 10
  %148 = or i1 %146, %147
  br i1 %148, label %149, label %192

; <label>:149:                                    ; preds = %140, %192
  %150 = sext i32 %139 to i64
  %151 = icmp ne i64 %138, %150
  store i1 %151, i1* %4, align 1
  store i32 1, i32* %16, align 4
  %152 = load i32, i32* @x.81
  %153 = load i32, i32* @y.82
  %154 = sub i32 %152, 1
  %155 = mul i32 %152, %154
  %156 = urem i32 %155, 2
  %157 = icmp eq i32 %156, 0
  %158 = icmp slt i32 %153, 10
  %159 = or i1 %157, %158
  br i1 %159, label %160, label %192

; <label>:160:                                    ; preds = %149
  br label %169

; <label>:161:                                    ; preds = %110
  %162 = call dereferenceable(8) %"class.__gnu_cxx::__normal_iterator"* @_ZN9__gnu_cxx17__normal_iteratorIPK4EdgeSt6vectorIS1_SaIS1_EEEppEv(%"class.__gnu_cxx::__normal_iterator"* %12) #4
  br label %46

; <label>:163:                                    ; preds = %65
  %164 = call i64 @_ZNKSt3setIiSt4lessIiESaIiEE4sizeEv(%"class.std::set"* %8) #4
  %165 = invoke i32 @_ZNK5Graph4sizeEv(%class.Graph* %17)
          to label %166 unwind label %111

; <label>:166:                                    ; preds = %163
  %167 = sext i32 %165 to i64
  %168 = icmp ne i64 %164, %167
  store i1 %168, i1* %4, align 1
  store i32 1, i32* %16, align 4
  br label %169

; <label>:169:                                    ; preds = %166, %160
  call void @_ZNSt3setIiSt4lessIiESaIiEED2Ev(%"class.std::set"* %8) #4
  %170 = load i1, i1* %4, align 1
  ret i1 %170

; <label>:171:                                    ; preds = %132
  %172 = load i8*, i8** %10, align 8
  %173 = load i32, i32* %11, align 4
  %174 = insertvalue { i8*, i32 } undef, i8* %172, 0
  %175 = insertvalue { i8*, i32 } %174, i32 %173, 1
  resume { i8*, i32 } %175

; <label>:176:                                    ; preds = %30, %21
  store %"class.std::vector.0"* %20, %"class.std::vector.0"** %9, align 8
  %177 = load %"class.std::vector.0"*, %"class.std::vector.0"** %9, align 8
  %178 = call %class.Edge* @_ZNKSt6vectorI4EdgeSaIS0_EE5beginEv(%"class.std::vector.0"* %177) #4
  %179 = getelementptr inbounds %"class.__gnu_cxx::__normal_iterator", %"class.__gnu_cxx::__normal_iterator"* %12, i32 0, i32 0
  store %class.Edge* %178, %class.Edge** %179, align 8
  %180 = load %"class.std::vector.0"*, %"class.std::vector.0"** %9, align 8
  %181 = call %class.Edge* @_ZNKSt6vectorI4EdgeSaIS0_EE3endEv(%"class.std::vector.0"* %180) #4
  %182 = getelementptr inbounds %"class.__gnu_cxx::__normal_iterator", %"class.__gnu_cxx::__normal_iterator"* %13, i32 0, i32 0
  store %class.Edge* %181, %class.Edge** %182, align 8
  br label %30

; <label>:183:                                    ; preds = %55, %46
  %184 = call zeroext i1 @_ZN9__gnu_cxxneIPK4EdgeSt6vectorIS1_SaIS1_EEEEbRKNS_17__normal_iteratorIT_T0_EESC_(%"class.__gnu_cxx::__normal_iterator"* dereferenceable(8) %12, %"class.__gnu_cxx::__normal_iterator"* dereferenceable(8) %13) #4
  br label %55

; <label>:185:                                    ; preds = %81, %72
  %186 = icmp ne i64 %71, 0
  br label %81

; <label>:187:                                    ; preds = %101, %92
  br label %101

; <label>:188:                                    ; preds = %120, %111
  %189 = landingpad { i8*, i32 }
          cleanup
  %190 = extractvalue { i8*, i32 } %189, 0
  store i8* %190, i8** %10, align 8
  %191 = extractvalue { i8*, i32 } %189, 1
  store i32 %191, i32* %11, align 4
  call void @_ZNSt3setIiSt4lessIiESaIiEED2Ev(%"class.std::set"* %8) #4
  br label %120

; <label>:192:                                    ; preds = %149, %140
  %193 = sext i32 %139 to i64
  %194 = icmp ne i64 %138, %193
  store i1 %194, i1* %4, align 1
  store i32 1, i32* %16, align 4
  br label %149
}

; Function Attrs: noinline uwtable
define linkonce_odr void @_ZNSt3setIiSt4lessIiESaIiEEC2ERKS3_(%"class.std::set"*, %"class.std::set"* dereferenceable(48)) unnamed_addr #0 comdat align 2 {
  %3 = alloca %"class.std::set"*, align 8
  %4 = alloca %"class.std::set"*, align 8
  store %"class.std::set"* %0, %"class.std::set"** %3, align 8
  store %"class.std::set"* %1, %"class.std::set"** %4, align 8
  %5 = load %"class.std::set"*, %"class.std::set"** %3, align 8
  %6 = getelementptr inbounds %"class.std::set", %"class.std::set"* %5, i32 0, i32 0
  %7 = load %"class.std::set"*, %"class.std::set"** %4, align 8
  %8 = getelementptr inbounds %"class.std::set", %"class.std::set"* %7, i32 0, i32 0
  call void @_ZNSt8_Rb_treeIiiSt9_IdentityIiESt4lessIiESaIiEEC2ERKS5_(%"class.std::_Rb_tree"* %6, %"class.std::_Rb_tree"* dereferenceable(48) %8)
  ret void
}

; Function Attrs: noinline uwtable
define linkonce_odr i64 @_ZNKSt3setIiSt4lessIiESaIiEE5countERKi(%"class.std::set"*, i32* dereferenceable(4)) #0 comdat align 2 {
  %3 = alloca %"class.std::set"*, align 8
  %4 = alloca i32*, align 8
  %5 = alloca %"struct.std::_Rb_tree_const_iterator", align 8
  %6 = alloca %"struct.std::_Rb_tree_const_iterator", align 8
  store %"class.std::set"* %0, %"class.std::set"** %3, align 8
  store i32* %1, i32** %4, align 8
  %7 = load %"class.std::set"*, %"class.std::set"** %3, align 8
  %8 = getelementptr inbounds %"class.std::set", %"class.std::set"* %7, i32 0, i32 0
  %9 = load i32*, i32** %4, align 8
  %10 = call %"struct.std::_Rb_tree_node_base"* @_ZNKSt8_Rb_treeIiiSt9_IdentityIiESt4lessIiESaIiEE4findERKi(%"class.std::_Rb_tree"* %8, i32* dereferenceable(4) %9)
  %11 = getelementptr inbounds %"struct.std::_Rb_tree_const_iterator", %"struct.std::_Rb_tree_const_iterator"* %5, i32 0, i32 0
  store %"struct.std::_Rb_tree_node_base"* %10, %"struct.std::_Rb_tree_node_base"** %11, align 8
  %12 = getelementptr inbounds %"class.std::set", %"class.std::set"* %7, i32 0, i32 0
  %13 = call %"struct.std::_Rb_tree_node_base"* @_ZNKSt8_Rb_treeIiiSt9_IdentityIiESt4lessIiESaIiEE3endEv(%"class.std::_Rb_tree"* %12) #4
  %14 = getelementptr inbounds %"struct.std::_Rb_tree_const_iterator", %"struct.std::_Rb_tree_const_iterator"* %6, i32 0, i32 0
  store %"struct.std::_Rb_tree_node_base"* %13, %"struct.std::_Rb_tree_node_base"** %14, align 8
  %15 = call zeroext i1 @_ZNKSt23_Rb_tree_const_iteratorIiEeqERKS0_(%"struct.std::_Rb_tree_const_iterator"* %5, %"struct.std::_Rb_tree_const_iterator"* dereferenceable(8) %6) #4
  %16 = select i1 %15, i32 0, i32 1
  %17 = sext i32 %16 to i64
  ret i64 %17
}

; Function Attrs: noinline uwtable
define void @_ZNK5Graph23cut_vertex_reachabilityEiRSt3setIiSt4lessIiESaIiEE(%class.Graph*, i32, %"class.std::set"* dereferenceable(48)) #0 align 2 {
  %4 = alloca %class.Graph*, align 8
  %5 = alloca i32, align 4
  %6 = alloca %"class.std::set"*, align 8
  %7 = alloca %"struct.std::pair", align 8
  %8 = alloca %"class.std::vector.0"*, align 8
  %9 = alloca %"class.__gnu_cxx::__normal_iterator", align 8
  %10 = alloca %"class.__gnu_cxx::__normal_iterator", align 8
  %11 = alloca %class.Edge*, align 8
  %12 = alloca i32, align 4
  store %class.Graph* %0, %class.Graph** %4, align 8
  store i32 %1, i32* %5, align 4
  store %"class.std::set"* %2, %"class.std::set"** %6, align 8
  %13 = load %class.Graph*, %class.Graph** %4, align 8
  %14 = load %"class.std::set"*, %"class.std::set"** %6, align 8
  %15 = call { %"struct.std::_Rb_tree_node_base"*, i8 } @_ZNSt3setIiSt4lessIiESaIiEE6insertERKi(%"class.std::set"* %14, i32* dereferenceable(4) %5)
  %16 = bitcast %"struct.std::pair"* %7 to { %"struct.std::_Rb_tree_node_base"*, i8 }*
  %17 = getelementptr inbounds { %"struct.std::_Rb_tree_node_base"*, i8 }, { %"struct.std::_Rb_tree_node_base"*, i8 }* %16, i32 0, i32 0
  %18 = extractvalue { %"struct.std::_Rb_tree_node_base"*, i8 } %15, 0
  store %"struct.std::_Rb_tree_node_base"* %18, %"struct.std::_Rb_tree_node_base"** %17, align 8
  %19 = getelementptr inbounds { %"struct.std::_Rb_tree_node_base"*, i8 }, { %"struct.std::_Rb_tree_node_base"*, i8 }* %16, i32 0, i32 1
  %20 = extractvalue { %"struct.std::_Rb_tree_node_base"*, i8 } %15, 1
  store i8 %20, i8* %19, align 8
  %21 = load i32, i32* %5, align 4
  %22 = call dereferenceable(24) %"class.std::vector.0"* @_ZNK5Graph4edgeEi(%class.Graph* %13, i32 %21)
  store %"class.std::vector.0"* %22, %"class.std::vector.0"** %8, align 8
  %23 = load %"class.std::vector.0"*, %"class.std::vector.0"** %8, align 8
  %24 = call %class.Edge* @_ZNKSt6vectorI4EdgeSaIS0_EE5beginEv(%"class.std::vector.0"* %23) #4
  %25 = getelementptr inbounds %"class.__gnu_cxx::__normal_iterator", %"class.__gnu_cxx::__normal_iterator"* %9, i32 0, i32 0
  store %class.Edge* %24, %class.Edge** %25, align 8
  %26 = load %"class.std::vector.0"*, %"class.std::vector.0"** %8, align 8
  %27 = call %class.Edge* @_ZNKSt6vectorI4EdgeSaIS0_EE3endEv(%"class.std::vector.0"* %26) #4
  %28 = getelementptr inbounds %"class.__gnu_cxx::__normal_iterator", %"class.__gnu_cxx::__normal_iterator"* %10, i32 0, i32 0
  store %class.Edge* %27, %class.Edge** %28, align 8
  br label %29

; <label>:29:                                     ; preds = %62, %3
  %30 = call zeroext i1 @_ZN9__gnu_cxxneIPK4EdgeSt6vectorIS1_SaIS1_EEEEbRKNS_17__normal_iteratorIT_T0_EESC_(%"class.__gnu_cxx::__normal_iterator"* dereferenceable(8) %9, %"class.__gnu_cxx::__normal_iterator"* dereferenceable(8) %10) #4
  br i1 %30, label %31, label %64

; <label>:31:                                     ; preds = %29
  %32 = call dereferenceable(16) %class.Edge* @_ZNK9__gnu_cxx17__normal_iteratorIPK4EdgeSt6vectorIS1_SaIS1_EEEdeEv(%"class.__gnu_cxx::__normal_iterator"* %9) #4
  store %class.Edge* %32, %class.Edge** %11, align 8
  %33 = load %"class.std::set"*, %"class.std::set"** %6, align 8
  %34 = load %class.Edge*, %class.Edge** %11, align 8
  %35 = call i32 @_ZNK4Edge2toEv(%class.Edge* %34)
  store i32 %35, i32* %12, align 4
  %36 = call i64 @_ZNKSt3setIiSt4lessIiESaIiEE5countERKi(%"class.std::set"* %33, i32* dereferenceable(4) %12)
  %37 = icmp ne i64 %36, 0
  %38 = xor i1 %37, true
  br i1 %38, label %39, label %43

; <label>:39:                                     ; preds = %31
  %40 = load %class.Edge*, %class.Edge** %11, align 8
  %41 = call i32 @_ZNK4Edge2toEv(%class.Edge* %40)
  %42 = load %"class.std::set"*, %"class.std::set"** %6, align 8
  call void @_ZNK5Graph23cut_vertex_reachabilityEiRSt3setIiSt4lessIiESaIiEE(%class.Graph* %13, i32 %41, %"class.std::set"* dereferenceable(48) %42)
  br label %43

; <label>:43:                                     ; preds = %39, %31
  %44 = load i32, i32* @x.87
  %45 = load i32, i32* @y.88
  %46 = sub i32 %44, 1
  %47 = mul i32 %44, %46
  %48 = urem i32 %47, 2
  %49 = icmp eq i32 %48, 0
  %50 = icmp slt i32 %45, 10
  %51 = or i1 %49, %50
  br i1 %51, label %52, label %65

; <label>:52:                                     ; preds = %43, %65
  %53 = load i32, i32* @x.87
  %54 = load i32, i32* @y.88
  %55 = sub i32 %53, 1
  %56 = mul i32 %53, %55
  %57 = urem i32 %56, 2
  %58 = icmp eq i32 %57, 0
  %59 = icmp slt i32 %54, 10
  %60 = or i1 %58, %59
  br i1 %60, label %61, label %65

; <label>:61:                                     ; preds = %52
  br label %62

; <label>:62:                                     ; preds = %61
  %63 = call dereferenceable(8) %"class.__gnu_cxx::__normal_iterator"* @_ZN9__gnu_cxx17__normal_iteratorIPK4EdgeSt6vectorIS1_SaIS1_EEEppEv(%"class.__gnu_cxx::__normal_iterator"* %9) #4
  br label %29

; <label>:64:                                     ; preds = %29
  ret void

; <label>:65:                                     ; preds = %52, %43
  br label %52
}

; Function Attrs: noinline nounwind uwtable
define linkonce_odr i64 @_ZNKSt3setIiSt4lessIiESaIiEE4sizeEv(%"class.std::set"*) #1 comdat align 2 {
  %2 = alloca %"class.std::set"*, align 8
  store %"class.std::set"* %0, %"class.std::set"** %2, align 8
  %3 = load %"class.std::set"*, %"class.std::set"** %2, align 8
  %4 = getelementptr inbounds %"class.std::set", %"class.std::set"* %3, i32 0, i32 0
  %5 = call i64 @_ZNKSt8_Rb_treeIiiSt9_IdentityIiESt4lessIiESaIiEE4sizeEv(%"class.std::_Rb_tree"* %4) #4
  ret i64 %5
}

; Function Attrs: noinline nounwind uwtable
define linkonce_odr void @_ZNSt3setIiSt4lessIiESaIiEED2Ev(%"class.std::set"*) unnamed_addr #1 comdat align 2 {
  %2 = alloca %"class.std::set"*, align 8
  store %"class.std::set"* %0, %"class.std::set"** %2, align 8
  %3 = load %"class.std::set"*, %"class.std::set"** %2, align 8
  %4 = getelementptr inbounds %"class.std::set", %"class.std::set"* %3, i32 0, i32 0
  call void @_ZNSt8_Rb_treeIiiSt9_IdentityIiESt4lessIiESaIiEED2Ev(%"class.std::_Rb_tree"* %4) #4
  ret void
}

; Function Attrs: noinline uwtable
define linkonce_odr { %"struct.std::_Rb_tree_node_base"*, i8 } @_ZNSt3setIiSt4lessIiESaIiEE6insertERKi(%"class.std::set"*, i32* dereferenceable(4)) #0 comdat align 2 {
  %3 = alloca %"struct.std::pair", align 8
  %4 = alloca %"class.std::set"*, align 8
  %5 = alloca i32*, align 8
  %6 = alloca %"struct.std::pair.49", align 8
  store %"class.std::set"* %0, %"class.std::set"** %4, align 8
  store i32* %1, i32** %5, align 8
  %7 = load %"class.std::set"*, %"class.std::set"** %4, align 8
  %8 = getelementptr inbounds %"class.std::set", %"class.std::set"* %7, i32 0, i32 0
  %9 = load i32*, i32** %5, align 8
  %10 = call { %"struct.std::_Rb_tree_node_base"*, i8 } @_ZNSt8_Rb_treeIiiSt9_IdentityIiESt4lessIiESaIiEE16_M_insert_uniqueIRKiEESt4pairISt17_Rb_tree_iteratorIiEbEOT_(%"class.std::_Rb_tree"* %8, i32* dereferenceable(4) %9)
  %11 = bitcast %"struct.std::pair.49"* %6 to { %"struct.std::_Rb_tree_node_base"*, i8 }*
  %12 = getelementptr inbounds { %"struct.std::_Rb_tree_node_base"*, i8 }, { %"struct.std::_Rb_tree_node_base"*, i8 }* %11, i32 0, i32 0
  %13 = extractvalue { %"struct.std::_Rb_tree_node_base"*, i8 } %10, 0
  store %"struct.std::_Rb_tree_node_base"* %13, %"struct.std::_Rb_tree_node_base"** %12, align 8
  %14 = getelementptr inbounds { %"struct.std::_Rb_tree_node_base"*, i8 }, { %"struct.std::_Rb_tree_node_base"*, i8 }* %11, i32 0, i32 1
  %15 = extractvalue { %"struct.std::_Rb_tree_node_base"*, i8 } %10, 1
  store i8 %15, i8* %14, align 8
  %16 = getelementptr inbounds %"struct.std::pair.49", %"struct.std::pair.49"* %6, i32 0, i32 0
  %17 = getelementptr inbounds %"struct.std::pair.49", %"struct.std::pair.49"* %6, i32 0, i32 1
  call void @_ZNSt4pairISt23_Rb_tree_const_iteratorIiEbEC2IRSt17_Rb_tree_iteratorIiERbvEEOT_OT0_(%"struct.std::pair"* %3, %"struct.std::_Rb_tree_iterator"* dereferenceable(8) %16, i8* dereferenceable(1) %17)
  %18 = bitcast %"struct.std::pair"* %3 to { %"struct.std::_Rb_tree_node_base"*, i8 }*
  %19 = load { %"struct.std::_Rb_tree_node_base"*, i8 }, { %"struct.std::_Rb_tree_node_base"*, i8 }* %18, align 8
  ret { %"struct.std::_Rb_tree_node_base"*, i8 } %19
}

; Function Attrs: noinline uwtable
define void @_ZNK5Graph8KosarajuEv(%"class.std::vector.26"* noalias sret, %class.Graph*) #0 align 2 personality i8* bitcast (i32 (...)* @__gxx_personality_v0 to i8*) {
  %3 = alloca %class.Graph*, align 8
  %4 = alloca i1, align 1
  %5 = alloca %"class.std::vector.31", align 8
  %6 = alloca i8*
  %7 = alloca i32
  %8 = alloca i8, align 1
  %9 = alloca %"class.std::allocator.35", align 1
  %10 = alloca %"class.std::stack", align 8
  %11 = alloca %"class.std::deque", align 8
  %12 = alloca i32, align 4
  %13 = alloca %"struct.std::_Bit_reference", align 8
  %14 = alloca %"class.std::vector", align 8
  %15 = alloca %"class.std::vector.0", align 8
  %16 = alloca %"class.std::allocator", align 1
  %17 = alloca i32, align 4
  %18 = alloca %"class.std::vector.0"*, align 8
  %19 = alloca %"class.__gnu_cxx::__normal_iterator", align 8
  %20 = alloca %"class.__gnu_cxx::__normal_iterator", align 8
  %21 = alloca %class.Edge*, align 8
  %22 = alloca %class.Edge, align 8
  %23 = alloca %"class.std::vector.31", align 8
  %24 = alloca i8, align 1
  %25 = alloca %"class.std::allocator.35", align 1
  %26 = alloca i32, align 4
  %27 = alloca %"struct.std::_Bit_reference", align 8
  %28 = alloca %"class.std::vector.5", align 8
  store %class.Graph* %1, %class.Graph** %3, align 8
  %29 = load %class.Graph*, %class.Graph** %3, align 8
  store i1 false, i1* %4, align 1
  call void @_ZNSt6vectorIS_IiSaIiEESaIS1_EEC2Ev(%"class.std::vector.26"* %0) #4
  %30 = invoke i32 @_ZNK5Graph4sizeEv(%class.Graph* %29)
          to label %31 unwind label %91

; <label>:31:                                     ; preds = %2
  %32 = sext i32 %30 to i64
  store i8 0, i8* %8, align 1
  call void @_ZNSaIbEC2Ev(%"class.std::allocator.35"* %9) #4
  invoke void @_ZNSt6vectorIbSaIbEEC2EmRKbRKS0_(%"class.std::vector.31"* %5, i64 %32, i8* dereferenceable(1) %8, %"class.std::allocator.35"* dereferenceable(1) %9)
          to label %33 unwind label %95

; <label>:33:                                     ; preds = %31
  call void @_ZNSaIbED2Ev(%"class.std::allocator.35"* %9) #4
  invoke void @_ZNSt5dequeIiSaIiEEC2Ev(%"class.std::deque"* %11)
          to label %34 unwind label %117

; <label>:34:                                     ; preds = %33
  %35 = load i32, i32* @x.95
  %36 = load i32, i32* @y.96
  %37 = sub i32 %35, 1
  %38 = mul i32 %35, %37
  %39 = urem i32 %38, 2
  %40 = icmp eq i32 %39, 0
  %41 = icmp slt i32 %36, 10
  %42 = or i1 %40, %41
  br i1 %42, label %43, label %436

; <label>:43:                                     ; preds = %34, %436
  %44 = load i32, i32* @x.95
  %45 = load i32, i32* @y.96
  %46 = sub i32 %44, 1
  %47 = mul i32 %44, %46
  %48 = urem i32 %47, 2
  %49 = icmp eq i32 %48, 0
  %50 = icmp slt i32 %45, 10
  %51 = or i1 %49, %50
  br i1 %51, label %52, label %436

; <label>:52:                                     ; preds = %43
  invoke void @_ZNSt5stackIiSt5dequeIiSaIiEEEC2EOS2_(%"class.std::stack"* %10, %"class.std::deque"* dereferenceable(80) %11)
          to label %53 unwind label %121

; <label>:53:                                     ; preds = %52
  call void @_ZNSt5dequeIiSaIiEED2Ev(%"class.std::deque"* %11) #4
  store i32 0, i32* %12, align 4
  br label %54

; <label>:54:                                     ; preds = %130, %53
  %55 = load i32, i32* %12, align 4
  %56 = invoke i32 @_ZNK5Graph4sizeEv(%class.Graph* %29)
          to label %57 unwind label %125

; <label>:57:                                     ; preds = %54
  %58 = load i32, i32* @x.95
  %59 = load i32, i32* @y.96
  %60 = sub i32 %58, 1
  %61 = mul i32 %58, %60
  %62 = urem i32 %61, 2
  %63 = icmp eq i32 %62, 0
  %64 = icmp slt i32 %59, 10
  %65 = or i1 %63, %64
  br i1 %65, label %66, label %437

; <label>:66:                                     ; preds = %57, %437
  %67 = icmp slt i32 %55, %56
  %68 = load i32, i32* @x.95
  %69 = load i32, i32* @y.96
  %70 = sub i32 %68, 1
  %71 = mul i32 %68, %70
  %72 = urem i32 %71, 2
  %73 = icmp eq i32 %72, 0
  %74 = icmp slt i32 %69, 10
  %75 = or i1 %73, %74
  br i1 %75, label %76, label %437

; <label>:76:                                     ; preds = %66
  br i1 %67, label %77, label %133

; <label>:77:                                     ; preds = %76
  %78 = load i32, i32* %12, align 4
  %79 = sext i32 %78 to i64
  %80 = invoke { i64*, i64 } @_ZNSt6vectorIbSaIbEEixEm(%"class.std::vector.31"* %5, i64 %79)
          to label %81 unwind label %125

; <label>:81:                                     ; preds = %77
  %82 = bitcast %"struct.std::_Bit_reference"* %13 to { i64*, i64 }*
  %83 = getelementptr inbounds { i64*, i64 }, { i64*, i64 }* %82, i32 0, i32 0
  %84 = extractvalue { i64*, i64 } %80, 0
  store i64* %84, i64** %83, align 8
  %85 = getelementptr inbounds { i64*, i64 }, { i64*, i64 }* %82, i32 0, i32 1
  %86 = extractvalue { i64*, i64 } %80, 1
  store i64 %86, i64* %85, align 8
  %87 = call zeroext i1 @_ZNKSt14_Bit_referencecvbEv(%"struct.std::_Bit_reference"* %13) #4
  br i1 %87, label %129, label %88

; <label>:88:                                     ; preds = %81
  %89 = load i32, i32* %12, align 4
  invoke void @_ZNK5Graph22Kosaraju_dfs_postorderEiRSt6vectorIbSaIbEERSt5stackIiSt5dequeIiSaIiEEE(%class.Graph* %29, i32 %89, %"class.std::vector.31"* dereferenceable(40) %5, %"class.std::stack"* dereferenceable(80) %10)
          to label %90 unwind label %125

; <label>:90:                                     ; preds = %88
  br label %129

; <label>:91:                                     ; preds = %2
  %92 = landingpad { i8*, i32 }
          cleanup
  %93 = extractvalue { i8*, i32 } %92, 0
  store i8* %93, i8** %6, align 8
  %94 = extractvalue { i8*, i32 } %92, 1
  store i32 %94, i32* %7, align 4
  br label %430

; <label>:95:                                     ; preds = %31
  %96 = load i32, i32* @x.95
  %97 = load i32, i32* @y.96
  %98 = sub i32 %96, 1
  %99 = mul i32 %96, %98
  %100 = urem i32 %99, 2
  %101 = icmp eq i32 %100, 0
  %102 = icmp slt i32 %97, 10
  %103 = or i1 %101, %102
  br i1 %103, label %104, label %439

; <label>:104:                                    ; preds = %95, %439
  %105 = landingpad { i8*, i32 }
          cleanup
  %106 = extractvalue { i8*, i32 } %105, 0
  store i8* %106, i8** %6, align 8
  %107 = extractvalue { i8*, i32 } %105, 1
  store i32 %107, i32* %7, align 4
  call void @_ZNSaIbED2Ev(%"class.std::allocator.35"* %9) #4
  %108 = load i32, i32* @x.95
  %109 = load i32, i32* @y.96
  %110 = sub i32 %108, 1
  %111 = mul i32 %108, %110
  %112 = urem i32 %111, 2
  %113 = icmp eq i32 %112, 0
  %114 = icmp slt i32 %109, 10
  %115 = or i1 %113, %114
  br i1 %115, label %116, label %439

; <label>:116:                                    ; preds = %104
  br label %430

; <label>:117:                                    ; preds = %33
  %118 = landingpad { i8*, i32 }
          cleanup
  %119 = extractvalue { i8*, i32 } %118, 0
  store i8* %119, i8** %6, align 8
  %120 = extractvalue { i8*, i32 } %118, 1
  store i32 %120, i32* %7, align 4
  br label %409

; <label>:121:                                    ; preds = %52
  %122 = landingpad { i8*, i32 }
          cleanup
  %123 = extractvalue { i8*, i32 } %122, 0
  store i8* %123, i8** %6, align 8
  %124 = extractvalue { i8*, i32 } %122, 1
  store i32 %124, i32* %7, align 4
  call void @_ZNSt5dequeIiSaIiEED2Ev(%"class.std::deque"* %11) #4
  br label %409

; <label>:125:                                    ; preds = %133, %88, %77, %54
  %126 = landingpad { i8*, i32 }
          cleanup
  %127 = extractvalue { i8*, i32 } %126, 0
  store i8* %127, i8** %6, align 8
  %128 = extractvalue { i8*, i32 } %126, 1
  store i32 %128, i32* %7, align 4
  br label %408

; <label>:129:                                    ; preds = %90, %81
  br label %130

; <label>:130:                                    ; preds = %129
  %131 = load i32, i32* %12, align 4
  %132 = add nsw i32 %131, 1
  store i32 %132, i32* %12, align 4
  br label %54

; <label>:133:                                    ; preds = %76
  %134 = invoke i32 @_ZNK5Graph4sizeEv(%class.Graph* %29)
          to label %135 unwind label %125

; <label>:135:                                    ; preds = %133
  %136 = sext i32 %134 to i64
  call void @_ZNSt6vectorI4EdgeSaIS0_EEC2Ev(%"class.std::vector.0"* %15) #4
  call void @_ZNSaISt6vectorI4EdgeSaIS0_EEEC2Ev(%"class.std::allocator"* %16) #4
  invoke void @_ZNSt6vectorIS_I4EdgeSaIS0_EESaIS2_EEC2EmRKS2_RKS3_(%"class.std::vector"* %14, i64 %136, %"class.std::vector.0"* dereferenceable(24) %15, %"class.std::allocator"* dereferenceable(1) %16)
          to label %137 unwind label %265

; <label>:137:                                    ; preds = %135
  call void @_ZNSaISt6vectorI4EdgeSaIS0_EEED2Ev(%"class.std::allocator"* %16) #4
  call void @_ZNSt6vectorI4EdgeSaIS0_EED2Ev(%"class.std::vector.0"* %15) #4
  store i32 0, i32* %17, align 4
  br label %138

; <label>:138:                                    ; preds = %292, %137
  %139 = load i32, i32* @x.95
  %140 = load i32, i32* @y.96
  %141 = sub i32 %139, 1
  %142 = mul i32 %139, %141
  %143 = urem i32 %142, 2
  %144 = icmp eq i32 %143, 0
  %145 = icmp slt i32 %140, 10
  %146 = or i1 %144, %145
  br i1 %146, label %147, label %443

; <label>:147:                                    ; preds = %138, %443
  %148 = load i32, i32* %17, align 4
  %149 = load i32, i32* @x.95
  %150 = load i32, i32* @y.96
  %151 = sub i32 %149, 1
  %152 = mul i32 %149, %151
  %153 = urem i32 %152, 2
  %154 = icmp eq i32 %153, 0
  %155 = icmp slt i32 %150, 10
  %156 = or i1 %154, %155
  br i1 %156, label %157, label %443

; <label>:157:                                    ; preds = %147
  %158 = invoke i32 @_ZNK5Graph4sizeEv(%class.Graph* %29)
          to label %159 unwind label %269

; <label>:159:                                    ; preds = %157
  %160 = icmp slt i32 %148, %158
  br i1 %160, label %161, label %295

; <label>:161:                                    ; preds = %159
  %162 = load i32, i32* %17, align 4
  %163 = invoke dereferenceable(24) %"class.std::vector.0"* @_ZNK5Graph4edgeEi(%class.Graph* %29, i32 %162)
          to label %164 unwind label %269

; <label>:164:                                    ; preds = %161
  %165 = load i32, i32* @x.95
  %166 = load i32, i32* @y.96
  %167 = sub i32 %165, 1
  %168 = mul i32 %165, %167
  %169 = urem i32 %168, 2
  %170 = icmp eq i32 %169, 0
  %171 = icmp slt i32 %166, 10
  %172 = or i1 %170, %171
  br i1 %172, label %173, label %445

; <label>:173:                                    ; preds = %164, %445
  store %"class.std::vector.0"* %163, %"class.std::vector.0"** %18, align 8
  %174 = load %"class.std::vector.0"*, %"class.std::vector.0"** %18, align 8
  %175 = call %class.Edge* @_ZNKSt6vectorI4EdgeSaIS0_EE5beginEv(%"class.std::vector.0"* %174) #4
  %176 = getelementptr inbounds %"class.__gnu_cxx::__normal_iterator", %"class.__gnu_cxx::__normal_iterator"* %19, i32 0, i32 0
  store %class.Edge* %175, %class.Edge** %176, align 8
  %177 = load %"class.std::vector.0"*, %"class.std::vector.0"** %18, align 8
  %178 = call %class.Edge* @_ZNKSt6vectorI4EdgeSaIS0_EE3endEv(%"class.std::vector.0"* %177) #4
  %179 = getelementptr inbounds %"class.__gnu_cxx::__normal_iterator", %"class.__gnu_cxx::__normal_iterator"* %20, i32 0, i32 0
  store %class.Edge* %178, %class.Edge** %179, align 8
  %180 = load i32, i32* @x.95
  %181 = load i32, i32* @y.96
  %182 = sub i32 %180, 1
  %183 = mul i32 %180, %182
  %184 = urem i32 %183, 2
  %185 = icmp eq i32 %184, 0
  %186 = icmp slt i32 %181, 10
  %187 = or i1 %185, %186
  br i1 %187, label %188, label %445

; <label>:188:                                    ; preds = %173
  br label %189

; <label>:189:                                    ; preds = %263, %188
  %190 = call zeroext i1 @_ZN9__gnu_cxxneIPK4EdgeSt6vectorIS1_SaIS1_EEEEbRKNS_17__normal_iteratorIT_T0_EESC_(%"class.__gnu_cxx::__normal_iterator"* dereferenceable(8) %19, %"class.__gnu_cxx::__normal_iterator"* dereferenceable(8) %20) #4
  br i1 %190, label %191, label %291

; <label>:191:                                    ; preds = %189
  %192 = load i32, i32* @x.95
  %193 = load i32, i32* @y.96
  %194 = sub i32 %192, 1
  %195 = mul i32 %192, %194
  %196 = urem i32 %195, 2
  %197 = icmp eq i32 %196, 0
  %198 = icmp slt i32 %193, 10
  %199 = or i1 %197, %198
  br i1 %199, label %200, label %452

; <label>:200:                                    ; preds = %191, %452
  %201 = call dereferenceable(16) %class.Edge* @_ZNK9__gnu_cxx17__normal_iteratorIPK4EdgeSt6vectorIS1_SaIS1_EEEdeEv(%"class.__gnu_cxx::__normal_iterator"* %19) #4
  store %class.Edge* %201, %class.Edge** %21, align 8
  %202 = load %class.Edge*, %class.Edge** %21, align 8
  %203 = load i32, i32* @x.95
  %204 = load i32, i32* @y.96
  %205 = sub i32 %203, 1
  %206 = mul i32 %203, %205
  %207 = urem i32 %206, 2
  %208 = icmp eq i32 %207, 0
  %209 = icmp slt i32 %204, 10
  %210 = or i1 %208, %209
  br i1 %210, label %211, label %452

; <label>:211:                                    ; preds = %200
  %212 = invoke i32 @_ZNK4Edge2toEv(%class.Edge* %202)
          to label %213 unwind label %269

; <label>:213:                                    ; preds = %211
  %214 = load i32, i32* @x.95
  %215 = load i32, i32* @y.96
  %216 = sub i32 %214, 1
  %217 = mul i32 %214, %216
  %218 = urem i32 %217, 2
  %219 = icmp eq i32 %218, 0
  %220 = icmp slt i32 %215, 10
  %221 = or i1 %219, %220
  br i1 %221, label %222, label %455

; <label>:222:                                    ; preds = %213, %455
  %223 = sext i32 %212 to i64
  %224 = call dereferenceable(24) %"class.std::vector.0"* @_ZNSt6vectorIS_I4EdgeSaIS0_EESaIS2_EEixEm(%"class.std::vector"* %14, i64 %223) #4
  %225 = load %class.Edge*, %class.Edge** %21, align 8
  %226 = load i32, i32* @x.95
  %227 = load i32, i32* @y.96
  %228 = sub i32 %226, 1
  %229 = mul i32 %226, %228
  %230 = urem i32 %229, 2
  %231 = icmp eq i32 %230, 0
  %232 = icmp slt i32 %227, 10
  %233 = or i1 %231, %232
  br i1 %233, label %234, label %455

; <label>:234:                                    ; preds = %222
  %235 = invoke i32 @_ZNK4Edge2toEv(%class.Edge* %225)
          to label %236 unwind label %269

; <label>:236:                                    ; preds = %234
  %237 = load %class.Edge*, %class.Edge** %21, align 8
  %238 = invoke i32 @_ZNK4Edge4fromEv(%class.Edge* %237)
          to label %239 unwind label %269

; <label>:239:                                    ; preds = %236
  %240 = load i32, i32* @x.95
  %241 = load i32, i32* @y.96
  %242 = sub i32 %240, 1
  %243 = mul i32 %240, %242
  %244 = urem i32 %243, 2
  %245 = icmp eq i32 %244, 0
  %246 = icmp slt i32 %241, 10
  %247 = or i1 %245, %246
  br i1 %247, label %248, label %459

; <label>:248:                                    ; preds = %239, %459
  %249 = load %class.Edge*, %class.Edge** %21, align 8
  %250 = load i32, i32* @x.95
  %251 = load i32, i32* @y.96
  %252 = sub i32 %250, 1
  %253 = mul i32 %250, %252
  %254 = urem i32 %253, 2
  %255 = icmp eq i32 %254, 0
  %256 = icmp slt i32 %251, 10
  %257 = or i1 %255, %256
  br i1 %257, label %258, label %459

; <label>:258:                                    ; preds = %248
  %259 = invoke double @_ZNK4Edge6weightEv(%class.Edge* %249)
          to label %260 unwind label %269

; <label>:260:                                    ; preds = %258
  invoke void @_ZN4EdgeC2Eiid(%class.Edge* %22, i32 %235, i32 %238, double %259)
          to label %261 unwind label %269

; <label>:261:                                    ; preds = %260
  invoke void @_ZNSt6vectorI4EdgeSaIS0_EE9push_backEOS0_(%"class.std::vector.0"* %224, %class.Edge* dereferenceable(16) %22)
          to label %262 unwind label %269

; <label>:262:                                    ; preds = %261
  br label %263

; <label>:263:                                    ; preds = %262
  %264 = call dereferenceable(8) %"class.__gnu_cxx::__normal_iterator"* @_ZN9__gnu_cxx17__normal_iteratorIPK4EdgeSt6vectorIS1_SaIS1_EEEppEv(%"class.__gnu_cxx::__normal_iterator"* %19) #4
  br label %189

; <label>:265:                                    ; preds = %135
  %266 = landingpad { i8*, i32 }
          cleanup
  %267 = extractvalue { i8*, i32 } %266, 0
  store i8* %267, i8** %6, align 8
  %268 = extractvalue { i8*, i32 } %266, 1
  store i32 %268, i32* %7, align 4
  call void @_ZNSaISt6vectorI4EdgeSaIS0_EEED2Ev(%"class.std::allocator"* %16) #4
  call void @_ZNSt6vectorI4EdgeSaIS0_EED2Ev(%"class.std::vector.0"* %15) #4
  br label %408

; <label>:269:                                    ; preds = %397, %345, %344, %323, %301, %295, %261, %260, %258, %236, %234, %211, %161, %157
  %270 = load i32, i32* @x.95
  %271 = load i32, i32* @y.96
  %272 = sub i32 %270, 1
  %273 = mul i32 %270, %272
  %274 = urem i32 %273, 2
  %275 = icmp eq i32 %274, 0
  %276 = icmp slt i32 %271, 10
  %277 = or i1 %275, %276
  br i1 %277, label %278, label %461

; <label>:278:                                    ; preds = %269, %461
  %279 = landingpad { i8*, i32 }
          cleanup
  %280 = extractvalue { i8*, i32 } %279, 0
  store i8* %280, i8** %6, align 8
  %281 = extractvalue { i8*, i32 } %279, 1
  store i32 %281, i32* %7, align 4
  %282 = load i32, i32* @x.95
  %283 = load i32, i32* @y.96
  %284 = sub i32 %282, 1
  %285 = mul i32 %282, %284
  %286 = urem i32 %285, 2
  %287 = icmp eq i32 %286, 0
  %288 = icmp slt i32 %283, 10
  %289 = or i1 %287, %288
  br i1 %289, label %290, label %461

; <label>:290:                                    ; preds = %278
  br label %407

; <label>:291:                                    ; preds = %189
  br label %292

; <label>:292:                                    ; preds = %291
  %293 = load i32, i32* %17, align 4
  %294 = add nsw i32 %293, 1
  store i32 %294, i32* %17, align 4
  br label %138

; <label>:295:                                    ; preds = %159
  %296 = invoke i32 @_ZNK5Graph4sizeEv(%class.Graph* %29)
          to label %297 unwind label %269

; <label>:297:                                    ; preds = %295
  %298 = sext i32 %296 to i64
  store i8 0, i8* %24, align 1
  call void @_ZNSaIbEC2Ev(%"class.std::allocator.35"* %25) #4
  invoke void @_ZNSt6vectorIbSaIbEEC2EmRKbRKS0_(%"class.std::vector.31"* %23, i64 %298, i8* dereferenceable(1) %24, %"class.std::allocator.35"* dereferenceable(1) %25)
          to label %299 unwind label %393

; <label>:299:                                    ; preds = %297
  %300 = call dereferenceable(40) %"class.std::vector.31"* @_ZNSt6vectorIbSaIbEEaSEOS1_(%"class.std::vector.31"* %5, %"class.std::vector.31"* dereferenceable(40) %23) #4
  call void @_ZNSt6vectorIbSaIbEED2Ev(%"class.std::vector.31"* %23) #4
  call void @_ZNSaIbED2Ev(%"class.std::allocator.35"* %25) #4
  br label %301

; <label>:301:                                    ; preds = %400, %392, %299
  %302 = invoke zeroext i1 @_ZNKSt5stackIiSt5dequeIiSaIiEEE5emptyEv(%"class.std::stack"* %10)
          to label %303 unwind label %269

; <label>:303:                                    ; preds = %301
  %304 = xor i1 %302, true
  br i1 %304, label %305, label %405

; <label>:305:                                    ; preds = %303
  %306 = load i32, i32* @x.95
  %307 = load i32, i32* @y.96
  %308 = sub i32 %306, 1
  %309 = mul i32 %306, %308
  %310 = urem i32 %309, 2
  %311 = icmp eq i32 %310, 0
  %312 = icmp slt i32 %307, 10
  %313 = or i1 %311, %312
  br i1 %313, label %314, label %465

; <label>:314:                                    ; preds = %305, %465
  %315 = load i32, i32* @x.95
  %316 = load i32, i32* @y.96
  %317 = sub i32 %315, 1
  %318 = mul i32 %315, %317
  %319 = urem i32 %318, 2
  %320 = icmp eq i32 %319, 0
  %321 = icmp slt i32 %316, 10
  %322 = or i1 %320, %321
  br i1 %322, label %323, label %465

; <label>:323:                                    ; preds = %314
  %324 = invoke dereferenceable(4) i32* @_ZNSt5stackIiSt5dequeIiSaIiEEE3topEv(%"class.std::stack"* %10)
          to label %325 unwind label %269

; <label>:325:                                    ; preds = %323
  %326 = load i32, i32* @x.95
  %327 = load i32, i32* @y.96
  %328 = sub i32 %326, 1
  %329 = mul i32 %326, %328
  %330 = urem i32 %329, 2
  %331 = icmp eq i32 %330, 0
  %332 = icmp slt i32 %327, 10
  %333 = or i1 %331, %332
  br i1 %333, label %334, label %466

; <label>:334:                                    ; preds = %325, %466
  %335 = load i32, i32* %324, align 4
  store i32 %335, i32* %26, align 4
  %336 = load i32, i32* @x.95
  %337 = load i32, i32* @y.96
  %338 = sub i32 %336, 1
  %339 = mul i32 %336, %338
  %340 = urem i32 %339, 2
  %341 = icmp eq i32 %340, 0
  %342 = icmp slt i32 %337, 10
  %343 = or i1 %341, %342
  br i1 %343, label %344, label %466

; <label>:344:                                    ; preds = %334
  invoke void @_ZNSt5stackIiSt5dequeIiSaIiEEE3popEv(%"class.std::stack"* %10)
          to label %345 unwind label %269

; <label>:345:                                    ; preds = %344
  %346 = load i32, i32* %26, align 4
  %347 = sext i32 %346 to i64
  %348 = invoke { i64*, i64 } @_ZNSt6vectorIbSaIbEEixEm(%"class.std::vector.31"* %5, i64 %347)
          to label %349 unwind label %269

; <label>:349:                                    ; preds = %345
  %350 = load i32, i32* @x.95
  %351 = load i32, i32* @y.96
  %352 = sub i32 %350, 1
  %353 = mul i32 %350, %352
  %354 = urem i32 %353, 2
  %355 = icmp eq i32 %354, 0
  %356 = icmp slt i32 %351, 10
  %357 = or i1 %355, %356
  br i1 %357, label %358, label %468

; <label>:358:                                    ; preds = %349, %468
  %359 = bitcast %"struct.std::_Bit_reference"* %27 to { i64*, i64 }*
  %360 = getelementptr inbounds { i64*, i64 }, { i64*, i64 }* %359, i32 0, i32 0
  %361 = extractvalue { i64*, i64 } %348, 0
  store i64* %361, i64** %360, align 8
  %362 = getelementptr inbounds { i64*, i64 }, { i64*, i64 }* %359, i32 0, i32 1
  %363 = extractvalue { i64*, i64 } %348, 1
  store i64 %363, i64* %362, align 8
  %364 = call zeroext i1 @_ZNKSt14_Bit_referencecvbEv(%"struct.std::_Bit_reference"* %27) #4
  %365 = load i32, i32* @x.95
  %366 = load i32, i32* @y.96
  %367 = sub i32 %365, 1
  %368 = mul i32 %365, %367
  %369 = urem i32 %368, 2
  %370 = icmp eq i32 %369, 0
  %371 = icmp slt i32 %366, 10
  %372 = or i1 %370, %371
  br i1 %372, label %373, label %468

; <label>:373:                                    ; preds = %358
  br i1 %364, label %374, label %397

; <label>:374:                                    ; preds = %373
  %375 = load i32, i32* @x.95
  %376 = load i32, i32* @y.96
  %377 = sub i32 %375, 1
  %378 = mul i32 %375, %377
  %379 = urem i32 %378, 2
  %380 = icmp eq i32 %379, 0
  %381 = icmp slt i32 %376, 10
  %382 = or i1 %380, %381
  br i1 %382, label %383, label %475

; <label>:383:                                    ; preds = %374, %475
  %384 = load i32, i32* @x.95
  %385 = load i32, i32* @y.96
  %386 = sub i32 %384, 1
  %387 = mul i32 %384, %386
  %388 = urem i32 %387, 2
  %389 = icmp eq i32 %388, 0
  %390 = icmp slt i32 %385, 10
  %391 = or i1 %389, %390
  br i1 %391, label %392, label %475

; <label>:392:                                    ; preds = %383
  br label %301

; <label>:393:                                    ; preds = %297
  %394 = landingpad { i8*, i32 }
          cleanup
  %395 = extractvalue { i8*, i32 } %394, 0
  store i8* %395, i8** %6, align 8
  %396 = extractvalue { i8*, i32 } %394, 1
  store i32 %396, i32* %7, align 4
  call void @_ZNSaIbED2Ev(%"class.std::allocator.35"* %25) #4
  br label %407

; <label>:397:                                    ; preds = %373
  %398 = load i32, i32* %26, align 4
  invoke void @_ZNK5Graph22Kosaraju_dfs_decomposeERKSt6vectorIS0_I4EdgeSaIS1_EESaIS3_EEiRS0_IbSaIbEE(%"class.std::vector.5"* sret %28, %class.Graph* %29, %"class.std::vector"* dereferenceable(24) %14, i32 %398, %"class.std::vector.31"* dereferenceable(40) %5)
          to label %399 unwind label %269

; <label>:399:                                    ; preds = %397
  invoke void @_ZNSt6vectorIS_IiSaIiEESaIS1_EE9push_backEOS1_(%"class.std::vector.26"* %0, %"class.std::vector.5"* dereferenceable(24) %28)
          to label %400 unwind label %401

; <label>:400:                                    ; preds = %399
  call void @_ZNSt6vectorIiSaIiEED2Ev(%"class.std::vector.5"* %28) #4
  br label %301

; <label>:401:                                    ; preds = %399
  %402 = landingpad { i8*, i32 }
          cleanup
  %403 = extractvalue { i8*, i32 } %402, 0
  store i8* %403, i8** %6, align 8
  %404 = extractvalue { i8*, i32 } %402, 1
  store i32 %404, i32* %7, align 4
  call void @_ZNSt6vectorIiSaIiEED2Ev(%"class.std::vector.5"* %28) #4
  br label %407

; <label>:405:                                    ; preds = %303
  store i1 true, i1* %4, align 1
  call void @_ZNSt6vectorIS_I4EdgeSaIS0_EESaIS2_EED2Ev(%"class.std::vector"* %14) #4
  call void @_ZNSt5stackIiSt5dequeIiSaIiEEED2Ev(%"class.std::stack"* %10) #4
  call void @_ZNSt6vectorIbSaIbEED2Ev(%"class.std::vector.31"* %5) #4
  %406 = load i1, i1* %4, align 1
  br i1 %406, label %411, label %410

; <label>:407:                                    ; preds = %401, %393, %290
  call void @_ZNSt6vectorIS_I4EdgeSaIS0_EESaIS2_EED2Ev(%"class.std::vector"* %14) #4
  br label %408

; <label>:408:                                    ; preds = %407, %265, %125
  call void @_ZNSt5stackIiSt5dequeIiSaIiEEED2Ev(%"class.std::stack"* %10) #4
  br label %409

; <label>:409:                                    ; preds = %408, %121, %117
  call void @_ZNSt6vectorIbSaIbEED2Ev(%"class.std::vector.31"* %5) #4
  br label %430

; <label>:410:                                    ; preds = %405
  call void @_ZNSt6vectorIS_IiSaIiEESaIS1_EED2Ev(%"class.std::vector.26"* %0) #4
  br label %411

; <label>:411:                                    ; preds = %410, %405
  %412 = load i32, i32* @x.95
  %413 = load i32, i32* @y.96
  %414 = sub i32 %412, 1
  %415 = mul i32 %412, %414
  %416 = urem i32 %415, 2
  %417 = icmp eq i32 %416, 0
  %418 = icmp slt i32 %413, 10
  %419 = or i1 %417, %418
  br i1 %419, label %420, label %476

; <label>:420:                                    ; preds = %411, %476
  %421 = load i32, i32* @x.95
  %422 = load i32, i32* @y.96
  %423 = sub i32 %421, 1
  %424 = mul i32 %421, %423
  %425 = urem i32 %424, 2
  %426 = icmp eq i32 %425, 0
  %427 = icmp slt i32 %422, 10
  %428 = or i1 %426, %427
  br i1 %428, label %429, label %476

; <label>:429:                                    ; preds = %420
  ret void

; <label>:430:                                    ; preds = %409, %116, %91
  call void @_ZNSt6vectorIS_IiSaIiEESaIS1_EED2Ev(%"class.std::vector.26"* %0) #4
  br label %431

; <label>:431:                                    ; preds = %430
  %432 = load i8*, i8** %6, align 8
  %433 = load i32, i32* %7, align 4
  %434 = insertvalue { i8*, i32 } undef, i8* %432, 0
  %435 = insertvalue { i8*, i32 } %434, i32 %433, 1
  resume { i8*, i32 } %435

; <label>:436:                                    ; preds = %43, %34
  br label %43

; <label>:437:                                    ; preds = %66, %57
  %438 = icmp slt i32 %55, %56
  br label %66

; <label>:439:                                    ; preds = %104, %95
  %440 = landingpad { i8*, i32 }
          cleanup
  %441 = extractvalue { i8*, i32 } %440, 0
  store i8* %441, i8** %6, align 8
  %442 = extractvalue { i8*, i32 } %440, 1
  store i32 %442, i32* %7, align 4
  call void @_ZNSaIbED2Ev(%"class.std::allocator.35"* %9) #4
  br label %104

; <label>:443:                                    ; preds = %147, %138
  %444 = load i32, i32* %17, align 4
  br label %147

; <label>:445:                                    ; preds = %173, %164
  store %"class.std::vector.0"* %163, %"class.std::vector.0"** %18, align 8
  %446 = load %"class.std::vector.0"*, %"class.std::vector.0"** %18, align 8
  %447 = call %class.Edge* @_ZNKSt6vectorI4EdgeSaIS0_EE5beginEv(%"class.std::vector.0"* %446) #4
  %448 = getelementptr inbounds %"class.__gnu_cxx::__normal_iterator", %"class.__gnu_cxx::__normal_iterator"* %19, i32 0, i32 0
  store %class.Edge* %447, %class.Edge** %448, align 8
  %449 = load %"class.std::vector.0"*, %"class.std::vector.0"** %18, align 8
  %450 = call %class.Edge* @_ZNKSt6vectorI4EdgeSaIS0_EE3endEv(%"class.std::vector.0"* %449) #4
  %451 = getelementptr inbounds %"class.__gnu_cxx::__normal_iterator", %"class.__gnu_cxx::__normal_iterator"* %20, i32 0, i32 0
  store %class.Edge* %450, %class.Edge** %451, align 8
  br label %173

; <label>:452:                                    ; preds = %200, %191
  %453 = call dereferenceable(16) %class.Edge* @_ZNK9__gnu_cxx17__normal_iteratorIPK4EdgeSt6vectorIS1_SaIS1_EEEdeEv(%"class.__gnu_cxx::__normal_iterator"* %19) #4
  store %class.Edge* %453, %class.Edge** %21, align 8
  %454 = load %class.Edge*, %class.Edge** %21, align 8
  br label %200

; <label>:455:                                    ; preds = %222, %213
  %456 = sext i32 %212 to i64
  %457 = call dereferenceable(24) %"class.std::vector.0"* @_ZNSt6vectorIS_I4EdgeSaIS0_EESaIS2_EEixEm(%"class.std::vector"* %14, i64 %456) #4
  %458 = load %class.Edge*, %class.Edge** %21, align 8
  br label %222

; <label>:459:                                    ; preds = %248, %239
  %460 = load %class.Edge*, %class.Edge** %21, align 8
  br label %248

; <label>:461:                                    ; preds = %278, %269
  %462 = landingpad { i8*, i32 }
          cleanup
  %463 = extractvalue { i8*, i32 } %462, 0
  store i8* %463, i8** %6, align 8
  %464 = extractvalue { i8*, i32 } %462, 1
  store i32 %464, i32* %7, align 4
  br label %278

; <label>:465:                                    ; preds = %314, %305
  br label %314

; <label>:466:                                    ; preds = %334, %325
  %467 = load i32, i32* %324, align 4
  store i32 %467, i32* %26, align 4
  br label %334

; <label>:468:                                    ; preds = %358, %349
  %469 = bitcast %"struct.std::_Bit_reference"* %27 to { i64*, i64 }*
  %470 = getelementptr inbounds { i64*, i64 }, { i64*, i64 }* %469, i32 0, i32 0
  %471 = extractvalue { i64*, i64 } %348, 0
  store i64* %471, i64** %470, align 8
  %472 = getelementptr inbounds { i64*, i64 }, { i64*, i64 }* %469, i32 0, i32 1
  %473 = extractvalue { i64*, i64 } %348, 1
  store i64 %473, i64* %472, align 8
  %474 = call zeroext i1 @_ZNKSt14_Bit_referencecvbEv(%"struct.std::_Bit_reference"* %27) #4
  br label %358

; <label>:475:                                    ; preds = %383, %374
  br label %383

; <label>:476:                                    ; preds = %420, %411
  br label %420
}

; Function Attrs: noinline nounwind uwtable
define linkonce_odr void @_ZNSt6vectorIS_IiSaIiEESaIS1_EEC2Ev(%"class.std::vector.26"*) unnamed_addr #1 comdat align 2 personality i8* bitcast (i32 (...)* @__gxx_personality_v0 to i8*) {
  %2 = alloca %"class.std::vector.26"*, align 8
  store %"class.std::vector.26"* %0, %"class.std::vector.26"** %2, align 8
  %3 = load %"class.std::vector.26"*, %"class.std::vector.26"** %2, align 8
  %4 = bitcast %"class.std::vector.26"* %3 to %"struct.std::_Vector_base.27"*
  invoke void @_ZNSt12_Vector_baseISt6vectorIiSaIiEESaIS2_EEC2Ev(%"struct.std::_Vector_base.27"* %4)
          to label %5 unwind label %6

; <label>:5:                                      ; preds = %1
  ret void

; <label>:6:                                      ; preds = %1
  %7 = landingpad { i8*, i32 }
          catch i8* null
  %8 = extractvalue { i8*, i32 } %7, 0
  call void @__clang_call_terminate(i8* %8) #8
  unreachable
}

; Function Attrs: noinline nounwind uwtable
define linkonce_odr void @_ZNSaIbEC2Ev(%"class.std::allocator.35"*) unnamed_addr #1 comdat align 2 {
  %2 = alloca %"class.std::allocator.35"*, align 8
  store %"class.std::allocator.35"* %0, %"class.std::allocator.35"** %2, align 8
  %3 = load %"class.std::allocator.35"*, %"class.std::allocator.35"** %2, align 8
  %4 = bitcast %"class.std::allocator.35"* %3 to %"class.__gnu_cxx::new_allocator.36"*
  call void @_ZN9__gnu_cxx13new_allocatorIbEC2Ev(%"class.__gnu_cxx::new_allocator.36"* %4) #4
  ret void
}

; Function Attrs: noinline uwtable
define linkonce_odr void @_ZNSt6vectorIbSaIbEEC2EmRKbRKS0_(%"class.std::vector.31"*, i64, i8* dereferenceable(1), %"class.std::allocator.35"* dereferenceable(1)) unnamed_addr #0 comdat align 2 personality i8* bitcast (i32 (...)* @__gxx_personality_v0 to i8*) {
  %5 = alloca %"class.std::vector.31"*, align 8
  %6 = alloca i64, align 8
  %7 = alloca i8*, align 8
  %8 = alloca %"class.std::allocator.35"*, align 8
  %9 = alloca i8*
  %10 = alloca i32
  %11 = alloca i32, align 4
  store %"class.std::vector.31"* %0, %"class.std::vector.31"** %5, align 8
  store i64 %1, i64* %6, align 8
  store i8* %2, i8** %7, align 8
  store %"class.std::allocator.35"* %3, %"class.std::allocator.35"** %8, align 8
  %12 = load %"class.std::vector.31"*, %"class.std::vector.31"** %5, align 8
  %13 = bitcast %"class.std::vector.31"* %12 to %"struct.std::_Bvector_base"*
  %14 = load %"class.std::allocator.35"*, %"class.std::allocator.35"** %8, align 8
  call void @_ZNSt13_Bvector_baseISaIbEEC2ERKS0_(%"struct.std::_Bvector_base"* %13, %"class.std::allocator.35"* dereferenceable(1) %14)
  %15 = load i64, i64* %6, align 8
  invoke void @_ZNSt6vectorIbSaIbEE13_M_initializeEm(%"class.std::vector.31"* %12, i64 %15)
          to label %16 unwind label %31

; <label>:16:                                     ; preds = %4
  %17 = bitcast %"class.std::vector.31"* %12 to %"struct.std::_Bvector_base"*
  %18 = getelementptr inbounds %"struct.std::_Bvector_base", %"struct.std::_Bvector_base"* %17, i32 0, i32 0
  %19 = getelementptr inbounds %"struct.std::_Bvector_base<std::allocator<bool> >::_Bvector_impl", %"struct.std::_Bvector_base<std::allocator<bool> >::_Bvector_impl"* %18, i32 0, i32 0
  %20 = bitcast %"struct.std::_Bit_iterator"* %19 to %"struct.std::_Bit_iterator_base"*
  %21 = getelementptr inbounds %"struct.std::_Bit_iterator_base", %"struct.std::_Bit_iterator_base"* %20, i32 0, i32 0
  %22 = load i64*, i64** %21, align 8
  %23 = bitcast %"class.std::vector.31"* %12 to %"struct.std::_Bvector_base"*
  %24 = getelementptr inbounds %"struct.std::_Bvector_base", %"struct.std::_Bvector_base"* %23, i32 0, i32 0
  %25 = call i64* @_ZNKSt13_Bvector_baseISaIbEE13_Bvector_impl11_M_end_addrEv(%"struct.std::_Bvector_base<std::allocator<bool> >::_Bvector_impl"* %24) #4
  %26 = load i8*, i8** %7, align 8
  %27 = load i8, i8* %26, align 1
  %28 = trunc i8 %27 to i1
  %29 = select i1 %28, i32 -1, i32 0
  store i32 %29, i32* %11, align 4
  invoke void @_ZSt4fillIPmiEvT_S1_RKT0_(i64* %22, i64* %25, i32* dereferenceable(4) %11)
          to label %30 unwind label %31

; <label>:30:                                     ; preds = %16
  ret void

; <label>:31:                                     ; preds = %16, %4
  %32 = load i32, i32* @x.101
  %33 = load i32, i32* @y.102
  %34 = sub i32 %32, 1
  %35 = mul i32 %32, %34
  %36 = urem i32 %35, 2
  %37 = icmp eq i32 %36, 0
  %38 = icmp slt i32 %33, 10
  %39 = or i1 %37, %38
  br i1 %39, label %40, label %77

; <label>:40:                                     ; preds = %31, %77
  %41 = landingpad { i8*, i32 }
          cleanup
  %42 = extractvalue { i8*, i32 } %41, 0
  store i8* %42, i8** %9, align 8
  %43 = extractvalue { i8*, i32 } %41, 1
  store i32 %43, i32* %10, align 4
  %44 = bitcast %"class.std::vector.31"* %12 to %"struct.std::_Bvector_base"*
  call void @_ZNSt13_Bvector_baseISaIbEED2Ev(%"struct.std::_Bvector_base"* %44) #4
  %45 = load i32, i32* @x.101
  %46 = load i32, i32* @y.102
  %47 = sub i32 %45, 1
  %48 = mul i32 %45, %47
  %49 = urem i32 %48, 2
  %50 = icmp eq i32 %49, 0
  %51 = icmp slt i32 %46, 10
  %52 = or i1 %50, %51
  br i1 %52, label %53, label %77

; <label>:53:                                     ; preds = %40
  br label %54

; <label>:54:                                     ; preds = %53
  %55 = load i32, i32* @x.101
  %56 = load i32, i32* @y.102
  %57 = sub i32 %55, 1
  %58 = mul i32 %55, %57
  %59 = urem i32 %58, 2
  %60 = icmp eq i32 %59, 0
  %61 = icmp slt i32 %56, 10
  %62 = or i1 %60, %61
  br i1 %62, label %63, label %82

; <label>:63:                                     ; preds = %54, %82
  %64 = load i8*, i8** %9, align 8
  %65 = load i32, i32* %10, align 4
  %66 = insertvalue { i8*, i32 } undef, i8* %64, 0
  %67 = insertvalue { i8*, i32 } %66, i32 %65, 1
  %68 = load i32, i32* @x.101
  %69 = load i32, i32* @y.102
  %70 = sub i32 %68, 1
  %71 = mul i32 %68, %70
  %72 = urem i32 %71, 2
  %73 = icmp eq i32 %72, 0
  %74 = icmp slt i32 %69, 10
  %75 = or i1 %73, %74
  br i1 %75, label %76, label %82

; <label>:76:                                     ; preds = %63
  resume { i8*, i32 } %67

; <label>:77:                                     ; preds = %40, %31
  %78 = landingpad { i8*, i32 }
          cleanup
  %79 = extractvalue { i8*, i32 } %78, 0
  store i8* %79, i8** %9, align 8
  %80 = extractvalue { i8*, i32 } %78, 1
  store i32 %80, i32* %10, align 4
  %81 = bitcast %"class.std::vector.31"* %12 to %"struct.std::_Bvector_base"*
  call void @_ZNSt13_Bvector_baseISaIbEED2Ev(%"struct.std::_Bvector_base"* %81) #4
  br label %40

; <label>:82:                                     ; preds = %63, %54
  %83 = load i8*, i8** %9, align 8
  %84 = load i32, i32* %10, align 4
  %85 = insertvalue { i8*, i32 } undef, i8* %83, 0
  %86 = insertvalue { i8*, i32 } %85, i32 %84, 1
  br label %63
}

; Function Attrs: noinline nounwind uwtable
define linkonce_odr void @_ZNSaIbED2Ev(%"class.std::allocator.35"*) unnamed_addr #1 comdat align 2 {
  %2 = alloca %"class.std::allocator.35"*, align 8
  store %"class.std::allocator.35"* %0, %"class.std::allocator.35"** %2, align 8
  %3 = load %"class.std::allocator.35"*, %"class.std::allocator.35"** %2, align 8
  %4 = bitcast %"class.std::allocator.35"* %3 to %"class.__gnu_cxx::new_allocator.36"*
  call void @_ZN9__gnu_cxx13new_allocatorIbED2Ev(%"class.__gnu_cxx::new_allocator.36"* %4) #4
  ret void
}

; Function Attrs: noinline uwtable
define linkonce_odr void @_ZNSt5dequeIiSaIiEEC2Ev(%"class.std::deque"*) unnamed_addr #0 comdat align 2 {
  %2 = alloca %"class.std::deque"*, align 8
  store %"class.std::deque"* %0, %"class.std::deque"** %2, align 8
  %3 = load %"class.std::deque"*, %"class.std::deque"** %2, align 8
  %4 = bitcast %"class.std::deque"* %3 to %"class.std::_Deque_base"*
  call void @_ZNSt11_Deque_baseIiSaIiEEC2Ev(%"class.std::_Deque_base"* %4)
  ret void
}

; Function Attrs: noinline uwtable
define linkonce_odr void @_ZNSt5stackIiSt5dequeIiSaIiEEEC2EOS2_(%"class.std::stack"*, %"class.std::deque"* dereferenceable(80)) unnamed_addr #0 comdat align 2 {
  %3 = alloca %"class.std::stack"*, align 8
  %4 = alloca %"class.std::deque"*, align 8
  store %"class.std::stack"* %0, %"class.std::stack"** %3, align 8
  store %"class.std::deque"* %1, %"class.std::deque"** %4, align 8
  %5 = load %"class.std::stack"*, %"class.std::stack"** %3, align 8
  %6 = getelementptr inbounds %"class.std::stack", %"class.std::stack"* %5, i32 0, i32 0
  %7 = load %"class.std::deque"*, %"class.std::deque"** %4, align 8
  %8 = call dereferenceable(80) %"class.std::deque"* @_ZSt4moveIRSt5dequeIiSaIiEEEONSt16remove_referenceIT_E4typeEOS5_(%"class.std::deque"* dereferenceable(80) %7) #4
  call void @_ZNSt5dequeIiSaIiEEC2EOS1_(%"class.std::deque"* %6, %"class.std::deque"* dereferenceable(80) %8)
  ret void
}

; Function Attrs: noinline nounwind uwtable
define linkonce_odr void @_ZNSt5dequeIiSaIiEED2Ev(%"class.std::deque"*) unnamed_addr #1 comdat align 2 personality i8* bitcast (i32 (...)* @__gxx_personality_v0 to i8*) {
  %2 = alloca %"class.std::deque"*, align 8
  %3 = alloca %"struct.std::_Deque_iterator", align 8
  %4 = alloca %"struct.std::_Deque_iterator", align 8
  %5 = alloca i8*
  %6 = alloca i32
  store %"class.std::deque"* %0, %"class.std::deque"** %2, align 8
  %7 = load %"class.std::deque"*, %"class.std::deque"** %2, align 8
  call void @_ZNSt5dequeIiSaIiEE5beginEv(%"struct.std::_Deque_iterator"* sret %3, %"class.std::deque"* %7) #4
  call void @_ZNSt5dequeIiSaIiEE3endEv(%"struct.std::_Deque_iterator"* sret %4, %"class.std::deque"* %7) #4
  %8 = bitcast %"class.std::deque"* %7 to %"class.std::_Deque_base"*
  %9 = call dereferenceable(1) %"class.std::allocator.7"* @_ZNSt11_Deque_baseIiSaIiEE19_M_get_Tp_allocatorEv(%"class.std::_Deque_base"* %8) #4
  invoke void @_ZNSt5dequeIiSaIiEE15_M_destroy_dataESt15_Deque_iteratorIiRiPiES5_RKS0_(%"class.std::deque"* %7, %"struct.std::_Deque_iterator"* %3, %"struct.std::_Deque_iterator"* %4, %"class.std::allocator.7"* dereferenceable(1) %9)
          to label %10 unwind label %12

; <label>:10:                                     ; preds = %1
  %11 = bitcast %"class.std::deque"* %7 to %"class.std::_Deque_base"*
  call void @_ZNSt11_Deque_baseIiSaIiEED2Ev(%"class.std::_Deque_base"* %11) #4
  ret void

; <label>:12:                                     ; preds = %1
  %13 = landingpad { i8*, i32 }
          catch i8* null
  %14 = extractvalue { i8*, i32 } %13, 0
  store i8* %14, i8** %5, align 8
  %15 = extractvalue { i8*, i32 } %13, 1
  store i32 %15, i32* %6, align 4
  %16 = bitcast %"class.std::deque"* %7 to %"class.std::_Deque_base"*
  call void @_ZNSt11_Deque_baseIiSaIiEED2Ev(%"class.std::_Deque_base"* %16) #4
  br label %17

; <label>:17:                                     ; preds = %12
  %18 = load i8*, i8** %5, align 8
  call void @__clang_call_terminate(i8* %18) #8
  unreachable
}

; Function Attrs: noinline uwtable
define linkonce_odr { i64*, i64 } @_ZNSt6vectorIbSaIbEEixEm(%"class.std::vector.31"*, i64) #0 comdat align 2 {
  %3 = load i32, i32* @x.111
  %4 = load i32, i32* @y.112
  %5 = sub i32 %3, 1
  %6 = mul i32 %3, %5
  %7 = urem i32 %6, 2
  %8 = icmp eq i32 %7, 0
  %9 = icmp slt i32 %4, 10
  %10 = or i1 %8, %9
  br i1 %10, label %11, label %46

; <label>:11:                                     ; preds = %2, %46
  %12 = alloca %"struct.std::_Bit_reference", align 8
  %13 = alloca %"class.std::vector.31"*, align 8
  %14 = alloca i64, align 8
  %15 = alloca %"struct.std::_Bit_iterator", align 8
  store %"class.std::vector.31"* %0, %"class.std::vector.31"** %13, align 8
  store i64 %1, i64* %14, align 8
  %16 = load %"class.std::vector.31"*, %"class.std::vector.31"** %13, align 8
  %17 = bitcast %"class.std::vector.31"* %16 to %"struct.std::_Bvector_base"*
  %18 = getelementptr inbounds %"struct.std::_Bvector_base", %"struct.std::_Bvector_base"* %17, i32 0, i32 0
  %19 = getelementptr inbounds %"struct.std::_Bvector_base<std::allocator<bool> >::_Bvector_impl", %"struct.std::_Bvector_base<std::allocator<bool> >::_Bvector_impl"* %18, i32 0, i32 0
  %20 = bitcast %"struct.std::_Bit_iterator"* %19 to %"struct.std::_Bit_iterator_base"*
  %21 = getelementptr inbounds %"struct.std::_Bit_iterator_base", %"struct.std::_Bit_iterator_base"* %20, i32 0, i32 0
  %22 = load i64*, i64** %21, align 8
  %23 = load i64, i64* %14, align 8
  %24 = udiv i64 %23, 64
  %25 = getelementptr inbounds i64, i64* %22, i64 %24
  %26 = load i64, i64* %14, align 8
  %27 = urem i64 %26, 64
  %28 = trunc i64 %27 to i32
  call void @_ZNSt13_Bit_iteratorC2EPmj(%"struct.std::_Bit_iterator"* %15, i64* %25, i32 %28)
  %29 = call { i64*, i64 } @_ZNKSt13_Bit_iteratordeEv(%"struct.std::_Bit_iterator"* %15)
  %30 = bitcast %"struct.std::_Bit_reference"* %12 to { i64*, i64 }*
  %31 = getelementptr inbounds { i64*, i64 }, { i64*, i64 }* %30, i32 0, i32 0
  %32 = extractvalue { i64*, i64 } %29, 0
  store i64* %32, i64** %31, align 8
  %33 = getelementptr inbounds { i64*, i64 }, { i64*, i64 }* %30, i32 0, i32 1
  %34 = extractvalue { i64*, i64 } %29, 1
  store i64 %34, i64* %33, align 8
  %35 = bitcast %"struct.std::_Bit_reference"* %12 to { i64*, i64 }*
  %36 = load { i64*, i64 }, { i64*, i64 }* %35, align 8
  %37 = load i32, i32* @x.111
  %38 = load i32, i32* @y.112
  %39 = sub i32 %37, 1
  %40 = mul i32 %37, %39
  %41 = urem i32 %40, 2
  %42 = icmp eq i32 %41, 0
  %43 = icmp slt i32 %38, 10
  %44 = or i1 %42, %43
  br i1 %44, label %45, label %46

; <label>:45:                                     ; preds = %11
  ret { i64*, i64 } %36

; <label>:46:                                     ; preds = %11, %2
  %47 = alloca %"struct.std::_Bit_reference", align 8
  %48 = alloca %"class.std::vector.31"*, align 8
  %49 = alloca i64, align 8
  %50 = alloca %"struct.std::_Bit_iterator", align 8
  store %"class.std::vector.31"* %0, %"class.std::vector.31"** %48, align 8
  store i64 %1, i64* %49, align 8
  %51 = load %"class.std::vector.31"*, %"class.std::vector.31"** %48, align 8
  %52 = bitcast %"class.std::vector.31"* %51 to %"struct.std::_Bvector_base"*
  %53 = getelementptr inbounds %"struct.std::_Bvector_base", %"struct.std::_Bvector_base"* %52, i32 0, i32 0
  %54 = getelementptr inbounds %"struct.std::_Bvector_base<std::allocator<bool> >::_Bvector_impl", %"struct.std::_Bvector_base<std::allocator<bool> >::_Bvector_impl"* %53, i32 0, i32 0
  %55 = bitcast %"struct.std::_Bit_iterator"* %54 to %"struct.std::_Bit_iterator_base"*
  %56 = getelementptr inbounds %"struct.std::_Bit_iterator_base", %"struct.std::_Bit_iterator_base"* %55, i32 0, i32 0
  %57 = load i64*, i64** %56, align 8
  %58 = load i64, i64* %49, align 8
  %59 = sub i64 %58, 64
  %60 = mul i64 %59, 64
  %61 = sub i64 0, %58
  %62 = add i64 %61, 64
  %63 = shl i64 %58, 64
  %64 = sub i64 %58, 64
  %65 = mul i64 %64, 64
  %66 = sub i64 0, %58
  %67 = add i64 %66, 64
  %68 = sub i64 0, %58
  %69 = add i64 %68, 64
  %70 = udiv i64 %58, 64
  %71 = getelementptr inbounds i64, i64* %57, i64 %70
  %72 = load i64, i64* %49, align 8
  %73 = sub i64 0, %72
  %74 = add i64 %73, 64
  %75 = sub i64 0, %72
  %76 = add i64 %75, 64
  %77 = shl i64 %72, 64
  %78 = sub i64 0, %72
  %79 = add i64 %78, 64
  %80 = sub i64 %72, 64
  %81 = mul i64 %80, 64
  %82 = urem i64 %72, 64
  %83 = trunc i64 %82 to i32
  call void @_ZNSt13_Bit_iteratorC2EPmj(%"struct.std::_Bit_iterator"* %50, i64* %71, i32 %83)
  %84 = call { i64*, i64 } @_ZNKSt13_Bit_iteratordeEv(%"struct.std::_Bit_iterator"* %50)
  %85 = bitcast %"struct.std::_Bit_reference"* %47 to { i64*, i64 }*
  %86 = getelementptr inbounds { i64*, i64 }, { i64*, i64 }* %85, i32 0, i32 0
  %87 = extractvalue { i64*, i64 } %84, 0
  store i64* %87, i64** %86, align 8
  %88 = getelementptr inbounds { i64*, i64 }, { i64*, i64 }* %85, i32 0, i32 1
  %89 = extractvalue { i64*, i64 } %84, 1
  store i64 %89, i64* %88, align 8
  %90 = bitcast %"struct.std::_Bit_reference"* %47 to { i64*, i64 }*
  %91 = load { i64*, i64 }, { i64*, i64 }* %90, align 8
  br label %11
}

; Function Attrs: noinline nounwind uwtable
define linkonce_odr zeroext i1 @_ZNKSt14_Bit_referencecvbEv(%"struct.std::_Bit_reference"*) #1 comdat align 2 {
  %2 = alloca %"struct.std::_Bit_reference"*, align 8
  store %"struct.std::_Bit_reference"* %0, %"struct.std::_Bit_reference"** %2, align 8
  %3 = load %"struct.std::_Bit_reference"*, %"struct.std::_Bit_reference"** %2, align 8
  %4 = getelementptr inbounds %"struct.std::_Bit_reference", %"struct.std::_Bit_reference"* %3, i32 0, i32 0
  %5 = load i64*, i64** %4, align 8
  %6 = load i64, i64* %5, align 8
  %7 = getelementptr inbounds %"struct.std::_Bit_reference", %"struct.std::_Bit_reference"* %3, i32 0, i32 1
  %8 = load i64, i64* %7, align 8
  %9 = and i64 %6, %8
  %10 = icmp ne i64 %9, 0
  %11 = xor i1 %10, true
  %12 = xor i1 %11, true
  ret i1 %12
}

; Function Attrs: noinline uwtable
define void @_ZNK5Graph22Kosaraju_dfs_postorderEiRSt6vectorIbSaIbEERSt5stackIiSt5dequeIiSaIiEEE(%class.Graph*, i32, %"class.std::vector.31"* dereferenceable(40), %"class.std::stack"* dereferenceable(80)) #0 align 2 {
  %5 = alloca %class.Graph*, align 8
  %6 = alloca i32, align 4
  %7 = alloca %"class.std::vector.31"*, align 8
  %8 = alloca %"class.std::stack"*, align 8
  %9 = alloca %"struct.std::_Bit_reference", align 8
  %10 = alloca %"class.std::vector.0"*, align 8
  %11 = alloca %"class.__gnu_cxx::__normal_iterator", align 8
  %12 = alloca %"class.__gnu_cxx::__normal_iterator", align 8
  %13 = alloca %class.Edge*, align 8
  %14 = alloca %"struct.std::_Bit_reference", align 8
  store %class.Graph* %0, %class.Graph** %5, align 8
  store i32 %1, i32* %6, align 4
  store %"class.std::vector.31"* %2, %"class.std::vector.31"** %7, align 8
  store %"class.std::stack"* %3, %"class.std::stack"** %8, align 8
  %15 = load %class.Graph*, %class.Graph** %5, align 8
  %16 = load %"class.std::vector.31"*, %"class.std::vector.31"** %7, align 8
  %17 = load i32, i32* %6, align 4
  %18 = sext i32 %17 to i64
  %19 = call { i64*, i64 } @_ZNSt6vectorIbSaIbEEixEm(%"class.std::vector.31"* %16, i64 %18)
  %20 = bitcast %"struct.std::_Bit_reference"* %9 to { i64*, i64 }*
  %21 = getelementptr inbounds { i64*, i64 }, { i64*, i64 }* %20, i32 0, i32 0
  %22 = extractvalue { i64*, i64 } %19, 0
  store i64* %22, i64** %21, align 8
  %23 = getelementptr inbounds { i64*, i64 }, { i64*, i64 }* %20, i32 0, i32 1
  %24 = extractvalue { i64*, i64 } %19, 1
  store i64 %24, i64* %23, align 8
  %25 = call dereferenceable(16) %"struct.std::_Bit_reference"* @_ZNSt14_Bit_referenceaSEb(%"struct.std::_Bit_reference"* %9, i1 zeroext true) #4
  %26 = load i32, i32* %6, align 4
  %27 = call dereferenceable(24) %"class.std::vector.0"* @_ZNK5Graph4edgeEi(%class.Graph* %15, i32 %26)
  store %"class.std::vector.0"* %27, %"class.std::vector.0"** %10, align 8
  %28 = load %"class.std::vector.0"*, %"class.std::vector.0"** %10, align 8
  %29 = call %class.Edge* @_ZNKSt6vectorI4EdgeSaIS0_EE5beginEv(%"class.std::vector.0"* %28) #4
  %30 = getelementptr inbounds %"class.__gnu_cxx::__normal_iterator", %"class.__gnu_cxx::__normal_iterator"* %11, i32 0, i32 0
  store %class.Edge* %29, %class.Edge** %30, align 8
  %31 = load %"class.std::vector.0"*, %"class.std::vector.0"** %10, align 8
  %32 = call %class.Edge* @_ZNKSt6vectorI4EdgeSaIS0_EE3endEv(%"class.std::vector.0"* %31) #4
  %33 = getelementptr inbounds %"class.__gnu_cxx::__normal_iterator", %"class.__gnu_cxx::__normal_iterator"* %12, i32 0, i32 0
  store %class.Edge* %32, %class.Edge** %33, align 8
  br label %34

; <label>:34:                                     ; preds = %73, %4
  %35 = call zeroext i1 @_ZN9__gnu_cxxneIPK4EdgeSt6vectorIS1_SaIS1_EEEEbRKNS_17__normal_iteratorIT_T0_EESC_(%"class.__gnu_cxx::__normal_iterator"* dereferenceable(8) %11, %"class.__gnu_cxx::__normal_iterator"* dereferenceable(8) %12) #4
  br i1 %35, label %36, label %75

; <label>:36:                                     ; preds = %34
  %37 = call dereferenceable(16) %class.Edge* @_ZNK9__gnu_cxx17__normal_iteratorIPK4EdgeSt6vectorIS1_SaIS1_EEEdeEv(%"class.__gnu_cxx::__normal_iterator"* %11) #4
  store %class.Edge* %37, %class.Edge** %13, align 8
  %38 = load %"class.std::vector.31"*, %"class.std::vector.31"** %7, align 8
  %39 = load %class.Edge*, %class.Edge** %13, align 8
  %40 = call i32 @_ZNK4Edge2toEv(%class.Edge* %39)
  %41 = sext i32 %40 to i64
  %42 = call { i64*, i64 } @_ZNSt6vectorIbSaIbEEixEm(%"class.std::vector.31"* %38, i64 %41)
  %43 = bitcast %"struct.std::_Bit_reference"* %14 to { i64*, i64 }*
  %44 = getelementptr inbounds { i64*, i64 }, { i64*, i64 }* %43, i32 0, i32 0
  %45 = extractvalue { i64*, i64 } %42, 0
  store i64* %45, i64** %44, align 8
  %46 = getelementptr inbounds { i64*, i64 }, { i64*, i64 }* %43, i32 0, i32 1
  %47 = extractvalue { i64*, i64 } %42, 1
  store i64 %47, i64* %46, align 8
  %48 = call zeroext i1 @_ZNKSt14_Bit_referencecvbEv(%"struct.std::_Bit_reference"* %14) #4
  br i1 %48, label %72, label %49

; <label>:49:                                     ; preds = %36
  %50 = load i32, i32* @x.115
  %51 = load i32, i32* @y.116
  %52 = sub i32 %50, 1
  %53 = mul i32 %50, %52
  %54 = urem i32 %53, 2
  %55 = icmp eq i32 %54, 0
  %56 = icmp slt i32 %51, 10
  %57 = or i1 %55, %56
  br i1 %57, label %58, label %95

; <label>:58:                                     ; preds = %49, %95
  %59 = load %class.Edge*, %class.Edge** %13, align 8
  %60 = call i32 @_ZNK4Edge2toEv(%class.Edge* %59)
  %61 = load %"class.std::vector.31"*, %"class.std::vector.31"** %7, align 8
  %62 = load %"class.std::stack"*, %"class.std::stack"** %8, align 8
  call void @_ZNK5Graph22Kosaraju_dfs_postorderEiRSt6vectorIbSaIbEERSt5stackIiSt5dequeIiSaIiEEE(%class.Graph* %15, i32 %60, %"class.std::vector.31"* dereferenceable(40) %61, %"class.std::stack"* dereferenceable(80) %62)
  %63 = load i32, i32* @x.115
  %64 = load i32, i32* @y.116
  %65 = sub i32 %63, 1
  %66 = mul i32 %63, %65
  %67 = urem i32 %66, 2
  %68 = icmp eq i32 %67, 0
  %69 = icmp slt i32 %64, 10
  %70 = or i1 %68, %69
  br i1 %70, label %71, label %95

; <label>:71:                                     ; preds = %58
  br label %72

; <label>:72:                                     ; preds = %71, %36
  br label %73

; <label>:73:                                     ; preds = %72
  %74 = call dereferenceable(8) %"class.__gnu_cxx::__normal_iterator"* @_ZN9__gnu_cxx17__normal_iteratorIPK4EdgeSt6vectorIS1_SaIS1_EEEppEv(%"class.__gnu_cxx::__normal_iterator"* %11) #4
  br label %34

; <label>:75:                                     ; preds = %34
  %76 = load i32, i32* @x.115
  %77 = load i32, i32* @y.116
  %78 = sub i32 %76, 1
  %79 = mul i32 %76, %78
  %80 = urem i32 %79, 2
  %81 = icmp eq i32 %80, 0
  %82 = icmp slt i32 %77, 10
  %83 = or i1 %81, %82
  br i1 %83, label %84, label %100

; <label>:84:                                     ; preds = %75, %100
  %85 = load %"class.std::stack"*, %"class.std::stack"** %8, align 8
  call void @_ZNSt5stackIiSt5dequeIiSaIiEEE4pushERKi(%"class.std::stack"* %85, i32* dereferenceable(4) %6)
  %86 = load i32, i32* @x.115
  %87 = load i32, i32* @y.116
  %88 = sub i32 %86, 1
  %89 = mul i32 %86, %88
  %90 = urem i32 %89, 2
  %91 = icmp eq i32 %90, 0
  %92 = icmp slt i32 %87, 10
  %93 = or i1 %91, %92
  br i1 %93, label %94, label %100

; <label>:94:                                     ; preds = %84
  ret void

; <label>:95:                                     ; preds = %58, %49
  %96 = load %class.Edge*, %class.Edge** %13, align 8
  %97 = call i32 @_ZNK4Edge2toEv(%class.Edge* %96)
  %98 = load %"class.std::vector.31"*, %"class.std::vector.31"** %7, align 8
  %99 = load %"class.std::stack"*, %"class.std::stack"** %8, align 8
  call void @_ZNK5Graph22Kosaraju_dfs_postorderEiRSt6vectorIbSaIbEERSt5stackIiSt5dequeIiSaIiEEE(%class.Graph* %15, i32 %97, %"class.std::vector.31"* dereferenceable(40) %98, %"class.std::stack"* dereferenceable(80) %99)
  br label %58

; <label>:100:                                    ; preds = %84, %75
  %101 = load %"class.std::stack"*, %"class.std::stack"** %8, align 8
  call void @_ZNSt5stackIiSt5dequeIiSaIiEEE4pushERKi(%"class.std::stack"* %101, i32* dereferenceable(4) %6)
  br label %84
}

; Function Attrs: noinline nounwind uwtable
define linkonce_odr void @_ZNSt6vectorI4EdgeSaIS0_EEC2Ev(%"class.std::vector.0"*) unnamed_addr #1 comdat align 2 personality i8* bitcast (i32 (...)* @__gxx_personality_v0 to i8*) {
  %2 = alloca %"class.std::vector.0"*, align 8
  store %"class.std::vector.0"* %0, %"class.std::vector.0"** %2, align 8
  %3 = load %"class.std::vector.0"*, %"class.std::vector.0"** %2, align 8
  %4 = bitcast %"class.std::vector.0"* %3 to %"struct.std::_Vector_base.1"*
  invoke void @_ZNSt12_Vector_baseI4EdgeSaIS0_EEC2Ev(%"struct.std::_Vector_base.1"* %4)
          to label %5 unwind label %6

; <label>:5:                                      ; preds = %1
  ret void

; <label>:6:                                      ; preds = %1
  %7 = landingpad { i8*, i32 }
          catch i8* null
  %8 = extractvalue { i8*, i32 } %7, 0
  call void @__clang_call_terminate(i8* %8) #8
  unreachable
}

; Function Attrs: noinline nounwind uwtable
define linkonce_odr void @_ZNSaISt6vectorI4EdgeSaIS0_EEEC2Ev(%"class.std::allocator"*) unnamed_addr #1 comdat align 2 {
  %2 = load i32, i32* @x.119
  %3 = load i32, i32* @y.120
  %4 = sub i32 %2, 1
  %5 = mul i32 %2, %4
  %6 = urem i32 %5, 2
  %7 = icmp eq i32 %6, 0
  %8 = icmp slt i32 %3, 10
  %9 = or i1 %7, %8
  br i1 %9, label %10, label %23

; <label>:10:                                     ; preds = %1, %23
  %11 = alloca %"class.std::allocator"*, align 8
  store %"class.std::allocator"* %0, %"class.std::allocator"** %11, align 8
  %12 = load %"class.std::allocator"*, %"class.std::allocator"** %11, align 8
  %13 = bitcast %"class.std::allocator"* %12 to %"class.__gnu_cxx::new_allocator"*
  call void @_ZN9__gnu_cxx13new_allocatorISt6vectorI4EdgeSaIS2_EEEC2Ev(%"class.__gnu_cxx::new_allocator"* %13) #4
  %14 = load i32, i32* @x.119
  %15 = load i32, i32* @y.120
  %16 = sub i32 %14, 1
  %17 = mul i32 %14, %16
  %18 = urem i32 %17, 2
  %19 = icmp eq i32 %18, 0
  %20 = icmp slt i32 %15, 10
  %21 = or i1 %19, %20
  br i1 %21, label %22, label %23

; <label>:22:                                     ; preds = %10
  ret void

; <label>:23:                                     ; preds = %10, %1
  %24 = alloca %"class.std::allocator"*, align 8
  store %"class.std::allocator"* %0, %"class.std::allocator"** %24, align 8
  %25 = load %"class.std::allocator"*, %"class.std::allocator"** %24, align 8
  %26 = bitcast %"class.std::allocator"* %25 to %"class.__gnu_cxx::new_allocator"*
  call void @_ZN9__gnu_cxx13new_allocatorISt6vectorI4EdgeSaIS2_EEEC2Ev(%"class.__gnu_cxx::new_allocator"* %26) #4
  br label %10
}

; Function Attrs: noinline uwtable
define linkonce_odr void @_ZNSt6vectorIS_I4EdgeSaIS0_EESaIS2_EEC2EmRKS2_RKS3_(%"class.std::vector"*, i64, %"class.std::vector.0"* dereferenceable(24), %"class.std::allocator"* dereferenceable(1)) unnamed_addr #0 comdat align 2 personality i8* bitcast (i32 (...)* @__gxx_personality_v0 to i8*) {
  %5 = alloca %"class.std::vector"*, align 8
  %6 = alloca i64, align 8
  %7 = alloca %"class.std::vector.0"*, align 8
  %8 = alloca %"class.std::allocator"*, align 8
  %9 = alloca i8*
  %10 = alloca i32
  store %"class.std::vector"* %0, %"class.std::vector"** %5, align 8
  store i64 %1, i64* %6, align 8
  store %"class.std::vector.0"* %2, %"class.std::vector.0"** %7, align 8
  store %"class.std::allocator"* %3, %"class.std::allocator"** %8, align 8
  %11 = load %"class.std::vector"*, %"class.std::vector"** %5, align 8
  %12 = bitcast %"class.std::vector"* %11 to %"struct.std::_Vector_base"*
  %13 = load i64, i64* %6, align 8
  %14 = load %"class.std::allocator"*, %"class.std::allocator"** %8, align 8
  call void @_ZNSt12_Vector_baseISt6vectorI4EdgeSaIS1_EESaIS3_EEC2EmRKS4_(%"struct.std::_Vector_base"* %12, i64 %13, %"class.std::allocator"* dereferenceable(1) %14)
  %15 = load i64, i64* %6, align 8
  %16 = load %"class.std::vector.0"*, %"class.std::vector.0"** %7, align 8
  invoke void @_ZNSt6vectorIS_I4EdgeSaIS0_EESaIS2_EE18_M_fill_initializeEmRKS2_(%"class.std::vector"* %11, i64 %15, %"class.std::vector.0"* dereferenceable(24) %16)
          to label %17 unwind label %18

; <label>:17:                                     ; preds = %4
  ret void

; <label>:18:                                     ; preds = %4
  %19 = landingpad { i8*, i32 }
          cleanup
  %20 = extractvalue { i8*, i32 } %19, 0
  store i8* %20, i8** %9, align 8
  %21 = extractvalue { i8*, i32 } %19, 1
  store i32 %21, i32* %10, align 4
  %22 = bitcast %"class.std::vector"* %11 to %"struct.std::_Vector_base"*
  call void @_ZNSt12_Vector_baseISt6vectorI4EdgeSaIS1_EESaIS3_EED2Ev(%"struct.std::_Vector_base"* %22) #4
  br label %23

; <label>:23:                                     ; preds = %18
  %24 = load i8*, i8** %9, align 8
  %25 = load i32, i32* %10, align 4
  %26 = insertvalue { i8*, i32 } undef, i8* %24, 0
  %27 = insertvalue { i8*, i32 } %26, i32 %25, 1
  resume { i8*, i32 } %27
}

; Function Attrs: noinline nounwind uwtable
define linkonce_odr void @_ZNSaISt6vectorI4EdgeSaIS0_EEED2Ev(%"class.std::allocator"*) unnamed_addr #1 comdat align 2 {
  %2 = load i32, i32* @x.123
  %3 = load i32, i32* @y.124
  %4 = sub i32 %2, 1
  %5 = mul i32 %2, %4
  %6 = urem i32 %5, 2
  %7 = icmp eq i32 %6, 0
  %8 = icmp slt i32 %3, 10
  %9 = or i1 %7, %8
  br i1 %9, label %10, label %23

; <label>:10:                                     ; preds = %1, %23
  %11 = alloca %"class.std::allocator"*, align 8
  store %"class.std::allocator"* %0, %"class.std::allocator"** %11, align 8
  %12 = load %"class.std::allocator"*, %"class.std::allocator"** %11, align 8
  %13 = bitcast %"class.std::allocator"* %12 to %"class.__gnu_cxx::new_allocator"*
  call void @_ZN9__gnu_cxx13new_allocatorISt6vectorI4EdgeSaIS2_EEED2Ev(%"class.__gnu_cxx::new_allocator"* %13) #4
  %14 = load i32, i32* @x.123
  %15 = load i32, i32* @y.124
  %16 = sub i32 %14, 1
  %17 = mul i32 %14, %16
  %18 = urem i32 %17, 2
  %19 = icmp eq i32 %18, 0
  %20 = icmp slt i32 %15, 10
  %21 = or i1 %19, %20
  br i1 %21, label %22, label %23

; <label>:22:                                     ; preds = %10
  ret void

; <label>:23:                                     ; preds = %10, %1
  %24 = alloca %"class.std::allocator"*, align 8
  store %"class.std::allocator"* %0, %"class.std::allocator"** %24, align 8
  %25 = load %"class.std::allocator"*, %"class.std::allocator"** %24, align 8
  %26 = bitcast %"class.std::allocator"* %25 to %"class.__gnu_cxx::new_allocator"*
  call void @_ZN9__gnu_cxx13new_allocatorISt6vectorI4EdgeSaIS2_EEED2Ev(%"class.__gnu_cxx::new_allocator"* %26) #4
  br label %10
}

; Function Attrs: noinline nounwind uwtable
define linkonce_odr void @_ZNSt6vectorI4EdgeSaIS0_EED2Ev(%"class.std::vector.0"*) unnamed_addr #1 comdat align 2 personality i8* bitcast (i32 (...)* @__gxx_personality_v0 to i8*) {
  %2 = alloca %"class.std::vector.0"*, align 8
  %3 = alloca i8*
  %4 = alloca i32
  store %"class.std::vector.0"* %0, %"class.std::vector.0"** %2, align 8
  %5 = load %"class.std::vector.0"*, %"class.std::vector.0"** %2, align 8
  %6 = bitcast %"class.std::vector.0"* %5 to %"struct.std::_Vector_base.1"*
  %7 = getelementptr inbounds %"struct.std::_Vector_base.1", %"struct.std::_Vector_base.1"* %6, i32 0, i32 0
  %8 = getelementptr inbounds %"struct.std::_Vector_base<Edge, std::allocator<Edge> >::_Vector_impl", %"struct.std::_Vector_base<Edge, std::allocator<Edge> >::_Vector_impl"* %7, i32 0, i32 0
  %9 = load %class.Edge*, %class.Edge** %8, align 8
  %10 = bitcast %"class.std::vector.0"* %5 to %"struct.std::_Vector_base.1"*
  %11 = getelementptr inbounds %"struct.std::_Vector_base.1", %"struct.std::_Vector_base.1"* %10, i32 0, i32 0
  %12 = getelementptr inbounds %"struct.std::_Vector_base<Edge, std::allocator<Edge> >::_Vector_impl", %"struct.std::_Vector_base<Edge, std::allocator<Edge> >::_Vector_impl"* %11, i32 0, i32 1
  %13 = load %class.Edge*, %class.Edge** %12, align 8
  %14 = bitcast %"class.std::vector.0"* %5 to %"struct.std::_Vector_base.1"*
  %15 = call dereferenceable(1) %"class.std::allocator.2"* @_ZNSt12_Vector_baseI4EdgeSaIS0_EE19_M_get_Tp_allocatorEv(%"struct.std::_Vector_base.1"* %14) #4
  invoke void @_ZSt8_DestroyIP4EdgeS0_EvT_S2_RSaIT0_E(%class.Edge* %9, %class.Edge* %13, %"class.std::allocator.2"* dereferenceable(1) %15)
          to label %16 unwind label %18

; <label>:16:                                     ; preds = %1
  %17 = bitcast %"class.std::vector.0"* %5 to %"struct.std::_Vector_base.1"*
  call void @_ZNSt12_Vector_baseI4EdgeSaIS0_EED2Ev(%"struct.std::_Vector_base.1"* %17) #4
  ret void

; <label>:18:                                     ; preds = %1
  %19 = landingpad { i8*, i32 }
          catch i8* null
  %20 = extractvalue { i8*, i32 } %19, 0
  store i8* %20, i8** %3, align 8
  %21 = extractvalue { i8*, i32 } %19, 1
  store i32 %21, i32* %4, align 4
  %22 = bitcast %"class.std::vector.0"* %5 to %"struct.std::_Vector_base.1"*
  call void @_ZNSt12_Vector_baseI4EdgeSaIS0_EED2Ev(%"struct.std::_Vector_base.1"* %22) #4
  br label %23

; <label>:23:                                     ; preds = %18
  %24 = load i8*, i8** %3, align 8
  call void @__clang_call_terminate(i8* %24) #8
  unreachable
}

; Function Attrs: noinline nounwind uwtable
define linkonce_odr dereferenceable(40) %"class.std::vector.31"* @_ZNSt6vectorIbSaIbEEaSEOS1_(%"class.std::vector.31"*, %"class.std::vector.31"* dereferenceable(40)) #1 comdat align 2 personality i8* bitcast (i32 (...)* @__gxx_personality_v0 to i8*) {
  %3 = load i32, i32* @x.127
  %4 = load i32, i32* @y.128
  %5 = sub i32 %3, 1
  %6 = mul i32 %3, %5
  %7 = urem i32 %6, 2
  %8 = icmp eq i32 %7, 0
  %9 = icmp slt i32 %4, 10
  %10 = or i1 %8, %9
  br i1 %10, label %11, label %99

; <label>:11:                                     ; preds = %2, %99
  %12 = alloca %"class.std::vector.31"*, align 8
  %13 = alloca %"class.std::vector.31"*, align 8
  %14 = alloca %"struct.std::_Bit_iterator", align 8
  %15 = alloca %"struct.std::_Bit_iterator", align 8
  store %"class.std::vector.31"* %0, %"class.std::vector.31"** %12, align 8
  store %"class.std::vector.31"* %1, %"class.std::vector.31"** %13, align 8
  %16 = load %"class.std::vector.31"*, %"class.std::vector.31"** %12, align 8
  %17 = bitcast %"class.std::vector.31"* %16 to %"struct.std::_Bvector_base"*
  %18 = load i32, i32* @x.127
  %19 = load i32, i32* @y.128
  %20 = sub i32 %18, 1
  %21 = mul i32 %18, %20
  %22 = urem i32 %21, 2
  %23 = icmp eq i32 %22, 0
  %24 = icmp slt i32 %19, 10
  %25 = or i1 %23, %24
  br i1 %25, label %26, label %99

; <label>:26:                                     ; preds = %11
  invoke void @_ZNSt13_Bvector_baseISaIbEE13_M_deallocateEv(%"struct.std::_Bvector_base"* %17)
          to label %27 unwind label %78

; <label>:27:                                     ; preds = %26
  %28 = load %"class.std::vector.31"*, %"class.std::vector.31"** %13, align 8
  %29 = bitcast %"class.std::vector.31"* %28 to %"struct.std::_Bvector_base"*
  %30 = getelementptr inbounds %"struct.std::_Bvector_base", %"struct.std::_Bvector_base"* %29, i32 0, i32 0
  %31 = getelementptr inbounds %"struct.std::_Bvector_base<std::allocator<bool> >::_Bvector_impl", %"struct.std::_Bvector_base<std::allocator<bool> >::_Bvector_impl"* %30, i32 0, i32 0
  %32 = bitcast %"class.std::vector.31"* %16 to %"struct.std::_Bvector_base"*
  %33 = getelementptr inbounds %"struct.std::_Bvector_base", %"struct.std::_Bvector_base"* %32, i32 0, i32 0
  %34 = getelementptr inbounds %"struct.std::_Bvector_base<std::allocator<bool> >::_Bvector_impl", %"struct.std::_Bvector_base<std::allocator<bool> >::_Bvector_impl"* %33, i32 0, i32 0
  %35 = bitcast %"struct.std::_Bit_iterator"* %34 to i8*
  %36 = bitcast %"struct.std::_Bit_iterator"* %31 to i8*
  call void @llvm.memcpy.p0i8.p0i8.i64(i8* %35, i8* %36, i64 12, i32 8, i1 false)
  %37 = load %"class.std::vector.31"*, %"class.std::vector.31"** %13, align 8
  %38 = bitcast %"class.std::vector.31"* %37 to %"struct.std::_Bvector_base"*
  %39 = getelementptr inbounds %"struct.std::_Bvector_base", %"struct.std::_Bvector_base"* %38, i32 0, i32 0
  %40 = getelementptr inbounds %"struct.std::_Bvector_base<std::allocator<bool> >::_Bvector_impl", %"struct.std::_Bvector_base<std::allocator<bool> >::_Bvector_impl"* %39, i32 0, i32 1
  %41 = bitcast %"class.std::vector.31"* %16 to %"struct.std::_Bvector_base"*
  %42 = getelementptr inbounds %"struct.std::_Bvector_base", %"struct.std::_Bvector_base"* %41, i32 0, i32 0
  %43 = getelementptr inbounds %"struct.std::_Bvector_base<std::allocator<bool> >::_Bvector_impl", %"struct.std::_Bvector_base<std::allocator<bool> >::_Bvector_impl"* %42, i32 0, i32 1
  %44 = bitcast %"struct.std::_Bit_iterator"* %43 to i8*
  %45 = bitcast %"struct.std::_Bit_iterator"* %40 to i8*
  call void @llvm.memcpy.p0i8.p0i8.i64(i8* %44, i8* %45, i64 12, i32 8, i1 false)
  %46 = load %"class.std::vector.31"*, %"class.std::vector.31"** %13, align 8
  %47 = bitcast %"class.std::vector.31"* %46 to %"struct.std::_Bvector_base"*
  %48 = getelementptr inbounds %"struct.std::_Bvector_base", %"struct.std::_Bvector_base"* %47, i32 0, i32 0
  %49 = getelementptr inbounds %"struct.std::_Bvector_base<std::allocator<bool> >::_Bvector_impl", %"struct.std::_Bvector_base<std::allocator<bool> >::_Bvector_impl"* %48, i32 0, i32 2
  %50 = load i64*, i64** %49, align 8
  %51 = bitcast %"class.std::vector.31"* %16 to %"struct.std::_Bvector_base"*
  %52 = getelementptr inbounds %"struct.std::_Bvector_base", %"struct.std::_Bvector_base"* %51, i32 0, i32 0
  %53 = getelementptr inbounds %"struct.std::_Bvector_base<std::allocator<bool> >::_Bvector_impl", %"struct.std::_Bvector_base<std::allocator<bool> >::_Bvector_impl"* %52, i32 0, i32 2
  store i64* %50, i64** %53, align 8
  invoke void @_ZNSt13_Bit_iteratorC2Ev(%"struct.std::_Bit_iterator"* %14)
          to label %54 unwind label %78

; <label>:54:                                     ; preds = %27
  %55 = load %"class.std::vector.31"*, %"class.std::vector.31"** %13, align 8
  %56 = bitcast %"class.std::vector.31"* %55 to %"struct.std::_Bvector_base"*
  %57 = getelementptr inbounds %"struct.std::_Bvector_base", %"struct.std::_Bvector_base"* %56, i32 0, i32 0
  %58 = getelementptr inbounds %"struct.std::_Bvector_base<std::allocator<bool> >::_Bvector_impl", %"struct.std::_Bvector_base<std::allocator<bool> >::_Bvector_impl"* %57, i32 0, i32 0
  %59 = bitcast %"struct.std::_Bit_iterator"* %58 to i8*
  %60 = bitcast %"struct.std::_Bit_iterator"* %14 to i8*
  call void @llvm.memcpy.p0i8.p0i8.i64(i8* %59, i8* %60, i64 12, i32 8, i1 false)
  invoke void @_ZNSt13_Bit_iteratorC2Ev(%"struct.std::_Bit_iterator"* %15)
          to label %61 unwind label %78

; <label>:61:                                     ; preds = %54
  %62 = load %"class.std::vector.31"*, %"class.std::vector.31"** %13, align 8
  %63 = bitcast %"class.std::vector.31"* %62 to %"struct.std::_Bvector_base"*
  %64 = getelementptr inbounds %"struct.std::_Bvector_base", %"struct.std::_Bvector_base"* %63, i32 0, i32 0
  %65 = getelementptr inbounds %"struct.std::_Bvector_base<std::allocator<bool> >::_Bvector_impl", %"struct.std::_Bvector_base<std::allocator<bool> >::_Bvector_impl"* %64, i32 0, i32 1
  %66 = bitcast %"struct.std::_Bit_iterator"* %65 to i8*
  %67 = bitcast %"struct.std::_Bit_iterator"* %15 to i8*
  call void @llvm.memcpy.p0i8.p0i8.i64(i8* %66, i8* %67, i64 12, i32 8, i1 false)
  %68 = load %"class.std::vector.31"*, %"class.std::vector.31"** %13, align 8
  %69 = bitcast %"class.std::vector.31"* %68 to %"struct.std::_Bvector_base"*
  %70 = getelementptr inbounds %"struct.std::_Bvector_base", %"struct.std::_Bvector_base"* %69, i32 0, i32 0
  %71 = getelementptr inbounds %"struct.std::_Bvector_base<std::allocator<bool> >::_Bvector_impl", %"struct.std::_Bvector_base<std::allocator<bool> >::_Bvector_impl"* %70, i32 0, i32 2
  store i64* null, i64** %71, align 8
  %72 = bitcast %"class.std::vector.31"* %16 to %"struct.std::_Bvector_base"*
  %73 = call dereferenceable(1) %"class.std::allocator.32"* @_ZNSt13_Bvector_baseISaIbEE20_M_get_Bit_allocatorEv(%"struct.std::_Bvector_base"* %72) #4
  %74 = load %"class.std::vector.31"*, %"class.std::vector.31"** %13, align 8
  %75 = bitcast %"class.std::vector.31"* %74 to %"struct.std::_Bvector_base"*
  %76 = call dereferenceable(1) %"class.std::allocator.32"* @_ZNSt13_Bvector_baseISaIbEE20_M_get_Bit_allocatorEv(%"struct.std::_Bvector_base"* %75) #4
  invoke void @_ZSt15__alloc_on_moveISaImEEvRT_S2_(%"class.std::allocator.32"* dereferenceable(1) %73, %"class.std::allocator.32"* dereferenceable(1) %76)
          to label %77 unwind label %78

; <label>:77:                                     ; preds = %61
  ret %"class.std::vector.31"* %16

; <label>:78:                                     ; preds = %61, %54, %27, %26
  %79 = load i32, i32* @x.127
  %80 = load i32, i32* @y.128
  %81 = sub i32 %79, 1
  %82 = mul i32 %79, %81
  %83 = urem i32 %82, 2
  %84 = icmp eq i32 %83, 0
  %85 = icmp slt i32 %80, 10
  %86 = or i1 %84, %85
  br i1 %86, label %87, label %106

; <label>:87:                                     ; preds = %78, %106
  %88 = landingpad { i8*, i32 }
          catch i8* null
  %89 = extractvalue { i8*, i32 } %88, 0
  call void @__clang_call_terminate(i8* %89) #8
  %90 = load i32, i32* @x.127
  %91 = load i32, i32* @y.128
  %92 = sub i32 %90, 1
  %93 = mul i32 %90, %92
  %94 = urem i32 %93, 2
  %95 = icmp eq i32 %94, 0
  %96 = icmp slt i32 %91, 10
  %97 = or i1 %95, %96
  br i1 %97, label %98, label %106

; <label>:98:                                     ; preds = %87
  unreachable

; <label>:99:                                     ; preds = %11, %2
  %100 = alloca %"class.std::vector.31"*, align 8
  %101 = alloca %"class.std::vector.31"*, align 8
  %102 = alloca %"struct.std::_Bit_iterator", align 8
  %103 = alloca %"struct.std::_Bit_iterator", align 8
  store %"class.std::vector.31"* %0, %"class.std::vector.31"** %100, align 8
  store %"class.std::vector.31"* %1, %"class.std::vector.31"** %101, align 8
  %104 = load %"class.std::vector.31"*, %"class.std::vector.31"** %100, align 8
  %105 = bitcast %"class.std::vector.31"* %104 to %"struct.std::_Bvector_base"*
  br label %11

; <label>:106:                                    ; preds = %87, %78
  %107 = landingpad { i8*, i32 }
          catch i8* null
  %108 = extractvalue { i8*, i32 } %107, 0
  call void @__clang_call_terminate(i8* %108) #8
  br label %87
}

; Function Attrs: noinline nounwind uwtable
define linkonce_odr void @_ZNSt6vectorIbSaIbEED2Ev(%"class.std::vector.31"*) unnamed_addr #1 comdat align 2 {
  %2 = alloca %"class.std::vector.31"*, align 8
  store %"class.std::vector.31"* %0, %"class.std::vector.31"** %2, align 8
  %3 = load %"class.std::vector.31"*, %"class.std::vector.31"** %2, align 8
  %4 = bitcast %"class.std::vector.31"* %3 to %"struct.std::_Bvector_base"*
  call void @_ZNSt13_Bvector_baseISaIbEED2Ev(%"struct.std::_Bvector_base"* %4) #4
  ret void
}

; Function Attrs: noinline nounwind uwtable
define linkonce_odr zeroext i1 @_ZNKSt5stackIiSt5dequeIiSaIiEEE5emptyEv(%"class.std::stack"*) #1 comdat align 2 {
  %2 = load i32, i32* @x.131
  %3 = load i32, i32* @y.132
  %4 = sub i32 %2, 1
  %5 = mul i32 %2, %4
  %6 = urem i32 %5, 2
  %7 = icmp eq i32 %6, 0
  %8 = icmp slt i32 %3, 10
  %9 = or i1 %7, %8
  br i1 %9, label %10, label %24

; <label>:10:                                     ; preds = %1, %24
  %11 = alloca %"class.std::stack"*, align 8
  store %"class.std::stack"* %0, %"class.std::stack"** %11, align 8
  %12 = load %"class.std::stack"*, %"class.std::stack"** %11, align 8
  %13 = getelementptr inbounds %"class.std::stack", %"class.std::stack"* %12, i32 0, i32 0
  %14 = call zeroext i1 @_ZNKSt5dequeIiSaIiEE5emptyEv(%"class.std::deque"* %13) #4
  %15 = load i32, i32* @x.131
  %16 = load i32, i32* @y.132
  %17 = sub i32 %15, 1
  %18 = mul i32 %15, %17
  %19 = urem i32 %18, 2
  %20 = icmp eq i32 %19, 0
  %21 = icmp slt i32 %16, 10
  %22 = or i1 %20, %21
  br i1 %22, label %23, label %24

; <label>:23:                                     ; preds = %10
  ret i1 %14

; <label>:24:                                     ; preds = %10, %1
  %25 = alloca %"class.std::stack"*, align 8
  store %"class.std::stack"* %0, %"class.std::stack"** %25, align 8
  %26 = load %"class.std::stack"*, %"class.std::stack"** %25, align 8
  %27 = getelementptr inbounds %"class.std::stack", %"class.std::stack"* %26, i32 0, i32 0
  %28 = call zeroext i1 @_ZNKSt5dequeIiSaIiEE5emptyEv(%"class.std::deque"* %27) #4
  br label %10
}

; Function Attrs: noinline nounwind uwtable
define linkonce_odr dereferenceable(4) i32* @_ZNSt5stackIiSt5dequeIiSaIiEEE3topEv(%"class.std::stack"*) #1 comdat align 2 {
  %2 = load i32, i32* @x.133
  %3 = load i32, i32* @y.134
  %4 = sub i32 %2, 1
  %5 = mul i32 %2, %4
  %6 = urem i32 %5, 2
  %7 = icmp eq i32 %6, 0
  %8 = icmp slt i32 %3, 10
  %9 = or i1 %7, %8
  br i1 %9, label %10, label %24

; <label>:10:                                     ; preds = %1, %24
  %11 = alloca %"class.std::stack"*, align 8
  store %"class.std::stack"* %0, %"class.std::stack"** %11, align 8
  %12 = load %"class.std::stack"*, %"class.std::stack"** %11, align 8
  %13 = getelementptr inbounds %"class.std::stack", %"class.std::stack"* %12, i32 0, i32 0
  %14 = call dereferenceable(4) i32* @_ZNSt5dequeIiSaIiEE4backEv(%"class.std::deque"* %13) #4
  %15 = load i32, i32* @x.133
  %16 = load i32, i32* @y.134
  %17 = sub i32 %15, 1
  %18 = mul i32 %15, %17
  %19 = urem i32 %18, 2
  %20 = icmp eq i32 %19, 0
  %21 = icmp slt i32 %16, 10
  %22 = or i1 %20, %21
  br i1 %22, label %23, label %24

; <label>:23:                                     ; preds = %10
  ret i32* %14

; <label>:24:                                     ; preds = %10, %1
  %25 = alloca %"class.std::stack"*, align 8
  store %"class.std::stack"* %0, %"class.std::stack"** %25, align 8
  %26 = load %"class.std::stack"*, %"class.std::stack"** %25, align 8
  %27 = getelementptr inbounds %"class.std::stack", %"class.std::stack"* %26, i32 0, i32 0
  %28 = call dereferenceable(4) i32* @_ZNSt5dequeIiSaIiEE4backEv(%"class.std::deque"* %27) #4
  br label %10
}

; Function Attrs: noinline nounwind uwtable
define linkonce_odr void @_ZNSt5stackIiSt5dequeIiSaIiEEE3popEv(%"class.std::stack"*) #1 comdat align 2 {
  %2 = load i32, i32* @x.135
  %3 = load i32, i32* @y.136
  %4 = sub i32 %2, 1
  %5 = mul i32 %2, %4
  %6 = urem i32 %5, 2
  %7 = icmp eq i32 %6, 0
  %8 = icmp slt i32 %3, 10
  %9 = or i1 %7, %8
  br i1 %9, label %10, label %23

; <label>:10:                                     ; preds = %1, %23
  %11 = alloca %"class.std::stack"*, align 8
  store %"class.std::stack"* %0, %"class.std::stack"** %11, align 8
  %12 = load %"class.std::stack"*, %"class.std::stack"** %11, align 8
  %13 = getelementptr inbounds %"class.std::stack", %"class.std::stack"* %12, i32 0, i32 0
  call void @_ZNSt5dequeIiSaIiEE8pop_backEv(%"class.std::deque"* %13) #4
  %14 = load i32, i32* @x.135
  %15 = load i32, i32* @y.136
  %16 = sub i32 %14, 1
  %17 = mul i32 %14, %16
  %18 = urem i32 %17, 2
  %19 = icmp eq i32 %18, 0
  %20 = icmp slt i32 %15, 10
  %21 = or i1 %19, %20
  br i1 %21, label %22, label %23

; <label>:22:                                     ; preds = %10
  ret void

; <label>:23:                                     ; preds = %10, %1
  %24 = alloca %"class.std::stack"*, align 8
  store %"class.std::stack"* %0, %"class.std::stack"** %24, align 8
  %25 = load %"class.std::stack"*, %"class.std::stack"** %24, align 8
  %26 = getelementptr inbounds %"class.std::stack", %"class.std::stack"* %25, i32 0, i32 0
  call void @_ZNSt5dequeIiSaIiEE8pop_backEv(%"class.std::deque"* %26) #4
  br label %10
}

; Function Attrs: noinline uwtable
define linkonce_odr void @_ZNSt6vectorIS_IiSaIiEESaIS1_EE9push_backEOS1_(%"class.std::vector.26"*, %"class.std::vector.5"* dereferenceable(24)) #0 comdat align 2 {
  %3 = load i32, i32* @x.137
  %4 = load i32, i32* @y.138
  %5 = sub i32 %3, 1
  %6 = mul i32 %3, %5
  %7 = urem i32 %6, 2
  %8 = icmp eq i32 %7, 0
  %9 = icmp slt i32 %4, 10
  %10 = or i1 %8, %9
  br i1 %10, label %11, label %26

; <label>:11:                                     ; preds = %2, %26
  %12 = alloca %"class.std::vector.26"*, align 8
  %13 = alloca %"class.std::vector.5"*, align 8
  store %"class.std::vector.26"* %0, %"class.std::vector.26"** %12, align 8
  store %"class.std::vector.5"* %1, %"class.std::vector.5"** %13, align 8
  %14 = load %"class.std::vector.26"*, %"class.std::vector.26"** %12, align 8
  %15 = load %"class.std::vector.5"*, %"class.std::vector.5"** %13, align 8
  %16 = call dereferenceable(24) %"class.std::vector.5"* @_ZSt4moveIRSt6vectorIiSaIiEEEONSt16remove_referenceIT_E4typeEOS5_(%"class.std::vector.5"* dereferenceable(24) %15) #4
  call void @_ZNSt6vectorIS_IiSaIiEESaIS1_EE12emplace_backIJS1_EEEvDpOT_(%"class.std::vector.26"* %14, %"class.std::vector.5"* dereferenceable(24) %16)
  %17 = load i32, i32* @x.137
  %18 = load i32, i32* @y.138
  %19 = sub i32 %17, 1
  %20 = mul i32 %17, %19
  %21 = urem i32 %20, 2
  %22 = icmp eq i32 %21, 0
  %23 = icmp slt i32 %18, 10
  %24 = or i1 %22, %23
  br i1 %24, label %25, label %26

; <label>:25:                                     ; preds = %11
  ret void

; <label>:26:                                     ; preds = %11, %2
  %27 = alloca %"class.std::vector.26"*, align 8
  %28 = alloca %"class.std::vector.5"*, align 8
  store %"class.std::vector.26"* %0, %"class.std::vector.26"** %27, align 8
  store %"class.std::vector.5"* %1, %"class.std::vector.5"** %28, align 8
  %29 = load %"class.std::vector.26"*, %"class.std::vector.26"** %27, align 8
  %30 = load %"class.std::vector.5"*, %"class.std::vector.5"** %28, align 8
  %31 = call dereferenceable(24) %"class.std::vector.5"* @_ZSt4moveIRSt6vectorIiSaIiEEEONSt16remove_referenceIT_E4typeEOS5_(%"class.std::vector.5"* dereferenceable(24) %30) #4
  call void @_ZNSt6vectorIS_IiSaIiEESaIS1_EE12emplace_backIJS1_EEEvDpOT_(%"class.std::vector.26"* %29, %"class.std::vector.5"* dereferenceable(24) %31)
  br label %11
}

; Function Attrs: noinline uwtable
define void @_ZNK5Graph22Kosaraju_dfs_decomposeERKSt6vectorIS0_I4EdgeSaIS1_EESaIS3_EEiRS0_IbSaIbEE(%"class.std::vector.5"* noalias sret, %class.Graph*, %"class.std::vector"* dereferenceable(24), i32, %"class.std::vector.31"* dereferenceable(40)) #0 align 2 personality i8* bitcast (i32 (...)* @__gxx_personality_v0 to i8*) {
  %6 = alloca %class.Graph*, align 8
  %7 = alloca %"class.std::vector"*, align 8
  %8 = alloca i32, align 4
  %9 = alloca %"class.std::vector.31"*, align 8
  %10 = alloca i1, align 1
  %11 = alloca i8*
  %12 = alloca i32
  %13 = alloca %"struct.std::_Bit_reference", align 8
  %14 = alloca %"class.std::vector.0"*, align 8
  %15 = alloca %"class.__gnu_cxx::__normal_iterator", align 8
  %16 = alloca %"class.__gnu_cxx::__normal_iterator", align 8
  %17 = alloca %class.Edge*, align 8
  %18 = alloca %"struct.std::_Bit_reference", align 8
  %19 = alloca %"class.std::vector.5", align 8
  %20 = alloca %"class.__gnu_cxx::__normal_iterator.39", align 8
  %21 = alloca %"class.__gnu_cxx::__normal_iterator.38", align 8
  %22 = alloca %"class.__gnu_cxx::__normal_iterator.38", align 8
  %23 = alloca %"class.__gnu_cxx::__normal_iterator.38", align 8
  %24 = alloca %"class.__gnu_cxx::__normal_iterator.38", align 8
  store %class.Graph* %1, %class.Graph** %6, align 8
  store %"class.std::vector"* %2, %"class.std::vector"** %7, align 8
  store i32 %3, i32* %8, align 4
  store %"class.std::vector.31"* %4, %"class.std::vector.31"** %9, align 8
  %25 = load %class.Graph*, %class.Graph** %6, align 8
  store i1 false, i1* %10, align 1
  call void @_ZNSt6vectorIiSaIiEEC2Ev(%"class.std::vector.5"* %0) #4
  invoke void @_ZNSt6vectorIiSaIiEE9push_backERKi(%"class.std::vector.5"* %0, i32* dereferenceable(4) %8)
          to label %26 unwind label %102

; <label>:26:                                     ; preds = %5
  %27 = load %"class.std::vector.31"*, %"class.std::vector.31"** %9, align 8
  %28 = load i32, i32* %8, align 4
  %29 = sext i32 %28 to i64
  %30 = invoke { i64*, i64 } @_ZNSt6vectorIbSaIbEEixEm(%"class.std::vector.31"* %27, i64 %29)
          to label %31 unwind label %102

; <label>:31:                                     ; preds = %26
  %32 = bitcast %"struct.std::_Bit_reference"* %13 to { i64*, i64 }*
  %33 = getelementptr inbounds { i64*, i64 }, { i64*, i64 }* %32, i32 0, i32 0
  %34 = extractvalue { i64*, i64 } %30, 0
  store i64* %34, i64** %33, align 8
  %35 = getelementptr inbounds { i64*, i64 }, { i64*, i64 }* %32, i32 0, i32 1
  %36 = extractvalue { i64*, i64 } %30, 1
  store i64 %36, i64* %35, align 8
  %37 = call dereferenceable(16) %"struct.std::_Bit_reference"* @_ZNSt14_Bit_referenceaSEb(%"struct.std::_Bit_reference"* %13, i1 zeroext true) #4
  %38 = load %"class.std::vector"*, %"class.std::vector"** %7, align 8
  %39 = load i32, i32* %8, align 4
  %40 = sext i32 %39 to i64
  %41 = call dereferenceable(24) %"class.std::vector.0"* @_ZNKSt6vectorIS_I4EdgeSaIS0_EESaIS2_EEixEm(%"class.std::vector"* %38, i64 %40) #4
  store %"class.std::vector.0"* %41, %"class.std::vector.0"** %14, align 8
  %42 = load %"class.std::vector.0"*, %"class.std::vector.0"** %14, align 8
  %43 = call %class.Edge* @_ZNKSt6vectorI4EdgeSaIS0_EE5beginEv(%"class.std::vector.0"* %42) #4
  %44 = getelementptr inbounds %"class.__gnu_cxx::__normal_iterator", %"class.__gnu_cxx::__normal_iterator"* %15, i32 0, i32 0
  store %class.Edge* %43, %class.Edge** %44, align 8
  %45 = load %"class.std::vector.0"*, %"class.std::vector.0"** %14, align 8
  %46 = call %class.Edge* @_ZNKSt6vectorI4EdgeSaIS0_EE3endEv(%"class.std::vector.0"* %45) #4
  %47 = getelementptr inbounds %"class.__gnu_cxx::__normal_iterator", %"class.__gnu_cxx::__normal_iterator"* %16, i32 0, i32 0
  store %class.Edge* %46, %class.Edge** %47, align 8
  br label %48

; <label>:48:                                     ; preds = %128, %31
  %49 = call zeroext i1 @_ZN9__gnu_cxxneIPK4EdgeSt6vectorIS1_SaIS1_EEEEbRKNS_17__normal_iteratorIT_T0_EESC_(%"class.__gnu_cxx::__normal_iterator"* dereferenceable(8) %15, %"class.__gnu_cxx::__normal_iterator"* dereferenceable(8) %16) #4
  br i1 %49, label %50, label %152

; <label>:50:                                     ; preds = %48
  %51 = call dereferenceable(16) %class.Edge* @_ZNK9__gnu_cxx17__normal_iteratorIPK4EdgeSt6vectorIS1_SaIS1_EEEdeEv(%"class.__gnu_cxx::__normal_iterator"* %15) #4
  store %class.Edge* %51, %class.Edge** %17, align 8
  %52 = load %"class.std::vector.31"*, %"class.std::vector.31"** %9, align 8
  %53 = load %class.Edge*, %class.Edge** %17, align 8
  %54 = invoke i32 @_ZNK4Edge2toEv(%class.Edge* %53)
          to label %55 unwind label %102

; <label>:55:                                     ; preds = %50
  %56 = sext i32 %54 to i64
  %57 = invoke { i64*, i64 } @_ZNSt6vectorIbSaIbEEixEm(%"class.std::vector.31"* %52, i64 %56)
          to label %58 unwind label %102

; <label>:58:                                     ; preds = %55
  %59 = load i32, i32* @x.139
  %60 = load i32, i32* @y.140
  %61 = sub i32 %59, 1
  %62 = mul i32 %59, %61
  %63 = urem i32 %62, 2
  %64 = icmp eq i32 %63, 0
  %65 = icmp slt i32 %60, 10
  %66 = or i1 %64, %65
  br i1 %66, label %67, label %180

; <label>:67:                                     ; preds = %58, %180
  %68 = bitcast %"struct.std::_Bit_reference"* %18 to { i64*, i64 }*
  %69 = getelementptr inbounds { i64*, i64 }, { i64*, i64 }* %68, i32 0, i32 0
  %70 = extractvalue { i64*, i64 } %57, 0
  store i64* %70, i64** %69, align 8
  %71 = getelementptr inbounds { i64*, i64 }, { i64*, i64 }* %68, i32 0, i32 1
  %72 = extractvalue { i64*, i64 } %57, 1
  store i64 %72, i64* %71, align 8
  %73 = call zeroext i1 @_ZNKSt14_Bit_referencecvbEv(%"struct.std::_Bit_reference"* %18) #4
  %74 = load i32, i32* @x.139
  %75 = load i32, i32* @y.140
  %76 = sub i32 %74, 1
  %77 = mul i32 %74, %76
  %78 = urem i32 %77, 2
  %79 = icmp eq i32 %78, 0
  %80 = icmp slt i32 %75, 10
  %81 = or i1 %79, %80
  br i1 %81, label %82, label %180

; <label>:82:                                     ; preds = %67
  br i1 %73, label %83, label %106

; <label>:83:                                     ; preds = %82
  %84 = load i32, i32* @x.139
  %85 = load i32, i32* @y.140
  %86 = sub i32 %84, 1
  %87 = mul i32 %84, %86
  %88 = urem i32 %87, 2
  %89 = icmp eq i32 %88, 0
  %90 = icmp slt i32 %85, 10
  %91 = or i1 %89, %90
  br i1 %91, label %92, label %187

; <label>:92:                                     ; preds = %83, %187
  %93 = load i32, i32* @x.139
  %94 = load i32, i32* @y.140
  %95 = sub i32 %93, 1
  %96 = mul i32 %93, %95
  %97 = urem i32 %96, 2
  %98 = icmp eq i32 %97, 0
  %99 = icmp slt i32 %94, 10
  %100 = or i1 %98, %99
  br i1 %100, label %101, label %187

; <label>:101:                                    ; preds = %92
  br label %128

; <label>:102:                                    ; preds = %110, %106, %55, %50, %26, %5
  %103 = landingpad { i8*, i32 }
          cleanup
  %104 = extractvalue { i8*, i32 } %103, 0
  store i8* %104, i8** %11, align 8
  %105 = extractvalue { i8*, i32 } %103, 1
  store i32 %105, i32* %12, align 4
  br label %174

; <label>:106:                                    ; preds = %82
  %107 = load %"class.std::vector"*, %"class.std::vector"** %7, align 8
  %108 = load %class.Edge*, %class.Edge** %17, align 8
  %109 = invoke i32 @_ZNK4Edge2toEv(%class.Edge* %108)
          to label %110 unwind label %102

; <label>:110:                                    ; preds = %106
  %111 = load %"class.std::vector.31"*, %"class.std::vector.31"** %9, align 8
  invoke void @_ZNK5Graph22Kosaraju_dfs_decomposeERKSt6vectorIS0_I4EdgeSaIS1_EESaIS3_EEiRS0_IbSaIbEE(%"class.std::vector.5"* sret %19, %class.Graph* %25, %"class.std::vector"* dereferenceable(24) %107, i32 %109, %"class.std::vector.31"* dereferenceable(40) %111)
          to label %112 unwind label %102

; <label>:112:                                    ; preds = %110
  %113 = call i32* @_ZNSt6vectorIiSaIiEE3endEv(%"class.std::vector.5"* %0) #4
  %114 = getelementptr inbounds %"class.__gnu_cxx::__normal_iterator.38", %"class.__gnu_cxx::__normal_iterator.38"* %21, i32 0, i32 0
  store i32* %113, i32** %114, align 8
  call void @_ZN9__gnu_cxx17__normal_iteratorIPKiSt6vectorIiSaIiEEEC2IPiEERKNS0_IT_NS_11__enable_ifIXsr3std10__are_sameIS9_S8_EE7__valueES5_E6__typeEEE(%"class.__gnu_cxx::__normal_iterator.39"* %20, %"class.__gnu_cxx::__normal_iterator.38"* dereferenceable(8) %21) #4
  %115 = call i32* @_ZNSt6vectorIiSaIiEE5beginEv(%"class.std::vector.5"* %19) #4
  %116 = getelementptr inbounds %"class.__gnu_cxx::__normal_iterator.38", %"class.__gnu_cxx::__normal_iterator.38"* %22, i32 0, i32 0
  store i32* %115, i32** %116, align 8
  %117 = call i32* @_ZNSt6vectorIiSaIiEE3endEv(%"class.std::vector.5"* %19) #4
  %118 = getelementptr inbounds %"class.__gnu_cxx::__normal_iterator.38", %"class.__gnu_cxx::__normal_iterator.38"* %23, i32 0, i32 0
  store i32* %117, i32** %118, align 8
  %119 = getelementptr inbounds %"class.__gnu_cxx::__normal_iterator.39", %"class.__gnu_cxx::__normal_iterator.39"* %20, i32 0, i32 0
  %120 = load i32*, i32** %119, align 8
  %121 = getelementptr inbounds %"class.__gnu_cxx::__normal_iterator.38", %"class.__gnu_cxx::__normal_iterator.38"* %22, i32 0, i32 0
  %122 = load i32*, i32** %121, align 8
  %123 = getelementptr inbounds %"class.__gnu_cxx::__normal_iterator.38", %"class.__gnu_cxx::__normal_iterator.38"* %23, i32 0, i32 0
  %124 = load i32*, i32** %123, align 8
  %125 = invoke i32* @_ZNSt6vectorIiSaIiEE6insertIN9__gnu_cxx17__normal_iteratorIPiS1_EEvEES6_NS4_IPKiS1_EET_SA_(%"class.std::vector.5"* %0, i32* %120, i32* %122, i32* %124)
          to label %126 unwind label %130

; <label>:126:                                    ; preds = %112
  %127 = getelementptr inbounds %"class.__gnu_cxx::__normal_iterator.38", %"class.__gnu_cxx::__normal_iterator.38"* %24, i32 0, i32 0
  store i32* %125, i32** %127, align 8
  call void @_ZNSt6vectorIiSaIiEED2Ev(%"class.std::vector.5"* %19) #4
  br label %128

; <label>:128:                                    ; preds = %126, %101
  %129 = call dereferenceable(8) %"class.__gnu_cxx::__normal_iterator"* @_ZN9__gnu_cxx17__normal_iteratorIPK4EdgeSt6vectorIS1_SaIS1_EEEppEv(%"class.__gnu_cxx::__normal_iterator"* %15) #4
  br label %48

; <label>:130:                                    ; preds = %112
  %131 = load i32, i32* @x.139
  %132 = load i32, i32* @y.140
  %133 = sub i32 %131, 1
  %134 = mul i32 %131, %133
  %135 = urem i32 %134, 2
  %136 = icmp eq i32 %135, 0
  %137 = icmp slt i32 %132, 10
  %138 = or i1 %136, %137
  br i1 %138, label %139, label %188

; <label>:139:                                    ; preds = %130, %188
  %140 = landingpad { i8*, i32 }
          cleanup
  %141 = extractvalue { i8*, i32 } %140, 0
  store i8* %141, i8** %11, align 8
  %142 = extractvalue { i8*, i32 } %140, 1
  store i32 %142, i32* %12, align 4
  call void @_ZNSt6vectorIiSaIiEED2Ev(%"class.std::vector.5"* %19) #4
  %143 = load i32, i32* @x.139
  %144 = load i32, i32* @y.140
  %145 = sub i32 %143, 1
  %146 = mul i32 %143, %145
  %147 = urem i32 %146, 2
  %148 = icmp eq i32 %147, 0
  %149 = icmp slt i32 %144, 10
  %150 = or i1 %148, %149
  br i1 %150, label %151, label %188

; <label>:151:                                    ; preds = %139
  br label %174

; <label>:152:                                    ; preds = %48
  store i1 true, i1* %10, align 1
  %153 = load i1, i1* %10, align 1
  br i1 %153, label %173, label %154

; <label>:154:                                    ; preds = %152
  %155 = load i32, i32* @x.139
  %156 = load i32, i32* @y.140
  %157 = sub i32 %155, 1
  %158 = mul i32 %155, %157
  %159 = urem i32 %158, 2
  %160 = icmp eq i32 %159, 0
  %161 = icmp slt i32 %156, 10
  %162 = or i1 %160, %161
  br i1 %162, label %163, label %192

; <label>:163:                                    ; preds = %154, %192
  call void @_ZNSt6vectorIiSaIiEED2Ev(%"class.std::vector.5"* %0) #4
  %164 = load i32, i32* @x.139
  %165 = load i32, i32* @y.140
  %166 = sub i32 %164, 1
  %167 = mul i32 %164, %166
  %168 = urem i32 %167, 2
  %169 = icmp eq i32 %168, 0
  %170 = icmp slt i32 %165, 10
  %171 = or i1 %169, %170
  br i1 %171, label %172, label %192

; <label>:172:                                    ; preds = %163
  br label %173

; <label>:173:                                    ; preds = %172, %152
  ret void

; <label>:174:                                    ; preds = %151, %102
  call void @_ZNSt6vectorIiSaIiEED2Ev(%"class.std::vector.5"* %0) #4
  br label %175

; <label>:175:                                    ; preds = %174
  %176 = load i8*, i8** %11, align 8
  %177 = load i32, i32* %12, align 4
  %178 = insertvalue { i8*, i32 } undef, i8* %176, 0
  %179 = insertvalue { i8*, i32 } %178, i32 %177, 1
  resume { i8*, i32 } %179

; <label>:180:                                    ; preds = %67, %58
  %181 = bitcast %"struct.std::_Bit_reference"* %18 to { i64*, i64 }*
  %182 = getelementptr inbounds { i64*, i64 }, { i64*, i64 }* %181, i32 0, i32 0
  %183 = extractvalue { i64*, i64 } %57, 0
  store i64* %183, i64** %182, align 8
  %184 = getelementptr inbounds { i64*, i64 }, { i64*, i64 }* %181, i32 0, i32 1
  %185 = extractvalue { i64*, i64 } %57, 1
  store i64 %185, i64* %184, align 8
  %186 = call zeroext i1 @_ZNKSt14_Bit_referencecvbEv(%"struct.std::_Bit_reference"* %18) #4
  br label %67

; <label>:187:                                    ; preds = %92, %83
  br label %92

; <label>:188:                                    ; preds = %139, %130
  %189 = landingpad { i8*, i32 }
          cleanup
  %190 = extractvalue { i8*, i32 } %189, 0
  store i8* %190, i8** %11, align 8
  %191 = extractvalue { i8*, i32 } %189, 1
  store i32 %191, i32* %12, align 4
  call void @_ZNSt6vectorIiSaIiEED2Ev(%"class.std::vector.5"* %19) #4
  br label %139

; <label>:192:                                    ; preds = %163, %154
  call void @_ZNSt6vectorIiSaIiEED2Ev(%"class.std::vector.5"* %0) #4
  br label %163
}

; Function Attrs: noinline nounwind uwtable
define linkonce_odr void @_ZNSt6vectorIS_I4EdgeSaIS0_EESaIS2_EED2Ev(%"class.std::vector"*) unnamed_addr #1 comdat align 2 personality i8* bitcast (i32 (...)* @__gxx_personality_v0 to i8*) {
  %2 = load i32, i32* @x.141
  %3 = load i32, i32* @y.142
  %4 = sub i32 %2, 1
  %5 = mul i32 %2, %4
  %6 = urem i32 %5, 2
  %7 = icmp eq i32 %6, 0
  %8 = icmp slt i32 %3, 10
  %9 = or i1 %7, %8
  br i1 %9, label %10, label %61

; <label>:10:                                     ; preds = %1, %61
  %11 = alloca %"class.std::vector"*, align 8
  %12 = alloca i8*
  %13 = alloca i32
  store %"class.std::vector"* %0, %"class.std::vector"** %11, align 8
  %14 = load %"class.std::vector"*, %"class.std::vector"** %11, align 8
  %15 = bitcast %"class.std::vector"* %14 to %"struct.std::_Vector_base"*
  %16 = getelementptr inbounds %"struct.std::_Vector_base", %"struct.std::_Vector_base"* %15, i32 0, i32 0
  %17 = getelementptr inbounds %"struct.std::_Vector_base<std::vector<Edge, std::allocator<Edge> >, std::allocator<std::vector<Edge, std::allocator<Edge> > > >::_Vector_impl", %"struct.std::_Vector_base<std::vector<Edge, std::allocator<Edge> >, std::allocator<std::vector<Edge, std::allocator<Edge> > > >::_Vector_impl"* %16, i32 0, i32 0
  %18 = load %"class.std::vector.0"*, %"class.std::vector.0"** %17, align 8
  %19 = bitcast %"class.std::vector"* %14 to %"struct.std::_Vector_base"*
  %20 = getelementptr inbounds %"struct.std::_Vector_base", %"struct.std::_Vector_base"* %19, i32 0, i32 0
  %21 = getelementptr inbounds %"struct.std::_Vector_base<std::vector<Edge, std::allocator<Edge> >, std::allocator<std::vector<Edge, std::allocator<Edge> > > >::_Vector_impl", %"struct.std::_Vector_base<std::vector<Edge, std::allocator<Edge> >, std::allocator<std::vector<Edge, std::allocator<Edge> > > >::_Vector_impl"* %20, i32 0, i32 1
  %22 = load %"class.std::vector.0"*, %"class.std::vector.0"** %21, align 8
  %23 = bitcast %"class.std::vector"* %14 to %"struct.std::_Vector_base"*
  %24 = call dereferenceable(1) %"class.std::allocator"* @_ZNSt12_Vector_baseISt6vectorI4EdgeSaIS1_EESaIS3_EE19_M_get_Tp_allocatorEv(%"struct.std::_Vector_base"* %23) #4
  %25 = load i32, i32* @x.141
  %26 = load i32, i32* @y.142
  %27 = sub i32 %25, 1
  %28 = mul i32 %25, %27
  %29 = urem i32 %28, 2
  %30 = icmp eq i32 %29, 0
  %31 = icmp slt i32 %26, 10
  %32 = or i1 %30, %31
  br i1 %32, label %33, label %61

; <label>:33:                                     ; preds = %10
  invoke void @_ZSt8_DestroyIPSt6vectorI4EdgeSaIS1_EES3_EvT_S5_RSaIT0_E(%"class.std::vector.0"* %18, %"class.std::vector.0"* %22, %"class.std::allocator"* dereferenceable(1) %24)
          to label %34 unwind label %36

; <label>:34:                                     ; preds = %33
  %35 = bitcast %"class.std::vector"* %14 to %"struct.std::_Vector_base"*
  call void @_ZNSt12_Vector_baseISt6vectorI4EdgeSaIS1_EESaIS3_EED2Ev(%"struct.std::_Vector_base"* %35) #4
  ret void

; <label>:36:                                     ; preds = %33
  %37 = load i32, i32* @x.141
  %38 = load i32, i32* @y.142
  %39 = sub i32 %37, 1
  %40 = mul i32 %37, %39
  %41 = urem i32 %40, 2
  %42 = icmp eq i32 %41, 0
  %43 = icmp slt i32 %38, 10
  %44 = or i1 %42, %43
  br i1 %44, label %45, label %76

; <label>:45:                                     ; preds = %36, %76
  %46 = landingpad { i8*, i32 }
          catch i8* null
  %47 = extractvalue { i8*, i32 } %46, 0
  store i8* %47, i8** %12, align 8
  %48 = extractvalue { i8*, i32 } %46, 1
  store i32 %48, i32* %13, align 4
  %49 = bitcast %"class.std::vector"* %14 to %"struct.std::_Vector_base"*
  call void @_ZNSt12_Vector_baseISt6vectorI4EdgeSaIS1_EESaIS3_EED2Ev(%"struct.std::_Vector_base"* %49) #4
  %50 = load i32, i32* @x.141
  %51 = load i32, i32* @y.142
  %52 = sub i32 %50, 1
  %53 = mul i32 %50, %52
  %54 = urem i32 %53, 2
  %55 = icmp eq i32 %54, 0
  %56 = icmp slt i32 %51, 10
  %57 = or i1 %55, %56
  br i1 %57, label %58, label %76

; <label>:58:                                     ; preds = %45
  br label %59

; <label>:59:                                     ; preds = %58
  %60 = load i8*, i8** %12, align 8
  call void @__clang_call_terminate(i8* %60) #8
  unreachable

; <label>:61:                                     ; preds = %10, %1
  %62 = alloca %"class.std::vector"*, align 8
  %63 = alloca i8*
  %64 = alloca i32
  store %"class.std::vector"* %0, %"class.std::vector"** %62, align 8
  %65 = load %"class.std::vector"*, %"class.std::vector"** %62, align 8
  %66 = bitcast %"class.std::vector"* %65 to %"struct.std::_Vector_base"*
  %67 = getelementptr inbounds %"struct.std::_Vector_base", %"struct.std::_Vector_base"* %66, i32 0, i32 0
  %68 = getelementptr inbounds %"struct.std::_Vector_base<std::vector<Edge, std::allocator<Edge> >, std::allocator<std::vector<Edge, std::allocator<Edge> > > >::_Vector_impl", %"struct.std::_Vector_base<std::vector<Edge, std::allocator<Edge> >, std::allocator<std::vector<Edge, std::allocator<Edge> > > >::_Vector_impl"* %67, i32 0, i32 0
  %69 = load %"class.std::vector.0"*, %"class.std::vector.0"** %68, align 8
  %70 = bitcast %"class.std::vector"* %65 to %"struct.std::_Vector_base"*
  %71 = getelementptr inbounds %"struct.std::_Vector_base", %"struct.std::_Vector_base"* %70, i32 0, i32 0
  %72 = getelementptr inbounds %"struct.std::_Vector_base<std::vector<Edge, std::allocator<Edge> >, std::allocator<std::vector<Edge, std::allocator<Edge> > > >::_Vector_impl", %"struct.std::_Vector_base<std::vector<Edge, std::allocator<Edge> >, std::allocator<std::vector<Edge, std::allocator<Edge> > > >::_Vector_impl"* %71, i32 0, i32 1
  %73 = load %"class.std::vector.0"*, %"class.std::vector.0"** %72, align 8
  %74 = bitcast %"class.std::vector"* %65 to %"struct.std::_Vector_base"*
  %75 = call dereferenceable(1) %"class.std::allocator"* @_ZNSt12_Vector_baseISt6vectorI4EdgeSaIS1_EESaIS3_EE19_M_get_Tp_allocatorEv(%"struct.std::_Vector_base"* %74) #4
  br label %10

; <label>:76:                                     ; preds = %45, %36
  %77 = landingpad { i8*, i32 }
          catch i8* null
  %78 = extractvalue { i8*, i32 } %77, 0
  store i8* %78, i8** %12, align 8
  %79 = extractvalue { i8*, i32 } %77, 1
  store i32 %79, i32* %13, align 4
  %80 = bitcast %"class.std::vector"* %14 to %"struct.std::_Vector_base"*
  call void @_ZNSt12_Vector_baseISt6vectorI4EdgeSaIS1_EESaIS3_EED2Ev(%"struct.std::_Vector_base"* %80) #4
  br label %45
}

; Function Attrs: noinline nounwind uwtable
define linkonce_odr void @_ZNSt5stackIiSt5dequeIiSaIiEEED2Ev(%"class.std::stack"*) unnamed_addr #1 comdat align 2 {
  %2 = alloca %"class.std::stack"*, align 8
  store %"class.std::stack"* %0, %"class.std::stack"** %2, align 8
  %3 = load %"class.std::stack"*, %"class.std::stack"** %2, align 8
  %4 = getelementptr inbounds %"class.std::stack", %"class.std::stack"* %3, i32 0, i32 0
  call void @_ZNSt5dequeIiSaIiEED2Ev(%"class.std::deque"* %4) #4
  ret void
}

; Function Attrs: noinline nounwind uwtable
define linkonce_odr void @_ZNSt6vectorIS_IiSaIiEESaIS1_EED2Ev(%"class.std::vector.26"*) unnamed_addr #1 comdat align 2 personality i8* bitcast (i32 (...)* @__gxx_personality_v0 to i8*) {
  %2 = alloca %"class.std::vector.26"*, align 8
  %3 = alloca i8*
  %4 = alloca i32
  store %"class.std::vector.26"* %0, %"class.std::vector.26"** %2, align 8
  %5 = load %"class.std::vector.26"*, %"class.std::vector.26"** %2, align 8
  %6 = bitcast %"class.std::vector.26"* %5 to %"struct.std::_Vector_base.27"*
  %7 = getelementptr inbounds %"struct.std::_Vector_base.27", %"struct.std::_Vector_base.27"* %6, i32 0, i32 0
  %8 = getelementptr inbounds %"struct.std::_Vector_base<std::vector<int, std::allocator<int> >, std::allocator<std::vector<int, std::allocator<int> > > >::_Vector_impl", %"struct.std::_Vector_base<std::vector<int, std::allocator<int> >, std::allocator<std::vector<int, std::allocator<int> > > >::_Vector_impl"* %7, i32 0, i32 0
  %9 = load %"class.std::vector.5"*, %"class.std::vector.5"** %8, align 8
  %10 = bitcast %"class.std::vector.26"* %5 to %"struct.std::_Vector_base.27"*
  %11 = getelementptr inbounds %"struct.std::_Vector_base.27", %"struct.std::_Vector_base.27"* %10, i32 0, i32 0
  %12 = getelementptr inbounds %"struct.std::_Vector_base<std::vector<int, std::allocator<int> >, std::allocator<std::vector<int, std::allocator<int> > > >::_Vector_impl", %"struct.std::_Vector_base<std::vector<int, std::allocator<int> >, std::allocator<std::vector<int, std::allocator<int> > > >::_Vector_impl"* %11, i32 0, i32 1
  %13 = load %"class.std::vector.5"*, %"class.std::vector.5"** %12, align 8
  %14 = bitcast %"class.std::vector.26"* %5 to %"struct.std::_Vector_base.27"*
  %15 = call dereferenceable(1) %"class.std::allocator.28"* @_ZNSt12_Vector_baseISt6vectorIiSaIiEESaIS2_EE19_M_get_Tp_allocatorEv(%"struct.std::_Vector_base.27"* %14) #4
  invoke void @_ZSt8_DestroyIPSt6vectorIiSaIiEES2_EvT_S4_RSaIT0_E(%"class.std::vector.5"* %9, %"class.std::vector.5"* %13, %"class.std::allocator.28"* dereferenceable(1) %15)
          to label %16 unwind label %18

; <label>:16:                                     ; preds = %1
  %17 = bitcast %"class.std::vector.26"* %5 to %"struct.std::_Vector_base.27"*
  call void @_ZNSt12_Vector_baseISt6vectorIiSaIiEESaIS2_EED2Ev(%"struct.std::_Vector_base.27"* %17) #4
  ret void

; <label>:18:                                     ; preds = %1
  %19 = landingpad { i8*, i32 }
          catch i8* null
  %20 = extractvalue { i8*, i32 } %19, 0
  store i8* %20, i8** %3, align 8
  %21 = extractvalue { i8*, i32 } %19, 1
  store i32 %21, i32* %4, align 4
  %22 = bitcast %"class.std::vector.26"* %5 to %"struct.std::_Vector_base.27"*
  call void @_ZNSt12_Vector_baseISt6vectorIiSaIiEESaIS2_EED2Ev(%"struct.std::_Vector_base.27"* %22) #4
  br label %23

; <label>:23:                                     ; preds = %18
  %24 = load i32, i32* @x.145
  %25 = load i32, i32* @y.146
  %26 = sub i32 %24, 1
  %27 = mul i32 %24, %26
  %28 = urem i32 %27, 2
  %29 = icmp eq i32 %28, 0
  %30 = icmp slt i32 %25, 10
  %31 = or i1 %29, %30
  br i1 %31, label %32, label %43

; <label>:32:                                     ; preds = %23, %43
  %33 = load i8*, i8** %3, align 8
  call void @__clang_call_terminate(i8* %33) #8
  %34 = load i32, i32* @x.145
  %35 = load i32, i32* @y.146
  %36 = sub i32 %34, 1
  %37 = mul i32 %34, %36
  %38 = urem i32 %37, 2
  %39 = icmp eq i32 %38, 0
  %40 = icmp slt i32 %35, 10
  %41 = or i1 %39, %40
  br i1 %41, label %42, label %43

; <label>:42:                                     ; preds = %32
  unreachable

; <label>:43:                                     ; preds = %32, %23
  %44 = load i8*, i8** %3, align 8
  call void @__clang_call_terminate(i8* %44) #8
  br label %32
}

; Function Attrs: noinline nounwind uwtable
define linkonce_odr dereferenceable(16) %"struct.std::_Bit_reference"* @_ZNSt14_Bit_referenceaSEb(%"struct.std::_Bit_reference"*, i1 zeroext) #1 comdat align 2 {
  %3 = alloca %"struct.std::_Bit_reference"*, align 8
  %4 = alloca i8, align 1
  store %"struct.std::_Bit_reference"* %0, %"struct.std::_Bit_reference"** %3, align 8
  %5 = zext i1 %1 to i8
  store i8 %5, i8* %4, align 1
  %6 = load %"struct.std::_Bit_reference"*, %"struct.std::_Bit_reference"** %3, align 8
  %7 = load i8, i8* %4, align 1
  %8 = trunc i8 %7 to i1
  br i1 %8, label %9, label %34

; <label>:9:                                      ; preds = %2
  %10 = load i32, i32* @x.147
  %11 = load i32, i32* @y.148
  %12 = sub i32 %10, 1
  %13 = mul i32 %10, %12
  %14 = urem i32 %13, 2
  %15 = icmp eq i32 %14, 0
  %16 = icmp slt i32 %11, 10
  %17 = or i1 %15, %16
  br i1 %17, label %18, label %61

; <label>:18:                                     ; preds = %9, %61
  %19 = getelementptr inbounds %"struct.std::_Bit_reference", %"struct.std::_Bit_reference"* %6, i32 0, i32 1
  %20 = load i64, i64* %19, align 8
  %21 = getelementptr inbounds %"struct.std::_Bit_reference", %"struct.std::_Bit_reference"* %6, i32 0, i32 0
  %22 = load i64*, i64** %21, align 8
  %23 = load i64, i64* %22, align 8
  %24 = or i64 %23, %20
  store i64 %24, i64* %22, align 8
  %25 = load i32, i32* @x.147
  %26 = load i32, i32* @y.148
  %27 = sub i32 %25, 1
  %28 = mul i32 %25, %27
  %29 = urem i32 %28, 2
  %30 = icmp eq i32 %29, 0
  %31 = icmp slt i32 %26, 10
  %32 = or i1 %30, %31
  br i1 %32, label %33, label %61

; <label>:33:                                     ; preds = %18
  br label %42

; <label>:34:                                     ; preds = %2
  %35 = getelementptr inbounds %"struct.std::_Bit_reference", %"struct.std::_Bit_reference"* %6, i32 0, i32 1
  %36 = load i64, i64* %35, align 8
  %37 = xor i64 %36, -1
  %38 = getelementptr inbounds %"struct.std::_Bit_reference", %"struct.std::_Bit_reference"* %6, i32 0, i32 0
  %39 = load i64*, i64** %38, align 8
  %40 = load i64, i64* %39, align 8
  %41 = and i64 %40, %37
  store i64 %41, i64* %39, align 8
  br label %42

; <label>:42:                                     ; preds = %34, %33
  %43 = load i32, i32* @x.147
  %44 = load i32, i32* @y.148
  %45 = sub i32 %43, 1
  %46 = mul i32 %43, %45
  %47 = urem i32 %46, 2
  %48 = icmp eq i32 %47, 0
  %49 = icmp slt i32 %44, 10
  %50 = or i1 %48, %49
  br i1 %50, label %51, label %81

; <label>:51:                                     ; preds = %42, %81
  %52 = load i32, i32* @x.147
  %53 = load i32, i32* @y.148
  %54 = sub i32 %52, 1
  %55 = mul i32 %52, %54
  %56 = urem i32 %55, 2
  %57 = icmp eq i32 %56, 0
  %58 = icmp slt i32 %53, 10
  %59 = or i1 %57, %58
  br i1 %59, label %60, label %81

; <label>:60:                                     ; preds = %51
  ret %"struct.std::_Bit_reference"* %6

; <label>:61:                                     ; preds = %18, %9
  %62 = getelementptr inbounds %"struct.std::_Bit_reference", %"struct.std::_Bit_reference"* %6, i32 0, i32 1
  %63 = load i64, i64* %62, align 8
  %64 = getelementptr inbounds %"struct.std::_Bit_reference", %"struct.std::_Bit_reference"* %6, i32 0, i32 0
  %65 = load i64*, i64** %64, align 8
  %66 = load i64, i64* %65, align 8
  %67 = shl i64 %66, %63
  %68 = sub i64 %66, %63
  %69 = mul i64 %68, %63
  %70 = shl i64 %66, %63
  %71 = sub i64 %66, %63
  %72 = mul i64 %71, %63
  %73 = sub i64 0, %66
  %74 = add i64 %73, %63
  %75 = sub i64 %66, %63
  %76 = mul i64 %75, %63
  %77 = shl i64 %66, %63
  %78 = sub i64 0, %66
  %79 = add i64 %78, %63
  %80 = or i64 %66, %63
  store i64 %80, i64* %65, align 8
  br label %18

; <label>:81:                                     ; preds = %51, %42
  br label %51
}

; Function Attrs: noinline uwtable
define linkonce_odr void @_ZNSt5stackIiSt5dequeIiSaIiEEE4pushERKi(%"class.std::stack"*, i32* dereferenceable(4)) #0 comdat align 2 {
  %3 = load i32, i32* @x.149
  %4 = load i32, i32* @y.150
  %5 = sub i32 %3, 1
  %6 = mul i32 %3, %5
  %7 = urem i32 %6, 2
  %8 = icmp eq i32 %7, 0
  %9 = icmp slt i32 %4, 10
  %10 = or i1 %8, %9
  br i1 %10, label %11, label %26

; <label>:11:                                     ; preds = %2, %26
  %12 = alloca %"class.std::stack"*, align 8
  %13 = alloca i32*, align 8
  store %"class.std::stack"* %0, %"class.std::stack"** %12, align 8
  store i32* %1, i32** %13, align 8
  %14 = load %"class.std::stack"*, %"class.std::stack"** %12, align 8
  %15 = getelementptr inbounds %"class.std::stack", %"class.std::stack"* %14, i32 0, i32 0
  %16 = load i32*, i32** %13, align 8
  call void @_ZNSt5dequeIiSaIiEE9push_backERKi(%"class.std::deque"* %15, i32* dereferenceable(4) %16)
  %17 = load i32, i32* @x.149
  %18 = load i32, i32* @y.150
  %19 = sub i32 %17, 1
  %20 = mul i32 %17, %19
  %21 = urem i32 %20, 2
  %22 = icmp eq i32 %21, 0
  %23 = icmp slt i32 %18, 10
  %24 = or i1 %22, %23
  br i1 %24, label %25, label %26

; <label>:25:                                     ; preds = %11
  ret void

; <label>:26:                                     ; preds = %11, %2
  %27 = alloca %"class.std::stack"*, align 8
  %28 = alloca i32*, align 8
  store %"class.std::stack"* %0, %"class.std::stack"** %27, align 8
  store i32* %1, i32** %28, align 8
  %29 = load %"class.std::stack"*, %"class.std::stack"** %27, align 8
  %30 = getelementptr inbounds %"class.std::stack", %"class.std::stack"* %29, i32 0, i32 0
  %31 = load i32*, i32** %28, align 8
  call void @_ZNSt5dequeIiSaIiEE9push_backERKi(%"class.std::deque"* %30, i32* dereferenceable(4) %31)
  br label %11
}

; Function Attrs: noinline nounwind uwtable
define linkonce_odr void @_ZNSt6vectorIiSaIiEEC2Ev(%"class.std::vector.5"*) unnamed_addr #1 comdat align 2 personality i8* bitcast (i32 (...)* @__gxx_personality_v0 to i8*) {
  %2 = load i32, i32* @x.151
  %3 = load i32, i32* @y.152
  %4 = sub i32 %2, 1
  %5 = mul i32 %2, %4
  %6 = urem i32 %5, 2
  %7 = icmp eq i32 %6, 0
  %8 = icmp slt i32 %3, 10
  %9 = or i1 %7, %8
  br i1 %9, label %10, label %63

; <label>:10:                                     ; preds = %1, %63
  %11 = alloca %"class.std::vector.5"*, align 8
  store %"class.std::vector.5"* %0, %"class.std::vector.5"** %11, align 8
  %12 = load %"class.std::vector.5"*, %"class.std::vector.5"** %11, align 8
  %13 = bitcast %"class.std::vector.5"* %12 to %"struct.std::_Vector_base.6"*
  %14 = load i32, i32* @x.151
  %15 = load i32, i32* @y.152
  %16 = sub i32 %14, 1
  %17 = mul i32 %14, %16
  %18 = urem i32 %17, 2
  %19 = icmp eq i32 %18, 0
  %20 = icmp slt i32 %15, 10
  %21 = or i1 %19, %20
  br i1 %21, label %22, label %63

; <label>:22:                                     ; preds = %10
  invoke void @_ZNSt12_Vector_baseIiSaIiEEC2Ev(%"struct.std::_Vector_base.6"* %13)
          to label %23 unwind label %42

; <label>:23:                                     ; preds = %22
  %24 = load i32, i32* @x.151
  %25 = load i32, i32* @y.152
  %26 = sub i32 %24, 1
  %27 = mul i32 %24, %26
  %28 = urem i32 %27, 2
  %29 = icmp eq i32 %28, 0
  %30 = icmp slt i32 %25, 10
  %31 = or i1 %29, %30
  br i1 %31, label %32, label %67

; <label>:32:                                     ; preds = %23, %67
  %33 = load i32, i32* @x.151
  %34 = load i32, i32* @y.152
  %35 = sub i32 %33, 1
  %36 = mul i32 %33, %35
  %37 = urem i32 %36, 2
  %38 = icmp eq i32 %37, 0
  %39 = icmp slt i32 %34, 10
  %40 = or i1 %38, %39
  br i1 %40, label %41, label %67

; <label>:41:                                     ; preds = %32
  ret void

; <label>:42:                                     ; preds = %22
  %43 = load i32, i32* @x.151
  %44 = load i32, i32* @y.152
  %45 = sub i32 %43, 1
  %46 = mul i32 %43, %45
  %47 = urem i32 %46, 2
  %48 = icmp eq i32 %47, 0
  %49 = icmp slt i32 %44, 10
  %50 = or i1 %48, %49
  br i1 %50, label %51, label %68

; <label>:51:                                     ; preds = %42, %68
  %52 = landingpad { i8*, i32 }
          catch i8* null
  %53 = extractvalue { i8*, i32 } %52, 0
  call void @__clang_call_terminate(i8* %53) #8
  %54 = load i32, i32* @x.151
  %55 = load i32, i32* @y.152
  %56 = sub i32 %54, 1
  %57 = mul i32 %54, %56
  %58 = urem i32 %57, 2
  %59 = icmp eq i32 %58, 0
  %60 = icmp slt i32 %55, 10
  %61 = or i1 %59, %60
  br i1 %61, label %62, label %68

; <label>:62:                                     ; preds = %51
  unreachable

; <label>:63:                                     ; preds = %10, %1
  %64 = alloca %"class.std::vector.5"*, align 8
  store %"class.std::vector.5"* %0, %"class.std::vector.5"** %64, align 8
  %65 = load %"class.std::vector.5"*, %"class.std::vector.5"** %64, align 8
  %66 = bitcast %"class.std::vector.5"* %65 to %"struct.std::_Vector_base.6"*
  br label %10

; <label>:67:                                     ; preds = %32, %23
  br label %32

; <label>:68:                                     ; preds = %51, %42
  %69 = landingpad { i8*, i32 }
          catch i8* null
  %70 = extractvalue { i8*, i32 } %69, 0
  call void @__clang_call_terminate(i8* %70) #8
  br label %51
}

; Function Attrs: noinline uwtable
define linkonce_odr void @_ZNSt6vectorIiSaIiEE9push_backERKi(%"class.std::vector.5"*, i32* dereferenceable(4)) #0 comdat align 2 {
  %3 = alloca %"class.std::vector.5"*, align 8
  %4 = alloca i32*, align 8
  store %"class.std::vector.5"* %0, %"class.std::vector.5"** %3, align 8
  store i32* %1, i32** %4, align 8
  %5 = load %"class.std::vector.5"*, %"class.std::vector.5"** %3, align 8
  %6 = bitcast %"class.std::vector.5"* %5 to %"struct.std::_Vector_base.6"*
  %7 = getelementptr inbounds %"struct.std::_Vector_base.6", %"struct.std::_Vector_base.6"* %6, i32 0, i32 0
  %8 = getelementptr inbounds %"struct.std::_Vector_base<int, std::allocator<int> >::_Vector_impl", %"struct.std::_Vector_base<int, std::allocator<int> >::_Vector_impl"* %7, i32 0, i32 1
  %9 = load i32*, i32** %8, align 8
  %10 = bitcast %"class.std::vector.5"* %5 to %"struct.std::_Vector_base.6"*
  %11 = getelementptr inbounds %"struct.std::_Vector_base.6", %"struct.std::_Vector_base.6"* %10, i32 0, i32 0
  %12 = getelementptr inbounds %"struct.std::_Vector_base<int, std::allocator<int> >::_Vector_impl", %"struct.std::_Vector_base<int, std::allocator<int> >::_Vector_impl"* %11, i32 0, i32 2
  %13 = load i32*, i32** %12, align 8
  %14 = icmp ne i32* %9, %13
  br i1 %14, label %15, label %47

; <label>:15:                                     ; preds = %2
  %16 = load i32, i32* @x.153
  %17 = load i32, i32* @y.154
  %18 = sub i32 %16, 1
  %19 = mul i32 %16, %18
  %20 = urem i32 %19, 2
  %21 = icmp eq i32 %20, 0
  %22 = icmp slt i32 %17, 10
  %23 = or i1 %21, %22
  br i1 %23, label %24, label %50

; <label>:24:                                     ; preds = %15, %50
  %25 = bitcast %"class.std::vector.5"* %5 to %"struct.std::_Vector_base.6"*
  %26 = getelementptr inbounds %"struct.std::_Vector_base.6", %"struct.std::_Vector_base.6"* %25, i32 0, i32 0
  %27 = bitcast %"struct.std::_Vector_base<int, std::allocator<int> >::_Vector_impl"* %26 to %"class.std::allocator.7"*
  %28 = bitcast %"class.std::vector.5"* %5 to %"struct.std::_Vector_base.6"*
  %29 = getelementptr inbounds %"struct.std::_Vector_base.6", %"struct.std::_Vector_base.6"* %28, i32 0, i32 0
  %30 = getelementptr inbounds %"struct.std::_Vector_base<int, std::allocator<int> >::_Vector_impl", %"struct.std::_Vector_base<int, std::allocator<int> >::_Vector_impl"* %29, i32 0, i32 1
  %31 = load i32*, i32** %30, align 8
  %32 = load i32*, i32** %4, align 8
  call void @_ZNSt16allocator_traitsISaIiEE9constructIiJRKiEEEvRS0_PT_DpOT0_(%"class.std::allocator.7"* dereferenceable(1) %27, i32* %31, i32* dereferenceable(4) %32)
  %33 = bitcast %"class.std::vector.5"* %5 to %"struct.std::_Vector_base.6"*
  %34 = getelementptr inbounds %"struct.std::_Vector_base.6", %"struct.std::_Vector_base.6"* %33, i32 0, i32 0
  %35 = getelementptr inbounds %"struct.std::_Vector_base<int, std::allocator<int> >::_Vector_impl", %"struct.std::_Vector_base<int, std::allocator<int> >::_Vector_impl"* %34, i32 0, i32 1
  %36 = load i32*, i32** %35, align 8
  %37 = getelementptr inbounds i32, i32* %36, i32 1
  store i32* %37, i32** %35, align 8
  %38 = load i32, i32* @x.153
  %39 = load i32, i32* @y.154
  %40 = sub i32 %38, 1
  %41 = mul i32 %38, %40
  %42 = urem i32 %41, 2
  %43 = icmp eq i32 %42, 0
  %44 = icmp slt i32 %39, 10
  %45 = or i1 %43, %44
  br i1 %45, label %46, label %50

; <label>:46:                                     ; preds = %24
  br label %49

; <label>:47:                                     ; preds = %2
  %48 = load i32*, i32** %4, align 8
  call void @_ZNSt6vectorIiSaIiEE19_M_emplace_back_auxIJRKiEEEvDpOT_(%"class.std::vector.5"* %5, i32* dereferenceable(4) %48)
  br label %49

; <label>:49:                                     ; preds = %47, %46
  ret void

; <label>:50:                                     ; preds = %24, %15
  %51 = bitcast %"class.std::vector.5"* %5 to %"struct.std::_Vector_base.6"*
  %52 = getelementptr inbounds %"struct.std::_Vector_base.6", %"struct.std::_Vector_base.6"* %51, i32 0, i32 0
  %53 = bitcast %"struct.std::_Vector_base<int, std::allocator<int> >::_Vector_impl"* %52 to %"class.std::allocator.7"*
  %54 = bitcast %"class.std::vector.5"* %5 to %"struct.std::_Vector_base.6"*
  %55 = getelementptr inbounds %"struct.std::_Vector_base.6", %"struct.std::_Vector_base.6"* %54, i32 0, i32 0
  %56 = getelementptr inbounds %"struct.std::_Vector_base<int, std::allocator<int> >::_Vector_impl", %"struct.std::_Vector_base<int, std::allocator<int> >::_Vector_impl"* %55, i32 0, i32 1
  %57 = load i32*, i32** %56, align 8
  %58 = load i32*, i32** %4, align 8
  call void @_ZNSt16allocator_traitsISaIiEE9constructIiJRKiEEEvRS0_PT_DpOT0_(%"class.std::allocator.7"* dereferenceable(1) %53, i32* %57, i32* dereferenceable(4) %58)
  %59 = bitcast %"class.std::vector.5"* %5 to %"struct.std::_Vector_base.6"*
  %60 = getelementptr inbounds %"struct.std::_Vector_base.6", %"struct.std::_Vector_base.6"* %59, i32 0, i32 0
  %61 = getelementptr inbounds %"struct.std::_Vector_base<int, std::allocator<int> >::_Vector_impl", %"struct.std::_Vector_base<int, std::allocator<int> >::_Vector_impl"* %60, i32 0, i32 1
  %62 = load i32*, i32** %61, align 8
  %63 = getelementptr inbounds i32, i32* %62, i32 1
  store i32* %63, i32** %61, align 8
  br label %24
}

; Function Attrs: noinline nounwind uwtable
define linkonce_odr dereferenceable(24) %"class.std::vector.0"* @_ZNKSt6vectorIS_I4EdgeSaIS0_EESaIS2_EEixEm(%"class.std::vector"*, i64) #1 comdat align 2 {
  %3 = load i32, i32* @x.155
  %4 = load i32, i32* @y.156
  %5 = sub i32 %3, 1
  %6 = mul i32 %3, %5
  %7 = urem i32 %6, 2
  %8 = icmp eq i32 %7, 0
  %9 = icmp slt i32 %4, 10
  %10 = or i1 %8, %9
  br i1 %10, label %11, label %30

; <label>:11:                                     ; preds = %2, %30
  %12 = alloca %"class.std::vector"*, align 8
  %13 = alloca i64, align 8
  store %"class.std::vector"* %0, %"class.std::vector"** %12, align 8
  store i64 %1, i64* %13, align 8
  %14 = load %"class.std::vector"*, %"class.std::vector"** %12, align 8
  %15 = bitcast %"class.std::vector"* %14 to %"struct.std::_Vector_base"*
  %16 = getelementptr inbounds %"struct.std::_Vector_base", %"struct.std::_Vector_base"* %15, i32 0, i32 0
  %17 = getelementptr inbounds %"struct.std::_Vector_base<std::vector<Edge, std::allocator<Edge> >, std::allocator<std::vector<Edge, std::allocator<Edge> > > >::_Vector_impl", %"struct.std::_Vector_base<std::vector<Edge, std::allocator<Edge> >, std::allocator<std::vector<Edge, std::allocator<Edge> > > >::_Vector_impl"* %16, i32 0, i32 0
  %18 = load %"class.std::vector.0"*, %"class.std::vector.0"** %17, align 8
  %19 = load i64, i64* %13, align 8
  %20 = getelementptr inbounds %"class.std::vector.0", %"class.std::vector.0"* %18, i64 %19
  %21 = load i32, i32* @x.155
  %22 = load i32, i32* @y.156
  %23 = sub i32 %21, 1
  %24 = mul i32 %21, %23
  %25 = urem i32 %24, 2
  %26 = icmp eq i32 %25, 0
  %27 = icmp slt i32 %22, 10
  %28 = or i1 %26, %27
  br i1 %28, label %29, label %30

; <label>:29:                                     ; preds = %11
  ret %"class.std::vector.0"* %20

; <label>:30:                                     ; preds = %11, %2
  %31 = alloca %"class.std::vector"*, align 8
  %32 = alloca i64, align 8
  store %"class.std::vector"* %0, %"class.std::vector"** %31, align 8
  store i64 %1, i64* %32, align 8
  %33 = load %"class.std::vector"*, %"class.std::vector"** %31, align 8
  %34 = bitcast %"class.std::vector"* %33 to %"struct.std::_Vector_base"*
  %35 = getelementptr inbounds %"struct.std::_Vector_base", %"struct.std::_Vector_base"* %34, i32 0, i32 0
  %36 = getelementptr inbounds %"struct.std::_Vector_base<std::vector<Edge, std::allocator<Edge> >, std::allocator<std::vector<Edge, std::allocator<Edge> > > >::_Vector_impl", %"struct.std::_Vector_base<std::vector<Edge, std::allocator<Edge> >, std::allocator<std::vector<Edge, std::allocator<Edge> > > >::_Vector_impl"* %35, i32 0, i32 0
  %37 = load %"class.std::vector.0"*, %"class.std::vector.0"** %36, align 8
  %38 = load i64, i64* %32, align 8
  %39 = getelementptr inbounds %"class.std::vector.0", %"class.std::vector.0"* %37, i64 %38
  br label %11
}

; Function Attrs: noinline uwtable
define linkonce_odr i32* @_ZNSt6vectorIiSaIiEE6insertIN9__gnu_cxx17__normal_iteratorIPiS1_EEvEES6_NS4_IPKiS1_EET_SA_(%"class.std::vector.5"*, i32*, i32*, i32*) #0 comdat align 2 {
  %5 = alloca %"class.__gnu_cxx::__normal_iterator.38", align 8
  %6 = alloca %"class.__gnu_cxx::__normal_iterator.39", align 8
  %7 = alloca %"class.__gnu_cxx::__normal_iterator.38", align 8
  %8 = alloca %"class.__gnu_cxx::__normal_iterator.38", align 8
  %9 = alloca %"class.std::vector.5"*, align 8
  %10 = alloca i64, align 8
  %11 = alloca %"class.__gnu_cxx::__normal_iterator.39", align 8
  %12 = alloca %"class.__gnu_cxx::__normal_iterator.38", align 8
  %13 = alloca %"class.__gnu_cxx::__normal_iterator.38", align 8
  %14 = alloca %"class.__gnu_cxx::__normal_iterator.38", align 8
  %15 = alloca %"class.__gnu_cxx::__normal_iterator.38", align 8
  %16 = alloca %"struct.std::__false_type", align 1
  %17 = alloca %"class.__gnu_cxx::__normal_iterator.38", align 8
  %18 = getelementptr inbounds %"class.__gnu_cxx::__normal_iterator.39", %"class.__gnu_cxx::__normal_iterator.39"* %6, i32 0, i32 0
  store i32* %1, i32** %18, align 8
  %19 = getelementptr inbounds %"class.__gnu_cxx::__normal_iterator.38", %"class.__gnu_cxx::__normal_iterator.38"* %7, i32 0, i32 0
  store i32* %2, i32** %19, align 8
  %20 = getelementptr inbounds %"class.__gnu_cxx::__normal_iterator.38", %"class.__gnu_cxx::__normal_iterator.38"* %8, i32 0, i32 0
  store i32* %3, i32** %20, align 8
  store %"class.std::vector.5"* %0, %"class.std::vector.5"** %9, align 8
  %21 = load %"class.std::vector.5"*, %"class.std::vector.5"** %9, align 8
  %22 = call i32* @_ZNKSt6vectorIiSaIiEE6cbeginEv(%"class.std::vector.5"* %21) #4
  %23 = getelementptr inbounds %"class.__gnu_cxx::__normal_iterator.39", %"class.__gnu_cxx::__normal_iterator.39"* %11, i32 0, i32 0
  store i32* %22, i32** %23, align 8
  %24 = call i64 @_ZN9__gnu_cxxmiIPKiSt6vectorIiSaIiEEEENS_17__normal_iteratorIT_T0_E15difference_typeERKS9_SC_(%"class.__gnu_cxx::__normal_iterator.39"* dereferenceable(8) %6, %"class.__gnu_cxx::__normal_iterator.39"* dereferenceable(8) %11) #4
  store i64 %24, i64* %10, align 8
  %25 = call i32* @_ZNSt6vectorIiSaIiEE5beginEv(%"class.std::vector.5"* %21) #4
  %26 = getelementptr inbounds %"class.__gnu_cxx::__normal_iterator.38", %"class.__gnu_cxx::__normal_iterator.38"* %13, i32 0, i32 0
  store i32* %25, i32** %26, align 8
  %27 = load i64, i64* %10, align 8
  %28 = call i32* @_ZNK9__gnu_cxx17__normal_iteratorIPiSt6vectorIiSaIiEEEplEl(%"class.__gnu_cxx::__normal_iterator.38"* %13, i64 %27) #4
  %29 = getelementptr inbounds %"class.__gnu_cxx::__normal_iterator.38", %"class.__gnu_cxx::__normal_iterator.38"* %12, i32 0, i32 0
  store i32* %28, i32** %29, align 8
  %30 = bitcast %"class.__gnu_cxx::__normal_iterator.38"* %14 to i8*
  %31 = bitcast %"class.__gnu_cxx::__normal_iterator.38"* %7 to i8*
  call void @llvm.memcpy.p0i8.p0i8.i64(i8* %30, i8* %31, i64 8, i32 8, i1 false)
  %32 = bitcast %"class.__gnu_cxx::__normal_iterator.38"* %15 to i8*
  %33 = bitcast %"class.__gnu_cxx::__normal_iterator.38"* %8 to i8*
  call void @llvm.memcpy.p0i8.p0i8.i64(i8* %32, i8* %33, i64 8, i32 8, i1 false)
  %34 = getelementptr inbounds %"class.__gnu_cxx::__normal_iterator.38", %"class.__gnu_cxx::__normal_iterator.38"* %12, i32 0, i32 0
  %35 = load i32*, i32** %34, align 8
  %36 = getelementptr inbounds %"class.__gnu_cxx::__normal_iterator.38", %"class.__gnu_cxx::__normal_iterator.38"* %14, i32 0, i32 0
  %37 = load i32*, i32** %36, align 8
  %38 = getelementptr inbounds %"class.__gnu_cxx::__normal_iterator.38", %"class.__gnu_cxx::__normal_iterator.38"* %15, i32 0, i32 0
  %39 = load i32*, i32** %38, align 8
  call void @_ZNSt6vectorIiSaIiEE18_M_insert_dispatchIN9__gnu_cxx17__normal_iteratorIPiS1_EEEEvS6_T_S7_St12__false_type(%"class.std::vector.5"* %21, i32* %35, i32* %37, i32* %39)
  %40 = call i32* @_ZNSt6vectorIiSaIiEE5beginEv(%"class.std::vector.5"* %21) #4
  %41 = getelementptr inbounds %"class.__gnu_cxx::__normal_iterator.38", %"class.__gnu_cxx::__normal_iterator.38"* %17, i32 0, i32 0
  store i32* %40, i32** %41, align 8
  %42 = load i64, i64* %10, align 8
  %43 = call i32* @_ZNK9__gnu_cxx17__normal_iteratorIPiSt6vectorIiSaIiEEEplEl(%"class.__gnu_cxx::__normal_iterator.38"* %17, i64 %42) #4
  %44 = getelementptr inbounds %"class.__gnu_cxx::__normal_iterator.38", %"class.__gnu_cxx::__normal_iterator.38"* %5, i32 0, i32 0
  store i32* %43, i32** %44, align 8
  %45 = getelementptr inbounds %"class.__gnu_cxx::__normal_iterator.38", %"class.__gnu_cxx::__normal_iterator.38"* %5, i32 0, i32 0
  %46 = load i32*, i32** %45, align 8
  ret i32* %46
}

; Function Attrs: noinline nounwind uwtable
define linkonce_odr i32* @_ZNSt6vectorIiSaIiEE3endEv(%"class.std::vector.5"*) #1 comdat align 2 {
  %2 = alloca %"class.__gnu_cxx::__normal_iterator.38", align 8
  %3 = alloca %"class.std::vector.5"*, align 8
  store %"class.std::vector.5"* %0, %"class.std::vector.5"** %3, align 8
  %4 = load %"class.std::vector.5"*, %"class.std::vector.5"** %3, align 8
  %5 = bitcast %"class.std::vector.5"* %4 to %"struct.std::_Vector_base.6"*
  %6 = getelementptr inbounds %"struct.std::_Vector_base.6", %"struct.std::_Vector_base.6"* %5, i32 0, i32 0
  %7 = getelementptr inbounds %"struct.std::_Vector_base<int, std::allocator<int> >::_Vector_impl", %"struct.std::_Vector_base<int, std::allocator<int> >::_Vector_impl"* %6, i32 0, i32 1
  call void @_ZN9__gnu_cxx17__normal_iteratorIPiSt6vectorIiSaIiEEEC2ERKS1_(%"class.__gnu_cxx::__normal_iterator.38"* %2, i32** dereferenceable(8) %7) #4
  %8 = getelementptr inbounds %"class.__gnu_cxx::__normal_iterator.38", %"class.__gnu_cxx::__normal_iterator.38"* %2, i32 0, i32 0
  %9 = load i32*, i32** %8, align 8
  ret i32* %9
}

; Function Attrs: noinline nounwind uwtable
define linkonce_odr void @_ZN9__gnu_cxx17__normal_iteratorIPKiSt6vectorIiSaIiEEEC2IPiEERKNS0_IT_NS_11__enable_ifIXsr3std10__are_sameIS9_S8_EE7__valueES5_E6__typeEEE(%"class.__gnu_cxx::__normal_iterator.39"*, %"class.__gnu_cxx::__normal_iterator.38"* dereferenceable(8)) unnamed_addr #1 comdat align 2 {
  %3 = alloca %"class.__gnu_cxx::__normal_iterator.39"*, align 8
  %4 = alloca %"class.__gnu_cxx::__normal_iterator.38"*, align 8
  store %"class.__gnu_cxx::__normal_iterator.39"* %0, %"class.__gnu_cxx::__normal_iterator.39"** %3, align 8
  store %"class.__gnu_cxx::__normal_iterator.38"* %1, %"class.__gnu_cxx::__normal_iterator.38"** %4, align 8
  %5 = load %"class.__gnu_cxx::__normal_iterator.39"*, %"class.__gnu_cxx::__normal_iterator.39"** %3, align 8
  %6 = getelementptr inbounds %"class.__gnu_cxx::__normal_iterator.39", %"class.__gnu_cxx::__normal_iterator.39"* %5, i32 0, i32 0
  %7 = load %"class.__gnu_cxx::__normal_iterator.38"*, %"class.__gnu_cxx::__normal_iterator.38"** %4, align 8
  %8 = call dereferenceable(8) i32** @_ZNK9__gnu_cxx17__normal_iteratorIPiSt6vectorIiSaIiEEE4baseEv(%"class.__gnu_cxx::__normal_iterator.38"* %7) #4
  %9 = load i32*, i32** %8, align 8
  store i32* %9, i32** %6, align 8
  ret void
}

; Function Attrs: noinline nounwind uwtable
define linkonce_odr i32* @_ZNSt6vectorIiSaIiEE5beginEv(%"class.std::vector.5"*) #1 comdat align 2 {
  %2 = alloca %"class.__gnu_cxx::__normal_iterator.38", align 8
  %3 = alloca %"class.std::vector.5"*, align 8
  store %"class.std::vector.5"* %0, %"class.std::vector.5"** %3, align 8
  %4 = load %"class.std::vector.5"*, %"class.std::vector.5"** %3, align 8
  %5 = bitcast %"class.std::vector.5"* %4 to %"struct.std::_Vector_base.6"*
  %6 = getelementptr inbounds %"struct.std::_Vector_base.6", %"struct.std::_Vector_base.6"* %5, i32 0, i32 0
  %7 = getelementptr inbounds %"struct.std::_Vector_base<int, std::allocator<int> >::_Vector_impl", %"struct.std::_Vector_base<int, std::allocator<int> >::_Vector_impl"* %6, i32 0, i32 0
  call void @_ZN9__gnu_cxx17__normal_iteratorIPiSt6vectorIiSaIiEEEC2ERKS1_(%"class.__gnu_cxx::__normal_iterator.38"* %2, i32** dereferenceable(8) %7) #4
  %8 = getelementptr inbounds %"class.__gnu_cxx::__normal_iterator.38", %"class.__gnu_cxx::__normal_iterator.38"* %2, i32 0, i32 0
  %9 = load i32*, i32** %8, align 8
  ret i32* %9
}

; Function Attrs: noinline uwtable
define { i32, double } @_Z31diameter_of_unoriented_tree_dfsRK5Graphii(%class.Graph* dereferenceable(32), i32, i32) #0 {
  %4 = alloca %"class.std::tuple", align 8
  %5 = alloca %class.Graph*, align 8
  %6 = alloca i32, align 4
  %7 = alloca i32, align 4
  %8 = alloca double, align 8
  %9 = alloca %"class.std::vector.0"*, align 8
  %10 = alloca %"class.__gnu_cxx::__normal_iterator", align 8
  %11 = alloca %"class.__gnu_cxx::__normal_iterator", align 8
  %12 = alloca %class.Edge*, align 8
  %13 = alloca double, align 8
  %14 = alloca i32, align 4
  %15 = alloca %"class.std::tuple", align 8
  %16 = alloca %"class.std::tuple.40", align 8
  %17 = alloca %"class.std::tuple", align 8
  store %class.Graph* %0, %class.Graph** %5, align 8
  store i32 %1, i32* %6, align 4
  store i32 %2, i32* %7, align 4
  store double 0.000000e+00, double* %8, align 8
  call void @_ZNSt5tupleIJdiEEC2IdRKivEEOT_OT0_(%"class.std::tuple"* %4, double* dereferenceable(8) %8, i32* dereferenceable(4) %7)
  %18 = load %class.Graph*, %class.Graph** %5, align 8
  %19 = load i32, i32* %7, align 4
  %20 = call dereferenceable(24) %"class.std::vector.0"* @_ZNK5Graph4edgeEi(%class.Graph* %18, i32 %19)
  store %"class.std::vector.0"* %20, %"class.std::vector.0"** %9, align 8
  %21 = load %"class.std::vector.0"*, %"class.std::vector.0"** %9, align 8
  %22 = call %class.Edge* @_ZNKSt6vectorI4EdgeSaIS0_EE5beginEv(%"class.std::vector.0"* %21) #4
  %23 = getelementptr inbounds %"class.__gnu_cxx::__normal_iterator", %"class.__gnu_cxx::__normal_iterator"* %10, i32 0, i32 0
  store %class.Edge* %22, %class.Edge** %23, align 8
  %24 = load %"class.std::vector.0"*, %"class.std::vector.0"** %9, align 8
  %25 = call %class.Edge* @_ZNKSt6vectorI4EdgeSaIS0_EE3endEv(%"class.std::vector.0"* %24) #4
  %26 = getelementptr inbounds %"class.__gnu_cxx::__normal_iterator", %"class.__gnu_cxx::__normal_iterator"* %11, i32 0, i32 0
  store %class.Edge* %25, %class.Edge** %26, align 8
  br label %27

; <label>:27:                                     ; preds = %92, %3
  %28 = call zeroext i1 @_ZN9__gnu_cxxneIPK4EdgeSt6vectorIS1_SaIS1_EEEEbRKNS_17__normal_iteratorIT_T0_EESC_(%"class.__gnu_cxx::__normal_iterator"* dereferenceable(8) %10, %"class.__gnu_cxx::__normal_iterator"* dereferenceable(8) %11) #4
  br i1 %28, label %29, label %94

; <label>:29:                                     ; preds = %27
  %30 = call dereferenceable(16) %class.Edge* @_ZNK9__gnu_cxx17__normal_iteratorIPK4EdgeSt6vectorIS1_SaIS1_EEEdeEv(%"class.__gnu_cxx::__normal_iterator"* %10) #4
  store %class.Edge* %30, %class.Edge** %12, align 8
  %31 = load %class.Edge*, %class.Edge** %12, align 8
  %32 = call i32 @_ZNK4Edge2toEv(%class.Edge* %31)
  %33 = load i32, i32* %6, align 4
  %34 = icmp eq i32 %32, %33
  br i1 %34, label %35, label %36

; <label>:35:                                     ; preds = %29
  br label %92

; <label>:36:                                     ; preds = %29
  %37 = load i32, i32* @x.165
  %38 = load i32, i32* @y.166
  %39 = sub i32 %37, 1
  %40 = mul i32 %37, %39
  %41 = urem i32 %40, 2
  %42 = icmp eq i32 %41, 0
  %43 = icmp slt i32 %38, 10
  %44 = or i1 %42, %43
  br i1 %44, label %45, label %98

; <label>:45:                                     ; preds = %36, %98
  %46 = load %class.Graph*, %class.Graph** %5, align 8
  %47 = load i32, i32* %7, align 4
  %48 = load %class.Edge*, %class.Edge** %12, align 8
  %49 = call i32 @_ZNK4Edge2toEv(%class.Edge* %48)
  %50 = call { i32, double } @_Z31diameter_of_unoriented_tree_dfsRK5Graphii(%class.Graph* dereferenceable(32) %46, i32 %47, i32 %49)
  %51 = getelementptr inbounds %"class.std::tuple", %"class.std::tuple"* %15, i32 0, i32 0
  %52 = bitcast %"struct.std::_Tuple_impl"* %51 to { i32, double }*
  %53 = getelementptr inbounds { i32, double }, { i32, double }* %52, i32 0, i32 0
  %54 = extractvalue { i32, double } %50, 0
  store i32 %54, i32* %53, align 8
  %55 = getelementptr inbounds { i32, double }, { i32, double }* %52, i32 0, i32 1
  %56 = extractvalue { i32, double } %50, 1
  store double %56, double* %55, align 8
  %57 = call { i32*, double* } @_ZSt3tieIJdiEESt5tupleIJDpRT_EES3_(double* dereferenceable(8) %13, i32* dereferenceable(4) %14) #4
  %58 = getelementptr inbounds %"class.std::tuple.40", %"class.std::tuple.40"* %16, i32 0, i32 0
  %59 = bitcast %"struct.std::_Tuple_impl.41"* %58 to { i32*, double* }*
  %60 = getelementptr inbounds { i32*, double* }, { i32*, double* }* %59, i32 0, i32 0
  %61 = extractvalue { i32*, double* } %57, 0
  store i32* %61, i32** %60, align 8
  %62 = getelementptr inbounds { i32*, double* }, { i32*, double* }* %59, i32 0, i32 1
  %63 = extractvalue { i32*, double* } %57, 1
  store double* %63, double** %62, align 8
  %64 = call dereferenceable(16) %"class.std::tuple.40"* @_ZNSt5tupleIJRdRiEEaSIdiEERS2_OS_IJT_T0_EE(%"class.std::tuple.40"* %16, %"class.std::tuple"* dereferenceable(16) %15)
  %65 = load %class.Edge*, %class.Edge** %12, align 8
  %66 = call double @_ZNK4Edge6weightEv(%class.Edge* %65)
  %67 = load double, double* %13, align 8
  %68 = fadd double %67, %66
  store double %68, double* %13, align 8
  %69 = call dereferenceable(8) double* @_ZSt3getILm0EJdiEERNSt13tuple_elementIXT_ESt5tupleIJDpT0_EEE4typeERS4_(%"class.std::tuple"* dereferenceable(16) %4) #4
  %70 = load double, double* %69, align 8
  %71 = load double, double* %13, align 8
  %72 = fcmp olt double %70, %71
  %73 = load i32, i32* @x.165
  %74 = load i32, i32* @y.166
  %75 = sub i32 %73, 1
  %76 = mul i32 %73, %75
  %77 = urem i32 %76, 2
  %78 = icmp eq i32 %77, 0
  %79 = icmp slt i32 %74, 10
  %80 = or i1 %78, %79
  br i1 %80, label %81, label %98

; <label>:81:                                     ; preds = %45
  br i1 %72, label %82, label %91

; <label>:82:                                     ; preds = %81
  %83 = call { i32, double } @_ZSt10make_tupleIJRdRiEESt5tupleIJDpNSt17__decay_and_stripIT_E6__typeEEEDpOS4_(double* dereferenceable(8) %13, i32* dereferenceable(4) %14)
  %84 = getelementptr inbounds %"class.std::tuple", %"class.std::tuple"* %17, i32 0, i32 0
  %85 = bitcast %"struct.std::_Tuple_impl"* %84 to { i32, double }*
  %86 = getelementptr inbounds { i32, double }, { i32, double }* %85, i32 0, i32 0
  %87 = extractvalue { i32, double } %83, 0
  store i32 %87, i32* %86, align 8
  %88 = getelementptr inbounds { i32, double }, { i32, double }* %85, i32 0, i32 1
  %89 = extractvalue { i32, double } %83, 1
  store double %89, double* %88, align 8
  %90 = call dereferenceable(16) %"class.std::tuple"* @_ZNSt5tupleIJdiEEaSEOS0_(%"class.std::tuple"* %4, %"class.std::tuple"* dereferenceable(16) %17) #4
  br label %91

; <label>:91:                                     ; preds = %82, %81
  br label %92

; <label>:92:                                     ; preds = %91, %35
  %93 = call dereferenceable(8) %"class.__gnu_cxx::__normal_iterator"* @_ZN9__gnu_cxx17__normal_iteratorIPK4EdgeSt6vectorIS1_SaIS1_EEEppEv(%"class.__gnu_cxx::__normal_iterator"* %10) #4
  br label %27

; <label>:94:                                     ; preds = %27
  %95 = getelementptr inbounds %"class.std::tuple", %"class.std::tuple"* %4, i32 0, i32 0
  %96 = bitcast %"struct.std::_Tuple_impl"* %95 to { i32, double }*
  %97 = load { i32, double }, { i32, double }* %96, align 8
  ret { i32, double } %97

; <label>:98:                                     ; preds = %45, %36
  %99 = load %class.Graph*, %class.Graph** %5, align 8
  %100 = load i32, i32* %7, align 4
  %101 = load %class.Edge*, %class.Edge** %12, align 8
  %102 = call i32 @_ZNK4Edge2toEv(%class.Edge* %101)
  %103 = call { i32, double } @_Z31diameter_of_unoriented_tree_dfsRK5Graphii(%class.Graph* dereferenceable(32) %99, i32 %100, i32 %102)
  %104 = getelementptr inbounds %"class.std::tuple", %"class.std::tuple"* %15, i32 0, i32 0
  %105 = bitcast %"struct.std::_Tuple_impl"* %104 to { i32, double }*
  %106 = getelementptr inbounds { i32, double }, { i32, double }* %105, i32 0, i32 0
  %107 = extractvalue { i32, double } %103, 0
  store i32 %107, i32* %106, align 8
  %108 = getelementptr inbounds { i32, double }, { i32, double }* %105, i32 0, i32 1
  %109 = extractvalue { i32, double } %103, 1
  store double %109, double* %108, align 8
  %110 = call { i32*, double* } @_ZSt3tieIJdiEESt5tupleIJDpRT_EES3_(double* dereferenceable(8) %13, i32* dereferenceable(4) %14) #4
  %111 = getelementptr inbounds %"class.std::tuple.40", %"class.std::tuple.40"* %16, i32 0, i32 0
  %112 = bitcast %"struct.std::_Tuple_impl.41"* %111 to { i32*, double* }*
  %113 = getelementptr inbounds { i32*, double* }, { i32*, double* }* %112, i32 0, i32 0
  %114 = extractvalue { i32*, double* } %110, 0
  store i32* %114, i32** %113, align 8
  %115 = getelementptr inbounds { i32*, double* }, { i32*, double* }* %112, i32 0, i32 1
  %116 = extractvalue { i32*, double* } %110, 1
  store double* %116, double** %115, align 8
  %117 = call dereferenceable(16) %"class.std::tuple.40"* @_ZNSt5tupleIJRdRiEEaSIdiEERS2_OS_IJT_T0_EE(%"class.std::tuple.40"* %16, %"class.std::tuple"* dereferenceable(16) %15)
  %118 = load %class.Edge*, %class.Edge** %12, align 8
  %119 = call double @_ZNK4Edge6weightEv(%class.Edge* %118)
  %120 = load double, double* %13, align 8
  %121 = fsub double %120, %119
  %122 = fmul double %121, %119
  %123 = fsub double %120, %119
  %124 = fmul double %123, %119
  %125 = fadd double %120, %119
  store double %125, double* %13, align 8
  %126 = call dereferenceable(8) double* @_ZSt3getILm0EJdiEERNSt13tuple_elementIXT_ESt5tupleIJDpT0_EEE4typeERS4_(%"class.std::tuple"* dereferenceable(16) %4) #4
  %127 = load double, double* %126, align 8
  %128 = load double, double* %13, align 8
  %129 = fcmp olt double %127, %128
  br label %45
}

; Function Attrs: noinline uwtable
define linkonce_odr void @_ZNSt5tupleIJdiEEC2IdRKivEEOT_OT0_(%"class.std::tuple"*, double* dereferenceable(8), i32* dereferenceable(4)) unnamed_addr #0 comdat align 2 {
  %4 = alloca %"class.std::tuple"*, align 8
  %5 = alloca double*, align 8
  %6 = alloca i32*, align 8
  store %"class.std::tuple"* %0, %"class.std::tuple"** %4, align 8
  store double* %1, double** %5, align 8
  store i32* %2, i32** %6, align 8
  %7 = load %"class.std::tuple"*, %"class.std::tuple"** %4, align 8
  %8 = bitcast %"class.std::tuple"* %7 to %"struct.std::_Tuple_impl"*
  %9 = load double*, double** %5, align 8
  %10 = call dereferenceable(8) double* @_ZSt7forwardIdEOT_RNSt16remove_referenceIS0_E4typeE(double* dereferenceable(8) %9) #4
  %11 = load i32*, i32** %6, align 8
  %12 = call dereferenceable(4) i32* @_ZSt7forwardIRKiEOT_RNSt16remove_referenceIS2_E4typeE(i32* dereferenceable(4) %11) #4
  call void @_ZNSt11_Tuple_implILm0EJdiEEC2IdJRKiEvEEOT_DpOT0_(%"struct.std::_Tuple_impl"* %8, double* dereferenceable(8) %10, i32* dereferenceable(4) %12)
  ret void
}

; Function Attrs: noinline nounwind uwtable
define linkonce_odr { i32*, double* } @_ZSt3tieIJdiEESt5tupleIJDpRT_EES3_(double* dereferenceable(8), i32* dereferenceable(4)) #1 comdat personality i8* bitcast (i32 (...)* @__gxx_personality_v0 to i8*) {
  %3 = load i32, i32* @x.169
  %4 = load i32, i32* @y.170
  %5 = sub i32 %3, 1
  %6 = mul i32 %3, %5
  %7 = urem i32 %6, 2
  %8 = icmp eq i32 %7, 0
  %9 = icmp slt i32 %4, 10
  %10 = or i1 %8, %9
  br i1 %10, label %11, label %51

; <label>:11:                                     ; preds = %2, %51
  %12 = alloca %"class.std::tuple.40", align 8
  %13 = alloca double*, align 8
  %14 = alloca i32*, align 8
  store double* %0, double** %13, align 8
  store i32* %1, i32** %14, align 8
  %15 = load double*, double** %13, align 8
  %16 = load i32*, i32** %14, align 8
  %17 = load i32, i32* @x.169
  %18 = load i32, i32* @y.170
  %19 = sub i32 %17, 1
  %20 = mul i32 %17, %19
  %21 = urem i32 %20, 2
  %22 = icmp eq i32 %21, 0
  %23 = icmp slt i32 %18, 10
  %24 = or i1 %22, %23
  br i1 %24, label %25, label %51

; <label>:25:                                     ; preds = %11
  invoke void @_ZNSt5tupleIJRdRiEEC2ES0_S1_(%"class.std::tuple.40"* %12, double* dereferenceable(8) %15, i32* dereferenceable(4) %16)
          to label %26 unwind label %30

; <label>:26:                                     ; preds = %25
  %27 = getelementptr inbounds %"class.std::tuple.40", %"class.std::tuple.40"* %12, i32 0, i32 0
  %28 = bitcast %"struct.std::_Tuple_impl.41"* %27 to { i32*, double* }*
  %29 = load { i32*, double* }, { i32*, double* }* %28, align 8
  ret { i32*, double* } %29

; <label>:30:                                     ; preds = %25
  %31 = load i32, i32* @x.169
  %32 = load i32, i32* @y.170
  %33 = sub i32 %31, 1
  %34 = mul i32 %31, %33
  %35 = urem i32 %34, 2
  %36 = icmp eq i32 %35, 0
  %37 = icmp slt i32 %32, 10
  %38 = or i1 %36, %37
  br i1 %38, label %39, label %57

; <label>:39:                                     ; preds = %30, %57
  %40 = landingpad { i8*, i32 }
          catch i8* null
  %41 = extractvalue { i8*, i32 } %40, 0
  call void @__clang_call_terminate(i8* %41) #8
  %42 = load i32, i32* @x.169
  %43 = load i32, i32* @y.170
  %44 = sub i32 %42, 1
  %45 = mul i32 %42, %44
  %46 = urem i32 %45, 2
  %47 = icmp eq i32 %46, 0
  %48 = icmp slt i32 %43, 10
  %49 = or i1 %47, %48
  br i1 %49, label %50, label %57

; <label>:50:                                     ; preds = %39
  unreachable

; <label>:51:                                     ; preds = %11, %2
  %52 = alloca %"class.std::tuple.40", align 8
  %53 = alloca double*, align 8
  %54 = alloca i32*, align 8
  store double* %0, double** %53, align 8
  store i32* %1, i32** %54, align 8
  %55 = load double*, double** %53, align 8
  %56 = load i32*, i32** %54, align 8
  br label %11

; <label>:57:                                     ; preds = %39, %30
  %58 = landingpad { i8*, i32 }
          catch i8* null
  %59 = extractvalue { i8*, i32 } %58, 0
  call void @__clang_call_terminate(i8* %59) #8
  br label %39
}

; Function Attrs: noinline uwtable
define linkonce_odr dereferenceable(16) %"class.std::tuple.40"* @_ZNSt5tupleIJRdRiEEaSIdiEERS2_OS_IJT_T0_EE(%"class.std::tuple.40"*, %"class.std::tuple"* dereferenceable(16)) #0 comdat align 2 {
  %3 = alloca %"class.std::tuple.40"*, align 8
  %4 = alloca %"class.std::tuple"*, align 8
  store %"class.std::tuple.40"* %0, %"class.std::tuple.40"** %3, align 8
  store %"class.std::tuple"* %1, %"class.std::tuple"** %4, align 8
  %5 = load %"class.std::tuple.40"*, %"class.std::tuple.40"** %3, align 8
  %6 = load %"class.std::tuple"*, %"class.std::tuple"** %4, align 8
  %7 = call dereferenceable(16) %"class.std::tuple"* @_ZSt4moveIRSt5tupleIJdiEEEONSt16remove_referenceIT_E4typeEOS4_(%"class.std::tuple"* dereferenceable(16) %6) #4
  %8 = bitcast %"class.std::tuple"* %7 to %"struct.std::_Tuple_impl"*
  %9 = bitcast %"class.std::tuple.40"* %5 to %"struct.std::_Tuple_impl.41"*
  %10 = call dereferenceable(16) %"struct.std::_Tuple_impl.41"* @_ZNSt11_Tuple_implILm0EJRdRiEEaSIdJiEEERS2_OS_ILm0EJT_DpT0_EE(%"struct.std::_Tuple_impl.41"* %9, %"struct.std::_Tuple_impl"* dereferenceable(16) %8)
  ret %"class.std::tuple.40"* %5
}

; Function Attrs: noinline nounwind uwtable
define linkonce_odr dereferenceable(8) double* @_ZSt3getILm0EJdiEERNSt13tuple_elementIXT_ESt5tupleIJDpT0_EEE4typeERS4_(%"class.std::tuple"* dereferenceable(16)) #1 comdat {
  %2 = load i32, i32* @x.173
  %3 = load i32, i32* @y.174
  %4 = sub i32 %2, 1
  %5 = mul i32 %2, %4
  %6 = urem i32 %5, 2
  %7 = icmp eq i32 %6, 0
  %8 = icmp slt i32 %3, 10
  %9 = or i1 %7, %8
  br i1 %9, label %10, label %24

; <label>:10:                                     ; preds = %1, %24
  %11 = alloca %"class.std::tuple"*, align 8
  store %"class.std::tuple"* %0, %"class.std::tuple"** %11, align 8
  %12 = load %"class.std::tuple"*, %"class.std::tuple"** %11, align 8
  %13 = bitcast %"class.std::tuple"* %12 to %"struct.std::_Tuple_impl"*
  %14 = call dereferenceable(8) double* @_ZSt12__get_helperILm0EdJiEERT0_RSt11_Tuple_implIXT_EJS0_DpT1_EE(%"struct.std::_Tuple_impl"* dereferenceable(16) %13) #4
  %15 = load i32, i32* @x.173
  %16 = load i32, i32* @y.174
  %17 = sub i32 %15, 1
  %18 = mul i32 %15, %17
  %19 = urem i32 %18, 2
  %20 = icmp eq i32 %19, 0
  %21 = icmp slt i32 %16, 10
  %22 = or i1 %20, %21
  br i1 %22, label %23, label %24

; <label>:23:                                     ; preds = %10
  ret double* %14

; <label>:24:                                     ; preds = %10, %1
  %25 = alloca %"class.std::tuple"*, align 8
  store %"class.std::tuple"* %0, %"class.std::tuple"** %25, align 8
  %26 = load %"class.std::tuple"*, %"class.std::tuple"** %25, align 8
  %27 = bitcast %"class.std::tuple"* %26 to %"struct.std::_Tuple_impl"*
  %28 = call dereferenceable(8) double* @_ZSt12__get_helperILm0EdJiEERT0_RSt11_Tuple_implIXT_EJS0_DpT1_EE(%"struct.std::_Tuple_impl"* dereferenceable(16) %27) #4
  br label %10
}

; Function Attrs: noinline uwtable
define linkonce_odr { i32, double } @_ZSt10make_tupleIJRdRiEESt5tupleIJDpNSt17__decay_and_stripIT_E6__typeEEEDpOS4_(double* dereferenceable(8), i32* dereferenceable(4)) #0 comdat {
  %3 = alloca %"class.std::tuple", align 8
  %4 = alloca double*, align 8
  %5 = alloca i32*, align 8
  store double* %0, double** %4, align 8
  store i32* %1, i32** %5, align 8
  %6 = load double*, double** %4, align 8
  %7 = call dereferenceable(8) double* @_ZSt7forwardIRdEOT_RNSt16remove_referenceIS1_E4typeE(double* dereferenceable(8) %6) #4
  %8 = load i32*, i32** %5, align 8
  %9 = call dereferenceable(4) i32* @_ZSt7forwardIRiEOT_RNSt16remove_referenceIS1_E4typeE(i32* dereferenceable(4) %8) #4
  call void @_ZNSt5tupleIJdiEEC2IRdRivEEOT_OT0_(%"class.std::tuple"* %3, double* dereferenceable(8) %7, i32* dereferenceable(4) %9)
  %10 = getelementptr inbounds %"class.std::tuple", %"class.std::tuple"* %3, i32 0, i32 0
  %11 = bitcast %"struct.std::_Tuple_impl"* %10 to { i32, double }*
  %12 = load { i32, double }, { i32, double }* %11, align 8
  ret { i32, double } %12
}

; Function Attrs: noinline nounwind uwtable
define linkonce_odr dereferenceable(16) %"class.std::tuple"* @_ZNSt5tupleIJdiEEaSEOS0_(%"class.std::tuple"*, %"class.std::tuple"* dereferenceable(16)) #1 comdat align 2 {
  %3 = alloca %"class.std::tuple"*, align 8
  %4 = alloca %"class.std::tuple"*, align 8
  store %"class.std::tuple"* %0, %"class.std::tuple"** %3, align 8
  store %"class.std::tuple"* %1, %"class.std::tuple"** %4, align 8
  %5 = load %"class.std::tuple"*, %"class.std::tuple"** %3, align 8
  %6 = load %"class.std::tuple"*, %"class.std::tuple"** %4, align 8
  %7 = call dereferenceable(16) %"class.std::tuple"* @_ZSt4moveIRSt5tupleIJdiEEEONSt16remove_referenceIT_E4typeEOS4_(%"class.std::tuple"* dereferenceable(16) %6) #4
  %8 = bitcast %"class.std::tuple"* %7 to %"struct.std::_Tuple_impl"*
  %9 = bitcast %"class.std::tuple"* %5 to %"struct.std::_Tuple_impl"*
  %10 = call dereferenceable(16) %"struct.std::_Tuple_impl"* @_ZNSt11_Tuple_implILm0EJdiEEaSEOS0_(%"struct.std::_Tuple_impl"* %9, %"struct.std::_Tuple_impl"* dereferenceable(16) %8) #4
  ret %"class.std::tuple"* %5
}

; Function Attrs: noinline uwtable
define double @_Z27diameter_of_unoriented_treeRK5Graph(%class.Graph* dereferenceable(32)) #0 {
  %2 = load i32, i32* @x.179
  %3 = load i32, i32* @y.180
  %4 = sub i32 %2, 1
  %5 = mul i32 %2, %4
  %6 = urem i32 %5, 2
  %7 = icmp eq i32 %6, 0
  %8 = icmp slt i32 %3, 10
  %9 = or i1 %7, %8
  br i1 %9, label %10, label %61

; <label>:10:                                     ; preds = %1, %61
  %11 = alloca %class.Graph*, align 8
  %12 = alloca double, align 8
  %13 = alloca i32, align 4
  %14 = alloca %"class.std::tuple", align 8
  %15 = alloca %"class.std::tuple.40", align 8
  %16 = alloca %"class.std::tuple", align 8
  %17 = alloca %"class.std::tuple.40", align 8
  store %class.Graph* %0, %class.Graph** %11, align 8
  %18 = load %class.Graph*, %class.Graph** %11, align 8
  %19 = call { i32, double } @_Z31diameter_of_unoriented_tree_dfsRK5Graphii(%class.Graph* dereferenceable(32) %18, i32 -1, i32 0)
  %20 = getelementptr inbounds %"class.std::tuple", %"class.std::tuple"* %14, i32 0, i32 0
  %21 = bitcast %"struct.std::_Tuple_impl"* %20 to { i32, double }*
  %22 = getelementptr inbounds { i32, double }, { i32, double }* %21, i32 0, i32 0
  %23 = extractvalue { i32, double } %19, 0
  store i32 %23, i32* %22, align 8
  %24 = getelementptr inbounds { i32, double }, { i32, double }* %21, i32 0, i32 1
  %25 = extractvalue { i32, double } %19, 1
  store double %25, double* %24, align 8
  %26 = call { i32*, double* } @_ZSt3tieIJdiEESt5tupleIJDpRT_EES3_(double* dereferenceable(8) %12, i32* dereferenceable(4) %13) #4
  %27 = getelementptr inbounds %"class.std::tuple.40", %"class.std::tuple.40"* %15, i32 0, i32 0
  %28 = bitcast %"struct.std::_Tuple_impl.41"* %27 to { i32*, double* }*
  %29 = getelementptr inbounds { i32*, double* }, { i32*, double* }* %28, i32 0, i32 0
  %30 = extractvalue { i32*, double* } %26, 0
  store i32* %30, i32** %29, align 8
  %31 = getelementptr inbounds { i32*, double* }, { i32*, double* }* %28, i32 0, i32 1
  %32 = extractvalue { i32*, double* } %26, 1
  store double* %32, double** %31, align 8
  %33 = call dereferenceable(16) %"class.std::tuple.40"* @_ZNSt5tupleIJRdRiEEaSIdiEERS2_OS_IJT_T0_EE(%"class.std::tuple.40"* %15, %"class.std::tuple"* dereferenceable(16) %14)
  %34 = load %class.Graph*, %class.Graph** %11, align 8
  %35 = load i32, i32* %13, align 4
  %36 = call { i32, double } @_Z31diameter_of_unoriented_tree_dfsRK5Graphii(%class.Graph* dereferenceable(32) %34, i32 -1, i32 %35)
  %37 = getelementptr inbounds %"class.std::tuple", %"class.std::tuple"* %16, i32 0, i32 0
  %38 = bitcast %"struct.std::_Tuple_impl"* %37 to { i32, double }*
  %39 = getelementptr inbounds { i32, double }, { i32, double }* %38, i32 0, i32 0
  %40 = extractvalue { i32, double } %36, 0
  store i32 %40, i32* %39, align 8
  %41 = getelementptr inbounds { i32, double }, { i32, double }* %38, i32 0, i32 1
  %42 = extractvalue { i32, double } %36, 1
  store double %42, double* %41, align 8
  %43 = call { i32*, double* } @_ZSt3tieIJdiEESt5tupleIJDpRT_EES3_(double* dereferenceable(8) %12, i32* dereferenceable(4) %13) #4
  %44 = getelementptr inbounds %"class.std::tuple.40", %"class.std::tuple.40"* %17, i32 0, i32 0
  %45 = bitcast %"struct.std::_Tuple_impl.41"* %44 to { i32*, double* }*
  %46 = getelementptr inbounds { i32*, double* }, { i32*, double* }* %45, i32 0, i32 0
  %47 = extractvalue { i32*, double* } %43, 0
  store i32* %47, i32** %46, align 8
  %48 = getelementptr inbounds { i32*, double* }, { i32*, double* }* %45, i32 0, i32 1
  %49 = extractvalue { i32*, double* } %43, 1
  store double* %49, double** %48, align 8
  %50 = call dereferenceable(16) %"class.std::tuple.40"* @_ZNSt5tupleIJRdRiEEaSIdiEERS2_OS_IJT_T0_EE(%"class.std::tuple.40"* %17, %"class.std::tuple"* dereferenceable(16) %16)
  %51 = load double, double* %12, align 8
  %52 = load i32, i32* @x.179
  %53 = load i32, i32* @y.180
  %54 = sub i32 %52, 1
  %55 = mul i32 %52, %54
  %56 = urem i32 %55, 2
  %57 = icmp eq i32 %56, 0
  %58 = icmp slt i32 %53, 10
  %59 = or i1 %57, %58
  br i1 %59, label %60, label %61

; <label>:60:                                     ; preds = %10
  ret double %51

; <label>:61:                                     ; preds = %10, %1
  %62 = alloca %class.Graph*, align 8
  %63 = alloca double, align 8
  %64 = alloca i32, align 4
  %65 = alloca %"class.std::tuple", align 8
  %66 = alloca %"class.std::tuple.40", align 8
  %67 = alloca %"class.std::tuple", align 8
  %68 = alloca %"class.std::tuple.40", align 8
  store %class.Graph* %0, %class.Graph** %62, align 8
  %69 = load %class.Graph*, %class.Graph** %62, align 8
  %70 = call { i32, double } @_Z31diameter_of_unoriented_tree_dfsRK5Graphii(%class.Graph* dereferenceable(32) %69, i32 -1, i32 0)
  %71 = getelementptr inbounds %"class.std::tuple", %"class.std::tuple"* %65, i32 0, i32 0
  %72 = bitcast %"struct.std::_Tuple_impl"* %71 to { i32, double }*
  %73 = getelementptr inbounds { i32, double }, { i32, double }* %72, i32 0, i32 0
  %74 = extractvalue { i32, double } %70, 0
  store i32 %74, i32* %73, align 8
  %75 = getelementptr inbounds { i32, double }, { i32, double }* %72, i32 0, i32 1
  %76 = extractvalue { i32, double } %70, 1
  store double %76, double* %75, align 8
  %77 = call { i32*, double* } @_ZSt3tieIJdiEESt5tupleIJDpRT_EES3_(double* dereferenceable(8) %63, i32* dereferenceable(4) %64) #4
  %78 = getelementptr inbounds %"class.std::tuple.40", %"class.std::tuple.40"* %66, i32 0, i32 0
  %79 = bitcast %"struct.std::_Tuple_impl.41"* %78 to { i32*, double* }*
  %80 = getelementptr inbounds { i32*, double* }, { i32*, double* }* %79, i32 0, i32 0
  %81 = extractvalue { i32*, double* } %77, 0
  store i32* %81, i32** %80, align 8
  %82 = getelementptr inbounds { i32*, double* }, { i32*, double* }* %79, i32 0, i32 1
  %83 = extractvalue { i32*, double* } %77, 1
  store double* %83, double** %82, align 8
  %84 = call dereferenceable(16) %"class.std::tuple.40"* @_ZNSt5tupleIJRdRiEEaSIdiEERS2_OS_IJT_T0_EE(%"class.std::tuple.40"* %66, %"class.std::tuple"* dereferenceable(16) %65)
  %85 = load %class.Graph*, %class.Graph** %62, align 8
  %86 = load i32, i32* %64, align 4
  %87 = call { i32, double } @_Z31diameter_of_unoriented_tree_dfsRK5Graphii(%class.Graph* dereferenceable(32) %85, i32 -1, i32 %86)
  %88 = getelementptr inbounds %"class.std::tuple", %"class.std::tuple"* %67, i32 0, i32 0
  %89 = bitcast %"struct.std::_Tuple_impl"* %88 to { i32, double }*
  %90 = getelementptr inbounds { i32, double }, { i32, double }* %89, i32 0, i32 0
  %91 = extractvalue { i32, double } %87, 0
  store i32 %91, i32* %90, align 8
  %92 = getelementptr inbounds { i32, double }, { i32, double }* %89, i32 0, i32 1
  %93 = extractvalue { i32, double } %87, 1
  store double %93, double* %92, align 8
  %94 = call { i32*, double* } @_ZSt3tieIJdiEESt5tupleIJDpRT_EES3_(double* dereferenceable(8) %63, i32* dereferenceable(4) %64) #4
  %95 = getelementptr inbounds %"class.std::tuple.40", %"class.std::tuple.40"* %68, i32 0, i32 0
  %96 = bitcast %"struct.std::_Tuple_impl.41"* %95 to { i32*, double* }*
  %97 = getelementptr inbounds { i32*, double* }, { i32*, double* }* %96, i32 0, i32 0
  %98 = extractvalue { i32*, double* } %94, 0
  store i32* %98, i32** %97, align 8
  %99 = getelementptr inbounds { i32*, double* }, { i32*, double* }* %96, i32 0, i32 1
  %100 = extractvalue { i32*, double* } %94, 1
  store double* %100, double** %99, align 8
  %101 = call dereferenceable(16) %"class.std::tuple.40"* @_ZNSt5tupleIJRdRiEEaSIdiEERS2_OS_IJT_T0_EE(%"class.std::tuple.40"* %68, %"class.std::tuple"* dereferenceable(16) %67)
  %102 = load double, double* %63, align 8
  br label %10
}

; Function Attrs: noinline uwtable
define void @_Z14cut_vertex_dfsRK5GraphiiRiRSt6vectorIiSaIiEES6_S6_(%class.Graph* dereferenceable(32), i32, i32, i32* dereferenceable(4), %"class.std::vector.5"* dereferenceable(24), %"class.std::vector.5"* dereferenceable(24), %"class.std::vector.5"* dereferenceable(24)) #0 {
  %8 = alloca %class.Graph*, align 8
  %9 = alloca i32, align 4
  %10 = alloca i32, align 4
  %11 = alloca i32*, align 8
  %12 = alloca %"class.std::vector.5"*, align 8
  %13 = alloca %"class.std::vector.5"*, align 8
  %14 = alloca %"class.std::vector.5"*, align 8
  %15 = alloca %"class.std::vector.0"*, align 8
  %16 = alloca %"class.__gnu_cxx::__normal_iterator", align 8
  %17 = alloca %"class.__gnu_cxx::__normal_iterator", align 8
  %18 = alloca %class.Edge*, align 8
  store %class.Graph* %0, %class.Graph** %8, align 8
  store i32 %1, i32* %9, align 4
  store i32 %2, i32* %10, align 4
  store i32* %3, i32** %11, align 8
  store %"class.std::vector.5"* %4, %"class.std::vector.5"** %12, align 8
  store %"class.std::vector.5"* %5, %"class.std::vector.5"** %13, align 8
  store %"class.std::vector.5"* %6, %"class.std::vector.5"** %14, align 8
  %19 = load i32*, i32** %11, align 8
  %20 = load i32, i32* %19, align 4
  %21 = load %"class.std::vector.5"*, %"class.std::vector.5"** %12, align 8
  %22 = load i32, i32* %10, align 4
  %23 = sext i32 %22 to i64
  %24 = call dereferenceable(4) i32* @_ZNSt6vectorIiSaIiEEixEm(%"class.std::vector.5"* %21, i64 %23) #4
  store i32 %20, i32* %24, align 4
  %25 = load i32*, i32** %11, align 8
  %26 = load i32, i32* %25, align 4
  %27 = load %"class.std::vector.5"*, %"class.std::vector.5"** %14, align 8
  %28 = load i32, i32* %10, align 4
  %29 = sext i32 %28 to i64
  %30 = call dereferenceable(4) i32* @_ZNSt6vectorIiSaIiEEixEm(%"class.std::vector.5"* %27, i64 %29) #4
  store i32 %26, i32* %30, align 4
  %31 = load i32, i32* %9, align 4
  %32 = load %"class.std::vector.5"*, %"class.std::vector.5"** %13, align 8
  %33 = load i32, i32* %10, align 4
  %34 = sext i32 %33 to i64
  %35 = call dereferenceable(4) i32* @_ZNSt6vectorIiSaIiEEixEm(%"class.std::vector.5"* %32, i64 %34) #4
  store i32 %31, i32* %35, align 4
  %36 = load %class.Graph*, %class.Graph** %8, align 8
  %37 = load i32, i32* %10, align 4
  %38 = call dereferenceable(24) %"class.std::vector.0"* @_ZNK5Graph4edgeEi(%class.Graph* %36, i32 %37)
  store %"class.std::vector.0"* %38, %"class.std::vector.0"** %15, align 8
  %39 = load %"class.std::vector.0"*, %"class.std::vector.0"** %15, align 8
  %40 = call %class.Edge* @_ZNKSt6vectorI4EdgeSaIS0_EE5beginEv(%"class.std::vector.0"* %39) #4
  %41 = getelementptr inbounds %"class.__gnu_cxx::__normal_iterator", %"class.__gnu_cxx::__normal_iterator"* %16, i32 0, i32 0
  store %class.Edge* %40, %class.Edge** %41, align 8
  %42 = load %"class.std::vector.0"*, %"class.std::vector.0"** %15, align 8
  %43 = call %class.Edge* @_ZNKSt6vectorI4EdgeSaIS0_EE3endEv(%"class.std::vector.0"* %42) #4
  %44 = getelementptr inbounds %"class.__gnu_cxx::__normal_iterator", %"class.__gnu_cxx::__normal_iterator"* %17, i32 0, i32 0
  store %class.Edge* %43, %class.Edge** %44, align 8
  br label %45

; <label>:45:                                     ; preds = %142, %7
  %46 = call zeroext i1 @_ZN9__gnu_cxxneIPK4EdgeSt6vectorIS1_SaIS1_EEEEbRKNS_17__normal_iteratorIT_T0_EESC_(%"class.__gnu_cxx::__normal_iterator"* dereferenceable(8) %16, %"class.__gnu_cxx::__normal_iterator"* dereferenceable(8) %17) #4
  br i1 %46, label %47, label %143

; <label>:47:                                     ; preds = %45
  %48 = call dereferenceable(16) %class.Edge* @_ZNK9__gnu_cxx17__normal_iteratorIPK4EdgeSt6vectorIS1_SaIS1_EEEdeEv(%"class.__gnu_cxx::__normal_iterator"* %16) #4
  store %class.Edge* %48, %class.Edge** %18, align 8
  %49 = load %"class.std::vector.5"*, %"class.std::vector.5"** %12, align 8
  %50 = load %class.Edge*, %class.Edge** %18, align 8
  %51 = call i32 @_ZNK4Edge2toEv(%class.Edge* %50)
  %52 = sext i32 %51 to i64
  %53 = call dereferenceable(4) i32* @_ZNSt6vectorIiSaIiEEixEm(%"class.std::vector.5"* %49, i64 %52) #4
  %54 = load i32, i32* %53, align 4
  %55 = icmp eq i32 %54, -1
  br i1 %55, label %56, label %82

; <label>:56:                                     ; preds = %47
  %57 = load %class.Graph*, %class.Graph** %8, align 8
  %58 = load i32, i32* %10, align 4
  %59 = load %class.Edge*, %class.Edge** %18, align 8
  %60 = call i32 @_ZNK4Edge2toEv(%class.Edge* %59)
  %61 = load i32*, i32** %11, align 8
  %62 = load i32, i32* %61, align 4
  %63 = add nsw i32 %62, 1
  store i32 %63, i32* %61, align 4
  %64 = load %"class.std::vector.5"*, %"class.std::vector.5"** %12, align 8
  %65 = load %"class.std::vector.5"*, %"class.std::vector.5"** %13, align 8
  %66 = load %"class.std::vector.5"*, %"class.std::vector.5"** %14, align 8
  call void @_Z14cut_vertex_dfsRK5GraphiiRiRSt6vectorIiSaIiEES6_S6_(%class.Graph* dereferenceable(32) %57, i32 %58, i32 %60, i32* dereferenceable(4) %61, %"class.std::vector.5"* dereferenceable(24) %64, %"class.std::vector.5"* dereferenceable(24) %65, %"class.std::vector.5"* dereferenceable(24) %66)
  %67 = load %"class.std::vector.5"*, %"class.std::vector.5"** %14, align 8
  %68 = load i32, i32* %10, align 4
  %69 = sext i32 %68 to i64
  %70 = call dereferenceable(4) i32* @_ZNSt6vectorIiSaIiEEixEm(%"class.std::vector.5"* %67, i64 %69) #4
  %71 = load %"class.std::vector.5"*, %"class.std::vector.5"** %14, align 8
  %72 = load %class.Edge*, %class.Edge** %18, align 8
  %73 = call i32 @_ZNK4Edge2toEv(%class.Edge* %72)
  %74 = sext i32 %73 to i64
  %75 = call dereferenceable(4) i32* @_ZNSt6vectorIiSaIiEEixEm(%"class.std::vector.5"* %71, i64 %74) #4
  %76 = call dereferenceable(4) i32* @_ZSt3minIiERKT_S2_S2_(i32* dereferenceable(4) %70, i32* dereferenceable(4) %75)
  %77 = load i32, i32* %76, align 4
  %78 = load %"class.std::vector.5"*, %"class.std::vector.5"** %14, align 8
  %79 = load i32, i32* %10, align 4
  %80 = sext i32 %79 to i64
  %81 = call dereferenceable(4) i32* @_ZNSt6vectorIiSaIiEEixEm(%"class.std::vector.5"* %78, i64 %80) #4
  store i32 %77, i32* %81, align 4
  br label %104

; <label>:82:                                     ; preds = %47
  %83 = load %class.Edge*, %class.Edge** %18, align 8
  %84 = call i32 @_ZNK4Edge2toEv(%class.Edge* %83)
  %85 = load i32, i32* %9, align 4
  %86 = icmp ne i32 %84, %85
  br i1 %86, label %87, label %103

; <label>:87:                                     ; preds = %82
  %88 = load %"class.std::vector.5"*, %"class.std::vector.5"** %14, align 8
  %89 = load i32, i32* %10, align 4
  %90 = sext i32 %89 to i64
  %91 = call dereferenceable(4) i32* @_ZNSt6vectorIiSaIiEEixEm(%"class.std::vector.5"* %88, i64 %90) #4
  %92 = load %"class.std::vector.5"*, %"class.std::vector.5"** %12, align 8
  %93 = load %class.Edge*, %class.Edge** %18, align 8
  %94 = call i32 @_ZNK4Edge2toEv(%class.Edge* %93)
  %95 = sext i32 %94 to i64
  %96 = call dereferenceable(4) i32* @_ZNSt6vectorIiSaIiEEixEm(%"class.std::vector.5"* %92, i64 %95) #4
  %97 = call dereferenceable(4) i32* @_ZSt3minIiERKT_S2_S2_(i32* dereferenceable(4) %91, i32* dereferenceable(4) %96)
  %98 = load i32, i32* %97, align 4
  %99 = load %"class.std::vector.5"*, %"class.std::vector.5"** %14, align 8
  %100 = load i32, i32* %10, align 4
  %101 = sext i32 %100 to i64
  %102 = call dereferenceable(4) i32* @_ZNSt6vectorIiSaIiEEixEm(%"class.std::vector.5"* %99, i64 %101) #4
  store i32 %98, i32* %102, align 4
  br label %103

; <label>:103:                                    ; preds = %87, %82
  br label %104

; <label>:104:                                    ; preds = %103, %56
  %105 = load i32, i32* @x.181
  %106 = load i32, i32* @y.182
  %107 = sub i32 %105, 1
  %108 = mul i32 %105, %107
  %109 = urem i32 %108, 2
  %110 = icmp eq i32 %109, 0
  %111 = icmp slt i32 %106, 10
  %112 = or i1 %110, %111
  br i1 %112, label %113, label %162

; <label>:113:                                    ; preds = %104, %162
  %114 = load i32, i32* @x.181
  %115 = load i32, i32* @y.182
  %116 = sub i32 %114, 1
  %117 = mul i32 %114, %116
  %118 = urem i32 %117, 2
  %119 = icmp eq i32 %118, 0
  %120 = icmp slt i32 %115, 10
  %121 = or i1 %119, %120
  br i1 %121, label %122, label %162

; <label>:122:                                    ; preds = %113
  br label %123

; <label>:123:                                    ; preds = %122
  %124 = load i32, i32* @x.181
  %125 = load i32, i32* @y.182
  %126 = sub i32 %124, 1
  %127 = mul i32 %124, %126
  %128 = urem i32 %127, 2
  %129 = icmp eq i32 %128, 0
  %130 = icmp slt i32 %125, 10
  %131 = or i1 %129, %130
  br i1 %131, label %132, label %163

; <label>:132:                                    ; preds = %123, %163
  %133 = call dereferenceable(8) %"class.__gnu_cxx::__normal_iterator"* @_ZN9__gnu_cxx17__normal_iteratorIPK4EdgeSt6vectorIS1_SaIS1_EEEppEv(%"class.__gnu_cxx::__normal_iterator"* %16) #4
  %134 = load i32, i32* @x.181
  %135 = load i32, i32* @y.182
  %136 = sub i32 %134, 1
  %137 = mul i32 %134, %136
  %138 = urem i32 %137, 2
  %139 = icmp eq i32 %138, 0
  %140 = icmp slt i32 %135, 10
  %141 = or i1 %139, %140
  br i1 %141, label %142, label %163

; <label>:142:                                    ; preds = %132
  br label %45

; <label>:143:                                    ; preds = %45
  %144 = load i32, i32* @x.181
  %145 = load i32, i32* @y.182
  %146 = sub i32 %144, 1
  %147 = mul i32 %144, %146
  %148 = urem i32 %147, 2
  %149 = icmp eq i32 %148, 0
  %150 = icmp slt i32 %145, 10
  %151 = or i1 %149, %150
  br i1 %151, label %152, label %165

; <label>:152:                                    ; preds = %143, %165
  %153 = load i32, i32* @x.181
  %154 = load i32, i32* @y.182
  %155 = sub i32 %153, 1
  %156 = mul i32 %153, %155
  %157 = urem i32 %156, 2
  %158 = icmp eq i32 %157, 0
  %159 = icmp slt i32 %154, 10
  %160 = or i1 %158, %159
  br i1 %160, label %161, label %165

; <label>:161:                                    ; preds = %152
  ret void

; <label>:162:                                    ; preds = %113, %104
  br label %113

; <label>:163:                                    ; preds = %132, %123
  %164 = call dereferenceable(8) %"class.__gnu_cxx::__normal_iterator"* @_ZN9__gnu_cxx17__normal_iteratorIPK4EdgeSt6vectorIS1_SaIS1_EEEppEv(%"class.__gnu_cxx::__normal_iterator"* %16) #4
  br label %132

; <label>:165:                                    ; preds = %152, %143
  br label %152
}

; Function Attrs: noinline nounwind uwtable
define linkonce_odr dereferenceable(4) i32* @_ZSt3minIiERKT_S2_S2_(i32* dereferenceable(4), i32* dereferenceable(4)) #1 comdat {
  %3 = alloca i32*, align 8
  %4 = alloca i32*, align 8
  %5 = alloca i32*, align 8
  store i32* %0, i32** %4, align 8
  store i32* %1, i32** %5, align 8
  %6 = load i32*, i32** %5, align 8
  %7 = load i32, i32* %6, align 4
  %8 = load i32*, i32** %4, align 8
  %9 = load i32, i32* %8, align 4
  %10 = icmp slt i32 %7, %9
  br i1 %10, label %11, label %31

; <label>:11:                                     ; preds = %2
  %12 = load i32, i32* @x.183
  %13 = load i32, i32* @y.184
  %14 = sub i32 %12, 1
  %15 = mul i32 %12, %14
  %16 = urem i32 %15, 2
  %17 = icmp eq i32 %16, 0
  %18 = icmp slt i32 %13, 10
  %19 = or i1 %17, %18
  br i1 %19, label %20, label %53

; <label>:20:                                     ; preds = %11, %53
  %21 = load i32*, i32** %5, align 8
  store i32* %21, i32** %3, align 8
  %22 = load i32, i32* @x.183
  %23 = load i32, i32* @y.184
  %24 = sub i32 %22, 1
  %25 = mul i32 %22, %24
  %26 = urem i32 %25, 2
  %27 = icmp eq i32 %26, 0
  %28 = icmp slt i32 %23, 10
  %29 = or i1 %27, %28
  br i1 %29, label %30, label %53

; <label>:30:                                     ; preds = %20
  br label %51

; <label>:31:                                     ; preds = %2
  %32 = load i32, i32* @x.183
  %33 = load i32, i32* @y.184
  %34 = sub i32 %32, 1
  %35 = mul i32 %32, %34
  %36 = urem i32 %35, 2
  %37 = icmp eq i32 %36, 0
  %38 = icmp slt i32 %33, 10
  %39 = or i1 %37, %38
  br i1 %39, label %40, label %55

; <label>:40:                                     ; preds = %31, %55
  %41 = load i32*, i32** %4, align 8
  store i32* %41, i32** %3, align 8
  %42 = load i32, i32* @x.183
  %43 = load i32, i32* @y.184
  %44 = sub i32 %42, 1
  %45 = mul i32 %42, %44
  %46 = urem i32 %45, 2
  %47 = icmp eq i32 %46, 0
  %48 = icmp slt i32 %43, 10
  %49 = or i1 %47, %48
  br i1 %49, label %50, label %55

; <label>:50:                                     ; preds = %40
  br label %51

; <label>:51:                                     ; preds = %50, %30
  %52 = load i32*, i32** %3, align 8
  ret i32* %52

; <label>:53:                                     ; preds = %20, %11
  %54 = load i32*, i32** %5, align 8
  store i32* %54, i32** %3, align 8
  br label %20

; <label>:55:                                     ; preds = %40, %31
  %56 = load i32*, i32** %4, align 8
  store i32* %56, i32** %3, align 8
  br label %40
}

; Function Attrs: noinline uwtable
define void @_Z10cut_vertexRK5Graph(%"class.std::set"* noalias sret, %class.Graph* dereferenceable(32)) #0 personality i8* bitcast (i32 (...)* @__gxx_personality_v0 to i8*) {
  %3 = alloca %class.Graph*, align 8
  %4 = alloca %"class.std::vector.5", align 8
  %5 = alloca i32, align 4
  %6 = alloca %"class.std::allocator.7", align 1
  %7 = alloca i8*
  %8 = alloca i32
  %9 = alloca %"class.std::vector.5", align 8
  %10 = alloca i32, align 4
  %11 = alloca %"class.std::allocator.7", align 1
  %12 = alloca %"class.std::vector.5", align 8
  %13 = alloca i32, align 4
  %14 = alloca %"class.std::allocator.7", align 1
  %15 = alloca i32, align 4
  %16 = alloca i1, align 1
  %17 = alloca i32, align 4
  %18 = alloca %"class.std::vector.5"*, align 8
  %19 = alloca %"class.__gnu_cxx::__normal_iterator.38", align 8
  %20 = alloca %"class.__gnu_cxx::__normal_iterator.38", align 8
  %21 = alloca i32*, align 8
  %22 = alloca i32, align 4
  %23 = alloca %"struct.std::pair", align 8
  %24 = alloca i32, align 4
  %25 = alloca %"struct.std::pair", align 8
  store %class.Graph* %1, %class.Graph** %3, align 8
  %26 = load %class.Graph*, %class.Graph** %3, align 8
  %27 = call i32 @_ZNK5Graph4sizeEv(%class.Graph* %26)
  %28 = sext i32 %27 to i64
  store i32 -1, i32* %5, align 4
  call void @_ZNSaIiEC2Ev(%"class.std::allocator.7"* %6) #4
  invoke void @_ZNSt6vectorIiSaIiEEC2EmRKiRKS0_(%"class.std::vector.5"* %4, i64 %28, i32* dereferenceable(4) %5, %"class.std::allocator.7"* dereferenceable(1) %6)
          to label %29 unwind label %112

; <label>:29:                                     ; preds = %2
  call void @_ZNSaIiED2Ev(%"class.std::allocator.7"* %6) #4
  %30 = load %class.Graph*, %class.Graph** %3, align 8
  %31 = invoke i32 @_ZNK5Graph4sizeEv(%class.Graph* %30)
          to label %32 unwind label %116

; <label>:32:                                     ; preds = %29
  %33 = sext i32 %31 to i64
  store i32 -1, i32* %10, align 4
  call void @_ZNSaIiEC2Ev(%"class.std::allocator.7"* %11) #4
  invoke void @_ZNSt6vectorIiSaIiEEC2EmRKiRKS0_(%"class.std::vector.5"* %9, i64 %33, i32* dereferenceable(4) %10, %"class.std::allocator.7"* dereferenceable(1) %11)
          to label %34 unwind label %120

; <label>:34:                                     ; preds = %32
  call void @_ZNSaIiED2Ev(%"class.std::allocator.7"* %11) #4
  %35 = load %class.Graph*, %class.Graph** %3, align 8
  %36 = invoke i32 @_ZNK5Graph4sizeEv(%class.Graph* %35)
          to label %37 unwind label %124

; <label>:37:                                     ; preds = %34
  %38 = load i32, i32* @x.185
  %39 = load i32, i32* @y.186
  %40 = sub i32 %38, 1
  %41 = mul i32 %38, %40
  %42 = urem i32 %41, 2
  %43 = icmp eq i32 %42, 0
  %44 = icmp slt i32 %39, 10
  %45 = or i1 %43, %44
  br i1 %45, label %46, label %262

; <label>:46:                                     ; preds = %37, %262
  %47 = sext i32 %36 to i64
  store i32 1000000000, i32* %13, align 4
  call void @_ZNSaIiEC2Ev(%"class.std::allocator.7"* %14) #4
  %48 = load i32, i32* @x.185
  %49 = load i32, i32* @y.186
  %50 = sub i32 %48, 1
  %51 = mul i32 %48, %50
  %52 = urem i32 %51, 2
  %53 = icmp eq i32 %52, 0
  %54 = icmp slt i32 %49, 10
  %55 = or i1 %53, %54
  br i1 %55, label %56, label %262

; <label>:56:                                     ; preds = %46
  invoke void @_ZNSt6vectorIiSaIiEEC2EmRKiRKS0_(%"class.std::vector.5"* %12, i64 %47, i32* dereferenceable(4) %13, %"class.std::allocator.7"* dereferenceable(1) %14)
          to label %57 unwind label %128

; <label>:57:                                     ; preds = %56
  %58 = load i32, i32* @x.185
  %59 = load i32, i32* @y.186
  %60 = sub i32 %58, 1
  %61 = mul i32 %58, %60
  %62 = urem i32 %61, 2
  %63 = icmp eq i32 %62, 0
  %64 = icmp slt i32 %59, 10
  %65 = or i1 %63, %64
  br i1 %65, label %66, label %264

; <label>:66:                                     ; preds = %57, %264
  call void @_ZNSaIiED2Ev(%"class.std::allocator.7"* %14) #4
  store i32 0, i32* %15, align 4
  %67 = load %class.Graph*, %class.Graph** %3, align 8
  %68 = load i32, i32* @x.185
  %69 = load i32, i32* @y.186
  %70 = sub i32 %68, 1
  %71 = mul i32 %68, %70
  %72 = urem i32 %71, 2
  %73 = icmp eq i32 %72, 0
  %74 = icmp slt i32 %69, 10
  %75 = or i1 %73, %74
  br i1 %75, label %76, label %264

; <label>:76:                                     ; preds = %66
  invoke void @_Z14cut_vertex_dfsRK5GraphiiRiRSt6vectorIiSaIiEES6_S6_(%class.Graph* dereferenceable(32) %67, i32 -1, i32 0, i32* dereferenceable(4) %15, %"class.std::vector.5"* dereferenceable(24) %4, %"class.std::vector.5"* dereferenceable(24) %9, %"class.std::vector.5"* dereferenceable(24) %12)
          to label %77 unwind label %150

; <label>:77:                                     ; preds = %76
  %78 = load i32, i32* @x.185
  %79 = load i32, i32* @y.186
  %80 = sub i32 %78, 1
  %81 = mul i32 %78, %80
  %82 = urem i32 %81, 2
  %83 = icmp eq i32 %82, 0
  %84 = icmp slt i32 %79, 10
  %85 = or i1 %83, %84
  br i1 %85, label %86, label %266

; <label>:86:                                     ; preds = %77, %266
  store i1 false, i1* %16, align 1
  call void @_ZNSt3setIiSt4lessIiESaIiEEC2Ev(%"class.std::set"* %0) #4
  store i32 0, i32* %17, align 4
  store %"class.std::vector.5"* %9, %"class.std::vector.5"** %18, align 8
  %87 = load %"class.std::vector.5"*, %"class.std::vector.5"** %18, align 8
  %88 = call i32* @_ZNSt6vectorIiSaIiEE5beginEv(%"class.std::vector.5"* %87) #4
  %89 = getelementptr inbounds %"class.__gnu_cxx::__normal_iterator.38", %"class.__gnu_cxx::__normal_iterator.38"* %19, i32 0, i32 0
  store i32* %88, i32** %89, align 8
  %90 = load %"class.std::vector.5"*, %"class.std::vector.5"** %18, align 8
  %91 = call i32* @_ZNSt6vectorIiSaIiEE3endEv(%"class.std::vector.5"* %90) #4
  %92 = getelementptr inbounds %"class.__gnu_cxx::__normal_iterator.38", %"class.__gnu_cxx::__normal_iterator.38"* %20, i32 0, i32 0
  store i32* %91, i32** %92, align 8
  %93 = load i32, i32* @x.185
  %94 = load i32, i32* @y.186
  %95 = sub i32 %93, 1
  %96 = mul i32 %93, %95
  %97 = urem i32 %96, 2
  %98 = icmp eq i32 %97, 0
  %99 = icmp slt i32 %94, 10
  %100 = or i1 %98, %99
  br i1 %100, label %101, label %266

; <label>:101:                                    ; preds = %86
  br label %102

; <label>:102:                                    ; preds = %155, %101
  %103 = call zeroext i1 @_ZN9__gnu_cxxneIPiSt6vectorIiSaIiEEEEbRKNS_17__normal_iteratorIT_T0_EESA_(%"class.__gnu_cxx::__normal_iterator.38"* dereferenceable(8) %19, %"class.__gnu_cxx::__normal_iterator.38"* dereferenceable(8) %20) #4
  br i1 %103, label %104, label %157

; <label>:104:                                    ; preds = %102
  %105 = call dereferenceable(4) i32* @_ZNK9__gnu_cxx17__normal_iteratorIPiSt6vectorIiSaIiEEEdeEv(%"class.__gnu_cxx::__normal_iterator.38"* %19) #4
  store i32* %105, i32** %21, align 8
  %106 = load i32*, i32** %21, align 8
  %107 = load i32, i32* %106, align 4
  %108 = icmp eq i32 %107, 0
  br i1 %108, label %109, label %154

; <label>:109:                                    ; preds = %104
  %110 = load i32, i32* %17, align 4
  %111 = add nsw i32 %110, 1
  store i32 %111, i32* %17, align 4
  br label %154

; <label>:112:                                    ; preds = %2
  %113 = landingpad { i8*, i32 }
          cleanup
  %114 = extractvalue { i8*, i32 } %113, 0
  store i8* %114, i8** %7, align 8
  %115 = extractvalue { i8*, i32 } %113, 1
  store i32 %115, i32* %8, align 4
  call void @_ZNSaIiED2Ev(%"class.std::allocator.7"* %6) #4
  br label %257

; <label>:116:                                    ; preds = %29
  %117 = landingpad { i8*, i32 }
          cleanup
  %118 = extractvalue { i8*, i32 } %117, 0
  store i8* %118, i8** %7, align 8
  %119 = extractvalue { i8*, i32 } %117, 1
  store i32 %119, i32* %8, align 4
  br label %256

; <label>:120:                                    ; preds = %32
  %121 = landingpad { i8*, i32 }
          cleanup
  %122 = extractvalue { i8*, i32 } %121, 0
  store i8* %122, i8** %7, align 8
  %123 = extractvalue { i8*, i32 } %121, 1
  store i32 %123, i32* %8, align 4
  call void @_ZNSaIiED2Ev(%"class.std::allocator.7"* %11) #4
  br label %256

; <label>:124:                                    ; preds = %34
  %125 = landingpad { i8*, i32 }
          cleanup
  %126 = extractvalue { i8*, i32 } %125, 0
  store i8* %126, i8** %7, align 8
  %127 = extractvalue { i8*, i32 } %125, 1
  store i32 %127, i32* %8, align 4
  br label %255

; <label>:128:                                    ; preds = %56
  %129 = load i32, i32* @x.185
  %130 = load i32, i32* @y.186
  %131 = sub i32 %129, 1
  %132 = mul i32 %129, %131
  %133 = urem i32 %132, 2
  %134 = icmp eq i32 %133, 0
  %135 = icmp slt i32 %130, 10
  %136 = or i1 %134, %135
  br i1 %136, label %137, label %273

; <label>:137:                                    ; preds = %128, %273
  %138 = landingpad { i8*, i32 }
          cleanup
  %139 = extractvalue { i8*, i32 } %138, 0
  store i8* %139, i8** %7, align 8
  %140 = extractvalue { i8*, i32 } %138, 1
  store i32 %140, i32* %8, align 4
  call void @_ZNSaIiED2Ev(%"class.std::allocator.7"* %14) #4
  %141 = load i32, i32* @x.185
  %142 = load i32, i32* @y.186
  %143 = sub i32 %141, 1
  %144 = mul i32 %141, %143
  %145 = urem i32 %144, 2
  %146 = icmp eq i32 %145, 0
  %147 = icmp slt i32 %142, 10
  %148 = or i1 %146, %147
  br i1 %148, label %149, label %273

; <label>:149:                                    ; preds = %137
  br label %255

; <label>:150:                                    ; preds = %76
  %151 = landingpad { i8*, i32 }
          cleanup
  %152 = extractvalue { i8*, i32 } %151, 0
  store i8* %152, i8** %7, align 8
  %153 = extractvalue { i8*, i32 } %151, 1
  store i32 %153, i32* %8, align 4
  br label %254

; <label>:154:                                    ; preds = %109, %104
  br label %155

; <label>:155:                                    ; preds = %154
  %156 = call dereferenceable(8) %"class.__gnu_cxx::__normal_iterator.38"* @_ZN9__gnu_cxx17__normal_iteratorIPiSt6vectorIiSaIiEEEppEv(%"class.__gnu_cxx::__normal_iterator.38"* %19) #4
  br label %102

; <label>:157:                                    ; preds = %102
  %158 = load i32, i32* %17, align 4
  %159 = icmp sge i32 %158, 2
  br i1 %159, label %160, label %190

; <label>:160:                                    ; preds = %157
  %161 = load i32, i32* @x.185
  %162 = load i32, i32* @y.186
  %163 = sub i32 %161, 1
  %164 = mul i32 %161, %163
  %165 = urem i32 %164, 2
  %166 = icmp eq i32 %165, 0
  %167 = icmp slt i32 %162, 10
  %168 = or i1 %166, %167
  br i1 %168, label %169, label %277

; <label>:169:                                    ; preds = %160, %277
  store i32 0, i32* %22, align 4
  %170 = load i32, i32* @x.185
  %171 = load i32, i32* @y.186
  %172 = sub i32 %170, 1
  %173 = mul i32 %170, %172
  %174 = urem i32 %173, 2
  %175 = icmp eq i32 %174, 0
  %176 = icmp slt i32 %171, 10
  %177 = or i1 %175, %176
  br i1 %177, label %178, label %277

; <label>:178:                                    ; preds = %169
  %179 = invoke { %"struct.std::_Rb_tree_node_base"*, i8 } @_ZNSt3setIiSt4lessIiESaIiEE6insertEOi(%"class.std::set"* %0, i32* dereferenceable(4) %22)
          to label %180 unwind label %186

; <label>:180:                                    ; preds = %178
  %181 = bitcast %"struct.std::pair"* %23 to { %"struct.std::_Rb_tree_node_base"*, i8 }*
  %182 = getelementptr inbounds { %"struct.std::_Rb_tree_node_base"*, i8 }, { %"struct.std::_Rb_tree_node_base"*, i8 }* %181, i32 0, i32 0
  %183 = extractvalue { %"struct.std::_Rb_tree_node_base"*, i8 } %179, 0
  store %"struct.std::_Rb_tree_node_base"* %183, %"struct.std::_Rb_tree_node_base"** %182, align 8
  %184 = getelementptr inbounds { %"struct.std::_Rb_tree_node_base"*, i8 }, { %"struct.std::_Rb_tree_node_base"*, i8 }* %181, i32 0, i32 1
  %185 = extractvalue { %"struct.std::_Rb_tree_node_base"*, i8 } %179, 1
  store i8 %185, i8* %184, align 8
  br label %190

; <label>:186:                                    ; preds = %235, %191, %178
  %187 = landingpad { i8*, i32 }
          cleanup
  %188 = extractvalue { i8*, i32 } %187, 0
  store i8* %188, i8** %7, align 8
  %189 = extractvalue { i8*, i32 } %187, 1
  store i32 %189, i32* %8, align 4
  call void @_ZNSt3setIiSt4lessIiESaIiEED2Ev(%"class.std::set"* %0) #4
  br label %254

; <label>:190:                                    ; preds = %180, %157
  store i32 1, i32* %24, align 4
  br label %191

; <label>:191:                                    ; preds = %247, %190
  %192 = load i32, i32* %24, align 4
  %193 = load %class.Graph*, %class.Graph** %3, align 8
  %194 = invoke i32 @_ZNK5Graph4sizeEv(%class.Graph* %193)
          to label %195 unwind label %186

; <label>:195:                                    ; preds = %191
  %196 = load i32, i32* @x.185
  %197 = load i32, i32* @y.186
  %198 = sub i32 %196, 1
  %199 = mul i32 %196, %198
  %200 = urem i32 %199, 2
  %201 = icmp eq i32 %200, 0
  %202 = icmp slt i32 %197, 10
  %203 = or i1 %201, %202
  br i1 %203, label %204, label %278

; <label>:204:                                    ; preds = %195, %278
  %205 = icmp slt i32 %192, %194
  %206 = load i32, i32* @x.185
  %207 = load i32, i32* @y.186
  %208 = sub i32 %206, 1
  %209 = mul i32 %206, %208
  %210 = urem i32 %209, 2
  %211 = icmp eq i32 %210, 0
  %212 = icmp slt i32 %207, 10
  %213 = or i1 %211, %212
  br i1 %213, label %214, label %278

; <label>:214:                                    ; preds = %204
  br i1 %205, label %215, label %250

; <label>:215:                                    ; preds = %214
  %216 = load i32, i32* %24, align 4
  %217 = sext i32 %216 to i64
  %218 = call dereferenceable(4) i32* @_ZNSt6vectorIiSaIiEEixEm(%"class.std::vector.5"* %9, i64 %217) #4
  %219 = load i32, i32* %218, align 4
  %220 = icmp eq i32 %219, 0
  br i1 %220, label %221, label %222

; <label>:221:                                    ; preds = %215
  br label %247

; <label>:222:                                    ; preds = %215
  %223 = load i32, i32* %24, align 4
  %224 = sext i32 %223 to i64
  %225 = call dereferenceable(4) i32* @_ZNSt6vectorIiSaIiEEixEm(%"class.std::vector.5"* %9, i64 %224) #4
  %226 = load i32, i32* %225, align 4
  %227 = sext i32 %226 to i64
  %228 = call dereferenceable(4) i32* @_ZNSt6vectorIiSaIiEEixEm(%"class.std::vector.5"* %4, i64 %227) #4
  %229 = load i32, i32* %228, align 4
  %230 = load i32, i32* %24, align 4
  %231 = sext i32 %230 to i64
  %232 = call dereferenceable(4) i32* @_ZNSt6vectorIiSaIiEEixEm(%"class.std::vector.5"* %12, i64 %231) #4
  %233 = load i32, i32* %232, align 4
  %234 = icmp sle i32 %229, %233
  br i1 %234, label %235, label %246

; <label>:235:                                    ; preds = %222
  %236 = load i32, i32* %24, align 4
  %237 = sext i32 %236 to i64
  %238 = call dereferenceable(4) i32* @_ZNSt6vectorIiSaIiEEixEm(%"class.std::vector.5"* %9, i64 %237) #4
  %239 = invoke { %"struct.std::_Rb_tree_node_base"*, i8 } @_ZNSt3setIiSt4lessIiESaIiEE6insertERKi(%"class.std::set"* %0, i32* dereferenceable(4) %238)
          to label %240 unwind label %186

; <label>:240:                                    ; preds = %235
  %241 = bitcast %"struct.std::pair"* %25 to { %"struct.std::_Rb_tree_node_base"*, i8 }*
  %242 = getelementptr inbounds { %"struct.std::_Rb_tree_node_base"*, i8 }, { %"struct.std::_Rb_tree_node_base"*, i8 }* %241, i32 0, i32 0
  %243 = extractvalue { %"struct.std::_Rb_tree_node_base"*, i8 } %239, 0
  store %"struct.std::_Rb_tree_node_base"* %243, %"struct.std::_Rb_tree_node_base"** %242, align 8
  %244 = getelementptr inbounds { %"struct.std::_Rb_tree_node_base"*, i8 }, { %"struct.std::_Rb_tree_node_base"*, i8 }* %241, i32 0, i32 1
  %245 = extractvalue { %"struct.std::_Rb_tree_node_base"*, i8 } %239, 1
  store i8 %245, i8* %244, align 8
  br label %246

; <label>:246:                                    ; preds = %240, %222
  br label %247

; <label>:247:                                    ; preds = %246, %221
  %248 = load i32, i32* %24, align 4
  %249 = add nsw i32 %248, 1
  store i32 %249, i32* %24, align 4
  br label %191

; <label>:250:                                    ; preds = %214
  store i1 true, i1* %16, align 1
  %251 = load i1, i1* %16, align 1
  br i1 %251, label %253, label %252

; <label>:252:                                    ; preds = %250
  call void @_ZNSt3setIiSt4lessIiESaIiEED2Ev(%"class.std::set"* %0) #4
  br label %253

; <label>:253:                                    ; preds = %252, %250
  call void @_ZNSt6vectorIiSaIiEED2Ev(%"class.std::vector.5"* %12) #4
  call void @_ZNSt6vectorIiSaIiEED2Ev(%"class.std::vector.5"* %9) #4
  call void @_ZNSt6vectorIiSaIiEED2Ev(%"class.std::vector.5"* %4) #4
  ret void

; <label>:254:                                    ; preds = %186, %150
  call void @_ZNSt6vectorIiSaIiEED2Ev(%"class.std::vector.5"* %12) #4
  br label %255

; <label>:255:                                    ; preds = %254, %149, %124
  call void @_ZNSt6vectorIiSaIiEED2Ev(%"class.std::vector.5"* %9) #4
  br label %256

; <label>:256:                                    ; preds = %255, %120, %116
  call void @_ZNSt6vectorIiSaIiEED2Ev(%"class.std::vector.5"* %4) #4
  br label %257

; <label>:257:                                    ; preds = %256, %112
  %258 = load i8*, i8** %7, align 8
  %259 = load i32, i32* %8, align 4
  %260 = insertvalue { i8*, i32 } undef, i8* %258, 0
  %261 = insertvalue { i8*, i32 } %260, i32 %259, 1
  resume { i8*, i32 } %261

; <label>:262:                                    ; preds = %46, %37
  %263 = sext i32 %36 to i64
  store i32 1000000000, i32* %13, align 4
  call void @_ZNSaIiEC2Ev(%"class.std::allocator.7"* %14) #4
  br label %46

; <label>:264:                                    ; preds = %66, %57
  call void @_ZNSaIiED2Ev(%"class.std::allocator.7"* %14) #4
  store i32 0, i32* %15, align 4
  %265 = load %class.Graph*, %class.Graph** %3, align 8
  br label %66

; <label>:266:                                    ; preds = %86, %77
  store i1 false, i1* %16, align 1
  call void @_ZNSt3setIiSt4lessIiESaIiEEC2Ev(%"class.std::set"* %0) #4
  store i32 0, i32* %17, align 4
  store %"class.std::vector.5"* %9, %"class.std::vector.5"** %18, align 8
  %267 = load %"class.std::vector.5"*, %"class.std::vector.5"** %18, align 8
  %268 = call i32* @_ZNSt6vectorIiSaIiEE5beginEv(%"class.std::vector.5"* %267) #4
  %269 = getelementptr inbounds %"class.__gnu_cxx::__normal_iterator.38", %"class.__gnu_cxx::__normal_iterator.38"* %19, i32 0, i32 0
  store i32* %268, i32** %269, align 8
  %270 = load %"class.std::vector.5"*, %"class.std::vector.5"** %18, align 8
  %271 = call i32* @_ZNSt6vectorIiSaIiEE3endEv(%"class.std::vector.5"* %270) #4
  %272 = getelementptr inbounds %"class.__gnu_cxx::__normal_iterator.38", %"class.__gnu_cxx::__normal_iterator.38"* %20, i32 0, i32 0
  store i32* %271, i32** %272, align 8
  br label %86

; <label>:273:                                    ; preds = %137, %128
  %274 = landingpad { i8*, i32 }
          cleanup
  %275 = extractvalue { i8*, i32 } %274, 0
  store i8* %275, i8** %7, align 8
  %276 = extractvalue { i8*, i32 } %274, 1
  store i32 %276, i32* %8, align 4
  call void @_ZNSaIiED2Ev(%"class.std::allocator.7"* %14) #4
  br label %137

; <label>:277:                                    ; preds = %169, %160
  store i32 0, i32* %22, align 4
  br label %169

; <label>:278:                                    ; preds = %204, %195
  %279 = icmp slt i32 %192, %194
  br label %204
}

; Function Attrs: noinline nounwind uwtable
define linkonce_odr void @_ZNSt3setIiSt4lessIiESaIiEEC2Ev(%"class.std::set"*) unnamed_addr #1 comdat align 2 personality i8* bitcast (i32 (...)* @__gxx_personality_v0 to i8*) {
  %2 = alloca %"class.std::set"*, align 8
  store %"class.std::set"* %0, %"class.std::set"** %2, align 8
  %3 = load %"class.std::set"*, %"class.std::set"** %2, align 8
  %4 = getelementptr inbounds %"class.std::set", %"class.std::set"* %3, i32 0, i32 0
  invoke void @_ZNSt8_Rb_treeIiiSt9_IdentityIiESt4lessIiESaIiEEC2Ev(%"class.std::_Rb_tree"* %4)
          to label %5 unwind label %6

; <label>:5:                                      ; preds = %1
  ret void

; <label>:6:                                      ; preds = %1
  %7 = landingpad { i8*, i32 }
          catch i8* null
  %8 = extractvalue { i8*, i32 } %7, 0
  call void @__clang_call_terminate(i8* %8) #8
  unreachable
}

; Function Attrs: noinline nounwind uwtable
define linkonce_odr zeroext i1 @_ZN9__gnu_cxxneIPiSt6vectorIiSaIiEEEEbRKNS_17__normal_iteratorIT_T0_EESA_(%"class.__gnu_cxx::__normal_iterator.38"* dereferenceable(8), %"class.__gnu_cxx::__normal_iterator.38"* dereferenceable(8)) #1 comdat {
  %3 = load i32, i32* @x.189
  %4 = load i32, i32* @y.190
  %5 = sub i32 %3, 1
  %6 = mul i32 %3, %5
  %7 = urem i32 %6, 2
  %8 = icmp eq i32 %7, 0
  %9 = icmp slt i32 %4, 10
  %10 = or i1 %8, %9
  br i1 %10, label %11, label %30

; <label>:11:                                     ; preds = %2, %30
  %12 = alloca %"class.__gnu_cxx::__normal_iterator.38"*, align 8
  %13 = alloca %"class.__gnu_cxx::__normal_iterator.38"*, align 8
  store %"class.__gnu_cxx::__normal_iterator.38"* %0, %"class.__gnu_cxx::__normal_iterator.38"** %12, align 8
  store %"class.__gnu_cxx::__normal_iterator.38"* %1, %"class.__gnu_cxx::__normal_iterator.38"** %13, align 8
  %14 = load %"class.__gnu_cxx::__normal_iterator.38"*, %"class.__gnu_cxx::__normal_iterator.38"** %12, align 8
  %15 = call dereferenceable(8) i32** @_ZNK9__gnu_cxx17__normal_iteratorIPiSt6vectorIiSaIiEEE4baseEv(%"class.__gnu_cxx::__normal_iterator.38"* %14) #4
  %16 = load i32*, i32** %15, align 8
  %17 = load %"class.__gnu_cxx::__normal_iterator.38"*, %"class.__gnu_cxx::__normal_iterator.38"** %13, align 8
  %18 = call dereferenceable(8) i32** @_ZNK9__gnu_cxx17__normal_iteratorIPiSt6vectorIiSaIiEEE4baseEv(%"class.__gnu_cxx::__normal_iterator.38"* %17) #4
  %19 = load i32*, i32** %18, align 8
  %20 = icmp ne i32* %16, %19
  %21 = load i32, i32* @x.189
  %22 = load i32, i32* @y.190
  %23 = sub i32 %21, 1
  %24 = mul i32 %21, %23
  %25 = urem i32 %24, 2
  %26 = icmp eq i32 %25, 0
  %27 = icmp slt i32 %22, 10
  %28 = or i1 %26, %27
  br i1 %28, label %29, label %30

; <label>:29:                                     ; preds = %11
  ret i1 %20

; <label>:30:                                     ; preds = %11, %2
  %31 = alloca %"class.__gnu_cxx::__normal_iterator.38"*, align 8
  %32 = alloca %"class.__gnu_cxx::__normal_iterator.38"*, align 8
  store %"class.__gnu_cxx::__normal_iterator.38"* %0, %"class.__gnu_cxx::__normal_iterator.38"** %31, align 8
  store %"class.__gnu_cxx::__normal_iterator.38"* %1, %"class.__gnu_cxx::__normal_iterator.38"** %32, align 8
  %33 = load %"class.__gnu_cxx::__normal_iterator.38"*, %"class.__gnu_cxx::__normal_iterator.38"** %31, align 8
  %34 = call dereferenceable(8) i32** @_ZNK9__gnu_cxx17__normal_iteratorIPiSt6vectorIiSaIiEEE4baseEv(%"class.__gnu_cxx::__normal_iterator.38"* %33) #4
  %35 = load i32*, i32** %34, align 8
  %36 = load %"class.__gnu_cxx::__normal_iterator.38"*, %"class.__gnu_cxx::__normal_iterator.38"** %32, align 8
  %37 = call dereferenceable(8) i32** @_ZNK9__gnu_cxx17__normal_iteratorIPiSt6vectorIiSaIiEEE4baseEv(%"class.__gnu_cxx::__normal_iterator.38"* %36) #4
  %38 = load i32*, i32** %37, align 8
  %39 = icmp ne i32* %35, %38
  br label %11
}

; Function Attrs: noinline nounwind uwtable
define linkonce_odr dereferenceable(4) i32* @_ZNK9__gnu_cxx17__normal_iteratorIPiSt6vectorIiSaIiEEEdeEv(%"class.__gnu_cxx::__normal_iterator.38"*) #1 comdat align 2 {
  %2 = alloca %"class.__gnu_cxx::__normal_iterator.38"*, align 8
  store %"class.__gnu_cxx::__normal_iterator.38"* %0, %"class.__gnu_cxx::__normal_iterator.38"** %2, align 8
  %3 = load %"class.__gnu_cxx::__normal_iterator.38"*, %"class.__gnu_cxx::__normal_iterator.38"** %2, align 8
  %4 = getelementptr inbounds %"class.__gnu_cxx::__normal_iterator.38", %"class.__gnu_cxx::__normal_iterator.38"* %3, i32 0, i32 0
  %5 = load i32*, i32** %4, align 8
  ret i32* %5
}

; Function Attrs: noinline nounwind uwtable
define linkonce_odr dereferenceable(8) %"class.__gnu_cxx::__normal_iterator.38"* @_ZN9__gnu_cxx17__normal_iteratorIPiSt6vectorIiSaIiEEEppEv(%"class.__gnu_cxx::__normal_iterator.38"*) #1 comdat align 2 {
  %2 = alloca %"class.__gnu_cxx::__normal_iterator.38"*, align 8
  store %"class.__gnu_cxx::__normal_iterator.38"* %0, %"class.__gnu_cxx::__normal_iterator.38"** %2, align 8
  %3 = load %"class.__gnu_cxx::__normal_iterator.38"*, %"class.__gnu_cxx::__normal_iterator.38"** %2, align 8
  %4 = getelementptr inbounds %"class.__gnu_cxx::__normal_iterator.38", %"class.__gnu_cxx::__normal_iterator.38"* %3, i32 0, i32 0
  %5 = load i32*, i32** %4, align 8
  %6 = getelementptr inbounds i32, i32* %5, i32 1
  store i32* %6, i32** %4, align 8
  ret %"class.__gnu_cxx::__normal_iterator.38"* %3
}

; Function Attrs: noinline uwtable
define linkonce_odr { %"struct.std::_Rb_tree_node_base"*, i8 } @_ZNSt3setIiSt4lessIiESaIiEE6insertEOi(%"class.std::set"*, i32* dereferenceable(4)) #0 comdat align 2 {
  %3 = alloca %"struct.std::pair", align 8
  %4 = alloca %"class.std::set"*, align 8
  %5 = alloca i32*, align 8
  %6 = alloca %"struct.std::pair.49", align 8
  store %"class.std::set"* %0, %"class.std::set"** %4, align 8
  store i32* %1, i32** %5, align 8
  %7 = load %"class.std::set"*, %"class.std::set"** %4, align 8
  %8 = getelementptr inbounds %"class.std::set", %"class.std::set"* %7, i32 0, i32 0
  %9 = load i32*, i32** %5, align 8
  %10 = call dereferenceable(4) i32* @_ZSt4moveIRiEONSt16remove_referenceIT_E4typeEOS2_(i32* dereferenceable(4) %9) #4
  %11 = call { %"struct.std::_Rb_tree_node_base"*, i8 } @_ZNSt8_Rb_treeIiiSt9_IdentityIiESt4lessIiESaIiEE16_M_insert_uniqueIiEESt4pairISt17_Rb_tree_iteratorIiEbEOT_(%"class.std::_Rb_tree"* %8, i32* dereferenceable(4) %10)
  %12 = bitcast %"struct.std::pair.49"* %6 to { %"struct.std::_Rb_tree_node_base"*, i8 }*
  %13 = getelementptr inbounds { %"struct.std::_Rb_tree_node_base"*, i8 }, { %"struct.std::_Rb_tree_node_base"*, i8 }* %12, i32 0, i32 0
  %14 = extractvalue { %"struct.std::_Rb_tree_node_base"*, i8 } %11, 0
  store %"struct.std::_Rb_tree_node_base"* %14, %"struct.std::_Rb_tree_node_base"** %13, align 8
  %15 = getelementptr inbounds { %"struct.std::_Rb_tree_node_base"*, i8 }, { %"struct.std::_Rb_tree_node_base"*, i8 }* %12, i32 0, i32 1
  %16 = extractvalue { %"struct.std::_Rb_tree_node_base"*, i8 } %11, 1
  store i8 %16, i8* %15, align 8
  %17 = getelementptr inbounds %"struct.std::pair.49", %"struct.std::pair.49"* %6, i32 0, i32 0
  %18 = getelementptr inbounds %"struct.std::pair.49", %"struct.std::pair.49"* %6, i32 0, i32 1
  call void @_ZNSt4pairISt23_Rb_tree_const_iteratorIiEbEC2IRSt17_Rb_tree_iteratorIiERbvEEOT_OT0_(%"struct.std::pair"* %3, %"struct.std::_Rb_tree_iterator"* dereferenceable(8) %17, i8* dereferenceable(1) %18)
  %19 = bitcast %"struct.std::pair"* %3 to { %"struct.std::_Rb_tree_node_base"*, i8 }*
  %20 = load { %"struct.std::_Rb_tree_node_base"*, i8 }, { %"struct.std::_Rb_tree_node_base"*, i8 }* %19, align 8
  ret { %"struct.std::_Rb_tree_node_base"*, i8 } %20
}

; Function Attrs: noinline uwtable
define internal void @__cxx_global_var_init() #0 section ".text.startup" {
  call void @_ZNSt8ios_base4InitC1Ev(%"class.std::ios_base::Init"* @_ZStL8__ioinit)
  %1 = call i32 @__cxa_atexit(void (i8*)* bitcast (void (%"class.std::ios_base::Init"*)* @_ZNSt8ios_base4InitD1Ev to void (i8*)*), i8* getelementptr inbounds (%"class.std::ios_base::Init", %"class.std::ios_base::Init"* @_ZStL8__ioinit, i32 0, i32 0), i8* @__dso_handle) #4
  ret void
}

declare void @_ZNSt8ios_base4InitC1Ev(%"class.std::ios_base::Init"*) unnamed_addr #2

; Function Attrs: nounwind
declare void @_ZNSt8ios_base4InitD1Ev(%"class.std::ios_base::Init"*) unnamed_addr #3

; Function Attrs: nounwind
declare i32 @__cxa_atexit(void (i8*)*, i8*, i8*) #4

; Function Attrs: noinline norecurse uwtable
define i32 @main() #5 personality i8* bitcast (i32 (...)* @__gxx_personality_v0 to i8*) {
  %1 = alloca i32, align 4
  %2 = alloca i32, align 4
  %3 = alloca i32, align 4
  %4 = alloca i32, align 4
  %5 = alloca %class.Graph, align 8
  %6 = alloca i32, align 4
  %7 = alloca i32, align 4
  %8 = alloca i32, align 4
  %9 = alloca i8*
  %10 = alloca i32
  %11 = alloca %"class.std::vector.26", align 8
  %12 = alloca %"class.std::vector.5", align 8
  %13 = alloca %"class.std::allocator.7", align 1
  %14 = alloca i32, align 4
  %15 = alloca %"class.std::vector.5"*, align 8
  %16 = alloca %"class.__gnu_cxx::__normal_iterator.38", align 8
  %17 = alloca %"class.__gnu_cxx::__normal_iterator.38", align 8
  %18 = alloca i32*, align 8
  %19 = alloca i32, align 4
  %20 = alloca i32, align 4
  %21 = alloca i32, align 4
  store i32 0, i32* %1, align 4
  %22 = call dereferenceable(280) %"class.std::basic_istream"* @_ZNSirsERi(%"class.std::basic_istream"* @_ZSt3cin, i32* dereferenceable(4) %2)
  %23 = call dereferenceable(280) %"class.std::basic_istream"* @_ZNSirsERi(%"class.std::basic_istream"* %22, i32* dereferenceable(4) %3)
  %24 = load i32, i32* %2, align 4
  call void @_ZN5GraphC2Ei(%class.Graph* %5, i32 %24)
  store i32 0, i32* %6, align 4
  br label %25

; <label>:25:                                     ; preds = %75, %0
  %26 = load i32, i32* %6, align 4
  %27 = load i32, i32* %3, align 4
  %28 = icmp slt i32 %26, %27
  br i1 %28, label %29, label %80

; <label>:29:                                     ; preds = %25
  %30 = invoke dereferenceable(280) %"class.std::basic_istream"* @_ZNSirsERi(%"class.std::basic_istream"* @_ZSt3cin, i32* dereferenceable(4) %7)
          to label %31 unwind label %76

; <label>:31:                                     ; preds = %29
  %32 = invoke dereferenceable(280) %"class.std::basic_istream"* @_ZNSirsERi(%"class.std::basic_istream"* %30, i32* dereferenceable(4) %8)
          to label %33 unwind label %76

; <label>:33:                                     ; preds = %31
  %34 = load i32, i32* %7, align 4
  %35 = load i32, i32* %8, align 4
  invoke void @_ZN5Graph3addEiid(%class.Graph* %5, i32 %34, i32 %35, double 1.000000e+00)
          to label %36 unwind label %76

; <label>:36:                                     ; preds = %33
  %37 = load i32, i32* @x.199
  %38 = load i32, i32* @y.200
  %39 = sub i32 %37, 1
  %40 = mul i32 %37, %39
  %41 = urem i32 %40, 2
  %42 = icmp eq i32 %41, 0
  %43 = icmp slt i32 %38, 10
  %44 = or i1 %42, %43
  br i1 %44, label %45, label %359

; <label>:45:                                     ; preds = %36, %359
  %46 = load i32, i32* @x.199
  %47 = load i32, i32* @y.200
  %48 = sub i32 %46, 1
  %49 = mul i32 %46, %48
  %50 = urem i32 %49, 2
  %51 = icmp eq i32 %50, 0
  %52 = icmp slt i32 %47, 10
  %53 = or i1 %51, %52
  br i1 %53, label %54, label %359

; <label>:54:                                     ; preds = %45
  br label %55

; <label>:55:                                     ; preds = %54
  %56 = load i32, i32* @x.199
  %57 = load i32, i32* @y.200
  %58 = sub i32 %56, 1
  %59 = mul i32 %56, %58
  %60 = urem i32 %59, 2
  %61 = icmp eq i32 %60, 0
  %62 = icmp slt i32 %57, 10
  %63 = or i1 %61, %62
  br i1 %63, label %64, label %360

; <label>:64:                                     ; preds = %55, %360
  %65 = load i32, i32* %6, align 4
  %66 = add nsw i32 %65, 1
  store i32 %66, i32* %6, align 4
  %67 = load i32, i32* @x.199
  %68 = load i32, i32* @y.200
  %69 = sub i32 %67, 1
  %70 = mul i32 %67, %69
  %71 = urem i32 %70, 2
  %72 = icmp eq i32 %71, 0
  %73 = icmp slt i32 %68, 10
  %74 = or i1 %72, %73
  br i1 %74, label %75, label %360

; <label>:75:                                     ; preds = %64
  br label %25

; <label>:76:                                     ; preds = %80, %33, %31, %29
  %77 = landingpad { i8*, i32 }
          cleanup
  %78 = extractvalue { i8*, i32 } %77, 0
  store i8* %78, i8** %9, align 8
  %79 = extractvalue { i8*, i32 } %77, 1
  store i32 %79, i32* %10, align 4
  br label %317

; <label>:80:                                     ; preds = %25
  invoke void @_ZNK5Graph8KosarajuEv(%"class.std::vector.26"* sret %11, %class.Graph* %5)
          to label %81 unwind label %76

; <label>:81:                                     ; preds = %80
  %82 = load i32, i32* %2, align 4
  %83 = sext i32 %82 to i64
  call void @_ZNSaIiEC2Ev(%"class.std::allocator.7"* %13) #4
  invoke void @_ZNSt6vectorIiSaIiEEC2EmRKS0_(%"class.std::vector.5"* %12, i64 %83, %"class.std::allocator.7"* dereferenceable(1) %13)
          to label %84 unwind label %147

; <label>:84:                                     ; preds = %81
  %85 = load i32, i32* @x.199
  %86 = load i32, i32* @y.200
  %87 = sub i32 %85, 1
  %88 = mul i32 %85, %87
  %89 = urem i32 %88, 2
  %90 = icmp eq i32 %89, 0
  %91 = icmp slt i32 %86, 10
  %92 = or i1 %90, %91
  br i1 %92, label %93, label %367

; <label>:93:                                     ; preds = %84, %367
  call void @_ZNSaIiED2Ev(%"class.std::allocator.7"* %13) #4
  store i32 0, i32* %14, align 4
  %94 = load i32, i32* @x.199
  %95 = load i32, i32* @y.200
  %96 = sub i32 %94, 1
  %97 = mul i32 %94, %96
  %98 = urem i32 %97, 2
  %99 = icmp eq i32 %98, 0
  %100 = icmp slt i32 %95, 10
  %101 = or i1 %99, %100
  br i1 %101, label %102, label %367

; <label>:102:                                    ; preds = %93
  br label %103

; <label>:103:                                    ; preds = %190, %102
  %104 = load i32, i32* %14, align 4
  %105 = sext i32 %104 to i64
  %106 = call i64 @_ZNKSt6vectorIS_IiSaIiEESaIS1_EE4sizeEv(%"class.std::vector.26"* %11) #4
  %107 = icmp ult i64 %105, %106
  br i1 %107, label %108, label %191

; <label>:108:                                    ; preds = %103
  %109 = load i32, i32* %14, align 4
  %110 = sext i32 %109 to i64
  %111 = call dereferenceable(24) %"class.std::vector.5"* @_ZNSt6vectorIS_IiSaIiEESaIS1_EEixEm(%"class.std::vector.26"* %11, i64 %110) #4
  store %"class.std::vector.5"* %111, %"class.std::vector.5"** %15, align 8
  %112 = load %"class.std::vector.5"*, %"class.std::vector.5"** %15, align 8
  %113 = call i32* @_ZNSt6vectorIiSaIiEE5beginEv(%"class.std::vector.5"* %112) #4
  %114 = getelementptr inbounds %"class.__gnu_cxx::__normal_iterator.38", %"class.__gnu_cxx::__normal_iterator.38"* %16, i32 0, i32 0
  store i32* %113, i32** %114, align 8
  %115 = load %"class.std::vector.5"*, %"class.std::vector.5"** %15, align 8
  %116 = call i32* @_ZNSt6vectorIiSaIiEE3endEv(%"class.std::vector.5"* %115) #4
  %117 = getelementptr inbounds %"class.__gnu_cxx::__normal_iterator.38", %"class.__gnu_cxx::__normal_iterator.38"* %17, i32 0, i32 0
  store i32* %116, i32** %117, align 8
  br label %118

; <label>:118:                                    ; preds = %146, %108
  %119 = call zeroext i1 @_ZN9__gnu_cxxneIPiSt6vectorIiSaIiEEEEbRKNS_17__normal_iteratorIT_T0_EESA_(%"class.__gnu_cxx::__normal_iterator.38"* dereferenceable(8) %16, %"class.__gnu_cxx::__normal_iterator.38"* dereferenceable(8) %17) #4
  br i1 %119, label %120, label %169

; <label>:120:                                    ; preds = %118
  %121 = call dereferenceable(4) i32* @_ZNK9__gnu_cxx17__normal_iteratorIPiSt6vectorIiSaIiEEEdeEv(%"class.__gnu_cxx::__normal_iterator.38"* %16) #4
  store i32* %121, i32** %18, align 8
  %122 = load i32, i32* %14, align 4
  %123 = load i32*, i32** %18, align 8
  %124 = load i32, i32* %123, align 4
  %125 = sext i32 %124 to i64
  %126 = call dereferenceable(4) i32* @_ZNSt6vectorIiSaIiEEixEm(%"class.std::vector.5"* %12, i64 %125) #4
  store i32 %122, i32* %126, align 4
  br label %127

; <label>:127:                                    ; preds = %120
  %128 = load i32, i32* @x.199
  %129 = load i32, i32* @y.200
  %130 = sub i32 %128, 1
  %131 = mul i32 %128, %130
  %132 = urem i32 %131, 2
  %133 = icmp eq i32 %132, 0
  %134 = icmp slt i32 %129, 10
  %135 = or i1 %133, %134
  br i1 %135, label %136, label %368

; <label>:136:                                    ; preds = %127, %368
  %137 = call dereferenceable(8) %"class.__gnu_cxx::__normal_iterator.38"* @_ZN9__gnu_cxx17__normal_iteratorIPiSt6vectorIiSaIiEEEppEv(%"class.__gnu_cxx::__normal_iterator.38"* %16) #4
  %138 = load i32, i32* @x.199
  %139 = load i32, i32* @y.200
  %140 = sub i32 %138, 1
  %141 = mul i32 %138, %140
  %142 = urem i32 %141, 2
  %143 = icmp eq i32 %142, 0
  %144 = icmp slt i32 %139, 10
  %145 = or i1 %143, %144
  br i1 %145, label %146, label %368

; <label>:146:                                    ; preds = %136
  br label %118

; <label>:147:                                    ; preds = %81
  %148 = load i32, i32* @x.199
  %149 = load i32, i32* @y.200
  %150 = sub i32 %148, 1
  %151 = mul i32 %148, %150
  %152 = urem i32 %151, 2
  %153 = icmp eq i32 %152, 0
  %154 = icmp slt i32 %149, 10
  %155 = or i1 %153, %154
  br i1 %155, label %156, label %370

; <label>:156:                                    ; preds = %147, %370
  %157 = landingpad { i8*, i32 }
          cleanup
  %158 = extractvalue { i8*, i32 } %157, 0
  store i8* %158, i8** %9, align 8
  %159 = extractvalue { i8*, i32 } %157, 1
  store i32 %159, i32* %10, align 4
  call void @_ZNSaIiED2Ev(%"class.std::allocator.7"* %13) #4
  %160 = load i32, i32* @x.199
  %161 = load i32, i32* @y.200
  %162 = sub i32 %160, 1
  %163 = mul i32 %160, %162
  %164 = urem i32 %163, 2
  %165 = icmp eq i32 %164, 0
  %166 = icmp slt i32 %161, 10
  %167 = or i1 %165, %166
  br i1 %167, label %168, label %370

; <label>:168:                                    ; preds = %156
  br label %316

; <label>:169:                                    ; preds = %118
  br label %170

; <label>:170:                                    ; preds = %169
  %171 = load i32, i32* @x.199
  %172 = load i32, i32* @y.200
  %173 = sub i32 %171, 1
  %174 = mul i32 %171, %173
  %175 = urem i32 %174, 2
  %176 = icmp eq i32 %175, 0
  %177 = icmp slt i32 %172, 10
  %178 = or i1 %176, %177
  br i1 %178, label %179, label %374

; <label>:179:                                    ; preds = %170, %374
  %180 = load i32, i32* %14, align 4
  %181 = add nsw i32 %180, 1
  store i32 %181, i32* %14, align 4
  %182 = load i32, i32* @x.199
  %183 = load i32, i32* @y.200
  %184 = sub i32 %182, 1
  %185 = mul i32 %182, %184
  %186 = urem i32 %185, 2
  %187 = icmp eq i32 %186, 0
  %188 = icmp slt i32 %183, 10
  %189 = or i1 %187, %188
  br i1 %189, label %190, label %374

; <label>:190:                                    ; preds = %179
  br label %103

; <label>:191:                                    ; preds = %103
  %192 = invoke dereferenceable(280) %"class.std::basic_istream"* @_ZNSirsERi(%"class.std::basic_istream"* @_ZSt3cin, i32* dereferenceable(4) %4)
          to label %193 unwind label %274

; <label>:193:                                    ; preds = %191
  %194 = load i32, i32* @x.199
  %195 = load i32, i32* @y.200
  %196 = sub i32 %194, 1
  %197 = mul i32 %194, %196
  %198 = urem i32 %197, 2
  %199 = icmp eq i32 %198, 0
  %200 = icmp slt i32 %195, 10
  %201 = or i1 %199, %200
  br i1 %201, label %202, label %391

; <label>:202:                                    ; preds = %193, %391
  store i32 0, i32* %19, align 4
  %203 = load i32, i32* @x.199
  %204 = load i32, i32* @y.200
  %205 = sub i32 %203, 1
  %206 = mul i32 %203, %205
  %207 = urem i32 %206, 2
  %208 = icmp eq i32 %207, 0
  %209 = icmp slt i32 %204, 10
  %210 = or i1 %208, %209
  br i1 %210, label %211, label %391

; <label>:211:                                    ; preds = %202
  br label %212

; <label>:212:                                    ; preds = %271, %211
  %213 = load i32, i32* @x.199
  %214 = load i32, i32* @y.200
  %215 = sub i32 %213, 1
  %216 = mul i32 %213, %215
  %217 = urem i32 %216, 2
  %218 = icmp eq i32 %217, 0
  %219 = icmp slt i32 %214, 10
  %220 = or i1 %218, %219
  br i1 %220, label %221, label %392

; <label>:221:                                    ; preds = %212, %392
  %222 = load i32, i32* %19, align 4
  %223 = load i32, i32* %4, align 4
  %224 = icmp slt i32 %222, %223
  %225 = load i32, i32* @x.199
  %226 = load i32, i32* @y.200
  %227 = sub i32 %225, 1
  %228 = mul i32 %225, %227
  %229 = urem i32 %228, 2
  %230 = icmp eq i32 %229, 0
  %231 = icmp slt i32 %226, 10
  %232 = or i1 %230, %231
  br i1 %232, label %233, label %392

; <label>:233:                                    ; preds = %221
  br i1 %224, label %234, label %296

; <label>:234:                                    ; preds = %233
  %235 = invoke dereferenceable(280) %"class.std::basic_istream"* @_ZNSirsERi(%"class.std::basic_istream"* @_ZSt3cin, i32* dereferenceable(4) %20)
          to label %236 unwind label %274

; <label>:236:                                    ; preds = %234
  %237 = invoke dereferenceable(280) %"class.std::basic_istream"* @_ZNSirsERi(%"class.std::basic_istream"* %235, i32* dereferenceable(4) %21)
          to label %238 unwind label %274

; <label>:238:                                    ; preds = %236
  %239 = load i32, i32* %20, align 4
  %240 = sext i32 %239 to i64
  %241 = call dereferenceable(4) i32* @_ZNSt6vectorIiSaIiEEixEm(%"class.std::vector.5"* %12, i64 %240) #4
  %242 = load i32, i32* %241, align 4
  %243 = load i32, i32* %21, align 4
  %244 = sext i32 %243 to i64
  %245 = call dereferenceable(4) i32* @_ZNSt6vectorIiSaIiEEixEm(%"class.std::vector.5"* %12, i64 %244) #4
  %246 = load i32, i32* %245, align 4
  %247 = icmp eq i32 %242, %246
  %248 = select i1 %247, i32 1, i32 0
  %249 = invoke dereferenceable(272) %"class.std::basic_ostream"* @_ZNSolsEi(%"class.std::basic_ostream"* @_ZSt4cout, i32 %248)
          to label %250 unwind label %274

; <label>:250:                                    ; preds = %238
  %251 = load i32, i32* @x.199
  %252 = load i32, i32* @y.200
  %253 = sub i32 %251, 1
  %254 = mul i32 %251, %253
  %255 = urem i32 %254, 2
  %256 = icmp eq i32 %255, 0
  %257 = icmp slt i32 %252, 10
  %258 = or i1 %256, %257
  br i1 %258, label %259, label %396

; <label>:259:                                    ; preds = %250, %396
  %260 = load i32, i32* @x.199
  %261 = load i32, i32* @y.200
  %262 = sub i32 %260, 1
  %263 = mul i32 %260, %262
  %264 = urem i32 %263, 2
  %265 = icmp eq i32 %264, 0
  %266 = icmp slt i32 %261, 10
  %267 = or i1 %265, %266
  br i1 %267, label %268, label %396

; <label>:268:                                    ; preds = %259
  %269 = invoke dereferenceable(272) %"class.std::basic_ostream"* @_ZNSolsEPFRSoS_E(%"class.std::basic_ostream"* %249, %"class.std::basic_ostream"* (%"class.std::basic_ostream"*)* @_ZSt4endlIcSt11char_traitsIcEERSt13basic_ostreamIT_T0_ES6_)
          to label %270 unwind label %274

; <label>:270:                                    ; preds = %268
  br label %271

; <label>:271:                                    ; preds = %270
  %272 = load i32, i32* %19, align 4
  %273 = add nsw i32 %272, 1
  store i32 %273, i32* %19, align 4
  br label %212

; <label>:274:                                    ; preds = %268, %238, %236, %234, %191
  %275 = load i32, i32* @x.199
  %276 = load i32, i32* @y.200
  %277 = sub i32 %275, 1
  %278 = mul i32 %275, %277
  %279 = urem i32 %278, 2
  %280 = icmp eq i32 %279, 0
  %281 = icmp slt i32 %276, 10
  %282 = or i1 %280, %281
  br i1 %282, label %283, label %397

; <label>:283:                                    ; preds = %274, %397
  %284 = landingpad { i8*, i32 }
          cleanup
  %285 = extractvalue { i8*, i32 } %284, 0
  store i8* %285, i8** %9, align 8
  %286 = extractvalue { i8*, i32 } %284, 1
  store i32 %286, i32* %10, align 4
  call void @_ZNSt6vectorIiSaIiEED2Ev(%"class.std::vector.5"* %12) #4
  %287 = load i32, i32* @x.199
  %288 = load i32, i32* @y.200
  %289 = sub i32 %287, 1
  %290 = mul i32 %287, %289
  %291 = urem i32 %290, 2
  %292 = icmp eq i32 %291, 0
  %293 = icmp slt i32 %288, 10
  %294 = or i1 %292, %293
  br i1 %294, label %295, label %397

; <label>:295:                                    ; preds = %283
  br label %316

; <label>:296:                                    ; preds = %233
  %297 = load i32, i32* @x.199
  %298 = load i32, i32* @y.200
  %299 = sub i32 %297, 1
  %300 = mul i32 %297, %299
  %301 = urem i32 %300, 2
  %302 = icmp eq i32 %301, 0
  %303 = icmp slt i32 %298, 10
  %304 = or i1 %302, %303
  br i1 %304, label %305, label %401

; <label>:305:                                    ; preds = %296, %401
  call void @_ZNSt6vectorIiSaIiEED2Ev(%"class.std::vector.5"* %12) #4
  call void @_ZNSt6vectorIS_IiSaIiEESaIS1_EED2Ev(%"class.std::vector.26"* %11) #4
  call void @_ZN5GraphD2Ev(%class.Graph* %5) #4
  %306 = load i32, i32* %1, align 4
  %307 = load i32, i32* @x.199
  %308 = load i32, i32* @y.200
  %309 = sub i32 %307, 1
  %310 = mul i32 %307, %309
  %311 = urem i32 %310, 2
  %312 = icmp eq i32 %311, 0
  %313 = icmp slt i32 %308, 10
  %314 = or i1 %312, %313
  br i1 %314, label %315, label %401

; <label>:315:                                    ; preds = %305
  ret i32 %306

; <label>:316:                                    ; preds = %295, %168
  call void @_ZNSt6vectorIS_IiSaIiEESaIS1_EED2Ev(%"class.std::vector.26"* %11) #4
  br label %317

; <label>:317:                                    ; preds = %316, %76
  %318 = load i32, i32* @x.199
  %319 = load i32, i32* @y.200
  %320 = sub i32 %318, 1
  %321 = mul i32 %318, %320
  %322 = urem i32 %321, 2
  %323 = icmp eq i32 %322, 0
  %324 = icmp slt i32 %319, 10
  %325 = or i1 %323, %324
  br i1 %325, label %326, label %403

; <label>:326:                                    ; preds = %317, %403
  call void @_ZN5GraphD2Ev(%class.Graph* %5) #4
  %327 = load i32, i32* @x.199
  %328 = load i32, i32* @y.200
  %329 = sub i32 %327, 1
  %330 = mul i32 %327, %329
  %331 = urem i32 %330, 2
  %332 = icmp eq i32 %331, 0
  %333 = icmp slt i32 %328, 10
  %334 = or i1 %332, %333
  br i1 %334, label %335, label %403

; <label>:335:                                    ; preds = %326
  br label %336

; <label>:336:                                    ; preds = %335
  %337 = load i32, i32* @x.199
  %338 = load i32, i32* @y.200
  %339 = sub i32 %337, 1
  %340 = mul i32 %337, %339
  %341 = urem i32 %340, 2
  %342 = icmp eq i32 %341, 0
  %343 = icmp slt i32 %338, 10
  %344 = or i1 %342, %343
  br i1 %344, label %345, label %404

; <label>:345:                                    ; preds = %336, %404
  %346 = load i8*, i8** %9, align 8
  %347 = load i32, i32* %10, align 4
  %348 = insertvalue { i8*, i32 } undef, i8* %346, 0
  %349 = insertvalue { i8*, i32 } %348, i32 %347, 1
  %350 = load i32, i32* @x.199
  %351 = load i32, i32* @y.200
  %352 = sub i32 %350, 1
  %353 = mul i32 %350, %352
  %354 = urem i32 %353, 2
  %355 = icmp eq i32 %354, 0
  %356 = icmp slt i32 %351, 10
  %357 = or i1 %355, %356
  br i1 %357, label %358, label %404

; <label>:358:                                    ; preds = %345
  resume { i8*, i32 } %349

; <label>:359:                                    ; preds = %45, %36
  br label %45

; <label>:360:                                    ; preds = %64, %55
  %361 = load i32, i32* %6, align 4
  %362 = sub i32 %361, 1
  %363 = mul i32 %362, 1
  %364 = sub i32 0, %361
  %365 = add i32 %364, 1
  %366 = add nsw i32 %361, 1
  store i32 %366, i32* %6, align 4
  br label %64

; <label>:367:                                    ; preds = %93, %84
  call void @_ZNSaIiED2Ev(%"class.std::allocator.7"* %13) #4
  store i32 0, i32* %14, align 4
  br label %93

; <label>:368:                                    ; preds = %136, %127
  %369 = call dereferenceable(8) %"class.__gnu_cxx::__normal_iterator.38"* @_ZN9__gnu_cxx17__normal_iteratorIPiSt6vectorIiSaIiEEEppEv(%"class.__gnu_cxx::__normal_iterator.38"* %16) #4
  br label %136

; <label>:370:                                    ; preds = %156, %147
  %371 = landingpad { i8*, i32 }
          cleanup
  %372 = extractvalue { i8*, i32 } %371, 0
  store i8* %372, i8** %9, align 8
  %373 = extractvalue { i8*, i32 } %371, 1
  store i32 %373, i32* %10, align 4
  call void @_ZNSaIiED2Ev(%"class.std::allocator.7"* %13) #4
  br label %156

; <label>:374:                                    ; preds = %179, %170
  %375 = load i32, i32* %14, align 4
  %376 = shl i32 %375, 1
  %377 = sub i32 %375, 1
  %378 = mul i32 %377, 1
  %379 = sub i32 %375, 1
  %380 = mul i32 %379, 1
  %381 = sub i32 0, %375
  %382 = add i32 %381, 1
  %383 = sub i32 %375, 1
  %384 = mul i32 %383, 1
  %385 = sub i32 0, %375
  %386 = add i32 %385, 1
  %387 = shl i32 %375, 1
  %388 = sub i32 %375, 1
  %389 = mul i32 %388, 1
  %390 = add nsw i32 %375, 1
  store i32 %390, i32* %14, align 4
  br label %179

; <label>:391:                                    ; preds = %202, %193
  store i32 0, i32* %19, align 4
  br label %202

; <label>:392:                                    ; preds = %221, %212
  %393 = load i32, i32* %19, align 4
  %394 = load i32, i32* %4, align 4
  %395 = icmp slt i32 %393, %394
  br label %221

; <label>:396:                                    ; preds = %259, %250
  br label %259

; <label>:397:                                    ; preds = %283, %274
  %398 = landingpad { i8*, i32 }
          cleanup
  %399 = extractvalue { i8*, i32 } %398, 0
  store i8* %399, i8** %9, align 8
  %400 = extractvalue { i8*, i32 } %398, 1
  store i32 %400, i32* %10, align 4
  call void @_ZNSt6vectorIiSaIiEED2Ev(%"class.std::vector.5"* %12) #4
  br label %283

; <label>:401:                                    ; preds = %305, %296
  call void @_ZNSt6vectorIiSaIiEED2Ev(%"class.std::vector.5"* %12) #4
  call void @_ZNSt6vectorIS_IiSaIiEESaIS1_EED2Ev(%"class.std::vector.26"* %11) #4
  call void @_ZN5GraphD2Ev(%class.Graph* %5) #4
  %402 = load i32, i32* %1, align 4
  br label %305

; <label>:403:                                    ; preds = %326, %317
  call void @_ZN5GraphD2Ev(%class.Graph* %5) #4
  br label %326

; <label>:404:                                    ; preds = %345, %336
  %405 = load i8*, i8** %9, align 8
  %406 = load i32, i32* %10, align 4
  %407 = insertvalue { i8*, i32 } undef, i8* %405, 0
  %408 = insertvalue { i8*, i32 } %407, i32 %406, 1
  br label %345
}

declare dereferenceable(280) %"class.std::basic_istream"* @_ZNSirsERi(%"class.std::basic_istream"*, i32* dereferenceable(4)) #2

; Function Attrs: noinline uwtable
define linkonce_odr void @_ZN5GraphC2Ei(%class.Graph*, i32) unnamed_addr #0 comdat align 2 personality i8* bitcast (i32 (...)* @__gxx_personality_v0 to i8*) {
  %3 = alloca %class.Graph*, align 8
  %4 = alloca i32, align 4
  %5 = alloca i8*
  %6 = alloca i32
  store %class.Graph* %0, %class.Graph** %3, align 8
  store i32 %1, i32* %4, align 4
  %7 = load %class.Graph*, %class.Graph** %3, align 8
  %8 = getelementptr inbounds %class.Graph, %class.Graph* %7, i32 0, i32 0
  %9 = load i32, i32* %4, align 4
  store i32 %9, i32* %8, align 8
  %10 = getelementptr inbounds %class.Graph, %class.Graph* %7, i32 0, i32 1
  call void @_ZNSt6vectorIS_I4EdgeSaIS0_EESaIS2_EEC2Ev(%"class.std::vector"* %10) #4
  %11 = getelementptr inbounds %class.Graph, %class.Graph* %7, i32 0, i32 1
  %12 = load i32, i32* %4, align 4
  %13 = sext i32 %12 to i64
  invoke void @_ZNSt6vectorIS_I4EdgeSaIS0_EESaIS2_EE6resizeEm(%"class.std::vector"* %11, i64 %13)
          to label %14 unwind label %33

; <label>:14:                                     ; preds = %2
  %15 = load i32, i32* @x.201
  %16 = load i32, i32* @y.202
  %17 = sub i32 %15, 1
  %18 = mul i32 %15, %17
  %19 = urem i32 %18, 2
  %20 = icmp eq i32 %19, 0
  %21 = icmp slt i32 %16, 10
  %22 = or i1 %20, %21
  br i1 %22, label %23, label %60

; <label>:23:                                     ; preds = %14, %60
  %24 = load i32, i32* @x.201
  %25 = load i32, i32* @y.202
  %26 = sub i32 %24, 1
  %27 = mul i32 %24, %26
  %28 = urem i32 %27, 2
  %29 = icmp eq i32 %28, 0
  %30 = icmp slt i32 %25, 10
  %31 = or i1 %29, %30
  br i1 %31, label %32, label %60

; <label>:32:                                     ; preds = %23
  ret void

; <label>:33:                                     ; preds = %2
  %34 = landingpad { i8*, i32 }
          cleanup
  %35 = extractvalue { i8*, i32 } %34, 0
  store i8* %35, i8** %5, align 8
  %36 = extractvalue { i8*, i32 } %34, 1
  store i32 %36, i32* %6, align 4
  call void @_ZNSt6vectorIS_I4EdgeSaIS0_EESaIS2_EED2Ev(%"class.std::vector"* %10) #4
  br label %37

; <label>:37:                                     ; preds = %33
  %38 = load i32, i32* @x.201
  %39 = load i32, i32* @y.202
  %40 = sub i32 %38, 1
  %41 = mul i32 %38, %40
  %42 = urem i32 %41, 2
  %43 = icmp eq i32 %42, 0
  %44 = icmp slt i32 %39, 10
  %45 = or i1 %43, %44
  br i1 %45, label %46, label %61

; <label>:46:                                     ; preds = %37, %61
  %47 = load i8*, i8** %5, align 8
  %48 = load i32, i32* %6, align 4
  %49 = insertvalue { i8*, i32 } undef, i8* %47, 0
  %50 = insertvalue { i8*, i32 } %49, i32 %48, 1
  %51 = load i32, i32* @x.201
  %52 = load i32, i32* @y.202
  %53 = sub i32 %51, 1
  %54 = mul i32 %51, %53
  %55 = urem i32 %54, 2
  %56 = icmp eq i32 %55, 0
  %57 = icmp slt i32 %52, 10
  %58 = or i1 %56, %57
  br i1 %58, label %59, label %61

; <label>:59:                                     ; preds = %46
  resume { i8*, i32 } %50

; <label>:60:                                     ; preds = %23, %14
  br label %23

; <label>:61:                                     ; preds = %46, %37
  %62 = load i8*, i8** %5, align 8
  %63 = load i32, i32* %6, align 4
  %64 = insertvalue { i8*, i32 } undef, i8* %62, 0
  %65 = insertvalue { i8*, i32 } %64, i32 %63, 1
  br label %46
}

; Function Attrs: noinline uwtable
define linkonce_odr void @_ZNSt6vectorIiSaIiEEC2EmRKS0_(%"class.std::vector.5"*, i64, %"class.std::allocator.7"* dereferenceable(1)) unnamed_addr #0 comdat align 2 personality i8* bitcast (i32 (...)* @__gxx_personality_v0 to i8*) {
  %4 = alloca %"class.std::vector.5"*, align 8
  %5 = alloca i64, align 8
  %6 = alloca %"class.std::allocator.7"*, align 8
  %7 = alloca i8*
  %8 = alloca i32
  store %"class.std::vector.5"* %0, %"class.std::vector.5"** %4, align 8
  store i64 %1, i64* %5, align 8
  store %"class.std::allocator.7"* %2, %"class.std::allocator.7"** %6, align 8
  %9 = load %"class.std::vector.5"*, %"class.std::vector.5"** %4, align 8
  %10 = bitcast %"class.std::vector.5"* %9 to %"struct.std::_Vector_base.6"*
  %11 = load i64, i64* %5, align 8
  %12 = load %"class.std::allocator.7"*, %"class.std::allocator.7"** %6, align 8
  call void @_ZNSt12_Vector_baseIiSaIiEEC2EmRKS0_(%"struct.std::_Vector_base.6"* %10, i64 %11, %"class.std::allocator.7"* dereferenceable(1) %12)
  %13 = load i64, i64* %5, align 8
  invoke void @_ZNSt6vectorIiSaIiEE21_M_default_initializeEm(%"class.std::vector.5"* %9, i64 %13)
          to label %14 unwind label %15

; <label>:14:                                     ; preds = %3
  ret void

; <label>:15:                                     ; preds = %3
  %16 = load i32, i32* @x.203
  %17 = load i32, i32* @y.204
  %18 = sub i32 %16, 1
  %19 = mul i32 %16, %18
  %20 = urem i32 %19, 2
  %21 = icmp eq i32 %20, 0
  %22 = icmp slt i32 %17, 10
  %23 = or i1 %21, %22
  br i1 %23, label %24, label %43

; <label>:24:                                     ; preds = %15, %43
  %25 = landingpad { i8*, i32 }
          cleanup
  %26 = extractvalue { i8*, i32 } %25, 0
  store i8* %26, i8** %7, align 8
  %27 = extractvalue { i8*, i32 } %25, 1
  store i32 %27, i32* %8, align 4
  %28 = bitcast %"class.std::vector.5"* %9 to %"struct.std::_Vector_base.6"*
  call void @_ZNSt12_Vector_baseIiSaIiEED2Ev(%"struct.std::_Vector_base.6"* %28) #4
  %29 = load i32, i32* @x.203
  %30 = load i32, i32* @y.204
  %31 = sub i32 %29, 1
  %32 = mul i32 %29, %31
  %33 = urem i32 %32, 2
  %34 = icmp eq i32 %33, 0
  %35 = icmp slt i32 %30, 10
  %36 = or i1 %34, %35
  br i1 %36, label %37, label %43

; <label>:37:                                     ; preds = %24
  br label %38

; <label>:38:                                     ; preds = %37
  %39 = load i8*, i8** %7, align 8
  %40 = load i32, i32* %8, align 4
  %41 = insertvalue { i8*, i32 } undef, i8* %39, 0
  %42 = insertvalue { i8*, i32 } %41, i32 %40, 1
  resume { i8*, i32 } %42

; <label>:43:                                     ; preds = %24, %15
  %44 = landingpad { i8*, i32 }
          cleanup
  %45 = extractvalue { i8*, i32 } %44, 0
  store i8* %45, i8** %7, align 8
  %46 = extractvalue { i8*, i32 } %44, 1
  store i32 %46, i32* %8, align 4
  %47 = bitcast %"class.std::vector.5"* %9 to %"struct.std::_Vector_base.6"*
  call void @_ZNSt12_Vector_baseIiSaIiEED2Ev(%"struct.std::_Vector_base.6"* %47) #4
  br label %24
}

; Function Attrs: noinline nounwind uwtable
define linkonce_odr i64 @_ZNKSt6vectorIS_IiSaIiEESaIS1_EE4sizeEv(%"class.std::vector.26"*) #1 comdat align 2 {
  %2 = load i32, i32* @x.205
  %3 = load i32, i32* @y.206
  %4 = sub i32 %2, 1
  %5 = mul i32 %2, %4
  %6 = urem i32 %5, 2
  %7 = icmp eq i32 %6, 0
  %8 = icmp slt i32 %3, 10
  %9 = or i1 %7, %8
  br i1 %9, label %10, label %34

; <label>:10:                                     ; preds = %1, %34
  %11 = alloca %"class.std::vector.26"*, align 8
  store %"class.std::vector.26"* %0, %"class.std::vector.26"** %11, align 8
  %12 = load %"class.std::vector.26"*, %"class.std::vector.26"** %11, align 8
  %13 = bitcast %"class.std::vector.26"* %12 to %"struct.std::_Vector_base.27"*
  %14 = getelementptr inbounds %"struct.std::_Vector_base.27", %"struct.std::_Vector_base.27"* %13, i32 0, i32 0
  %15 = getelementptr inbounds %"struct.std::_Vector_base<std::vector<int, std::allocator<int> >, std::allocator<std::vector<int, std::allocator<int> > > >::_Vector_impl", %"struct.std::_Vector_base<std::vector<int, std::allocator<int> >, std::allocator<std::vector<int, std::allocator<int> > > >::_Vector_impl"* %14, i32 0, i32 1
  %16 = load %"class.std::vector.5"*, %"class.std::vector.5"** %15, align 8
  %17 = bitcast %"class.std::vector.26"* %12 to %"struct.std::_Vector_base.27"*
  %18 = getelementptr inbounds %"struct.std::_Vector_base.27", %"struct.std::_Vector_base.27"* %17, i32 0, i32 0
  %19 = getelementptr inbounds %"struct.std::_Vector_base<std::vector<int, std::allocator<int> >, std::allocator<std::vector<int, std::allocator<int> > > >::_Vector_impl", %"struct.std::_Vector_base<std::vector<int, std::allocator<int> >, std::allocator<std::vector<int, std::allocator<int> > > >::_Vector_impl"* %18, i32 0, i32 0
  %20 = load %"class.std::vector.5"*, %"class.std::vector.5"** %19, align 8
  %21 = ptrtoint %"class.std::vector.5"* %16 to i64
  %22 = ptrtoint %"class.std::vector.5"* %20 to i64
  %23 = sub i64 %21, %22
  %24 = sdiv exact i64 %23, 24
  %25 = load i32, i32* @x.205
  %26 = load i32, i32* @y.206
  %27 = sub i32 %25, 1
  %28 = mul i32 %25, %27
  %29 = urem i32 %28, 2
  %30 = icmp eq i32 %29, 0
  %31 = icmp slt i32 %26, 10
  %32 = or i1 %30, %31
  br i1 %32, label %33, label %34

; <label>:33:                                     ; preds = %10
  ret i64 %24

; <label>:34:                                     ; preds = %10, %1
  %35 = alloca %"class.std::vector.26"*, align 8
  store %"class.std::vector.26"* %0, %"class.std::vector.26"** %35, align 8
  %36 = load %"class.std::vector.26"*, %"class.std::vector.26"** %35, align 8
  %37 = bitcast %"class.std::vector.26"* %36 to %"struct.std::_Vector_base.27"*
  %38 = getelementptr inbounds %"struct.std::_Vector_base.27", %"struct.std::_Vector_base.27"* %37, i32 0, i32 0
  %39 = getelementptr inbounds %"struct.std::_Vector_base<std::vector<int, std::allocator<int> >, std::allocator<std::vector<int, std::allocator<int> > > >::_Vector_impl", %"struct.std::_Vector_base<std::vector<int, std::allocator<int> >, std::allocator<std::vector<int, std::allocator<int> > > >::_Vector_impl"* %38, i32 0, i32 1
  %40 = load %"class.std::vector.5"*, %"class.std::vector.5"** %39, align 8
  %41 = bitcast %"class.std::vector.26"* %36 to %"struct.std::_Vector_base.27"*
  %42 = getelementptr inbounds %"struct.std::_Vector_base.27", %"struct.std::_Vector_base.27"* %41, i32 0, i32 0
  %43 = getelementptr inbounds %"struct.std::_Vector_base<std::vector<int, std::allocator<int> >, std::allocator<std::vector<int, std::allocator<int> > > >::_Vector_impl", %"struct.std::_Vector_base<std::vector<int, std::allocator<int> >, std::allocator<std::vector<int, std::allocator<int> > > >::_Vector_impl"* %42, i32 0, i32 0
  %44 = load %"class.std::vector.5"*, %"class.std::vector.5"** %43, align 8
  %45 = ptrtoint %"class.std::vector.5"* %40 to i64
  %46 = ptrtoint %"class.std::vector.5"* %44 to i64
  %47 = sub i64 %45, %46
  %48 = mul i64 %47, %46
  %49 = sub i64 %45, %46
  %50 = mul i64 %49, %46
  %51 = sub i64 %45, %46
  %52 = mul i64 %51, %46
  %53 = sub i64 %45, %46
  %54 = mul i64 %53, %46
  %55 = sub i64 %45, %46
  %56 = mul i64 %55, %46
  %57 = shl i64 %45, %46
  %58 = sub i64 0, %45
  %59 = add i64 %58, %46
  %60 = sub i64 %45, %46
  %61 = shl i64 %60, 24
  %62 = sub i64 %60, 24
  %63 = mul i64 %62, 24
  %64 = sub i64 0, %60
  %65 = add i64 %64, 24
  %66 = shl i64 %60, 24
  %67 = sdiv exact i64 %60, 24
  br label %10
}

; Function Attrs: noinline nounwind uwtable
define linkonce_odr dereferenceable(24) %"class.std::vector.5"* @_ZNSt6vectorIS_IiSaIiEESaIS1_EEixEm(%"class.std::vector.26"*, i64) #1 comdat align 2 {
  %3 = alloca %"class.std::vector.26"*, align 8
  %4 = alloca i64, align 8
  store %"class.std::vector.26"* %0, %"class.std::vector.26"** %3, align 8
  store i64 %1, i64* %4, align 8
  %5 = load %"class.std::vector.26"*, %"class.std::vector.26"** %3, align 8
  %6 = bitcast %"class.std::vector.26"* %5 to %"struct.std::_Vector_base.27"*
  %7 = getelementptr inbounds %"struct.std::_Vector_base.27", %"struct.std::_Vector_base.27"* %6, i32 0, i32 0
  %8 = getelementptr inbounds %"struct.std::_Vector_base<std::vector<int, std::allocator<int> >, std::allocator<std::vector<int, std::allocator<int> > > >::_Vector_impl", %"struct.std::_Vector_base<std::vector<int, std::allocator<int> >, std::allocator<std::vector<int, std::allocator<int> > > >::_Vector_impl"* %7, i32 0, i32 0
  %9 = load %"class.std::vector.5"*, %"class.std::vector.5"** %8, align 8
  %10 = load i64, i64* %4, align 8
  %11 = getelementptr inbounds %"class.std::vector.5", %"class.std::vector.5"* %9, i64 %10
  ret %"class.std::vector.5"* %11
}

declare dereferenceable(272) %"class.std::basic_ostream"* @_ZNSolsEi(%"class.std::basic_ostream"*, i32) #2

declare dereferenceable(272) %"class.std::basic_ostream"* @_ZNSolsEPFRSoS_E(%"class.std::basic_ostream"*, %"class.std::basic_ostream"* (%"class.std::basic_ostream"*)*) #2

declare dereferenceable(272) %"class.std::basic_ostream"* @_ZSt4endlIcSt11char_traitsIcEERSt13basic_ostreamIT_T0_ES6_(%"class.std::basic_ostream"* dereferenceable(272)) #2

; Function Attrs: noinline nounwind uwtable
define linkonce_odr void @_ZN5GraphD2Ev(%class.Graph*) unnamed_addr #1 comdat align 2 {
  %2 = load i32, i32* @x.209
  %3 = load i32, i32* @y.210
  %4 = sub i32 %2, 1
  %5 = mul i32 %2, %4
  %6 = urem i32 %5, 2
  %7 = icmp eq i32 %6, 0
  %8 = icmp slt i32 %3, 10
  %9 = or i1 %7, %8
  br i1 %9, label %10, label %23

; <label>:10:                                     ; preds = %1, %23
  %11 = alloca %class.Graph*, align 8
  store %class.Graph* %0, %class.Graph** %11, align 8
  %12 = load %class.Graph*, %class.Graph** %11, align 8
  %13 = getelementptr inbounds %class.Graph, %class.Graph* %12, i32 0, i32 1
  call void @_ZNSt6vectorIS_I4EdgeSaIS0_EESaIS2_EED2Ev(%"class.std::vector"* %13) #4
  %14 = load i32, i32* @x.209
  %15 = load i32, i32* @y.210
  %16 = sub i32 %14, 1
  %17 = mul i32 %14, %16
  %18 = urem i32 %17, 2
  %19 = icmp eq i32 %18, 0
  %20 = icmp slt i32 %15, 10
  %21 = or i1 %19, %20
  br i1 %21, label %22, label %23

; <label>:22:                                     ; preds = %10
  ret void

; <label>:23:                                     ; preds = %10, %1
  %24 = alloca %class.Graph*, align 8
  store %class.Graph* %0, %class.Graph** %24, align 8
  %25 = load %class.Graph*, %class.Graph** %24, align 8
  %26 = getelementptr inbounds %class.Graph, %class.Graph* %25, i32 0, i32 1
  call void @_ZNSt6vectorIS_I4EdgeSaIS0_EESaIS2_EED2Ev(%"class.std::vector"* %26) #4
  br label %10
}

; Function Attrs: noinline nounwind uwtable
define linkonce_odr dereferenceable(4) i32* @_ZSt7forwardIiEOT_RNSt16remove_referenceIS0_E4typeE(i32* dereferenceable(4)) #1 comdat {
  %2 = load i32, i32* @x.211
  %3 = load i32, i32* @y.212
  %4 = sub i32 %2, 1
  %5 = mul i32 %2, %4
  %6 = urem i32 %5, 2
  %7 = icmp eq i32 %6, 0
  %8 = icmp slt i32 %3, 10
  %9 = or i1 %7, %8
  br i1 %9, label %10, label %22

; <label>:10:                                     ; preds = %1, %22
  %11 = alloca i32*, align 8
  store i32* %0, i32** %11, align 8
  %12 = load i32*, i32** %11, align 8
  %13 = load i32, i32* @x.211
  %14 = load i32, i32* @y.212
  %15 = sub i32 %13, 1
  %16 = mul i32 %13, %15
  %17 = urem i32 %16, 2
  %18 = icmp eq i32 %17, 0
  %19 = icmp slt i32 %14, 10
  %20 = or i1 %18, %19
  br i1 %20, label %21, label %22

; <label>:21:                                     ; preds = %10
  ret i32* %12

; <label>:22:                                     ; preds = %10, %1
  %23 = alloca i32*, align 8
  store i32* %0, i32** %23, align 8
  %24 = load i32*, i32** %23, align 8
  br label %10
}

; Function Attrs: noinline nounwind uwtable
define linkonce_odr dereferenceable(4) i32* @_ZSt7forwardIRKiEOT_RNSt16remove_referenceIS2_E4typeE(i32* dereferenceable(4)) #1 comdat {
  %2 = load i32, i32* @x.213
  %3 = load i32, i32* @y.214
  %4 = sub i32 %2, 1
  %5 = mul i32 %2, %4
  %6 = urem i32 %5, 2
  %7 = icmp eq i32 %6, 0
  %8 = icmp slt i32 %3, 10
  %9 = or i1 %7, %8
  br i1 %9, label %10, label %22

; <label>:10:                                     ; preds = %1, %22
  %11 = alloca i32*, align 8
  store i32* %0, i32** %11, align 8
  %12 = load i32*, i32** %11, align 8
  %13 = load i32, i32* @x.213
  %14 = load i32, i32* @y.214
  %15 = sub i32 %13, 1
  %16 = mul i32 %13, %15
  %17 = urem i32 %16, 2
  %18 = icmp eq i32 %17, 0
  %19 = icmp slt i32 %14, 10
  %20 = or i1 %18, %19
  br i1 %20, label %21, label %22

; <label>:21:                                     ; preds = %10
  ret i32* %12

; <label>:22:                                     ; preds = %10, %1
  %23 = alloca i32*, align 8
  store i32* %0, i32** %23, align 8
  %24 = load i32*, i32** %23, align 8
  br label %10
}

; Function Attrs: noinline uwtable
define linkonce_odr void @_ZNSt11_Tuple_implILm0EJdiEEC2IiJRKiEvEEOT_DpOT0_(%"struct.std::_Tuple_impl"*, i32* dereferenceable(4), i32* dereferenceable(4)) unnamed_addr #0 comdat align 2 {
  %4 = alloca %"struct.std::_Tuple_impl"*, align 8
  %5 = alloca i32*, align 8
  %6 = alloca i32*, align 8
  store %"struct.std::_Tuple_impl"* %0, %"struct.std::_Tuple_impl"** %4, align 8
  store i32* %1, i32** %5, align 8
  store i32* %2, i32** %6, align 8
  %7 = load %"struct.std::_Tuple_impl"*, %"struct.std::_Tuple_impl"** %4, align 8
  %8 = bitcast %"struct.std::_Tuple_impl"* %7 to %"struct.std::_Tuple_impl.15"*
  %9 = load i32*, i32** %6, align 8
  %10 = call dereferenceable(4) i32* @_ZSt7forwardIRKiEOT_RNSt16remove_referenceIS2_E4typeE(i32* dereferenceable(4) %9) #4
  call void @_ZNSt11_Tuple_implILm1EJiEEC2ERKi(%"struct.std::_Tuple_impl.15"* %8, i32* dereferenceable(4) %10)
  %11 = bitcast %"struct.std::_Tuple_impl"* %7 to i8*
  %12 = getelementptr inbounds i8, i8* %11, i64 8
  %13 = bitcast i8* %12 to %"struct.std::_Head_base.16"*
  %14 = load i32*, i32** %5, align 8
  %15 = call dereferenceable(4) i32* @_ZSt7forwardIiEOT_RNSt16remove_referenceIS0_E4typeE(i32* dereferenceable(4) %14) #4
  call void @_ZNSt10_Head_baseILm0EdLb0EEC2IiEEOT_(%"struct.std::_Head_base.16"* %13, i32* dereferenceable(4) %15)
  ret void
}

; Function Attrs: noinline uwtable
define linkonce_odr void @_ZNSt11_Tuple_implILm1EJiEEC2ERKi(%"struct.std::_Tuple_impl.15"*, i32* dereferenceable(4)) unnamed_addr #0 comdat align 2 {
  %3 = load i32, i32* @x.217
  %4 = load i32, i32* @y.218
  %5 = sub i32 %3, 1
  %6 = mul i32 %3, %5
  %7 = urem i32 %6, 2
  %8 = icmp eq i32 %7, 0
  %9 = icmp slt i32 %4, 10
  %10 = or i1 %8, %9
  br i1 %10, label %11, label %26

; <label>:11:                                     ; preds = %2, %26
  %12 = alloca %"struct.std::_Tuple_impl.15"*, align 8
  %13 = alloca i32*, align 8
  store %"struct.std::_Tuple_impl.15"* %0, %"struct.std::_Tuple_impl.15"** %12, align 8
  store i32* %1, i32** %13, align 8
  %14 = load %"struct.std::_Tuple_impl.15"*, %"struct.std::_Tuple_impl.15"** %12, align 8
  %15 = bitcast %"struct.std::_Tuple_impl.15"* %14 to %"struct.std::_Head_base"*
  %16 = load i32*, i32** %13, align 8
  call void @_ZNSt10_Head_baseILm1EiLb0EEC2ERKi(%"struct.std::_Head_base"* %15, i32* dereferenceable(4) %16)
  %17 = load i32, i32* @x.217
  %18 = load i32, i32* @y.218
  %19 = sub i32 %17, 1
  %20 = mul i32 %17, %19
  %21 = urem i32 %20, 2
  %22 = icmp eq i32 %21, 0
  %23 = icmp slt i32 %18, 10
  %24 = or i1 %22, %23
  br i1 %24, label %25, label %26

; <label>:25:                                     ; preds = %11
  ret void

; <label>:26:                                     ; preds = %11, %2
  %27 = alloca %"struct.std::_Tuple_impl.15"*, align 8
  %28 = alloca i32*, align 8
  store %"struct.std::_Tuple_impl.15"* %0, %"struct.std::_Tuple_impl.15"** %27, align 8
  store i32* %1, i32** %28, align 8
  %29 = load %"struct.std::_Tuple_impl.15"*, %"struct.std::_Tuple_impl.15"** %27, align 8
  %30 = bitcast %"struct.std::_Tuple_impl.15"* %29 to %"struct.std::_Head_base"*
  %31 = load i32*, i32** %28, align 8
  call void @_ZNSt10_Head_baseILm1EiLb0EEC2ERKi(%"struct.std::_Head_base"* %30, i32* dereferenceable(4) %31)
  br label %11
}

; Function Attrs: noinline nounwind uwtable
define linkonce_odr void @_ZNSt10_Head_baseILm0EdLb0EEC2IiEEOT_(%"struct.std::_Head_base.16"*, i32* dereferenceable(4)) unnamed_addr #1 comdat align 2 {
  %3 = load i32, i32* @x.219
  %4 = load i32, i32* @y.220
  %5 = sub i32 %3, 1
  %6 = mul i32 %3, %5
  %7 = urem i32 %6, 2
  %8 = icmp eq i32 %7, 0
  %9 = icmp slt i32 %4, 10
  %10 = or i1 %8, %9
  br i1 %10, label %11, label %29

; <label>:11:                                     ; preds = %2, %29
  %12 = alloca %"struct.std::_Head_base.16"*, align 8
  %13 = alloca i32*, align 8
  store %"struct.std::_Head_base.16"* %0, %"struct.std::_Head_base.16"** %12, align 8
  store i32* %1, i32** %13, align 8
  %14 = load %"struct.std::_Head_base.16"*, %"struct.std::_Head_base.16"** %12, align 8
  %15 = getelementptr inbounds %"struct.std::_Head_base.16", %"struct.std::_Head_base.16"* %14, i32 0, i32 0
  %16 = load i32*, i32** %13, align 8
  %17 = call dereferenceable(4) i32* @_ZSt7forwardIiEOT_RNSt16remove_referenceIS0_E4typeE(i32* dereferenceable(4) %16) #4
  %18 = load i32, i32* %17, align 4
  %19 = sitofp i32 %18 to double
  store double %19, double* %15, align 8
  %20 = load i32, i32* @x.219
  %21 = load i32, i32* @y.220
  %22 = sub i32 %20, 1
  %23 = mul i32 %20, %22
  %24 = urem i32 %23, 2
  %25 = icmp eq i32 %24, 0
  %26 = icmp slt i32 %21, 10
  %27 = or i1 %25, %26
  br i1 %27, label %28, label %29

; <label>:28:                                     ; preds = %11
  ret void

; <label>:29:                                     ; preds = %11, %2
  %30 = alloca %"struct.std::_Head_base.16"*, align 8
  %31 = alloca i32*, align 8
  store %"struct.std::_Head_base.16"* %0, %"struct.std::_Head_base.16"** %30, align 8
  store i32* %1, i32** %31, align 8
  %32 = load %"struct.std::_Head_base.16"*, %"struct.std::_Head_base.16"** %30, align 8
  %33 = getelementptr inbounds %"struct.std::_Head_base.16", %"struct.std::_Head_base.16"* %32, i32 0, i32 0
  %34 = load i32*, i32** %31, align 8
  %35 = call dereferenceable(4) i32* @_ZSt7forwardIiEOT_RNSt16remove_referenceIS0_E4typeE(i32* dereferenceable(4) %34) #4
  %36 = load i32, i32* %35, align 4
  %37 = sitofp i32 %36 to double
  store double %37, double* %33, align 8
  br label %11
}

; Function Attrs: noinline nounwind uwtable
define linkonce_odr void @_ZNSt10_Head_baseILm1EiLb0EEC2ERKi(%"struct.std::_Head_base"*, i32* dereferenceable(4)) unnamed_addr #1 comdat align 2 {
  %3 = alloca %"struct.std::_Head_base"*, align 8
  %4 = alloca i32*, align 8
  store %"struct.std::_Head_base"* %0, %"struct.std::_Head_base"** %3, align 8
  store i32* %1, i32** %4, align 8
  %5 = load %"struct.std::_Head_base"*, %"struct.std::_Head_base"** %3, align 8
  %6 = getelementptr inbounds %"struct.std::_Head_base", %"struct.std::_Head_base"* %5, i32 0, i32 0
  %7 = load i32*, i32** %4, align 8
  %8 = load i32, i32* %7, align 4
  store i32 %8, i32* %6, align 4
  ret void
}

; Function Attrs: noinline nounwind uwtable
define linkonce_odr dereferenceable(8) double* @_ZSt12__get_helperILm0EdJiEERKT0_RKSt11_Tuple_implIXT_EJS0_DpT1_EE(%"struct.std::_Tuple_impl"* dereferenceable(16)) #1 comdat {
  %2 = alloca %"struct.std::_Tuple_impl"*, align 8
  store %"struct.std::_Tuple_impl"* %0, %"struct.std::_Tuple_impl"** %2, align 8
  %3 = load %"struct.std::_Tuple_impl"*, %"struct.std::_Tuple_impl"** %2, align 8
  %4 = call dereferenceable(8) double* @_ZNSt11_Tuple_implILm0EJdiEE7_M_headERKS0_(%"struct.std::_Tuple_impl"* dereferenceable(16) %3) #4
  ret double* %4
}

; Function Attrs: noinline nounwind uwtable
define linkonce_odr dereferenceable(8) double* @_ZNSt11_Tuple_implILm0EJdiEE7_M_headERKS0_(%"struct.std::_Tuple_impl"* dereferenceable(16)) #1 comdat align 2 {
  %2 = alloca %"struct.std::_Tuple_impl"*, align 8
  store %"struct.std::_Tuple_impl"* %0, %"struct.std::_Tuple_impl"** %2, align 8
  %3 = load %"struct.std::_Tuple_impl"*, %"struct.std::_Tuple_impl"** %2, align 8
  %4 = bitcast %"struct.std::_Tuple_impl"* %3 to i8*
  %5 = getelementptr inbounds i8, i8* %4, i64 8
  %6 = bitcast i8* %5 to %"struct.std::_Head_base.16"*
  %7 = call dereferenceable(8) double* @_ZNSt10_Head_baseILm0EdLb0EE7_M_headERKS0_(%"struct.std::_Head_base.16"* dereferenceable(8) %6) #4
  ret double* %7
}

; Function Attrs: noinline nounwind uwtable
define linkonce_odr dereferenceable(8) double* @_ZNSt10_Head_baseILm0EdLb0EE7_M_headERKS0_(%"struct.std::_Head_base.16"* dereferenceable(8)) #1 comdat align 2 {
  %2 = load i32, i32* @x.227
  %3 = load i32, i32* @y.228
  %4 = sub i32 %2, 1
  %5 = mul i32 %2, %4
  %6 = urem i32 %5, 2
  %7 = icmp eq i32 %6, 0
  %8 = icmp slt i32 %3, 10
  %9 = or i1 %7, %8
  br i1 %9, label %10, label %23

; <label>:10:                                     ; preds = %1, %23
  %11 = alloca %"struct.std::_Head_base.16"*, align 8
  store %"struct.std::_Head_base.16"* %0, %"struct.std::_Head_base.16"** %11, align 8
  %12 = load %"struct.std::_Head_base.16"*, %"struct.std::_Head_base.16"** %11, align 8
  %13 = getelementptr inbounds %"struct.std::_Head_base.16", %"struct.std::_Head_base.16"* %12, i32 0, i32 0
  %14 = load i32, i32* @x.227
  %15 = load i32, i32* @y.228
  %16 = sub i32 %14, 1
  %17 = mul i32 %14, %16
  %18 = urem i32 %17, 2
  %19 = icmp eq i32 %18, 0
  %20 = icmp slt i32 %15, 10
  %21 = or i1 %19, %20
  br i1 %21, label %22, label %23

; <label>:22:                                     ; preds = %10
  ret double* %13

; <label>:23:                                     ; preds = %10, %1
  %24 = alloca %"struct.std::_Head_base.16"*, align 8
  store %"struct.std::_Head_base.16"* %0, %"struct.std::_Head_base.16"** %24, align 8
  %25 = load %"struct.std::_Head_base.16"*, %"struct.std::_Head_base.16"** %24, align 8
  %26 = getelementptr inbounds %"struct.std::_Head_base.16", %"struct.std::_Head_base.16"* %25, i32 0, i32 0
  br label %10
}

; Function Attrs: noinline nounwind uwtable
define linkonce_odr dereferenceable(4) i32* @_ZSt12__get_helperILm1EiJEERKT0_RKSt11_Tuple_implIXT_EJS0_DpT1_EE(%"struct.std::_Tuple_impl.15"* dereferenceable(4)) #1 comdat {
  %2 = alloca %"struct.std::_Tuple_impl.15"*, align 8
  store %"struct.std::_Tuple_impl.15"* %0, %"struct.std::_Tuple_impl.15"** %2, align 8
  %3 = load %"struct.std::_Tuple_impl.15"*, %"struct.std::_Tuple_impl.15"** %2, align 8
  %4 = call dereferenceable(4) i32* @_ZNSt11_Tuple_implILm1EJiEE7_M_headERKS0_(%"struct.std::_Tuple_impl.15"* dereferenceable(4) %3) #4
  ret i32* %4
}

; Function Attrs: noinline nounwind uwtable
define linkonce_odr dereferenceable(4) i32* @_ZNSt11_Tuple_implILm1EJiEE7_M_headERKS0_(%"struct.std::_Tuple_impl.15"* dereferenceable(4)) #1 comdat align 2 {
  %2 = alloca %"struct.std::_Tuple_impl.15"*, align 8
  store %"struct.std::_Tuple_impl.15"* %0, %"struct.std::_Tuple_impl.15"** %2, align 8
  %3 = load %"struct.std::_Tuple_impl.15"*, %"struct.std::_Tuple_impl.15"** %2, align 8
  %4 = bitcast %"struct.std::_Tuple_impl.15"* %3 to %"struct.std::_Head_base"*
  %5 = call dereferenceable(4) i32* @_ZNSt10_Head_baseILm1EiLb0EE7_M_headERKS0_(%"struct.std::_Head_base"* dereferenceable(4) %4) #4
  ret i32* %5
}

; Function Attrs: noinline nounwind uwtable
define linkonce_odr dereferenceable(4) i32* @_ZNSt10_Head_baseILm1EiLb0EE7_M_headERKS0_(%"struct.std::_Head_base"* dereferenceable(4)) #1 comdat align 2 {
  %2 = load i32, i32* @x.233
  %3 = load i32, i32* @y.234
  %4 = sub i32 %2, 1
  %5 = mul i32 %2, %4
  %6 = urem i32 %5, 2
  %7 = icmp eq i32 %6, 0
  %8 = icmp slt i32 %3, 10
  %9 = or i1 %7, %8
  br i1 %9, label %10, label %23

; <label>:10:                                     ; preds = %1, %23
  %11 = alloca %"struct.std::_Head_base"*, align 8
  store %"struct.std::_Head_base"* %0, %"struct.std::_Head_base"** %11, align 8
  %12 = load %"struct.std::_Head_base"*, %"struct.std::_Head_base"** %11, align 8
  %13 = getelementptr inbounds %"struct.std::_Head_base", %"struct.std::_Head_base"* %12, i32 0, i32 0
  %14 = load i32, i32* @x.233
  %15 = load i32, i32* @y.234
  %16 = sub i32 %14, 1
  %17 = mul i32 %14, %16
  %18 = urem i32 %17, 2
  %19 = icmp eq i32 %18, 0
  %20 = icmp slt i32 %15, 10
  %21 = or i1 %19, %20
  br i1 %21, label %22, label %23

; <label>:22:                                     ; preds = %10
  ret i32* %13

; <label>:23:                                     ; preds = %10, %1
  %24 = alloca %"struct.std::_Head_base"*, align 8
  store %"struct.std::_Head_base"* %0, %"struct.std::_Head_base"** %24, align 8
  %25 = load %"struct.std::_Head_base"*, %"struct.std::_Head_base"** %24, align 8
  %26 = getelementptr inbounds %"struct.std::_Head_base", %"struct.std::_Head_base"* %25, i32 0, i32 0
  br label %10
}

; Function Attrs: noinline nounwind uwtable
define linkonce_odr dereferenceable(8) double* @_ZSt7forwardIdEOT_RNSt16remove_referenceIS0_E4typeE(double* dereferenceable(8)) #1 comdat {
  %2 = alloca double*, align 8
  store double* %0, double** %2, align 8
  %3 = load double*, double** %2, align 8
  ret double* %3
}

; Function Attrs: noinline uwtable
define linkonce_odr void @_ZNSt11_Tuple_implILm0EJdiEEC2IdJiEvEEOT_DpOT0_(%"struct.std::_Tuple_impl"*, double* dereferenceable(8), i32* dereferenceable(4)) unnamed_addr #0 comdat align 2 {
  %4 = alloca %"struct.std::_Tuple_impl"*, align 8
  %5 = alloca double*, align 8
  %6 = alloca i32*, align 8
  store %"struct.std::_Tuple_impl"* %0, %"struct.std::_Tuple_impl"** %4, align 8
  store double* %1, double** %5, align 8
  store i32* %2, i32** %6, align 8
  %7 = load %"struct.std::_Tuple_impl"*, %"struct.std::_Tuple_impl"** %4, align 8
  %8 = bitcast %"struct.std::_Tuple_impl"* %7 to %"struct.std::_Tuple_impl.15"*
  %9 = load i32*, i32** %6, align 8
  %10 = call dereferenceable(4) i32* @_ZSt7forwardIiEOT_RNSt16remove_referenceIS0_E4typeE(i32* dereferenceable(4) %9) #4
  call void @_ZNSt11_Tuple_implILm1EJiEEC2IiEEOT_(%"struct.std::_Tuple_impl.15"* %8, i32* dereferenceable(4) %10)
  %11 = bitcast %"struct.std::_Tuple_impl"* %7 to i8*
  %12 = getelementptr inbounds i8, i8* %11, i64 8
  %13 = bitcast i8* %12 to %"struct.std::_Head_base.16"*
  %14 = load double*, double** %5, align 8
  %15 = call dereferenceable(8) double* @_ZSt7forwardIdEOT_RNSt16remove_referenceIS0_E4typeE(double* dereferenceable(8) %14) #4
  call void @_ZNSt10_Head_baseILm0EdLb0EEC2IdEEOT_(%"struct.std::_Head_base.16"* %13, double* dereferenceable(8) %15)
  ret void
}

; Function Attrs: noinline uwtable
define linkonce_odr void @_ZNSt11_Tuple_implILm1EJiEEC2IiEEOT_(%"struct.std::_Tuple_impl.15"*, i32* dereferenceable(4)) unnamed_addr #0 comdat align 2 {
  %3 = alloca %"struct.std::_Tuple_impl.15"*, align 8
  %4 = alloca i32*, align 8
  store %"struct.std::_Tuple_impl.15"* %0, %"struct.std::_Tuple_impl.15"** %3, align 8
  store i32* %1, i32** %4, align 8
  %5 = load %"struct.std::_Tuple_impl.15"*, %"struct.std::_Tuple_impl.15"** %3, align 8
  %6 = bitcast %"struct.std::_Tuple_impl.15"* %5 to %"struct.std::_Head_base"*
  %7 = load i32*, i32** %4, align 8
  %8 = call dereferenceable(4) i32* @_ZSt7forwardIiEOT_RNSt16remove_referenceIS0_E4typeE(i32* dereferenceable(4) %7) #4
  call void @_ZNSt10_Head_baseILm1EiLb0EEC2IiEEOT_(%"struct.std::_Head_base"* %6, i32* dereferenceable(4) %8)
  ret void
}

; Function Attrs: noinline nounwind uwtable
define linkonce_odr void @_ZNSt10_Head_baseILm0EdLb0EEC2IdEEOT_(%"struct.std::_Head_base.16"*, double* dereferenceable(8)) unnamed_addr #1 comdat align 2 {
  %3 = alloca %"struct.std::_Head_base.16"*, align 8
  %4 = alloca double*, align 8
  store %"struct.std::_Head_base.16"* %0, %"struct.std::_Head_base.16"** %3, align 8
  store double* %1, double** %4, align 8
  %5 = load %"struct.std::_Head_base.16"*, %"struct.std::_Head_base.16"** %3, align 8
  %6 = getelementptr inbounds %"struct.std::_Head_base.16", %"struct.std::_Head_base.16"* %5, i32 0, i32 0
  %7 = load double*, double** %4, align 8
  %8 = call dereferenceable(8) double* @_ZSt7forwardIdEOT_RNSt16remove_referenceIS0_E4typeE(double* dereferenceable(8) %7) #4
  %9 = load double, double* %8, align 8
  store double %9, double* %6, align 8
  ret void
}

; Function Attrs: noinline nounwind uwtable
define linkonce_odr void @_ZNSt10_Head_baseILm1EiLb0EEC2IiEEOT_(%"struct.std::_Head_base"*, i32* dereferenceable(4)) unnamed_addr #1 comdat align 2 {
  %3 = alloca %"struct.std::_Head_base"*, align 8
  %4 = alloca i32*, align 8
  store %"struct.std::_Head_base"* %0, %"struct.std::_Head_base"** %3, align 8
  store i32* %1, i32** %4, align 8
  %5 = load %"struct.std::_Head_base"*, %"struct.std::_Head_base"** %3, align 8
  %6 = getelementptr inbounds %"struct.std::_Head_base", %"struct.std::_Head_base"* %5, i32 0, i32 0
  %7 = load i32*, i32** %4, align 8
  %8 = call dereferenceable(4) i32* @_ZSt7forwardIiEOT_RNSt16remove_referenceIS0_E4typeE(i32* dereferenceable(4) %7) #4
  %9 = load i32, i32* %8, align 4
  store i32 %9, i32* %6, align 4
  ret void
}

; Function Attrs: noinline nounwind uwtable
define linkonce_odr void @_ZNSt8_Rb_treeIiiSt9_IdentityIiESt4lessIiESaIiEED2Ev(%"class.std::_Rb_tree"*) unnamed_addr #1 comdat align 2 personality i8* bitcast (i32 (...)* @__gxx_personality_v0 to i8*) {
  %2 = load i32, i32* @x.245
  %3 = load i32, i32* @y.246
  %4 = sub i32 %2, 1
  %5 = mul i32 %2, %4
  %6 = urem i32 %5, 2
  %7 = icmp eq i32 %6, 0
  %8 = icmp slt i32 %3, 10
  %9 = or i1 %7, %8
  br i1 %9, label %10, label %52

; <label>:10:                                     ; preds = %1, %52
  %11 = alloca %"class.std::_Rb_tree"*, align 8
  %12 = alloca i8*
  %13 = alloca i32
  store %"class.std::_Rb_tree"* %0, %"class.std::_Rb_tree"** %11, align 8
  %14 = load %"class.std::_Rb_tree"*, %"class.std::_Rb_tree"** %11, align 8
  %15 = call %"struct.std::_Rb_tree_node"* @_ZNSt8_Rb_treeIiiSt9_IdentityIiESt4lessIiESaIiEE8_M_beginEv(%"class.std::_Rb_tree"* %14) #4
  %16 = load i32, i32* @x.245
  %17 = load i32, i32* @y.246
  %18 = sub i32 %16, 1
  %19 = mul i32 %16, %18
  %20 = urem i32 %19, 2
  %21 = icmp eq i32 %20, 0
  %22 = icmp slt i32 %17, 10
  %23 = or i1 %21, %22
  br i1 %23, label %24, label %52

; <label>:24:                                     ; preds = %10
  invoke void @_ZNSt8_Rb_treeIiiSt9_IdentityIiESt4lessIiESaIiEE8_M_eraseEPSt13_Rb_tree_nodeIiE(%"class.std::_Rb_tree"* %14, %"struct.std::_Rb_tree_node"* %15)
          to label %25 unwind label %27

; <label>:25:                                     ; preds = %24
  %26 = getelementptr inbounds %"class.std::_Rb_tree", %"class.std::_Rb_tree"* %14, i32 0, i32 0
  call void @_ZNSt8_Rb_treeIiiSt9_IdentityIiESt4lessIiESaIiEE13_Rb_tree_implIS3_Lb1EED2Ev(%"struct.std::_Rb_tree<int, int, std::_Identity<int>, std::less<int>, std::allocator<int> >::_Rb_tree_impl"* %26) #4
  ret void

; <label>:27:                                     ; preds = %24
  %28 = landingpad { i8*, i32 }
          catch i8* null
  %29 = extractvalue { i8*, i32 } %28, 0
  store i8* %29, i8** %12, align 8
  %30 = extractvalue { i8*, i32 } %28, 1
  store i32 %30, i32* %13, align 4
  %31 = getelementptr inbounds %"class.std::_Rb_tree", %"class.std::_Rb_tree"* %14, i32 0, i32 0
  call void @_ZNSt8_Rb_treeIiiSt9_IdentityIiESt4lessIiESaIiEE13_Rb_tree_implIS3_Lb1EED2Ev(%"struct.std::_Rb_tree<int, int, std::_Identity<int>, std::less<int>, std::allocator<int> >::_Rb_tree_impl"* %31) #4
  br label %32

; <label>:32:                                     ; preds = %27
  %33 = load i32, i32* @x.245
  %34 = load i32, i32* @y.246
  %35 = sub i32 %33, 1
  %36 = mul i32 %33, %35
  %37 = urem i32 %36, 2
  %38 = icmp eq i32 %37, 0
  %39 = icmp slt i32 %34, 10
  %40 = or i1 %38, %39
  br i1 %40, label %41, label %58

; <label>:41:                                     ; preds = %32, %58
  %42 = load i8*, i8** %12, align 8
  call void @__clang_call_terminate(i8* %42) #8
  %43 = load i32, i32* @x.245
  %44 = load i32, i32* @y.246
  %45 = sub i32 %43, 1
  %46 = mul i32 %43, %45
  %47 = urem i32 %46, 2
  %48 = icmp eq i32 %47, 0
  %49 = icmp slt i32 %44, 10
  %50 = or i1 %48, %49
  br i1 %50, label %51, label %58

; <label>:51:                                     ; preds = %41
  unreachable

; <label>:52:                                     ; preds = %10, %1
  %53 = alloca %"class.std::_Rb_tree"*, align 8
  %54 = alloca i8*
  %55 = alloca i32
  store %"class.std::_Rb_tree"* %0, %"class.std::_Rb_tree"** %53, align 8
  %56 = load %"class.std::_Rb_tree"*, %"class.std::_Rb_tree"** %53, align 8
