; ModuleID = 'Project_CodeNet_C++1400/p03575/s301713658.cpp'
source_filename = "Project_CodeNet_C++1400/p03575/s301713658.cpp"
target datalayout = "e-m:e-i64:64-f80:128-n8:16:32:64-S128"
target triple = "x86_64-unknown-linux-gnu"

%"class.std::ios_base::Init" = type { i8 }
%"class.std::basic_istream" = type { i32 (...)**, i64, %"class.std::basic_ios" }
%"class.std::basic_ios" = type { %"class.std::ios_base", %"class.std::basic_ostream"*, i8, i8, %"class.std::basic_streambuf"*, %"class.std::ctype"*, %"class.std::num_put"*, %"class.std::num_get"* }
%"class.std::ios_base" = type { i32 (...)**, i64, i64, i32, i32, i32, %"struct.std::ios_base::_Callback_list"*, %"struct.std::ios_base::_Words", [8 x %"struct.std::ios_base::_Words"], i32, %"struct.std::ios_base::_Words"*, %"class.std::locale" }
%"struct.std::ios_base::_Callback_list" = type { %"struct.std::ios_base::_Callback_list"*, void (i32, %"class.std::ios_base"*, i32)*, i32, i32 }
%"struct.std::ios_base::_Words" = type { i8*, i64 }
%"class.std::locale" = type { %"class.std::locale::_Impl"* }
%"class.std::locale::_Impl" = type { i32, %"class.std::locale::facet"**, i64, %"class.std::locale::facet"**, i8** }
%"class.std::locale::facet" = type <{ i32 (...)**, i32, [4 x i8] }>
%"class.std::basic_ostream" = type { i32 (...)**, %"class.std::basic_ios" }
%"class.std::basic_streambuf" = type { i32 (...)**, i8*, i8*, i8*, i8*, i8*, i8*, %"class.std::locale" }
%"class.std::ctype" = type <{ %"class.std::locale::facet.base", [4 x i8], %struct.__locale_struct*, i8, [7 x i8], i32*, i32*, i16*, i8, [256 x i8], [256 x i8], i8, [6 x i8] }>
%"class.std::locale::facet.base" = type <{ i32 (...)**, i32 }>
%struct.__locale_struct = type { [13 x %struct.__locale_data*], i16*, i32*, i32*, [13 x i8*] }
%struct.__locale_data = type opaque
%"class.std::num_put" = type { %"class.std::locale::facet.base", [4 x i8] }
%"class.std::num_get" = type { %"class.std::locale::facet.base", [4 x i8] }
%"struct.std::piecewise_construct_t" = type { i8 }
%"class.std::vector.0" = type { %"struct.std::_Vector_base.1" }
%"struct.std::_Vector_base.1" = type { %"struct.std::_Vector_base<long long, std::allocator<long long> >::_Vector_impl" }
%"struct.std::_Vector_base<long long, std::allocator<long long> >::_Vector_impl" = type { i64*, i64*, i64* }
%"class.std::vector" = type { %"struct.std::_Vector_base" }
%"struct.std::_Vector_base" = type { %"struct.std::_Vector_base<std::vector<long long, std::allocator<long long> >, std::allocator<std::vector<long long, std::allocator<long long> > > >::_Vector_impl" }
%"struct.std::_Vector_base<std::vector<long long, std::allocator<long long> >, std::allocator<std::vector<long long, std::allocator<long long> > > >::_Vector_impl" = type { %"class.std::vector.0"*, %"class.std::vector.0"*, %"class.std::vector.0"* }
%"class.std::allocator" = type { i8 }
%"class.std::allocator.2" = type { i8 }
%"class.__gnu_cxx::__normal_iterator.46" = type { i64* }
%"class.std::vector.5" = type { %"struct.std::_Vector_base.6" }
%"struct.std::_Vector_base.6" = type { %"struct.std::_Vector_base<std::vector<char, std::allocator<char> >, std::allocator<std::vector<char, std::allocator<char> > > >::_Vector_impl" }
%"struct.std::_Vector_base<std::vector<char, std::allocator<char> >, std::allocator<std::vector<char, std::allocator<char> > > >::_Vector_impl" = type { %"class.std::vector.10"*, %"class.std::vector.10"*, %"class.std::vector.10"* }
%"class.std::vector.10" = type { %"struct.std::_Vector_base.11" }
%"struct.std::_Vector_base.11" = type { %"struct.std::_Vector_base<char, std::allocator<char> >::_Vector_impl" }
%"struct.std::_Vector_base<char, std::allocator<char> >::_Vector_impl" = type { i8*, i8*, i8* }
%"class.std::queue" = type { %"class.std::deque" }
%"class.std::deque" = type { %"class.std::_Deque_base" }
%"class.std::_Deque_base" = type { %"struct.std::_Deque_base<std::pair<int, int>, std::allocator<std::pair<int, int> > >::_Deque_impl" }
%"struct.std::_Deque_base<std::pair<int, int>, std::allocator<std::pair<int, int> > >::_Deque_impl" = type { %"struct.std::pair"**, i64, %"struct.std::_Deque_iterator", %"struct.std::_Deque_iterator" }
%"struct.std::pair" = type { i32, i32 }
%"struct.std::_Deque_iterator" = type { %"struct.std::pair"*, %"struct.std::pair"*, %"struct.std::pair"*, %"struct.std::pair"** }
%"class.std::allocator.15" = type { i8 }
%"class.__gnu_cxx::new_allocator.3" = type { i8 }
%"class.std::map" = type { %"class.std::_Rb_tree" }
%"class.std::_Rb_tree" = type { %"struct.std::_Rb_tree<long long, std::pair<const long long, long long>, std::_Select1st<std::pair<const long long, long long> >, std::less<long long>, std::allocator<std::pair<const long long, long long> > >::_Rb_tree_impl" }
%"struct.std::_Rb_tree<long long, std::pair<const long long, long long>, std::_Select1st<std::pair<const long long, long long> >, std::less<long long>, std::allocator<std::pair<const long long, long long> > >::_Rb_tree_impl" = type { %"struct.std::less", %"struct.std::_Rb_tree_node_base", i64 }
%"struct.std::less" = type { i8 }
%"struct.std::_Rb_tree_node_base" = type { i32, %"struct.std::_Rb_tree_node_base"*, %"struct.std::_Rb_tree_node_base"*, %"struct.std::_Rb_tree_node_base"* }
%"struct.std::_Rb_tree_iterator" = type { %"struct.std::_Rb_tree_node_base"* }
%"struct.std::_Rb_tree_const_iterator" = type { %"struct.std::_Rb_tree_node_base"* }
%"class.std::tuple" = type { %"struct.std::_Tuple_impl" }
%"struct.std::_Tuple_impl" = type { %"struct.std::_Head_base" }
%"struct.std::_Head_base" = type { i64* }
%"class.std::tuple.50" = type { i8 }
%"struct.std::pair.44" = type { i64, i64 }
%"class.std::vector.21" = type { %"struct.std::_Vector_base.22" }
%"struct.std::_Vector_base.22" = type { %"struct.std::_Vector_base<std::vector<Edge, std::allocator<Edge> >, std::allocator<std::vector<Edge, std::allocator<Edge> > > >::_Vector_impl" }
%"struct.std::_Vector_base<std::vector<Edge, std::allocator<Edge> >, std::allocator<std::vector<Edge, std::allocator<Edge> > > >::_Vector_impl" = type { %"class.std::vector.26"*, %"class.std::vector.26"*, %"class.std::vector.26"* }
%"class.std::vector.26" = type { %"struct.std::_Vector_base.27" }
%"struct.std::_Vector_base.27" = type { %"struct.std::_Vector_base<Edge, std::allocator<Edge> >::_Vector_impl" }
%"struct.std::_Vector_base<Edge, std::allocator<Edge> >::_Vector_impl" = type { %struct.Edge*, %struct.Edge*, %struct.Edge* }
%struct.Edge = type { i64, i64 }
%"class.std::priority_queue" = type <{ %"class.std::vector.31", %"struct.std::greater", [7 x i8] }>
%"class.std::vector.31" = type { %"struct.std::_Vector_base.32" }
%"struct.std::_Vector_base.32" = type { %"struct.std::_Vector_base<std::pair<long long, long long>, std::allocator<std::pair<long long, long long> > >::_Vector_impl" }
%"struct.std::_Vector_base<std::pair<long long, long long>, std::allocator<std::pair<long long, long long> > >::_Vector_impl" = type { %"struct.std::pair.36"*, %"struct.std::pair.36"*, %"struct.std::pair.36"* }
%"struct.std::pair.36" = type { i64, i64 }
%"struct.std::greater" = type { i8 }
%"class.__gnu_cxx::__normal_iterator" = type { %struct.Edge* }
%"class.__gnu_cxx::__normal_iterator.38" = type { i64* }
%"class.__gnu_cxx::__normal_iterator.53" = type { %"struct.std::pair.36"* }
%"class.std::allocator.33" = type { i8 }
%"struct.std::random_access_iterator_tag" = type { i8 }
%"class.std::vector.39" = type { %"struct.std::_Vector_base.40" }
%"struct.std::_Vector_base.40" = type { %"struct.std::_Vector_base<std::__cxx11::basic_string<char>, std::allocator<std::__cxx11::basic_string<char> > >::_Vector_impl" }
%"struct.std::_Vector_base<std::__cxx11::basic_string<char>, std::allocator<std::__cxx11::basic_string<char> > >::_Vector_impl" = type { %"class.std::__cxx11::basic_string"*, %"class.std::__cxx11::basic_string"*, %"class.std::__cxx11::basic_string"* }
%"class.std::__cxx11::basic_string" = type { %"struct.std::__cxx11::basic_string<char, std::char_traits<char>, std::allocator<char> >::_Alloc_hider", i64, %union.anon }
%"struct.std::__cxx11::basic_string<char, std::char_traits<char>, std::allocator<char> >::_Alloc_hider" = type { i8* }
%union.anon = type { i64, [8 x i8] }
%"class.std::__cxx11::basic_stringstream" = type { %"class.std::basic_iostream.base", %"class.std::__cxx11::basic_stringbuf", %"class.std::basic_ios" }
%"class.std::basic_iostream.base" = type { %"class.std::basic_istream.base", %"class.std::basic_ostream.base" }
%"class.std::basic_istream.base" = type { i32 (...)**, i64 }
%"class.std::basic_ostream.base" = type { i32 (...)** }
%"class.std::__cxx11::basic_stringbuf" = type { %"class.std::basic_streambuf", i32, %"class.std::__cxx11::basic_string" }
%"class.std::allocator.41" = type { i8 }
%"struct.__gnu_cxx::__ops::_Iter_less_iter" = type { i8 }
%"class.std::allocator.23" = type { i8 }
%"class.__gnu_cxx::new_allocator.24" = type { i8 }
%"class.std::allocator.28" = type { i8 }
%"struct.std::_Rb_tree_node" = type { %"struct.std::_Rb_tree_node_base", %"struct.__gnu_cxx::__aligned_membuf" }
%"struct.__gnu_cxx::__aligned_membuf" = type { [16 x i8] }
%"class.std::allocator.18" = type { i8 }
%"class.__gnu_cxx::new_allocator.19" = type { i8 }
%"class.__gnu_cxx::new_allocator" = type { i8 }
%"class.std::move_iterator" = type { %"class.std::vector.0"* }
%"class.std::move_iterator.45" = type { i64* }
%"class.__gnu_cxx::new_allocator.16" = type { i8 }
%"class.std::allocator.47" = type { i8 }
%"class.__gnu_cxx::new_allocator.48" = type { i8 }
%"struct.std::integral_constant" = type { i8 }
%"struct.__gnu_cxx::__allocator_always_compares_equal" = type { i8 }
%"struct.std::pair.51" = type { %"struct.std::_Rb_tree_node_base"*, %"struct.std::_Rb_tree_node_base"* }
%"struct.std::_Select1st" = type { i8 }
%"struct.std::_Index_tuple" = type { i8 }
%"struct.std::_Index_tuple.52" = type { i8 }
%"class.__gnu_cxx::new_allocator.34" = type { i8 }
%"struct.__gnu_cxx::__ops::_Iter_comp_iter" = type { %"struct.std::greater" }
%"struct.__gnu_cxx::__ops::_Iter_comp_val" = type { %"struct.std::greater" }
%"class.std::move_iterator.54" = type { %"struct.std::pair.36"* }
%"class.__gnu_cxx::__normal_iterator.55" = type { %"struct.std::pair.36"* }
%"class.__gnu_cxx::new_allocator.42" = type { i8 }
%"class.std::move_iterator.56" = type { %"class.std::__cxx11::basic_string"* }
%"struct.__gnu_cxx::__ops::_Iter_less_val" = type { i8 }
%"struct.__gnu_cxx::__ops::_Val_less_iter" = type { i8 }
%"class.__gnu_cxx::new_allocator.29" = type { i8 }
%"class.std::move_iterator.57" = type { %struct.Edge* }

$_ZSt4acosIiEN9__gnu_cxx11__enable_ifIXsr12__is_integerIT_EE7__valueEdE6__typeES2_ = comdat any

$_ZNKSt6vectorIxSaIxEE4sizeEv = comdat any

$_ZNSt6vectorIS_IxSaIxEESaIS1_EE9push_backERKS1_ = comdat any

$_ZNSt6vectorIxSaIxEE9push_backERKx = comdat any

$_ZNSt6vectorIxSaIxEEC2ERKS1_ = comdat any

$_ZNSt6vectorIxSaIxEED2Ev = comdat any

$_ZNSt6vectorIxSaIxEE8pop_backEv = comdat any

$_ZNSt5dequeISt4pairIiiESaIS1_EEC2Ev = comdat any

$_ZNSt5queueISt4pairIiiESt5dequeIS1_SaIS1_EEEC2EOS4_ = comdat any

$_ZNSt5dequeISt4pairIiiESaIS1_EED2Ev = comdat any

$_ZNSt6vectorIS_IxSaIxEESaIS1_EEC2Ev = comdat any

$_ZNSaIxEC2Ev = comdat any

$_ZNSt6vectorIxSaIxEEC2EmRKS0_ = comdat any

$_ZNSaIxED2Ev = comdat any

$_ZNSt5queueISt4pairIiiESt5dequeIS1_SaIS1_EEE4pushEOS1_ = comdat any

$_ZSt9make_pairIRiS0_ESt4pairINSt17__decay_and_stripIT_E6__typeENS2_IT0_E6__typeEEOS3_OS6_ = comdat any

$_ZNKSt5queueISt4pairIiiESt5dequeIS1_SaIS1_EEE4sizeEv = comdat any

$_ZNSt5queueISt4pairIiiESt5dequeIS1_SaIS1_EEE5frontEv = comdat any

$_ZNSt5queueISt4pairIiiESt5dequeIS1_SaIS1_EEE3popEv = comdat any

$_ZNSt6vectorIS_IcSaIcEESaIS1_EEixEm = comdat any

$_ZNSt6vectorIcSaIcEEixEm = comdat any

$_ZNSt6vectorIS_IxSaIxEESaIS1_EEixEm = comdat any

$_ZNSt6vectorIxSaIxEEixEm = comdat any

$_ZSt3minIxERKT_S2_S2_ = comdat any

$_ZSt9make_pairIiiESt4pairINSt17__decay_and_stripIT_E6__typeENS1_IT0_E6__typeEEOS2_OS5_ = comdat any

$_ZNSt6vectorIS_IxSaIxEESaIS1_EED2Ev = comdat any

$_ZNSt5queueISt4pairIiiESt5dequeIS1_SaIS1_EEED2Ev = comdat any

$_ZNSt3mapIxxSt4lessIxESaISt4pairIKxxEEEC2Ev = comdat any

$_ZNSt3mapIxxSt4lessIxESaISt4pairIKxxEEEixERS3_ = comdat any

$_ZNSt3mapIxxSt4lessIxESaISt4pairIKxxEEED2Ev = comdat any

$_ZNKSt6vectorIS_I4EdgeSaIS0_EESaIS2_EE4sizeEv = comdat any

$_ZNSt6vectorIxSaIxEE6resizeEmRKx = comdat any

$_ZNSt6vectorISt4pairIxxESaIS1_EEC2Ev = comdat any

$_ZNSt14priority_queueISt4pairIxxESt6vectorIS1_SaIS1_EESt7greaterIS1_EEC2ERKS6_OS4_ = comdat any

$_ZNSt6vectorISt4pairIxxESaIS1_EED2Ev = comdat any

$_ZNSt14priority_queueISt4pairIxxESt6vectorIS1_SaIS1_EESt7greaterIS1_EE7emplaceIJRxRiEEEvDpOT_ = comdat any

$_ZNKSt14priority_queueISt4pairIxxESt6vectorIS1_SaIS1_EESt7greaterIS1_EE5emptyEv = comdat any

$_ZNKSt14priority_queueISt4pairIxxESt6vectorIS1_SaIS1_EESt7greaterIS1_EE3topEv = comdat any

$_ZNSt14priority_queueISt4pairIxxESt6vectorIS1_SaIS1_EESt7greaterIS1_EE3popEv = comdat any

$_ZNKSt6vectorIS_I4EdgeSaIS0_EESaIS2_EEixEm = comdat any

$_ZNKSt6vectorI4EdgeSaIS0_EE5beginEv = comdat any

$_ZNKSt6vectorI4EdgeSaIS0_EE3endEv = comdat any

$_ZN9__gnu_cxxneIPK4EdgeSt6vectorIS1_SaIS1_EEEEbRKNS_17__normal_iteratorIT_T0_EESC_ = comdat any

$_ZNK9__gnu_cxx17__normal_iteratorIPK4EdgeSt6vectorIS1_SaIS1_EEEdeEv = comdat any

$_ZNSt14priority_queueISt4pairIxxESt6vectorIS1_SaIS1_EESt7greaterIS1_EE7emplaceIJRxRKxEEEvDpOT_ = comdat any

$_ZN9__gnu_cxx17__normal_iteratorIPK4EdgeSt6vectorIS1_SaIS1_EEEppEv = comdat any

$_ZNSt14priority_queueISt4pairIxxESt6vectorIS1_SaIS1_EESt7greaterIS1_EED2Ev = comdat any

$_ZNSt6vectorIxSaIxEEC2Ev = comdat any

$_ZNKSt6vectorIxSaIxEEixEm = comdat any

$_ZSt7reverseIN9__gnu_cxx17__normal_iteratorIPxSt6vectorIxSaIxEEEEEvT_S7_ = comdat any

$_ZNSt6vectorIxSaIxEE5beginEv = comdat any

$_ZNSt6vectorIxSaIxEE3endEv = comdat any

$_ZNSt6vectorINSt7__cxx1112basic_stringIcSt11char_traitsIcESaIcEEESaIS5_EEC2Ev = comdat any

$_ZStorSt13_Ios_OpenmodeS_ = comdat any

$_ZNSt6vectorINSt7__cxx1112basic_stringIcSt11char_traitsIcESaIcEEESaIS5_EE9push_backERKS5_ = comdat any

$_ZNSt6vectorINSt7__cxx1112basic_stringIcSt11char_traitsIcESaIcEEESaIS5_EED2Ev = comdat any

$_ZNSt6vectorIxSaIxEE9push_backEOx = comdat any

$_ZSt4sortIN9__gnu_cxx17__normal_iteratorIPxSt6vectorIxSaIxEEEEEvT_S7_ = comdat any

$_ZSt5beginISt6vectorIxSaIxEEEDTcldtfp_5beginEERT_ = comdat any

$_ZSt3endISt6vectorIxSaIxEEEDTcldtfp_3endEERT_ = comdat any

$_ZNSt6vectorISt4pairIxxESaIS1_EE9push_backEOS1_ = comdat any

$_ZSt9make_pairIRxS0_ESt4pairINSt17__decay_and_stripIT_E6__typeENS2_IT0_E6__typeEEOS3_OS6_ = comdat any

$_ZNSaISt6vectorI4EdgeSaIS0_EEEC2Ev = comdat any

$_ZNSt6vectorIS_I4EdgeSaIS0_EESaIS2_EEC2EmRKS3_ = comdat any

$_ZNSaISt6vectorI4EdgeSaIS0_EEED2Ev = comdat any

$_ZNSt6vectorISt4pairIxxESaIS1_EEixEm = comdat any

$_ZNSt6vectorIS_I4EdgeSaIS0_EESaIS2_EEixEm = comdat any

$_ZNSt6vectorI4EdgeSaIS0_EE9push_backERKS0_ = comdat any

$_ZNSt6vectorIS_I4EdgeSaIS0_EESaIS2_EED2Ev = comdat any

$_ZSt7forwardIRiEOT_RNSt16remove_referenceIS1_E4typeE = comdat any

$_ZNSt4pairIiiEC2IRiS2_vEEOT_OT0_ = comdat any

$_ZSt7forwardIiEOT_RNSt16remove_referenceIS0_E4typeE = comdat any

$_ZNSt4pairIiiEC2IiivEEOT_OT0_ = comdat any

$_ZNSt8_Rb_treeIxSt4pairIKxxESt10_Select1stIS2_ESt4lessIxESaIS2_EED2Ev = comdat any

$_ZNSt8_Rb_treeIxSt4pairIKxxESt10_Select1stIS2_ESt4lessIxESaIS2_EE8_M_eraseEPSt13_Rb_tree_nodeIS2_E = comdat any

$_ZNSt8_Rb_treeIxSt4pairIKxxESt10_Select1stIS2_ESt4lessIxESaIS2_EE8_M_beginEv = comdat any

$_ZNSt8_Rb_treeIxSt4pairIKxxESt10_Select1stIS2_ESt4lessIxESaIS2_EE13_Rb_tree_implIS6_Lb1EED2Ev = comdat any

$__clang_call_terminate = comdat any

$_ZNSt8_Rb_treeIxSt4pairIKxxESt10_Select1stIS2_ESt4lessIxESaIS2_EE8_S_rightEPSt18_Rb_tree_node_base = comdat any

$_ZNSt8_Rb_treeIxSt4pairIKxxESt10_Select1stIS2_ESt4lessIxESaIS2_EE7_S_leftEPSt18_Rb_tree_node_base = comdat any

$_ZNSt8_Rb_treeIxSt4pairIKxxESt10_Select1stIS2_ESt4lessIxESaIS2_EE12_M_drop_nodeEPSt13_Rb_tree_nodeIS2_E = comdat any

$_ZNSt8_Rb_treeIxSt4pairIKxxESt10_Select1stIS2_ESt4lessIxESaIS2_EE15_M_destroy_nodeEPSt13_Rb_tree_nodeIS2_E = comdat any

$_ZNSt8_Rb_treeIxSt4pairIKxxESt10_Select1stIS2_ESt4lessIxESaIS2_EE11_M_put_nodeEPSt13_Rb_tree_nodeIS2_E = comdat any

$_ZNSt16allocator_traitsISaISt13_Rb_tree_nodeISt4pairIKxxEEEE7destroyIS3_EEvRS5_PT_ = comdat any

$_ZNSt8_Rb_treeIxSt4pairIKxxESt10_Select1stIS2_ESt4lessIxESaIS2_EE21_M_get_Node_allocatorEv = comdat any

$_ZNSt13_Rb_tree_nodeISt4pairIKxxEE9_M_valptrEv = comdat any

$_ZN9__gnu_cxx13new_allocatorISt13_Rb_tree_nodeISt4pairIKxxEEE7destroyIS4_EEvPT_ = comdat any

$_ZN9__gnu_cxx16__aligned_membufISt4pairIKxxEE6_M_ptrEv = comdat any

$_ZN9__gnu_cxx16__aligned_membufISt4pairIKxxEE7_M_addrEv = comdat any

$_ZNSt16allocator_traitsISaISt13_Rb_tree_nodeISt4pairIKxxEEEE10deallocateERS5_PS4_m = comdat any

$_ZN9__gnu_cxx13new_allocatorISt13_Rb_tree_nodeISt4pairIKxxEEE10deallocateEPS5_m = comdat any

$_ZNSaISt13_Rb_tree_nodeISt4pairIKxxEEED2Ev = comdat any

$_ZN9__gnu_cxx13new_allocatorISt13_Rb_tree_nodeISt4pairIKxxEEED2Ev = comdat any

$_ZSt7forwardIRxEOT_RNSt16remove_referenceIS1_E4typeE = comdat any

$_ZNSt4pairIxxEC2IRxS2_vEEOT_OT0_ = comdat any

$_ZNSt16allocator_traitsISaISt6vectorIxSaIxEEEE9constructIS2_JRKS2_EEEvRS3_PT_DpOT0_ = comdat any

$_ZNSt6vectorIS_IxSaIxEESaIS1_EE19_M_emplace_back_auxIJRKS1_EEEvDpOT_ = comdat any

$_ZN9__gnu_cxx13new_allocatorISt6vectorIxSaIxEEE9constructIS3_JRKS3_EEEvPT_DpOT0_ = comdat any

$_ZSt7forwardIRKSt6vectorIxSaIxEEEOT_RNSt16remove_referenceIS5_E4typeE = comdat any

$_ZNKSt6vectorIS_IxSaIxEESaIS1_EE12_M_check_lenEmPKc = comdat any

$_ZNSt12_Vector_baseISt6vectorIxSaIxEESaIS2_EE11_M_allocateEm = comdat any

$_ZNKSt6vectorIS_IxSaIxEESaIS1_EE4sizeEv = comdat any

$_ZSt34__uninitialized_move_if_noexcept_aIPSt6vectorIxSaIxEES3_SaIS2_EET0_T_S6_S5_RT1_ = comdat any

$_ZNSt12_Vector_baseISt6vectorIxSaIxEESaIS2_EE19_M_get_Tp_allocatorEv = comdat any

$_ZNSt16allocator_traitsISaISt6vectorIxSaIxEEEE7destroyIS2_EEvRS3_PT_ = comdat any

$_ZSt8_DestroyIPSt6vectorIxSaIxEES2_EvT_S4_RSaIT0_E = comdat any

$_ZNSt12_Vector_baseISt6vectorIxSaIxEESaIS2_EE13_M_deallocateEPS2_m = comdat any

$_ZNKSt6vectorIS_IxSaIxEESaIS1_EE8max_sizeEv = comdat any

$_ZSt3maxImERKT_S2_S2_ = comdat any

$_ZNSt16allocator_traitsISaISt6vectorIxSaIxEEEE8max_sizeERKS3_ = comdat any

$_ZNKSt12_Vector_baseISt6vectorIxSaIxEESaIS2_EE19_M_get_Tp_allocatorEv = comdat any

$_ZNK9__gnu_cxx13new_allocatorISt6vectorIxSaIxEEE8max_sizeEv = comdat any

$_ZNSt16allocator_traitsISaISt6vectorIxSaIxEEEE8allocateERS3_m = comdat any

$_ZN9__gnu_cxx13new_allocatorISt6vectorIxSaIxEEE8allocateEmPKv = comdat any

$_ZSt22__uninitialized_copy_aISt13move_iteratorIPSt6vectorIxSaIxEEES4_S3_ET0_T_S7_S6_RSaIT1_E = comdat any

$_ZSt32__make_move_if_noexcept_iteratorIPSt6vectorIxSaIxEESt13move_iteratorIS3_EET0_T_ = comdat any

$_ZSt18uninitialized_copyISt13move_iteratorIPSt6vectorIxSaIxEEES4_ET0_T_S7_S6_ = comdat any

$_ZNSt20__uninitialized_copyILb0EE13__uninit_copyISt13move_iteratorIPSt6vectorIxSaIxEEES6_EET0_T_S9_S8_ = comdat any

$_ZStneIPSt6vectorIxSaIxEEEbRKSt13move_iteratorIT_ES8_ = comdat any

$_ZSt10_ConstructISt6vectorIxSaIxEEJS2_EEvPT_DpOT0_ = comdat any

$_ZSt11__addressofISt6vectorIxSaIxEEEPT_RS3_ = comdat any

$_ZNKSt13move_iteratorIPSt6vectorIxSaIxEEEdeEv = comdat any

$_ZNSt13move_iteratorIPSt6vectorIxSaIxEEEppEv = comdat any

$_ZSt8_DestroyIPSt6vectorIxSaIxEEEvT_S4_ = comdat any

$_ZSteqIPSt6vectorIxSaIxEEEbRKSt13move_iteratorIT_ES8_ = comdat any

$_ZNKSt13move_iteratorIPSt6vectorIxSaIxEEE4baseEv = comdat any

$_ZSt7forwardISt6vectorIxSaIxEEEOT_RNSt16remove_referenceIS3_E4typeE = comdat any

$_ZNSt6vectorIxSaIxEEC2EOS1_ = comdat any

$_ZSt4moveIRSt6vectorIxSaIxEEEONSt16remove_referenceIT_E4typeEOS5_ = comdat any

$_ZNSt12_Vector_baseIxSaIxEEC2EOS1_ = comdat any

$_ZSt4moveIRSaIxEEONSt16remove_referenceIT_E4typeEOS3_ = comdat any

$_ZNSt12_Vector_baseIxSaIxEE19_M_get_Tp_allocatorEv = comdat any

$_ZNSt12_Vector_baseIxSaIxEE12_Vector_implC2EOS0_ = comdat any

$_ZNSt12_Vector_baseIxSaIxEE12_Vector_impl12_M_swap_dataERS2_ = comdat any

$_ZN9__gnu_cxx13new_allocatorIxEC2ERKS1_ = comdat any

$_ZSt4swapIPxEvRT_S2_ = comdat any

$_ZSt4moveIRPxEONSt16remove_referenceIT_E4typeEOS3_ = comdat any

$_ZNSt12_Destroy_auxILb0EE9__destroyIPSt6vectorIxSaIxEEEEvT_S6_ = comdat any

$_ZSt8_DestroyISt6vectorIxSaIxEEEvPT_ = comdat any

$_ZNSt13move_iteratorIPSt6vectorIxSaIxEEEC2ES3_ = comdat any

$_ZN9__gnu_cxx13new_allocatorISt6vectorIxSaIxEEE7destroyIS3_EEvPT_ = comdat any

$_ZNSt16allocator_traitsISaISt6vectorIxSaIxEEEE10deallocateERS3_PS2_m = comdat any

$_ZN9__gnu_cxx13new_allocatorISt6vectorIxSaIxEEE10deallocateEPS3_m = comdat any

$_ZNSt16allocator_traitsISaIxEE9constructIxJRKxEEEvRS0_PT_DpOT0_ = comdat any

$_ZNSt6vectorIxSaIxEE19_M_emplace_back_auxIJRKxEEEvDpOT_ = comdat any

$_ZN9__gnu_cxx13new_allocatorIxE9constructIxJRKxEEEvPT_DpOT0_ = comdat any

$_ZSt7forwardIRKxEOT_RNSt16remove_referenceIS2_E4typeE = comdat any

$_ZNKSt6vectorIxSaIxEE12_M_check_lenEmPKc = comdat any

$_ZNSt12_Vector_baseIxSaIxEE11_M_allocateEm = comdat any

$_ZSt34__uninitialized_move_if_noexcept_aIPxS0_SaIxEET0_T_S3_S2_RT1_ = comdat any

$_ZNSt16allocator_traitsISaIxEE7destroyIxEEvRS0_PT_ = comdat any

$_ZSt8_DestroyIPxxEvT_S1_RSaIT0_E = comdat any

$_ZNSt12_Vector_baseIxSaIxEE13_M_deallocateEPxm = comdat any

$_ZNKSt6vectorIxSaIxEE8max_sizeEv = comdat any

$_ZNSt16allocator_traitsISaIxEE8max_sizeERKS0_ = comdat any

$_ZNKSt12_Vector_baseIxSaIxEE19_M_get_Tp_allocatorEv = comdat any

$_ZNK9__gnu_cxx13new_allocatorIxE8max_sizeEv = comdat any

$_ZNSt16allocator_traitsISaIxEE8allocateERS0_m = comdat any

$_ZN9__gnu_cxx13new_allocatorIxE8allocateEmPKv = comdat any

$_ZSt22__uninitialized_copy_aISt13move_iteratorIPxES1_xET0_T_S4_S3_RSaIT1_E = comdat any

$_ZSt32__make_move_if_noexcept_iteratorIPxSt13move_iteratorIS0_EET0_T_ = comdat any

$_ZSt18uninitialized_copyISt13move_iteratorIPxES1_ET0_T_S4_S3_ = comdat any

$_ZNSt20__uninitialized_copyILb1EE13__uninit_copyISt13move_iteratorIPxES3_EET0_T_S6_S5_ = comdat any

$_ZSt4copyISt13move_iteratorIPxES1_ET0_T_S4_S3_ = comdat any

$_ZSt14__copy_move_a2ILb1EPxS0_ET1_T0_S2_S1_ = comdat any

$_ZSt12__miter_baseISt13move_iteratorIPxEENSt11_Miter_baseIT_E13iterator_typeES4_ = comdat any

$_ZSt13__copy_move_aILb1EPxS0_ET1_T0_S2_S1_ = comdat any

$_ZSt12__niter_baseIPxENSt11_Niter_baseIT_E13iterator_typeES2_ = comdat any

$_ZNSt11__copy_moveILb1ELb1ESt26random_access_iterator_tagE8__copy_mIxEEPT_PKS3_S6_S4_ = comdat any

$_ZNSt10_Iter_baseIPxLb0EE7_S_baseES0_ = comdat any

$_ZNSt10_Iter_baseISt13move_iteratorIPxELb1EE7_S_baseES2_ = comdat any

$_ZNKSt13move_iteratorIPxE4baseEv = comdat any

$_ZNSt13move_iteratorIPxEC2ES0_ = comdat any

$_ZN9__gnu_cxx13new_allocatorIxE7destroyIxEEvPT_ = comdat any

$_ZSt8_DestroyIPxEvT_S1_ = comdat any

$_ZNSt12_Destroy_auxILb1EE9__destroyIPxEEvT_S3_ = comdat any

$_ZNSt16allocator_traitsISaIxEE10deallocateERS0_Pxm = comdat any

$_ZN9__gnu_cxx13new_allocatorIxE10deallocateEPxm = comdat any

$_ZN9__gnu_cxx14__alloc_traitsISaIxEE17_S_select_on_copyERKS1_ = comdat any

$_ZNSt12_Vector_baseIxSaIxEEC2EmRKS0_ = comdat any

$_ZSt22__uninitialized_copy_aIN9__gnu_cxx17__normal_iteratorIPKxSt6vectorIxSaIxEEEEPxxET0_T_SA_S9_RSaIT1_E = comdat any

$_ZNKSt6vectorIxSaIxEE5beginEv = comdat any

$_ZNKSt6vectorIxSaIxEE3endEv = comdat any

$_ZNSt12_Vector_baseIxSaIxEED2Ev = comdat any

$_ZNSt16allocator_traitsISaIxEE37select_on_container_copy_constructionERKS0_ = comdat any

$_ZNSaIxEC2ERKS_ = comdat any

$_ZNSt12_Vector_baseIxSaIxEE12_Vector_implC2ERKS0_ = comdat any

$_ZNSt12_Vector_baseIxSaIxEE17_M_create_storageEm = comdat any

$_ZNSt12_Vector_baseIxSaIxEE12_Vector_implD2Ev = comdat any

$_ZN9__gnu_cxx13new_allocatorIxED2Ev = comdat any

$_ZSt18uninitialized_copyIN9__gnu_cxx17__normal_iteratorIPKxSt6vectorIxSaIxEEEEPxET0_T_SA_S9_ = comdat any

$_ZNSt20__uninitialized_copyILb1EE13__uninit_copyIN9__gnu_cxx17__normal_iteratorIPKxSt6vectorIxSaIxEEEEPxEET0_T_SC_SB_ = comdat any

$_ZSt4copyIN9__gnu_cxx17__normal_iteratorIPKxSt6vectorIxSaIxEEEEPxET0_T_SA_S9_ = comdat any

$_ZSt14__copy_move_a2ILb0EN9__gnu_cxx17__normal_iteratorIPKxSt6vectorIxSaIxEEEEPxET1_T0_SA_S9_ = comdat any

$_ZSt12__miter_baseIN9__gnu_cxx17__normal_iteratorIPKxSt6vectorIxSaIxEEEEENSt11_Miter_baseIT_E13iterator_typeES9_ = comdat any

$_ZSt13__copy_move_aILb0EPKxPxET1_T0_S4_S3_ = comdat any

$_ZSt12__niter_baseIN9__gnu_cxx17__normal_iteratorIPKxSt6vectorIxSaIxEEEEENSt11_Niter_baseIT_E13iterator_typeES9_ = comdat any

$_ZNSt11__copy_moveILb0ELb1ESt26random_access_iterator_tagE8__copy_mIxEEPT_PKS3_S6_S4_ = comdat any

$_ZNSt10_Iter_baseIN9__gnu_cxx17__normal_iteratorIPKxSt6vectorIxSaIxEEEELb1EE7_S_baseES7_ = comdat any

$_ZNK9__gnu_cxx17__normal_iteratorIPKxSt6vectorIxSaIxEEE4baseEv = comdat any

$_ZNSt10_Iter_baseIN9__gnu_cxx17__normal_iteratorIPKxSt6vectorIxSaIxEEEELb0EE7_S_baseES7_ = comdat any

$_ZN9__gnu_cxx17__normal_iteratorIPKxSt6vectorIxSaIxEEEC2ERKS2_ = comdat any

$_ZNSt11_Deque_baseISt4pairIiiESaIS1_EEC2Ev = comdat any

$_ZNSt11_Deque_baseISt4pairIiiESaIS1_EE11_Deque_implC2Ev = comdat any

$_ZNSt11_Deque_baseISt4pairIiiESaIS1_EE17_M_initialize_mapEm = comdat any

$_ZNSt11_Deque_baseISt4pairIiiESaIS1_EE11_Deque_implD2Ev = comdat any

$_ZNSaISt4pairIiiEEC2Ev = comdat any

$_ZNSt15_Deque_iteratorISt4pairIiiERS1_PS1_EC2Ev = comdat any

$_ZN9__gnu_cxx13new_allocatorISt4pairIiiEEC2Ev = comdat any

$_ZSt16__deque_buf_sizem = comdat any

$_ZNSt11_Deque_baseISt4pairIiiESaIS1_EE15_M_allocate_mapEm = comdat any

$_ZNSt11_Deque_baseISt4pairIiiESaIS1_EE15_M_create_nodesEPPS1_S5_ = comdat any

$_ZNSt11_Deque_baseISt4pairIiiESaIS1_EE17_M_deallocate_mapEPPS1_m = comdat any

$_ZNSt15_Deque_iteratorISt4pairIiiERS1_PS1_E11_M_set_nodeEPS3_ = comdat any

$_ZNKSt11_Deque_baseISt4pairIiiESaIS1_EE20_M_get_map_allocatorEv = comdat any

$_ZNSt16allocator_traitsISaIPSt4pairIiiEEE8allocateERS3_m = comdat any

$_ZNSaIPSt4pairIiiEED2Ev = comdat any

$_ZNKSt11_Deque_baseISt4pairIiiESaIS1_EE19_M_get_Tp_allocatorEv = comdat any

$_ZNSaIPSt4pairIiiEEC2IS0_EERKSaIT_E = comdat any

$_ZN9__gnu_cxx13new_allocatorIPSt4pairIiiEEC2Ev = comdat any

$_ZN9__gnu_cxx13new_allocatorIPSt4pairIiiEE8allocateEmPKv = comdat any

$_ZNK9__gnu_cxx13new_allocatorIPSt4pairIiiEE8max_sizeEv = comdat any

$_ZN9__gnu_cxx13new_allocatorIPSt4pairIiiEED2Ev = comdat any

$_ZNSt11_Deque_baseISt4pairIiiESaIS1_EE16_M_allocate_nodeEv = comdat any

$_ZNSt11_Deque_baseISt4pairIiiESaIS1_EE16_M_destroy_nodesEPPS1_S5_ = comdat any

$_ZNSt16allocator_traitsISaISt4pairIiiEEE8allocateERS2_m = comdat any

$_ZN9__gnu_cxx13new_allocatorISt4pairIiiEE8allocateEmPKv = comdat any

$_ZNK9__gnu_cxx13new_allocatorISt4pairIiiEE8max_sizeEv = comdat any

$_ZNSt11_Deque_baseISt4pairIiiESaIS1_EE18_M_deallocate_nodeEPS1_ = comdat any

$_ZNSt16allocator_traitsISaISt4pairIiiEEE10deallocateERS2_PS1_m = comdat any

$_ZN9__gnu_cxx13new_allocatorISt4pairIiiEE10deallocateEPS2_m = comdat any

$_ZNSt16allocator_traitsISaIPSt4pairIiiEEE10deallocateERS3_PS2_m = comdat any

$_ZN9__gnu_cxx13new_allocatorIPSt4pairIiiEE10deallocateEPS3_m = comdat any

$_ZNSt15_Deque_iteratorISt4pairIiiERS1_PS1_E14_S_buffer_sizeEv = comdat any

$_ZNSaISt4pairIiiEED2Ev = comdat any

$_ZN9__gnu_cxx13new_allocatorISt4pairIiiEED2Ev = comdat any

$_ZNSt5dequeISt4pairIiiESaIS1_EE15_M_destroy_dataESt15_Deque_iteratorIS1_RS1_PS1_ES7_RKS2_ = comdat any

$_ZNSt5dequeISt4pairIiiESaIS1_EE5beginEv = comdat any

$_ZNSt5dequeISt4pairIiiESaIS1_EE3endEv = comdat any

$_ZNSt11_Deque_baseISt4pairIiiESaIS1_EE19_M_get_Tp_allocatorEv = comdat any

$_ZNSt11_Deque_baseISt4pairIiiESaIS1_EED2Ev = comdat any

$_ZNSt15_Deque_iteratorISt4pairIiiERS1_PS1_EC2ERKS4_ = comdat any

$_ZSt4moveIRSt5dequeISt4pairIiiESaIS2_EEEONSt16remove_referenceIT_E4typeEOS7_ = comdat any

$_ZNSt5dequeISt4pairIiiESaIS1_EEC2EOS3_ = comdat any

$_ZNSt11_Deque_baseISt4pairIiiESaIS1_EEC2EOS3_ = comdat any

$_ZSt4moveIRSt11_Deque_baseISt4pairIiiESaIS2_EEEONSt16remove_referenceIT_E4typeEOS7_ = comdat any

$_ZNSt11_Deque_baseISt4pairIiiESaIS1_EEC2EOS3_St17integral_constantIbLb1EE = comdat any

$_ZSt4moveIRSaISt4pairIiiEEEONSt16remove_referenceIT_E4typeEOS5_ = comdat any

$_ZNSt11_Deque_baseISt4pairIiiESaIS1_EE11_Deque_implC2EOS2_ = comdat any

$_ZNSt11_Deque_baseISt4pairIiiESaIS1_EE11_Deque_impl12_M_swap_dataERS4_ = comdat any

$_ZNSaISt4pairIiiEEC2ERKS1_ = comdat any

$_ZN9__gnu_cxx13new_allocatorISt4pairIiiEEC2ERKS3_ = comdat any

$_ZSt4swapISt15_Deque_iteratorISt4pairIiiERS2_PS2_EEvRT_S7_ = comdat any

$_ZSt4swapIPPSt4pairIiiEEvRT_S5_ = comdat any

$_ZSt4swapImEvRT_S1_ = comdat any

$_ZSt4moveIRSt15_Deque_iteratorISt4pairIiiERS2_PS2_EEONSt16remove_referenceIT_E4typeEOS8_ = comdat any

$_ZSt4moveIRPPSt4pairIiiEEONSt16remove_referenceIT_E4typeEOS6_ = comdat any

$_ZSt4moveIRmEONSt16remove_referenceIT_E4typeEOS2_ = comdat any

$_ZNSt12_Vector_baseISt6vectorIxSaIxEESaIS2_EEC2Ev = comdat any

$_ZNSt12_Vector_baseISt6vectorIxSaIxEESaIS2_EE12_Vector_implC2Ev = comdat any

$_ZNSaISt6vectorIxSaIxEEEC2Ev = comdat any

$_ZN9__gnu_cxx13new_allocatorISt6vectorIxSaIxEEEC2Ev = comdat any

$_ZNSt12_Vector_baseISt6vectorIxSaIxEESaIS2_EED2Ev = comdat any

$_ZNSt12_Vector_baseISt6vectorIxSaIxEESaIS2_EE12_Vector_implD2Ev = comdat any

$_ZNSaISt6vectorIxSaIxEEED2Ev = comdat any

$_ZN9__gnu_cxx13new_allocatorISt6vectorIxSaIxEEED2Ev = comdat any

$_ZN9__gnu_cxx13new_allocatorIxEC2Ev = comdat any

$_ZNSt6vectorIxSaIxEE21_M_default_initializeEm = comdat any

$_ZSt27__uninitialized_default_n_aIPxmxET_S1_T0_RSaIT1_E = comdat any

$_ZSt25__uninitialized_default_nIPxmET_S1_T0_ = comdat any

$_ZNSt27__uninitialized_default_n_1ILb1EE18__uninit_default_nIPxmEET_S3_T0_ = comdat any

$_ZSt6fill_nIPxmxET_S1_T0_RKT1_ = comdat any

$_ZSt10__fill_n_aIPxmxEN9__gnu_cxx11__enable_ifIXsr11__is_scalarIT1_EE7__valueET_E6__typeES4_T0_RKS3_ = comdat any

$_ZNSt5dequeISt4pairIiiESaIS1_EE9push_backEOS1_ = comdat any

$_ZSt4moveIRSt4pairIiiEEONSt16remove_referenceIT_E4typeEOS4_ = comdat any

$_ZNSt5dequeISt4pairIiiESaIS1_EE12emplace_backIJS1_EEEvDpOT_ = comdat any

$_ZNSt16allocator_traitsISaISt4pairIiiEEE9constructIS1_JS1_EEEvRS2_PT_DpOT0_ = comdat any

$_ZSt7forwardISt4pairIiiEEOT_RNSt16remove_referenceIS2_E4typeE = comdat any

$_ZNSt5dequeISt4pairIiiESaIS1_EE16_M_push_back_auxIJS1_EEEvDpOT_ = comdat any

$_ZN9__gnu_cxx13new_allocatorISt4pairIiiEE9constructIS2_JS2_EEEvPT_DpOT0_ = comdat any

$_ZNSt5dequeISt4pairIiiESaIS1_EE22_M_reserve_map_at_backEm = comdat any

$_ZNSt5dequeISt4pairIiiESaIS1_EE17_M_reallocate_mapEmb = comdat any

$_ZSt4copyIPPSt4pairIiiES3_ET0_T_S5_S4_ = comdat any

$_ZSt13copy_backwardIPPSt4pairIiiES3_ET0_T_S5_S4_ = comdat any

$_ZSt14__copy_move_a2ILb0EPPSt4pairIiiES3_ET1_T0_S5_S4_ = comdat any

$_ZSt12__miter_baseIPPSt4pairIiiEENSt11_Miter_baseIT_E13iterator_typeES5_ = comdat any

$_ZSt13__copy_move_aILb0EPPSt4pairIiiES3_ET1_T0_S5_S4_ = comdat any

$_ZSt12__niter_baseIPPSt4pairIiiEENSt11_Niter_baseIT_E13iterator_typeES5_ = comdat any

$_ZNSt11__copy_moveILb0ELb1ESt26random_access_iterator_tagE8__copy_mIPSt4pairIiiEEEPT_PKS6_S9_S7_ = comdat any

$_ZNSt10_Iter_baseIPPSt4pairIiiELb0EE7_S_baseES3_ = comdat any

$_ZSt23__copy_move_backward_a2ILb0EPPSt4pairIiiES3_ET1_T0_S5_S4_ = comdat any

$_ZSt22__copy_move_backward_aILb0EPPSt4pairIiiES3_ET1_T0_S5_S4_ = comdat any

$_ZNSt20__copy_move_backwardILb0ELb1ESt26random_access_iterator_tagE13__copy_move_bIPSt4pairIiiEEEPT_PKS6_S9_S7_ = comdat any

$_ZNKSt5dequeISt4pairIiiESaIS1_EE4sizeEv = comdat any

$_ZStmiISt4pairIiiERS1_PS1_ENSt15_Deque_iteratorIT_T0_T1_E15difference_typeERKS8_SB_ = comdat any

$_ZNSt5dequeISt4pairIiiESaIS1_EE5frontEv = comdat any

$_ZNKSt15_Deque_iteratorISt4pairIiiERS1_PS1_EdeEv = comdat any

$_ZNSt5dequeISt4pairIiiESaIS1_EE9pop_frontEv = comdat any

$_ZNSt16allocator_traitsISaISt4pairIiiEEE7destroyIS1_EEvRS2_PT_ = comdat any

$_ZNSt5dequeISt4pairIiiESaIS1_EE16_M_pop_front_auxEv = comdat any

$_ZN9__gnu_cxx13new_allocatorISt4pairIiiEE7destroyIS2_EEvPT_ = comdat any

$_ZNSt8_Rb_treeIxSt4pairIKxxESt10_Select1stIS2_ESt4lessIxESaIS2_EEC2Ev = comdat any

$_ZNSt8_Rb_treeIxSt4pairIKxxESt10_Select1stIS2_ESt4lessIxESaIS2_EE13_Rb_tree_implIS6_Lb1EEC2Ev = comdat any

$_ZNSaISt13_Rb_tree_nodeISt4pairIKxxEEEC2Ev = comdat any

$_ZNSt8_Rb_treeIxSt4pairIKxxESt10_Select1stIS2_ESt4lessIxESaIS2_EE13_Rb_tree_implIS6_Lb1EE13_M_initializeEv = comdat any

$_ZN9__gnu_cxx13new_allocatorISt13_Rb_tree_nodeISt4pairIKxxEEEC2Ev = comdat any

$_ZNSt3mapIxxSt4lessIxESaISt4pairIKxxEEE11lower_boundERS3_ = comdat any

$_ZNKSt17_Rb_tree_iteratorISt4pairIKxxEEeqERKS3_ = comdat any

$_ZNSt3mapIxxSt4lessIxESaISt4pairIKxxEEE3endEv = comdat any

$_ZNKSt3mapIxxSt4lessIxESaISt4pairIKxxEEE8key_compEv = comdat any

$_ZNKSt4lessIxEclERKxS2_ = comdat any

$_ZNKSt17_Rb_tree_iteratorISt4pairIKxxEEdeEv = comdat any

$_ZNSt8_Rb_treeIxSt4pairIKxxESt10_Select1stIS2_ESt4lessIxESaIS2_EE22_M_emplace_hint_uniqueIJRKSt21piecewise_construct_tSt5tupleIJRS1_EESD_IJEEEEESt17_Rb_tree_iteratorIS2_ESt23_Rb_tree_const_iteratorIS2_EDpOT_ = comdat any

$_ZNSt23_Rb_tree_const_iteratorISt4pairIKxxEEC2ERKSt17_Rb_tree_iteratorIS2_E = comdat any

$_ZNSt5tupleIJRKxEEC2ES1_ = comdat any

$_ZNSt8_Rb_treeIxSt4pairIKxxESt10_Select1stIS2_ESt4lessIxESaIS2_EE11lower_boundERS1_ = comdat any

$_ZNSt8_Rb_treeIxSt4pairIKxxESt10_Select1stIS2_ESt4lessIxESaIS2_EE14_M_lower_boundEPSt13_Rb_tree_nodeIS2_ESB_RS1_ = comdat any

$_ZNSt8_Rb_treeIxSt4pairIKxxESt10_Select1stIS2_ESt4lessIxESaIS2_EE6_M_endEv = comdat any

$_ZNSt8_Rb_treeIxSt4pairIKxxESt10_Select1stIS2_ESt4lessIxESaIS2_EE6_S_keyEPKSt13_Rb_tree_nodeIS2_E = comdat any

$_ZNSt17_Rb_tree_iteratorISt4pairIKxxEEC2EPSt18_Rb_tree_node_base = comdat any

$_ZNKSt10_Select1stISt4pairIKxxEEclERKS2_ = comdat any

$_ZNSt8_Rb_treeIxSt4pairIKxxESt10_Select1stIS2_ESt4lessIxESaIS2_EE8_S_valueEPKSt13_Rb_tree_nodeIS2_E = comdat any

$_ZNKSt13_Rb_tree_nodeISt4pairIKxxEE9_M_valptrEv = comdat any

$_ZNK9__gnu_cxx16__aligned_membufISt4pairIKxxEE6_M_ptrEv = comdat any

$_ZNK9__gnu_cxx16__aligned_membufISt4pairIKxxEE7_M_addrEv = comdat any

$_ZNSt8_Rb_treeIxSt4pairIKxxESt10_Select1stIS2_ESt4lessIxESaIS2_EE3endEv = comdat any

$_ZNKSt8_Rb_treeIxSt4pairIKxxESt10_Select1stIS2_ESt4lessIxESaIS2_EE8key_compEv = comdat any

$_ZNSt8_Rb_treeIxSt4pairIKxxESt10_Select1stIS2_ESt4lessIxESaIS2_EE14_M_create_nodeIJRKSt21piecewise_construct_tSt5tupleIJRS1_EESD_IJEEEEEPSt13_Rb_tree_nodeIS2_EDpOT_ = comdat any

$_ZSt7forwardIRKSt21piecewise_construct_tEOT_RNSt16remove_referenceIS3_E4typeE = comdat any

$_ZSt7forwardISt5tupleIJRKxEEEOT_RNSt16remove_referenceIS4_E4typeE = comdat any

$_ZSt7forwardISt5tupleIJEEEOT_RNSt16remove_referenceIS2_E4typeE = comdat any

$_ZNSt8_Rb_treeIxSt4pairIKxxESt10_Select1stIS2_ESt4lessIxESaIS2_EE29_M_get_insert_hint_unique_posESt23_Rb_tree_const_iteratorIS2_ERS1_ = comdat any

$_ZNSt8_Rb_treeIxSt4pairIKxxESt10_Select1stIS2_ESt4lessIxESaIS2_EE14_M_insert_nodeEPSt18_Rb_tree_node_baseSA_PSt13_Rb_tree_nodeIS2_E = comdat any

$_ZNSt8_Rb_treeIxSt4pairIKxxESt10_Select1stIS2_ESt4lessIxESaIS2_EE11_M_get_nodeEv = comdat any

$_ZNSt8_Rb_treeIxSt4pairIKxxESt10_Select1stIS2_ESt4lessIxESaIS2_EE17_M_construct_nodeIJRKSt21piecewise_construct_tSt5tupleIJRS1_EESD_IJEEEEEvPSt13_Rb_tree_nodeIS2_EDpOT_ = comdat any

$_ZNSt16allocator_traitsISaISt13_Rb_tree_nodeISt4pairIKxxEEEE8allocateERS5_m = comdat any

$_ZN9__gnu_cxx13new_allocatorISt13_Rb_tree_nodeISt4pairIKxxEEE8allocateEmPKv = comdat any

$_ZNK9__gnu_cxx13new_allocatorISt13_Rb_tree_nodeISt4pairIKxxEEE8max_sizeEv = comdat any

$_ZNSt16allocator_traitsISaISt13_Rb_tree_nodeISt4pairIKxxEEEE9constructIS3_JRKSt21piecewise_construct_tSt5tupleIJRS2_EESB_IJEEEEEvRS5_PT_DpOT0_ = comdat any

$_ZN9__gnu_cxx13new_allocatorISt13_Rb_tree_nodeISt4pairIKxxEEE9constructIS4_JRKSt21piecewise_construct_tSt5tupleIJRS3_EESB_IJEEEEEvPT_DpOT0_ = comdat any

$_ZNSt5tupleIJRKxEEC2EOS2_ = comdat any

$_ZNSt4pairIKxxEC2IJRS0_EJEEESt21piecewise_construct_tSt5tupleIJDpT_EES5_IJDpT0_EE = comdat any

$_ZNSt11_Tuple_implILm0EJRKxEEC2EOS2_ = comdat any

$_ZNSt11_Tuple_implILm0EJRKxEE7_M_headERS2_ = comdat any

$_ZNSt10_Head_baseILm0ERKxLb0EEC2ES1_ = comdat any

$_ZNSt10_Head_baseILm0ERKxLb0EE7_M_headERS2_ = comdat any

$_ZNSt4pairIKxxEC2IJRS0_EJLm0EEJEJEEERSt5tupleIJDpT_EERS4_IJDpT1_EESt12_Index_tupleIJXspT0_EEESD_IJXspT2_EEE = comdat any

$_ZSt3getILm0EJRKxEERNSt13tuple_elementIXT_ESt5tupleIJDpT0_EEE4typeERS6_ = comdat any

$_ZSt12__get_helperILm0ERKxJEERT0_RSt11_Tuple_implIXT_EJS2_DpT1_EE = comdat any

$_ZNKSt23_Rb_tree_const_iteratorISt4pairIKxxEE13_M_const_castEv = comdat any

$_ZNKSt8_Rb_treeIxSt4pairIKxxESt10_Select1stIS2_ESt4lessIxESaIS2_EE4sizeEv = comdat any

$_ZNSt8_Rb_treeIxSt4pairIKxxESt10_Select1stIS2_ESt4lessIxESaIS2_EE6_S_keyEPKSt18_Rb_tree_node_base = comdat any

$_ZNSt8_Rb_treeIxSt4pairIKxxESt10_Select1stIS2_ESt4lessIxESaIS2_EE12_M_rightmostEv = comdat any

$_ZNSt4pairIPSt18_Rb_tree_node_baseS1_EC2IRS1_vEERKS1_OT_ = comdat any

$_ZNSt8_Rb_treeIxSt4pairIKxxESt10_Select1stIS2_ESt4lessIxESaIS2_EE24_M_get_insert_unique_posERS1_ = comdat any

$_ZNSt8_Rb_treeIxSt4pairIKxxESt10_Select1stIS2_ESt4lessIxESaIS2_EE11_M_leftmostEv = comdat any

$_ZNSt4pairIPSt18_Rb_tree_node_baseS1_EC2IRS1_S4_vEEOT_OT0_ = comdat any

$_ZNSt17_Rb_tree_iteratorISt4pairIKxxEEmmEv = comdat any

$_ZNSt17_Rb_tree_iteratorISt4pairIKxxEEppEv = comdat any

$_ZNSt4pairIPSt18_Rb_tree_node_baseS1_EC2IRS1_vEEOT_RKS1_ = comdat any

$_ZNSt8_Rb_treeIxSt4pairIKxxESt10_Select1stIS2_ESt4lessIxESaIS2_EE8_S_valueEPKSt18_Rb_tree_node_base = comdat any

$_ZSt7forwardIRPSt18_Rb_tree_node_baseEOT_RNSt16remove_referenceIS3_E4typeE = comdat any

$_ZNSt8_Rb_treeIxSt4pairIKxxESt10_Select1stIS2_ESt4lessIxESaIS2_EE5beginEv = comdat any

$_ZNSt4pairIPSt18_Rb_tree_node_baseS1_EC2IRPSt13_Rb_tree_nodeIS_IKxxEES9_vEEOT_OT0_ = comdat any

$_ZSt7forwardIRPSt13_Rb_tree_nodeISt4pairIKxxEEEOT_RNSt16remove_referenceIS7_E4typeE = comdat any

$_ZNSt11_Tuple_implILm0EJRKxEEC2ES1_ = comdat any

$_ZNSt6vectorIxSaIxEE6insertEN9__gnu_cxx17__normal_iteratorIPKxS1_EEmRS4_ = comdat any

$_ZN9__gnu_cxx17__normal_iteratorIPKxSt6vectorIxSaIxEEEC2IPxEERKNS0_IT_NS_11__enable_ifIXsr3std10__are_sameIS9_S8_EE7__valueES5_E6__typeEEE = comdat any

$_ZNSt6vectorIxSaIxEE15_M_erase_at_endEPx = comdat any

$_ZN9__gnu_cxxmiIPKxSt6vectorIxSaIxEEEENS_17__normal_iteratorIT_T0_E15difference_typeERKS9_SC_ = comdat any

$_ZNKSt6vectorIxSaIxEE6cbeginEv = comdat any

$_ZNSt6vectorIxSaIxEE14_M_fill_insertEN9__gnu_cxx17__normal_iteratorIPxS1_EEmRKx = comdat any

$_ZNK9__gnu_cxx17__normal_iteratorIPxSt6vectorIxSaIxEEEplEl = comdat any

$_ZN9__gnu_cxxmiIPxSt6vectorIxSaIxEEEENS_17__normal_iteratorIT_T0_E15difference_typeERKS8_SB_ = comdat any

$_ZSt22__uninitialized_move_aIPxS0_SaIxEET0_T_S3_S2_RT1_ = comdat any

$_ZSt13move_backwardIPxS0_ET0_T_S2_S1_ = comdat any

$_ZNK9__gnu_cxx17__normal_iteratorIPxSt6vectorIxSaIxEEE4baseEv = comdat any

$_ZSt4fillIPxxEvT_S1_RKT0_ = comdat any

$_ZSt24__uninitialized_fill_n_aIPxmxxET_S1_T0_RKT1_RSaIT2_E = comdat any

$_ZSt18make_move_iteratorIPxESt13move_iteratorIT_ES2_ = comdat any

$_ZSt23__copy_move_backward_a2ILb1EPxS0_ET1_T0_S2_S1_ = comdat any

$_ZSt12__miter_baseIPxENSt11_Miter_baseIT_E13iterator_typeES2_ = comdat any

$_ZSt22__copy_move_backward_aILb1EPxS0_ET1_T0_S2_S1_ = comdat any

$_ZNSt20__copy_move_backwardILb1ELb1ESt26random_access_iterator_tagE13__copy_move_bIxEEPT_PKS3_S6_S4_ = comdat any

$_ZSt8__fill_aIPxxEN9__gnu_cxx11__enable_ifIXsr11__is_scalarIT0_EE7__valueEvE6__typeET_S6_RKS3_ = comdat any

$_ZSt20uninitialized_fill_nIPxmxET_S1_T0_RKT1_ = comdat any

$_ZNSt22__uninitialized_fill_nILb1EE15__uninit_fill_nIPxmxEET_S3_T0_RKT1_ = comdat any

$_ZN9__gnu_cxx17__normal_iteratorIPxSt6vectorIxSaIxEEEC2ERKS1_ = comdat any

$_ZNSt12_Vector_baseISt4pairIxxESaIS1_EEC2Ev = comdat any

$_ZNSt12_Vector_baseISt4pairIxxESaIS1_EE12_Vector_implC2Ev = comdat any

$_ZNSaISt4pairIxxEEC2Ev = comdat any

$_ZN9__gnu_cxx13new_allocatorISt4pairIxxEEC2Ev = comdat any

$_ZSt8_DestroyIPSt4pairIxxES1_EvT_S3_RSaIT0_E = comdat any

$_ZNSt12_Vector_baseISt4pairIxxESaIS1_EE19_M_get_Tp_allocatorEv = comdat any

$_ZNSt12_Vector_baseISt4pairIxxESaIS1_EED2Ev = comdat any

$_ZSt8_DestroyIPSt4pairIxxEEvT_S3_ = comdat any

$_ZNSt12_Destroy_auxILb1EE9__destroyIPSt4pairIxxEEEvT_S5_ = comdat any

$_ZNSt12_Vector_baseISt4pairIxxESaIS1_EE13_M_deallocateEPS1_m = comdat any

$_ZNSt12_Vector_baseISt4pairIxxESaIS1_EE12_Vector_implD2Ev = comdat any

$_ZNSt16allocator_traitsISaISt4pairIxxEEE10deallocateERS2_PS1_m = comdat any

$_ZN9__gnu_cxx13new_allocatorISt4pairIxxEE10deallocateEPS2_m = comdat any

$_ZNSaISt4pairIxxEED2Ev = comdat any

$_ZN9__gnu_cxx13new_allocatorISt4pairIxxEED2Ev = comdat any

$_ZSt4moveIRSt6vectorISt4pairIxxESaIS2_EEEONSt16remove_referenceIT_E4typeEOS7_ = comdat any

$_ZNSt6vectorISt4pairIxxESaIS1_EEC2EOS3_ = comdat any

$_ZSt9make_heapIN9__gnu_cxx17__normal_iteratorIPSt4pairIxxESt6vectorIS3_SaIS3_EEEESt7greaterIS3_EEvT_SB_T0_ = comdat any

$_ZNSt6vectorISt4pairIxxESaIS1_EE5beginEv = comdat any

$_ZNSt6vectorISt4pairIxxESaIS1_EE3endEv = comdat any

$_ZNSt12_Vector_baseISt4pairIxxESaIS1_EEC2EOS3_ = comdat any

$_ZSt4moveIRSaISt4pairIxxEEEONSt16remove_referenceIT_E4typeEOS5_ = comdat any

$_ZNSt12_Vector_baseISt4pairIxxESaIS1_EE12_Vector_implC2EOS2_ = comdat any

$_ZNSt12_Vector_baseISt4pairIxxESaIS1_EE12_Vector_impl12_M_swap_dataERS4_ = comdat any

$_ZNSaISt4pairIxxEEC2ERKS1_ = comdat any

$_ZN9__gnu_cxx13new_allocatorISt4pairIxxEEC2ERKS3_ = comdat any

$_ZSt4swapIPSt4pairIxxEEvRT_S4_ = comdat any

$_ZSt4moveIRPSt4pairIxxEEONSt16remove_referenceIT_E4typeEOS5_ = comdat any

$_ZSt11__make_heapIN9__gnu_cxx17__normal_iteratorIPSt4pairIxxESt6vectorIS3_SaIS3_EEEENS0_5__ops15_Iter_comp_iterISt7greaterIS3_EEEEvT_SE_T0_ = comdat any

$_ZN9__gnu_cxx5__ops16__iter_comp_iterISt7greaterISt4pairIxxEEEENS0_15_Iter_comp_iterIT_EES7_ = comdat any

$_ZN9__gnu_cxxmiIPSt4pairIxxESt6vectorIS2_SaIS2_EEEENS_17__normal_iteratorIT_T0_E15difference_typeERKSA_SD_ = comdat any

$_ZSt4moveIRSt4pairIxxEEONSt16remove_referenceIT_E4typeEOS4_ = comdat any

$_ZNK9__gnu_cxx17__normal_iteratorIPSt4pairIxxESt6vectorIS2_SaIS2_EEEplEl = comdat any

$_ZNK9__gnu_cxx17__normal_iteratorIPSt4pairIxxESt6vectorIS2_SaIS2_EEEdeEv = comdat any

$_ZSt13__adjust_heapIN9__gnu_cxx17__normal_iteratorIPSt4pairIxxESt6vectorIS3_SaIS3_EEEElS3_NS0_5__ops15_Iter_comp_iterISt7greaterIS3_EEEEvT_T0_SF_T1_T2_ = comdat any

$_ZNK9__gnu_cxx17__normal_iteratorIPSt4pairIxxESt6vectorIS2_SaIS2_EEE4baseEv = comdat any

$_ZN9__gnu_cxx17__normal_iteratorIPSt4pairIxxESt6vectorIS2_SaIS2_EEEC2ERKS3_ = comdat any

$_ZN9__gnu_cxx5__ops15_Iter_comp_iterISt7greaterISt4pairIxxEEEclINS_17__normal_iteratorIPS4_St6vectorIS4_SaIS4_EEEESD_EEbT_T0_ = comdat any

$_ZNSt4pairIxxEaSEOS0_ = comdat any

$_ZSt11__push_heapIN9__gnu_cxx17__normal_iteratorIPSt4pairIxxESt6vectorIS3_SaIS3_EEEElS3_NS0_5__ops14_Iter_comp_valISt7greaterIS3_EEEEvT_T0_SF_T1_T2_ = comdat any

$_ZN9__gnu_cxx5__ops15__iter_comp_valISt7greaterISt4pairIxxEEEENS0_14_Iter_comp_valIT_EENS0_15_Iter_comp_iterIS7_EE = comdat any

$_ZNKSt7greaterISt4pairIxxEEclERKS1_S4_ = comdat any

$_ZStgtIxxEbRKSt4pairIT_T0_ES5_ = comdat any

$_ZStltIxxEbRKSt4pairIT_T0_ES5_ = comdat any

$_ZSt7forwardIxEOT_RNSt16remove_referenceIS0_E4typeE = comdat any

$_ZN9__gnu_cxx5__ops14_Iter_comp_valISt7greaterISt4pairIxxEEEclINS_17__normal_iteratorIPS4_St6vectorIS4_SaIS4_EEEES4_EEbT_RT0_ = comdat any

$_ZN9__gnu_cxx5__ops14_Iter_comp_valISt7greaterISt4pairIxxEEEC2ES5_ = comdat any

$_ZN9__gnu_cxx5__ops15_Iter_comp_iterISt7greaterISt4pairIxxEEEC2ES5_ = comdat any

$_ZNSt6vectorISt4pairIxxESaIS1_EE12emplace_backIJRxRiEEEvDpOT_ = comdat any

$_ZSt9push_heapIN9__gnu_cxx17__normal_iteratorIPSt4pairIxxESt6vectorIS3_SaIS3_EEEESt7greaterIS3_EEvT_SB_T0_ = comdat any

$_ZNSt16allocator_traitsISaISt4pairIxxEEE9constructIS1_JRxRiEEEvRS2_PT_DpOT0_ = comdat any

$_ZNSt6vectorISt4pairIxxESaIS1_EE19_M_emplace_back_auxIJRxRiEEEvDpOT_ = comdat any

$_ZN9__gnu_cxx13new_allocatorISt4pairIxxEE9constructIS2_JRxRiEEEvPT_DpOT0_ = comdat any

$_ZNSt4pairIxxEC2IRxRivEEOT_OT0_ = comdat any

$_ZNKSt6vectorISt4pairIxxESaIS1_EE12_M_check_lenEmPKc = comdat any

$_ZNSt12_Vector_baseISt4pairIxxESaIS1_EE11_M_allocateEm = comdat any

$_ZNKSt6vectorISt4pairIxxESaIS1_EE4sizeEv = comdat any

$_ZSt34__uninitialized_move_if_noexcept_aIPSt4pairIxxES2_SaIS1_EET0_T_S5_S4_RT1_ = comdat any

$_ZNSt16allocator_traitsISaISt4pairIxxEEE7destroyIS1_EEvRS2_PT_ = comdat any

$_ZNKSt6vectorISt4pairIxxESaIS1_EE8max_sizeEv = comdat any

$_ZNSt16allocator_traitsISaISt4pairIxxEEE8max_sizeERKS2_ = comdat any

$_ZNKSt12_Vector_baseISt4pairIxxESaIS1_EE19_M_get_Tp_allocatorEv = comdat any

$_ZNK9__gnu_cxx13new_allocatorISt4pairIxxEE8max_sizeEv = comdat any

$_ZNSt16allocator_traitsISaISt4pairIxxEEE8allocateERS2_m = comdat any

$_ZN9__gnu_cxx13new_allocatorISt4pairIxxEE8allocateEmPKv = comdat any

$_ZSt22__uninitialized_copy_aISt13move_iteratorIPSt4pairIxxEES3_S2_ET0_T_S6_S5_RSaIT1_E = comdat any

$_ZSt32__make_move_if_noexcept_iteratorIPSt4pairIxxESt13move_iteratorIS2_EET0_T_ = comdat any

$_ZSt18uninitialized_copyISt13move_iteratorIPSt4pairIxxEES3_ET0_T_S6_S5_ = comdat any

$_ZNSt20__uninitialized_copyILb0EE13__uninit_copyISt13move_iteratorIPSt4pairIxxEES5_EET0_T_S8_S7_ = comdat any

$_ZStneIPSt4pairIxxEEbRKSt13move_iteratorIT_ES7_ = comdat any

$_ZSt10_ConstructISt4pairIxxEJS1_EEvPT_DpOT0_ = comdat any

$_ZSt11__addressofISt4pairIxxEEPT_RS2_ = comdat any

$_ZNKSt13move_iteratorIPSt4pairIxxEEdeEv = comdat any

$_ZNSt13move_iteratorIPSt4pairIxxEEppEv = comdat any

$_ZSteqIPSt4pairIxxEEbRKSt13move_iteratorIT_ES7_ = comdat any

$_ZNKSt13move_iteratorIPSt4pairIxxEE4baseEv = comdat any

$_ZSt7forwardISt4pairIxxEEOT_RNSt16remove_referenceIS2_E4typeE = comdat any

$_ZNSt13move_iteratorIPSt4pairIxxEEC2ES2_ = comdat any

$_ZN9__gnu_cxx13new_allocatorISt4pairIxxEE7destroyIS2_EEvPT_ = comdat any

$_ZNK9__gnu_cxx17__normal_iteratorIPSt4pairIxxESt6vectorIS2_SaIS2_EEEmiEl = comdat any

$_ZN9__gnu_cxx5__ops15__iter_comp_valISt7greaterISt4pairIxxEEEENS0_14_Iter_comp_valIT_EES7_ = comdat any

$_ZNKSt6vectorISt4pairIxxESaIS1_EE5emptyEv = comdat any

$_ZN9__gnu_cxxeqIPKSt4pairIxxESt6vectorIS2_SaIS2_EEEEbRKNS_17__normal_iteratorIT_T0_EESD_ = comdat any

$_ZNKSt6vectorISt4pairIxxESaIS1_EE5beginEv = comdat any

$_ZNKSt6vectorISt4pairIxxESaIS1_EE3endEv = comdat any

$_ZNK9__gnu_cxx17__normal_iteratorIPKSt4pairIxxESt6vectorIS2_SaIS2_EEE4baseEv = comdat any

$_ZN9__gnu_cxx17__normal_iteratorIPKSt4pairIxxESt6vectorIS2_SaIS2_EEEC2ERKS4_ = comdat any

$_ZNKSt6vectorISt4pairIxxESaIS1_EE5frontEv = comdat any

$_ZNK9__gnu_cxx17__normal_iteratorIPKSt4pairIxxESt6vectorIS2_SaIS2_EEEdeEv = comdat any

$_ZSt8pop_heapIN9__gnu_cxx17__normal_iteratorIPSt4pairIxxESt6vectorIS3_SaIS3_EEEESt7greaterIS3_EEvT_SB_T0_ = comdat any

$_ZNSt6vectorISt4pairIxxESaIS1_EE8pop_backEv = comdat any

$_ZN9__gnu_cxx17__normal_iteratorIPSt4pairIxxESt6vectorIS2_SaIS2_EEEmmEv = comdat any

$_ZSt10__pop_heapIN9__gnu_cxx17__normal_iteratorIPSt4pairIxxESt6vectorIS3_SaIS3_EEEENS0_5__ops15_Iter_comp_iterISt7greaterIS3_EEEEvT_SE_SE_T0_ = comdat any

$_ZN9__gnu_cxx17__normal_iteratorIPK4EdgeSt6vectorIS1_SaIS1_EEEC2ERKS3_ = comdat any

$_ZNK9__gnu_cxx17__normal_iteratorIPK4EdgeSt6vectorIS1_SaIS1_EEE4baseEv = comdat any

$_ZNSt6vectorISt4pairIxxESaIS1_EE12emplace_backIJRxRKxEEEvDpOT_ = comdat any

$_ZNSt16allocator_traitsISaISt4pairIxxEEE9constructIS1_JRxRKxEEEvRS2_PT_DpOT0_ = comdat any

$_ZNSt6vectorISt4pairIxxESaIS1_EE19_M_emplace_back_auxIJRxRKxEEEvDpOT_ = comdat any

$_ZN9__gnu_cxx13new_allocatorISt4pairIxxEE9constructIS2_JRxRKxEEEvPT_DpOT0_ = comdat any

$_ZNSt4pairIxxEC2IRxvEEOT_RKx = comdat any

$_ZNSt12_Vector_baseIxSaIxEEC2Ev = comdat any

$_ZNSt12_Vector_baseIxSaIxEE12_Vector_implC2Ev = comdat any

$_ZSt9__reverseIN9__gnu_cxx17__normal_iteratorIPxSt6vectorIxSaIxEEEEEvT_S7_St26random_access_iterator_tag = comdat any

$_ZSt19__iterator_categoryIN9__gnu_cxx17__normal_iteratorIPxSt6vectorIxSaIxEEEEENSt15iterator_traitsIT_E17iterator_categoryERKS8_ = comdat any

$_ZN9__gnu_cxxeqIPxSt6vectorIxSaIxEEEEbRKNS_17__normal_iteratorIT_T0_EESA_ = comdat any

$_ZN9__gnu_cxx17__normal_iteratorIPxSt6vectorIxSaIxEEEmmEv = comdat any

$_ZN9__gnu_cxxltIPxSt6vectorIxSaIxEEEEbRKNS_17__normal_iteratorIT_T0_EESA_ = comdat any

$_ZSt9iter_swapIN9__gnu_cxx17__normal_iteratorIPxSt6vectorIxSaIxEEEES6_EvT_T0_ = comdat any

$_ZN9__gnu_cxx17__normal_iteratorIPxSt6vectorIxSaIxEEEppEv = comdat any

$_ZSt4swapIxEvRT_S1_ = comdat any

$_ZNK9__gnu_cxx17__normal_iteratorIPxSt6vectorIxSaIxEEEdeEv = comdat any

$_ZSt4moveIRxEONSt16remove_referenceIT_E4typeEOS2_ = comdat any

$_ZNSt12_Vector_baseINSt7__cxx1112basic_stringIcSt11char_traitsIcESaIcEEESaIS5_EEC2Ev = comdat any

$_ZNSt12_Vector_baseINSt7__cxx1112basic_stringIcSt11char_traitsIcESaIcEEESaIS5_EE12_Vector_implC2Ev = comdat any

$_ZNSaINSt7__cxx1112basic_stringIcSt11char_traitsIcESaIcEEEEC2Ev = comdat any

$_ZN9__gnu_cxx13new_allocatorINSt7__cxx1112basic_stringIcSt11char_traitsIcESaIcEEEEC2Ev = comdat any

$_ZSt8_DestroyIPNSt7__cxx1112basic_stringIcSt11char_traitsIcESaIcEEES5_EvT_S7_RSaIT0_E = comdat any

$_ZNSt12_Vector_baseINSt7__cxx1112basic_stringIcSt11char_traitsIcESaIcEEESaIS5_EE19_M_get_Tp_allocatorEv = comdat any

$_ZNSt12_Vector_baseINSt7__cxx1112basic_stringIcSt11char_traitsIcESaIcEEESaIS5_EED2Ev = comdat any

$_ZSt8_DestroyIPNSt7__cxx1112basic_stringIcSt11char_traitsIcESaIcEEEEvT_S7_ = comdat any

$_ZNSt12_Destroy_auxILb0EE9__destroyIPNSt7__cxx1112basic_stringIcSt11char_traitsIcESaIcEEEEEvT_S9_ = comdat any

$_ZSt8_DestroyINSt7__cxx1112basic_stringIcSt11char_traitsIcESaIcEEEEvPT_ = comdat any

$_ZSt11__addressofINSt7__cxx1112basic_stringIcSt11char_traitsIcESaIcEEEEPT_RS6_ = comdat any

$_ZNSt12_Vector_baseINSt7__cxx1112basic_stringIcSt11char_traitsIcESaIcEEESaIS5_EE13_M_deallocateEPS5_m = comdat any

$_ZNSt12_Vector_baseINSt7__cxx1112basic_stringIcSt11char_traitsIcESaIcEEESaIS5_EE12_Vector_implD2Ev = comdat any

$_ZNSt16allocator_traitsISaINSt7__cxx1112basic_stringIcSt11char_traitsIcESaIcEEEEE10deallocateERS6_PS5_m = comdat any

$_ZN9__gnu_cxx13new_allocatorINSt7__cxx1112basic_stringIcSt11char_traitsIcESaIcEEEE10deallocateEPS6_m = comdat any

$_ZNSaINSt7__cxx1112basic_stringIcSt11char_traitsIcESaIcEEEED2Ev = comdat any

$_ZN9__gnu_cxx13new_allocatorINSt7__cxx1112basic_stringIcSt11char_traitsIcESaIcEEEED2Ev = comdat any

$_ZNSt16allocator_traitsISaINSt7__cxx1112basic_stringIcSt11char_traitsIcESaIcEEEEE9constructIS5_JRKS5_EEEvRS6_PT_DpOT0_ = comdat any

$_ZNSt6vectorINSt7__cxx1112basic_stringIcSt11char_traitsIcESaIcEEESaIS5_EE19_M_emplace_back_auxIJRKS5_EEEvDpOT_ = comdat any

$_ZN9__gnu_cxx13new_allocatorINSt7__cxx1112basic_stringIcSt11char_traitsIcESaIcEEEE9constructIS6_JRKS6_EEEvPT_DpOT0_ = comdat any

$_ZSt7forwardIRKNSt7__cxx1112basic_stringIcSt11char_traitsIcESaIcEEEEOT_RNSt16remove_referenceIS8_E4typeE = comdat any

$_ZNKSt6vectorINSt7__cxx1112basic_stringIcSt11char_traitsIcESaIcEEESaIS5_EE12_M_check_lenEmPKc = comdat any

$_ZNSt12_Vector_baseINSt7__cxx1112basic_stringIcSt11char_traitsIcESaIcEEESaIS5_EE11_M_allocateEm = comdat any

$_ZNKSt6vectorINSt7__cxx1112basic_stringIcSt11char_traitsIcESaIcEEESaIS5_EE4sizeEv = comdat any

$_ZSt34__uninitialized_move_if_noexcept_aIPNSt7__cxx1112basic_stringIcSt11char_traitsIcESaIcEEES6_SaIS5_EET0_T_S9_S8_RT1_ = comdat any

$_ZNSt16allocator_traitsISaINSt7__cxx1112basic_stringIcSt11char_traitsIcESaIcEEEEE7destroyIS5_EEvRS6_PT_ = comdat any

$_ZNKSt6vectorINSt7__cxx1112basic_stringIcSt11char_traitsIcESaIcEEESaIS5_EE8max_sizeEv = comdat any

$_ZNSt16allocator_traitsISaINSt7__cxx1112basic_stringIcSt11char_traitsIcESaIcEEEEE8max_sizeERKS6_ = comdat any

$_ZNKSt12_Vector_baseINSt7__cxx1112basic_stringIcSt11char_traitsIcESaIcEEESaIS5_EE19_M_get_Tp_allocatorEv = comdat any

$_ZNK9__gnu_cxx13new_allocatorINSt7__cxx1112basic_stringIcSt11char_traitsIcESaIcEEEE8max_sizeEv = comdat any

$_ZNSt16allocator_traitsISaINSt7__cxx1112basic_stringIcSt11char_traitsIcESaIcEEEEE8allocateERS6_m = comdat any

$_ZN9__gnu_cxx13new_allocatorINSt7__cxx1112basic_stringIcSt11char_traitsIcESaIcEEEE8allocateEmPKv = comdat any

$_ZSt22__uninitialized_copy_aISt13move_iteratorIPNSt7__cxx1112basic_stringIcSt11char_traitsIcESaIcEEEES7_S6_ET0_T_SA_S9_RSaIT1_E = comdat any

$_ZSt32__make_move_if_noexcept_iteratorIPNSt7__cxx1112basic_stringIcSt11char_traitsIcESaIcEEESt13move_iteratorIS6_EET0_T_ = comdat any

$_ZSt18uninitialized_copyISt13move_iteratorIPNSt7__cxx1112basic_stringIcSt11char_traitsIcESaIcEEEES7_ET0_T_SA_S9_ = comdat any

$_ZNSt20__uninitialized_copyILb0EE13__uninit_copyISt13move_iteratorIPNSt7__cxx1112basic_stringIcSt11char_traitsIcESaIcEEEES9_EET0_T_SC_SB_ = comdat any

$_ZStneIPNSt7__cxx1112basic_stringIcSt11char_traitsIcESaIcEEEEbRKSt13move_iteratorIT_ESB_ = comdat any

$_ZSt10_ConstructINSt7__cxx1112basic_stringIcSt11char_traitsIcESaIcEEEJS5_EEvPT_DpOT0_ = comdat any

$_ZNKSt13move_iteratorIPNSt7__cxx1112basic_stringIcSt11char_traitsIcESaIcEEEEdeEv = comdat any

$_ZNSt13move_iteratorIPNSt7__cxx1112basic_stringIcSt11char_traitsIcESaIcEEEEppEv = comdat any

$_ZSteqIPNSt7__cxx1112basic_stringIcSt11char_traitsIcESaIcEEEEbRKSt13move_iteratorIT_ESB_ = comdat any

$_ZNKSt13move_iteratorIPNSt7__cxx1112basic_stringIcSt11char_traitsIcESaIcEEEE4baseEv = comdat any

$_ZSt7forwardINSt7__cxx1112basic_stringIcSt11char_traitsIcESaIcEEEEOT_RNSt16remove_referenceIS6_E4typeE = comdat any

$_ZNSt13move_iteratorIPNSt7__cxx1112basic_stringIcSt11char_traitsIcESaIcEEEEC2ES6_ = comdat any

$_ZN9__gnu_cxx13new_allocatorINSt7__cxx1112basic_stringIcSt11char_traitsIcESaIcEEEE7destroyIS6_EEvPT_ = comdat any

$_ZNSt6vectorIxSaIxEE12emplace_backIJxEEEvDpOT_ = comdat any

$_ZNSt16allocator_traitsISaIxEE9constructIxJxEEEvRS0_PT_DpOT0_ = comdat any

$_ZNSt6vectorIxSaIxEE19_M_emplace_back_auxIJxEEEvDpOT_ = comdat any

$_ZN9__gnu_cxx13new_allocatorIxE9constructIxJxEEEvPT_DpOT0_ = comdat any

$_ZSt6__sortIN9__gnu_cxx17__normal_iteratorIPxSt6vectorIxSaIxEEEENS0_5__ops15_Iter_less_iterEEvT_S9_T0_ = comdat any

$_ZN9__gnu_cxx5__ops16__iter_less_iterEv = comdat any

$_ZN9__gnu_cxxneIPxSt6vectorIxSaIxEEEEbRKNS_17__normal_iteratorIT_T0_EESA_ = comdat any

$_ZSt16__introsort_loopIN9__gnu_cxx17__normal_iteratorIPxSt6vectorIxSaIxEEEElNS0_5__ops15_Iter_less_iterEEvT_S9_T0_T1_ = comdat any

$_ZSt4__lgl = comdat any

$_ZSt22__final_insertion_sortIN9__gnu_cxx17__normal_iteratorIPxSt6vectorIxSaIxEEEENS0_5__ops15_Iter_less_iterEEvT_S9_T0_ = comdat any

$_ZSt14__partial_sortIN9__gnu_cxx17__normal_iteratorIPxSt6vectorIxSaIxEEEENS0_5__ops15_Iter_less_iterEEvT_S9_S9_T0_ = comdat any

$_ZSt27__unguarded_partition_pivotIN9__gnu_cxx17__normal_iteratorIPxSt6vectorIxSaIxEEEENS0_5__ops15_Iter_less_iterEET_S9_S9_T0_ = comdat any

$_ZSt13__heap_selectIN9__gnu_cxx17__normal_iteratorIPxSt6vectorIxSaIxEEEENS0_5__ops15_Iter_less_iterEEvT_S9_S9_T0_ = comdat any

$_ZSt11__sort_heapIN9__gnu_cxx17__normal_iteratorIPxSt6vectorIxSaIxEEEENS0_5__ops15_Iter_less_iterEEvT_S9_T0_ = comdat any

$_ZSt11__make_heapIN9__gnu_cxx17__normal_iteratorIPxSt6vectorIxSaIxEEEENS0_5__ops15_Iter_less_iterEEvT_S9_T0_ = comdat any

$_ZNK9__gnu_cxx5__ops15_Iter_less_iterclINS_17__normal_iteratorIPxSt6vectorIxSaIxEEEES8_EEbT_T0_ = comdat any

$_ZSt10__pop_heapIN9__gnu_cxx17__normal_iteratorIPxSt6vectorIxSaIxEEEENS0_5__ops15_Iter_less_iterEEvT_S9_S9_T0_ = comdat any

$_ZSt13__adjust_heapIN9__gnu_cxx17__normal_iteratorIPxSt6vectorIxSaIxEEEElxNS0_5__ops15_Iter_less_iterEEvT_T0_SA_T1_T2_ = comdat any

$_ZSt11__push_heapIN9__gnu_cxx17__normal_iteratorIPxSt6vectorIxSaIxEEEElxNS0_5__ops14_Iter_less_valEEvT_T0_SA_T1_T2_ = comdat any

$_ZN9__gnu_cxx5__ops15__iter_comp_valENS0_15_Iter_less_iterE = comdat any

$_ZNK9__gnu_cxx5__ops14_Iter_less_valclINS_17__normal_iteratorIPxSt6vectorIxSaIxEEEExEEbT_RT0_ = comdat any

$_ZSt22__move_median_to_firstIN9__gnu_cxx17__normal_iteratorIPxSt6vectorIxSaIxEEEENS0_5__ops15_Iter_less_iterEEvT_S9_S9_S9_T0_ = comdat any

$_ZNK9__gnu_cxx17__normal_iteratorIPxSt6vectorIxSaIxEEEmiEl = comdat any

$_ZSt21__unguarded_partitionIN9__gnu_cxx17__normal_iteratorIPxSt6vectorIxSaIxEEEENS0_5__ops15_Iter_less_iterEET_S9_S9_S9_T0_ = comdat any

$_ZSt16__insertion_sortIN9__gnu_cxx17__normal_iteratorIPxSt6vectorIxSaIxEEEENS0_5__ops15_Iter_less_iterEEvT_S9_T0_ = comdat any

$_ZSt26__unguarded_insertion_sortIN9__gnu_cxx17__normal_iteratorIPxSt6vectorIxSaIxEEEENS0_5__ops15_Iter_less_iterEEvT_S9_T0_ = comdat any

$_ZSt13move_backwardIN9__gnu_cxx17__normal_iteratorIPxSt6vectorIxSaIxEEEES6_ET0_T_S8_S7_ = comdat any

$_ZSt25__unguarded_linear_insertIN9__gnu_cxx17__normal_iteratorIPxSt6vectorIxSaIxEEEENS0_5__ops14_Val_less_iterEEvT_T0_ = comdat any

$_ZN9__gnu_cxx5__ops15__val_comp_iterENS0_15_Iter_less_iterE = comdat any

$_ZSt23__copy_move_backward_a2ILb1EN9__gnu_cxx17__normal_iteratorIPxSt6vectorIxSaIxEEEES6_ET1_T0_S8_S7_ = comdat any

$_ZSt12__miter_baseIN9__gnu_cxx17__normal_iteratorIPxSt6vectorIxSaIxEEEEENSt11_Miter_baseIT_E13iterator_typeES8_ = comdat any

$_ZSt12__niter_baseIN9__gnu_cxx17__normal_iteratorIPxSt6vectorIxSaIxEEEEENSt11_Niter_baseIT_E13iterator_typeES8_ = comdat any

$_ZNSt10_Iter_baseIN9__gnu_cxx17__normal_iteratorIPxSt6vectorIxSaIxEEEELb1EE7_S_baseES6_ = comdat any

$_ZNSt10_Iter_baseIN9__gnu_cxx17__normal_iteratorIPxSt6vectorIxSaIxEEEELb0EE7_S_baseES6_ = comdat any

$_ZNK9__gnu_cxx5__ops14_Val_less_iterclIxNS_17__normal_iteratorIPxSt6vectorIxSaIxEEEEEEbRT_T0_ = comdat any

$_ZNSt6vectorISt4pairIxxESaIS1_EE12emplace_backIJS1_EEEvDpOT_ = comdat any

$_ZNSt16allocator_traitsISaISt4pairIxxEEE9constructIS1_JS1_EEEvRS2_PT_DpOT0_ = comdat any

$_ZNSt6vectorISt4pairIxxESaIS1_EE19_M_emplace_back_auxIJS1_EEEvDpOT_ = comdat any

$_ZN9__gnu_cxx13new_allocatorISt4pairIxxEE9constructIS2_JS2_EEEvPT_DpOT0_ = comdat any

$_ZN9__gnu_cxx13new_allocatorISt6vectorI4EdgeSaIS2_EEEC2Ev = comdat any

$_ZN9__gnu_cxx13new_allocatorISt6vectorI4EdgeSaIS2_EEED2Ev = comdat any

$_ZNSt12_Vector_baseISt6vectorI4EdgeSaIS1_EESaIS3_EEC2EmRKS4_ = comdat any

$_ZNSt6vectorIS_I4EdgeSaIS0_EESaIS2_EE21_M_default_initializeEm = comdat any

$_ZNSt12_Vector_baseISt6vectorI4EdgeSaIS1_EESaIS3_EED2Ev = comdat any

$_ZNSt12_Vector_baseISt6vectorI4EdgeSaIS1_EESaIS3_EE12_Vector_implC2ERKS4_ = comdat any

$_ZNSt12_Vector_baseISt6vectorI4EdgeSaIS1_EESaIS3_EE17_M_create_storageEm = comdat any

$_ZNSt12_Vector_baseISt6vectorI4EdgeSaIS1_EESaIS3_EE12_Vector_implD2Ev = comdat any

$_ZNSaISt6vectorI4EdgeSaIS0_EEEC2ERKS3_ = comdat any

$_ZN9__gnu_cxx13new_allocatorISt6vectorI4EdgeSaIS2_EEEC2ERKS5_ = comdat any

$_ZNSt12_Vector_baseISt6vectorI4EdgeSaIS1_EESaIS3_EE11_M_allocateEm = comdat any

$_ZNSt16allocator_traitsISaISt6vectorI4EdgeSaIS1_EEEE8allocateERS4_m = comdat any

$_ZN9__gnu_cxx13new_allocatorISt6vectorI4EdgeSaIS2_EEE8allocateEmPKv = comdat any

$_ZNK9__gnu_cxx13new_allocatorISt6vectorI4EdgeSaIS2_EEE8max_sizeEv = comdat any

$_ZSt27__uninitialized_default_n_aIPSt6vectorI4EdgeSaIS1_EEmS3_ET_S5_T0_RSaIT1_E = comdat any

$_ZNSt12_Vector_baseISt6vectorI4EdgeSaIS1_EESaIS3_EE19_M_get_Tp_allocatorEv = comdat any

$_ZSt25__uninitialized_default_nIPSt6vectorI4EdgeSaIS1_EEmET_S5_T0_ = comdat any

$_ZNSt27__uninitialized_default_n_1ILb0EE18__uninit_default_nIPSt6vectorI4EdgeSaIS3_EEmEET_S7_T0_ = comdat any

$_ZSt10_ConstructISt6vectorI4EdgeSaIS1_EEJEEvPT_DpOT0_ = comdat any

$_ZSt11__addressofISt6vectorI4EdgeSaIS1_EEEPT_RS4_ = comdat any

$_ZSt8_DestroyIPSt6vectorI4EdgeSaIS1_EEEvT_S5_ = comdat any

$_ZNSt6vectorI4EdgeSaIS0_EEC2Ev = comdat any

$_ZNSt12_Vector_baseI4EdgeSaIS0_EEC2Ev = comdat any

$_ZNSt12_Vector_baseI4EdgeSaIS0_EE12_Vector_implC2Ev = comdat any

$_ZNSaI4EdgeEC2Ev = comdat any

$_ZN9__gnu_cxx13new_allocatorI4EdgeEC2Ev = comdat any

$_ZNSt12_Destroy_auxILb0EE9__destroyIPSt6vectorI4EdgeSaIS3_EEEEvT_S7_ = comdat any

$_ZSt8_DestroyISt6vectorI4EdgeSaIS1_EEEvPT_ = comdat any

$_ZNSt6vectorI4EdgeSaIS0_EED2Ev = comdat any

$_ZSt8_DestroyIP4EdgeS0_EvT_S2_RSaIT0_E = comdat any

$_ZNSt12_Vector_baseI4EdgeSaIS0_EE19_M_get_Tp_allocatorEv = comdat any

$_ZNSt12_Vector_baseI4EdgeSaIS0_EED2Ev = comdat any

$_ZSt8_DestroyIP4EdgeEvT_S2_ = comdat any

$_ZNSt12_Destroy_auxILb1EE9__destroyIP4EdgeEEvT_S4_ = comdat any

$_ZNSt12_Vector_baseI4EdgeSaIS0_EE13_M_deallocateEPS0_m = comdat any

$_ZNSt12_Vector_baseI4EdgeSaIS0_EE12_Vector_implD2Ev = comdat any

$_ZNSt16allocator_traitsISaI4EdgeEE10deallocateERS1_PS0_m = comdat any

$_ZN9__gnu_cxx13new_allocatorI4EdgeE10deallocateEPS1_m = comdat any

$_ZNSaI4EdgeED2Ev = comdat any

$_ZN9__gnu_cxx13new_allocatorI4EdgeED2Ev = comdat any

$_ZNSt12_Vector_baseISt6vectorI4EdgeSaIS1_EESaIS3_EE13_M_deallocateEPS3_m = comdat any

$_ZNSt16allocator_traitsISaISt6vectorI4EdgeSaIS1_EEEE10deallocateERS4_PS3_m = comdat any

$_ZN9__gnu_cxx13new_allocatorISt6vectorI4EdgeSaIS2_EEE10deallocateEPS4_m = comdat any

$_ZSt8_DestroyIPSt6vectorI4EdgeSaIS1_EES3_EvT_S5_RSaIT0_E = comdat any

$_ZNSt16allocator_traitsISaI4EdgeEE9constructIS0_JRKS0_EEEvRS1_PT_DpOT0_ = comdat any

$_ZNSt6vectorI4EdgeSaIS0_EE19_M_emplace_back_auxIJRKS0_EEEvDpOT_ = comdat any

$_ZN9__gnu_cxx13new_allocatorI4EdgeE9constructIS1_JRKS1_EEEvPT_DpOT0_ = comdat any

$_ZSt7forwardIRK4EdgeEOT_RNSt16remove_referenceIS3_E4typeE = comdat any

$_ZNKSt6vectorI4EdgeSaIS0_EE12_M_check_lenEmPKc = comdat any

$_ZNSt12_Vector_baseI4EdgeSaIS0_EE11_M_allocateEm = comdat any

$_ZNKSt6vectorI4EdgeSaIS0_EE4sizeEv = comdat any

$_ZSt34__uninitialized_move_if_noexcept_aIP4EdgeS1_SaIS0_EET0_T_S4_S3_RT1_ = comdat any

$_ZNSt16allocator_traitsISaI4EdgeEE7destroyIS0_EEvRS1_PT_ = comdat any

$_ZNKSt6vectorI4EdgeSaIS0_EE8max_sizeEv = comdat any

$_ZNSt16allocator_traitsISaI4EdgeEE8max_sizeERKS1_ = comdat any

$_ZNKSt12_Vector_baseI4EdgeSaIS0_EE19_M_get_Tp_allocatorEv = comdat any

$_ZNK9__gnu_cxx13new_allocatorI4EdgeE8max_sizeEv = comdat any

$_ZNSt16allocator_traitsISaI4EdgeEE8allocateERS1_m = comdat any

$_ZN9__gnu_cxx13new_allocatorI4EdgeE8allocateEmPKv = comdat any

$_ZSt22__uninitialized_copy_aISt13move_iteratorIP4EdgeES2_S1_ET0_T_S5_S4_RSaIT1_E = comdat any

$_ZSt32__make_move_if_noexcept_iteratorIP4EdgeSt13move_iteratorIS1_EET0_T_ = comdat any

$_ZSt18uninitialized_copyISt13move_iteratorIP4EdgeES2_ET0_T_S5_S4_ = comdat any

$_ZNSt20__uninitialized_copyILb1EE13__uninit_copyISt13move_iteratorIP4EdgeES4_EET0_T_S7_S6_ = comdat any

$_ZSt4copyISt13move_iteratorIP4EdgeES2_ET0_T_S5_S4_ = comdat any

$_ZSt14__copy_move_a2ILb1EP4EdgeS1_ET1_T0_S3_S2_ = comdat any

$_ZSt12__miter_baseISt13move_iteratorIP4EdgeEENSt11_Miter_baseIT_E13iterator_typeES5_ = comdat any

$_ZSt13__copy_move_aILb1EP4EdgeS1_ET1_T0_S3_S2_ = comdat any

$_ZSt12__niter_baseIP4EdgeENSt11_Niter_baseIT_E13iterator_typeES3_ = comdat any

$_ZNSt11__copy_moveILb1ELb1ESt26random_access_iterator_tagE8__copy_mI4EdgeEEPT_PKS4_S7_S5_ = comdat any

$_ZNSt10_Iter_baseIP4EdgeLb0EE7_S_baseES1_ = comdat any

$_ZNSt10_Iter_baseISt13move_iteratorIP4EdgeELb1EE7_S_baseES3_ = comdat any

$_ZNKSt13move_iteratorIP4EdgeE4baseEv = comdat any

$_ZNSt13move_iteratorIP4EdgeEC2ES1_ = comdat any

$_ZN9__gnu_cxx13new_allocatorI4EdgeE7destroyIS1_EEvPT_ = comdat any

@_ZStL8__ioinit = internal global %"class.std::ios_base::Init" zeroinitializer, align 1
@__dso_handle = external global i8
@_ZL2PI = internal global x86_fp80 0xK00000000000000000000, align 16
@_ZL3INF = internal constant i64 1152921504606846976, align 8
@_ZSt3cin = external global %"class.std::basic_istream", align 8
@_ZSt4cout = external global %"class.std::basic_ostream", align 8
@.str = private unnamed_addr constant [28 x i8] c"vector::_M_emplace_back_aux\00", align 1
@_ZStL19piecewise_construct = internal constant %"struct.std::piecewise_construct_t" undef, align 1
@.str.2 = private unnamed_addr constant [23 x i8] c"vector::_M_fill_insert\00", align 1
@llvm.global_ctors = appending global [1 x { i32, void ()*, i8* }] [{ i32, void ()*, i8* } { i32 65535, void ()* @_GLOBAL__sub_I_s301713658.cpp, i8* null }]
@x = common global i32 0
@y = common global i32 0
@x.3 = common global i32 0
@y.4 = common global i32 0
@x.5 = common global i32 0
@y.6 = common global i32 0
@x.7 = common global i32 0
@y.8 = common global i32 0
@x.9 = common global i32 0
@y.10 = common global i32 0
@x.11 = common global i32 0
@y.12 = common global i32 0
@x.13 = common global i32 0
@y.14 = common global i32 0
@x.15 = common global i32 0
@y.16 = common global i32 0
@x.17 = common global i32 0
@y.18 = common global i32 0
@x.19 = common global i32 0
@y.20 = common global i32 0
@x.21 = common global i32 0
@y.22 = common global i32 0
@x.23 = common global i32 0
@y.24 = common global i32 0
@x.25 = common global i32 0
@y.26 = common global i32 0
@x.27 = common global i32 0
@y.28 = common global i32 0
@x.29 = common global i32 0
@y.30 = common global i32 0
@x.31 = common global i32 0
@y.32 = common global i32 0
@x.33 = common global i32 0
@y.34 = common global i32 0
@x.35 = common global i32 0
@y.36 = common global i32 0
@x.37 = common global i32 0
@y.38 = common global i32 0
@x.39 = common global i32 0
@y.40 = common global i32 0
@x.41 = common global i32 0
@y.42 = common global i32 0
@x.43 = common global i32 0
@y.44 = common global i32 0
@x.45 = common global i32 0
@y.46 = common global i32 0
@x.47 = common global i32 0
@y.48 = common global i32 0
@x.49 = common global i32 0
@y.50 = common global i32 0
@x.51 = common global i32 0
@y.52 = common global i32 0
@x.53 = common global i32 0
@y.54 = common global i32 0
@x.55 = common global i32 0
@y.56 = common global i32 0
@x.57 = common global i32 0
@y.58 = common global i32 0
@x.59 = common global i32 0
@y.60 = common global i32 0
@x.61 = common global i32 0
@y.62 = common global i32 0
@x.63 = common global i32 0
@y.64 = common global i32 0
@x.65 = common global i32 0
@y.66 = common global i32 0
@x.67 = common global i32 0
@y.68 = common global i32 0
@x.69 = common global i32 0
@y.70 = common global i32 0
@x.71 = common global i32 0
@y.72 = common global i32 0
@x.73 = common global i32 0
@y.74 = common global i32 0
@x.75 = common global i32 0
@y.76 = common global i32 0
@x.77 = common global i32 0
@y.78 = common global i32 0
@x.79 = common global i32 0
@y.80 = common global i32 0
@x.81 = common global i32 0
@y.82 = common global i32 0
@x.83 = common global i32 0
@y.84 = common global i32 0
@x.85 = common global i32 0
@y.86 = common global i32 0
@x.87 = common global i32 0
@y.88 = common global i32 0
@x.89 = common global i32 0
@y.90 = common global i32 0
@x.91 = common global i32 0
@y.92 = common global i32 0
@x.93 = common global i32 0
@y.94 = common global i32 0
@x.95 = common global i32 0
@y.96 = common global i32 0
@x.97 = common global i32 0
@y.98 = common global i32 0
@x.99 = common global i32 0
@y.100 = common global i32 0
@x.101 = common global i32 0
@y.102 = common global i32 0
@x.103 = common global i32 0
@y.104 = common global i32 0
@x.105 = common global i32 0
@y.106 = common global i32 0
@x.107 = common global i32 0
@y.108 = common global i32 0
@x.109 = common global i32 0
@y.110 = common global i32 0
@x.111 = common global i32 0
@y.112 = common global i32 0
@x.113 = common global i32 0
@y.114 = common global i32 0
@x.115 = common global i32 0
@y.116 = common global i32 0
@x.117 = common global i32 0
@y.118 = common global i32 0
@x.119 = common global i32 0
@y.120 = common global i32 0
@x.121 = common global i32 0
@y.122 = common global i32 0
@x.123 = common global i32 0
@y.124 = common global i32 0
@x.125 = common global i32 0
@y.126 = common global i32 0
@x.127 = common global i32 0
@y.128 = common global i32 0
@x.129 = common global i32 0
@y.130 = common global i32 0
@x.131 = common global i32 0
@y.132 = common global i32 0
@x.133 = common global i32 0
@y.134 = common global i32 0
@x.135 = common global i32 0
@y.136 = common global i32 0
@x.137 = common global i32 0
@y.138 = common global i32 0
@x.139 = common global i32 0
@y.140 = common global i32 0
@x.141 = common global i32 0
@y.142 = common global i32 0
@x.143 = common global i32 0
@y.144 = common global i32 0
@x.145 = common global i32 0
@y.146 = common global i32 0
@x.147 = common global i32 0
@y.148 = common global i32 0
@x.149 = common global i32 0
@y.150 = common global i32 0
@x.151 = common global i32 0
@y.152 = common global i32 0
@x.153 = common global i32 0
@y.154 = common global i32 0
@x.155 = common global i32 0
@y.156 = common global i32 0
@x.157 = common global i32 0
@y.158 = common global i32 0
@x.159 = common global i32 0
@y.160 = common global i32 0
@x.161 = common global i32 0
@y.162 = common global i32 0
@x.163 = common global i32 0
@y.164 = common global i32 0
@x.165 = common global i32 0
@y.166 = common global i32 0
@x.167 = common global i32 0
@y.168 = common global i32 0
@x.169 = common global i32 0
@y.170 = common global i32 0
@x.171 = common global i32 0
@y.172 = common global i32 0
@x.173 = common global i32 0
@y.174 = common global i32 0
@x.175 = common global i32 0
@y.176 = common global i32 0
@x.177 = common global i32 0
@y.178 = common global i32 0
@x.179 = common global i32 0
@y.180 = common global i32 0
@x.181 = common global i32 0
@y.182 = common global i32 0
@x.183 = common global i32 0
@y.184 = common global i32 0
@x.185 = common global i32 0
@y.186 = common global i32 0
@x.187 = common global i32 0
@y.188 = common global i32 0
@x.189 = common global i32 0
@y.190 = common global i32 0
@x.191 = common global i32 0
@y.192 = common global i32 0
@x.193 = common global i32 0
@y.194 = common global i32 0
@x.195 = common global i32 0
@y.196 = common global i32 0
@x.197 = common global i32 0
@y.198 = common global i32 0
@x.199 = common global i32 0
@y.200 = common global i32 0
@x.201 = common global i32 0
@y.202 = common global i32 0
@x.203 = common global i32 0
@y.204 = common global i32 0
@x.205 = common global i32 0
@y.206 = common global i32 0
@x.207 = common global i32 0
@y.208 = common global i32 0
@x.209 = common global i32 0
@y.210 = common global i32 0
@x.211 = common global i32 0
@y.212 = common global i32 0
@x.213 = common global i32 0
@y.214 = common global i32 0
@x.215 = common global i32 0
@y.216 = common global i32 0
@x.217 = common global i32 0
@y.218 = common global i32 0
@x.219 = common global i32 0
@y.220 = common global i32 0
@x.221 = common global i32 0
@y.222 = common global i32 0
@x.223 = common global i32 0
@y.224 = common global i32 0
@x.225 = common global i32 0
@y.226 = common global i32 0
@x.227 = common global i32 0
@y.228 = common global i32 0
@x.229 = common global i32 0
@y.230 = common global i32 0
@x.231 = common global i32 0
@y.232 = common global i32 0
@x.233 = common global i32 0
@y.234 = common global i32 0
@x.235 = common global i32 0
@y.236 = common global i32 0
@x.237 = common global i32 0
@y.238 = common global i32 0
@x.239 = common global i32 0
@y.240 = common global i32 0
@x.241 = common global i32 0
@y.242 = common global i32 0
@x.243 = common global i32 0
@y.244 = common global i32 0
@x.245 = common global i32 0
@y.246 = common global i32 0
@x.247 = common global i32 0
@y.248 = common global i32 0
@x.249 = common global i32 0
@y.250 = common global i32 0
@x.251 = common global i32 0
@y.252 = common global i32 0
@x.253 = common global i32 0
@y.254 = common global i32 0
@x.255 = common global i32 0
@y.256 = common global i32 0
@x.257 = common global i32 0
@y.258 = common global i32 0
@x.259 = common global i32 0
@y.260 = common global i32 0
@x.261 = common global i32 0
@y.262 = common global i32 0
@x.263 = common global i32 0
@y.264 = common global i32 0
@x.265 = common global i32 0
@y.266 = common global i32 0
@x.267 = common global i32 0
@y.268 = common global i32 0
@x.269 = common global i32 0
@y.270 = common global i32 0
@x.271 = common global i32 0
@y.272 = common global i32 0
@x.273 = common global i32 0
@y.274 = common global i32 0
@x.275 = common global i32 0
@y.276 = common global i32 0
@x.277 = common global i32 0
@y.278 = common global i32 0
@x.279 = common global i32 0
@y.280 = common global i32 0
@x.281 = common global i32 0
@y.282 = common global i32 0
@x.283 = common global i32 0
@y.284 = common global i32 0
@x.285 = common global i32 0
@y.286 = common global i32 0
@x.287 = common global i32 0
@y.288 = common global i32 0
@x.289 = common global i32 0
@y.290 = common global i32 0
@x.291 = common global i32 0
@y.292 = common global i32 0
@x.293 = common global i32 0
@y.294 = common global i32 0
@x.295 = common global i32 0
@y.296 = common global i32 0
@x.297 = common global i32 0
@y.298 = common global i32 0
@x.299 = common global i32 0
@y.300 = common global i32 0
@x.301 = common global i32 0
@y.302 = common global i32 0
@x.303 = common global i32 0
@y.304 = common global i32 0
@x.305 = common global i32 0
@y.306 = common global i32 0
@x.307 = common global i32 0
@y.308 = common global i32 0
@x.309 = common global i32 0
@y.310 = common global i32 0
@x.311 = common global i32 0
@y.312 = common global i32 0
@x.313 = common global i32 0
@y.314 = common global i32 0
@x.315 = common global i32 0
@y.316 = common global i32 0
@x.317 = common global i32 0
@y.318 = common global i32 0
@x.319 = common global i32 0
@y.320 = common global i32 0
@x.321 = common global i32 0
@y.322 = common global i32 0
@x.323 = common global i32 0
@y.324 = common global i32 0
@x.325 = common global i32 0
@y.326 = common global i32 0
@x.327 = common global i32 0
@y.328 = common global i32 0
@x.329 = common global i32 0
@y.330 = common global i32 0
@x.331 = common global i32 0
@y.332 = common global i32 0
@x.333 = common global i32 0
@y.334 = common global i32 0
@x.335 = common global i32 0
@y.336 = common global i32 0
@x.337 = common global i32 0
@y.338 = common global i32 0
@x.339 = common global i32 0
@y.340 = common global i32 0
@x.341 = common global i32 0
@y.342 = common global i32 0
@x.343 = common global i32 0
@y.344 = common global i32 0
@x.345 = common global i32 0
@y.346 = common global i32 0
@x.347 = common global i32 0
@y.348 = common global i32 0
@x.349 = common global i32 0
@y.350 = common global i32 0
@x.351 = common global i32 0
@y.352 = common global i32 0
@x.353 = common global i32 0
@y.354 = common global i32 0
@x.355 = common global i32 0
@y.356 = common global i32 0
@x.357 = common global i32 0
@y.358 = common global i32 0
@x.359 = common global i32 0
@y.360 = common global i32 0
@x.361 = common global i32 0
@y.362 = common global i32 0
@x.363 = common global i32 0
@y.364 = common global i32 0
@x.365 = common global i32 0
@y.366 = common global i32 0
@x.367 = common global i32 0
@y.368 = common global i32 0
@x.369 = common global i32 0
@y.370 = common global i32 0
@x.371 = common global i32 0
@y.372 = common global i32 0
@x.373 = common global i32 0
@y.374 = common global i32 0
@x.375 = common global i32 0
@y.376 = common global i32 0
@x.377 = common global i32 0
@y.378 = common global i32 0
@x.379 = common global i32 0
@y.380 = common global i32 0
@x.381 = common global i32 0
@y.382 = common global i32 0
@x.383 = common global i32 0
@y.384 = common global i32 0
@x.385 = common global i32 0
@y.386 = common global i32 0
@x.387 = common global i32 0
@y.388 = common global i32 0
@x.389 = common global i32 0
@y.390 = common global i32 0
@x.391 = common global i32 0
@y.392 = common global i32 0
@x.393 = common global i32 0
@y.394 = common global i32 0
@x.395 = common global i32 0
@y.396 = common global i32 0
@x.397 = common global i32 0
@y.398 = common global i32 0
@x.399 = common global i32 0
@y.400 = common global i32 0
@x.401 = common global i32 0
@y.402 = common global i32 0
@x.403 = common global i32 0
@y.404 = common global i32 0
@x.405 = common global i32 0
@y.406 = common global i32 0
@x.407 = common global i32 0
@y.408 = common global i32 0
@x.409 = common global i32 0
@y.410 = common global i32 0
@x.411 = common global i32 0
@y.412 = common global i32 0
@x.413 = common global i32 0
@y.414 = common global i32 0
@x.415 = common global i32 0
@y.416 = common global i32 0
@x.417 = common global i32 0
@y.418 = common global i32 0
@x.419 = common global i32 0
@y.420 = common global i32 0
@x.421 = common global i32 0
@y.422 = common global i32 0
@x.423 = common global i32 0
@y.424 = common global i32 0
@x.425 = common global i32 0
@y.426 = common global i32 0
@x.427 = common global i32 0
@y.428 = common global i32 0
@x.429 = common global i32 0
@y.430 = common global i32 0
@x.431 = common global i32 0
@y.432 = common global i32 0
@x.433 = common global i32 0
@y.434 = common global i32 0
@x.435 = common global i32 0
@y.436 = common global i32 0
@x.437 = common global i32 0
@y.438 = common global i32 0
@x.439 = common global i32 0
@y.440 = common global i32 0
@x.441 = common global i32 0
@y.442 = common global i32 0
@x.443 = common global i32 0
@y.444 = common global i32 0
@x.445 = common global i32 0
@y.446 = common global i32 0
@x.447 = common global i32 0
@y.448 = common global i32 0
@x.449 = common global i32 0
@y.450 = common global i32 0
@x.451 = common global i32 0
@y.452 = common global i32 0
@x.453 = common global i32 0
@y.454 = common global i32 0
@x.455 = common global i32 0
@y.456 = common global i32 0
@x.457 = common global i32 0
@y.458 = common global i32 0
@x.459 = common global i32 0
@y.460 = common global i32 0
@x.461 = common global i32 0
@y.462 = common global i32 0
@x.463 = common global i32 0
@y.464 = common global i32 0
@x.465 = common global i32 0
@y.466 = common global i32 0
@x.467 = common global i32 0
@y.468 = common global i32 0
@x.469 = common global i32 0
@y.470 = common global i32 0
@x.471 = common global i32 0
@y.472 = common global i32 0
@x.473 = common global i32 0
@y.474 = common global i32 0
@x.475 = common global i32 0
@y.476 = common global i32 0
@x.477 = common global i32 0
@y.478 = common global i32 0
@x.479 = common global i32 0
@y.480 = common global i32 0
@x.481 = common global i32 0
@y.482 = common global i32 0
@x.483 = common global i32 0
@y.484 = common global i32 0
@x.485 = common global i32 0
@y.486 = common global i32 0
@x.487 = common global i32 0
@y.488 = common global i32 0
@x.489 = common global i32 0
@y.490 = common global i32 0
@x.491 = common global i32 0
@y.492 = common global i32 0
@x.493 = common global i32 0
@y.494 = common global i32 0
@x.495 = common global i32 0
@y.496 = common global i32 0
@x.497 = common global i32 0
@y.498 = common global i32 0
@x.499 = common global i32 0
@y.500 = common global i32 0
@x.501 = common global i32 0
@y.502 = common global i32 0
@x.503 = common global i32 0
@y.504 = common global i32 0
@x.505 = common global i32 0
@y.506 = common global i32 0
@x.507 = common global i32 0
@y.508 = common global i32 0
@x.509 = common global i32 0
@y.510 = common global i32 0
@x.511 = common global i32 0
@y.512 = common global i32 0
@x.513 = common global i32 0
@y.514 = common global i32 0
@x.515 = common global i32 0
@y.516 = common global i32 0
@x.517 = common global i32 0
@y.518 = common global i32 0
@x.519 = common global i32 0
@y.520 = common global i32 0
@x.521 = common global i32 0
@y.522 = common global i32 0
@x.523 = common global i32 0
@y.524 = common global i32 0
@x.525 = common global i32 0
@y.526 = common global i32 0
@x.527 = common global i32 0
@y.528 = common global i32 0
@x.529 = common global i32 0
@y.530 = common global i32 0
@x.531 = common global i32 0
@y.532 = common global i32 0
@x.533 = common global i32 0
@y.534 = common global i32 0
@x.535 = common global i32 0
@y.536 = common global i32 0
@x.537 = common global i32 0
@y.538 = common global i32 0
@x.539 = common global i32 0
@y.540 = common global i32 0
@x.541 = common global i32 0
@y.542 = common global i32 0
@x.543 = common global i32 0
@y.544 = common global i32 0
@x.545 = common global i32 0
@y.546 = common global i32 0
@x.547 = common global i32 0
@y.548 = common global i32 0
@x.549 = common global i32 0
@y.550 = common global i32 0
@x.551 = common global i32 0
@y.552 = common global i32 0
@x.553 = common global i32 0
@y.554 = common global i32 0
@x.555 = common global i32 0
@y.556 = common global i32 0
@x.557 = common global i32 0
@y.558 = common global i32 0
@x.559 = common global i32 0
@y.560 = common global i32 0
@x.561 = common global i32 0
@y.562 = common global i32 0
@x.563 = common global i32 0
@y.564 = common global i32 0
@x.565 = common global i32 0
@y.566 = common global i32 0
@x.567 = common global i32 0
@y.568 = common global i32 0
@x.569 = common global i32 0
@y.570 = common global i32 0
@x.571 = common global i32 0
@y.572 = common global i32 0
@x.573 = common global i32 0
@y.574 = common global i32 0
@x.575 = common global i32 0
@y.576 = common global i32 0
@x.577 = common global i32 0
@y.578 = common global i32 0
@x.579 = common global i32 0
@y.580 = common global i32 0
@x.581 = common global i32 0
@y.582 = common global i32 0
@x.583 = common global i32 0
@y.584 = common global i32 0
@x.585 = common global i32 0
@y.586 = common global i32 0
@x.587 = common global i32 0
@y.588 = common global i32 0
@x.589 = common global i32 0
@y.590 = common global i32 0
@x.591 = common global i32 0
@y.592 = common global i32 0
@x.593 = common global i32 0
@y.594 = common global i32 0
@x.595 = common global i32 0
@y.596 = common global i32 0
@x.597 = common global i32 0
@y.598 = common global i32 0
@x.599 = common global i32 0
@y.600 = common global i32 0
@x.601 = common global i32 0
@y.602 = common global i32 0
@x.603 = common global i32 0
@y.604 = common global i32 0
@x.605 = common global i32 0
@y.606 = common global i32 0
@x.607 = common global i32 0
@y.608 = common global i32 0
@x.609 = common global i32 0
@y.610 = common global i32 0
@x.611 = common global i32 0
@y.612 = common global i32 0
@x.613 = common global i32 0
@y.614 = common global i32 0
@x.615 = common global i32 0
@y.616 = common global i32 0
@x.617 = common global i32 0
@y.618 = common global i32 0
@x.619 = common global i32 0
@y.620 = common global i32 0
@x.621 = common global i32 0
@y.622 = common global i32 0
@x.623 = common global i32 0
@y.624 = common global i32 0
@x.625 = common global i32 0
@y.626 = common global i32 0
@x.627 = common global i32 0
@y.628 = common global i32 0
@x.629 = common global i32 0
@y.630 = common global i32 0
@x.631 = common global i32 0
@y.632 = common global i32 0
@x.633 = common global i32 0
@y.634 = common global i32 0
@x.635 = common global i32 0
@y.636 = common global i32 0
@x.637 = common global i32 0
@y.638 = common global i32 0
@x.639 = common global i32 0
@y.640 = common global i32 0
@x.641 = common global i32 0
@y.642 = common global i32 0
@x.643 = common global i32 0
@y.644 = common global i32 0
@x.645 = common global i32 0
@y.646 = common global i32 0
@x.647 = common global i32 0
@y.648 = common global i32 0
@x.649 = common global i32 0
@y.650 = common global i32 0
@x.651 = common global i32 0
@y.652 = common global i32 0
@x.653 = common global i32 0
@y.654 = common global i32 0
@x.655 = common global i32 0
@y.656 = common global i32 0
@x.657 = common global i32 0
@y.658 = common global i32 0
@x.659 = common global i32 0
@y.660 = common global i32 0
@x.661 = common global i32 0
@y.662 = common global i32 0
@x.663 = common global i32 0
@y.664 = common global i32 0
@x.665 = common global i32 0
@y.666 = common global i32 0
@x.667 = common global i32 0
@y.668 = common global i32 0
@x.669 = common global i32 0
@y.670 = common global i32 0
@x.671 = common global i32 0
@y.672 = common global i32 0
@x.673 = common global i32 0
@y.674 = common global i32 0
@x.675 = common global i32 0
@y.676 = common global i32 0
@x.677 = common global i32 0
@y.678 = common global i32 0
@x.679 = common global i32 0
@y.680 = common global i32 0
@x.681 = common global i32 0
@y.682 = common global i32 0
@x.683 = common global i32 0
@y.684 = common global i32 0
@x.685 = common global i32 0
@y.686 = common global i32 0
@x.687 = common global i32 0
@y.688 = common global i32 0
@x.689 = common global i32 0
@y.690 = common global i32 0
@x.691 = common global i32 0
@y.692 = common global i32 0
@x.693 = common global i32 0
@y.694 = common global i32 0
@x.695 = common global i32 0
@y.696 = common global i32 0
@x.697 = common global i32 0
@y.698 = common global i32 0
@x.699 = common global i32 0
@y.700 = common global i32 0
@x.701 = common global i32 0
@y.702 = common global i32 0
@x.703 = common global i32 0
@y.704 = common global i32 0
@x.705 = common global i32 0
@y.706 = common global i32 0
@x.707 = common global i32 0
@y.708 = common global i32 0
@x.709 = common global i32 0
@y.710 = common global i32 0
@x.711 = common global i32 0
@y.712 = common global i32 0
@x.713 = common global i32 0
@y.714 = common global i32 0
@x.715 = common global i32 0
@y.716 = common global i32 0
@x.717 = common global i32 0
@y.718 = common global i32 0
@x.719 = common global i32 0
@y.720 = common global i32 0
@x.721 = common global i32 0
@y.722 = common global i32 0
@x.723 = common global i32 0
@y.724 = common global i32 0
@x.725 = common global i32 0
@y.726 = common global i32 0
@x.727 = common global i32 0
@y.728 = common global i32 0
@x.729 = common global i32 0
@y.730 = common global i32 0
@x.731 = common global i32 0
@y.732 = common global i32 0
@x.733 = common global i32 0
@y.734 = common global i32 0
@x.735 = common global i32 0
@y.736 = common global i32 0
@x.737 = common global i32 0
@y.738 = common global i32 0
@x.739 = common global i32 0
@y.740 = common global i32 0
@x.741 = common global i32 0
@y.742 = common global i32 0
@x.743 = common global i32 0
@y.744 = common global i32 0
@x.745 = common global i32 0
@y.746 = common global i32 0
@x.747 = common global i32 0
@y.748 = common global i32 0
@x.749 = common global i32 0
@y.750 = common global i32 0
@x.751 = common global i32 0
@y.752 = common global i32 0
@x.753 = common global i32 0
@y.754 = common global i32 0
@x.755 = common global i32 0
@y.756 = common global i32 0
@x.757 = common global i32 0
@y.758 = common global i32 0
@x.759 = common global i32 0
@y.760 = common global i32 0
@x.761 = common global i32 0
@y.762 = common global i32 0
@x.763 = common global i32 0
@y.764 = common global i32 0
@x.765 = common global i32 0
@y.766 = common global i32 0
@x.767 = common global i32 0
@y.768 = common global i32 0
@x.769 = common global i32 0
@y.770 = common global i32 0
@x.771 = common global i32 0
@y.772 = common global i32 0
@x.773 = common global i32 0
@y.774 = common global i32 0
@x.775 = common global i32 0
@y.776 = common global i32 0
@x.777 = common global i32 0
@y.778 = common global i32 0
@x.779 = common global i32 0
@y.780 = common global i32 0
@x.781 = common global i32 0
@y.782 = common global i32 0
@x.783 = common global i32 0
@y.784 = common global i32 0
@x.785 = common global i32 0
@y.786 = common global i32 0
@x.787 = common global i32 0
@y.788 = common global i32 0
@x.789 = common global i32 0
@y.790 = common global i32 0
@x.791 = common global i32 0
@y.792 = common global i32 0
@x.793 = common global i32 0
@y.794 = common global i32 0
@x.795 = common global i32 0
@y.796 = common global i32 0
@x.797 = common global i32 0
@y.798 = common global i32 0
@x.799 = common global i32 0
@y.800 = common global i32 0
@x.801 = common global i32 0
@y.802 = common global i32 0
@x.803 = common global i32 0
@y.804 = common global i32 0
@x.805 = common global i32 0
@y.806 = common global i32 0
@x.807 = common global i32 0
@y.808 = common global i32 0
@x.809 = common global i32 0
@y.810 = common global i32 0
@x.811 = common global i32 0
@y.812 = common global i32 0
@x.813 = common global i32 0
@y.814 = common global i32 0
@x.815 = common global i32 0
@y.816 = common global i32 0
@x.817 = common global i32 0
@y.818 = common global i32 0
@x.819 = common global i32 0
@y.820 = common global i32 0
@x.821 = common global i32 0
@y.822 = common global i32 0
@x.823 = common global i32 0
@y.824 = common global i32 0
@x.825 = common global i32 0
@y.826 = common global i32 0
@x.827 = common global i32 0
@y.828 = common global i32 0
@x.829 = common global i32 0
@y.830 = common global i32 0
@x.831 = common global i32 0
@y.832 = common global i32 0
@x.833 = common global i32 0
@y.834 = common global i32 0
@x.835 = common global i32 0
@y.836 = common global i32 0
@x.837 = common global i32 0
@y.838 = common global i32 0
@x.839 = common global i32 0
@y.840 = common global i32 0
@x.841 = common global i32 0
@y.842 = common global i32 0
@x.843 = common global i32 0
@y.844 = common global i32 0
@x.845 = common global i32 0
@y.846 = common global i32 0
@x.847 = common global i32 0
@y.848 = common global i32 0
@x.849 = common global i32 0
@y.850 = common global i32 0
@x.851 = common global i32 0
@y.852 = common global i32 0
@x.853 = common global i32 0
@y.854 = common global i32 0
@x.855 = common global i32 0
@y.856 = common global i32 0
@x.857 = common global i32 0
@y.858 = common global i32 0
@x.859 = common global i32 0
@y.860 = common global i32 0
@x.861 = common global i32 0
@y.862 = common global i32 0
@x.863 = common global i32 0
@y.864 = common global i32 0
@x.865 = common global i32 0
@y.866 = common global i32 0
@x.867 = common global i32 0
@y.868 = common global i32 0
@x.869 = common global i32 0
@y.870 = common global i32 0
@x.871 = common global i32 0
@y.872 = common global i32 0
@x.873 = common global i32 0
@y.874 = common global i32 0
@x.875 = common global i32 0
@y.876 = common global i32 0
@x.877 = common global i32 0
@y.878 = common global i32 0
@x.879 = common global i32 0
@y.880 = common global i32 0
@x.881 = common global i32 0
@y.882 = common global i32 0
@x.883 = common global i32 0
@y.884 = common global i32 0
@x.885 = common global i32 0
@y.886 = common global i32 0
@x.887 = common global i32 0
@y.888 = common global i32 0
@x.889 = common global i32 0
@y.890 = common global i32 0
@x.891 = common global i32 0
@y.892 = common global i32 0
@x.893 = common global i32 0
@y.894 = common global i32 0
@x.895 = common global i32 0
@y.896 = common global i32 0
@x.897 = common global i32 0
@y.898 = common global i32 0
@x.899 = common global i32 0
@y.900 = common global i32 0
@x.901 = common global i32 0
@y.902 = common global i32 0
@x.903 = common global i32 0
@y.904 = common global i32 0
@x.905 = common global i32 0
@y.906 = common global i32 0
@x.907 = common global i32 0
@y.908 = common global i32 0
@x.909 = common global i32 0
@y.910 = common global i32 0
@x.911 = common global i32 0
@y.912 = common global i32 0
@x.913 = common global i32 0
@y.914 = common global i32 0
@x.915 = common global i32 0
@y.916 = common global i32 0
@x.917 = common global i32 0
@y.918 = common global i32 0
@x.919 = common global i32 0
@y.920 = common global i32 0
@x.921 = common global i32 0
@y.922 = common global i32 0
@x.923 = common global i32 0
@y.924 = common global i32 0
@x.925 = common global i32 0
@y.926 = common global i32 0
@x.927 = common global i32 0
@y.928 = common global i32 0
@x.929 = common global i32 0
@y.930 = common global i32 0
@x.931 = common global i32 0
@y.932 = common global i32 0
@x.933 = common global i32 0
@y.934 = common global i32 0
@x.935 = common global i32 0
@y.936 = common global i32 0
@x.937 = common global i32 0
@y.938 = common global i32 0
@x.939 = common global i32 0
@y.940 = common global i32 0
@x.941 = common global i32 0
@y.942 = common global i32 0
@x.943 = common global i32 0
@y.944 = common global i32 0
@x.945 = common global i32 0
@y.946 = common global i32 0
@x.947 = common global i32 0
@y.948 = common global i32 0
@x.949 = common global i32 0
@y.950 = common global i32 0
@x.951 = common global i32 0
@y.952 = common global i32 0
@x.953 = common global i32 0
@y.954 = common global i32 0
@x.955 = common global i32 0
@y.956 = common global i32 0
@x.957 = common global i32 0
@y.958 = common global i32 0
@x.959 = common global i32 0
@y.960 = common global i32 0
@x.961 = common global i32 0
@y.962 = common global i32 0
@x.963 = common global i32 0
@y.964 = common global i32 0
@x.965 = common global i32 0
@y.966 = common global i32 0
@x.967 = common global i32 0
@y.968 = common global i32 0
@x.969 = common global i32 0
@y.970 = common global i32 0
@x.971 = common global i32 0
@y.972 = common global i32 0
@x.973 = common global i32 0
@y.974 = common global i32 0
@x.975 = common global i32 0
@y.976 = common global i32 0
@x.977 = common global i32 0
@y.978 = common global i32 0
@x.979 = common global i32 0
@y.980 = common global i32 0
@x.981 = common global i32 0
@y.982 = common global i32 0
@x.983 = common global i32 0
@y.984 = common global i32 0
@x.985 = common global i32 0
@y.986 = common global i32 0
@x.987 = common global i32 0
@y.988 = common global i32 0
@x.989 = common global i32 0
@y.990 = common global i32 0
@x.991 = common global i32 0
@y.992 = common global i32 0
@x.993 = common global i32 0
@y.994 = common global i32 0
@x.995 = common global i32 0
@y.996 = common global i32 0
@x.997 = common global i32 0
@y.998 = common global i32 0
@x.999 = common global i32 0
@y.1000 = common global i32 0
@x.1001 = common global i32 0
@y.1002 = common global i32 0
@x.1003 = common global i32 0
@y.1004 = common global i32 0
@x.1005 = common global i32 0
@y.1006 = common global i32 0
@x.1007 = common global i32 0
@y.1008 = common global i32 0
@x.1009 = common global i32 0
@y.1010 = common global i32 0
@x.1011 = common global i32 0
@y.1012 = common global i32 0
@x.1013 = common global i32 0
@y.1014 = common global i32 0
@x.1015 = common global i32 0
@y.1016 = common global i32 0
@x.1017 = common global i32 0
@y.1018 = common global i32 0
@x.1019 = common global i32 0
@y.1020 = common global i32 0
@x.1021 = common global i32 0
@y.1022 = common global i32 0
@x.1023 = common global i32 0
@y.1024 = common global i32 0
@x.1025 = common global i32 0
@y.1026 = common global i32 0
@x.1027 = common global i32 0
@y.1028 = common global i32 0
@x.1029 = common global i32 0
@y.1030 = common global i32 0
@x.1031 = common global i32 0
@y.1032 = common global i32 0
@x.1033 = common global i32 0
@y.1034 = common global i32 0
@x.1035 = common global i32 0
@y.1036 = common global i32 0
@x.1037 = common global i32 0
@y.1038 = common global i32 0
@x.1039 = common global i32 0
@y.1040 = common global i32 0
@x.1041 = common global i32 0
@y.1042 = common global i32 0
@x.1043 = common global i32 0
@y.1044 = common global i32 0
@x.1045 = common global i32 0
@y.1046 = common global i32 0
@x.1047 = common global i32 0
@y.1048 = common global i32 0
@x.1049 = common global i32 0
@y.1050 = common global i32 0
@x.1051 = common global i32 0
@y.1052 = common global i32 0
@x.1053 = common global i32 0
@y.1054 = common global i32 0
@x.1055 = common global i32 0
@y.1056 = common global i32 0
@x.1057 = common global i32 0
@y.1058 = common global i32 0
@x.1059 = common global i32 0
@y.1060 = common global i32 0
@x.1061 = common global i32 0
@y.1062 = common global i32 0
@x.1063 = common global i32 0
@y.1064 = common global i32 0
@x.1065 = common global i32 0
@y.1066 = common global i32 0
@x.1067 = common global i32 0
@y.1068 = common global i32 0
@x.1069 = common global i32 0
@y.1070 = common global i32 0
@x.1071 = common global i32 0
@y.1072 = common global i32 0
@x.1073 = common global i32 0
@y.1074 = common global i32 0
@x.1075 = common global i32 0
@y.1076 = common global i32 0
@x.1077 = common global i32 0
@y.1078 = common global i32 0
@x.1079 = common global i32 0
@y.1080 = common global i32 0
@x.1081 = common global i32 0
@y.1082 = common global i32 0
@x.1083 = common global i32 0
@y.1084 = common global i32 0
@x.1085 = common global i32 0
@y.1086 = common global i32 0
@x.1087 = common global i32 0
@y.1088 = common global i32 0
@x.1089 = common global i32 0
@y.1090 = common global i32 0
@x.1091 = common global i32 0
@y.1092 = common global i32 0
@x.1093 = common global i32 0
@y.1094 = common global i32 0
@x.1095 = common global i32 0
@y.1096 = common global i32 0
@x.1097 = common global i32 0
@y.1098 = common global i32 0
@x.1099 = common global i32 0
@y.1100 = common global i32 0
@x.1101 = common global i32 0
@y.1102 = common global i32 0
@x.1103 = common global i32 0
@y.1104 = common global i32 0
@x.1105 = common global i32 0
@y.1106 = common global i32 0
@x.1107 = common global i32 0
@y.1108 = common global i32 0
@x.1109 = common global i32 0
@y.1110 = common global i32 0
@x.1111 = common global i32 0
@y.1112 = common global i32 0
@x.1113 = common global i32 0
@y.1114 = common global i32 0
@x.1115 = common global i32 0
@y.1116 = common global i32 0
@x.1117 = common global i32 0
@y.1118 = common global i32 0
@x.1119 = common global i32 0
@y.1120 = common global i32 0
@x.1121 = common global i32 0
@y.1122 = common global i32 0
@x.1123 = common global i32 0
@y.1124 = common global i32 0
@x.1125 = common global i32 0
@y.1126 = common global i32 0
@x.1127 = common global i32 0
@y.1128 = common global i32 0
@x.1129 = common global i32 0
@y.1130 = common global i32 0
@x.1131 = common global i32 0
@y.1132 = common global i32 0
@x.1133 = common global i32 0
@y.1134 = common global i32 0
@x.1135 = common global i32 0
@y.1136 = common global i32 0
@x.1137 = common global i32 0
@y.1138 = common global i32 0
@x.1139 = common global i32 0
@y.1140 = common global i32 0
@x.1141 = common global i32 0
@y.1142 = common global i32 0
@x.1143 = common global i32 0
@y.1144 = common global i32 0
@x.1145 = common global i32 0
@y.1146 = common global i32 0
@x.1147 = common global i32 0
@y.1148 = common global i32 0
@x.1149 = common global i32 0
@y.1150 = common global i32 0
@x.1151 = common global i32 0
@y.1152 = common global i32 0
@x.1153 = common global i32 0
@y.1154 = common global i32 0
@x.1155 = common global i32 0
@y.1156 = common global i32 0
@x.1157 = common global i32 0
@y.1158 = common global i32 0
@x.1159 = common global i32 0
@y.1160 = common global i32 0
@x.1161 = common global i32 0
@y.1162 = common global i32 0
@x.1163 = common global i32 0
@y.1164 = common global i32 0
@x.1165 = common global i32 0
@y.1166 = common global i32 0
@x.1167 = common global i32 0
@y.1168 = common global i32 0
@x.1169 = common global i32 0
@y.1170 = common global i32 0
@x.1171 = common global i32 0
@y.1172 = common global i32 0
@x.1173 = common global i32 0
@y.1174 = common global i32 0
@x.1175 = common global i32 0
@y.1176 = common global i32 0
@x.1177 = common global i32 0
@y.1178 = common global i32 0
@x.1179 = common global i32 0
@y.1180 = common global i32 0
@x.1181 = common global i32 0
@y.1182 = common global i32 0
@x.1183 = common global i32 0
@y.1184 = common global i32 0
@x.1185 = common global i32 0
@y.1186 = common global i32 0
@x.1187 = common global i32 0
@y.1188 = common global i32 0
@x.1189 = common global i32 0
@y.1190 = common global i32 0
@x.1191 = common global i32 0
@y.1192 = common global i32 0
@x.1193 = common global i32 0
@y.1194 = common global i32 0
@x.1195 = common global i32 0
@y.1196 = common global i32 0
@x.1197 = common global i32 0
@y.1198 = common global i32 0
@x.1199 = common global i32 0
@y.1200 = common global i32 0
@x.1201 = common global i32 0
@y.1202 = common global i32 0
@x.1203 = common global i32 0
@y.1204 = common global i32 0
@x.1205 = common global i32 0
@y.1206 = common global i32 0
@x.1207 = common global i32 0
@y.1208 = common global i32 0
@x.1209 = common global i32 0
@y.1210 = common global i32 0
@x.1211 = common global i32 0
@y.1212 = common global i32 0
@x.1213 = common global i32 0
@y.1214 = common global i32 0
@x.1215 = common global i32 0
@y.1216 = common global i32 0
@x.1217 = common global i32 0
@y.1218 = common global i32 0
@x.1219 = common global i32 0
@y.1220 = common global i32 0
@x.1221 = common global i32 0
@y.1222 = common global i32 0
@x.1223 = common global i32 0
@y.1224 = common global i32 0
@x.1225 = common global i32 0
@y.1226 = common global i32 0
@x.1227 = common global i32 0
@y.1228 = common global i32 0
@x.1229 = common global i32 0
@y.1230 = common global i32 0
@x.1231 = common global i32 0
@y.1232 = common global i32 0
@x.1233 = common global i32 0
@y.1234 = common global i32 0
@x.1235 = common global i32 0
@y.1236 = common global i32 0
@x.1237 = common global i32 0
@y.1238 = common global i32 0
@x.1239 = common global i32 0
@y.1240 = common global i32 0
@x.1241 = common global i32 0
@y.1242 = common global i32 0
@x.1243 = common global i32 0
@y.1244 = common global i32 0
@x.1245 = common global i32 0
@y.1246 = common global i32 0
@x.1247 = common global i32 0
@y.1248 = common global i32 0
@x.1249 = common global i32 0
@y.1250 = common global i32 0
@x.1251 = common global i32 0
@y.1252 = common global i32 0
@x.1253 = common global i32 0
@y.1254 = common global i32 0
@x.1255 = common global i32 0
@y.1256 = common global i32 0
@x.1257 = common global i32 0
@y.1258 = common global i32 0
@x.1259 = common global i32 0
@y.1260 = common global i32 0
@x.1261 = common global i32 0
@y.1262 = common global i32 0
@x.1263 = common global i32 0
@y.1264 = common global i32 0
@x.1265 = common global i32 0
@y.1266 = common global i32 0
@x.1267 = common global i32 0
@y.1268 = common global i32 0
@x.1269 = common global i32 0
@y.1270 = common global i32 0
@x.1271 = common global i32 0
@y.1272 = common global i32 0
@x.1273 = common global i32 0
@y.1274 = common global i32 0
@x.1275 = common global i32 0
@y.1276 = common global i32 0
@x.1277 = common global i32 0
@y.1278 = common global i32 0
@x.1279 = common global i32 0
@y.1280 = common global i32 0
@x.1281 = common global i32 0
@y.1282 = common global i32 0
@x.1283 = common global i32 0
@y.1284 = common global i32 0
@x.1285 = common global i32 0
@y.1286 = common global i32 0
@x.1287 = common global i32 0
@y.1288 = common global i32 0
@x.1289 = common global i32 0
@y.1290 = common global i32 0
@x.1291 = common global i32 0
@y.1292 = common global i32 0
@x.1293 = common global i32 0
@y.1294 = common global i32 0
@x.1295 = common global i32 0
@y.1296 = common global i32 0
@x.1297 = common global i32 0
@y.1298 = common global i32 0
@x.1299 = common global i32 0
@y.1300 = common global i32 0
@x.1301 = common global i32 0
@y.1302 = common global i32 0
@x.1303 = common global i32 0
@y.1304 = common global i32 0
@x.1305 = common global i32 0
@y.1306 = common global i32 0
@x.1307 = common global i32 0
@y.1308 = common global i32 0
@x.1309 = common global i32 0
@y.1310 = common global i32 0
@x.1311 = common global i32 0
@y.1312 = common global i32 0
@x.1313 = common global i32 0
@y.1314 = common global i32 0
@x.1315 = common global i32 0
@y.1316 = common global i32 0
@x.1317 = common global i32 0
@y.1318 = common global i32 0
@x.1319 = common global i32 0
@y.1320 = common global i32 0
@x.1321 = common global i32 0
@y.1322 = common global i32 0
@x.1323 = common global i32 0
@y.1324 = common global i32 0
@x.1325 = common global i32 0
@y.1326 = common global i32 0
@x.1327 = common global i32 0
@y.1328 = common global i32 0
@x.1329 = common global i32 0
@y.1330 = common global i32 0
@x.1331 = common global i32 0
@y.1332 = common global i32 0
@x.1333 = common global i32 0
@y.1334 = common global i32 0
@x.1335 = common global i32 0
@y.1336 = common global i32 0
@x.1337 = common global i32 0
@y.1338 = common global i32 0
@x.1339 = common global i32 0
@y.1340 = common global i32 0
@x.1341 = common global i32 0
@y.1342 = common global i32 0
@x.1343 = common global i32 0
@y.1344 = common global i32 0
@x.1345 = common global i32 0
@y.1346 = common global i32 0
@x.1347 = common global i32 0
@y.1348 = common global i32 0
@x.1349 = common global i32 0
@y.1350 = common global i32 0

; Function Attrs: noinline uwtable
define internal void @__cxx_global_var_init() #0 section ".text.startup" {
  call void @_ZNSt8ios_base4InitC1Ev(%"class.std::ios_base::Init"* @_ZStL8__ioinit)
  %1 = call i32 @__cxa_atexit(void (i8*)* bitcast (void (%"class.std::ios_base::Init"*)* @_ZNSt8ios_base4InitD1Ev to void (i8*)*), i8* getelementptr inbounds (%"class.std::ios_base::Init", %"class.std::ios_base::Init"* @_ZStL8__ioinit, i32 0, i32 0), i8* @__dso_handle) #3
  ret void
}

declare void @_ZNSt8ios_base4InitC1Ev(%"class.std::ios_base::Init"*) unnamed_addr #1

; Function Attrs: nounwind
declare void @_ZNSt8ios_base4InitD1Ev(%"class.std::ios_base::Init"*) unnamed_addr #2

; Function Attrs: nounwind
declare i32 @__cxa_atexit(void (i8*)*, i8*, i8*) #3

; Function Attrs: noinline uwtable
define internal void @__cxx_global_var_init.1() #0 section ".text.startup" {
  %1 = call double @_ZSt4acosIiEN9__gnu_cxx11__enable_ifIXsr12__is_integerIT_EE7__valueEdE6__typeES2_(i32 -1)
  %2 = fpext double %1 to x86_fp80
  store x86_fp80 %2, x86_fp80* @_ZL2PI, align 16
  ret void
}

; Function Attrs: noinline nounwind uwtable
define linkonce_odr double @_ZSt4acosIiEN9__gnu_cxx11__enable_ifIXsr12__is_integerIT_EE7__valueEdE6__typeES2_(i32) #4 comdat {
  %2 = alloca double
  %3 = alloca i1
  %4 = alloca i1
  %5 = load i32, i32* @x.5
  %6 = load i32, i32* @y.6
  %7 = sub i32 0, 1
  %8 = add i32 %5, %7
  %9 = sub i32 %5, 1
  %10 = mul i32 %5, %8
  %11 = urem i32 %10, 2
  %12 = icmp eq i32 %11, 0
  store i1 %12, i1* %4
  %13 = icmp slt i32 %6, 10
  store i1 %13, i1* %3
  %14 = alloca i32
  store i32 -734331614, i32* %14
  br label %15

; <label>:15:                                     ; preds = %1, %65
  %16 = load i32, i32* %14
  switch i32 %16, label %17 [
    i32 -734331614, label %18
    i32 -745161498, label %38
    i32 399071382, label %58
    i32 -1334568450, label %60
  ]

; <label>:17:                                     ; preds = %15
  br label %65

; <label>:18:                                     ; preds = %15
  %19 = load volatile i1, i1* %4
  %20 = load volatile i1, i1* %3
  %21 = xor i1 %19, true
  %22 = xor i1 %20, true
  %23 = xor i1 false, true
  %24 = and i1 %21, false
  %25 = and i1 %19, %23
  %26 = and i1 %22, false
  %27 = and i1 %20, %23
  %28 = or i1 %24, %25
  %29 = or i1 %26, %27
  %30 = xor i1 %28, %29
  %31 = or i1 %21, %22
  %32 = xor i1 %31, true
  %33 = or i1 false, %23
  %34 = and i1 %32, %33
  %35 = or i1 %30, %34
  %36 = or i1 %19, %20
  %37 = select i1 %35, i32 -745161498, i32 -1334568450
  store i32 %37, i32* %14
  br label %65

; <label>:38:                                     ; preds = %15
  %39 = alloca i32, align 4
  store i32 %0, i32* %39, align 4
  %40 = load i32, i32* %39, align 4
  %41 = sitofp i32 %40 to double
  %42 = call double @acos(double %41) #14
  store double %42, double* %2
  %43 = load i32, i32* @x.5
  %44 = load i32, i32* @y.6
  %45 = add i32 %43, 1308302975
  %46 = sub i32 %45, 1
  %47 = sub i32 %46, 1308302975
  %48 = sub i32 %43, 1
  %49 = mul i32 %43, %47
  %50 = urem i32 %49, 2
  %51 = icmp eq i32 %50, 0
  %52 = icmp slt i32 %44, 10
  %53 = and i1 %51, %52
  %54 = xor i1 %51, %52
  %55 = or i1 %53, %54
  %56 = or i1 %51, %52
  %57 = select i1 %55, i32 399071382, i32 -1334568450
  store i32 %57, i32* %14
  br label %65

; <label>:58:                                     ; preds = %15
  %59 = load volatile double, double* %2
  ret double %59

; <label>:60:                                     ; preds = %15
  %61 = alloca i32, align 4
  store i32 %0, i32* %61, align 4
  %62 = load i32, i32* %61, align 4
  %63 = sitofp i32 %62 to double
  %64 = call double @acos(double %63) #14
  store i32 -745161498, i32* %14
  br label %65

; <label>:65:                                     ; preds = %60, %38, %18, %17
  br label %15
}

; Function Attrs: noinline nounwind uwtable
define zeroext i1 @_Z8is_primex(i64) #4 {
  %2 = alloca i1, align 1
  %3 = alloca i64, align 8
  %4 = alloca i64, align 8
  store i64 %0, i64* %3, align 8
  store i64 2, i64* %4, align 8
  %5 = alloca i32
  store i32 956499349, i32* %5
  br label %6

; <label>:6:                                      ; preds = %1, %134
  %7 = load i32, i32* %5
  switch i32 %7, label %8 [
    i32 956499349, label %9
    i32 2018739115, label %16
    i32 -1717317229, label %22
    i32 -1600798470, label %23
    i32 1898260129, label %50
    i32 -2015626865, label %78
    i32 1126127675, label %79
    i32 -1110745446, label %85
    i32 -1704262921, label %113
    i32 -1719208524, label %129
    i32 -1638470679, label %130
    i32 1935168339, label %132
    i32 -1871031418, label %133
  ]

; <label>:8:                                      ; preds = %6
  br label %134

; <label>:9:                                      ; preds = %6
  %10 = load i64, i64* %4, align 8
  %11 = load i64, i64* %4, align 8
  %12 = mul nsw i64 %10, %11
  %13 = load i64, i64* %3, align 8
  %14 = icmp sle i64 %12, %13
  %15 = select i1 %14, i32 2018739115, i32 -1110745446
  store i32 %15, i32* %5
  br label %134

; <label>:16:                                     ; preds = %6
  %17 = load i64, i64* %3, align 8
  %18 = load i64, i64* %4, align 8
  %19 = srem i64 %17, %18
  %20 = icmp eq i64 %19, 0
  %21 = select i1 %20, i32 -1717317229, i32 -1600798470
  store i32 %21, i32* %5
  br label %134

; <label>:22:                                     ; preds = %6
  store i1 false, i1* %2, align 1
  store i32 -1638470679, i32* %5
  br label %134

; <label>:23:                                     ; preds = %6
  %24 = load i32, i32* @x.7
  %25 = load i32, i32* @y.8
  %26 = sub i32 0, 1
  %27 = add i32 %24, %26
  %28 = sub i32 %24, 1
  %29 = mul i32 %24, %27
  %30 = urem i32 %29, 2
  %31 = icmp eq i32 %30, 0
  %32 = icmp slt i32 %25, 10
  %33 = xor i1 %31, true
  %34 = xor i1 %32, true
  %35 = xor i1 false, true
  %36 = and i1 %33, false
  %37 = and i1 %31, %35
  %38 = and i1 %34, false
  %39 = and i1 %32, %35
  %40 = or i1 %36, %37
  %41 = or i1 %38, %39
  %42 = xor i1 %40, %41
  %43 = or i1 %33, %34
  %44 = xor i1 %43, true
  %45 = or i1 false, %35
  %46 = and i1 %44, %45
  %47 = or i1 %42, %46
  %48 = or i1 %31, %32
  %49 = select i1 %47, i32 1898260129, i32 1935168339
  store i32 %49, i32* %5
  br label %134

; <label>:50:                                     ; preds = %6
  %51 = load i32, i32* @x.7
  %52 = load i32, i32* @y.8
  %53 = sub i32 %51, 88954793
  %54 = sub i32 %53, 1
  %55 = add i32 %54, 88954793
  %56 = sub i32 %51, 1
  %57 = mul i32 %51, %55
  %58 = urem i32 %57, 2
  %59 = icmp eq i32 %58, 0
  %60 = icmp slt i32 %52, 10
  %61 = xor i1 %59, true
  %62 = xor i1 %60, true
  %63 = xor i1 true, true
  %64 = and i1 %61, true
  %65 = and i1 %59, %63
  %66 = and i1 %62, true
  %67 = and i1 %60, %63
  %68 = or i1 %64, %65
  %69 = or i1 %66, %67
  %70 = xor i1 %68, %69
  %71 = or i1 %61, %62
  %72 = xor i1 %71, true
  %73 = or i1 true, %63
  %74 = and i1 %72, %73
  %75 = or i1 %70, %74
  %76 = or i1 %59, %60
  %77 = select i1 %75, i32 -2015626865, i32 1935168339
  store i32 %77, i32* %5
  br label %134

; <label>:78:                                     ; preds = %6
  store i32 1126127675, i32* %5
  br label %134

; <label>:79:                                     ; preds = %6
  %80 = load i64, i64* %4, align 8
  %81 = sub i64 %80, -7303509542409114216
  %82 = add i64 %81, 1
  %83 = add i64 %82, -7303509542409114216
  %84 = add nsw i64 %80, 1
  store i64 %83, i64* %4, align 8
  store i32 956499349, i32* %5
  br label %134

; <label>:85:                                     ; preds = %6
  %86 = load i32, i32* @x.7
  %87 = load i32, i32* @y.8
  %88 = sub i32 %86, 106579370
  %89 = sub i32 %88, 1
  %90 = add i32 %89, 106579370
  %91 = sub i32 %86, 1
  %92 = mul i32 %86, %90
  %93 = urem i32 %92, 2
  %94 = icmp eq i32 %93, 0
  %95 = icmp slt i32 %87, 10
  %96 = xor i1 %94, true
  %97 = xor i1 %95, true
  %98 = xor i1 false, true
  %99 = and i1 %96, false
  %100 = and i1 %94, %98
  %101 = and i1 %97, false
  %102 = and i1 %95, %98
  %103 = or i1 %99, %100
  %104 = or i1 %101, %102
  %105 = xor i1 %103, %104
  %106 = or i1 %96, %97
  %107 = xor i1 %106, true
  %108 = or i1 false, %98
  %109 = and i1 %107, %108
  %110 = or i1 %105, %109
  %111 = or i1 %94, %95
  %112 = select i1 %110, i32 -1704262921, i32 -1871031418
  store i32 %112, i32* %5
  br label %134

; <label>:113:                                    ; preds = %6
  store i1 true, i1* %2, align 1
  %114 = load i32, i32* @x.7
  %115 = load i32, i32* @y.8
  %116 = sub i32 %114, 679240771
  %117 = sub i32 %116, 1
  %118 = add i32 %117, 679240771
  %119 = sub i32 %114, 1
  %120 = mul i32 %114, %118
  %121 = urem i32 %120, 2
  %122 = icmp eq i32 %121, 0
  %123 = icmp slt i32 %115, 10
  %124 = and i1 %122, %123
  %125 = xor i1 %122, %123
  %126 = or i1 %124, %125
  %127 = or i1 %122, %123
  %128 = select i1 %126, i32 -1719208524, i32 -1871031418
  store i32 %128, i32* %5
  br label %134

; <label>:129:                                    ; preds = %6
  store i32 -1638470679, i32* %5
  br label %134

; <label>:130:                                    ; preds = %6
  %131 = load i1, i1* %2, align 1
  ret i1 %131

; <label>:132:                                    ; preds = %6
  store i32 1898260129, i32* %5
  br label %134

; <label>:133:                                    ; preds = %6
  store i1 true, i1* %2, align 1
  store i32 -1704262921, i32* %5
  br label %134

; <label>:134:                                    ; preds = %133, %132, %129, %113, %85, %79, %78, %50, %23, %22, %16, %9, %8
  br label %6
}

; Function Attrs: noinline nounwind uwtable
define i64 @_Z6modpowxxx(i64, i64, i64) #4 {
  %4 = alloca i1
  %5 = alloca i64*
  %6 = alloca i64*
  %7 = alloca i64*
  %8 = alloca i64*
  %9 = alloca i1
  %10 = alloca i1
  %11 = load i32, i32* @x.9
  %12 = load i32, i32* @y.10
  %13 = sub i32 %11, -290931242
  %14 = sub i32 %13, 1
  %15 = add i32 %14, -290931242
  %16 = sub i32 %11, 1
  %17 = mul i32 %11, %15
  %18 = urem i32 %17, 2
  %19 = icmp eq i32 %18, 0
  store i1 %19, i1* %10
  %20 = icmp slt i32 %12, 10
  store i1 %20, i1* %9
  %21 = alloca i32
  store i32 1032572997, i32* %21
  br label %22

; <label>:22:                                     ; preds = %3, %184
  %23 = load i32, i32* %21
  switch i32 %23, label %24 [
    i32 1032572997, label %25
    i32 -1341166076, label %33
    i32 383661953, label %56
    i32 -1698499125, label %57
    i32 819995562, label %62
    i32 -497960884, label %90
    i32 -2063810568, label %129
    i32 280364990, label %132
    i32 56011529, label %142
    i32 1929702961, label %156
    i32 1438679231, label %159
    i32 1687038118, label %164
  ]

; <label>:24:                                     ; preds = %22
  br label %184

; <label>:25:                                     ; preds = %22
  %26 = load volatile i1, i1* %10
  %27 = load volatile i1, i1* %9
  %28 = and i1 %26, %27
  %29 = xor i1 %26, %27
  %30 = or i1 %28, %29
  %31 = or i1 %26, %27
  %32 = select i1 %30, i32 -1341166076, i32 1438679231
  store i32 %32, i32* %21
  br label %184

; <label>:33:                                     ; preds = %22
  %34 = alloca i64, align 8
  store i64* %34, i64** %8
  %35 = alloca i64, align 8
  store i64* %35, i64** %7
  %36 = alloca i64, align 8
  store i64* %36, i64** %6
  %37 = alloca i64, align 8
  store i64* %37, i64** %5
  %38 = load volatile i64*, i64** %8
  store i64 %0, i64* %38, align 8
  %39 = load volatile i64*, i64** %7
  store i64 %1, i64* %39, align 8
  %40 = load volatile i64*, i64** %6
  store i64 %2, i64* %40, align 8
  %41 = load volatile i64*, i64** %5
  store i64 1, i64* %41, align 8
  %42 = load i32, i32* @x.9
  %43 = load i32, i32* @y.10
  %44 = sub i32 0, 1
  %45 = add i32 %42, %44
  %46 = sub i32 %42, 1
  %47 = mul i32 %42, %45
  %48 = urem i32 %47, 2
  %49 = icmp eq i32 %48, 0
  %50 = icmp slt i32 %43, 10
  %51 = and i1 %49, %50
  %52 = xor i1 %49, %50
  %53 = or i1 %51, %52
  %54 = or i1 %49, %50
  %55 = select i1 %53, i32 383661953, i32 1438679231
  store i32 %55, i32* %21
  br label %184

; <label>:56:                                     ; preds = %22
  store i32 -1698499125, i32* %21
  br label %184

; <label>:57:                                     ; preds = %22
  %58 = load volatile i64*, i64** %7
  %59 = load i64, i64* %58, align 8
  %60 = icmp ne i64 %59, 0
  %61 = select i1 %60, i32 819995562, i32 1929702961
  store i32 %61, i32* %21
  br label %184

; <label>:62:                                     ; preds = %22
  %63 = load i32, i32* @x.9
  %64 = load i32, i32* @y.10
  %65 = add i32 %63, -295743421
  %66 = sub i32 %65, 1
  %67 = sub i32 %66, -295743421
  %68 = sub i32 %63, 1
  %69 = mul i32 %63, %67
  %70 = urem i32 %69, 2
  %71 = icmp eq i32 %70, 0
  %72 = icmp slt i32 %64, 10
  %73 = xor i1 %71, true
  %74 = xor i1 %72, true
  %75 = xor i1 true, true
  %76 = and i1 %73, true
  %77 = and i1 %71, %75
  %78 = and i1 %74, true
  %79 = and i1 %72, %75
  %80 = or i1 %76, %77
  %81 = or i1 %78, %79
  %82 = xor i1 %80, %81
  %83 = or i1 %73, %74
  %84 = xor i1 %83, true
  %85 = or i1 true, %75
  %86 = and i1 %84, %85
  %87 = or i1 %82, %86
  %88 = or i1 %71, %72
  %89 = select i1 %87, i32 -497960884, i32 1687038118
  store i32 %89, i32* %21
  br label %184

; <label>:90:                                     ; preds = %22
  %91 = load volatile i64*, i64** %7
  %92 = load i64, i64* %91, align 8
  %93 = xor i64 %92, -1
  %94 = xor i64 1, -1
  %95 = xor i64 59762471649249329, -1
  %96 = or i64 %93, %94
  %97 = or i64 59762471649249329, %95
  %98 = xor i64 %96, -1
  %99 = and i64 %98, %97
  %100 = and i64 %92, 1
  %101 = icmp ne i64 %99, 0
  store i1 %101, i1* %4
  %102 = load i32, i32* @x.9
  %103 = load i32, i32* @y.10
  %104 = add i32 %102, -845491805
  %105 = sub i32 %104, 1
  %106 = sub i32 %105, -845491805
  %107 = sub i32 %102, 1
  %108 = mul i32 %102, %106
  %109 = urem i32 %108, 2
  %110 = icmp eq i32 %109, 0
  %111 = icmp slt i32 %103, 10
  %112 = xor i1 %110, true
  %113 = xor i1 %111, true
  %114 = xor i1 true, true
  %115 = and i1 %112, true
  %116 = and i1 %110, %114
  %117 = and i1 %113, true
  %118 = and i1 %111, %114
  %119 = or i1 %115, %116
  %120 = or i1 %117, %118
  %121 = xor i1 %119, %120
  %122 = or i1 %112, %113
  %123 = xor i1 %122, true
  %124 = or i1 true, %114
  %125 = and i1 %123, %124
  %126 = or i1 %121, %125
  %127 = or i1 %110, %111
  %128 = select i1 %126, i32 -2063810568, i32 1687038118
  store i32 %128, i32* %21
  br label %184

; <label>:129:                                    ; preds = %22
  %130 = load volatile i1, i1* %4
  %131 = select i1 %130, i32 280364990, i32 56011529
  store i32 %131, i32* %21
  br label %184

; <label>:132:                                    ; preds = %22
  %133 = load volatile i64*, i64** %5
  %134 = load i64, i64* %133, align 8
  %135 = load volatile i64*, i64** %8
  %136 = load i64, i64* %135, align 8
  %137 = mul nsw i64 %134, %136
  %138 = load volatile i64*, i64** %6
  %139 = load i64, i64* %138, align 8
  %140 = srem i64 %137, %139
  %141 = load volatile i64*, i64** %5
  store i64 %140, i64* %141, align 8
  store i32 56011529, i32* %21
  br label %184

; <label>:142:                                    ; preds = %22
  %143 = load volatile i64*, i64** %8
  %144 = load i64, i64* %143, align 8
  %145 = load volatile i64*, i64** %8
  %146 = load i64, i64* %145, align 8
  %147 = mul nsw i64 %144, %146
  %148 = load volatile i64*, i64** %6
  %149 = load i64, i64* %148, align 8
  %150 = srem i64 %147, %149
  %151 = load volatile i64*, i64** %8
  store i64 %150, i64* %151, align 8
  %152 = load volatile i64*, i64** %7
  %153 = load i64, i64* %152, align 8
  %154 = ashr i64 %153, 1
  %155 = load volatile i64*, i64** %7
  store i64 %154, i64* %155, align 8
  store i32 -1698499125, i32* %21
  br label %184

; <label>:156:                                    ; preds = %22
  %157 = load volatile i64*, i64** %5
  %158 = load i64, i64* %157, align 8
  ret i64 %158

; <label>:159:                                    ; preds = %22
  %160 = alloca i64, align 8
  %161 = alloca i64, align 8
  %162 = alloca i64, align 8
  %163 = alloca i64, align 8
  store i64 %0, i64* %160, align 8
  store i64 %1, i64* %161, align 8
  store i64 %2, i64* %162, align 8
  store i64 1, i64* %163, align 8
  store i32 -1341166076, i32* %21
  br label %184

; <label>:164:                                    ; preds = %22
  %165 = load volatile i64*, i64** %7
  %166 = load i64, i64* %165, align 8
  %167 = shl i64 %166, 1
  %168 = sub i64 0, %166
  %169 = add i64 0, %168
  %170 = sub i64 0, %166
  %171 = add i64 %169, -6602331916045174991
  %172 = add i64 %171, 1
  %173 = sub i64 %172, -6602331916045174991
  %174 = add i64 %169, 1
  %175 = xor i64 %166, -1
  %176 = xor i64 1, -1
  %177 = xor i64 4899730637367417761, -1
  %178 = or i64 %175, %176
  %179 = or i64 4899730637367417761, %177
  %180 = xor i64 %178, -1
  %181 = and i64 %180, %179
  %182 = and i64 %166, 1
  %183 = icmp ne i64 %181, 0
  store i32 -497960884, i32* %21
  br label %184

; <label>:184:                                    ; preds = %164, %159, %142, %132, %129, %90, %62, %57, %56, %33, %25, %24
  br label %22
}

; Function Attrs: noinline nounwind uwtable
define i64 @_Z5combixx(i64, i64) #4 {
  %3 = alloca i1
  %4 = alloca i64, align 8
  %5 = alloca i64, align 8
  %6 = alloca i64, align 8
  %7 = alloca i64, align 8
  %8 = alloca i64, align 8
  %9 = alloca i64, align 8
  store i64 %0, i64* %4, align 8
  store i64 %1, i64* %5, align 8
  store i64 1, i64* %6, align 8
  store i64 1, i64* %7, align 8
  %10 = load i64, i64* %4, align 8
  %11 = load i64, i64* %5, align 8
  %12 = add i64 %10, -3957949573699754588
  %13 = sub i64 %12, %11
  %14 = sub i64 %13, -3957949573699754588
  %15 = sub nsw i64 %10, %11
  %16 = sub i64 0, 1
  %17 = sub i64 %14, %16
  %18 = add nsw i64 %14, 1
  store i64 %17, i64* %8, align 8
  %19 = alloca i32
  store i32 -1393042772, i32* %19
  br label %20

; <label>:20:                                     ; preds = %2, %190
  %21 = load i32, i32* %19
  switch i32 %21, label %22 [
    i32 -1393042772, label %23
    i32 624169645, label %51
    i32 999284334, label %70
    i32 -1208429803, label %73
    i32 708492644, label %80
    i32 1501370070, label %108
    i32 -1202570276, label %139
    i32 516030842, label %140
    i32 -528192067, label %141
    i32 1717162140, label %146
    i32 -582325359, label %151
    i32 2117797593, label %156
    i32 -195072816, label %164
    i32 2033189467, label %168
  ]

; <label>:22:                                     ; preds = %20
  br label %190

; <label>:23:                                     ; preds = %20
  %24 = load i32, i32* @x.11
  %25 = load i32, i32* @y.12
  %26 = add i32 %24, 63135550
  %27 = sub i32 %26, 1
  %28 = sub i32 %27, 63135550
  %29 = sub i32 %24, 1
  %30 = mul i32 %24, %28
  %31 = urem i32 %30, 2
  %32 = icmp eq i32 %31, 0
  %33 = icmp slt i32 %25, 10
  %34 = xor i1 %32, true
  %35 = xor i1 %33, true
  %36 = xor i1 false, true
  %37 = and i1 %34, false
  %38 = and i1 %32, %36
  %39 = and i1 %35, false
  %40 = and i1 %33, %36
  %41 = or i1 %37, %38
  %42 = or i1 %39, %40
  %43 = xor i1 %41, %42
  %44 = or i1 %34, %35
  %45 = xor i1 %44, true
  %46 = or i1 false, %36
  %47 = and i1 %45, %46
  %48 = or i1 %43, %47
  %49 = or i1 %32, %33
  %50 = select i1 %48, i32 624169645, i32 -195072816
  store i32 %50, i32* %19
  br label %190

; <label>:51:                                     ; preds = %20
  %52 = load i64, i64* %8, align 8
  %53 = load i64, i64* %4, align 8
  %54 = icmp sle i64 %52, %53
  store i1 %54, i1* %3
  %55 = load i32, i32* @x.11
  %56 = load i32, i32* @y.12
  %57 = sub i32 %55, 984339166
  %58 = sub i32 %57, 1
  %59 = add i32 %58, 984339166
  %60 = sub i32 %55, 1
  %61 = mul i32 %55, %59
  %62 = urem i32 %61, 2
  %63 = icmp eq i32 %62, 0
  %64 = icmp slt i32 %56, 10
  %65 = and i1 %63, %64
  %66 = xor i1 %63, %64
  %67 = or i1 %65, %66
  %68 = or i1 %63, %64
  %69 = select i1 %67, i32 999284334, i32 -195072816
  store i32 %69, i32* %19
  br label %190

; <label>:70:                                     ; preds = %20
  %71 = load volatile i1, i1* %3
  %72 = select i1 %71, i32 -1208429803, i32 516030842
  store i32 %72, i32* %19
  br label %190

; <label>:73:                                     ; preds = %20
  %74 = load i64, i64* %8, align 8
  %75 = srem i64 %74, 1000000007
  %76 = load i64, i64* %6, align 8
  %77 = mul nsw i64 %76, %75
  store i64 %77, i64* %6, align 8
  %78 = load i64, i64* %6, align 8
  %79 = srem i64 %78, 1000000007
  store i64 %79, i64* %6, align 8
  store i32 708492644, i32* %19
  br label %190

; <label>:80:                                     ; preds = %20
  %81 = load i32, i32* @x.11
  %82 = load i32, i32* @y.12
  %83 = add i32 %81, -36037914
  %84 = sub i32 %83, 1
  %85 = sub i32 %84, -36037914
  %86 = sub i32 %81, 1
  %87 = mul i32 %81, %85
  %88 = urem i32 %87, 2
  %89 = icmp eq i32 %88, 0
  %90 = icmp slt i32 %82, 10
  %91 = xor i1 %89, true
  %92 = xor i1 %90, true
  %93 = xor i1 true, true
  %94 = and i1 %91, true
  %95 = and i1 %89, %93
  %96 = and i1 %92, true
  %97 = and i1 %90, %93
  %98 = or i1 %94, %95
  %99 = or i1 %96, %97
  %100 = xor i1 %98, %99
  %101 = or i1 %91, %92
  %102 = xor i1 %101, true
  %103 = or i1 true, %93
  %104 = and i1 %102, %103
  %105 = or i1 %100, %104
  %106 = or i1 %89, %90
  %107 = select i1 %105, i32 1501370070, i32 2033189467
  store i32 %107, i32* %19
  br label %190

; <label>:108:                                    ; preds = %20
  %109 = load i64, i64* %8, align 8
  %110 = sub i64 0, 1
  %111 = sub i64 %109, %110
  %112 = add nsw i64 %109, 1
  store i64 %111, i64* %8, align 8
  %113 = load i32, i32* @x.11
  %114 = load i32, i32* @y.12
  %115 = sub i32 0, 1
  %116 = add i32 %113, %115
  %117 = sub i32 %113, 1
  %118 = mul i32 %113, %116
  %119 = urem i32 %118, 2
  %120 = icmp eq i32 %119, 0
  %121 = icmp slt i32 %114, 10
  %122 = xor i1 %120, true
  %123 = xor i1 %121, true
  %124 = xor i1 false, true
  %125 = and i1 %122, false
  %126 = and i1 %120, %124
  %127 = and i1 %123, false
  %128 = and i1 %121, %124
  %129 = or i1 %125, %126
  %130 = or i1 %127, %128
  %131 = xor i1 %129, %130
  %132 = or i1 %122, %123
  %133 = xor i1 %132, true
  %134 = or i1 false, %124
  %135 = and i1 %133, %134
  %136 = or i1 %131, %135
  %137 = or i1 %120, %121
  %138 = select i1 %136, i32 -1202570276, i32 2033189467
  store i32 %138, i32* %19
  br label %190

; <label>:139:                                    ; preds = %20
  store i32 -1393042772, i32* %19
  br label %190

; <label>:140:                                    ; preds = %20
  store i64 2, i64* %9, align 8
  store i32 -528192067, i32* %19
  br label %190

; <label>:141:                                    ; preds = %20
  %142 = load i64, i64* %9, align 8
  %143 = load i64, i64* %5, align 8
  %144 = icmp sle i64 %142, %143
  %145 = select i1 %144, i32 1717162140, i32 2117797593
  store i32 %145, i32* %19
  br label %190

; <label>:146:                                    ; preds = %20
  %147 = load i64, i64* %7, align 8
  %148 = load i64, i64* %9, align 8
  %149 = mul nsw i64 %147, %148
  %150 = srem i64 %149, 1000000007
  store i64 %150, i64* %7, align 8
  store i32 -582325359, i32* %19
  br label %190

; <label>:151:                                    ; preds = %20
  %152 = load i64, i64* %9, align 8
  %153 = sub i64 0, 1
  %154 = sub i64 %152, %153
  %155 = add nsw i64 %152, 1
  store i64 %154, i64* %9, align 8
  store i32 -528192067, i32* %19
  br label %190

; <label>:156:                                    ; preds = %20
  %157 = load i64, i64* %7, align 8
  %158 = call i64 @_Z6modpowxxx(i64 %157, i64 1000000005, i64 1000000007)
  store i64 %158, i64* %7, align 8
  %159 = load i64, i64* %6, align 8
  %160 = srem i64 %159, 1000000007
  %161 = load i64, i64* %7, align 8
  %162 = mul nsw i64 %160, %161
  %163 = srem i64 %162, 1000000007
  ret i64 %163

; <label>:164:                                    ; preds = %20
  %165 = load i64, i64* %8, align 8
  %166 = load i64, i64* %4, align 8
  %167 = icmp sle i64 %165, %166
  store i32 624169645, i32* %19
  br label %190

; <label>:168:                                    ; preds = %20
  %169 = load i64, i64* %8, align 8
  %170 = shl i64 %169, 1
  %171 = shl i64 %169, 1
  %172 = sub i64 0, -6671671005427894169
  %173 = sub i64 %172, %169
  %174 = add i64 %173, -6671671005427894169
  %175 = sub i64 0, %169
  %176 = sub i64 %174, 4994261772048598563
  %177 = add i64 %176, 1
  %178 = add i64 %177, 4994261772048598563
  %179 = add i64 %174, 1
  %180 = add i64 %169, -5339032151074380352
  %181 = sub i64 %180, 1
  %182 = sub i64 %181, -5339032151074380352
  %183 = sub i64 %169, 1
  %184 = mul i64 %182, 1
  %185 = sub i64 0, %169
  %186 = sub i64 0, 1
  %187 = add i64 %185, %186
  %188 = sub i64 0, %187
  %189 = add nsw i64 %169, 1
  store i64 %188, i64* %8, align 8
  store i32 1501370070, i32* %19
  br label %190

; <label>:190:                                    ; preds = %168, %164, %151, %146, %141, %140, %139, %108, %80, %73, %70, %51, %23, %22
  br label %20
}

; Function Attrs: noinline uwtable
define void @_Z3dfsSt6vectorIxSaIxEExxxRS_IS1_SaIS1_EE(%"class.std::vector.0"*, i64, i64, i64, %"class.std::vector"* dereferenceable(24)) #0 personality i8* bitcast (i32 (...)* @__gxx_personality_v0 to i8*) {
  %6 = alloca i64, align 8
  %7 = alloca i64, align 8
  %8 = alloca i64, align 8
  %9 = alloca %"class.std::vector"*, align 8
  %10 = alloca i64, align 8
  %11 = alloca %"class.std::vector.0", align 8
  %12 = alloca i8*
  %13 = alloca i32
  store i64 %1, i64* %6, align 8
  store i64 %2, i64* %7, align 8
  store i64 %3, i64* %8, align 8
  store %"class.std::vector"* %4, %"class.std::vector"** %9, align 8
  %14 = call i64 @_ZNKSt6vectorIxSaIxEE4sizeEv(%"class.std::vector.0"* %0) #3
  %15 = load i64, i64* %8, align 8
  %16 = icmp eq i64 %14, %15
  br i1 %16, label %17, label %19

; <label>:17:                                     ; preds = %5
  %18 = load %"class.std::vector"*, %"class.std::vector"** %9, align 8
  call void @_ZNSt6vectorIS_IxSaIxEESaIS1_EE9push_backERKS1_(%"class.std::vector"* %18, %"class.std::vector.0"* dereferenceable(24) %0)
  br label %76

; <label>:19:                                     ; preds = %5
  %20 = call i64 @_ZNKSt6vectorIxSaIxEE4sizeEv(%"class.std::vector.0"* %0) #3
  %21 = icmp ugt i64 %20, 0
  br i1 %21, label %22, label %23

; <label>:22:                                     ; preds = %19
  br label %53

; <label>:23:                                     ; preds = %19
  %24 = load i32, i32* @x.13
  %25 = load i32, i32* @y.14
  %26 = sub i32 0, 1
  %27 = add i32 %24, %26
  %28 = sub i32 %24, 1
  %29 = mul i32 %24, %27
  %30 = urem i32 %29, 2
  %31 = icmp eq i32 %30, 0
  %32 = icmp slt i32 %25, 10
  %33 = and i1 %31, %32
  %34 = xor i1 %31, %32
  %35 = or i1 %33, %34
  %36 = or i1 %31, %32
  br i1 %35, label %37, label %152

; <label>:37:                                     ; preds = %23, %152
  %38 = load i64, i64* %6, align 8
  %39 = load i32, i32* @x.13
  %40 = load i32, i32* @y.14
  %41 = sub i32 0, 1
  %42 = add i32 %39, %41
  %43 = sub i32 %39, 1
  %44 = mul i32 %39, %42
  %45 = urem i32 %44, 2
  %46 = icmp eq i32 %45, 0
  %47 = icmp slt i32 %40, 10
  %48 = and i1 %46, %47
  %49 = xor i1 %46, %47
  %50 = or i1 %48, %49
  %51 = or i1 %46, %47
  br i1 %50, label %52, label %152

; <label>:52:                                     ; preds = %37
  br label %53

; <label>:53:                                     ; preds = %52, %22
  %54 = phi i64 [ 0, %22 ], [ %38, %52 ]
  store i64 %54, i64* %10, align 8
  br label %55

; <label>:55:                                     ; preds = %65, %53
  %56 = load i64, i64* %10, align 8
  %57 = load i64, i64* %7, align 8
  %58 = icmp sle i64 %56, %57
  br i1 %58, label %59, label %75

; <label>:59:                                     ; preds = %55
  call void @_ZNSt6vectorIxSaIxEE9push_backERKx(%"class.std::vector.0"* %0, i64* dereferenceable(8) %10)
  call void @_ZNSt6vectorIxSaIxEEC2ERKS1_(%"class.std::vector.0"* %11, %"class.std::vector.0"* dereferenceable(24) %0)
  %60 = load i64, i64* %6, align 8
  %61 = load i64, i64* %7, align 8
  %62 = load i64, i64* %8, align 8
  %63 = load %"class.std::vector"*, %"class.std::vector"** %9, align 8
  invoke void @_Z3dfsSt6vectorIxSaIxEExxxRS_IS1_SaIS1_EE(%"class.std::vector.0"* %11, i64 %60, i64 %61, i64 %62, %"class.std::vector"* dereferenceable(24) %63)
          to label %64 unwind label %71

; <label>:64:                                     ; preds = %59
  call void @_ZNSt6vectorIxSaIxEED2Ev(%"class.std::vector.0"* %11) #3
  call void @_ZNSt6vectorIxSaIxEE8pop_backEv(%"class.std::vector.0"* %0) #3
  br label %65

; <label>:65:                                     ; preds = %64
  %66 = load i64, i64* %10, align 8
  %67 = add i64 %66, 1684495238603884307
  %68 = add i64 %67, 1
  %69 = sub i64 %68, 1684495238603884307
  %70 = add nsw i64 %66, 1
  store i64 %69, i64* %10, align 8
  br label %55

; <label>:71:                                     ; preds = %59
  %72 = landingpad { i8*, i32 }
          cleanup
  %73 = extractvalue { i8*, i32 } %72, 0
  store i8* %73, i8** %12, align 8
  %74 = extractvalue { i8*, i32 } %72, 1
  store i32 %74, i32* %13, align 4
  call void @_ZNSt6vectorIxSaIxEED2Ev(%"class.std::vector.0"* %11) #3
  br label %106

; <label>:75:                                     ; preds = %55
  br label %76

; <label>:76:                                     ; preds = %75, %17
  %77 = load i32, i32* @x.13
  %78 = load i32, i32* @y.14
  %79 = sub i32 0, 1
  %80 = add i32 %77, %79
  %81 = sub i32 %77, 1
  %82 = mul i32 %77, %80
  %83 = urem i32 %82, 2
  %84 = icmp eq i32 %83, 0
  %85 = icmp slt i32 %78, 10
  %86 = and i1 %84, %85
  %87 = xor i1 %84, %85
  %88 = or i1 %86, %87
  %89 = or i1 %84, %85
  br i1 %88, label %90, label %154

; <label>:90:                                     ; preds = %76, %154
  %91 = load i32, i32* @x.13
  %92 = load i32, i32* @y.14
  %93 = sub i32 %91, -1546682127
  %94 = sub i32 %93, 1
  %95 = add i32 %94, -1546682127
  %96 = sub i32 %91, 1
  %97 = mul i32 %91, %95
  %98 = urem i32 %97, 2
  %99 = icmp eq i32 %98, 0
  %100 = icmp slt i32 %92, 10
  %101 = and i1 %99, %100
  %102 = xor i1 %99, %100
  %103 = or i1 %101, %102
  %104 = or i1 %99, %100
  br i1 %103, label %105, label %154

; <label>:105:                                    ; preds = %90
  ret void

; <label>:106:                                    ; preds = %71
  %107 = load i32, i32* @x.13
  %108 = load i32, i32* @y.14
  %109 = sub i32 0, 1
  %110 = add i32 %107, %109
  %111 = sub i32 %107, 1
  %112 = mul i32 %107, %110
  %113 = urem i32 %112, 2
  %114 = icmp eq i32 %113, 0
  %115 = icmp slt i32 %108, 10
  %116 = xor i1 %114, true
  %117 = xor i1 %115, true
  %118 = xor i1 true, true
  %119 = and i1 %116, true
  %120 = and i1 %114, %118
  %121 = and i1 %117, true
  %122 = and i1 %115, %118
  %123 = or i1 %119, %120
  %124 = or i1 %121, %122
  %125 = xor i1 %123, %124
  %126 = or i1 %116, %117
  %127 = xor i1 %126, true
  %128 = or i1 true, %118
  %129 = and i1 %127, %128
  %130 = or i1 %125, %129
  %131 = or i1 %114, %115
  br i1 %130, label %132, label %155

; <label>:132:                                    ; preds = %106, %155
  %133 = load i8*, i8** %12, align 8
  %134 = load i32, i32* %13, align 4
  %135 = insertvalue { i8*, i32 } undef, i8* %133, 0
  %136 = insertvalue { i8*, i32 } %135, i32 %134, 1
  %137 = load i32, i32* @x.13
  %138 = load i32, i32* @y.14
  %139 = sub i32 %137, 876035516
  %140 = sub i32 %139, 1
  %141 = add i32 %140, 876035516
  %142 = sub i32 %137, 1
  %143 = mul i32 %137, %141
  %144 = urem i32 %143, 2
  %145 = icmp eq i32 %144, 0
  %146 = icmp slt i32 %138, 10
  %147 = and i1 %145, %146
  %148 = xor i1 %145, %146
  %149 = or i1 %147, %148
  %150 = or i1 %145, %146
  br i1 %149, label %151, label %155

; <label>:151:                                    ; preds = %132
  resume { i8*, i32 } %136

; <label>:152:                                    ; preds = %37, %23
  %153 = load i64, i64* %6, align 8
  br label %37

; <label>:154:                                    ; preds = %90, %76
  br label %90

; <label>:155:                                    ; preds = %132, %106
  %156 = load i8*, i8** %12, align 8
  %157 = load i32, i32* %13, align 4
  %158 = insertvalue { i8*, i32 } undef, i8* %156, 0
  %159 = insertvalue { i8*, i32 } %158, i32 %157, 1
  br label %132
}

; Function Attrs: noinline nounwind uwtable
define linkonce_odr i64 @_ZNKSt6vectorIxSaIxEE4sizeEv(%"class.std::vector.0"*) #4 comdat align 2 {
  %2 = alloca %"class.std::vector.0"*, align 8
  store %"class.std::vector.0"* %0, %"class.std::vector.0"** %2, align 8
  %3 = load %"class.std::vector.0"*, %"class.std::vector.0"** %2, align 8
  %4 = bitcast %"class.std::vector.0"* %3 to %"struct.std::_Vector_base.1"*
  %5 = getelementptr inbounds %"struct.std::_Vector_base.1", %"struct.std::_Vector_base.1"* %4, i32 0, i32 0
  %6 = getelementptr inbounds %"struct.std::_Vector_base<long long, std::allocator<long long> >::_Vector_impl", %"struct.std::_Vector_base<long long, std::allocator<long long> >::_Vector_impl"* %5, i32 0, i32 1
  %7 = load i64*, i64** %6, align 8
  %8 = bitcast %"class.std::vector.0"* %3 to %"struct.std::_Vector_base.1"*
  %9 = getelementptr inbounds %"struct.std::_Vector_base.1", %"struct.std::_Vector_base.1"* %8, i32 0, i32 0
  %10 = getelementptr inbounds %"struct.std::_Vector_base<long long, std::allocator<long long> >::_Vector_impl", %"struct.std::_Vector_base<long long, std::allocator<long long> >::_Vector_impl"* %9, i32 0, i32 0
  %11 = load i64*, i64** %10, align 8
  %12 = ptrtoint i64* %7 to i64
  %13 = ptrtoint i64* %11 to i64
  %14 = sub i64 0, %13
  %15 = add i64 %12, %14
  %16 = sub i64 %12, %13
  %17 = sdiv exact i64 %15, 8
  ret i64 %17
}

; Function Attrs: noinline uwtable
define linkonce_odr void @_ZNSt6vectorIS_IxSaIxEESaIS1_EE9push_backERKS1_(%"class.std::vector"*, %"class.std::vector.0"* dereferenceable(24)) #0 comdat align 2 {
  %3 = alloca %"class.std::vector.0"*
  %4 = alloca %"class.std::vector.0"*
  %5 = alloca %"class.std::vector"*
  %6 = alloca %"class.std::vector"*, align 8
  %7 = alloca %"class.std::vector.0"*, align 8
  store %"class.std::vector"* %0, %"class.std::vector"** %6, align 8
  store %"class.std::vector.0"* %1, %"class.std::vector.0"** %7, align 8
  %8 = load %"class.std::vector"*, %"class.std::vector"** %6, align 8
  store %"class.std::vector"* %8, %"class.std::vector"** %5
  %9 = load volatile %"class.std::vector"*, %"class.std::vector"** %5
  %10 = bitcast %"class.std::vector"* %9 to %"struct.std::_Vector_base"*
  %11 = getelementptr inbounds %"struct.std::_Vector_base", %"struct.std::_Vector_base"* %10, i32 0, i32 0
  %12 = getelementptr inbounds %"struct.std::_Vector_base<std::vector<long long, std::allocator<long long> >, std::allocator<std::vector<long long, std::allocator<long long> > > >::_Vector_impl", %"struct.std::_Vector_base<std::vector<long long, std::allocator<long long> >, std::allocator<std::vector<long long, std::allocator<long long> > > >::_Vector_impl"* %11, i32 0, i32 1
  %13 = load %"class.std::vector.0"*, %"class.std::vector.0"** %12, align 8
  store %"class.std::vector.0"* %13, %"class.std::vector.0"** %4
  %14 = load volatile %"class.std::vector"*, %"class.std::vector"** %5
  %15 = bitcast %"class.std::vector"* %14 to %"struct.std::_Vector_base"*
  %16 = getelementptr inbounds %"struct.std::_Vector_base", %"struct.std::_Vector_base"* %15, i32 0, i32 0
  %17 = getelementptr inbounds %"struct.std::_Vector_base<std::vector<long long, std::allocator<long long> >, std::allocator<std::vector<long long, std::allocator<long long> > > >::_Vector_impl", %"struct.std::_Vector_base<std::vector<long long, std::allocator<long long> >, std::allocator<std::vector<long long, std::allocator<long long> > > >::_Vector_impl"* %16, i32 0, i32 2
  %18 = load %"class.std::vector.0"*, %"class.std::vector.0"** %17, align 8
  store %"class.std::vector.0"* %18, %"class.std::vector.0"** %3
  %19 = alloca i32
  store i32 473911255, i32* %19
  br label %20

; <label>:20:                                     ; preds = %2, %107
  %21 = load i32, i32* %19
  switch i32 %21, label %22 [
    i32 473911255, label %23
    i32 -1386750047, label %28
    i32 -50706935, label %45
    i32 1844332597, label %72
    i32 130564957, label %102
    i32 514047827, label %103
    i32 -1533121703, label %104
  ]

; <label>:22:                                     ; preds = %20
  br label %107

; <label>:23:                                     ; preds = %20
  %24 = load volatile %"class.std::vector.0"*, %"class.std::vector.0"** %4
  %25 = load volatile %"class.std::vector.0"*, %"class.std::vector.0"** %3
  %26 = icmp ne %"class.std::vector.0"* %24, %25
  %27 = select i1 %26, i32 -1386750047, i32 -50706935
  store i32 %27, i32* %19
  br label %107

; <label>:28:                                     ; preds = %20
  %29 = load volatile %"class.std::vector"*, %"class.std::vector"** %5
  %30 = bitcast %"class.std::vector"* %29 to %"struct.std::_Vector_base"*
  %31 = getelementptr inbounds %"struct.std::_Vector_base", %"struct.std::_Vector_base"* %30, i32 0, i32 0
  %32 = bitcast %"struct.std::_Vector_base<std::vector<long long, std::allocator<long long> >, std::allocator<std::vector<long long, std::allocator<long long> > > >::_Vector_impl"* %31 to %"class.std::allocator"*
  %33 = load volatile %"class.std::vector"*, %"class.std::vector"** %5
  %34 = bitcast %"class.std::vector"* %33 to %"struct.std::_Vector_base"*
  %35 = getelementptr inbounds %"struct.std::_Vector_base", %"struct.std::_Vector_base"* %34, i32 0, i32 0
  %36 = getelementptr inbounds %"struct.std::_Vector_base<std::vector<long long, std::allocator<long long> >, std::allocator<std::vector<long long, std::allocator<long long> > > >::_Vector_impl", %"struct.std::_Vector_base<std::vector<long long, std::allocator<long long> >, std::allocator<std::vector<long long, std::allocator<long long> > > >::_Vector_impl"* %35, i32 0, i32 1
  %37 = load %"class.std::vector.0"*, %"class.std::vector.0"** %36, align 8
  %38 = load %"class.std::vector.0"*, %"class.std::vector.0"** %7, align 8
  call void @_ZNSt16allocator_traitsISaISt6vectorIxSaIxEEEE9constructIS2_JRKS2_EEEvRS3_PT_DpOT0_(%"class.std::allocator"* dereferenceable(1) %32, %"class.std::vector.0"* %37, %"class.std::vector.0"* dereferenceable(24) %38)
  %39 = load volatile %"class.std::vector"*, %"class.std::vector"** %5
  %40 = bitcast %"class.std::vector"* %39 to %"struct.std::_Vector_base"*
  %41 = getelementptr inbounds %"struct.std::_Vector_base", %"struct.std::_Vector_base"* %40, i32 0, i32 0
  %42 = getelementptr inbounds %"struct.std::_Vector_base<std::vector<long long, std::allocator<long long> >, std::allocator<std::vector<long long, std::allocator<long long> > > >::_Vector_impl", %"struct.std::_Vector_base<std::vector<long long, std::allocator<long long> >, std::allocator<std::vector<long long, std::allocator<long long> > > >::_Vector_impl"* %41, i32 0, i32 1
  %43 = load %"class.std::vector.0"*, %"class.std::vector.0"** %42, align 8
  %44 = getelementptr inbounds %"class.std::vector.0", %"class.std::vector.0"* %43, i32 1
  store %"class.std::vector.0"* %44, %"class.std::vector.0"** %42, align 8
  store i32 514047827, i32* %19
  br label %107

; <label>:45:                                     ; preds = %20
  %46 = load i32, i32* @x.17
  %47 = load i32, i32* @y.18
  %48 = sub i32 0, 1
  %49 = add i32 %46, %48
  %50 = sub i32 %46, 1
  %51 = mul i32 %46, %49
  %52 = urem i32 %51, 2
  %53 = icmp eq i32 %52, 0
  %54 = icmp slt i32 %47, 10
  %55 = xor i1 %53, true
  %56 = xor i1 %54, true
  %57 = xor i1 true, true
  %58 = and i1 %55, true
  %59 = and i1 %53, %57
  %60 = and i1 %56, true
  %61 = and i1 %54, %57
  %62 = or i1 %58, %59
  %63 = or i1 %60, %61
  %64 = xor i1 %62, %63
  %65 = or i1 %55, %56
  %66 = xor i1 %65, true
  %67 = or i1 true, %57
  %68 = and i1 %66, %67
  %69 = or i1 %64, %68
  %70 = or i1 %53, %54
  %71 = select i1 %69, i32 1844332597, i32 -1533121703
  store i32 %71, i32* %19
  br label %107

; <label>:72:                                     ; preds = %20
  %73 = load %"class.std::vector.0"*, %"class.std::vector.0"** %7, align 8
  %74 = load volatile %"class.std::vector"*, %"class.std::vector"** %5
  call void @_ZNSt6vectorIS_IxSaIxEESaIS1_EE19_M_emplace_back_auxIJRKS1_EEEvDpOT_(%"class.std::vector"* %74, %"class.std::vector.0"* dereferenceable(24) %73)
  %75 = load i32, i32* @x.17
  %76 = load i32, i32* @y.18
  %77 = add i32 %75, -1660957751
  %78 = sub i32 %77, 1
  %79 = sub i32 %78, -1660957751
  %80 = sub i32 %75, 1
  %81 = mul i32 %75, %79
  %82 = urem i32 %81, 2
  %83 = icmp eq i32 %82, 0
  %84 = icmp slt i32 %76, 10
  %85 = xor i1 %83, true
  %86 = xor i1 %84, true
  %87 = xor i1 false, true
  %88 = and i1 %85, false
  %89 = and i1 %83, %87
  %90 = and i1 %86, false
  %91 = and i1 %84, %87
  %92 = or i1 %88, %89
  %93 = or i1 %90, %91
  %94 = xor i1 %92, %93
  %95 = or i1 %85, %86
  %96 = xor i1 %95, true
  %97 = or i1 false, %87
  %98 = and i1 %96, %97
  %99 = or i1 %94, %98
  %100 = or i1 %83, %84
  %101 = select i1 %99, i32 130564957, i32 -1533121703
  store i32 %101, i32* %19
  br label %107

; <label>:102:                                    ; preds = %20
  store i32 514047827, i32* %19
  br label %107

; <label>:103:                                    ; preds = %20
  ret void

; <label>:104:                                    ; preds = %20
  %105 = load %"class.std::vector.0"*, %"class.std::vector.0"** %7, align 8
  %106 = load volatile %"class.std::vector"*, %"class.std::vector"** %5
  call void @_ZNSt6vectorIS_IxSaIxEESaIS1_EE19_M_emplace_back_auxIJRKS1_EEEvDpOT_(%"class.std::vector"* %106, %"class.std::vector.0"* dereferenceable(24) %105)
  store i32 1844332597, i32* %19
  br label %107

; <label>:107:                                    ; preds = %104, %102, %72, %45, %28, %23, %22
  br label %20
}

; Function Attrs: noinline uwtable
define linkonce_odr void @_ZNSt6vectorIxSaIxEE9push_backERKx(%"class.std::vector.0"*, i64* dereferenceable(8)) #0 comdat align 2 {
  %3 = alloca i64*
  %4 = alloca i64*
  %5 = alloca %"class.std::vector.0"*
  %6 = alloca %"class.std::vector.0"*, align 8
  %7 = alloca i64*, align 8
  store %"class.std::vector.0"* %0, %"class.std::vector.0"** %6, align 8
  store i64* %1, i64** %7, align 8
  %8 = load %"class.std::vector.0"*, %"class.std::vector.0"** %6, align 8
  store %"class.std::vector.0"* %8, %"class.std::vector.0"** %5
  %9 = load volatile %"class.std::vector.0"*, %"class.std::vector.0"** %5
  %10 = bitcast %"class.std::vector.0"* %9 to %"struct.std::_Vector_base.1"*
  %11 = getelementptr inbounds %"struct.std::_Vector_base.1", %"struct.std::_Vector_base.1"* %10, i32 0, i32 0
  %12 = getelementptr inbounds %"struct.std::_Vector_base<long long, std::allocator<long long> >::_Vector_impl", %"struct.std::_Vector_base<long long, std::allocator<long long> >::_Vector_impl"* %11, i32 0, i32 1
  %13 = load i64*, i64** %12, align 8
  store i64* %13, i64** %4
  %14 = load volatile %"class.std::vector.0"*, %"class.std::vector.0"** %5
  %15 = bitcast %"class.std::vector.0"* %14 to %"struct.std::_Vector_base.1"*
  %16 = getelementptr inbounds %"struct.std::_Vector_base.1", %"struct.std::_Vector_base.1"* %15, i32 0, i32 0
  %17 = getelementptr inbounds %"struct.std::_Vector_base<long long, std::allocator<long long> >::_Vector_impl", %"struct.std::_Vector_base<long long, std::allocator<long long> >::_Vector_impl"* %16, i32 0, i32 2
  %18 = load i64*, i64** %17, align 8
  store i64* %18, i64** %3
  %19 = alloca i32
  store i32 -356819542, i32* %19
  br label %20

; <label>:20:                                     ; preds = %2, %49
  %21 = load i32, i32* %19
  switch i32 %21, label %22 [
    i32 -356819542, label %23
    i32 1966925973, label %28
    i32 -28061613, label %45
    i32 -819101181, label %48
  ]

; <label>:22:                                     ; preds = %20
  br label %49

; <label>:23:                                     ; preds = %20
  %24 = load volatile i64*, i64** %4
  %25 = load volatile i64*, i64** %3
  %26 = icmp ne i64* %24, %25
  %27 = select i1 %26, i32 1966925973, i32 -28061613
  store i32 %27, i32* %19
  br label %49

; <label>:28:                                     ; preds = %20
  %29 = load volatile %"class.std::vector.0"*, %"class.std::vector.0"** %5
  %30 = bitcast %"class.std::vector.0"* %29 to %"struct.std::_Vector_base.1"*
  %31 = getelementptr inbounds %"struct.std::_Vector_base.1", %"struct.std::_Vector_base.1"* %30, i32 0, i32 0
  %32 = bitcast %"struct.std::_Vector_base<long long, std::allocator<long long> >::_Vector_impl"* %31 to %"class.std::allocator.2"*
  %33 = load volatile %"class.std::vector.0"*, %"class.std::vector.0"** %5
  %34 = bitcast %"class.std::vector.0"* %33 to %"struct.std::_Vector_base.1"*
  %35 = getelementptr inbounds %"struct.std::_Vector_base.1", %"struct.std::_Vector_base.1"* %34, i32 0, i32 0
  %36 = getelementptr inbounds %"struct.std::_Vector_base<long long, std::allocator<long long> >::_Vector_impl", %"struct.std::_Vector_base<long long, std::allocator<long long> >::_Vector_impl"* %35, i32 0, i32 1
  %37 = load i64*, i64** %36, align 8
  %38 = load i64*, i64** %7, align 8
  call void @_ZNSt16allocator_traitsISaIxEE9constructIxJRKxEEEvRS0_PT_DpOT0_(%"class.std::allocator.2"* dereferenceable(1) %32, i64* %37, i64* dereferenceable(8) %38)
  %39 = load volatile %"class.std::vector.0"*, %"class.std::vector.0"** %5
  %40 = bitcast %"class.std::vector.0"* %39 to %"struct.std::_Vector_base.1"*
  %41 = getelementptr inbounds %"struct.std::_Vector_base.1", %"struct.std::_Vector_base.1"* %40, i32 0, i32 0
  %42 = getelementptr inbounds %"struct.std::_Vector_base<long long, std::allocator<long long> >::_Vector_impl", %"struct.std::_Vector_base<long long, std::allocator<long long> >::_Vector_impl"* %41, i32 0, i32 1
  %43 = load i64*, i64** %42, align 8
  %44 = getelementptr inbounds i64, i64* %43, i32 1
  store i64* %44, i64** %42, align 8
  store i32 -819101181, i32* %19
  br label %49

; <label>:45:                                     ; preds = %20
  %46 = load i64*, i64** %7, align 8
  %47 = load volatile %"class.std::vector.0"*, %"class.std::vector.0"** %5
  call void @_ZNSt6vectorIxSaIxEE19_M_emplace_back_auxIJRKxEEEvDpOT_(%"class.std::vector.0"* %47, i64* dereferenceable(8) %46)
  store i32 -819101181, i32* %19
  br label %49

; <label>:48:                                     ; preds = %20
  ret void

; <label>:49:                                     ; preds = %45, %28, %23, %22
  br label %20
}

; Function Attrs: noinline uwtable
define linkonce_odr void @_ZNSt6vectorIxSaIxEEC2ERKS1_(%"class.std::vector.0"*, %"class.std::vector.0"* dereferenceable(24)) unnamed_addr #0 comdat align 2 personality i8* bitcast (i32 (...)* @__gxx_personality_v0 to i8*) {
  %3 = alloca %"class.std::vector.0"*, align 8
  %4 = alloca %"class.std::vector.0"*, align 8
  %5 = alloca %"class.std::allocator.2", align 1
  %6 = alloca i8*
  %7 = alloca i32
  %8 = alloca %"class.__gnu_cxx::__normal_iterator.46", align 8
  %9 = alloca %"class.__gnu_cxx::__normal_iterator.46", align 8
  store %"class.std::vector.0"* %0, %"class.std::vector.0"** %3, align 8
  store %"class.std::vector.0"* %1, %"class.std::vector.0"** %4, align 8
  %10 = load %"class.std::vector.0"*, %"class.std::vector.0"** %3, align 8
  %11 = bitcast %"class.std::vector.0"* %10 to %"struct.std::_Vector_base.1"*
  %12 = load %"class.std::vector.0"*, %"class.std::vector.0"** %4, align 8
  %13 = call i64 @_ZNKSt6vectorIxSaIxEE4sizeEv(%"class.std::vector.0"* %12) #3
  %14 = load %"class.std::vector.0"*, %"class.std::vector.0"** %4, align 8
  %15 = bitcast %"class.std::vector.0"* %14 to %"struct.std::_Vector_base.1"*
  %16 = call dereferenceable(1) %"class.std::allocator.2"* @_ZNKSt12_Vector_baseIxSaIxEE19_M_get_Tp_allocatorEv(%"struct.std::_Vector_base.1"* %15) #3
  call void @_ZN9__gnu_cxx14__alloc_traitsISaIxEE17_S_select_on_copyERKS1_(%"class.std::allocator.2"* sret %5, %"class.std::allocator.2"* dereferenceable(1) %16)
  invoke void @_ZNSt12_Vector_baseIxSaIxEEC2EmRKS0_(%"struct.std::_Vector_base.1"* %11, i64 %13, %"class.std::allocator.2"* dereferenceable(1) %5)
          to label %17 unwind label %39

; <label>:17:                                     ; preds = %2
  call void @_ZNSaIxED2Ev(%"class.std::allocator.2"* %5) #3
  %18 = load %"class.std::vector.0"*, %"class.std::vector.0"** %4, align 8
  %19 = call i64* @_ZNKSt6vectorIxSaIxEE5beginEv(%"class.std::vector.0"* %18) #3
  %20 = getelementptr inbounds %"class.__gnu_cxx::__normal_iterator.46", %"class.__gnu_cxx::__normal_iterator.46"* %8, i32 0, i32 0
  store i64* %19, i64** %20, align 8
  %21 = load %"class.std::vector.0"*, %"class.std::vector.0"** %4, align 8
  %22 = call i64* @_ZNKSt6vectorIxSaIxEE3endEv(%"class.std::vector.0"* %21) #3
  %23 = getelementptr inbounds %"class.__gnu_cxx::__normal_iterator.46", %"class.__gnu_cxx::__normal_iterator.46"* %9, i32 0, i32 0
  store i64* %22, i64** %23, align 8
  %24 = bitcast %"class.std::vector.0"* %10 to %"struct.std::_Vector_base.1"*
  %25 = getelementptr inbounds %"struct.std::_Vector_base.1", %"struct.std::_Vector_base.1"* %24, i32 0, i32 0
  %26 = getelementptr inbounds %"struct.std::_Vector_base<long long, std::allocator<long long> >::_Vector_impl", %"struct.std::_Vector_base<long long, std::allocator<long long> >::_Vector_impl"* %25, i32 0, i32 0
  %27 = load i64*, i64** %26, align 8
  %28 = bitcast %"class.std::vector.0"* %10 to %"struct.std::_Vector_base.1"*
  %29 = call dereferenceable(1) %"class.std::allocator.2"* @_ZNSt12_Vector_baseIxSaIxEE19_M_get_Tp_allocatorEv(%"struct.std::_Vector_base.1"* %28) #3
  %30 = getelementptr inbounds %"class.__gnu_cxx::__normal_iterator.46", %"class.__gnu_cxx::__normal_iterator.46"* %8, i32 0, i32 0
  %31 = load i64*, i64** %30, align 8
  %32 = getelementptr inbounds %"class.__gnu_cxx::__normal_iterator.46", %"class.__gnu_cxx::__normal_iterator.46"* %9, i32 0, i32 0
  %33 = load i64*, i64** %32, align 8
  %34 = invoke i64* @_ZSt22__uninitialized_copy_aIN9__gnu_cxx17__normal_iteratorIPKxSt6vectorIxSaIxEEEEPxxET0_T_SA_S9_RSaIT1_E(i64* %31, i64* %33, i64* %27, %"class.std::allocator.2"* dereferenceable(1) %29)
          to label %35 unwind label %43

; <label>:35:                                     ; preds = %17
  %36 = bitcast %"class.std::vector.0"* %10 to %"struct.std::_Vector_base.1"*
  %37 = getelementptr inbounds %"struct.std::_Vector_base.1", %"struct.std::_Vector_base.1"* %36, i32 0, i32 0
  %38 = getelementptr inbounds %"struct.std::_Vector_base<long long, std::allocator<long long> >::_Vector_impl", %"struct.std::_Vector_base<long long, std::allocator<long long> >::_Vector_impl"* %37, i32 0, i32 1
  store i64* %34, i64** %38, align 8
  ret void

; <label>:39:                                     ; preds = %2
  %40 = landingpad { i8*, i32 }
          cleanup
  %41 = extractvalue { i8*, i32 } %40, 0
  store i8* %41, i8** %6, align 8
  %42 = extractvalue { i8*, i32 } %40, 1
  store i32 %42, i32* %7, align 4
  call void @_ZNSaIxED2Ev(%"class.std::allocator.2"* %5) #3
  br label %48

; <label>:43:                                     ; preds = %17
  %44 = landingpad { i8*, i32 }
          cleanup
  %45 = extractvalue { i8*, i32 } %44, 0
  store i8* %45, i8** %6, align 8
  %46 = extractvalue { i8*, i32 } %44, 1
  store i32 %46, i32* %7, align 4
  %47 = bitcast %"class.std::vector.0"* %10 to %"struct.std::_Vector_base.1"*
  call void @_ZNSt12_Vector_baseIxSaIxEED2Ev(%"struct.std::_Vector_base.1"* %47) #3
  br label %48

; <label>:48:                                     ; preds = %43, %39
  %49 = load i8*, i8** %6, align 8
  %50 = load i32, i32* %7, align 4
  %51 = insertvalue { i8*, i32 } undef, i8* %49, 0
  %52 = insertvalue { i8*, i32 } %51, i32 %50, 1
  resume { i8*, i32 } %52
}

declare i32 @__gxx_personality_v0(...)

; Function Attrs: noinline nounwind uwtable
define linkonce_odr void @_ZNSt6vectorIxSaIxEED2Ev(%"class.std::vector.0"*) unnamed_addr #4 comdat align 2 personality i8* bitcast (i32 (...)* @__gxx_personality_v0 to i8*) {
  %2 = alloca %"class.std::vector.0"*, align 8
  %3 = alloca i8*
  %4 = alloca i32
  store %"class.std::vector.0"* %0, %"class.std::vector.0"** %2, align 8
  %5 = load %"class.std::vector.0"*, %"class.std::vector.0"** %2, align 8
  %6 = bitcast %"class.std::vector.0"* %5 to %"struct.std::_Vector_base.1"*
  %7 = getelementptr inbounds %"struct.std::_Vector_base.1", %"struct.std::_Vector_base.1"* %6, i32 0, i32 0
  %8 = getelementptr inbounds %"struct.std::_Vector_base<long long, std::allocator<long long> >::_Vector_impl", %"struct.std::_Vector_base<long long, std::allocator<long long> >::_Vector_impl"* %7, i32 0, i32 0
  %9 = load i64*, i64** %8, align 8
  %10 = bitcast %"class.std::vector.0"* %5 to %"struct.std::_Vector_base.1"*
  %11 = getelementptr inbounds %"struct.std::_Vector_base.1", %"struct.std::_Vector_base.1"* %10, i32 0, i32 0
  %12 = getelementptr inbounds %"struct.std::_Vector_base<long long, std::allocator<long long> >::_Vector_impl", %"struct.std::_Vector_base<long long, std::allocator<long long> >::_Vector_impl"* %11, i32 0, i32 1
  %13 = load i64*, i64** %12, align 8
  %14 = bitcast %"class.std::vector.0"* %5 to %"struct.std::_Vector_base.1"*
  %15 = call dereferenceable(1) %"class.std::allocator.2"* @_ZNSt12_Vector_baseIxSaIxEE19_M_get_Tp_allocatorEv(%"struct.std::_Vector_base.1"* %14) #3
  invoke void @_ZSt8_DestroyIPxxEvT_S1_RSaIT0_E(i64* %9, i64* %13, %"class.std::allocator.2"* dereferenceable(1) %15)
          to label %16 unwind label %59

; <label>:16:                                     ; preds = %1
  %17 = load i32, i32* @x.23
  %18 = load i32, i32* @y.24
  %19 = sub i32 0, 1
  %20 = add i32 %17, %19
  %21 = sub i32 %17, 1
  %22 = mul i32 %17, %20
  %23 = urem i32 %22, 2
  %24 = icmp eq i32 %23, 0
  %25 = icmp slt i32 %18, 10
  %26 = xor i1 %24, true
  %27 = xor i1 %25, true
  %28 = xor i1 false, true
  %29 = and i1 %26, false
  %30 = and i1 %24, %28
  %31 = and i1 %27, false
  %32 = and i1 %25, %28
  %33 = or i1 %29, %30
  %34 = or i1 %31, %32
  %35 = xor i1 %33, %34
  %36 = or i1 %26, %27
  %37 = xor i1 %36, true
  %38 = or i1 false, %28
  %39 = and i1 %37, %38
  %40 = or i1 %35, %39
  %41 = or i1 %24, %25
  br i1 %40, label %42, label %106

; <label>:42:                                     ; preds = %16, %106
  %43 = bitcast %"class.std::vector.0"* %5 to %"struct.std::_Vector_base.1"*
  call void @_ZNSt12_Vector_baseIxSaIxEED2Ev(%"struct.std::_Vector_base.1"* %43) #3
  %44 = load i32, i32* @x.23
  %45 = load i32, i32* @y.24
  %46 = sub i32 %44, 524145113
  %47 = sub i32 %46, 1
  %48 = add i32 %47, 524145113
  %49 = sub i32 %44, 1
  %50 = mul i32 %44, %48
  %51 = urem i32 %50, 2
  %52 = icmp eq i32 %51, 0
  %53 = icmp slt i32 %45, 10
  %54 = and i1 %52, %53
  %55 = xor i1 %52, %53
  %56 = or i1 %54, %55
  %57 = or i1 %52, %53
  br i1 %56, label %58, label %106

; <label>:58:                                     ; preds = %42
  ret void

; <label>:59:                                     ; preds = %1
  %60 = landingpad { i8*, i32 }
          catch i8* null
  %61 = extractvalue { i8*, i32 } %60, 0
  store i8* %61, i8** %3, align 8
  %62 = extractvalue { i8*, i32 } %60, 1
  store i32 %62, i32* %4, align 4
  %63 = bitcast %"class.std::vector.0"* %5 to %"struct.std::_Vector_base.1"*
  call void @_ZNSt12_Vector_baseIxSaIxEED2Ev(%"struct.std::_Vector_base.1"* %63) #3
  br label %64

; <label>:64:                                     ; preds = %59
  %65 = load i32, i32* @x.23
  %66 = load i32, i32* @y.24
  %67 = sub i32 0, 1
  %68 = add i32 %65, %67
  %69 = sub i32 %65, 1
  %70 = mul i32 %65, %68
  %71 = urem i32 %70, 2
  %72 = icmp eq i32 %71, 0
  %73 = icmp slt i32 %66, 10
  %74 = xor i1 %72, true
  %75 = xor i1 %73, true
  %76 = xor i1 false, true
  %77 = and i1 %74, false
  %78 = and i1 %72, %76
  %79 = and i1 %75, false
  %80 = and i1 %73, %76
  %81 = or i1 %77, %78
  %82 = or i1 %79, %80
  %83 = xor i1 %81, %82
  %84 = or i1 %74, %75
  %85 = xor i1 %84, true
  %86 = or i1 false, %76
  %87 = and i1 %85, %86
  %88 = or i1 %83, %87
  %89 = or i1 %72, %73
  br i1 %88, label %90, label %108

; <label>:90:                                     ; preds = %64, %108
  %91 = load i8*, i8** %3, align 8
  call void @__clang_call_terminate(i8* %91) #12
  %92 = load i32, i32* @x.23
  %93 = load i32, i32* @y.24
  %94 = sub i32 0, 1
  %95 = add i32 %92, %94
  %96 = sub i32 %92, 1
  %97 = mul i32 %92, %95
  %98 = urem i32 %97, 2
  %99 = icmp eq i32 %98, 0
  %100 = icmp slt i32 %93, 10
  %101 = and i1 %99, %100
  %102 = xor i1 %99, %100
  %103 = or i1 %101, %102
  %104 = or i1 %99, %100
  br i1 %103, label %105, label %108

; <label>:105:                                    ; preds = %90
  unreachable

; <label>:106:                                    ; preds = %42, %16
  %107 = bitcast %"class.std::vector.0"* %5 to %"struct.std::_Vector_base.1"*
  call void @_ZNSt12_Vector_baseIxSaIxEED2Ev(%"struct.std::_Vector_base.1"* %107) #3
  br label %42

; <label>:108:                                    ; preds = %90, %64
  %109 = load i8*, i8** %3, align 8
  call void @__clang_call_terminate(i8* %109) #12
  br label %90
}

; Function Attrs: noinline nounwind uwtable
define linkonce_odr void @_ZNSt6vectorIxSaIxEE8pop_backEv(%"class.std::vector.0"*) #4 comdat align 2 personality i8* bitcast (i32 (...)* @__gxx_personality_v0 to i8*) {
  %2 = alloca %"class.std::vector.0"*, align 8
  store %"class.std::vector.0"* %0, %"class.std::vector.0"** %2, align 8
  %3 = load %"class.std::vector.0"*, %"class.std::vector.0"** %2, align 8
  %4 = bitcast %"class.std::vector.0"* %3 to %"struct.std::_Vector_base.1"*
  %5 = getelementptr inbounds %"struct.std::_Vector_base.1", %"struct.std::_Vector_base.1"* %4, i32 0, i32 0
  %6 = getelementptr inbounds %"struct.std::_Vector_base<long long, std::allocator<long long> >::_Vector_impl", %"struct.std::_Vector_base<long long, std::allocator<long long> >::_Vector_impl"* %5, i32 0, i32 1
  %7 = load i64*, i64** %6, align 8
  %8 = getelementptr inbounds i64, i64* %7, i32 -1
  store i64* %8, i64** %6, align 8
  %9 = bitcast %"class.std::vector.0"* %3 to %"struct.std::_Vector_base.1"*
  %10 = getelementptr inbounds %"struct.std::_Vector_base.1", %"struct.std::_Vector_base.1"* %9, i32 0, i32 0
  %11 = bitcast %"struct.std::_Vector_base<long long, std::allocator<long long> >::_Vector_impl"* %10 to %"class.std::allocator.2"*
  %12 = bitcast %"class.std::vector.0"* %3 to %"struct.std::_Vector_base.1"*
  %13 = getelementptr inbounds %"struct.std::_Vector_base.1", %"struct.std::_Vector_base.1"* %12, i32 0, i32 0
  %14 = getelementptr inbounds %"struct.std::_Vector_base<long long, std::allocator<long long> >::_Vector_impl", %"struct.std::_Vector_base<long long, std::allocator<long long> >::_Vector_impl"* %13, i32 0, i32 1
  %15 = load i64*, i64** %14, align 8
  invoke void @_ZNSt16allocator_traitsISaIxEE7destroyIxEEvRS0_PT_(%"class.std::allocator.2"* dereferenceable(1) %11, i64* %15)
          to label %16 unwind label %17

; <label>:16:                                     ; preds = %1
  ret void

; <label>:17:                                     ; preds = %1
  %18 = load i32, i32* @x.25
  %19 = load i32, i32* @y.26
  %20 = sub i32 %18, 1563001192
  %21 = sub i32 %20, 1
  %22 = add i32 %21, 1563001192
  %23 = sub i32 %18, 1
  %24 = mul i32 %18, %22
  %25 = urem i32 %24, 2
  %26 = icmp eq i32 %25, 0
  %27 = icmp slt i32 %19, 10
  %28 = and i1 %26, %27
  %29 = xor i1 %26, %27
  %30 = or i1 %28, %29
  %31 = or i1 %26, %27
  br i1 %30, label %32, label %50

; <label>:32:                                     ; preds = %17, %50
  %33 = landingpad { i8*, i32 }
          catch i8* null
  %34 = extractvalue { i8*, i32 } %33, 0
  call void @__clang_call_terminate(i8* %34) #12
  %35 = load i32, i32* @x.25
  %36 = load i32, i32* @y.26
  %37 = sub i32 %35, -1369711218
  %38 = sub i32 %37, 1
  %39 = add i32 %38, -1369711218
  %40 = sub i32 %35, 1
  %41 = mul i32 %35, %39
  %42 = urem i32 %41, 2
  %43 = icmp eq i32 %42, 0
  %44 = icmp slt i32 %36, 10
  %45 = and i1 %43, %44
  %46 = xor i1 %43, %44
  %47 = or i1 %45, %46
  %48 = or i1 %43, %44
  br i1 %47, label %49, label %50

; <label>:49:                                     ; preds = %32
  unreachable

; <label>:50:                                     ; preds = %32, %17
  %51 = landingpad { i8*, i32 }
          catch i8* null
  %52 = extractvalue { i8*, i32 } %51, 0
  call void @__clang_call_terminate(i8* %52) #12
  br label %32
}

; Function Attrs: noinline uwtable
define i32 @_Z3bfsiiiiiiSt6vectorIS_IcSaIcEESaIS1_EE(i32, i32, i32, i32, i32, i32, %"class.std::vector.5"*) #0 personality i8* bitcast (i32 (...)* @__gxx_personality_v0 to i8*) {
  %8 = load i32, i32* @x.27
  %9 = load i32, i32* @y.28
  %10 = sub i32 %8, 523221261
  %11 = sub i32 %10, 1
  %12 = add i32 %11, 523221261
  %13 = sub i32 %8, 1
  %14 = mul i32 %8, %12
  %15 = urem i32 %14, 2
  %16 = icmp eq i32 %15, 0
  %17 = icmp slt i32 %9, 10
  %18 = and i1 %16, %17
  %19 = xor i1 %16, %17
  %20 = or i1 %18, %19
  %21 = or i1 %16, %17
  br i1 %20, label %22, label %999

; <label>:22:                                     ; preds = %7, %999
  %23 = alloca i32, align 4
  %24 = alloca i32, align 4
  %25 = alloca i32, align 4
  %26 = alloca i32, align 4
  %27 = alloca i32, align 4
  %28 = alloca i32, align 4
  %29 = alloca %"class.std::queue", align 8
  %30 = alloca %"class.std::deque", align 8
  %31 = alloca i8*
  %32 = alloca i32
  %33 = alloca %"class.std::vector", align 8
  %34 = alloca i32, align 4
  %35 = alloca %"class.std::vector.0", align 8
  %36 = alloca %"class.std::allocator.2", align 1
  %37 = alloca %"struct.std::pair", align 4
  %38 = alloca %"struct.std::pair", align 4
  %39 = alloca i32, align 4
  %40 = alloca i32, align 4
  %41 = alloca i64, align 8
  %42 = alloca %"struct.std::pair", align 4
  %43 = alloca i32, align 4
  %44 = alloca i32, align 4
  store i32 %0, i32* %23, align 4
  store i32 %1, i32* %24, align 4
  store i32 %2, i32* %25, align 4
  store i32 %3, i32* %26, align 4
  store i32 %4, i32* %27, align 4
  store i32 %5, i32* %28, align 4
  call void @_ZNSt5dequeISt4pairIiiESaIS1_EEC2Ev(%"class.std::deque"* %30)
  %45 = load i32, i32* @x.27
  %46 = load i32, i32* @y.28
  %47 = sub i32 0, 1
  %48 = add i32 %45, %47
  %49 = sub i32 %45, 1
  %50 = mul i32 %45, %48
  %51 = urem i32 %50, 2
  %52 = icmp eq i32 %51, 0
  %53 = icmp slt i32 %46, 10
  %54 = xor i1 %52, true
  %55 = xor i1 %53, true
  %56 = xor i1 false, true
  %57 = and i1 %54, false
  %58 = and i1 %52, %56
  %59 = and i1 %55, false
  %60 = and i1 %53, %56
  %61 = or i1 %57, %58
  %62 = or i1 %59, %60
  %63 = xor i1 %61, %62
  %64 = or i1 %54, %55
  %65 = xor i1 %64, true
  %66 = or i1 false, %56
  %67 = and i1 %65, %66
  %68 = or i1 %63, %67
  %69 = or i1 %52, %53
  br i1 %68, label %70, label %999

; <label>:70:                                     ; preds = %22
  invoke void @_ZNSt5queueISt4pairIiiESt5dequeIS1_SaIS1_EEEC2EOS4_(%"class.std::queue"* %29, %"class.std::deque"* dereferenceable(80) %30)
          to label %71 unwind label %210

; <label>:71:                                     ; preds = %70
  %72 = load i32, i32* @x.27
  %73 = load i32, i32* @y.28
  %74 = sub i32 0, 1
  %75 = add i32 %72, %74
  %76 = sub i32 %72, 1
  %77 = mul i32 %72, %75
  %78 = urem i32 %77, 2
  %79 = icmp eq i32 %78, 0
  %80 = icmp slt i32 %73, 10
  %81 = xor i1 %79, true
  %82 = xor i1 %80, true
  %83 = xor i1 true, true
  %84 = and i1 %81, true
  %85 = and i1 %79, %83
  %86 = and i1 %82, true
  %87 = and i1 %80, %83
  %88 = or i1 %84, %85
  %89 = or i1 %86, %87
  %90 = xor i1 %88, %89
  %91 = or i1 %81, %82
  %92 = xor i1 %91, true
  %93 = or i1 true, %83
  %94 = and i1 %92, %93
  %95 = or i1 %90, %94
  %96 = or i1 %79, %80
  br i1 %95, label %97, label %1022

; <label>:97:                                     ; preds = %71, %1022
  call void @_ZNSt5dequeISt4pairIiiESaIS1_EED2Ev(%"class.std::deque"* %30) #3
  call void @_ZNSt6vectorIS_IxSaIxEESaIS1_EEC2Ev(%"class.std::vector"* %33) #3
  store i32 0, i32* %34, align 4
  %98 = load i32, i32* @x.27
  %99 = load i32, i32* @y.28
  %100 = sub i32 %98, 1364724188
  %101 = sub i32 %100, 1
  %102 = add i32 %101, 1364724188
  %103 = sub i32 %98, 1
  %104 = mul i32 %98, %102
  %105 = urem i32 %104, 2
  %106 = icmp eq i32 %105, 0
  %107 = icmp slt i32 %99, 10
  %108 = and i1 %106, %107
  %109 = xor i1 %106, %107
  %110 = or i1 %108, %109
  %111 = or i1 %106, %107
  br i1 %110, label %112, label %1022

; <label>:112:                                    ; preds = %97
  br label %113

; <label>:113:                                    ; preds = %209, %112
  %114 = load i32, i32* @x.27
  %115 = load i32, i32* @y.28
  %116 = sub i32 0, 1
  %117 = add i32 %114, %116
  %118 = sub i32 %114, 1
  %119 = mul i32 %114, %117
  %120 = urem i32 %119, 2
  %121 = icmp eq i32 %120, 0
  %122 = icmp slt i32 %115, 10
  %123 = xor i1 %121, true
  %124 = xor i1 %122, true
  %125 = xor i1 true, true
  %126 = and i1 %123, true
  %127 = and i1 %121, %125
  %128 = and i1 %124, true
  %129 = and i1 %122, %125
  %130 = or i1 %126, %127
  %131 = or i1 %128, %129
  %132 = xor i1 %130, %131
  %133 = or i1 %123, %124
  %134 = xor i1 %133, true
  %135 = or i1 true, %125
  %136 = and i1 %134, %135
  %137 = or i1 %132, %136
  %138 = or i1 %121, %122
  br i1 %137, label %139, label %1023

; <label>:139:                                    ; preds = %113, %1023
  %140 = load i32, i32* %34, align 4
  %141 = load i32, i32* %27, align 4
  %142 = icmp slt i32 %140, %141
  %143 = load i32, i32* @x.27
  %144 = load i32, i32* @y.28
  %145 = sub i32 0, 1
  %146 = add i32 %143, %145
  %147 = sub i32 %143, 1
  %148 = mul i32 %143, %146
  %149 = urem i32 %148, 2
  %150 = icmp eq i32 %149, 0
  %151 = icmp slt i32 %144, 10
  %152 = and i1 %150, %151
  %153 = xor i1 %150, %151
  %154 = or i1 %152, %153
  %155 = or i1 %150, %151
  br i1 %154, label %156, label %1023

; <label>:156:                                    ; preds = %139
  br i1 %142, label %157, label %276

; <label>:157:                                    ; preds = %156
  %158 = load i32, i32* %28, align 4
  %159 = sext i32 %158 to i64
  call void @_ZNSaIxEC2Ev(%"class.std::allocator.2"* %36) #3
  invoke void @_ZNSt6vectorIxSaIxEEC2EmRKS0_(%"class.std::vector.0"* %35, i64 %159, %"class.std::allocator.2"* dereferenceable(1) %36)
          to label %160 unwind label %214

; <label>:160:                                    ; preds = %157
  call void @_ZNSaIxED2Ev(%"class.std::allocator.2"* %36) #3
  invoke void @_ZNSt6vectorIS_IxSaIxEESaIS1_EE9push_backERKS1_(%"class.std::vector"* %33, %"class.std::vector.0"* dereferenceable(24) %35)
          to label %161 unwind label %272

; <label>:161:                                    ; preds = %160
  call void @_ZNSt6vectorIxSaIxEED2Ev(%"class.std::vector.0"* %35) #3
  br label %162

; <label>:162:                                    ; preds = %161
  %163 = load i32, i32* @x.27
  %164 = load i32, i32* @y.28
  %165 = add i32 %163, -1306329225
  %166 = sub i32 %165, 1
  %167 = sub i32 %166, -1306329225
  %168 = sub i32 %163, 1
  %169 = mul i32 %163, %167
  %170 = urem i32 %169, 2
  %171 = icmp eq i32 %170, 0
  %172 = icmp slt i32 %164, 10
  %173 = and i1 %171, %172
  %174 = xor i1 %171, %172
  %175 = or i1 %173, %174
  %176 = or i1 %171, %172
  br i1 %175, label %177, label %1027

; <label>:177:                                    ; preds = %162, %1027
  %178 = load i32, i32* %34, align 4
  %179 = add i32 %178, 841706809
  %180 = add i32 %179, 1
  %181 = sub i32 %180, 841706809
  %182 = add nsw i32 %178, 1
  store i32 %181, i32* %34, align 4
  %183 = load i32, i32* @x.27
  %184 = load i32, i32* @y.28
  %185 = add i32 %183, -820439878
  %186 = sub i32 %185, 1
  %187 = sub i32 %186, -820439878
  %188 = sub i32 %183, 1
  %189 = mul i32 %183, %187
  %190 = urem i32 %189, 2
  %191 = icmp eq i32 %190, 0
  %192 = icmp slt i32 %184, 10
  %193 = xor i1 %191, true
  %194 = xor i1 %192, true
  %195 = xor i1 true, true
  %196 = and i1 %193, true
  %197 = and i1 %191, %195
  %198 = and i1 %194, true
  %199 = and i1 %192, %195
  %200 = or i1 %196, %197
  %201 = or i1 %198, %199
  %202 = xor i1 %200, %201
  %203 = or i1 %193, %194
  %204 = xor i1 %203, true
  %205 = or i1 true, %195
  %206 = and i1 %204, %205
  %207 = or i1 %202, %206
  %208 = or i1 %191, %192
  br i1 %207, label %209, label %1027

; <label>:209:                                    ; preds = %177
  br label %113

; <label>:210:                                    ; preds = %70
  %211 = landingpad { i8*, i32 }
          cleanup
  %212 = extractvalue { i8*, i32 } %211, 0
  store i8* %212, i8** %31, align 8
  %213 = extractvalue { i8*, i32 } %211, 1
  store i32 %213, i32* %32, align 4
  call void @_ZNSt5dequeISt4pairIiiESaIS1_EED2Ev(%"class.std::deque"* %30) #3
  br label %994

; <label>:214:                                    ; preds = %157
  %215 = load i32, i32* @x.27
  %216 = load i32, i32* @y.28
  %217 = sub i32 %215, -2018742179
  %218 = sub i32 %217, 1
  %219 = add i32 %218, -2018742179
  %220 = sub i32 %215, 1
  %221 = mul i32 %215, %219
  %222 = urem i32 %221, 2
  %223 = icmp eq i32 %222, 0
  %224 = icmp slt i32 %216, 10
  %225 = xor i1 %223, true
  %226 = xor i1 %224, true
  %227 = xor i1 false, true
  %228 = and i1 %225, false
  %229 = and i1 %223, %227
  %230 = and i1 %226, false
  %231 = and i1 %224, %227
  %232 = or i1 %228, %229
  %233 = or i1 %230, %231
  %234 = xor i1 %232, %233
  %235 = or i1 %225, %226
  %236 = xor i1 %235, true
  %237 = or i1 false, %227
  %238 = and i1 %236, %237
  %239 = or i1 %234, %238
  %240 = or i1 %223, %224
  br i1 %239, label %241, label %1039

; <label>:241:                                    ; preds = %214, %1039
  %242 = landingpad { i8*, i32 }
          cleanup
  %243 = extractvalue { i8*, i32 } %242, 0
  store i8* %243, i8** %31, align 8
  %244 = extractvalue { i8*, i32 } %242, 1
  store i32 %244, i32* %32, align 4
  call void @_ZNSaIxED2Ev(%"class.std::allocator.2"* %36) #3
  %245 = load i32, i32* @x.27
  %246 = load i32, i32* @y.28
  %247 = sub i32 %245, 1243970415
  %248 = sub i32 %247, 1
  %249 = add i32 %248, 1243970415
  %250 = sub i32 %245, 1
  %251 = mul i32 %245, %249
  %252 = urem i32 %251, 2
  %253 = icmp eq i32 %252, 0
  %254 = icmp slt i32 %246, 10
  %255 = xor i1 %253, true
  %256 = xor i1 %254, true
  %257 = xor i1 true, true
  %258 = and i1 %255, true
  %259 = and i1 %253, %257
  %260 = and i1 %256, true
  %261 = and i1 %254, %257
  %262 = or i1 %258, %259
  %263 = or i1 %260, %261
  %264 = xor i1 %262, %263
  %265 = or i1 %255, %256
  %266 = xor i1 %265, true
  %267 = or i1 true, %257
  %268 = and i1 %266, %267
  %269 = or i1 %264, %268
  %270 = or i1 %253, %254
  br i1 %269, label %271, label %1039

; <label>:271:                                    ; preds = %241
  br label %993

; <label>:272:                                    ; preds = %160
  %273 = landingpad { i8*, i32 }
          cleanup
  %274 = extractvalue { i8*, i32 } %273, 0
  store i8* %274, i8** %31, align 8
  %275 = extractvalue { i8*, i32 } %273, 1
  store i32 %275, i32* %32, align 4
  call void @_ZNSt6vectorIxSaIxEED2Ev(%"class.std::vector.0"* %35) #3
  br label %993

; <label>:276:                                    ; preds = %156
  %277 = invoke i64 @_ZSt9make_pairIRiS0_ESt4pairINSt17__decay_and_stripIT_E6__typeENS2_IT0_E6__typeEEOS3_OS6_(i32* dereferenceable(4) %23, i32* dereferenceable(4) %24)
          to label %278 unwind label %451

; <label>:278:                                    ; preds = %276
  %279 = load i32, i32* @x.27
  %280 = load i32, i32* @y.28
  %281 = sub i32 %279, 888685800
  %282 = sub i32 %281, 1
  %283 = add i32 %282, 888685800
  %284 = sub i32 %279, 1
  %285 = mul i32 %279, %283
  %286 = urem i32 %285, 2
  %287 = icmp eq i32 %286, 0
  %288 = icmp slt i32 %280, 10
  %289 = xor i1 %287, true
  %290 = xor i1 %288, true
  %291 = xor i1 false, true
  %292 = and i1 %289, false
  %293 = and i1 %287, %291
  %294 = and i1 %290, false
  %295 = and i1 %288, %291
  %296 = or i1 %292, %293
  %297 = or i1 %294, %295
  %298 = xor i1 %296, %297
  %299 = or i1 %289, %290
  %300 = xor i1 %299, true
  %301 = or i1 false, %291
  %302 = and i1 %300, %301
  %303 = or i1 %298, %302
  %304 = or i1 %287, %288
  br i1 %303, label %305, label %1043

; <label>:305:                                    ; preds = %278, %1043
  %306 = bitcast %"struct.std::pair"* %37 to i64*
  store i64 %277, i64* %306, align 4
  %307 = load i32, i32* @x.27
  %308 = load i32, i32* @y.28
  %309 = sub i32 %307, 250052861
  %310 = sub i32 %309, 1
  %311 = add i32 %310, 250052861
  %312 = sub i32 %307, 1
  %313 = mul i32 %307, %311
  %314 = urem i32 %313, 2
  %315 = icmp eq i32 %314, 0
  %316 = icmp slt i32 %308, 10
  %317 = xor i1 %315, true
  %318 = xor i1 %316, true
  %319 = xor i1 true, true
  %320 = and i1 %317, true
  %321 = and i1 %315, %319
  %322 = and i1 %318, true
  %323 = and i1 %316, %319
  %324 = or i1 %320, %321
  %325 = or i1 %322, %323
  %326 = xor i1 %324, %325
  %327 = or i1 %317, %318
  %328 = xor i1 %327, true
  %329 = or i1 true, %319
  %330 = and i1 %328, %329
  %331 = or i1 %326, %330
  %332 = or i1 %315, %316
  br i1 %331, label %333, label %1043

; <label>:333:                                    ; preds = %305
  invoke void @_ZNSt5queueISt4pairIiiESt5dequeIS1_SaIS1_EEE4pushEOS1_(%"class.std::queue"* %29, %"struct.std::pair"* dereferenceable(8) %37)
          to label %334 unwind label %451

; <label>:334:                                    ; preds = %333
  %335 = load i32, i32* @x.27
  %336 = load i32, i32* @y.28
  %337 = add i32 %335, 1097780624
  %338 = sub i32 %337, 1
  %339 = sub i32 %338, 1097780624
  %340 = sub i32 %335, 1
  %341 = mul i32 %335, %339
  %342 = urem i32 %341, 2
  %343 = icmp eq i32 %342, 0
  %344 = icmp slt i32 %336, 10
  %345 = and i1 %343, %344
  %346 = xor i1 %343, %344
  %347 = or i1 %345, %346
  %348 = or i1 %343, %344
  br i1 %347, label %349, label %1045

; <label>:349:                                    ; preds = %334, %1045
  %350 = load i32, i32* @x.27
  %351 = load i32, i32* @y.28
  %352 = add i32 %350, -1461835455
  %353 = sub i32 %352, 1
  %354 = sub i32 %353, -1461835455
  %355 = sub i32 %350, 1
  %356 = mul i32 %350, %354
  %357 = urem i32 %356, 2
  %358 = icmp eq i32 %357, 0
  %359 = icmp slt i32 %351, 10
  %360 = and i1 %358, %359
  %361 = xor i1 %358, %359
  %362 = or i1 %360, %361
  %363 = or i1 %358, %359
  br i1 %362, label %364, label %1045

; <label>:364:                                    ; preds = %349
  br label %365

; <label>:365:                                    ; preds = %983, %364
  %366 = invoke i64 @_ZNKSt5queueISt4pairIiiESt5dequeIS1_SaIS1_EEE4sizeEv(%"class.std::queue"* %29)
          to label %367 unwind label %451

; <label>:367:                                    ; preds = %365
  %368 = load i32, i32* @x.27
  %369 = load i32, i32* @y.28
  %370 = sub i32 0, 1
  %371 = add i32 %368, %370
  %372 = sub i32 %368, 1
  %373 = mul i32 %368, %371
  %374 = urem i32 %373, 2
  %375 = icmp eq i32 %374, 0
  %376 = icmp slt i32 %369, 10
  %377 = and i1 %375, %376
  %378 = xor i1 %375, %376
  %379 = or i1 %377, %378
  %380 = or i1 %375, %376
  br i1 %379, label %381, label %1046

; <label>:381:                                    ; preds = %367, %1046
  %382 = icmp ugt i64 %366, 0
  %383 = load i32, i32* @x.27
  %384 = load i32, i32* @y.28
  %385 = add i32 %383, -1911711545
  %386 = sub i32 %385, 1
  %387 = sub i32 %386, -1911711545
  %388 = sub i32 %383, 1
  %389 = mul i32 %383, %387
  %390 = urem i32 %389, 2
  %391 = icmp eq i32 %390, 0
  %392 = icmp slt i32 %384, 10
  %393 = xor i1 %391, true
  %394 = xor i1 %392, true
  %395 = xor i1 true, true
  %396 = and i1 %393, true
  %397 = and i1 %391, %395
  %398 = and i1 %394, true
  %399 = and i1 %392, %395
  %400 = or i1 %396, %397
  %401 = or i1 %398, %399
  %402 = xor i1 %400, %401
  %403 = or i1 %393, %394
  %404 = xor i1 %403, true
  %405 = or i1 true, %395
  %406 = and i1 %404, %405
  %407 = or i1 %402, %406
  %408 = or i1 %391, %392
  br i1 %407, label %409, label %1046

; <label>:409:                                    ; preds = %381
  br i1 %382, label %410, label %984

; <label>:410:                                    ; preds = %409
  %411 = invoke dereferenceable(8) %"struct.std::pair"* @_ZNSt5queueISt4pairIiiESt5dequeIS1_SaIS1_EEE5frontEv(%"class.std::queue"* %29)
          to label %412 unwind label %451

; <label>:412:                                    ; preds = %410
  %413 = bitcast %"struct.std::pair"* %38 to i8*
  %414 = bitcast %"struct.std::pair"* %411 to i8*
  call void @llvm.memcpy.p0i8.p0i8.i64(i8* %413, i8* %414, i64 8, i32 4, i1 false)
  invoke void @_ZNSt5queueISt4pairIiiESt5dequeIS1_SaIS1_EEE3popEv(%"class.std::queue"* %29)
          to label %415 unwind label %451

; <label>:415:                                    ; preds = %412
  %416 = getelementptr inbounds %"struct.std::pair", %"struct.std::pair"* %38, i32 0, i32 0
  %417 = load i32, i32* %416, align 4
  %418 = sext i32 %417 to i64
  %419 = call dereferenceable(24) %"class.std::vector.10"* @_ZNSt6vectorIS_IcSaIcEESaIS1_EEixEm(%"class.std::vector.5"* %6, i64 %418) #3
  %420 = getelementptr inbounds %"struct.std::pair", %"struct.std::pair"* %38, i32 0, i32 1
  %421 = load i32, i32* %420, align 4
  %422 = sext i32 %421 to i64
  %423 = call dereferenceable(1) i8* @_ZNSt6vectorIcSaIcEEixEm(%"class.std::vector.10"* %419, i64 %422) #3
  store i8 35, i8* %423, align 1
  store i32 -1, i32* %39, align 4
  br label %424

; <label>:424:                                    ; preds = %935, %415
  %425 = load i32, i32* %39, align 4
  %426 = icmp sle i32 %425, 1
  br i1 %426, label %427, label %941

; <label>:427:                                    ; preds = %424
  store i32 -1, i32* %40, align 4
  br label %428

; <label>:428:                                    ; preds = %875, %427
  %429 = load i32, i32* %40, align 4
  %430 = icmp sle i32 %429, 1
  br i1 %430, label %431, label %881

; <label>:431:                                    ; preds = %428
  %432 = getelementptr inbounds %"struct.std::pair", %"struct.std::pair"* %38, i32 0, i32 0
  %433 = load i32, i32* %432, align 4
  %434 = load i32, i32* %39, align 4
  %435 = sub i32 %433, 192868763
  %436 = add i32 %435, %434
  %437 = add i32 %436, 192868763
  %438 = add nsw i32 %433, %434
  %439 = icmp slt i32 %437, 0
  br i1 %439, label %450, label %440

; <label>:440:                                    ; preds = %431
  %441 = getelementptr inbounds %"struct.std::pair", %"struct.std::pair"* %38, i32 0, i32 0
  %442 = load i32, i32* %441, align 4
  %443 = load i32, i32* %39, align 4
  %444 = sub i32 %442, 377632293
  %445 = add i32 %444, %443
  %446 = add i32 %445, 377632293
  %447 = add nsw i32 %442, %443
  %448 = load i32, i32* %27, align 4
  %449 = icmp sge i32 %446, %448
  br i1 %449, label %450, label %455

; <label>:450:                                    ; preds = %440, %431
  br label %875

; <label>:451:                                    ; preds = %873, %829, %722, %412, %410, %365, %333, %276
  %452 = landingpad { i8*, i32 }
          cleanup
  %453 = extractvalue { i8*, i32 } %452, 0
  store i8* %453, i8** %31, align 8
  %454 = extractvalue { i8*, i32 } %452, 1
  store i32 %454, i32* %32, align 4
  br label %993

; <label>:455:                                    ; preds = %440
  %456 = getelementptr inbounds %"struct.std::pair", %"struct.std::pair"* %38, i32 0, i32 1
  %457 = load i32, i32* %456, align 4
  %458 = load i32, i32* %40, align 4
  %459 = sub i32 0, %457
  %460 = sub i32 0, %458
  %461 = add i32 %459, %460
  %462 = sub i32 0, %461
  %463 = add nsw i32 %457, %458
  %464 = icmp slt i32 %462, 0
  br i1 %464, label %476, label %465

; <label>:465:                                    ; preds = %455
  %466 = getelementptr inbounds %"struct.std::pair", %"struct.std::pair"* %38, i32 0, i32 1
  %467 = load i32, i32* %466, align 4
  %468 = load i32, i32* %40, align 4
  %469 = sub i32 0, %467
  %470 = sub i32 0, %468
  %471 = add i32 %469, %470
  %472 = sub i32 0, %471
  %473 = add nsw i32 %467, %468
  %474 = load i32, i32* %28, align 4
  %475 = icmp sge i32 %472, %474
  br i1 %475, label %476, label %518

; <label>:476:                                    ; preds = %465, %455
  %477 = load i32, i32* @x.27
  %478 = load i32, i32* @y.28
  %479 = sub i32 0, 1
  %480 = add i32 %477, %479
  %481 = sub i32 %477, 1
  %482 = mul i32 %477, %480
  %483 = urem i32 %482, 2
  %484 = icmp eq i32 %483, 0
  %485 = icmp slt i32 %478, 10
  %486 = and i1 %484, %485
  %487 = xor i1 %484, %485
  %488 = or i1 %486, %487
  %489 = or i1 %484, %485
  br i1 %488, label %490, label %1048

; <label>:490:                                    ; preds = %476, %1048
  %491 = load i32, i32* @x.27
  %492 = load i32, i32* @y.28
  %493 = sub i32 %491, 1925884285
  %494 = sub i32 %493, 1
  %495 = add i32 %494, 1925884285
  %496 = sub i32 %491, 1
  %497 = mul i32 %491, %495
  %498 = urem i32 %497, 2
  %499 = icmp eq i32 %498, 0
  %500 = icmp slt i32 %492, 10
  %501 = xor i1 %499, true
  %502 = xor i1 %500, true
  %503 = xor i1 false, true
  %504 = and i1 %501, false
  %505 = and i1 %499, %503
  %506 = and i1 %502, false
  %507 = and i1 %500, %503
  %508 = or i1 %504, %505
  %509 = or i1 %506, %507
  %510 = xor i1 %508, %509
  %511 = or i1 %501, %502
  %512 = xor i1 %511, true
  %513 = or i1 false, %503
  %514 = and i1 %512, %513
  %515 = or i1 %510, %514
  %516 = or i1 %499, %500
  br i1 %515, label %517, label %1048

; <label>:517:                                    ; preds = %490
  br label %875

; <label>:518:                                    ; preds = %465
  %519 = load i32, i32* %39, align 4
  %520 = icmp ne i32 %519, 0
  br i1 %520, label %521, label %525

; <label>:521:                                    ; preds = %518
  %522 = load i32, i32* %40, align 4
  %523 = icmp ne i32 %522, 0
  br i1 %523, label %524, label %525

; <label>:524:                                    ; preds = %521
  br label %875

; <label>:525:                                    ; preds = %521, %518
  %526 = load i32, i32* %39, align 4
  %527 = icmp eq i32 %526, 0
  br i1 %527, label %528, label %585

; <label>:528:                                    ; preds = %525
  %529 = load i32, i32* %40, align 4
  %530 = icmp eq i32 %529, 0
  br i1 %530, label %531, label %585

; <label>:531:                                    ; preds = %528
  %532 = load i32, i32* @x.27
  %533 = load i32, i32* @y.28
  %534 = sub i32 0, 1
  %535 = add i32 %532, %534
  %536 = sub i32 %532, 1
  %537 = mul i32 %532, %535
  %538 = urem i32 %537, 2
  %539 = icmp eq i32 %538, 0
  %540 = icmp slt i32 %533, 10
  %541 = xor i1 %539, true
  %542 = xor i1 %540, true
  %543 = xor i1 true, true
  %544 = and i1 %541, true
  %545 = and i1 %539, %543
  %546 = and i1 %542, true
  %547 = and i1 %540, %543
  %548 = or i1 %544, %545
  %549 = or i1 %546, %547
  %550 = xor i1 %548, %549
  %551 = or i1 %541, %542
  %552 = xor i1 %551, true
  %553 = or i1 true, %543
  %554 = and i1 %552, %553
  %555 = or i1 %550, %554
  %556 = or i1 %539, %540
  br i1 %555, label %557, label %1049

; <label>:557:                                    ; preds = %531, %1049
  %558 = load i32, i32* @x.27
  %559 = load i32, i32* @y.28
  %560 = sub i32 %558, -678938954
  %561 = sub i32 %560, 1
  %562 = add i32 %561, -678938954
  %563 = sub i32 %558, 1
  %564 = mul i32 %558, %562
  %565 = urem i32 %564, 2
  %566 = icmp eq i32 %565, 0
  %567 = icmp slt i32 %559, 10
  %568 = xor i1 %566, true
  %569 = xor i1 %567, true
  %570 = xor i1 true, true
  %571 = and i1 %568, true
  %572 = and i1 %566, %570
  %573 = and i1 %569, true
  %574 = and i1 %567, %570
  %575 = or i1 %571, %572
  %576 = or i1 %573, %574
  %577 = xor i1 %575, %576
  %578 = or i1 %568, %569
  %579 = xor i1 %578, true
  %580 = or i1 true, %570
  %581 = and i1 %579, %580
  %582 = or i1 %577, %581
  %583 = or i1 %566, %567
  br i1 %582, label %584, label %1049

; <label>:584:                                    ; preds = %557
  br label %875

; <label>:585:                                    ; preds = %528, %525
  %586 = load i32, i32* @x.27
  %587 = load i32, i32* @y.28
  %588 = sub i32 %586, 312166236
  %589 = sub i32 %588, 1
  %590 = add i32 %589, 312166236
  %591 = sub i32 %586, 1
  %592 = mul i32 %586, %590
  %593 = urem i32 %592, 2
  %594 = icmp eq i32 %593, 0
  %595 = icmp slt i32 %587, 10
  %596 = xor i1 %594, true
  %597 = xor i1 %595, true
  %598 = xor i1 true, true
  %599 = and i1 %596, true
  %600 = and i1 %594, %598
  %601 = and i1 %597, true
  %602 = and i1 %595, %598
  %603 = or i1 %599, %600
  %604 = or i1 %601, %602
  %605 = xor i1 %603, %604
  %606 = or i1 %596, %597
  %607 = xor i1 %606, true
  %608 = or i1 true, %598
  %609 = and i1 %607, %608
  %610 = or i1 %605, %609
  %611 = or i1 %594, %595
  br i1 %610, label %612, label %1050

; <label>:612:                                    ; preds = %585, %1050
  %613 = getelementptr inbounds %"struct.std::pair", %"struct.std::pair"* %38, i32 0, i32 0
  %614 = load i32, i32* %613, align 4
  %615 = load i32, i32* %39, align 4
  %616 = sub i32 0, %614
  %617 = sub i32 0, %615
  %618 = add i32 %616, %617
  %619 = sub i32 0, %618
  %620 = add nsw i32 %614, %615
  %621 = sext i32 %619 to i64
  %622 = call dereferenceable(24) %"class.std::vector.10"* @_ZNSt6vectorIS_IcSaIcEESaIS1_EEixEm(%"class.std::vector.5"* %6, i64 %621) #3
  %623 = getelementptr inbounds %"struct.std::pair", %"struct.std::pair"* %38, i32 0, i32 1
  %624 = load i32, i32* %623, align 4
  %625 = load i32, i32* %40, align 4
  %626 = sub i32 %624, -1347997370
  %627 = add i32 %626, %625
  %628 = add i32 %627, -1347997370
  %629 = add nsw i32 %624, %625
  %630 = sext i32 %628 to i64
  %631 = call dereferenceable(1) i8* @_ZNSt6vectorIcSaIcEEixEm(%"class.std::vector.10"* %622, i64 %630) #3
  %632 = load i8, i8* %631, align 1
  %633 = sext i8 %632 to i32
  %634 = icmp eq i32 %633, 35
  %635 = load i32, i32* @x.27
  %636 = load i32, i32* @y.28
  %637 = sub i32 %635, -863780553
  %638 = sub i32 %637, 1
  %639 = add i32 %638, -863780553
  %640 = sub i32 %635, 1
  %641 = mul i32 %635, %639
  %642 = urem i32 %641, 2
  %643 = icmp eq i32 %642, 0
  %644 = icmp slt i32 %636, 10
  %645 = and i1 %643, %644
  %646 = xor i1 %643, %644
  %647 = or i1 %645, %646
  %648 = or i1 %643, %644
  br i1 %647, label %649, label %1050

; <label>:649:                                    ; preds = %612
  br i1 %634, label %650, label %651

; <label>:650:                                    ; preds = %649
  br label %875

; <label>:651:                                    ; preds = %649
  %652 = getelementptr inbounds %"struct.std::pair", %"struct.std::pair"* %38, i32 0, i32 0
  %653 = load i32, i32* %652, align 4
  %654 = load i32, i32* %39, align 4
  %655 = add i32 %653, 1644481436
  %656 = add i32 %655, %654
  %657 = sub i32 %656, 1644481436
  %658 = add nsw i32 %653, %654
  %659 = sext i32 %657 to i64
  %660 = call dereferenceable(24) %"class.std::vector.10"* @_ZNSt6vectorIS_IcSaIcEESaIS1_EEixEm(%"class.std::vector.5"* %6, i64 %659) #3
  %661 = getelementptr inbounds %"struct.std::pair", %"struct.std::pair"* %38, i32 0, i32 1
  %662 = load i32, i32* %661, align 4
  %663 = load i32, i32* %40, align 4
  %664 = sub i32 0, %663
  %665 = sub i32 %662, %664
  %666 = add nsw i32 %662, %663
  %667 = sext i32 %665 to i64
  %668 = call dereferenceable(1) i8* @_ZNSt6vectorIcSaIcEEixEm(%"class.std::vector.10"* %660, i64 %667) #3
  store i8 35, i8* %668, align 1
  %669 = getelementptr inbounds %"struct.std::pair", %"struct.std::pair"* %38, i32 0, i32 0
  %670 = load i32, i32* %669, align 4
  %671 = load i32, i32* %39, align 4
  %672 = sub i32 %670, -1628005309
  %673 = add i32 %672, %671
  %674 = add i32 %673, -1628005309
  %675 = add nsw i32 %670, %671
  %676 = sext i32 %674 to i64
  %677 = call dereferenceable(24) %"class.std::vector.0"* @_ZNSt6vectorIS_IxSaIxEESaIS1_EEixEm(%"class.std::vector"* %33, i64 %676) #3
  %678 = getelementptr inbounds %"struct.std::pair", %"struct.std::pair"* %38, i32 0, i32 1
  %679 = load i32, i32* %678, align 4
  %680 = load i32, i32* %40, align 4
  %681 = add i32 %679, -695171522
  %682 = add i32 %681, %680
  %683 = sub i32 %682, -695171522
  %684 = add nsw i32 %679, %680
  %685 = sext i32 %683 to i64
  %686 = call dereferenceable(8) i64* @_ZNSt6vectorIxSaIxEEixEm(%"class.std::vector.0"* %677, i64 %685) #3
  %687 = load i64, i64* %686, align 8
  %688 = icmp eq i64 %687, 0
  br i1 %688, label %689, label %722

; <label>:689:                                    ; preds = %651
  %690 = getelementptr inbounds %"struct.std::pair", %"struct.std::pair"* %38, i32 0, i32 0
  %691 = load i32, i32* %690, align 4
  %692 = sext i32 %691 to i64
  %693 = call dereferenceable(24) %"class.std::vector.0"* @_ZNSt6vectorIS_IxSaIxEESaIS1_EEixEm(%"class.std::vector"* %33, i64 %692) #3
  %694 = getelementptr inbounds %"struct.std::pair", %"struct.std::pair"* %38, i32 0, i32 1
  %695 = load i32, i32* %694, align 4
  %696 = sext i32 %695 to i64
  %697 = call dereferenceable(8) i64* @_ZNSt6vectorIxSaIxEEixEm(%"class.std::vector.0"* %693, i64 %696) #3
  %698 = load i64, i64* %697, align 8
  %699 = sub i64 0, %698
  %700 = sub i64 0, 1
  %701 = add i64 %699, %700
  %702 = sub i64 0, %701
  %703 = add nsw i64 %698, 1
  %704 = getelementptr inbounds %"struct.std::pair", %"struct.std::pair"* %38, i32 0, i32 0
  %705 = load i32, i32* %704, align 4
  %706 = load i32, i32* %39, align 4
  %707 = sub i32 0, %705
  %708 = sub i32 0, %706
  %709 = add i32 %707, %708
  %710 = sub i32 0, %709
  %711 = add nsw i32 %705, %706
  %712 = sext i32 %710 to i64
  %713 = call dereferenceable(24) %"class.std::vector.0"* @_ZNSt6vectorIS_IxSaIxEESaIS1_EEixEm(%"class.std::vector"* %33, i64 %712) #3
  %714 = getelementptr inbounds %"struct.std::pair", %"struct.std::pair"* %38, i32 0, i32 1
  %715 = load i32, i32* %714, align 4
  %716 = load i32, i32* %40, align 4
  %717 = sub i32 0, %716
  %718 = sub i32 %715, %717
  %719 = add nsw i32 %715, %716
  %720 = sext i32 %718 to i64
  %721 = call dereferenceable(8) i64* @_ZNSt6vectorIxSaIxEEixEm(%"class.std::vector.0"* %713, i64 %720) #3
  store i64 %702, i64* %721, align 8
  br label %772

; <label>:722:                                    ; preds = %651
  %723 = getelementptr inbounds %"struct.std::pair", %"struct.std::pair"* %38, i32 0, i32 0
  %724 = load i32, i32* %723, align 4
  %725 = load i32, i32* %39, align 4
  %726 = sub i32 %724, 2018778110
  %727 = add i32 %726, %725
  %728 = add i32 %727, 2018778110
  %729 = add nsw i32 %724, %725
  %730 = sext i32 %728 to i64
  %731 = call dereferenceable(24) %"class.std::vector.0"* @_ZNSt6vectorIS_IxSaIxEESaIS1_EEixEm(%"class.std::vector"* %33, i64 %730) #3
  %732 = getelementptr inbounds %"struct.std::pair", %"struct.std::pair"* %38, i32 0, i32 1
  %733 = load i32, i32* %732, align 4
  %734 = load i32, i32* %40, align 4
  %735 = sub i32 0, %734
  %736 = sub i32 %733, %735
  %737 = add nsw i32 %733, %734
  %738 = sext i32 %736 to i64
  %739 = call dereferenceable(8) i64* @_ZNSt6vectorIxSaIxEEixEm(%"class.std::vector.0"* %731, i64 %738) #3
  %740 = getelementptr inbounds %"struct.std::pair", %"struct.std::pair"* %38, i32 0, i32 0
  %741 = load i32, i32* %740, align 4
  %742 = sext i32 %741 to i64
  %743 = call dereferenceable(24) %"class.std::vector.0"* @_ZNSt6vectorIS_IxSaIxEESaIS1_EEixEm(%"class.std::vector"* %33, i64 %742) #3
  %744 = getelementptr inbounds %"struct.std::pair", %"struct.std::pair"* %38, i32 0, i32 1
  %745 = load i32, i32* %744, align 4
  %746 = sext i32 %745 to i64
  %747 = call dereferenceable(8) i64* @_ZNSt6vectorIxSaIxEEixEm(%"class.std::vector.0"* %743, i64 %746) #3
  %748 = load i64, i64* %747, align 8
  %749 = sub i64 0, 1
  %750 = sub i64 %748, %749
  %751 = add nsw i64 %748, 1
  store i64 %750, i64* %41, align 8
  %752 = invoke dereferenceable(8) i64* @_ZSt3minIxERKT_S2_S2_(i64* dereferenceable(8) %739, i64* dereferenceable(8) %41)
          to label %753 unwind label %451

; <label>:753:                                    ; preds = %722
  %754 = load i64, i64* %752, align 8
  %755 = getelementptr inbounds %"struct.std::pair", %"struct.std::pair"* %38, i32 0, i32 0
  %756 = load i32, i32* %755, align 4
  %757 = load i32, i32* %39, align 4
  %758 = sub i32 0, %757
  %759 = sub i32 %756, %758
  %760 = add nsw i32 %756, %757
  %761 = sext i32 %759 to i64
  %762 = call dereferenceable(24) %"class.std::vector.0"* @_ZNSt6vectorIS_IxSaIxEESaIS1_EEixEm(%"class.std::vector"* %33, i64 %761) #3
  %763 = getelementptr inbounds %"struct.std::pair", %"struct.std::pair"* %38, i32 0, i32 1
  %764 = load i32, i32* %763, align 4
  %765 = load i32, i32* %40, align 4
  %766 = sub i32 %764, -1318059767
  %767 = add i32 %766, %765
  %768 = add i32 %767, -1318059767
  %769 = add nsw i32 %764, %765
  %770 = sext i32 %768 to i64
  %771 = call dereferenceable(8) i64* @_ZNSt6vectorIxSaIxEEixEm(%"class.std::vector.0"* %762, i64 %770) #3
  store i64 %754, i64* %771, align 8
  br label %772

; <label>:772:                                    ; preds = %753, %689
  %773 = load i32, i32* @x.27
  %774 = load i32, i32* @y.28
  %775 = sub i32 %773, -509631367
  %776 = sub i32 %775, 1
  %777 = add i32 %776, -509631367
  %778 = sub i32 %773, 1
  %779 = mul i32 %773, %777
  %780 = urem i32 %779, 2
  %781 = icmp eq i32 %780, 0
  %782 = icmp slt i32 %774, 10
  %783 = xor i1 %781, true
  %784 = xor i1 %782, true
  %785 = xor i1 true, true
  %786 = and i1 %783, true
  %787 = and i1 %781, %785
  %788 = and i1 %784, true
  %789 = and i1 %782, %785
  %790 = or i1 %786, %787
  %791 = or i1 %788, %789
  %792 = xor i1 %790, %791
  %793 = or i1 %783, %784
  %794 = xor i1 %793, true
  %795 = or i1 true, %785
  %796 = and i1 %794, %795
  %797 = or i1 %792, %796
  %798 = or i1 %781, %782
  br i1 %797, label %799, label %1096

; <label>:799:                                    ; preds = %772, %1096
  %800 = getelementptr inbounds %"struct.std::pair", %"struct.std::pair"* %38, i32 0, i32 0
  %801 = load i32, i32* %800, align 4
  %802 = load i32, i32* %39, align 4
  %803 = sub i32 0, %801
  %804 = sub i32 0, %802
  %805 = add i32 %803, %804
  %806 = sub i32 0, %805
  %807 = add nsw i32 %801, %802
  store i32 %806, i32* %43, align 4
  %808 = getelementptr inbounds %"struct.std::pair", %"struct.std::pair"* %38, i32 0, i32 1
  %809 = load i32, i32* %808, align 4
  %810 = load i32, i32* %40, align 4
  %811 = add i32 %809, -1552035264
  %812 = add i32 %811, %810
  %813 = sub i32 %812, -1552035264
  %814 = add nsw i32 %809, %810
  store i32 %813, i32* %44, align 4
  %815 = load i32, i32* @x.27
  %816 = load i32, i32* @y.28
  %817 = add i32 %815, -1330967382
  %818 = sub i32 %817, 1
  %819 = sub i32 %818, -1330967382
  %820 = sub i32 %815, 1
  %821 = mul i32 %815, %819
  %822 = urem i32 %821, 2
  %823 = icmp eq i32 %822, 0
  %824 = icmp slt i32 %816, 10
  %825 = and i1 %823, %824
  %826 = xor i1 %823, %824
  %827 = or i1 %825, %826
  %828 = or i1 %823, %824
  br i1 %827, label %829, label %1096

; <label>:829:                                    ; preds = %799
  %830 = invoke i64 @_ZSt9make_pairIiiESt4pairINSt17__decay_and_stripIT_E6__typeENS1_IT0_E6__typeEEOS2_OS5_(i32* dereferenceable(4) %43, i32* dereferenceable(4) %44)
          to label %831 unwind label %451

; <label>:831:                                    ; preds = %829
  %832 = load i32, i32* @x.27
  %833 = load i32, i32* @y.28
  %834 = sub i32 %832, 1181626498
  %835 = sub i32 %834, 1
  %836 = add i32 %835, 1181626498
  %837 = sub i32 %832, 1
  %838 = mul i32 %832, %836
  %839 = urem i32 %838, 2
  %840 = icmp eq i32 %839, 0
  %841 = icmp slt i32 %833, 10
  %842 = xor i1 %840, true
  %843 = xor i1 %841, true
  %844 = xor i1 true, true
  %845 = and i1 %842, true
  %846 = and i1 %840, %844
  %847 = and i1 %843, true
  %848 = and i1 %841, %844
  %849 = or i1 %845, %846
  %850 = or i1 %847, %848
  %851 = xor i1 %849, %850
  %852 = or i1 %842, %843
  %853 = xor i1 %852, true
  %854 = or i1 true, %844
  %855 = and i1 %853, %854
  %856 = or i1 %851, %855
  %857 = or i1 %840, %841
  br i1 %856, label %858, label %1145

; <label>:858:                                    ; preds = %831, %1145
  %859 = bitcast %"struct.std::pair"* %42 to i64*
  store i64 %830, i64* %859, align 4
  %860 = load i32, i32* @x.27
  %861 = load i32, i32* @y.28
  %862 = sub i32 0, 1
  %863 = add i32 %860, %862
  %864 = sub i32 %860, 1
  %865 = mul i32 %860, %863
  %866 = urem i32 %865, 2
  %867 = icmp eq i32 %866, 0
  %868 = icmp slt i32 %861, 10
  %869 = and i1 %867, %868
  %870 = xor i1 %867, %868
  %871 = or i1 %869, %870
  %872 = or i1 %867, %868
  br i1 %871, label %873, label %1145

; <label>:873:                                    ; preds = %858
  invoke void @_ZNSt5queueISt4pairIiiESt5dequeIS1_SaIS1_EEE4pushEOS1_(%"class.std::queue"* %29, %"struct.std::pair"* dereferenceable(8) %42)
          to label %874 unwind label %451

; <label>:874:                                    ; preds = %873
  br label %875

; <label>:875:                                    ; preds = %874, %650, %584, %524, %517, %450
  %876 = load i32, i32* %40, align 4
  %877 = sub i32 %876, -966961460
  %878 = add i32 %877, 1
  %879 = add i32 %878, -966961460
  %880 = add nsw i32 %876, 1
  store i32 %879, i32* %40, align 4
  br label %428

; <label>:881:                                    ; preds = %428
  %882 = load i32, i32* @x.27
  %883 = load i32, i32* @y.28
  %884 = sub i32 0, 1
  %885 = add i32 %882, %884
  %886 = sub i32 %882, 1
  %887 = mul i32 %882, %885
  %888 = urem i32 %887, 2
  %889 = icmp eq i32 %888, 0
  %890 = icmp slt i32 %883, 10
  %891 = xor i1 %889, true
  %892 = xor i1 %890, true
  %893 = xor i1 true, true
  %894 = and i1 %891, true
  %895 = and i1 %889, %893
  %896 = and i1 %892, true
  %897 = and i1 %890, %893
  %898 = or i1 %894, %895
  %899 = or i1 %896, %897
  %900 = xor i1 %898, %899
  %901 = or i1 %891, %892
  %902 = xor i1 %901, true
  %903 = or i1 true, %893
  %904 = and i1 %902, %903
  %905 = or i1 %900, %904
  %906 = or i1 %889, %890
  br i1 %905, label %907, label %1147

; <label>:907:                                    ; preds = %881, %1147
  %908 = load i32, i32* @x.27
  %909 = load i32, i32* @y.28
  %910 = sub i32 %908, 2054242851
  %911 = sub i32 %910, 1
  %912 = add i32 %911, 2054242851
  %913 = sub i32 %908, 1
  %914 = mul i32 %908, %912
  %915 = urem i32 %914, 2
  %916 = icmp eq i32 %915, 0
  %917 = icmp slt i32 %909, 10
  %918 = xor i1 %916, true
  %919 = xor i1 %917, true
  %920 = xor i1 true, true
  %921 = and i1 %918, true
  %922 = and i1 %916, %920
  %923 = and i1 %919, true
  %924 = and i1 %917, %920
  %925 = or i1 %921, %922
  %926 = or i1 %923, %924
  %927 = xor i1 %925, %926
  %928 = or i1 %918, %919
  %929 = xor i1 %928, true
  %930 = or i1 true, %920
  %931 = and i1 %929, %930
  %932 = or i1 %927, %931
  %933 = or i1 %916, %917
  br i1 %932, label %934, label %1147

; <label>:934:                                    ; preds = %907
  br label %935

; <label>:935:                                    ; preds = %934
  %936 = load i32, i32* %39, align 4
  %937 = add i32 %936, 1703012753
  %938 = add i32 %937, 1
  %939 = sub i32 %938, 1703012753
  %940 = add nsw i32 %936, 1
  store i32 %939, i32* %39, align 4
  br label %424

; <label>:941:                                    ; preds = %424
  %942 = load i32, i32* @x.27
  %943 = load i32, i32* @y.28
  %944 = sub i32 %942, -1194388632
  %945 = sub i32 %944, 1
  %946 = add i32 %945, -1194388632
  %947 = sub i32 %942, 1
  %948 = mul i32 %942, %946
  %949 = urem i32 %948, 2
  %950 = icmp eq i32 %949, 0
  %951 = icmp slt i32 %943, 10
  %952 = and i1 %950, %951
  %953 = xor i1 %950, %951
  %954 = or i1 %952, %953
  %955 = or i1 %950, %951
  br i1 %954, label %956, label %1148

; <label>:956:                                    ; preds = %941, %1148
  %957 = load i32, i32* @x.27
  %958 = load i32, i32* @y.28
  %959 = add i32 %957, 1542943153
  %960 = sub i32 %959, 1
  %961 = sub i32 %960, 1542943153
  %962 = sub i32 %957, 1
  %963 = mul i32 %957, %961
  %964 = urem i32 %963, 2
  %965 = icmp eq i32 %964, 0
  %966 = icmp slt i32 %958, 10
  %967 = xor i1 %965, true
  %968 = xor i1 %966, true
  %969 = xor i1 true, true
  %970 = and i1 %967, true
  %971 = and i1 %965, %969
  %972 = and i1 %968, true
  %973 = and i1 %966, %969
  %974 = or i1 %970, %971
  %975 = or i1 %972, %973
  %976 = xor i1 %974, %975
  %977 = or i1 %967, %968
  %978 = xor i1 %977, true
  %979 = or i1 true, %969
  %980 = and i1 %978, %979
  %981 = or i1 %976, %980
  %982 = or i1 %965, %966
  br i1 %981, label %983, label %1148

; <label>:983:                                    ; preds = %956
  br label %365

; <label>:984:                                    ; preds = %409
  %985 = load i32, i32* %26, align 4
  %986 = sext i32 %985 to i64
  %987 = call dereferenceable(24) %"class.std::vector.0"* @_ZNSt6vectorIS_IxSaIxEESaIS1_EEixEm(%"class.std::vector"* %33, i64 %986) #3
  %988 = load i32, i32* %25, align 4
  %989 = sext i32 %988 to i64
  %990 = call dereferenceable(8) i64* @_ZNSt6vectorIxSaIxEEixEm(%"class.std::vector.0"* %987, i64 %989) #3
  %991 = load i64, i64* %990, align 8
  %992 = trunc i64 %991 to i32
  call void @_ZNSt6vectorIS_IxSaIxEESaIS1_EED2Ev(%"class.std::vector"* %33) #3
  call void @_ZNSt5queueISt4pairIiiESt5dequeIS1_SaIS1_EEED2Ev(%"class.std::queue"* %29) #3
  ret i32 %992

; <label>:993:                                    ; preds = %451, %272, %271
  call void @_ZNSt6vectorIS_IxSaIxEESaIS1_EED2Ev(%"class.std::vector"* %33) #3
  call void @_ZNSt5queueISt4pairIiiESt5dequeIS1_SaIS1_EEED2Ev(%"class.std::queue"* %29) #3
  br label %994

; <label>:994:                                    ; preds = %993, %210
  %995 = load i8*, i8** %31, align 8
  %996 = load i32, i32* %32, align 4
  %997 = insertvalue { i8*, i32 } undef, i8* %995, 0
  %998 = insertvalue { i8*, i32 } %997, i32 %996, 1
  resume { i8*, i32 } %998

; <label>:999:                                    ; preds = %22, %7
  %1000 = alloca i32, align 4
  %1001 = alloca i32, align 4
  %1002 = alloca i32, align 4
  %1003 = alloca i32, align 4
  %1004 = alloca i32, align 4
  %1005 = alloca i32, align 4
  %1006 = alloca %"class.std::queue", align 8
  %1007 = alloca %"class.std::deque", align 8
  %1008 = alloca i8*
  %1009 = alloca i32
  %1010 = alloca %"class.std::vector", align 8
  %1011 = alloca i32, align 4
  %1012 = alloca %"class.std::vector.0", align 8
  %1013 = alloca %"class.std::allocator.2", align 1
  %1014 = alloca %"struct.std::pair", align 4
  %1015 = alloca %"struct.std::pair", align 4
  %1016 = alloca i32, align 4
  %1017 = alloca i32, align 4
  %1018 = alloca i64, align 8
  %1019 = alloca %"struct.std::pair", align 4
  %1020 = alloca i32, align 4
  %1021 = alloca i32, align 4
  store i32 %0, i32* %1000, align 4
  store i32 %1, i32* %1001, align 4
  store i32 %2, i32* %1002, align 4
  store i32 %3, i32* %1003, align 4
  store i32 %4, i32* %1004, align 4
  store i32 %5, i32* %1005, align 4
  call void @_ZNSt5dequeISt4pairIiiESaIS1_EEC2Ev(%"class.std::deque"* %1007)
  br label %22

; <label>:1022:                                   ; preds = %97, %71
  call void @_ZNSt5dequeISt4pairIiiESaIS1_EED2Ev(%"class.std::deque"* %30) #3
  call void @_ZNSt6vectorIS_IxSaIxEESaIS1_EEC2Ev(%"class.std::vector"* %33) #3
  store i32 0, i32* %34, align 4
  br label %97

; <label>:1023:                                   ; preds = %139, %113
  %1024 = load i32, i32* %34, align 4
  %1025 = load i32, i32* %27, align 4
  %1026 = icmp slt i32 %1024, %1025
  br label %139

; <label>:1027:                                   ; preds = %177, %162
  %1028 = load i32, i32* %34, align 4
  %1029 = sub i32 0, 1
  %1030 = add i32 %1028, %1029
  %1031 = sub i32 %1028, 1
  %1032 = mul i32 %1030, 1
  %1033 = shl i32 %1028, 1
  %1034 = shl i32 %1028, 1
  %1035 = add i32 %1028, -1828216357
  %1036 = add i32 %1035, 1
  %1037 = sub i32 %1036, -1828216357
  %1038 = add nsw i32 %1028, 1
  store i32 %1037, i32* %34, align 4
  br label %177

; <label>:1039:                                   ; preds = %241, %214
  %1040 = landingpad { i8*, i32 }
          cleanup
  %1041 = extractvalue { i8*, i32 } %1040, 0
  store i8* %1041, i8** %31, align 8
  %1042 = extractvalue { i8*, i32 } %1040, 1
  store i32 %1042, i32* %32, align 4
  call void @_ZNSaIxED2Ev(%"class.std::allocator.2"* %36) #3
  br label %241

; <label>:1043:                                   ; preds = %305, %278
  %1044 = bitcast %"struct.std::pair"* %37 to i64*
  store i64 %277, i64* %1044, align 4
  br label %305

; <label>:1045:                                   ; preds = %349, %334
  br label %349

; <label>:1046:                                   ; preds = %381, %367
  %1047 = icmp ugt i64 %366, 0
  br label %381

; <label>:1048:                                   ; preds = %490, %476
  br label %490

; <label>:1049:                                   ; preds = %557, %531
  br label %557

; <label>:1050:                                   ; preds = %612, %585
  %1051 = getelementptr inbounds %"struct.std::pair", %"struct.std::pair"* %38, i32 0, i32 0
  %1052 = load i32, i32* %1051, align 4
  %1053 = load i32, i32* %39, align 4
  %1054 = sub i32 0, %1053
  %1055 = add i32 %1052, %1054
  %1056 = sub i32 %1052, %1053
  %1057 = mul i32 %1055, %1053
  %1058 = sub i32 %1052, 232975867
  %1059 = sub i32 %1058, %1053
  %1060 = add i32 %1059, 232975867
  %1061 = sub i32 %1052, %1053
  %1062 = mul i32 %1060, %1053
  %1063 = sub i32 0, %1053
  %1064 = add i32 %1052, %1063
  %1065 = sub i32 %1052, %1053
  %1066 = mul i32 %1064, %1053
  %1067 = add i32 %1052, -2050888369
  %1068 = sub i32 %1067, %1053
  %1069 = sub i32 %1068, -2050888369
  %1070 = sub i32 %1052, %1053
  %1071 = mul i32 %1069, %1053
  %1072 = sub i32 0, %1053
  %1073 = sub i32 %1052, %1072
  %1074 = add nsw i32 %1052, %1053
  %1075 = sext i32 %1073 to i64
  %1076 = call dereferenceable(24) %"class.std::vector.10"* @_ZNSt6vectorIS_IcSaIcEESaIS1_EEixEm(%"class.std::vector.5"* %6, i64 %1075) #3
  %1077 = getelementptr inbounds %"struct.std::pair", %"struct.std::pair"* %38, i32 0, i32 1
  %1078 = load i32, i32* %1077, align 4
  %1079 = load i32, i32* %40, align 4
  %1080 = shl i32 %1078, %1079
  %1081 = add i32 %1078, -498741931
  %1082 = sub i32 %1081, %1079
  %1083 = sub i32 %1082, -498741931
  %1084 = sub i32 %1078, %1079
  %1085 = mul i32 %1083, %1079
  %1086 = sub i32 0, %1078
  %1087 = sub i32 0, %1079
  %1088 = add i32 %1086, %1087
  %1089 = sub i32 0, %1088
  %1090 = add nsw i32 %1078, %1079
  %1091 = sext i32 %1089 to i64
  %1092 = call dereferenceable(1) i8* @_ZNSt6vectorIcSaIcEEixEm(%"class.std::vector.10"* %1076, i64 %1091) #3
  %1093 = load i8, i8* %1092, align 1
  %1094 = sext i8 %1093 to i32
  %1095 = icmp eq i32 %1094, 35
  br label %612

; <label>:1096:                                   ; preds = %799, %772
  %1097 = getelementptr inbounds %"struct.std::pair", %"struct.std::pair"* %38, i32 0, i32 0
  %1098 = load i32, i32* %1097, align 4
  %1099 = load i32, i32* %39, align 4
  %1100 = shl i32 %1098, %1099
  %1101 = sub i32 0, %1099
  %1102 = add i32 %1098, %1101
  %1103 = sub i32 %1098, %1099
  %1104 = mul i32 %1102, %1099
  %1105 = shl i32 %1098, %1099
  %1106 = add i32 %1098, -303741143
  %1107 = sub i32 %1106, %1099
  %1108 = sub i32 %1107, -303741143
  %1109 = sub i32 %1098, %1099
  %1110 = mul i32 %1108, %1099
  %1111 = shl i32 %1098, %1099
  %1112 = shl i32 %1098, %1099
  %1113 = add i32 %1098, -1246971244
  %1114 = sub i32 %1113, %1099
  %1115 = sub i32 %1114, -1246971244
  %1116 = sub i32 %1098, %1099
  %1117 = mul i32 %1115, %1099
  %1118 = shl i32 %1098, %1099
  %1119 = sub i32 %1098, -409916522
  %1120 = add i32 %1119, %1099
  %1121 = add i32 %1120, -409916522
  %1122 = add nsw i32 %1098, %1099
  store i32 %1121, i32* %43, align 4
  %1123 = getelementptr inbounds %"struct.std::pair", %"struct.std::pair"* %38, i32 0, i32 1
  %1124 = load i32, i32* %1123, align 4
  %1125 = load i32, i32* %40, align 4
  %1126 = add i32 0, 617129176
  %1127 = sub i32 %1126, %1124
  %1128 = sub i32 %1127, 617129176
  %1129 = sub i32 0, %1124
  %1130 = sub i32 %1128, -461264153
  %1131 = add i32 %1130, %1125
  %1132 = add i32 %1131, -461264153
  %1133 = add i32 %1128, %1125
  %1134 = shl i32 %1124, %1125
  %1135 = shl i32 %1124, %1125
  %1136 = shl i32 %1124, %1125
  %1137 = sub i32 0, %1125
  %1138 = add i32 %1124, %1137
  %1139 = sub i32 %1124, %1125
  %1140 = mul i32 %1138, %1125
  %1141 = add i32 %1124, 132860458
  %1142 = add i32 %1141, %1125
  %1143 = sub i32 %1142, 132860458
  %1144 = add nsw i32 %1124, %1125
  store i32 %1143, i32* %44, align 4
  br label %799

; <label>:1145:                                   ; preds = %858, %831
  %1146 = bitcast %"struct.std::pair"* %42 to i64*
  store i64 %830, i64* %1146, align 4
  br label %858

; <label>:1147:                                   ; preds = %907, %881
  br label %907

; <label>:1148:                                   ; preds = %956, %941
  br label %956
}

; Function Attrs: noinline uwtable
define linkonce_odr void @_ZNSt5dequeISt4pairIiiESaIS1_EEC2Ev(%"class.std::deque"*) unnamed_addr #0 comdat align 2 {
  %2 = alloca %"class.std::deque"*, align 8
  store %"class.std::deque"* %0, %"class.std::deque"** %2, align 8
  %3 = load %"class.std::deque"*, %"class.std::deque"** %2, align 8
  %4 = bitcast %"class.std::deque"* %3 to %"class.std::_Deque_base"*
  call void @_ZNSt11_Deque_baseISt4pairIiiESaIS1_EEC2Ev(%"class.std::_Deque_base"* %4)
  ret void
}

; Function Attrs: noinline uwtable
define linkonce_odr void @_ZNSt5queueISt4pairIiiESt5dequeIS1_SaIS1_EEEC2EOS4_(%"class.std::queue"*, %"class.std::deque"* dereferenceable(80)) unnamed_addr #0 comdat align 2 {
  %3 = alloca %"class.std::queue"*, align 8
  %4 = alloca %"class.std::deque"*, align 8
  store %"class.std::queue"* %0, %"class.std::queue"** %3, align 8
  store %"class.std::deque"* %1, %"class.std::deque"** %4, align 8
  %5 = load %"class.std::queue"*, %"class.std::queue"** %3, align 8
  %6 = getelementptr inbounds %"class.std::queue", %"class.std::queue"* %5, i32 0, i32 0
  %7 = load %"class.std::deque"*, %"class.std::deque"** %4, align 8
  %8 = call dereferenceable(80) %"class.std::deque"* @_ZSt4moveIRSt5dequeISt4pairIiiESaIS2_EEEONSt16remove_referenceIT_E4typeEOS7_(%"class.std::deque"* dereferenceable(80) %7) #3
  call void @_ZNSt5dequeISt4pairIiiESaIS1_EEC2EOS3_(%"class.std::deque"* %6, %"class.std::deque"* dereferenceable(80) %8)
  ret void
}

; Function Attrs: noinline nounwind uwtable
define linkonce_odr void @_ZNSt5dequeISt4pairIiiESaIS1_EED2Ev(%"class.std::deque"*) unnamed_addr #4 comdat align 2 personality i8* bitcast (i32 (...)* @__gxx_personality_v0 to i8*) {
  %2 = load i32, i32* @x.33
  %3 = load i32, i32* @y.34
  %4 = sub i32 0, 1
  %5 = add i32 %2, %4
  %6 = sub i32 %2, 1
  %7 = mul i32 %2, %5
  %8 = urem i32 %7, 2
  %9 = icmp eq i32 %8, 0
  %10 = icmp slt i32 %3, 10
  %11 = xor i1 %9, true
  %12 = xor i1 %10, true
  %13 = xor i1 true, true
  %14 = and i1 %11, true
  %15 = and i1 %9, %13
  %16 = and i1 %12, true
  %17 = and i1 %10, %13
  %18 = or i1 %14, %15
  %19 = or i1 %16, %17
  %20 = xor i1 %18, %19
  %21 = or i1 %11, %12
  %22 = xor i1 %21, true
  %23 = or i1 true, %13
  %24 = and i1 %22, %23
  %25 = or i1 %20, %24
  %26 = or i1 %9, %10
  br i1 %25, label %27, label %72

; <label>:27:                                     ; preds = %1, %72
  %28 = alloca %"class.std::deque"*, align 8
  %29 = alloca %"struct.std::_Deque_iterator", align 8
  %30 = alloca %"struct.std::_Deque_iterator", align 8
  %31 = alloca i8*
  %32 = alloca i32
  store %"class.std::deque"* %0, %"class.std::deque"** %28, align 8
  %33 = load %"class.std::deque"*, %"class.std::deque"** %28, align 8
  call void @_ZNSt5dequeISt4pairIiiESaIS1_EE5beginEv(%"struct.std::_Deque_iterator"* sret %29, %"class.std::deque"* %33) #3
  call void @_ZNSt5dequeISt4pairIiiESaIS1_EE3endEv(%"struct.std::_Deque_iterator"* sret %30, %"class.std::deque"* %33) #3
  %34 = bitcast %"class.std::deque"* %33 to %"class.std::_Deque_base"*
  %35 = call dereferenceable(1) %"class.std::allocator.15"* @_ZNSt11_Deque_baseISt4pairIiiESaIS1_EE19_M_get_Tp_allocatorEv(%"class.std::_Deque_base"* %34) #3
  %36 = load i32, i32* @x.33
  %37 = load i32, i32* @y.34
  %38 = add i32 %36, 1280240974
  %39 = sub i32 %38, 1
  %40 = sub i32 %39, 1280240974
  %41 = sub i32 %36, 1
  %42 = mul i32 %36, %40
  %43 = urem i32 %42, 2
  %44 = icmp eq i32 %43, 0
  %45 = icmp slt i32 %37, 10
  %46 = xor i1 %44, true
  %47 = xor i1 %45, true
  %48 = xor i1 false, true
  %49 = and i1 %46, false
  %50 = and i1 %44, %48
  %51 = and i1 %47, false
  %52 = and i1 %45, %48
  %53 = or i1 %49, %50
  %54 = or i1 %51, %52
  %55 = xor i1 %53, %54
  %56 = or i1 %46, %47
  %57 = xor i1 %56, true
  %58 = or i1 false, %48
  %59 = and i1 %57, %58
  %60 = or i1 %55, %59
  %61 = or i1 %44, %45
  br i1 %60, label %62, label %72

; <label>:62:                                     ; preds = %27
  invoke void @_ZNSt5dequeISt4pairIiiESaIS1_EE15_M_destroy_dataESt15_Deque_iteratorIS1_RS1_PS1_ES7_RKS2_(%"class.std::deque"* %33, %"struct.std::_Deque_iterator"* %29, %"struct.std::_Deque_iterator"* %30, %"class.std::allocator.15"* dereferenceable(1) %35)
          to label %63 unwind label %65

; <label>:63:                                     ; preds = %62
  %64 = bitcast %"class.std::deque"* %33 to %"class.std::_Deque_base"*
  call void @_ZNSt11_Deque_baseISt4pairIiiESaIS1_EED2Ev(%"class.std::_Deque_base"* %64) #3
  ret void

; <label>:65:                                     ; preds = %62
  %66 = landingpad { i8*, i32 }
          catch i8* null
  %67 = extractvalue { i8*, i32 } %66, 0
  store i8* %67, i8** %31, align 8
  %68 = extractvalue { i8*, i32 } %66, 1
  store i32 %68, i32* %32, align 4
  %69 = bitcast %"class.std::deque"* %33 to %"class.std::_Deque_base"*
  call void @_ZNSt11_Deque_baseISt4pairIiiESaIS1_EED2Ev(%"class.std::_Deque_base"* %69) #3
  br label %70

; <label>:70:                                     ; preds = %65
  %71 = load i8*, i8** %31, align 8
  call void @__clang_call_terminate(i8* %71) #12
  unreachable

; <label>:72:                                     ; preds = %27, %1
  %73 = alloca %"class.std::deque"*, align 8
  %74 = alloca %"struct.std::_Deque_iterator", align 8
  %75 = alloca %"struct.std::_Deque_iterator", align 8
  %76 = alloca i8*
  %77 = alloca i32
  store %"class.std::deque"* %0, %"class.std::deque"** %73, align 8
  %78 = load %"class.std::deque"*, %"class.std::deque"** %73, align 8
  call void @_ZNSt5dequeISt4pairIiiESaIS1_EE5beginEv(%"struct.std::_Deque_iterator"* sret %74, %"class.std::deque"* %78) #3
  call void @_ZNSt5dequeISt4pairIiiESaIS1_EE3endEv(%"struct.std::_Deque_iterator"* sret %75, %"class.std::deque"* %78) #3
  %79 = bitcast %"class.std::deque"* %78 to %"class.std::_Deque_base"*
  %80 = call dereferenceable(1) %"class.std::allocator.15"* @_ZNSt11_Deque_baseISt4pairIiiESaIS1_EE19_M_get_Tp_allocatorEv(%"class.std::_Deque_base"* %79) #3
  br label %27
}

; Function Attrs: noinline nounwind uwtable
define linkonce_odr void @_ZNSt6vectorIS_IxSaIxEESaIS1_EEC2Ev(%"class.std::vector"*) unnamed_addr #4 comdat align 2 personality i8* bitcast (i32 (...)* @__gxx_personality_v0 to i8*) {
  %2 = alloca %"class.std::vector"*, align 8
  store %"class.std::vector"* %0, %"class.std::vector"** %2, align 8
  %3 = load %"class.std::vector"*, %"class.std::vector"** %2, align 8
  %4 = bitcast %"class.std::vector"* %3 to %"struct.std::_Vector_base"*
  invoke void @_ZNSt12_Vector_baseISt6vectorIxSaIxEESaIS2_EEC2Ev(%"struct.std::_Vector_base"* %4)
          to label %5 unwind label %60

; <label>:5:                                      ; preds = %1
  %6 = load i32, i32* @x.35
  %7 = load i32, i32* @y.36
  %8 = add i32 %6, 1022176046
  %9 = sub i32 %8, 1
  %10 = sub i32 %9, 1022176046
  %11 = sub i32 %6, 1
  %12 = mul i32 %6, %10
  %13 = urem i32 %12, 2
  %14 = icmp eq i32 %13, 0
  %15 = icmp slt i32 %7, 10
  %16 = xor i1 %14, true
  %17 = xor i1 %15, true
  %18 = xor i1 false, true
  %19 = and i1 %16, false
  %20 = and i1 %14, %18
  %21 = and i1 %17, false
  %22 = and i1 %15, %18
  %23 = or i1 %19, %20
  %24 = or i1 %21, %22
  %25 = xor i1 %23, %24
  %26 = or i1 %16, %17
  %27 = xor i1 %26, true
  %28 = or i1 false, %18
  %29 = and i1 %27, %28
  %30 = or i1 %25, %29
  %31 = or i1 %14, %15
  br i1 %30, label %32, label %63

; <label>:32:                                     ; preds = %5, %63
  %33 = load i32, i32* @x.35
  %34 = load i32, i32* @y.36
  %35 = add i32 %33, -1288087971
  %36 = sub i32 %35, 1
  %37 = sub i32 %36, -1288087971
  %38 = sub i32 %33, 1
  %39 = mul i32 %33, %37
  %40 = urem i32 %39, 2
  %41 = icmp eq i32 %40, 0
  %42 = icmp slt i32 %34, 10
  %43 = xor i1 %41, true
  %44 = xor i1 %42, true
  %45 = xor i1 false, true
  %46 = and i1 %43, false
  %47 = and i1 %41, %45
  %48 = and i1 %44, false
  %49 = and i1 %42, %45
  %50 = or i1 %46, %47
  %51 = or i1 %48, %49
  %52 = xor i1 %50, %51
  %53 = or i1 %43, %44
  %54 = xor i1 %53, true
  %55 = or i1 false, %45
  %56 = and i1 %54, %55
  %57 = or i1 %52, %56
  %58 = or i1 %41, %42
  br i1 %57, label %59, label %63

; <label>:59:                                     ; preds = %32
  ret void

; <label>:60:                                     ; preds = %1
  %61 = landingpad { i8*, i32 }
          catch i8* null
  %62 = extractvalue { i8*, i32 } %61, 0
  call void @__clang_call_terminate(i8* %62) #12
  unreachable

; <label>:63:                                     ; preds = %32, %5
  br label %32
}

; Function Attrs: noinline nounwind uwtable
define linkonce_odr void @_ZNSaIxEC2Ev(%"class.std::allocator.2"*) unnamed_addr #4 comdat align 2 {
  %2 = alloca %"class.std::allocator.2"*, align 8
  store %"class.std::allocator.2"* %0, %"class.std::allocator.2"** %2, align 8
  %3 = load %"class.std::allocator.2"*, %"class.std::allocator.2"** %2, align 8
  %4 = bitcast %"class.std::allocator.2"* %3 to %"class.__gnu_cxx::new_allocator.3"*
  call void @_ZN9__gnu_cxx13new_allocatorIxEC2Ev(%"class.__gnu_cxx::new_allocator.3"* %4) #3
  ret void
}

; Function Attrs: noinline uwtable
define linkonce_odr void @_ZNSt6vectorIxSaIxEEC2EmRKS0_(%"class.std::vector.0"*, i64, %"class.std::allocator.2"* dereferenceable(1)) unnamed_addr #0 comdat align 2 personality i8* bitcast (i32 (...)* @__gxx_personality_v0 to i8*) {
  %4 = alloca %"class.std::vector.0"*, align 8
  %5 = alloca i64, align 8
  %6 = alloca %"class.std::allocator.2"*, align 8
  %7 = alloca i8*
  %8 = alloca i32
  store %"class.std::vector.0"* %0, %"class.std::vector.0"** %4, align 8
  store i64 %1, i64* %5, align 8
  store %"class.std::allocator.2"* %2, %"class.std::allocator.2"** %6, align 8
  %9 = load %"class.std::vector.0"*, %"class.std::vector.0"** %4, align 8
  %10 = bitcast %"class.std::vector.0"* %9 to %"struct.std::_Vector_base.1"*
  %11 = load i64, i64* %5, align 8
  %12 = load %"class.std::allocator.2"*, %"class.std::allocator.2"** %6, align 8
  call void @_ZNSt12_Vector_baseIxSaIxEEC2EmRKS0_(%"struct.std::_Vector_base.1"* %10, i64 %11, %"class.std::allocator.2"* dereferenceable(1) %12)
  %13 = load i64, i64* %5, align 8
  invoke void @_ZNSt6vectorIxSaIxEE21_M_default_initializeEm(%"class.std::vector.0"* %9, i64 %13)
          to label %14 unwind label %15

; <label>:14:                                     ; preds = %3
  ret void

; <label>:15:                                     ; preds = %3
  %16 = landingpad { i8*, i32 }
          cleanup
  %17 = extractvalue { i8*, i32 } %16, 0
  store i8* %17, i8** %7, align 8
  %18 = extractvalue { i8*, i32 } %16, 1
  store i32 %18, i32* %8, align 4
  %19 = bitcast %"class.std::vector.0"* %9 to %"struct.std::_Vector_base.1"*
  call void @_ZNSt12_Vector_baseIxSaIxEED2Ev(%"struct.std::_Vector_base.1"* %19) #3
  br label %20

; <label>:20:                                     ; preds = %15
  %21 = load i32, i32* @x.39
  %22 = load i32, i32* @y.40
  %23 = sub i32 0, 1
  %24 = add i32 %21, %23
  %25 = sub i32 %21, 1
  %26 = mul i32 %21, %24
  %27 = urem i32 %26, 2
  %28 = icmp eq i32 %27, 0
  %29 = icmp slt i32 %22, 10
  %30 = xor i1 %28, true
  %31 = xor i1 %29, true
  %32 = xor i1 true, true
  %33 = and i1 %30, true
  %34 = and i1 %28, %32
  %35 = and i1 %31, true
  %36 = and i1 %29, %32
  %37 = or i1 %33, %34
  %38 = or i1 %35, %36
  %39 = xor i1 %37, %38
  %40 = or i1 %30, %31
  %41 = xor i1 %40, true
  %42 = or i1 true, %32
  %43 = and i1 %41, %42
  %44 = or i1 %39, %43
  %45 = or i1 %28, %29
  br i1 %44, label %46, label %77

; <label>:46:                                     ; preds = %20, %77
  %47 = load i8*, i8** %7, align 8
  %48 = load i32, i32* %8, align 4
  %49 = insertvalue { i8*, i32 } undef, i8* %47, 0
  %50 = insertvalue { i8*, i32 } %49, i32 %48, 1
  %51 = load i32, i32* @x.39
  %52 = load i32, i32* @y.40
  %53 = sub i32 0, 1
  %54 = add i32 %51, %53
  %55 = sub i32 %51, 1
  %56 = mul i32 %51, %54
  %57 = urem i32 %56, 2
  %58 = icmp eq i32 %57, 0
  %59 = icmp slt i32 %52, 10
  %60 = xor i1 %58, true
  %61 = xor i1 %59, true
  %62 = xor i1 true, true
  %63 = and i1 %60, true
  %64 = and i1 %58, %62
  %65 = and i1 %61, true
  %66 = and i1 %59, %62
  %67 = or i1 %63, %64
  %68 = or i1 %65, %66
  %69 = xor i1 %67, %68
  %70 = or i1 %60, %61
  %71 = xor i1 %70, true
  %72 = or i1 true, %62
  %73 = and i1 %71, %72
  %74 = or i1 %69, %73
  %75 = or i1 %58, %59
  br i1 %74, label %76, label %77

; <label>:76:                                     ; preds = %46
  resume { i8*, i32 } %50

; <label>:77:                                     ; preds = %46, %20
  %78 = load i8*, i8** %7, align 8
  %79 = load i32, i32* %8, align 4
  %80 = insertvalue { i8*, i32 } undef, i8* %78, 0
  %81 = insertvalue { i8*, i32 } %80, i32 %79, 1
  br label %46
}

; Function Attrs: noinline nounwind uwtable
define linkonce_odr void @_ZNSaIxED2Ev(%"class.std::allocator.2"*) unnamed_addr #4 comdat align 2 {
  %2 = alloca %"class.std::allocator.2"*, align 8
  store %"class.std::allocator.2"* %0, %"class.std::allocator.2"** %2, align 8
  %3 = load %"class.std::allocator.2"*, %"class.std::allocator.2"** %2, align 8
  %4 = bitcast %"class.std::allocator.2"* %3 to %"class.__gnu_cxx::new_allocator.3"*
  call void @_ZN9__gnu_cxx13new_allocatorIxED2Ev(%"class.__gnu_cxx::new_allocator.3"* %4) #3
  ret void
}

; Function Attrs: noinline uwtable
define linkonce_odr void @_ZNSt5queueISt4pairIiiESt5dequeIS1_SaIS1_EEE4pushEOS1_(%"class.std::queue"*, %"struct.std::pair"* dereferenceable(8)) #0 comdat align 2 {
  %3 = alloca %"class.std::queue"*, align 8
  %4 = alloca %"struct.std::pair"*, align 8
  store %"class.std::queue"* %0, %"class.std::queue"** %3, align 8
  store %"struct.std::pair"* %1, %"struct.std::pair"** %4, align 8
  %5 = load %"class.std::queue"*, %"class.std::queue"** %3, align 8
  %6 = getelementptr inbounds %"class.std::queue", %"class.std::queue"* %5, i32 0, i32 0
  %7 = load %"struct.std::pair"*, %"struct.std::pair"** %4, align 8
  %8 = call dereferenceable(8) %"struct.std::pair"* @_ZSt4moveIRSt4pairIiiEEONSt16remove_referenceIT_E4typeEOS4_(%"struct.std::pair"* dereferenceable(8) %7) #3
  call void @_ZNSt5dequeISt4pairIiiESaIS1_EE9push_backEOS1_(%"class.std::deque"* %6, %"struct.std::pair"* dereferenceable(8) %8)
  ret void
}

; Function Attrs: noinline uwtable
define linkonce_odr i64 @_ZSt9make_pairIRiS0_ESt4pairINSt17__decay_and_stripIT_E6__typeENS2_IT0_E6__typeEEOS3_OS6_(i32* dereferenceable(4), i32* dereferenceable(4)) #0 comdat {
  %3 = alloca i64
  %4 = alloca i1
  %5 = alloca i1
  %6 = load i32, i32* @x.45
  %7 = load i32, i32* @y.46
  %8 = add i32 %6, -109756494
  %9 = sub i32 %8, 1
  %10 = sub i32 %9, -109756494
  %11 = sub i32 %6, 1
  %12 = mul i32 %6, %10
  %13 = urem i32 %12, 2
  %14 = icmp eq i32 %13, 0
  store i1 %14, i1* %5
  %15 = icmp slt i32 %7, 10
  store i1 %15, i1* %4
  %16 = alloca i32
  store i32 -1415939285, i32* %16
  br label %17

; <label>:17:                                     ; preds = %2, %65
  %18 = load i32, i32* %16
  switch i32 %18, label %19 [
    i32 -1415939285, label %20
    i32 -2113675396, label %28
    i32 1299419374, label %53
    i32 -1202151006, label %55
  ]

; <label>:19:                                     ; preds = %17
  br label %65

; <label>:20:                                     ; preds = %17
  %21 = load volatile i1, i1* %5
  %22 = load volatile i1, i1* %4
  %23 = and i1 %21, %22
  %24 = xor i1 %21, %22
  %25 = or i1 %23, %24
  %26 = or i1 %21, %22
  %27 = select i1 %25, i32 -2113675396, i32 -1202151006
  store i32 %27, i32* %16
  br label %65

; <label>:28:                                     ; preds = %17
  %29 = alloca %"struct.std::pair", align 4
  %30 = alloca i32*, align 8
  %31 = alloca i32*, align 8
  store i32* %0, i32** %30, align 8
  store i32* %1, i32** %31, align 8
  %32 = load i32*, i32** %30, align 8
  %33 = call dereferenceable(4) i32* @_ZSt7forwardIRiEOT_RNSt16remove_referenceIS1_E4typeE(i32* dereferenceable(4) %32) #3
  %34 = load i32*, i32** %31, align 8
  %35 = call dereferenceable(4) i32* @_ZSt7forwardIRiEOT_RNSt16remove_referenceIS1_E4typeE(i32* dereferenceable(4) %34) #3
  call void @_ZNSt4pairIiiEC2IRiS2_vEEOT_OT0_(%"struct.std::pair"* %29, i32* dereferenceable(4) %33, i32* dereferenceable(4) %35)
  %36 = bitcast %"struct.std::pair"* %29 to i64*
  %37 = load i64, i64* %36, align 4
  store i64 %37, i64* %3
  %38 = load i32, i32* @x.45
  %39 = load i32, i32* @y.46
  %40 = add i32 %38, -1353002855
  %41 = sub i32 %40, 1
  %42 = sub i32 %41, -1353002855
  %43 = sub i32 %38, 1
  %44 = mul i32 %38, %42
  %45 = urem i32 %44, 2
  %46 = icmp eq i32 %45, 0
  %47 = icmp slt i32 %39, 10
  %48 = and i1 %46, %47
  %49 = xor i1 %46, %47
  %50 = or i1 %48, %49
  %51 = or i1 %46, %47
  %52 = select i1 %50, i32 1299419374, i32 -1202151006
  store i32 %52, i32* %16
  br label %65

; <label>:53:                                     ; preds = %17
  %54 = load volatile i64, i64* %3
  ret i64 %54

; <label>:55:                                     ; preds = %17
  %56 = alloca %"struct.std::pair", align 4
  %57 = alloca i32*, align 8
  %58 = alloca i32*, align 8
  store i32* %0, i32** %57, align 8
  store i32* %1, i32** %58, align 8
  %59 = load i32*, i32** %57, align 8
  %60 = call dereferenceable(4) i32* @_ZSt7forwardIRiEOT_RNSt16remove_referenceIS1_E4typeE(i32* dereferenceable(4) %59) #3
  %61 = load i32*, i32** %58, align 8
  %62 = call dereferenceable(4) i32* @_ZSt7forwardIRiEOT_RNSt16remove_referenceIS1_E4typeE(i32* dereferenceable(4) %61) #3
  call void @_ZNSt4pairIiiEC2IRiS2_vEEOT_OT0_(%"struct.std::pair"* %56, i32* dereferenceable(4) %60, i32* dereferenceable(4) %62)
  %63 = bitcast %"struct.std::pair"* %56 to i64*
  %64 = load i64, i64* %63, align 4
  store i32 -2113675396, i32* %16
  br label %65

; <label>:65:                                     ; preds = %55, %28, %20, %19
  br label %17
}

; Function Attrs: noinline nounwind uwtable
define linkonce_odr i64 @_ZNKSt5queueISt4pairIiiESt5dequeIS1_SaIS1_EEE4sizeEv(%"class.std::queue"*) #4 comdat align 2 {
  %2 = alloca %"class.std::queue"*, align 8
  store %"class.std::queue"* %0, %"class.std::queue"** %2, align 8
  %3 = load %"class.std::queue"*, %"class.std::queue"** %2, align 8
  %4 = getelementptr inbounds %"class.std::queue", %"class.std::queue"* %3, i32 0, i32 0
  %5 = call i64 @_ZNKSt5dequeISt4pairIiiESaIS1_EE4sizeEv(%"class.std::deque"* %4) #3
  ret i64 %5
}

; Function Attrs: noinline nounwind uwtable
define linkonce_odr dereferenceable(8) %"struct.std::pair"* @_ZNSt5queueISt4pairIiiESt5dequeIS1_SaIS1_EEE5frontEv(%"class.std::queue"*) #4 comdat align 2 {
  %2 = alloca %"class.std::queue"*, align 8
  store %"class.std::queue"* %0, %"class.std::queue"** %2, align 8
  %3 = load %"class.std::queue"*, %"class.std::queue"** %2, align 8
  %4 = getelementptr inbounds %"class.std::queue", %"class.std::queue"* %3, i32 0, i32 0
  %5 = call dereferenceable(8) %"struct.std::pair"* @_ZNSt5dequeISt4pairIiiESaIS1_EE5frontEv(%"class.std::deque"* %4) #3
  ret %"struct.std::pair"* %5
}

; Function Attrs: argmemonly nounwind
declare void @llvm.memcpy.p0i8.p0i8.i64(i8* nocapture writeonly, i8* nocapture readonly, i64, i32, i1) #5

; Function Attrs: noinline nounwind uwtable
define linkonce_odr void @_ZNSt5queueISt4pairIiiESt5dequeIS1_SaIS1_EEE3popEv(%"class.std::queue"*) #4 comdat align 2 {
  %2 = alloca %"class.std::queue"*, align 8
  store %"class.std::queue"* %0, %"class.std::queue"** %2, align 8
  %3 = load %"class.std::queue"*, %"class.std::queue"** %2, align 8
  %4 = getelementptr inbounds %"class.std::queue", %"class.std::queue"* %3, i32 0, i32 0
  call void @_ZNSt5dequeISt4pairIiiESaIS1_EE9pop_frontEv(%"class.std::deque"* %4) #3
  ret void
}

; Function Attrs: noinline nounwind uwtable
define linkonce_odr dereferenceable(24) %"class.std::vector.10"* @_ZNSt6vectorIS_IcSaIcEESaIS1_EEixEm(%"class.std::vector.5"*, i64) #4 comdat align 2 {
  %3 = alloca %"class.std::vector.5"*, align 8
  %4 = alloca i64, align 8
  store %"class.std::vector.5"* %0, %"class.std::vector.5"** %3, align 8
  store i64 %1, i64* %4, align 8
  %5 = load %"class.std::vector.5"*, %"class.std::vector.5"** %3, align 8
  %6 = bitcast %"class.std::vector.5"* %5 to %"struct.std::_Vector_base.6"*
  %7 = getelementptr inbounds %"struct.std::_Vector_base.6", %"struct.std::_Vector_base.6"* %6, i32 0, i32 0
  %8 = getelementptr inbounds %"struct.std::_Vector_base<std::vector<char, std::allocator<char> >, std::allocator<std::vector<char, std::allocator<char> > > >::_Vector_impl", %"struct.std::_Vector_base<std::vector<char, std::allocator<char> >, std::allocator<std::vector<char, std::allocator<char> > > >::_Vector_impl"* %7, i32 0, i32 0
  %9 = load %"class.std::vector.10"*, %"class.std::vector.10"** %8, align 8
  %10 = load i64, i64* %4, align 8
  %11 = getelementptr inbounds %"class.std::vector.10", %"class.std::vector.10"* %9, i64 %10
  ret %"class.std::vector.10"* %11
}

; Function Attrs: noinline nounwind uwtable
define linkonce_odr dereferenceable(1) i8* @_ZNSt6vectorIcSaIcEEixEm(%"class.std::vector.10"*, i64) #4 comdat align 2 {
  %3 = alloca i8*
  %4 = alloca i1
  %5 = alloca i1
  %6 = load i32, i32* @x.55
  %7 = load i32, i32* @y.56
  %8 = add i32 %6, 1114980466
  %9 = sub i32 %8, 1
  %10 = sub i32 %9, 1114980466
  %11 = sub i32 %6, 1
  %12 = mul i32 %6, %10
  %13 = urem i32 %12, 2
  %14 = icmp eq i32 %13, 0
  store i1 %14, i1* %5
  %15 = icmp slt i32 %7, 10
  store i1 %15, i1* %4
  %16 = alloca i32
  store i32 -62167238, i32* %16
  br label %17

; <label>:17:                                     ; preds = %2, %76
  %18 = load i32, i32* %16
  switch i32 %18, label %19 [
    i32 -62167238, label %20
    i32 225464377, label %28
    i32 1645172541, label %64
    i32 -1871799262, label %66
  ]

; <label>:19:                                     ; preds = %17
  br label %76

; <label>:20:                                     ; preds = %17
  %21 = load volatile i1, i1* %5
  %22 = load volatile i1, i1* %4
  %23 = and i1 %21, %22
  %24 = xor i1 %21, %22
  %25 = or i1 %23, %24
  %26 = or i1 %21, %22
  %27 = select i1 %25, i32 225464377, i32 -1871799262
  store i32 %27, i32* %16
  br label %76

; <label>:28:                                     ; preds = %17
  %29 = alloca %"class.std::vector.10"*, align 8
  %30 = alloca i64, align 8
  store %"class.std::vector.10"* %0, %"class.std::vector.10"** %29, align 8
  store i64 %1, i64* %30, align 8
  %31 = load %"class.std::vector.10"*, %"class.std::vector.10"** %29, align 8
  %32 = bitcast %"class.std::vector.10"* %31 to %"struct.std::_Vector_base.11"*
  %33 = getelementptr inbounds %"struct.std::_Vector_base.11", %"struct.std::_Vector_base.11"* %32, i32 0, i32 0
  %34 = getelementptr inbounds %"struct.std::_Vector_base<char, std::allocator<char> >::_Vector_impl", %"struct.std::_Vector_base<char, std::allocator<char> >::_Vector_impl"* %33, i32 0, i32 0
  %35 = load i8*, i8** %34, align 8
  %36 = load i64, i64* %30, align 8
  %37 = getelementptr inbounds i8, i8* %35, i64 %36
  store i8* %37, i8** %3
  %38 = load i32, i32* @x.55
  %39 = load i32, i32* @y.56
  %40 = sub i32 0, 1
  %41 = add i32 %38, %40
  %42 = sub i32 %38, 1
  %43 = mul i32 %38, %41
  %44 = urem i32 %43, 2
  %45 = icmp eq i32 %44, 0
  %46 = icmp slt i32 %39, 10
  %47 = xor i1 %45, true
  %48 = xor i1 %46, true
  %49 = xor i1 false, true
  %50 = and i1 %47, false
  %51 = and i1 %45, %49
  %52 = and i1 %48, false
  %53 = and i1 %46, %49
  %54 = or i1 %50, %51
  %55 = or i1 %52, %53
  %56 = xor i1 %54, %55
  %57 = or i1 %47, %48
  %58 = xor i1 %57, true
  %59 = or i1 false, %49
  %60 = and i1 %58, %59
  %61 = or i1 %56, %60
  %62 = or i1 %45, %46
  %63 = select i1 %61, i32 1645172541, i32 -1871799262
  store i32 %63, i32* %16
  br label %76

; <label>:64:                                     ; preds = %17
  %65 = load volatile i8*, i8** %3
  ret i8* %65

; <label>:66:                                     ; preds = %17
  %67 = alloca %"class.std::vector.10"*, align 8
  %68 = alloca i64, align 8
  store %"class.std::vector.10"* %0, %"class.std::vector.10"** %67, align 8
  store i64 %1, i64* %68, align 8
  %69 = load %"class.std::vector.10"*, %"class.std::vector.10"** %67, align 8
  %70 = bitcast %"class.std::vector.10"* %69 to %"struct.std::_Vector_base.11"*
  %71 = getelementptr inbounds %"struct.std::_Vector_base.11", %"struct.std::_Vector_base.11"* %70, i32 0, i32 0
  %72 = getelementptr inbounds %"struct.std::_Vector_base<char, std::allocator<char> >::_Vector_impl", %"struct.std::_Vector_base<char, std::allocator<char> >::_Vector_impl"* %71, i32 0, i32 0
  %73 = load i8*, i8** %72, align 8
  %74 = load i64, i64* %68, align 8
  %75 = getelementptr inbounds i8, i8* %73, i64 %74
  store i32 225464377, i32* %16
  br label %76

; <label>:76:                                     ; preds = %66, %28, %20, %19
  br label %17
}

; Function Attrs: noinline nounwind uwtable
define linkonce_odr dereferenceable(24) %"class.std::vector.0"* @_ZNSt6vectorIS_IxSaIxEESaIS1_EEixEm(%"class.std::vector"*, i64) #4 comdat align 2 {
  %3 = alloca %"class.std::vector.0"*
  %4 = alloca i1
  %5 = alloca i1
  %6 = load i32, i32* @x.57
  %7 = load i32, i32* @y.58
  %8 = sub i32 0, 1
  %9 = add i32 %6, %8
  %10 = sub i32 %6, 1
  %11 = mul i32 %6, %9
  %12 = urem i32 %11, 2
  %13 = icmp eq i32 %12, 0
  store i1 %13, i1* %5
  %14 = icmp slt i32 %7, 10
  store i1 %14, i1* %4
  %15 = alloca i32
  store i32 -571864313, i32* %15
  br label %16

; <label>:16:                                     ; preds = %2, %76
  %17 = load i32, i32* %15
  switch i32 %17, label %18 [
    i32 -571864313, label %19
    i32 -2096081579, label %39
    i32 -1150632527, label %64
    i32 1857301904, label %66
  ]

; <label>:18:                                     ; preds = %16
  br label %76

; <label>:19:                                     ; preds = %16
  %20 = load volatile i1, i1* %5
  %21 = load volatile i1, i1* %4
  %22 = xor i1 %20, true
  %23 = xor i1 %21, true
  %24 = xor i1 true, true
  %25 = and i1 %22, true
  %26 = and i1 %20, %24
  %27 = and i1 %23, true
  %28 = and i1 %21, %24
  %29 = or i1 %25, %26
  %30 = or i1 %27, %28
  %31 = xor i1 %29, %30
  %32 = or i1 %22, %23
  %33 = xor i1 %32, true
  %34 = or i1 true, %24
  %35 = and i1 %33, %34
  %36 = or i1 %31, %35
  %37 = or i1 %20, %21
  %38 = select i1 %36, i32 -2096081579, i32 1857301904
  store i32 %38, i32* %15
  br label %76

; <label>:39:                                     ; preds = %16
  %40 = alloca %"class.std::vector"*, align 8
  %41 = alloca i64, align 8
  store %"class.std::vector"* %0, %"class.std::vector"** %40, align 8
  store i64 %1, i64* %41, align 8
  %42 = load %"class.std::vector"*, %"class.std::vector"** %40, align 8
  %43 = bitcast %"class.std::vector"* %42 to %"struct.std::_Vector_base"*
  %44 = getelementptr inbounds %"struct.std::_Vector_base", %"struct.std::_Vector_base"* %43, i32 0, i32 0
  %45 = getelementptr inbounds %"struct.std::_Vector_base<std::vector<long long, std::allocator<long long> >, std::allocator<std::vector<long long, std::allocator<long long> > > >::_Vector_impl", %"struct.std::_Vector_base<std::vector<long long, std::allocator<long long> >, std::allocator<std::vector<long long, std::allocator<long long> > > >::_Vector_impl"* %44, i32 0, i32 0
  %46 = load %"class.std::vector.0"*, %"class.std::vector.0"** %45, align 8
  %47 = load i64, i64* %41, align 8
  %48 = getelementptr inbounds %"class.std::vector.0", %"class.std::vector.0"* %46, i64 %47
  store %"class.std::vector.0"* %48, %"class.std::vector.0"** %3
  %49 = load i32, i32* @x.57
  %50 = load i32, i32* @y.58
  %51 = sub i32 %49, -1739802304
  %52 = sub i32 %51, 1
  %53 = add i32 %52, -1739802304
  %54 = sub i32 %49, 1
  %55 = mul i32 %49, %53
  %56 = urem i32 %55, 2
  %57 = icmp eq i32 %56, 0
  %58 = icmp slt i32 %50, 10
  %59 = and i1 %57, %58
  %60 = xor i1 %57, %58
  %61 = or i1 %59, %60
  %62 = or i1 %57, %58
  %63 = select i1 %61, i32 -1150632527, i32 1857301904
  store i32 %63, i32* %15
  br label %76

; <label>:64:                                     ; preds = %16
  %65 = load volatile %"class.std::vector.0"*, %"class.std::vector.0"** %3
  ret %"class.std::vector.0"* %65

; <label>:66:                                     ; preds = %16
  %67 = alloca %"class.std::vector"*, align 8
  %68 = alloca i64, align 8
  store %"class.std::vector"* %0, %"class.std::vector"** %67, align 8
  store i64 %1, i64* %68, align 8
  %69 = load %"class.std::vector"*, %"class.std::vector"** %67, align 8
  %70 = bitcast %"class.std::vector"* %69 to %"struct.std::_Vector_base"*
  %71 = getelementptr inbounds %"struct.std::_Vector_base", %"struct.std::_Vector_base"* %70, i32 0, i32 0
  %72 = getelementptr inbounds %"struct.std::_Vector_base<std::vector<long long, std::allocator<long long> >, std::allocator<std::vector<long long, std::allocator<long long> > > >::_Vector_impl", %"struct.std::_Vector_base<std::vector<long long, std::allocator<long long> >, std::allocator<std::vector<long long, std::allocator<long long> > > >::_Vector_impl"* %71, i32 0, i32 0
  %73 = load %"class.std::vector.0"*, %"class.std::vector.0"** %72, align 8
  %74 = load i64, i64* %68, align 8
  %75 = getelementptr inbounds %"class.std::vector.0", %"class.std::vector.0"* %73, i64 %74
  store i32 -2096081579, i32* %15
  br label %76

; <label>:76:                                     ; preds = %66, %39, %19, %18
  br label %16
}

; Function Attrs: noinline nounwind uwtable
define linkonce_odr dereferenceable(8) i64* @_ZNSt6vectorIxSaIxEEixEm(%"class.std::vector.0"*, i64) #4 comdat align 2 {
  %3 = alloca i64*
  %4 = alloca i1
  %5 = alloca i1
  %6 = load i32, i32* @x.59
  %7 = load i32, i32* @y.60
  %8 = sub i32 %6, -1822956476
  %9 = sub i32 %8, 1
  %10 = add i32 %9, -1822956476
  %11 = sub i32 %6, 1
  %12 = mul i32 %6, %10
  %13 = urem i32 %12, 2
  %14 = icmp eq i32 %13, 0
  store i1 %14, i1* %5
  %15 = icmp slt i32 %7, 10
  store i1 %15, i1* %4
  %16 = alloca i32
  store i32 -1317362026, i32* %16
  br label %17

; <label>:17:                                     ; preds = %2, %65
  %18 = load i32, i32* %16
  switch i32 %18, label %19 [
    i32 -1317362026, label %20
    i32 1060442288, label %28
    i32 1809271336, label %53
    i32 -1876466468, label %55
  ]

; <label>:19:                                     ; preds = %17
  br label %65

; <label>:20:                                     ; preds = %17
  %21 = load volatile i1, i1* %5
  %22 = load volatile i1, i1* %4
  %23 = and i1 %21, %22
  %24 = xor i1 %21, %22
  %25 = or i1 %23, %24
  %26 = or i1 %21, %22
  %27 = select i1 %25, i32 1060442288, i32 -1876466468
  store i32 %27, i32* %16
  br label %65

; <label>:28:                                     ; preds = %17
  %29 = alloca %"class.std::vector.0"*, align 8
  %30 = alloca i64, align 8
  store %"class.std::vector.0"* %0, %"class.std::vector.0"** %29, align 8
  store i64 %1, i64* %30, align 8
  %31 = load %"class.std::vector.0"*, %"class.std::vector.0"** %29, align 8
  %32 = bitcast %"class.std::vector.0"* %31 to %"struct.std::_Vector_base.1"*
  %33 = getelementptr inbounds %"struct.std::_Vector_base.1", %"struct.std::_Vector_base.1"* %32, i32 0, i32 0
  %34 = getelementptr inbounds %"struct.std::_Vector_base<long long, std::allocator<long long> >::_Vector_impl", %"struct.std::_Vector_base<long long, std::allocator<long long> >::_Vector_impl"* %33, i32 0, i32 0
  %35 = load i64*, i64** %34, align 8
  %36 = load i64, i64* %30, align 8
  %37 = getelementptr inbounds i64, i64* %35, i64 %36
  store i64* %37, i64** %3
  %38 = load i32, i32* @x.59
  %39 = load i32, i32* @y.60
  %40 = add i32 %38, -1461831476
  %41 = sub i32 %40, 1
  %42 = sub i32 %41, -1461831476
  %43 = sub i32 %38, 1
  %44 = mul i32 %38, %42
  %45 = urem i32 %44, 2
  %46 = icmp eq i32 %45, 0
  %47 = icmp slt i32 %39, 10
  %48 = and i1 %46, %47
  %49 = xor i1 %46, %47
  %50 = or i1 %48, %49
  %51 = or i1 %46, %47
  %52 = select i1 %50, i32 1809271336, i32 -1876466468
  store i32 %52, i32* %16
  br label %65

; <label>:53:                                     ; preds = %17
  %54 = load volatile i64*, i64** %3
  ret i64* %54

; <label>:55:                                     ; preds = %17
  %56 = alloca %"class.std::vector.0"*, align 8
  %57 = alloca i64, align 8
  store %"class.std::vector.0"* %0, %"class.std::vector.0"** %56, align 8
  store i64 %1, i64* %57, align 8
  %58 = load %"class.std::vector.0"*, %"class.std::vector.0"** %56, align 8
  %59 = bitcast %"class.std::vector.0"* %58 to %"struct.std::_Vector_base.1"*
  %60 = getelementptr inbounds %"struct.std::_Vector_base.1", %"struct.std::_Vector_base.1"* %59, i32 0, i32 0
  %61 = getelementptr inbounds %"struct.std::_Vector_base<long long, std::allocator<long long> >::_Vector_impl", %"struct.std::_Vector_base<long long, std::allocator<long long> >::_Vector_impl"* %60, i32 0, i32 0
  %62 = load i64*, i64** %61, align 8
  %63 = load i64, i64* %57, align 8
  %64 = getelementptr inbounds i64, i64* %62, i64 %63
  store i32 1060442288, i32* %16
  br label %65

; <label>:65:                                     ; preds = %55, %28, %20, %19
  br label %17
}

; Function Attrs: noinline nounwind uwtable
define linkonce_odr dereferenceable(8) i64* @_ZSt3minIxERKT_S2_S2_(i64* dereferenceable(8), i64* dereferenceable(8)) #4 comdat {
  %3 = alloca i1
  %4 = alloca i64**
  %5 = alloca i64**
  %6 = alloca i64**
  %7 = alloca i1
  %8 = alloca i1
  %9 = load i32, i32* @x.61
  %10 = load i32, i32* @y.62
  %11 = add i32 %9, 122560919
  %12 = sub i32 %11, 1
  %13 = sub i32 %12, 122560919
  %14 = sub i32 %9, 1
  %15 = mul i32 %9, %13
  %16 = urem i32 %15, 2
  %17 = icmp eq i32 %16, 0
  store i1 %17, i1* %8
  %18 = icmp slt i32 %10, 10
  store i1 %18, i1* %7
  %19 = alloca i32
  store i32 -1792377610, i32* %19
  br label %20

; <label>:20:                                     ; preds = %2, %141
  %21 = load i32, i32* %19
  switch i32 %21, label %22 [
    i32 -1792377610, label %23
    i32 -648890812, label %31
    i32 1335314971, label %58
    i32 1225851952, label %61
    i32 1262539733, label %89
    i32 1478082770, label %120
    i32 2075255196, label %121
    i32 1120272244, label %125
    i32 655369979, label %128
    i32 1755607587, label %137
  ]

; <label>:22:                                     ; preds = %20
  br label %141

; <label>:23:                                     ; preds = %20
  %24 = load volatile i1, i1* %8
  %25 = load volatile i1, i1* %7
  %26 = and i1 %24, %25
  %27 = xor i1 %24, %25
  %28 = or i1 %26, %27
  %29 = or i1 %24, %25
  %30 = select i1 %28, i32 -648890812, i32 655369979
  store i32 %30, i32* %19
  br label %141

; <label>:31:                                     ; preds = %20
  %32 = alloca i64*, align 8
  store i64** %32, i64*** %6
  %33 = alloca i64*, align 8
  store i64** %33, i64*** %5
  %34 = alloca i64*, align 8
  store i64** %34, i64*** %4
  %35 = load volatile i64**, i64*** %5
  store i64* %0, i64** %35, align 8
  %36 = load volatile i64**, i64*** %4
  store i64* %1, i64** %36, align 8
  %37 = load volatile i64**, i64*** %4
  %38 = load i64*, i64** %37, align 8
  %39 = load i64, i64* %38, align 8
  %40 = load volatile i64**, i64*** %5
  %41 = load i64*, i64** %40, align 8
  %42 = load i64, i64* %41, align 8
  %43 = icmp slt i64 %39, %42
  store i1 %43, i1* %3
  %44 = load i32, i32* @x.61
  %45 = load i32, i32* @y.62
  %46 = sub i32 0, 1
  %47 = add i32 %44, %46
  %48 = sub i32 %44, 1
  %49 = mul i32 %44, %47
  %50 = urem i32 %49, 2
  %51 = icmp eq i32 %50, 0
  %52 = icmp slt i32 %45, 10
  %53 = and i1 %51, %52
  %54 = xor i1 %51, %52
  %55 = or i1 %53, %54
  %56 = or i1 %51, %52
  %57 = select i1 %55, i32 1335314971, i32 655369979
  store i32 %57, i32* %19
  br label %141

; <label>:58:                                     ; preds = %20
  %59 = load volatile i1, i1* %3
  %60 = select i1 %59, i32 1225851952, i32 2075255196
  store i32 %60, i32* %19
  br label %141

; <label>:61:                                     ; preds = %20
  %62 = load i32, i32* @x.61
  %63 = load i32, i32* @y.62
  %64 = sub i32 %62, 336590649
  %65 = sub i32 %64, 1
  %66 = add i32 %65, 336590649
  %67 = sub i32 %62, 1
  %68 = mul i32 %62, %66
  %69 = urem i32 %68, 2
  %70 = icmp eq i32 %69, 0
  %71 = icmp slt i32 %63, 10
  %72 = xor i1 %70, true
  %73 = xor i1 %71, true
  %74 = xor i1 false, true
  %75 = and i1 %72, false
  %76 = and i1 %70, %74
  %77 = and i1 %73, false
  %78 = and i1 %71, %74
  %79 = or i1 %75, %76
  %80 = or i1 %77, %78
  %81 = xor i1 %79, %80
  %82 = or i1 %72, %73
  %83 = xor i1 %82, true
  %84 = or i1 false, %74
  %85 = and i1 %83, %84
  %86 = or i1 %81, %85
  %87 = or i1 %70, %71
  %88 = select i1 %86, i32 1262539733, i32 1755607587
  store i32 %88, i32* %19
  br label %141

; <label>:89:                                     ; preds = %20
  %90 = load volatile i64**, i64*** %4
  %91 = load i64*, i64** %90, align 8
  %92 = load volatile i64**, i64*** %6
  store i64* %91, i64** %92, align 8
  %93 = load i32, i32* @x.61
  %94 = load i32, i32* @y.62
  %95 = add i32 %93, 1672553501
  %96 = sub i32 %95, 1
  %97 = sub i32 %96, 1672553501
  %98 = sub i32 %93, 1
  %99 = mul i32 %93, %97
  %100 = urem i32 %99, 2
  %101 = icmp eq i32 %100, 0
  %102 = icmp slt i32 %94, 10
  %103 = xor i1 %101, true
  %104 = xor i1 %102, true
  %105 = xor i1 true, true
  %106 = and i1 %103, true
  %107 = and i1 %101, %105
  %108 = and i1 %104, true
  %109 = and i1 %102, %105
  %110 = or i1 %106, %107
  %111 = or i1 %108, %109
  %112 = xor i1 %110, %111
  %113 = or i1 %103, %104
  %114 = xor i1 %113, true
  %115 = or i1 true, %105
  %116 = and i1 %114, %115
  %117 = or i1 %112, %116
  %118 = or i1 %101, %102
  %119 = select i1 %117, i32 1478082770, i32 1755607587
  store i32 %119, i32* %19
  br label %141

; <label>:120:                                    ; preds = %20
  store i32 1120272244, i32* %19
  br label %141

; <label>:121:                                    ; preds = %20
  %122 = load volatile i64**, i64*** %5
  %123 = load i64*, i64** %122, align 8
  %124 = load volatile i64**, i64*** %6
  store i64* %123, i64** %124, align 8
  store i32 1120272244, i32* %19
  br label %141

; <label>:125:                                    ; preds = %20
  %126 = load volatile i64**, i64*** %6
  %127 = load i64*, i64** %126, align 8
  ret i64* %127

; <label>:128:                                    ; preds = %20
  %129 = alloca i64*, align 8
  %130 = alloca i64*, align 8
  %131 = alloca i64*, align 8
  store i64* %0, i64** %130, align 8
  store i64* %1, i64** %131, align 8
  %132 = load i64*, i64** %131, align 8
  %133 = load i64, i64* %132, align 8
  %134 = load i64*, i64** %130, align 8
  %135 = load i64, i64* %134, align 8
  %136 = icmp slt i64 %133, %135
  store i32 -648890812, i32* %19
  br label %141

; <label>:137:                                    ; preds = %20
  %138 = load volatile i64**, i64*** %4
  %139 = load i64*, i64** %138, align 8
  %140 = load volatile i64**, i64*** %6
  store i64* %139, i64** %140, align 8
  store i32 1262539733, i32* %19
  br label %141

; <label>:141:                                    ; preds = %137, %128, %121, %120, %89, %61, %58, %31, %23, %22
  br label %20
}

; Function Attrs: noinline uwtable
define linkonce_odr i64 @_ZSt9make_pairIiiESt4pairINSt17__decay_and_stripIT_E6__typeENS1_IT0_E6__typeEEOS2_OS5_(i32* dereferenceable(4), i32* dereferenceable(4)) #0 comdat {
  %3 = alloca %"struct.std::pair", align 4
  %4 = alloca i32*, align 8
  %5 = alloca i32*, align 8
  store i32* %0, i32** %4, align 8
  store i32* %1, i32** %5, align 8
  %6 = load i32*, i32** %4, align 8
  %7 = call dereferenceable(4) i32* @_ZSt7forwardIiEOT_RNSt16remove_referenceIS0_E4typeE(i32* dereferenceable(4) %6) #3
  %8 = load i32*, i32** %5, align 8
  %9 = call dereferenceable(4) i32* @_ZSt7forwardIiEOT_RNSt16remove_referenceIS0_E4typeE(i32* dereferenceable(4) %8) #3
  call void @_ZNSt4pairIiiEC2IiivEEOT_OT0_(%"struct.std::pair"* %3, i32* dereferenceable(4) %7, i32* dereferenceable(4) %9)
  %10 = bitcast %"struct.std::pair"* %3 to i64*
  %11 = load i64, i64* %10, align 4
  ret i64 %11
}

; Function Attrs: noinline nounwind uwtable
define linkonce_odr void @_ZNSt6vectorIS_IxSaIxEESaIS1_EED2Ev(%"class.std::vector"*) unnamed_addr #4 comdat align 2 personality i8* bitcast (i32 (...)* @__gxx_personality_v0 to i8*) {
  %2 = alloca %"class.std::vector"*, align 8
  %3 = alloca i8*
  %4 = alloca i32
  store %"class.std::vector"* %0, %"class.std::vector"** %2, align 8
  %5 = load %"class.std::vector"*, %"class.std::vector"** %2, align 8
  %6 = bitcast %"class.std::vector"* %5 to %"struct.std::_Vector_base"*
  %7 = getelementptr inbounds %"struct.std::_Vector_base", %"struct.std::_Vector_base"* %6, i32 0, i32 0
  %8 = getelementptr inbounds %"struct.std::_Vector_base<std::vector<long long, std::allocator<long long> >, std::allocator<std::vector<long long, std::allocator<long long> > > >::_Vector_impl", %"struct.std::_Vector_base<std::vector<long long, std::allocator<long long> >, std::allocator<std::vector<long long, std::allocator<long long> > > >::_Vector_impl"* %7, i32 0, i32 0
  %9 = load %"class.std::vector.0"*, %"class.std::vector.0"** %8, align 8
  %10 = bitcast %"class.std::vector"* %5 to %"struct.std::_Vector_base"*
  %11 = getelementptr inbounds %"struct.std::_Vector_base", %"struct.std::_Vector_base"* %10, i32 0, i32 0
  %12 = getelementptr inbounds %"struct.std::_Vector_base<std::vector<long long, std::allocator<long long> >, std::allocator<std::vector<long long, std::allocator<long long> > > >::_Vector_impl", %"struct.std::_Vector_base<std::vector<long long, std::allocator<long long> >, std::allocator<std::vector<long long, std::allocator<long long> > > >::_Vector_impl"* %11, i32 0, i32 1
  %13 = load %"class.std::vector.0"*, %"class.std::vector.0"** %12, align 8
  %14 = bitcast %"class.std::vector"* %5 to %"struct.std::_Vector_base"*
  %15 = call dereferenceable(1) %"class.std::allocator"* @_ZNSt12_Vector_baseISt6vectorIxSaIxEESaIS2_EE19_M_get_Tp_allocatorEv(%"struct.std::_Vector_base"* %14) #3
  invoke void @_ZSt8_DestroyIPSt6vectorIxSaIxEES2_EvT_S4_RSaIT0_E(%"class.std::vector.0"* %9, %"class.std::vector.0"* %13, %"class.std::allocator"* dereferenceable(1) %15)
          to label %16 unwind label %47

; <label>:16:                                     ; preds = %1
  %17 = load i32, i32* @x.65
  %18 = load i32, i32* @y.66
  %19 = sub i32 0, 1
  %20 = add i32 %17, %19
  %21 = sub i32 %17, 1
  %22 = mul i32 %17, %20
  %23 = urem i32 %22, 2
  %24 = icmp eq i32 %23, 0
  %25 = icmp slt i32 %18, 10
  %26 = and i1 %24, %25
  %27 = xor i1 %24, %25
  %28 = or i1 %26, %27
  %29 = or i1 %24, %25
  br i1 %28, label %30, label %83

; <label>:30:                                     ; preds = %16, %83
  %31 = bitcast %"class.std::vector"* %5 to %"struct.std::_Vector_base"*
  call void @_ZNSt12_Vector_baseISt6vectorIxSaIxEESaIS2_EED2Ev(%"struct.std::_Vector_base"* %31) #3
  %32 = load i32, i32* @x.65
  %33 = load i32, i32* @y.66
  %34 = add i32 %32, 581411121
  %35 = sub i32 %34, 1
  %36 = sub i32 %35, 581411121
  %37 = sub i32 %32, 1
  %38 = mul i32 %32, %36
  %39 = urem i32 %38, 2
  %40 = icmp eq i32 %39, 0
  %41 = icmp slt i32 %33, 10
  %42 = and i1 %40, %41
  %43 = xor i1 %40, %41
  %44 = or i1 %42, %43
  %45 = or i1 %40, %41
  br i1 %44, label %46, label %83

; <label>:46:                                     ; preds = %30
  ret void

; <label>:47:                                     ; preds = %1
  %48 = load i32, i32* @x.65
  %49 = load i32, i32* @y.66
  %50 = sub i32 %48, -202881338
  %51 = sub i32 %50, 1
  %52 = add i32 %51, -202881338
  %53 = sub i32 %48, 1
  %54 = mul i32 %48, %52
  %55 = urem i32 %54, 2
  %56 = icmp eq i32 %55, 0
  %57 = icmp slt i32 %49, 10
  %58 = and i1 %56, %57
  %59 = xor i1 %56, %57
  %60 = or i1 %58, %59
  %61 = or i1 %56, %57
  br i1 %60, label %62, label %85

; <label>:62:                                     ; preds = %47, %85
  %63 = landingpad { i8*, i32 }
          catch i8* null
  %64 = extractvalue { i8*, i32 } %63, 0
  store i8* %64, i8** %3, align 8
  %65 = extractvalue { i8*, i32 } %63, 1
  store i32 %65, i32* %4, align 4
  %66 = bitcast %"class.std::vector"* %5 to %"struct.std::_Vector_base"*
  call void @_ZNSt12_Vector_baseISt6vectorIxSaIxEESaIS2_EED2Ev(%"struct.std::_Vector_base"* %66) #3
  %67 = load i32, i32* @x.65
  %68 = load i32, i32* @y.66
  %69 = sub i32 0, 1
  %70 = add i32 %67, %69
  %71 = sub i32 %67, 1
  %72 = mul i32 %67, %70
  %73 = urem i32 %72, 2
  %74 = icmp eq i32 %73, 0
  %75 = icmp slt i32 %68, 10
  %76 = and i1 %74, %75
  %77 = xor i1 %74, %75
  %78 = or i1 %76, %77
  %79 = or i1 %74, %75
  br i1 %78, label %80, label %85

; <label>:80:                                     ; preds = %62
  br label %81

; <label>:81:                                     ; preds = %80
  %82 = load i8*, i8** %3, align 8
  call void @__clang_call_terminate(i8* %82) #12
  unreachable

; <label>:83:                                     ; preds = %30, %16
  %84 = bitcast %"class.std::vector"* %5 to %"struct.std::_Vector_base"*
  call void @_ZNSt12_Vector_baseISt6vectorIxSaIxEESaIS2_EED2Ev(%"struct.std::_Vector_base"* %84) #3
  br label %30

; <label>:85:                                     ; preds = %62, %47
  %86 = landingpad { i8*, i32 }
          catch i8* null
  %87 = extractvalue { i8*, i32 } %86, 0
  store i8* %87, i8** %3, align 8
  %88 = extractvalue { i8*, i32 } %86, 1
  store i32 %88, i32* %4, align 4
  %89 = bitcast %"class.std::vector"* %5 to %"struct.std::_Vector_base"*
  call void @_ZNSt12_Vector_baseISt6vectorIxSaIxEESaIS2_EED2Ev(%"struct.std::_Vector_base"* %89) #3
  br label %62
}

; Function Attrs: noinline nounwind uwtable
define linkonce_odr void @_ZNSt5queueISt4pairIiiESt5dequeIS1_SaIS1_EEED2Ev(%"class.std::queue"*) unnamed_addr #4 comdat align 2 {
  %2 = alloca %"class.std::queue"*, align 8
  store %"class.std::queue"* %0, %"class.std::queue"** %2, align 8
  %3 = load %"class.std::queue"*, %"class.std::queue"** %2, align 8
  %4 = getelementptr inbounds %"class.std::queue", %"class.std::queue"* %3, i32 0, i32 0
  call void @_ZNSt5dequeISt4pairIiiESaIS1_EED2Ev(%"class.std::deque"* %4) #3
  ret void
}

; Function Attrs: noinline uwtable
define i64 @_Z12modfactorialx(i64) #0 {
  %2 = alloca i64
  %3 = alloca i64, align 8
  %4 = alloca i64, align 8
  store i64 %0, i64* %4, align 8
  %5 = load i64, i64* %4, align 8
  store i64 %5, i64* %2
  %6 = alloca i32
  store i32 1655903807, i32* %6
  br label %7

; <label>:7:                                      ; preds = %1, %28
  %8 = load i32, i32* %6
  switch i32 %8, label %9 [
    i32 1655903807, label %10
    i32 1658064420, label %14
    i32 -2057948687, label %15
    i32 2106069333, label %26
  ]

; <label>:9:                                      ; preds = %7
  br label %28

; <label>:10:                                     ; preds = %7
  %11 = load volatile i64, i64* %2
  %12 = icmp eq i64 %11, 1
  %13 = select i1 %12, i32 1658064420, i32 -2057948687
  store i32 %13, i32* %6
  br label %28

; <label>:14:                                     ; preds = %7
  store i64 1, i64* %3, align 8
  store i32 2106069333, i32* %6
  br label %28

; <label>:15:                                     ; preds = %7
  %16 = load i64, i64* %4, align 8
  %17 = srem i64 %16, 1000000007
  %18 = load i64, i64* %4, align 8
  %19 = add i64 %18, 1513547868493701870
  %20 = sub i64 %19, 1
  %21 = sub i64 %20, 1513547868493701870
  %22 = sub nsw i64 %18, 1
  %23 = call i64 @_Z12modfactorialx(i64 %21)
  %24 = srem i64 %23, 1000000007
  %25 = mul nsw i64 %17, %24
  store i64 %25, i64* %3, align 8
  store i32 2106069333, i32* %6
  br label %28

; <label>:26:                                     ; preds = %7
  %27 = load i64, i64* %3, align 8
  ret i64 %27

; <label>:28:                                     ; preds = %15, %14, %10, %9
  br label %7
}

; Function Attrs: noinline uwtable
define i64 @_Z3gcdxx(i64, i64) #0 {
  %3 = alloca i1
  %4 = alloca i64*
  %5 = alloca i64*
  %6 = alloca i64*
  %7 = alloca i1
  %8 = alloca i1
  %9 = load i32, i32* @x.71
  %10 = load i32, i32* @y.72
  %11 = add i32 %9, 878030568
  %12 = sub i32 %11, 1
  %13 = sub i32 %12, 878030568
  %14 = sub i32 %9, 1
  %15 = mul i32 %9, %13
  %16 = urem i32 %15, 2
  %17 = icmp eq i32 %16, 0
  store i1 %17, i1* %8
  %18 = icmp slt i32 %10, 10
  store i1 %18, i1* %7
  %19 = alloca i32
  store i32 -118894895, i32* %19
  br label %20

; <label>:20:                                     ; preds = %2, %118
  %21 = load i32, i32* %19
  switch i32 %21, label %22 [
    i32 -118894895, label %23
    i32 1517555985, label %43
    i32 2129935357, label %70
    i32 -1459358650, label %73
    i32 -1818695383, label %77
    i32 -2009695819, label %87
    i32 1517805738, label %90
  ]

; <label>:22:                                     ; preds = %20
  br label %118

; <label>:23:                                     ; preds = %20
  %24 = load volatile i1, i1* %8
  %25 = load volatile i1, i1* %7
  %26 = xor i1 %24, true
  %27 = xor i1 %25, true
  %28 = xor i1 false, true
  %29 = and i1 %26, false
  %30 = and i1 %24, %28
  %31 = and i1 %27, false
  %32 = and i1 %25, %28
  %33 = or i1 %29, %30
  %34 = or i1 %31, %32
  %35 = xor i1 %33, %34
  %36 = or i1 %26, %27
  %37 = xor i1 %36, true
  %38 = or i1 false, %28
  %39 = and i1 %37, %38
  %40 = or i1 %35, %39
  %41 = or i1 %24, %25
  %42 = select i1 %40, i32 1517555985, i32 1517805738
  store i32 %42, i32* %19
  br label %118

; <label>:43:                                     ; preds = %20
  %44 = alloca i64, align 8
  store i64* %44, i64** %6
  %45 = alloca i64, align 8
  store i64* %45, i64** %5
  %46 = alloca i64, align 8
  store i64* %46, i64** %4
  %47 = load volatile i64*, i64** %5
  store i64 %0, i64* %47, align 8
  %48 = load volatile i64*, i64** %4
  store i64 %1, i64* %48, align 8
  %49 = load volatile i64*, i64** %5
  %50 = load i64, i64* %49, align 8
  %51 = load volatile i64*, i64** %4
  %52 = load i64, i64* %51, align 8
  %53 = srem i64 %50, %52
  %54 = icmp eq i64 %53, 0
  store i1 %54, i1* %3
  %55 = load i32, i32* @x.71
  %56 = load i32, i32* @y.72
  %57 = add i32 %55, -2145510294
  %58 = sub i32 %57, 1
  %59 = sub i32 %58, -2145510294
  %60 = sub i32 %55, 1
  %61 = mul i32 %55, %59
  %62 = urem i32 %61, 2
  %63 = icmp eq i32 %62, 0
  %64 = icmp slt i32 %56, 10
  %65 = and i1 %63, %64
  %66 = xor i1 %63, %64
  %67 = or i1 %65, %66
  %68 = or i1 %63, %64
  %69 = select i1 %67, i32 2129935357, i32 1517805738
  store i32 %69, i32* %19
  br label %118

; <label>:70:                                     ; preds = %20
  %71 = load volatile i1, i1* %3
  %72 = select i1 %71, i32 -1459358650, i32 -1818695383
  store i32 %72, i32* %19
  br label %118

; <label>:73:                                     ; preds = %20
  %74 = load volatile i64*, i64** %4
  %75 = load i64, i64* %74, align 8
  %76 = load volatile i64*, i64** %6
  store i64 %75, i64* %76, align 8
  store i32 -2009695819, i32* %19
  br label %118

; <label>:77:                                     ; preds = %20
  %78 = load volatile i64*, i64** %4
  %79 = load i64, i64* %78, align 8
  %80 = load volatile i64*, i64** %5
  %81 = load i64, i64* %80, align 8
  %82 = load volatile i64*, i64** %4
  %83 = load i64, i64* %82, align 8
  %84 = srem i64 %81, %83
  %85 = call i64 @_Z3gcdxx(i64 %79, i64 %84)
  %86 = load volatile i64*, i64** %6
  store i64 %85, i64* %86, align 8
  store i32 -2009695819, i32* %19
  br label %118

; <label>:87:                                     ; preds = %20
  %88 = load volatile i64*, i64** %6
  %89 = load i64, i64* %88, align 8
  ret i64 %89

; <label>:90:                                     ; preds = %20
  %91 = alloca i64, align 8
  %92 = alloca i64, align 8
  %93 = alloca i64, align 8
  store i64 %0, i64* %92, align 8
  store i64 %1, i64* %93, align 8
  %94 = load i64, i64* %92, align 8
  %95 = load i64, i64* %93, align 8
  %96 = sub i64 0, %95
  %97 = add i64 %94, %96
  %98 = sub i64 %94, %95
  %99 = mul i64 %97, %95
  %100 = sub i64 0, 7944568907644006817
  %101 = sub i64 %100, %94
  %102 = add i64 %101, 7944568907644006817
  %103 = sub i64 0, %94
  %104 = sub i64 0, %95
  %105 = sub i64 %102, %104
  %106 = add i64 %102, %95
  %107 = shl i64 %94, %95
  %108 = add i64 %94, -8193575460165604462
  %109 = sub i64 %108, %95
  %110 = sub i64 %109, -8193575460165604462
  %111 = sub i64 %94, %95
  %112 = mul i64 %110, %95
  %113 = shl i64 %94, %95
  %114 = shl i64 %94, %95
  %115 = shl i64 %94, %95
  %116 = srem i64 %94, %95
  %117 = icmp eq i64 %116, 0
  store i32 1517555985, i32* %19
  br label %118

; <label>:118:                                    ; preds = %90, %77, %73, %70, %43, %23, %22
  br label %20
}

; Function Attrs: noinline uwtable
define i64 @_Z3lcmxx(i64, i64) #0 {
  %3 = alloca i64
  %4 = alloca i1
  %5 = alloca i1
  %6 = load i32, i32* @x.73
  %7 = load i32, i32* @y.74
  %8 = sub i32 0, 1
  %9 = add i32 %6, %8
  %10 = sub i32 %6, 1
  %11 = mul i32 %6, %9
  %12 = urem i32 %11, 2
  %13 = icmp eq i32 %12, 0
  store i1 %13, i1* %5
  %14 = icmp slt i32 %7, 10
  store i1 %14, i1* %4
  %15 = alloca i32
  store i32 -2004088088, i32* %15
  br label %16

; <label>:16:                                     ; preds = %2, %126
  %17 = load i32, i32* %15
  switch i32 %17, label %18 [
    i32 -2004088088, label %19
    i32 1578283598, label %27
    i32 1853468051, label %63
    i32 1546698660, label %65
  ]

; <label>:18:                                     ; preds = %16
  br label %126

; <label>:19:                                     ; preds = %16
  %20 = load volatile i1, i1* %5
  %21 = load volatile i1, i1* %4
  %22 = and i1 %20, %21
  %23 = xor i1 %20, %21
  %24 = or i1 %22, %23
  %25 = or i1 %20, %21
  %26 = select i1 %24, i32 1578283598, i32 1546698660
  store i32 %26, i32* %15
  br label %126

; <label>:27:                                     ; preds = %16
  %28 = alloca i64, align 8
  %29 = alloca i64, align 8
  store i64 %0, i64* %28, align 8
  store i64 %1, i64* %29, align 8
  %30 = load i64, i64* %28, align 8
  %31 = load i64, i64* %28, align 8
  %32 = load i64, i64* %29, align 8
  %33 = call i64 @_Z3gcdxx(i64 %31, i64 %32)
  %34 = sdiv i64 %30, %33
  %35 = load i64, i64* %29, align 8
  %36 = mul nsw i64 %34, %35
  store i64 %36, i64* %3
  %37 = load i32, i32* @x.73
  %38 = load i32, i32* @y.74
  %39 = sub i32 0, 1
  %40 = add i32 %37, %39
  %41 = sub i32 %37, 1
  %42 = mul i32 %37, %40
  %43 = urem i32 %42, 2
  %44 = icmp eq i32 %43, 0
  %45 = icmp slt i32 %38, 10
  %46 = xor i1 %44, true
  %47 = xor i1 %45, true
  %48 = xor i1 true, true
  %49 = and i1 %46, true
  %50 = and i1 %44, %48
  %51 = and i1 %47, true
  %52 = and i1 %45, %48
  %53 = or i1 %49, %50
  %54 = or i1 %51, %52
  %55 = xor i1 %53, %54
  %56 = or i1 %46, %47
  %57 = xor i1 %56, true
  %58 = or i1 true, %48
  %59 = and i1 %57, %58
  %60 = or i1 %55, %59
  %61 = or i1 %44, %45
  %62 = select i1 %60, i32 1853468051, i32 1546698660
  store i32 %62, i32* %15
  br label %126

; <label>:63:                                     ; preds = %16
  %64 = load volatile i64, i64* %3
  ret i64 %64

; <label>:65:                                     ; preds = %16
  %66 = alloca i64, align 8
  %67 = alloca i64, align 8
  store i64 %0, i64* %66, align 8
  store i64 %1, i64* %67, align 8
  %68 = load i64, i64* %66, align 8
  %69 = load i64, i64* %66, align 8
  %70 = load i64, i64* %67, align 8
  %71 = call i64 @_Z3gcdxx(i64 %69, i64 %70)
  %72 = sub i64 0, %71
  %73 = add i64 %68, %72
  %74 = sub i64 %68, %71
  %75 = mul i64 %73, %71
  %76 = shl i64 %68, %71
  %77 = sub i64 0, %71
  %78 = add i64 %68, %77
  %79 = sub i64 %68, %71
  %80 = mul i64 %78, %71
  %81 = shl i64 %68, %71
  %82 = sdiv i64 %68, %71
  %83 = load i64, i64* %67, align 8
  %84 = add i64 %82, 8759379554488972285
  %85 = sub i64 %84, %83
  %86 = sub i64 %85, 8759379554488972285
  %87 = sub i64 %82, %83
  %88 = mul i64 %86, %83
  %89 = sub i64 0, 7043231449344619458
  %90 = sub i64 %89, %82
  %91 = add i64 %90, 7043231449344619458
  %92 = sub i64 0, %82
  %93 = add i64 %91, 5475953651585796836
  %94 = add i64 %93, %83
  %95 = sub i64 %94, 5475953651585796836
  %96 = add i64 %91, %83
  %97 = add i64 0, 3675902731347634683
  %98 = sub i64 %97, %82
  %99 = sub i64 %98, 3675902731347634683
  %100 = sub i64 0, %82
  %101 = sub i64 0, %99
  %102 = sub i64 0, %83
  %103 = add i64 %101, %102
  %104 = sub i64 0, %103
  %105 = add i64 %99, %83
  %106 = sub i64 %82, 6350424180149197381
  %107 = sub i64 %106, %83
  %108 = add i64 %107, 6350424180149197381
  %109 = sub i64 %82, %83
  %110 = mul i64 %108, %83
  %111 = shl i64 %82, %83
  %112 = add i64 0, -1262834757699720481
  %113 = sub i64 %112, %82
  %114 = sub i64 %113, -1262834757699720481
  %115 = sub i64 0, %82
  %116 = add i64 %114, 6580830554887120672
  %117 = add i64 %116, %83
  %118 = sub i64 %117, 6580830554887120672
  %119 = add i64 %114, %83
  %120 = sub i64 %82, 5549225333586450178
  %121 = sub i64 %120, %83
  %122 = add i64 %121, 5549225333586450178
  %123 = sub i64 %82, %83
  %124 = mul i64 %122, %83
  %125 = mul nsw i64 %82, %83
  store i32 1578283598, i32* %15
  br label %126

; <label>:126:                                    ; preds = %65, %27, %19, %18
  br label %16
}

; Function Attrs: noinline uwtable
define void @_Z12prime_factorx(%"class.std::map"* noalias sret, i64) #0 personality i8* bitcast (i32 (...)* @__gxx_personality_v0 to i8*) {
  %3 = alloca i64, align 8
  %4 = alloca i1, align 1
  %5 = alloca i64, align 8
  %6 = alloca i8*
  %7 = alloca i32
  store i64 %1, i64* %3, align 8
  store i1 false, i1* %4, align 1
  call void @_ZNSt3mapIxxSt4lessIxESaISt4pairIKxxEEEC2Ev(%"class.std::map"* %0) #3
  store i64 2, i64* %5, align 8
  br label %8

; <label>:8:                                      ; preds = %122, %2
  %9 = load i32, i32* @x.75
  %10 = load i32, i32* @y.76
  %11 = sub i32 %9, 2143868942
  %12 = sub i32 %11, 1
  %13 = add i32 %12, 2143868942
  %14 = sub i32 %9, 1
  %15 = mul i32 %9, %13
  %16 = urem i32 %15, 2
  %17 = icmp eq i32 %16, 0
  %18 = icmp slt i32 %10, 10
  %19 = xor i1 %17, true
  %20 = xor i1 %18, true
  %21 = xor i1 true, true
  %22 = and i1 %19, true
  %23 = and i1 %17, %21
  %24 = and i1 %20, true
  %25 = and i1 %18, %21
  %26 = or i1 %22, %23
  %27 = or i1 %24, %25
  %28 = xor i1 %26, %27
  %29 = or i1 %19, %20
  %30 = xor i1 %29, true
  %31 = or i1 true, %21
  %32 = and i1 %30, %31
  %33 = or i1 %28, %32
  %34 = or i1 %17, %18
  br i1 %33, label %35, label %220

; <label>:35:                                     ; preds = %8, %220
  %36 = load i64, i64* %5, align 8
  %37 = load i64, i64* %5, align 8
  %38 = mul nsw i64 %36, %37
  %39 = load i64, i64* %3, align 8
  %40 = icmp sle i64 %38, %39
  %41 = load i32, i32* @x.75
  %42 = load i32, i32* @y.76
  %43 = add i32 %41, -940165123
  %44 = sub i32 %43, 1
  %45 = sub i32 %44, -940165123
  %46 = sub i32 %41, 1
  %47 = mul i32 %41, %45
  %48 = urem i32 %47, 2
  %49 = icmp eq i32 %48, 0
  %50 = icmp slt i32 %42, 10
  %51 = and i1 %49, %50
  %52 = xor i1 %49, %50
  %53 = or i1 %51, %52
  %54 = or i1 %49, %50
  br i1 %53, label %55, label %220

; <label>:55:                                     ; preds = %35
  br i1 %40, label %56, label %123

; <label>:56:                                     ; preds = %55
  br label %57

; <label>:57:                                     ; preds = %64, %56
  %58 = load i64, i64* %3, align 8
  %59 = load i64, i64* %5, align 8
  %60 = srem i64 %58, %59
  %61 = icmp eq i64 %60, 0
  br i1 %61, label %62, label %76

; <label>:62:                                     ; preds = %57
  %63 = invoke dereferenceable(8) i64* @_ZNSt3mapIxxSt4lessIxESaISt4pairIKxxEEEixERS3_(%"class.std::map"* %0, i64* dereferenceable(8) %5)
          to label %64 unwind label %72

; <label>:64:                                     ; preds = %62
  %65 = load i64, i64* %63, align 8
  %66 = sub i64 0, 1
  %67 = sub i64 %65, %66
  %68 = add nsw i64 %65, 1
  store i64 %67, i64* %63, align 8
  %69 = load i64, i64* %5, align 8
  %70 = load i64, i64* %3, align 8
  %71 = sdiv i64 %70, %69
  store i64 %71, i64* %3, align 8
  br label %57

; <label>:72:                                     ; preds = %155, %62
  %73 = landingpad { i8*, i32 }
          cleanup
  %74 = extractvalue { i8*, i32 } %73, 0
  store i8* %74, i8** %6, align 8
  %75 = extractvalue { i8*, i32 } %73, 1
  store i32 %75, i32* %7, align 4
  call void @_ZNSt3mapIxxSt4lessIxESaISt4pairIKxxEEED2Ev(%"class.std::map"* %0) #3
  br label %215

; <label>:76:                                     ; preds = %57
  br label %77

; <label>:77:                                     ; preds = %76
  %78 = load i32, i32* @x.75
  %79 = load i32, i32* @y.76
  %80 = sub i32 0, 1
  %81 = add i32 %78, %80
  %82 = sub i32 %78, 1
  %83 = mul i32 %78, %81
  %84 = urem i32 %83, 2
  %85 = icmp eq i32 %84, 0
  %86 = icmp slt i32 %79, 10
  %87 = and i1 %85, %86
  %88 = xor i1 %85, %86
  %89 = or i1 %87, %88
  %90 = or i1 %85, %86
  br i1 %89, label %91, label %241

; <label>:91:                                     ; preds = %77, %241
  %92 = load i64, i64* %5, align 8
  %93 = sub i64 0, 1
  %94 = sub i64 %92, %93
  %95 = add nsw i64 %92, 1
  store i64 %94, i64* %5, align 8
  %96 = load i32, i32* @x.75
  %97 = load i32, i32* @y.76
  %98 = add i32 %96, -2046608446
  %99 = sub i32 %98, 1
  %100 = sub i32 %99, -2046608446
  %101 = sub i32 %96, 1
  %102 = mul i32 %96, %100
  %103 = urem i32 %102, 2
  %104 = icmp eq i32 %103, 0
  %105 = icmp slt i32 %97, 10
  %106 = xor i1 %104, true
  %107 = xor i1 %105, true
  %108 = xor i1 true, true
  %109 = and i1 %106, true
  %110 = and i1 %104, %108
  %111 = and i1 %107, true
  %112 = and i1 %105, %108
  %113 = or i1 %109, %110
  %114 = or i1 %111, %112
  %115 = xor i1 %113, %114
  %116 = or i1 %106, %107
  %117 = xor i1 %116, true
  %118 = or i1 true, %108
  %119 = and i1 %117, %118
  %120 = or i1 %115, %119
  %121 = or i1 %104, %105
  br i1 %120, label %122, label %241

; <label>:122:                                    ; preds = %91
  br label %8

; <label>:123:                                    ; preds = %55
  %124 = load i32, i32* @x.75
  %125 = load i32, i32* @y.76
  %126 = sub i32 0, 1
  %127 = add i32 %124, %126
  %128 = sub i32 %124, 1
  %129 = mul i32 %124, %127
  %130 = urem i32 %129, 2
  %131 = icmp eq i32 %130, 0
  %132 = icmp slt i32 %125, 10
  %133 = and i1 %131, %132
  %134 = xor i1 %131, %132
  %135 = or i1 %133, %134
  %136 = or i1 %131, %132
  br i1 %135, label %137, label %267

; <label>:137:                                    ; preds = %123, %267
  %138 = load i64, i64* %3, align 8
  %139 = icmp ne i64 %138, 1
  %140 = load i32, i32* @x.75
  %141 = load i32, i32* @y.76
  %142 = add i32 %140, -279332674
  %143 = sub i32 %142, 1
  %144 = sub i32 %143, -279332674
  %145 = sub i32 %140, 1
  %146 = mul i32 %140, %144
  %147 = urem i32 %146, 2
  %148 = icmp eq i32 %147, 0
  %149 = icmp slt i32 %141, 10
  %150 = and i1 %148, %149
  %151 = xor i1 %148, %149
  %152 = or i1 %150, %151
  %153 = or i1 %148, %149
  br i1 %152, label %154, label %267

; <label>:154:                                    ; preds = %137
  br i1 %139, label %155, label %158

; <label>:155:                                    ; preds = %154
  %156 = invoke dereferenceable(8) i64* @_ZNSt3mapIxxSt4lessIxESaISt4pairIKxxEEEixERS3_(%"class.std::map"* %0, i64* dereferenceable(8) %3)
          to label %157 unwind label %72

; <label>:157:                                    ; preds = %155
  store i64 1, i64* %156, align 8
  br label %158

; <label>:158:                                    ; preds = %157, %154
  store i1 true, i1* %4, align 1
  %159 = load i1, i1* %4, align 1
  br i1 %159, label %161, label %160

; <label>:160:                                    ; preds = %158
  call void @_ZNSt3mapIxxSt4lessIxESaISt4pairIKxxEEED2Ev(%"class.std::map"* %0) #3
  br label %161

; <label>:161:                                    ; preds = %160, %158
  %162 = load i32, i32* @x.75
  %163 = load i32, i32* @y.76
  %164 = sub i32 0, 1
  %165 = add i32 %162, %164
  %166 = sub i32 %162, 1
  %167 = mul i32 %162, %165
  %168 = urem i32 %167, 2
  %169 = icmp eq i32 %168, 0
  %170 = icmp slt i32 %163, 10
  %171 = xor i1 %169, true
  %172 = xor i1 %170, true
  %173 = xor i1 false, true
  %174 = and i1 %171, false
  %175 = and i1 %169, %173
  %176 = and i1 %172, false
  %177 = and i1 %170, %173
  %178 = or i1 %174, %175
  %179 = or i1 %176, %177
  %180 = xor i1 %178, %179
  %181 = or i1 %171, %172
  %182 = xor i1 %181, true
  %183 = or i1 false, %173
  %184 = and i1 %182, %183
  %185 = or i1 %180, %184
  %186 = or i1 %169, %170
  br i1 %185, label %187, label %270

; <label>:187:                                    ; preds = %161, %270
  %188 = load i32, i32* @x.75
  %189 = load i32, i32* @y.76
  %190 = add i32 %188, -1647014697
  %191 = sub i32 %190, 1
  %192 = sub i32 %191, -1647014697
  %193 = sub i32 %188, 1
  %194 = mul i32 %188, %192
  %195 = urem i32 %194, 2
  %196 = icmp eq i32 %195, 0
  %197 = icmp slt i32 %189, 10
  %198 = xor i1 %196, true
  %199 = xor i1 %197, true
  %200 = xor i1 false, true
  %201 = and i1 %198, false
  %202 = and i1 %196, %200
  %203 = and i1 %199, false
  %204 = and i1 %197, %200
  %205 = or i1 %201, %202
  %206 = or i1 %203, %204
  %207 = xor i1 %205, %206
  %208 = or i1 %198, %199
  %209 = xor i1 %208, true
  %210 = or i1 false, %200
  %211 = and i1 %209, %210
  %212 = or i1 %207, %211
  %213 = or i1 %196, %197
  br i1 %212, label %214, label %270

; <label>:214:                                    ; preds = %187
  ret void

; <label>:215:                                    ; preds = %72
  %216 = load i8*, i8** %6, align 8
  %217 = load i32, i32* %7, align 4
  %218 = insertvalue { i8*, i32 } undef, i8* %216, 0
  %219 = insertvalue { i8*, i32 } %218, i32 %217, 1
  resume { i8*, i32 } %219

; <label>:220:                                    ; preds = %35, %8
  %221 = load i64, i64* %5, align 8
  %222 = load i64, i64* %5, align 8
  %223 = add i64 0, -3444242052369671621
  %224 = sub i64 %223, %221
  %225 = sub i64 %224, -3444242052369671621
  %226 = sub i64 0, %221
  %227 = sub i64 0, %225
  %228 = sub i64 0, %222
  %229 = add i64 %227, %228
  %230 = sub i64 0, %229
  %231 = add i64 %225, %222
  %232 = shl i64 %221, %222
  %233 = add i64 %221, 5572850446259283234
  %234 = sub i64 %233, %222
  %235 = sub i64 %234, 5572850446259283234
  %236 = sub i64 %221, %222
  %237 = mul i64 %235, %222
  %238 = mul nsw i64 %221, %222
  %239 = load i64, i64* %3, align 8
  %240 = icmp sle i64 %238, %239
  br label %35

; <label>:241:                                    ; preds = %91, %77
  %242 = load i64, i64* %5, align 8
  %243 = add i64 0, -2252723533913336338
  %244 = sub i64 %243, %242
  %245 = sub i64 %244, -2252723533913336338
  %246 = sub i64 0, %242
  %247 = sub i64 0, 1
  %248 = sub i64 %245, %247
  %249 = add i64 %245, 1
  %250 = add i64 %242, -2185800043368505463
  %251 = sub i64 %250, 1
  %252 = sub i64 %251, -2185800043368505463
  %253 = sub i64 %242, 1
  %254 = mul i64 %252, 1
  %255 = shl i64 %242, 1
  %256 = add i64 0, 2840652398728053801
  %257 = sub i64 %256, %242
  %258 = sub i64 %257, 2840652398728053801
  %259 = sub i64 0, %242
  %260 = sub i64 0, 1
  %261 = sub i64 %258, %260
  %262 = add i64 %258, 1
  %263 = add i64 %242, -7521969481094934468
  %264 = add i64 %263, 1
  %265 = sub i64 %264, -7521969481094934468
  %266 = add nsw i64 %242, 1
  store i64 %265, i64* %5, align 8
  br label %91

; <label>:267:                                    ; preds = %137, %123
  %268 = load i64, i64* %3, align 8
  %269 = icmp ne i64 %268, 1
  br label %137

; <label>:270:                                    ; preds = %187, %161
  br label %187
}

; Function Attrs: noinline nounwind uwtable
define linkonce_odr void @_ZNSt3mapIxxSt4lessIxESaISt4pairIKxxEEEC2Ev(%"class.std::map"*) unnamed_addr #4 comdat align 2 personality i8* bitcast (i32 (...)* @__gxx_personality_v0 to i8*) {
  %2 = alloca %"class.std::map"*, align 8
  store %"class.std::map"* %0, %"class.std::map"** %2, align 8
  %3 = load %"class.std::map"*, %"class.std::map"** %2, align 8
  %4 = getelementptr inbounds %"class.std::map", %"class.std::map"* %3, i32 0, i32 0
  invoke void @_ZNSt8_Rb_treeIxSt4pairIKxxESt10_Select1stIS2_ESt4lessIxESaIS2_EEC2Ev(%"class.std::_Rb_tree"* %4)
          to label %5 unwind label %6

; <label>:5:                                      ; preds = %1
  ret void

; <label>:6:                                      ; preds = %1
  %7 = landingpad { i8*, i32 }
          catch i8* null
  %8 = extractvalue { i8*, i32 } %7, 0
  call void @__clang_call_terminate(i8* %8) #12
  unreachable
}

; Function Attrs: noinline uwtable
define linkonce_odr dereferenceable(8) i64* @_ZNSt3mapIxxSt4lessIxESaISt4pairIKxxEEEixERS3_(%"class.std::map"*, i64* dereferenceable(8)) #0 comdat align 2 {
  %3 = alloca %"class.std::map"*
  %4 = alloca %"class.std::map"*, align 8
  %5 = alloca i64*, align 8
  %6 = alloca %"struct.std::_Rb_tree_iterator", align 8
  %7 = alloca %"struct.std::_Rb_tree_iterator", align 8
  %8 = alloca %"struct.std::less", align 1
  %9 = alloca %"struct.std::_Rb_tree_iterator", align 8
  %10 = alloca %"struct.std::_Rb_tree_const_iterator", align 8
  %11 = alloca %"class.std::tuple", align 8
  %12 = alloca %"class.std::tuple.50", align 1
  store %"class.std::map"* %0, %"class.std::map"** %4, align 8
  store i64* %1, i64** %5, align 8
  %13 = load %"class.std::map"*, %"class.std::map"** %4, align 8
  store %"class.std::map"* %13, %"class.std::map"** %3
  %14 = load i64*, i64** %5, align 8
  %15 = load volatile %"class.std::map"*, %"class.std::map"** %3
  %16 = call %"struct.std::_Rb_tree_node_base"* @_ZNSt3mapIxxSt4lessIxESaISt4pairIKxxEEE11lower_boundERS3_(%"class.std::map"* %15, i64* dereferenceable(8) %14)
  %17 = getelementptr inbounds %"struct.std::_Rb_tree_iterator", %"struct.std::_Rb_tree_iterator"* %6, i32 0, i32 0
  store %"struct.std::_Rb_tree_node_base"* %16, %"struct.std::_Rb_tree_node_base"** %17, align 8
  %18 = load volatile %"class.std::map"*, %"class.std::map"** %3
  %19 = call %"struct.std::_Rb_tree_node_base"* @_ZNSt3mapIxxSt4lessIxESaISt4pairIKxxEEE3endEv(%"class.std::map"* %18) #3
  %20 = getelementptr inbounds %"struct.std::_Rb_tree_iterator", %"struct.std::_Rb_tree_iterator"* %7, i32 0, i32 0
  store %"struct.std::_Rb_tree_node_base"* %19, %"struct.std::_Rb_tree_node_base"** %20, align 8
  %21 = alloca i32
  store i32 2021800360, i32* %21
  %22 = alloca i1
  br label %23

; <label>:23:                                     ; preds = %2, %51
  %24 = load i32, i32* %21
  switch i32 %24, label %25 [
    i32 2021800360, label %26
    i32 -1012293054, label %29
    i32 120762049, label %35
    i32 -475971567, label %38
    i32 1526066348, label %48
  ]

; <label>:25:                                     ; preds = %23
  br label %51

; <label>:26:                                     ; preds = %23
  %27 = call zeroext i1 @_ZNKSt17_Rb_tree_iteratorISt4pairIKxxEEeqERKS3_(%"struct.std::_Rb_tree_iterator"* %6, %"struct.std::_Rb_tree_iterator"* dereferenceable(8) %7) #3
  %28 = select i1 %27, i32 120762049, i32 -1012293054
  store i32 %28, i32* %21
  store i1 true, i1* %22
  br label %51

; <label>:29:                                     ; preds = %23
  %30 = load volatile %"class.std::map"*, %"class.std::map"** %3
  call void @_ZNKSt3mapIxxSt4lessIxESaISt4pairIKxxEEE8key_compEv(%"class.std::map"* %30)
  %31 = load i64*, i64** %5, align 8
  %32 = call dereferenceable(16) %"struct.std::pair.44"* @_ZNKSt17_Rb_tree_iteratorISt4pairIKxxEEdeEv(%"struct.std::_Rb_tree_iterator"* %6) #3
  %33 = getelementptr inbounds %"struct.std::pair.44", %"struct.std::pair.44"* %32, i32 0, i32 0
  %34 = call zeroext i1 @_ZNKSt4lessIxEclERKxS2_(%"struct.std::less"* %8, i64* dereferenceable(8) %31, i64* dereferenceable(8) %33)
  store i32 120762049, i32* %21
  store i1 %34, i1* %22
  br label %51

; <label>:35:                                     ; preds = %23
  %36 = load i1, i1* %22
  %37 = select i1 %36, i32 -475971567, i32 1526066348
  store i32 %37, i32* %21
  br label %51

; <label>:38:                                     ; preds = %23
  %39 = load volatile %"class.std::map"*, %"class.std::map"** %3
  %40 = getelementptr inbounds %"class.std::map", %"class.std::map"* %39, i32 0, i32 0
  call void @_ZNSt23_Rb_tree_const_iteratorISt4pairIKxxEEC2ERKSt17_Rb_tree_iteratorIS2_E(%"struct.std::_Rb_tree_const_iterator"* %10, %"struct.std::_Rb_tree_iterator"* dereferenceable(8) %6) #3
  %41 = load i64*, i64** %5, align 8
  call void @_ZNSt5tupleIJRKxEEC2ES1_(%"class.std::tuple"* %11, i64* dereferenceable(8) %41)
  %42 = getelementptr inbounds %"struct.std::_Rb_tree_const_iterator", %"struct.std::_Rb_tree_const_iterator"* %10, i32 0, i32 0
  %43 = load %"struct.std::_Rb_tree_node_base"*, %"struct.std::_Rb_tree_node_base"** %42, align 8
  %44 = call %"struct.std::_Rb_tree_node_base"* @_ZNSt8_Rb_treeIxSt4pairIKxxESt10_Select1stIS2_ESt4lessIxESaIS2_EE22_M_emplace_hint_uniqueIJRKSt21piecewise_construct_tSt5tupleIJRS1_EESD_IJEEEEESt17_Rb_tree_iteratorIS2_ESt23_Rb_tree_const_iteratorIS2_EDpOT_(%"class.std::_Rb_tree"* %40, %"struct.std::_Rb_tree_node_base"* %43, %"struct.std::piecewise_construct_t"* dereferenceable(1) @_ZStL19piecewise_construct, %"class.std::tuple"* dereferenceable(8) %11, %"class.std::tuple.50"* dereferenceable(1) %12)
  %45 = getelementptr inbounds %"struct.std::_Rb_tree_iterator", %"struct.std::_Rb_tree_iterator"* %9, i32 0, i32 0
  store %"struct.std::_Rb_tree_node_base"* %44, %"struct.std::_Rb_tree_node_base"** %45, align 8
  %46 = bitcast %"struct.std::_Rb_tree_iterator"* %6 to i8*
  %47 = bitcast %"struct.std::_Rb_tree_iterator"* %9 to i8*
  call void @llvm.memcpy.p0i8.p0i8.i64(i8* %46, i8* %47, i64 8, i32 8, i1 false)
  store i32 1526066348, i32* %21
  br label %51

; <label>:48:                                     ; preds = %23
  %49 = call dereferenceable(16) %"struct.std::pair.44"* @_ZNKSt17_Rb_tree_iteratorISt4pairIKxxEEdeEv(%"struct.std::_Rb_tree_iterator"* %6) #3
  %50 = getelementptr inbounds %"struct.std::pair.44", %"struct.std::pair.44"* %49, i32 0, i32 1
  ret i64* %50

; <label>:51:                                     ; preds = %38, %35, %29, %26, %25
  br label %23
}

; Function Attrs: noinline nounwind uwtable
define linkonce_odr void @_ZNSt3mapIxxSt4lessIxESaISt4pairIKxxEEED2Ev(%"class.std::map"*) unnamed_addr #4 comdat align 2 {
  %2 = alloca i1
  %3 = alloca i1
  %4 = load i32, i32* @x.81
  %5 = load i32, i32* @y.82
  %6 = add i32 %4, 756121309
  %7 = sub i32 %6, 1
  %8 = sub i32 %7, 756121309
  %9 = sub i32 %4, 1
  %10 = mul i32 %4, %8
  %11 = urem i32 %10, 2
  %12 = icmp eq i32 %11, 0
  store i1 %12, i1* %3
  %13 = icmp slt i32 %5, 10
  store i1 %13, i1* %2
  %14 = alloca i32
  store i32 839101235, i32* %14
  br label %15

; <label>:15:                                     ; preds = %1, %49
  %16 = load i32, i32* %14
  switch i32 %16, label %17 [
    i32 839101235, label %18
    i32 724446688, label %26
    i32 -588783126, label %44
    i32 785624826, label %45
  ]

; <label>:17:                                     ; preds = %15
  br label %49

; <label>:18:                                     ; preds = %15
  %19 = load volatile i1, i1* %3
  %20 = load volatile i1, i1* %2
  %21 = and i1 %19, %20
  %22 = xor i1 %19, %20
  %23 = or i1 %21, %22
  %24 = or i1 %19, %20
  %25 = select i1 %23, i32 724446688, i32 785624826
  store i32 %25, i32* %14
  br label %49

; <label>:26:                                     ; preds = %15
  %27 = alloca %"class.std::map"*, align 8
  store %"class.std::map"* %0, %"class.std::map"** %27, align 8
  %28 = load %"class.std::map"*, %"class.std::map"** %27, align 8
  %29 = getelementptr inbounds %"class.std::map", %"class.std::map"* %28, i32 0, i32 0
  call void @_ZNSt8_Rb_treeIxSt4pairIKxxESt10_Select1stIS2_ESt4lessIxESaIS2_EED2Ev(%"class.std::_Rb_tree"* %29) #3
  %30 = load i32, i32* @x.81
  %31 = load i32, i32* @y.82
  %32 = sub i32 0, 1
  %33 = add i32 %30, %32
  %34 = sub i32 %30, 1
  %35 = mul i32 %30, %33
  %36 = urem i32 %35, 2
  %37 = icmp eq i32 %36, 0
  %38 = icmp slt i32 %31, 10
  %39 = and i1 %37, %38
  %40 = xor i1 %37, %38
  %41 = or i1 %39, %40
  %42 = or i1 %37, %38
  %43 = select i1 %41, i32 -588783126, i32 785624826
  store i32 %43, i32* %14
  br label %49

; <label>:44:                                     ; preds = %15
  ret void

; <label>:45:                                     ; preds = %15
  %46 = alloca %"class.std::map"*, align 8
  store %"class.std::map"* %0, %"class.std::map"** %46, align 8
  %47 = load %"class.std::map"*, %"class.std::map"** %46, align 8
  %48 = getelementptr inbounds %"class.std::map", %"class.std::map"* %47, i32 0, i32 0
  call void @_ZNSt8_Rb_treeIxSt4pairIKxxESt10_Select1stIS2_ESt4lessIxESaIS2_EED2Ev(%"class.std::_Rb_tree"* %48) #3
  store i32 724446688, i32* %14
  br label %49

; <label>:49:                                     ; preds = %45, %26, %18, %17
  br label %15
}

; Function Attrs: noinline uwtable
define void @_Z8dijkstraRKSt6vectorIS_I4EdgeSaIS0_EESaIS2_EEiRS_IxSaIxEES9_(%"class.std::vector.21"* dereferenceable(24), i32, %"class.std::vector.0"* dereferenceable(24), %"class.std::vector.0"* dereferenceable(24)) #0 personality i8* bitcast (i32 (...)* @__gxx_personality_v0 to i8*) {
  %5 = alloca %"class.std::vector.21"*, align 8
  %6 = alloca i32, align 4
  %7 = alloca %"class.std::vector.0"*, align 8
  %8 = alloca %"class.std::vector.0"*, align 8
  %9 = alloca i32, align 4
  %10 = alloca i64, align 8
  %11 = alloca %"class.std::priority_queue", align 8
  %12 = alloca %"struct.std::greater", align 1
  %13 = alloca %"class.std::vector.31", align 8
  %14 = alloca i8*
  %15 = alloca i32
  %16 = alloca %"struct.std::pair.36", align 8
  %17 = alloca i32, align 4
  %18 = alloca %"class.std::vector.26"*, align 8
  %19 = alloca %"class.__gnu_cxx::__normal_iterator", align 8
  %20 = alloca %"class.__gnu_cxx::__normal_iterator", align 8
  %21 = alloca %struct.Edge*, align 8
  store %"class.std::vector.21"* %0, %"class.std::vector.21"** %5, align 8
  store i32 %1, i32* %6, align 4
  store %"class.std::vector.0"* %2, %"class.std::vector.0"** %7, align 8
  store %"class.std::vector.0"* %3, %"class.std::vector.0"** %8, align 8
  %22 = load %"class.std::vector.21"*, %"class.std::vector.21"** %5, align 8
  %23 = call i64 @_ZNKSt6vectorIS_I4EdgeSaIS0_EESaIS2_EE4sizeEv(%"class.std::vector.21"* %22) #3
  %24 = trunc i64 %23 to i32
  store i32 %24, i32* %9, align 4
  %25 = load %"class.std::vector.0"*, %"class.std::vector.0"** %7, align 8
  %26 = load i32, i32* %9, align 4
  %27 = sext i32 %26 to i64
  call void @_ZNSt6vectorIxSaIxEE6resizeEmRKx(%"class.std::vector.0"* %25, i64 %27, i64* dereferenceable(8) @_ZL3INF)
  %28 = load %"class.std::vector.0"*, %"class.std::vector.0"** %8, align 8
  %29 = load i32, i32* %9, align 4
  %30 = sext i32 %29 to i64
  store i64 -1, i64* %10, align 8
  call void @_ZNSt6vectorIxSaIxEE6resizeEmRKx(%"class.std::vector.0"* %28, i64 %30, i64* dereferenceable(8) %10)
  call void @_ZNSt6vectorISt4pairIxxESaIS1_EEC2Ev(%"class.std::vector.31"* %13) #3
  invoke void @_ZNSt14priority_queueISt4pairIxxESt6vectorIS1_SaIS1_EESt7greaterIS1_EEC2ERKS6_OS4_(%"class.std::priority_queue"* %11, %"struct.std::greater"* dereferenceable(1) %12, %"class.std::vector.31"* dereferenceable(24) %13)
          to label %31 unwind label %203

; <label>:31:                                     ; preds = %4
  call void @_ZNSt6vectorISt4pairIxxESaIS1_EED2Ev(%"class.std::vector.31"* %13) #3
  %32 = load %"class.std::vector.0"*, %"class.std::vector.0"** %7, align 8
  %33 = load i32, i32* %6, align 4
  %34 = sext i32 %33 to i64
  %35 = call dereferenceable(8) i64* @_ZNSt6vectorIxSaIxEEixEm(%"class.std::vector.0"* %32, i64 %34) #3
  store i64 0, i64* %35, align 8
  %36 = load %"class.std::vector.0"*, %"class.std::vector.0"** %7, align 8
  %37 = load i32, i32* %6, align 4
  %38 = sext i32 %37 to i64
  %39 = call dereferenceable(8) i64* @_ZNSt6vectorIxSaIxEEixEm(%"class.std::vector.0"* %36, i64 %38) #3
  invoke void @_ZNSt14priority_queueISt4pairIxxESt6vectorIS1_SaIS1_EESt7greaterIS1_EE7emplaceIJRxRiEEEvDpOT_(%"class.std::priority_queue"* %11, i64* dereferenceable(8) %39, i32* dereferenceable(4) %6)
          to label %40 unwind label %207

; <label>:40:                                     ; preds = %31
  br label %41

; <label>:41:                                     ; preds = %443, %202, %40
  %42 = invoke zeroext i1 @_ZNKSt14priority_queueISt4pairIxxESt6vectorIS1_SaIS1_EESt7greaterIS1_EE5emptyEv(%"class.std::priority_queue"* %11)
          to label %43 unwind label %207

; <label>:43:                                     ; preds = %41
  %44 = load i32, i32* @x.83
  %45 = load i32, i32* @y.84
  %46 = sub i32 %44, 2018009301
  %47 = sub i32 %46, 1
  %48 = add i32 %47, 2018009301
  %49 = sub i32 %44, 1
  %50 = mul i32 %44, %48
  %51 = urem i32 %50, 2
  %52 = icmp eq i32 %51, 0
  %53 = icmp slt i32 %45, 10
  %54 = xor i1 %52, true
  %55 = xor i1 %53, true
  %56 = xor i1 true, true
  %57 = and i1 %54, true
  %58 = and i1 %52, %56
  %59 = and i1 %55, true
  %60 = and i1 %53, %56
  %61 = or i1 %57, %58
  %62 = or i1 %59, %60
  %63 = xor i1 %61, %62
  %64 = or i1 %54, %55
  %65 = xor i1 %64, true
  %66 = or i1 true, %56
  %67 = and i1 %65, %66
  %68 = or i1 %63, %67
  %69 = or i1 %52, %53
  br i1 %68, label %70, label %480

; <label>:70:                                     ; preds = %43, %480
  %71 = xor i1 %42, true
  %72 = and i1 true, %71
  %73 = xor i1 true, true
  %74 = and i1 %42, %73
  %75 = or i1 %72, %74
  %76 = xor i1 %42, true
  %77 = load i32, i32* @x.83
  %78 = load i32, i32* @y.84
  %79 = sub i32 %77, 1993721607
  %80 = sub i32 %79, 1
  %81 = add i32 %80, 1993721607
  %82 = sub i32 %77, 1
  %83 = mul i32 %77, %81
  %84 = urem i32 %83, 2
  %85 = icmp eq i32 %84, 0
  %86 = icmp slt i32 %78, 10
  %87 = and i1 %85, %86
  %88 = xor i1 %85, %86
  %89 = or i1 %87, %88
  %90 = or i1 %85, %86
  br i1 %89, label %91, label %480

; <label>:91:                                     ; preds = %70
  br i1 %75, label %92, label %444

; <label>:92:                                     ; preds = %91
  %93 = invoke dereferenceable(16) %"struct.std::pair.36"* @_ZNKSt14priority_queueISt4pairIxxESt6vectorIS1_SaIS1_EESt7greaterIS1_EE3topEv(%"class.std::priority_queue"* %11)
          to label %94 unwind label %207

; <label>:94:                                     ; preds = %92
  %95 = bitcast %"struct.std::pair.36"* %16 to i8*
  %96 = bitcast %"struct.std::pair.36"* %93 to i8*
  call void @llvm.memcpy.p0i8.p0i8.i64(i8* %95, i8* %96, i64 16, i32 8, i1 false)
  invoke void @_ZNSt14priority_queueISt4pairIxxESt6vectorIS1_SaIS1_EESt7greaterIS1_EE3popEv(%"class.std::priority_queue"* %11)
          to label %97 unwind label %207

; <label>:97:                                     ; preds = %94
  %98 = load i32, i32* @x.83
  %99 = load i32, i32* @y.84
  %100 = sub i32 0, 1
  %101 = add i32 %98, %100
  %102 = sub i32 %98, 1
  %103 = mul i32 %98, %101
  %104 = urem i32 %103, 2
  %105 = icmp eq i32 %104, 0
  %106 = icmp slt i32 %99, 10
  %107 = and i1 %105, %106
  %108 = xor i1 %105, %106
  %109 = or i1 %107, %108
  %110 = or i1 %105, %106
  br i1 %109, label %111, label %529

; <label>:111:                                    ; preds = %97, %529
  %112 = getelementptr inbounds %"struct.std::pair.36", %"struct.std::pair.36"* %16, i32 0, i32 1
  %113 = load i64, i64* %112, align 8
  %114 = trunc i64 %113 to i32
  store i32 %114, i32* %17, align 4
  %115 = load %"class.std::vector.0"*, %"class.std::vector.0"** %7, align 8
  %116 = load i32, i32* %17, align 4
  %117 = sext i32 %116 to i64
  %118 = call dereferenceable(8) i64* @_ZNSt6vectorIxSaIxEEixEm(%"class.std::vector.0"* %115, i64 %117) #3
  %119 = load i64, i64* %118, align 8
  %120 = getelementptr inbounds %"struct.std::pair.36", %"struct.std::pair.36"* %16, i32 0, i32 0
  %121 = load i64, i64* %120, align 8
  %122 = icmp slt i64 %119, %121
  %123 = load i32, i32* @x.83
  %124 = load i32, i32* @y.84
  %125 = sub i32 0, 1
  %126 = add i32 %123, %125
  %127 = sub i32 %123, 1
  %128 = mul i32 %123, %126
  %129 = urem i32 %128, 2
  %130 = icmp eq i32 %129, 0
  %131 = icmp slt i32 %124, 10
  %132 = xor i1 %130, true
  %133 = xor i1 %131, true
  %134 = xor i1 false, true
  %135 = and i1 %132, false
  %136 = and i1 %130, %134
  %137 = and i1 %133, false
  %138 = and i1 %131, %134
  %139 = or i1 %135, %136
  %140 = or i1 %137, %138
  %141 = xor i1 %139, %140
  %142 = or i1 %132, %133
  %143 = xor i1 %142, true
  %144 = or i1 false, %134
  %145 = and i1 %143, %144
  %146 = or i1 %141, %145
  %147 = or i1 %130, %131
  br i1 %146, label %148, label %529

; <label>:148:                                    ; preds = %111
  br i1 %122, label %149, label %211

; <label>:149:                                    ; preds = %148
  %150 = load i32, i32* @x.83
  %151 = load i32, i32* @y.84
  %152 = add i32 %150, -1031443277
  %153 = sub i32 %152, 1
  %154 = sub i32 %153, -1031443277
  %155 = sub i32 %150, 1
  %156 = mul i32 %150, %154
  %157 = urem i32 %156, 2
  %158 = icmp eq i32 %157, 0
  %159 = icmp slt i32 %151, 10
  %160 = xor i1 %158, true
  %161 = xor i1 %159, true
  %162 = xor i1 false, true
  %163 = and i1 %160, false
  %164 = and i1 %158, %162
  %165 = and i1 %161, false
  %166 = and i1 %159, %162
  %167 = or i1 %163, %164
  %168 = or i1 %165, %166
  %169 = xor i1 %167, %168
  %170 = or i1 %160, %161
  %171 = xor i1 %170, true
  %172 = or i1 false, %162
  %173 = and i1 %171, %172
  %174 = or i1 %169, %173
  %175 = or i1 %158, %159
  br i1 %174, label %176, label %541

; <label>:176:                                    ; preds = %149, %541
  %177 = load i32, i32* @x.83
  %178 = load i32, i32* @y.84
  %179 = sub i32 0, 1
  %180 = add i32 %177, %179
  %181 = sub i32 %177, 1
  %182 = mul i32 %177, %180
  %183 = urem i32 %182, 2
  %184 = icmp eq i32 %183, 0
  %185 = icmp slt i32 %178, 10
  %186 = xor i1 %184, true
  %187 = xor i1 %185, true
  %188 = xor i1 false, true
  %189 = and i1 %186, false
  %190 = and i1 %184, %188
  %191 = and i1 %187, false
  %192 = and i1 %185, %188
  %193 = or i1 %189, %190
  %194 = or i1 %191, %192
  %195 = xor i1 %193, %194
  %196 = or i1 %186, %187
  %197 = xor i1 %196, true
  %198 = or i1 false, %188
  %199 = and i1 %197, %198
  %200 = or i1 %195, %199
  %201 = or i1 %184, %185
  br i1 %200, label %202, label %541

; <label>:202:                                    ; preds = %176
  br label %41

; <label>:203:                                    ; preds = %4
  %204 = landingpad { i8*, i32 }
          cleanup
  %205 = extractvalue { i8*, i32 } %204, 0
  store i8* %205, i8** %14, align 8
  %206 = extractvalue { i8*, i32 } %204, 1
  store i32 %206, i32* %15, align 4
  call void @_ZNSt6vectorISt4pairIxxESaIS1_EED2Ev(%"class.std::vector.31"* %13) #3
  br label %475

; <label>:207:                                    ; preds = %397, %94, %92, %41, %31
  %208 = landingpad { i8*, i32 }
          cleanup
  %209 = extractvalue { i8*, i32 } %208, 0
  store i8* %209, i8** %14, align 8
  %210 = extractvalue { i8*, i32 } %208, 1
  store i32 %210, i32* %15, align 4
  call void @_ZNSt14priority_queueISt4pairIxxESt6vectorIS1_SaIS1_EESt7greaterIS1_EED2Ev(%"class.std::priority_queue"* %11) #3
  br label %475

; <label>:211:                                    ; preds = %148
  %212 = load i32, i32* @x.83
  %213 = load i32, i32* @y.84
  %214 = sub i32 0, 1
  %215 = add i32 %212, %214
  %216 = sub i32 %212, 1
  %217 = mul i32 %212, %215
  %218 = urem i32 %217, 2
  %219 = icmp eq i32 %218, 0
  %220 = icmp slt i32 %213, 10
  %221 = xor i1 %219, true
  %222 = xor i1 %220, true
  %223 = xor i1 false, true
  %224 = and i1 %221, false
  %225 = and i1 %219, %223
  %226 = and i1 %222, false
  %227 = and i1 %220, %223
  %228 = or i1 %224, %225
  %229 = or i1 %226, %227
  %230 = xor i1 %228, %229
  %231 = or i1 %221, %222
  %232 = xor i1 %231, true
  %233 = or i1 false, %223
  %234 = and i1 %232, %233
  %235 = or i1 %230, %234
  %236 = or i1 %219, %220
  br i1 %235, label %237, label %542

; <label>:237:                                    ; preds = %211, %542
  %238 = load %"class.std::vector.21"*, %"class.std::vector.21"** %5, align 8
  %239 = load i32, i32* %17, align 4
  %240 = sext i32 %239 to i64
  %241 = call dereferenceable(24) %"class.std::vector.26"* @_ZNKSt6vectorIS_I4EdgeSaIS0_EESaIS2_EEixEm(%"class.std::vector.21"* %238, i64 %240) #3
  store %"class.std::vector.26"* %241, %"class.std::vector.26"** %18, align 8
  %242 = load %"class.std::vector.26"*, %"class.std::vector.26"** %18, align 8
  %243 = call %struct.Edge* @_ZNKSt6vectorI4EdgeSaIS0_EE5beginEv(%"class.std::vector.26"* %242) #3
  %244 = getelementptr inbounds %"class.__gnu_cxx::__normal_iterator", %"class.__gnu_cxx::__normal_iterator"* %19, i32 0, i32 0
  store %struct.Edge* %243, %struct.Edge** %244, align 8
  %245 = load %"class.std::vector.26"*, %"class.std::vector.26"** %18, align 8
  %246 = call %struct.Edge* @_ZNKSt6vectorI4EdgeSaIS0_EE3endEv(%"class.std::vector.26"* %245) #3
  %247 = getelementptr inbounds %"class.__gnu_cxx::__normal_iterator", %"class.__gnu_cxx::__normal_iterator"* %20, i32 0, i32 0
  store %struct.Edge* %246, %struct.Edge** %247, align 8
  %248 = load i32, i32* @x.83
  %249 = load i32, i32* @y.84
  %250 = add i32 %248, -1866927462
  %251 = sub i32 %250, 1
  %252 = sub i32 %251, -1866927462
  %253 = sub i32 %248, 1
  %254 = mul i32 %248, %252
  %255 = urem i32 %254, 2
  %256 = icmp eq i32 %255, 0
  %257 = icmp slt i32 %249, 10
  %258 = xor i1 %256, true
  %259 = xor i1 %257, true
  %260 = xor i1 true, true
  %261 = and i1 %258, true
  %262 = and i1 %256, %260
  %263 = and i1 %259, true
  %264 = and i1 %257, %260
  %265 = or i1 %261, %262
  %266 = or i1 %263, %264
  %267 = xor i1 %265, %266
  %268 = or i1 %258, %259
  %269 = xor i1 %268, true
  %270 = or i1 true, %260
  %271 = and i1 %269, %270
  %272 = or i1 %267, %271
  %273 = or i1 %256, %257
  br i1 %272, label %274, label %542

; <label>:274:                                    ; preds = %237
  br label %275

; <label>:275:                                    ; preds = %400, %274
  %276 = call zeroext i1 @_ZN9__gnu_cxxneIPK4EdgeSt6vectorIS1_SaIS1_EEEEbRKNS_17__normal_iteratorIT_T0_EESC_(%"class.__gnu_cxx::__normal_iterator"* dereferenceable(8) %19, %"class.__gnu_cxx::__normal_iterator"* dereferenceable(8) %20) #3
  br i1 %276, label %277, label %402

; <label>:277:                                    ; preds = %275
  %278 = load i32, i32* @x.83
  %279 = load i32, i32* @y.84
  %280 = sub i32 0, 1
  %281 = add i32 %278, %280
  %282 = sub i32 %278, 1
  %283 = mul i32 %278, %281
  %284 = urem i32 %283, 2
  %285 = icmp eq i32 %284, 0
  %286 = icmp slt i32 %279, 10
  %287 = and i1 %285, %286
  %288 = xor i1 %285, %286
  %289 = or i1 %287, %288
  %290 = or i1 %285, %286
  br i1 %289, label %291, label %553

; <label>:291:                                    ; preds = %277, %553
  %292 = call dereferenceable(16) %struct.Edge* @_ZNK9__gnu_cxx17__normal_iteratorIPK4EdgeSt6vectorIS1_SaIS1_EEEdeEv(%"class.__gnu_cxx::__normal_iterator"* %19) #3
  store %struct.Edge* %292, %struct.Edge** %21, align 8
  %293 = load %"class.std::vector.0"*, %"class.std::vector.0"** %7, align 8
  %294 = load %struct.Edge*, %struct.Edge** %21, align 8
  %295 = getelementptr inbounds %struct.Edge, %struct.Edge* %294, i32 0, i32 0
  %296 = load i64, i64* %295, align 8
  %297 = call dereferenceable(8) i64* @_ZNSt6vectorIxSaIxEEixEm(%"class.std::vector.0"* %293, i64 %296) #3
  %298 = load i64, i64* %297, align 8
  %299 = load %"class.std::vector.0"*, %"class.std::vector.0"** %7, align 8
  %300 = load i32, i32* %17, align 4
  %301 = sext i32 %300 to i64
  %302 = call dereferenceable(8) i64* @_ZNSt6vectorIxSaIxEEixEm(%"class.std::vector.0"* %299, i64 %301) #3
  %303 = load i64, i64* %302, align 8
  %304 = load %struct.Edge*, %struct.Edge** %21, align 8
  %305 = getelementptr inbounds %struct.Edge, %struct.Edge* %304, i32 0, i32 1
  %306 = load i64, i64* %305, align 8
  %307 = sub i64 0, %306
  %308 = sub i64 %303, %307
  %309 = add nsw i64 %303, %306
  %310 = icmp sgt i64 %298, %308
  %311 = load i32, i32* @x.83
  %312 = load i32, i32* @y.84
  %313 = add i32 %311, 1153103120
  %314 = sub i32 %313, 1
  %315 = sub i32 %314, 1153103120
  %316 = sub i32 %311, 1
  %317 = mul i32 %311, %315
  %318 = urem i32 %317, 2
  %319 = icmp eq i32 %318, 0
  %320 = icmp slt i32 %312, 10
  %321 = and i1 %319, %320
  %322 = xor i1 %319, %320
  %323 = or i1 %321, %322
  %324 = or i1 %319, %320
  br i1 %323, label %325, label %553

; <label>:325:                                    ; preds = %291
  br i1 %310, label %326, label %399

; <label>:326:                                    ; preds = %325
  %327 = load i32, i32* @x.83
  %328 = load i32, i32* @y.84
  %329 = add i32 %327, -357660578
  %330 = sub i32 %329, 1
  %331 = sub i32 %330, -357660578
  %332 = sub i32 %327, 1
  %333 = mul i32 %327, %331
  %334 = urem i32 %333, 2
  %335 = icmp eq i32 %334, 0
  %336 = icmp slt i32 %328, 10
  %337 = and i1 %335, %336
  %338 = xor i1 %335, %336
  %339 = or i1 %337, %338
  %340 = or i1 %335, %336
  br i1 %339, label %341, label %608

; <label>:341:                                    ; preds = %326, %608
  %342 = load %"class.std::vector.0"*, %"class.std::vector.0"** %7, align 8
  %343 = load i32, i32* %17, align 4
  %344 = sext i32 %343 to i64
  %345 = call dereferenceable(8) i64* @_ZNSt6vectorIxSaIxEEixEm(%"class.std::vector.0"* %342, i64 %344) #3
  %346 = load i64, i64* %345, align 8
  %347 = load %struct.Edge*, %struct.Edge** %21, align 8
  %348 = getelementptr inbounds %struct.Edge, %struct.Edge* %347, i32 0, i32 1
  %349 = load i64, i64* %348, align 8
  %350 = sub i64 0, %349
  %351 = sub i64 %346, %350
  %352 = add nsw i64 %346, %349
  %353 = load %"class.std::vector.0"*, %"class.std::vector.0"** %7, align 8
  %354 = load %struct.Edge*, %struct.Edge** %21, align 8
  %355 = getelementptr inbounds %struct.Edge, %struct.Edge* %354, i32 0, i32 0
  %356 = load i64, i64* %355, align 8
  %357 = call dereferenceable(8) i64* @_ZNSt6vectorIxSaIxEEixEm(%"class.std::vector.0"* %353, i64 %356) #3
  store i64 %351, i64* %357, align 8
  %358 = load i32, i32* %17, align 4
  %359 = sext i32 %358 to i64
  %360 = load %"class.std::vector.0"*, %"class.std::vector.0"** %8, align 8
  %361 = load %struct.Edge*, %struct.Edge** %21, align 8
  %362 = getelementptr inbounds %struct.Edge, %struct.Edge* %361, i32 0, i32 0
  %363 = load i64, i64* %362, align 8
  %364 = call dereferenceable(8) i64* @_ZNSt6vectorIxSaIxEEixEm(%"class.std::vector.0"* %360, i64 %363) #3
  store i64 %359, i64* %364, align 8
  %365 = load %"class.std::vector.0"*, %"class.std::vector.0"** %7, align 8
  %366 = load %struct.Edge*, %struct.Edge** %21, align 8
  %367 = getelementptr inbounds %struct.Edge, %struct.Edge* %366, i32 0, i32 0
  %368 = load i64, i64* %367, align 8
  %369 = call dereferenceable(8) i64* @_ZNSt6vectorIxSaIxEEixEm(%"class.std::vector.0"* %365, i64 %368) #3
  %370 = load %struct.Edge*, %struct.Edge** %21, align 8
  %371 = getelementptr inbounds %struct.Edge, %struct.Edge* %370, i32 0, i32 0
  %372 = load i32, i32* @x.83
  %373 = load i32, i32* @y.84
  %374 = sub i32 0, 1
  %375 = add i32 %372, %374
  %376 = sub i32 %372, 1
  %377 = mul i32 %372, %375
  %378 = urem i32 %377, 2
  %379 = icmp eq i32 %378, 0
  %380 = icmp slt i32 %373, 10
  %381 = xor i1 %379, true
  %382 = xor i1 %380, true
  %383 = xor i1 true, true
  %384 = and i1 %381, true
  %385 = and i1 %379, %383
  %386 = and i1 %382, true
  %387 = and i1 %380, %383
  %388 = or i1 %384, %385
  %389 = or i1 %386, %387
  %390 = xor i1 %388, %389
  %391 = or i1 %381, %382
  %392 = xor i1 %391, true
  %393 = or i1 true, %383
  %394 = and i1 %392, %393
  %395 = or i1 %390, %394
  %396 = or i1 %379, %380
  br i1 %395, label %397, label %608

; <label>:397:                                    ; preds = %341
  invoke void @_ZNSt14priority_queueISt4pairIxxESt6vectorIS1_SaIS1_EESt7greaterIS1_EE7emplaceIJRxRKxEEEvDpOT_(%"class.std::priority_queue"* %11, i64* dereferenceable(8) %369, i64* dereferenceable(8) %371)
          to label %398 unwind label %207

; <label>:398:                                    ; preds = %397
  br label %399

; <label>:399:                                    ; preds = %398, %325
  br label %400

; <label>:400:                                    ; preds = %399
  %401 = call dereferenceable(8) %"class.__gnu_cxx::__normal_iterator"* @_ZN9__gnu_cxx17__normal_iteratorIPK4EdgeSt6vectorIS1_SaIS1_EEEppEv(%"class.__gnu_cxx::__normal_iterator"* %19) #3
  br label %275

; <label>:402:                                    ; preds = %275
  %403 = load i32, i32* @x.83
  %404 = load i32, i32* @y.84
  %405 = sub i32 0, 1
  %406 = add i32 %403, %405
  %407 = sub i32 %403, 1
  %408 = mul i32 %403, %406
  %409 = urem i32 %408, 2
  %410 = icmp eq i32 %409, 0
  %411 = icmp slt i32 %404, 10
  %412 = xor i1 %410, true
  %413 = xor i1 %411, true
  %414 = xor i1 true, true
  %415 = and i1 %412, true
  %416 = and i1 %410, %414
  %417 = and i1 %413, true
  %418 = and i1 %411, %414
  %419 = or i1 %415, %416
  %420 = or i1 %417, %418
  %421 = xor i1 %419, %420
  %422 = or i1 %412, %413
  %423 = xor i1 %422, true
  %424 = or i1 true, %414
  %425 = and i1 %423, %424
  %426 = or i1 %421, %425
  %427 = or i1 %410, %411
  br i1 %426, label %428, label %653

; <label>:428:                                    ; preds = %402, %653
  %429 = load i32, i32* @x.83
  %430 = load i32, i32* @y.84
  %431 = add i32 %429, 996229962
  %432 = sub i32 %431, 1
  %433 = sub i32 %432, 996229962
  %434 = sub i32 %429, 1
  %435 = mul i32 %429, %433
  %436 = urem i32 %435, 2
  %437 = icmp eq i32 %436, 0
  %438 = icmp slt i32 %430, 10
  %439 = and i1 %437, %438
  %440 = xor i1 %437, %438
  %441 = or i1 %439, %440
  %442 = or i1 %437, %438
  br i1 %441, label %443, label %653

; <label>:443:                                    ; preds = %428
  br label %41

; <label>:444:                                    ; preds = %91
  %445 = load i32, i32* @x.83
  %446 = load i32, i32* @y.84
  %447 = add i32 %445, 1262134964
  %448 = sub i32 %447, 1
  %449 = sub i32 %448, 1262134964
  %450 = sub i32 %445, 1
  %451 = mul i32 %445, %449
  %452 = urem i32 %451, 2
  %453 = icmp eq i32 %452, 0
  %454 = icmp slt i32 %446, 10
  %455 = and i1 %453, %454
  %456 = xor i1 %453, %454
  %457 = or i1 %455, %456
  %458 = or i1 %453, %454
  br i1 %457, label %459, label %654

; <label>:459:                                    ; preds = %444, %654
  call void @_ZNSt14priority_queueISt4pairIxxESt6vectorIS1_SaIS1_EESt7greaterIS1_EED2Ev(%"class.std::priority_queue"* %11) #3
  %460 = load i32, i32* @x.83
  %461 = load i32, i32* @y.84
  %462 = sub i32 %460, -1690309417
  %463 = sub i32 %462, 1
  %464 = add i32 %463, -1690309417
  %465 = sub i32 %460, 1
  %466 = mul i32 %460, %464
  %467 = urem i32 %466, 2
  %468 = icmp eq i32 %467, 0
  %469 = icmp slt i32 %461, 10
  %470 = and i1 %468, %469
  %471 = xor i1 %468, %469
  %472 = or i1 %470, %471
  %473 = or i1 %468, %469
  br i1 %472, label %474, label %654

; <label>:474:                                    ; preds = %459
  ret void

; <label>:475:                                    ; preds = %207, %203
  %476 = load i8*, i8** %14, align 8
  %477 = load i32, i32* %15, align 4
  %478 = insertvalue { i8*, i32 } undef, i8* %476, 0
  %479 = insertvalue { i8*, i32 } %478, i32 %477, 1
  resume { i8*, i32 } %479

; <label>:480:                                    ; preds = %70, %43
  %481 = add i1 %42, true
  %482 = sub i1 %481, true
  %483 = sub i1 %482, true
  %484 = sub i1 %42, true
  %485 = mul i1 %483, true
  %486 = shl i1 %42, true
  %487 = add i1 false, true
  %488 = sub i1 %487, %42
  %489 = sub i1 %488, true
  %490 = sub i1 false, %42
  %491 = sub i1 %489, true
  %492 = add i1 %491, true
  %493 = add i1 %492, true
  %494 = add i1 %489, true
  %495 = shl i1 %42, true
  %496 = sub i1 %42, false
  %497 = sub i1 %496, true
  %498 = add i1 %497, false
  %499 = sub i1 %42, true
  %500 = mul i1 %498, true
  %501 = sub i1 false, true
  %502 = sub i1 %501, %42
  %503 = add i1 %502, true
  %504 = sub i1 false, %42
  %505 = sub i1 false, true
  %506 = sub i1 %503, %505
  %507 = add i1 %503, true
  %508 = sub i1 %42, false
  %509 = sub i1 %508, true
  %510 = add i1 %509, false
  %511 = sub i1 %42, true
  %512 = mul i1 %510, true
  %513 = sub i1 false, true
  %514 = add i1 %42, %513
  %515 = sub i1 %42, true
  %516 = mul i1 %514, true
  %517 = sub i1 false, %42
  %518 = add i1 false, %517
  %519 = sub i1 false, %42
  %520 = sub i1 false, true
  %521 = sub i1 %518, %520
  %522 = add i1 %518, true
  %523 = xor i1 %42, true
  %524 = and i1 true, %523
  %525 = xor i1 true, true
  %526 = and i1 %42, %525
  %527 = or i1 %524, %526
  %528 = xor i1 %42, true
  br label %70

; <label>:529:                                    ; preds = %111, %97
  %530 = getelementptr inbounds %"struct.std::pair.36", %"struct.std::pair.36"* %16, i32 0, i32 1
  %531 = load i64, i64* %530, align 8
  %532 = trunc i64 %531 to i32
  store i32 %532, i32* %17, align 4
  %533 = load %"class.std::vector.0"*, %"class.std::vector.0"** %7, align 8
  %534 = load i32, i32* %17, align 4
  %535 = sext i32 %534 to i64
  %536 = call dereferenceable(8) i64* @_ZNSt6vectorIxSaIxEEixEm(%"class.std::vector.0"* %533, i64 %535) #3
  %537 = load i64, i64* %536, align 8
  %538 = getelementptr inbounds %"struct.std::pair.36", %"struct.std::pair.36"* %16, i32 0, i32 0
  %539 = load i64, i64* %538, align 8
  %540 = icmp slt i64 %537, %539
  br label %111

; <label>:541:                                    ; preds = %176, %149
  br label %176

; <label>:542:                                    ; preds = %237, %211
  %543 = load %"class.std::vector.21"*, %"class.std::vector.21"** %5, align 8
  %544 = load i32, i32* %17, align 4
  %545 = sext i32 %544 to i64
  %546 = call dereferenceable(24) %"class.std::vector.26"* @_ZNKSt6vectorIS_I4EdgeSaIS0_EESaIS2_EEixEm(%"class.std::vector.21"* %543, i64 %545) #3
  store %"class.std::vector.26"* %546, %"class.std::vector.26"** %18, align 8
  %547 = load %"class.std::vector.26"*, %"class.std::vector.26"** %18, align 8
  %548 = call %struct.Edge* @_ZNKSt6vectorI4EdgeSaIS0_EE5beginEv(%"class.std::vector.26"* %547) #3
  %549 = getelementptr inbounds %"class.__gnu_cxx::__normal_iterator", %"class.__gnu_cxx::__normal_iterator"* %19, i32 0, i32 0
  store %struct.Edge* %548, %struct.Edge** %549, align 8
  %550 = load %"class.std::vector.26"*, %"class.std::vector.26"** %18, align 8
  %551 = call %struct.Edge* @_ZNKSt6vectorI4EdgeSaIS0_EE3endEv(%"class.std::vector.26"* %550) #3
  %552 = getelementptr inbounds %"class.__gnu_cxx::__normal_iterator", %"class.__gnu_cxx::__normal_iterator"* %20, i32 0, i32 0
  store %struct.Edge* %551, %struct.Edge** %552, align 8
  br label %237

; <label>:553:                                    ; preds = %291, %277
  %554 = call dereferenceable(16) %struct.Edge* @_ZNK9__gnu_cxx17__normal_iteratorIPK4EdgeSt6vectorIS1_SaIS1_EEEdeEv(%"class.__gnu_cxx::__normal_iterator"* %19) #3
  store %struct.Edge* %554, %struct.Edge** %21, align 8
  %555 = load %"class.std::vector.0"*, %"class.std::vector.0"** %7, align 8
  %556 = load %struct.Edge*, %struct.Edge** %21, align 8
  %557 = getelementptr inbounds %struct.Edge, %struct.Edge* %556, i32 0, i32 0
  %558 = load i64, i64* %557, align 8
  %559 = call dereferenceable(8) i64* @_ZNSt6vectorIxSaIxEEixEm(%"class.std::vector.0"* %555, i64 %558) #3
  %560 = load i64, i64* %559, align 8
  %561 = load %"class.std::vector.0"*, %"class.std::vector.0"** %7, align 8
  %562 = load i32, i32* %17, align 4
  %563 = sext i32 %562 to i64
  %564 = call dereferenceable(8) i64* @_ZNSt6vectorIxSaIxEEixEm(%"class.std::vector.0"* %561, i64 %563) #3
  %565 = load i64, i64* %564, align 8
  %566 = load %struct.Edge*, %struct.Edge** %21, align 8
  %567 = getelementptr inbounds %struct.Edge, %struct.Edge* %566, i32 0, i32 1
  %568 = load i64, i64* %567, align 8
  %569 = add i64 0, -6188423691303855984
  %570 = sub i64 %569, %565
  %571 = sub i64 %570, -6188423691303855984
  %572 = sub i64 0, %565
  %573 = sub i64 %571, 7614863234944854080
  %574 = add i64 %573, %568
  %575 = add i64 %574, 7614863234944854080
  %576 = add i64 %571, %568
  %577 = sub i64 0, %568
  %578 = add i64 %565, %577
  %579 = sub i64 %565, %568
  %580 = mul i64 %578, %568
  %581 = add i64 0, 5821749205747026161
  %582 = sub i64 %581, %565
  %583 = sub i64 %582, 5821749205747026161
  %584 = sub i64 0, %565
  %585 = sub i64 0, %568
  %586 = sub i64 %583, %585
  %587 = add i64 %583, %568
  %588 = add i64 0, 1139003773375543330
  %589 = sub i64 %588, %565
  %590 = sub i64 %589, 1139003773375543330
  %591 = sub i64 0, %565
  %592 = add i64 %590, 6818053829986049703
  %593 = add i64 %592, %568
  %594 = sub i64 %593, 6818053829986049703
  %595 = add i64 %590, %568
  %596 = shl i64 %565, %568
  %597 = shl i64 %565, %568
  %598 = sub i64 0, %568
  %599 = add i64 %565, %598
  %600 = sub i64 %565, %568
  %601 = mul i64 %599, %568
  %602 = shl i64 %565, %568
  %603 = sub i64 %565, 1064203097155147966
  %604 = add i64 %603, %568
  %605 = add i64 %604, 1064203097155147966
  %606 = add nsw i64 %565, %568
  %607 = icmp sgt i64 %560, %605
  br label %291

; <label>:608:                                    ; preds = %341, %326
  %609 = load %"class.std::vector.0"*, %"class.std::vector.0"** %7, align 8
  %610 = load i32, i32* %17, align 4
  %611 = sext i32 %610 to i64
  %612 = call dereferenceable(8) i64* @_ZNSt6vectorIxSaIxEEixEm(%"class.std::vector.0"* %609, i64 %611) #3
  %613 = load i64, i64* %612, align 8
  %614 = load %struct.Edge*, %struct.Edge** %21, align 8
  %615 = getelementptr inbounds %struct.Edge, %struct.Edge* %614, i32 0, i32 1
  %616 = load i64, i64* %615, align 8
  %617 = shl i64 %613, %616
  %618 = sub i64 0, %616
  %619 = add i64 %613, %618
  %620 = sub i64 %613, %616
  %621 = mul i64 %619, %616
  %622 = shl i64 %613, %616
  %623 = add i64 %613, 5152976843161084630
  %624 = sub i64 %623, %616
  %625 = sub i64 %624, 5152976843161084630
  %626 = sub i64 %613, %616
  %627 = mul i64 %625, %616
  %628 = shl i64 %613, %616
  %629 = shl i64 %613, %616
  %630 = sub i64 %613, -5044279636115016925
  %631 = add i64 %630, %616
  %632 = add i64 %631, -5044279636115016925
  %633 = add nsw i64 %613, %616
  %634 = load %"class.std::vector.0"*, %"class.std::vector.0"** %7, align 8
  %635 = load %struct.Edge*, %struct.Edge** %21, align 8
  %636 = getelementptr inbounds %struct.Edge, %struct.Edge* %635, i32 0, i32 0
  %637 = load i64, i64* %636, align 8
  %638 = call dereferenceable(8) i64* @_ZNSt6vectorIxSaIxEEixEm(%"class.std::vector.0"* %634, i64 %637) #3
  store i64 %632, i64* %638, align 8
  %639 = load i32, i32* %17, align 4
  %640 = sext i32 %639 to i64
  %641 = load %"class.std::vector.0"*, %"class.std::vector.0"** %8, align 8
  %642 = load %struct.Edge*, %struct.Edge** %21, align 8
  %643 = getelementptr inbounds %struct.Edge, %struct.Edge* %642, i32 0, i32 0
  %644 = load i64, i64* %643, align 8
  %645 = call dereferenceable(8) i64* @_ZNSt6vectorIxSaIxEEixEm(%"class.std::vector.0"* %641, i64 %644) #3
  store i64 %640, i64* %645, align 8
  %646 = load %"class.std::vector.0"*, %"class.std::vector.0"** %7, align 8
  %647 = load %struct.Edge*, %struct.Edge** %21, align 8
  %648 = getelementptr inbounds %struct.Edge, %struct.Edge* %647, i32 0, i32 0
  %649 = load i64, i64* %648, align 8
  %650 = call dereferenceable(8) i64* @_ZNSt6vectorIxSaIxEEixEm(%"class.std::vector.0"* %646, i64 %649) #3
  %651 = load %struct.Edge*, %struct.Edge** %21, align 8
  %652 = getelementptr inbounds %struct.Edge, %struct.Edge* %651, i32 0, i32 0
  br label %341

; <label>:653:                                    ; preds = %428, %402
  br label %428

; <label>:654:                                    ; preds = %459, %444
  call void @_ZNSt14priority_queueISt4pairIxxESt6vectorIS1_SaIS1_EESt7greaterIS1_EED2Ev(%"class.std::priority_queue"* %11) #3
  br label %459
}

; Function Attrs: noinline nounwind uwtable
define linkonce_odr i64 @_ZNKSt6vectorIS_I4EdgeSaIS0_EESaIS2_EE4sizeEv(%"class.std::vector.21"*) #4 comdat align 2 {
  %2 = alloca %"class.std::vector.21"*, align 8
  store %"class.std::vector.21"* %0, %"class.std::vector.21"** %2, align 8
  %3 = load %"class.std::vector.21"*, %"class.std::vector.21"** %2, align 8
  %4 = bitcast %"class.std::vector.21"* %3 to %"struct.std::_Vector_base.22"*
  %5 = getelementptr inbounds %"struct.std::_Vector_base.22", %"struct.std::_Vector_base.22"* %4, i32 0, i32 0
  %6 = getelementptr inbounds %"struct.std::_Vector_base<std::vector<Edge, std::allocator<Edge> >, std::allocator<std::vector<Edge, std::allocator<Edge> > > >::_Vector_impl", %"struct.std::_Vector_base<std::vector<Edge, std::allocator<Edge> >, std::allocator<std::vector<Edge, std::allocator<Edge> > > >::_Vector_impl"* %5, i32 0, i32 1
  %7 = load %"class.std::vector.26"*, %"class.std::vector.26"** %6, align 8
  %8 = bitcast %"class.std::vector.21"* %3 to %"struct.std::_Vector_base.22"*
  %9 = getelementptr inbounds %"struct.std::_Vector_base.22", %"struct.std::_Vector_base.22"* %8, i32 0, i32 0
  %10 = getelementptr inbounds %"struct.std::_Vector_base<std::vector<Edge, std::allocator<Edge> >, std::allocator<std::vector<Edge, std::allocator<Edge> > > >::_Vector_impl", %"struct.std::_Vector_base<std::vector<Edge, std::allocator<Edge> >, std::allocator<std::vector<Edge, std::allocator<Edge> > > >::_Vector_impl"* %9, i32 0, i32 0
  %11 = load %"class.std::vector.26"*, %"class.std::vector.26"** %10, align 8
  %12 = ptrtoint %"class.std::vector.26"* %7 to i64
  %13 = ptrtoint %"class.std::vector.26"* %11 to i64
  %14 = sub i64 %12, -5595070773729925870
  %15 = sub i64 %14, %13
  %16 = add i64 %15, -5595070773729925870
  %17 = sub i64 %12, %13
  %18 = sdiv exact i64 %16, 24
  ret i64 %18
}

; Function Attrs: noinline uwtable
define linkonce_odr void @_ZNSt6vectorIxSaIxEE6resizeEmRKx(%"class.std::vector.0"*, i64, i64* dereferenceable(8)) #0 comdat align 2 {
  %4 = alloca i1
  %5 = alloca i1
  %6 = alloca %"class.std::vector.0"*
  %7 = alloca %"class.__gnu_cxx::__normal_iterator.38"*
  %8 = alloca %"class.__gnu_cxx::__normal_iterator.38"*
  %9 = alloca %"class.__gnu_cxx::__normal_iterator.46"*
  %10 = alloca i64**
  %11 = alloca i64*
  %12 = alloca i1
  %13 = alloca i1
  %14 = load i32, i32* @x.87
  %15 = load i32, i32* @y.88
  %16 = sub i32 0, 1
  %17 = add i32 %14, %16
  %18 = sub i32 %14, 1
  %19 = mul i32 %14, %17
  %20 = urem i32 %19, 2
  %21 = icmp eq i32 %20, 0
  store i1 %21, i1* %13
  %22 = icmp slt i32 %15, 10
  store i1 %22, i1* %12
  %23 = alloca i32
  store i32 2146505975, i32* %23
  br label %24

; <label>:24:                                     ; preds = %3, %294
  %25 = load i32, i32* %23
  switch i32 %25, label %26 [
    i32 2146505975, label %27
    i32 -1488126471, label %47
    i32 58717711, label %89
    i32 1648701139, label %92
    i32 2089139486, label %115
    i32 1482854006, label %143
    i32 -382743785, label %164
    i32 -106859479, label %167
    i32 -1206169320, label %182
    i32 -447668917, label %207
    i32 91720852, label %208
    i32 687182079, label %236
    i32 -1210714624, label %264
    i32 -556169412, label %265
    i32 736382244, label %266
    i32 -415706342, label %277
    i32 827627203, label %283
    i32 -644053336, label %293
  ]

; <label>:26:                                     ; preds = %24
  br label %294

; <label>:27:                                     ; preds = %24
  %28 = load volatile i1, i1* %13
  %29 = load volatile i1, i1* %12
  %30 = xor i1 %28, true
  %31 = xor i1 %29, true
  %32 = xor i1 true, true
  %33 = and i1 %30, true
  %34 = and i1 %28, %32
  %35 = and i1 %31, true
  %36 = and i1 %29, %32
  %37 = or i1 %33, %34
  %38 = or i1 %35, %36
  %39 = xor i1 %37, %38
  %40 = or i1 %30, %31
  %41 = xor i1 %40, true
  %42 = or i1 true, %32
  %43 = and i1 %41, %42
  %44 = or i1 %39, %43
  %45 = or i1 %28, %29
  %46 = select i1 %44, i32 -1488126471, i32 736382244
  store i32 %46, i32* %23
  br label %294

; <label>:47:                                     ; preds = %24
  %48 = alloca %"class.std::vector.0"*, align 8
  %49 = alloca i64, align 8
  store i64* %49, i64** %11
  %50 = alloca i64*, align 8
  store i64** %50, i64*** %10
  %51 = alloca %"class.__gnu_cxx::__normal_iterator.46", align 8
  store %"class.__gnu_cxx::__normal_iterator.46"* %51, %"class.__gnu_cxx::__normal_iterator.46"** %9
  %52 = alloca %"class.__gnu_cxx::__normal_iterator.38", align 8
  store %"class.__gnu_cxx::__normal_iterator.38"* %52, %"class.__gnu_cxx::__normal_iterator.38"** %8
  %53 = alloca %"class.__gnu_cxx::__normal_iterator.38", align 8
  store %"class.__gnu_cxx::__normal_iterator.38"* %53, %"class.__gnu_cxx::__normal_iterator.38"** %7
  store %"class.std::vector.0"* %0, %"class.std::vector.0"** %48, align 8
  %54 = load volatile i64*, i64** %11
  store i64 %1, i64* %54, align 8
  %55 = load volatile i64**, i64*** %10
  store i64* %2, i64** %55, align 8
  %56 = load %"class.std::vector.0"*, %"class.std::vector.0"** %48, align 8
  store %"class.std::vector.0"* %56, %"class.std::vector.0"** %6
  %57 = load volatile i64*, i64** %11
  %58 = load i64, i64* %57, align 8
  %59 = load volatile %"class.std::vector.0"*, %"class.std::vector.0"** %6
  %60 = call i64 @_ZNKSt6vectorIxSaIxEE4sizeEv(%"class.std::vector.0"* %59) #3
  %61 = icmp ugt i64 %58, %60
  store i1 %61, i1* %5
  %62 = load i32, i32* @x.87
  %63 = load i32, i32* @y.88
  %64 = add i32 %62, -1087374175
  %65 = sub i32 %64, 1
  %66 = sub i32 %65, -1087374175
  %67 = sub i32 %62, 1
  %68 = mul i32 %62, %66
  %69 = urem i32 %68, 2
  %70 = icmp eq i32 %69, 0
  %71 = icmp slt i32 %63, 10
  %72 = xor i1 %70, true
  %73 = xor i1 %71, true
  %74 = xor i1 false, true
  %75 = and i1 %72, false
  %76 = and i1 %70, %74
  %77 = and i1 %73, false
  %78 = and i1 %71, %74
  %79 = or i1 %75, %76
  %80 = or i1 %77, %78
  %81 = xor i1 %79, %80
  %82 = or i1 %72, %73
  %83 = xor i1 %82, true
  %84 = or i1 false, %74
  %85 = and i1 %83, %84
  %86 = or i1 %81, %85
  %87 = or i1 %70, %71
  %88 = select i1 %86, i32 58717711, i32 736382244
  store i32 %88, i32* %23
  br label %294

; <label>:89:                                     ; preds = %24
  %90 = load volatile i1, i1* %5
  %91 = select i1 %90, i32 1648701139, i32 2089139486
  store i32 %91, i32* %23
  br label %294

; <label>:92:                                     ; preds = %24
  %93 = load volatile %"class.std::vector.0"*, %"class.std::vector.0"** %6
  %94 = call i64* @_ZNSt6vectorIxSaIxEE3endEv(%"class.std::vector.0"* %93) #3
  %95 = load volatile %"class.__gnu_cxx::__normal_iterator.38"*, %"class.__gnu_cxx::__normal_iterator.38"** %8
  %96 = getelementptr inbounds %"class.__gnu_cxx::__normal_iterator.38", %"class.__gnu_cxx::__normal_iterator.38"* %95, i32 0, i32 0
  store i64* %94, i64** %96, align 8
  %97 = load volatile %"class.__gnu_cxx::__normal_iterator.46"*, %"class.__gnu_cxx::__normal_iterator.46"** %9
  %98 = load volatile %"class.__gnu_cxx::__normal_iterator.38"*, %"class.__gnu_cxx::__normal_iterator.38"** %8
  call void @_ZN9__gnu_cxx17__normal_iteratorIPKxSt6vectorIxSaIxEEEC2IPxEERKNS0_IT_NS_11__enable_ifIXsr3std10__are_sameIS9_S8_EE7__valueES5_E6__typeEEE(%"class.__gnu_cxx::__normal_iterator.46"* %97, %"class.__gnu_cxx::__normal_iterator.38"* dereferenceable(8) %98) #3
  %99 = load volatile i64*, i64** %11
  %100 = load i64, i64* %99, align 8
  %101 = load volatile %"class.std::vector.0"*, %"class.std::vector.0"** %6
  %102 = call i64 @_ZNKSt6vectorIxSaIxEE4sizeEv(%"class.std::vector.0"* %101) #3
  %103 = sub i64 0, %102
  %104 = add i64 %100, %103
  %105 = sub i64 %100, %102
  %106 = load volatile i64**, i64*** %10
  %107 = load i64*, i64** %106, align 8
  %108 = load volatile %"class.__gnu_cxx::__normal_iterator.46"*, %"class.__gnu_cxx::__normal_iterator.46"** %9
  %109 = getelementptr inbounds %"class.__gnu_cxx::__normal_iterator.46", %"class.__gnu_cxx::__normal_iterator.46"* %108, i32 0, i32 0
  %110 = load i64*, i64** %109, align 8
  %111 = load volatile %"class.std::vector.0"*, %"class.std::vector.0"** %6
  %112 = call i64* @_ZNSt6vectorIxSaIxEE6insertEN9__gnu_cxx17__normal_iteratorIPKxS1_EEmRS4_(%"class.std::vector.0"* %111, i64* %110, i64 %104, i64* dereferenceable(8) %107)
  %113 = load volatile %"class.__gnu_cxx::__normal_iterator.38"*, %"class.__gnu_cxx::__normal_iterator.38"** %7
  %114 = getelementptr inbounds %"class.__gnu_cxx::__normal_iterator.38", %"class.__gnu_cxx::__normal_iterator.38"* %113, i32 0, i32 0
  store i64* %112, i64** %114, align 8
  store i32 -556169412, i32* %23
  br label %294

; <label>:115:                                    ; preds = %24
  %116 = load i32, i32* @x.87
  %117 = load i32, i32* @y.88
  %118 = sub i32 %116, -65791295
  %119 = sub i32 %118, 1
  %120 = add i32 %119, -65791295
  %121 = sub i32 %116, 1
  %122 = mul i32 %116, %120
  %123 = urem i32 %122, 2
  %124 = icmp eq i32 %123, 0
  %125 = icmp slt i32 %117, 10
  %126 = xor i1 %124, true
  %127 = xor i1 %125, true
  %128 = xor i1 true, true
  %129 = and i1 %126, true
  %130 = and i1 %124, %128
  %131 = and i1 %127, true
  %132 = and i1 %125, %128
  %133 = or i1 %129, %130
  %134 = or i1 %131, %132
  %135 = xor i1 %133, %134
  %136 = or i1 %126, %127
  %137 = xor i1 %136, true
  %138 = or i1 true, %128
  %139 = and i1 %137, %138
  %140 = or i1 %135, %139
  %141 = or i1 %124, %125
  %142 = select i1 %140, i32 1482854006, i32 -415706342
  store i32 %142, i32* %23
  br label %294

; <label>:143:                                    ; preds = %24
  %144 = load volatile i64*, i64** %11
  %145 = load i64, i64* %144, align 8
  %146 = load volatile %"class.std::vector.0"*, %"class.std::vector.0"** %6
  %147 = call i64 @_ZNKSt6vectorIxSaIxEE4sizeEv(%"class.std::vector.0"* %146) #3
  %148 = icmp ult i64 %145, %147
  store i1 %148, i1* %4
  %149 = load i32, i32* @x.87
  %150 = load i32, i32* @y.88
  %151 = sub i32 %149, -1409454048
  %152 = sub i32 %151, 1
  %153 = add i32 %152, -1409454048
  %154 = sub i32 %149, 1
  %155 = mul i32 %149, %153
  %156 = urem i32 %155, 2
  %157 = icmp eq i32 %156, 0
  %158 = icmp slt i32 %150, 10
  %159 = and i1 %157, %158
  %160 = xor i1 %157, %158
  %161 = or i1 %159, %160
  %162 = or i1 %157, %158
  %163 = select i1 %161, i32 -382743785, i32 -415706342
  store i32 %163, i32* %23
  br label %294

; <label>:164:                                    ; preds = %24
  %165 = load volatile i1, i1* %4
  %166 = select i1 %165, i32 -106859479, i32 91720852
  store i32 %166, i32* %23
  br label %294

; <label>:167:                                    ; preds = %24
  %168 = load i32, i32* @x.87
  %169 = load i32, i32* @y.88
  %170 = sub i32 0, 1
  %171 = add i32 %168, %170
  %172 = sub i32 %168, 1
  %173 = mul i32 %168, %171
  %174 = urem i32 %173, 2
  %175 = icmp eq i32 %174, 0
  %176 = icmp slt i32 %169, 10
  %177 = and i1 %175, %176
  %178 = xor i1 %175, %176
  %179 = or i1 %177, %178
  %180 = or i1 %175, %176
  %181 = select i1 %179, i32 -1206169320, i32 827627203
  store i32 %181, i32* %23
  br label %294

; <label>:182:                                    ; preds = %24
  %183 = load volatile %"class.std::vector.0"*, %"class.std::vector.0"** %6
  %184 = bitcast %"class.std::vector.0"* %183 to %"struct.std::_Vector_base.1"*
  %185 = getelementptr inbounds %"struct.std::_Vector_base.1", %"struct.std::_Vector_base.1"* %184, i32 0, i32 0
  %186 = getelementptr inbounds %"struct.std::_Vector_base<long long, std::allocator<long long> >::_Vector_impl", %"struct.std::_Vector_base<long long, std::allocator<long long> >::_Vector_impl"* %185, i32 0, i32 0
  %187 = load i64*, i64** %186, align 8
  %188 = load volatile i64*, i64** %11
  %189 = load i64, i64* %188, align 8
  %190 = getelementptr inbounds i64, i64* %187, i64 %189
  %191 = load volatile %"class.std::vector.0"*, %"class.std::vector.0"** %6
  call void @_ZNSt6vectorIxSaIxEE15_M_erase_at_endEPx(%"class.std::vector.0"* %191, i64* %190) #3
  %192 = load i32, i32* @x.87
  %193 = load i32, i32* @y.88
  %194 = add i32 %192, 599885855
  %195 = sub i32 %194, 1
  %196 = sub i32 %195, 599885855
  %197 = sub i32 %192, 1
  %198 = mul i32 %192, %196
  %199 = urem i32 %198, 2
  %200 = icmp eq i32 %199, 0
  %201 = icmp slt i32 %193, 10
  %202 = and i1 %200, %201
  %203 = xor i1 %200, %201
  %204 = or i1 %202, %203
  %205 = or i1 %200, %201
  %206 = select i1 %204, i32 -447668917, i32 827627203
  store i32 %206, i32* %23
  br label %294

; <label>:207:                                    ; preds = %24
  store i32 91720852, i32* %23
  br label %294

; <label>:208:                                    ; preds = %24
  %209 = load i32, i32* @x.87
  %210 = load i32, i32* @y.88
  %211 = sub i32 %209, -1634575079
  %212 = sub i32 %211, 1
  %213 = add i32 %212, -1634575079
  %214 = sub i32 %209, 1
  %215 = mul i32 %209, %213
  %216 = urem i32 %215, 2
  %217 = icmp eq i32 %216, 0
  %218 = icmp slt i32 %210, 10
  %219 = xor i1 %217, true
  %220 = xor i1 %218, true
  %221 = xor i1 false, true
  %222 = and i1 %219, false
  %223 = and i1 %217, %221
  %224 = and i1 %220, false
  %225 = and i1 %218, %221
  %226 = or i1 %222, %223
  %227 = or i1 %224, %225
  %228 = xor i1 %226, %227
  %229 = or i1 %219, %220
  %230 = xor i1 %229, true
  %231 = or i1 false, %221
  %232 = and i1 %230, %231
  %233 = or i1 %228, %232
  %234 = or i1 %217, %218
  %235 = select i1 %233, i32 687182079, i32 -644053336
  store i32 %235, i32* %23
  br label %294

; <label>:236:                                    ; preds = %24
  %237 = load i32, i32* @x.87
  %238 = load i32, i32* @y.88
  %239 = sub i32 %237, -1040130734
  %240 = sub i32 %239, 1
  %241 = add i32 %240, -1040130734
  %242 = sub i32 %237, 1
  %243 = mul i32 %237, %241
  %244 = urem i32 %243, 2
  %245 = icmp eq i32 %244, 0
  %246 = icmp slt i32 %238, 10
  %247 = xor i1 %245, true
  %248 = xor i1 %246, true
  %249 = xor i1 true, true
  %250 = and i1 %247, true
  %251 = and i1 %245, %249
  %252 = and i1 %248, true
  %253 = and i1 %246, %249
  %254 = or i1 %250, %251
  %255 = or i1 %252, %253
  %256 = xor i1 %254, %255
  %257 = or i1 %247, %248
  %258 = xor i1 %257, true
  %259 = or i1 true, %249
  %260 = and i1 %258, %259
  %261 = or i1 %256, %260
  %262 = or i1 %245, %246
  %263 = select i1 %261, i32 -1210714624, i32 -644053336
  store i32 %263, i32* %23
  br label %294

; <label>:264:                                    ; preds = %24
  store i32 -556169412, i32* %23
  br label %294

; <label>:265:                                    ; preds = %24
  ret void

; <label>:266:                                    ; preds = %24
  %267 = alloca %"class.std::vector.0"*, align 8
  %268 = alloca i64, align 8
  %269 = alloca i64*, align 8
  %270 = alloca %"class.__gnu_cxx::__normal_iterator.46", align 8
  %271 = alloca %"class.__gnu_cxx::__normal_iterator.38", align 8
  %272 = alloca %"class.__gnu_cxx::__normal_iterator.38", align 8
  store %"class.std::vector.0"* %0, %"class.std::vector.0"** %267, align 8
  store i64 %1, i64* %268, align 8
  store i64* %2, i64** %269, align 8
  %273 = load %"class.std::vector.0"*, %"class.std::vector.0"** %267, align 8
  %274 = load i64, i64* %268, align 8
  %275 = call i64 @_ZNKSt6vectorIxSaIxEE4sizeEv(%"class.std::vector.0"* %273) #3
  %276 = icmp ugt i64 %274, %275
  store i32 -1488126471, i32* %23
  br label %294

; <label>:277:                                    ; preds = %24
  %278 = load volatile i64*, i64** %11
  %279 = load i64, i64* %278, align 8
  %280 = load volatile %"class.std::vector.0"*, %"class.std::vector.0"** %6
  %281 = call i64 @_ZNKSt6vectorIxSaIxEE4sizeEv(%"class.std::vector.0"* %280) #3
  %282 = icmp ult i64 %279, %281
  store i32 1482854006, i32* %23
  br label %294

; <label>:283:                                    ; preds = %24
  %284 = load volatile %"class.std::vector.0"*, %"class.std::vector.0"** %6
  %285 = bitcast %"class.std::vector.0"* %284 to %"struct.std::_Vector_base.1"*
  %286 = getelementptr inbounds %"struct.std::_Vector_base.1", %"struct.std::_Vector_base.1"* %285, i32 0, i32 0
  %287 = getelementptr inbounds %"struct.std::_Vector_base<long long, std::allocator<long long> >::_Vector_impl", %"struct.std::_Vector_base<long long, std::allocator<long long> >::_Vector_impl"* %286, i32 0, i32 0
  %288 = load i64*, i64** %287, align 8
  %289 = load volatile i64*, i64** %11
  %290 = load i64, i64* %289, align 8
  %291 = getelementptr inbounds i64, i64* %288, i64 %290
  %292 = load volatile %"class.std::vector.0"*, %"class.std::vector.0"** %6
  call void @_ZNSt6vectorIxSaIxEE15_M_erase_at_endEPx(%"class.std::vector.0"* %292, i64* %291) #3
  store i32 -1206169320, i32* %23
  br label %294

; <label>:293:                                    ; preds = %24
  store i32 687182079, i32* %23
  br label %294

; <label>:294:                                    ; preds = %293, %283, %277, %266, %264, %236, %208, %207, %182, %167, %164, %143, %115, %92, %89, %47, %27, %26
  br label %24
}

; Function Attrs: noinline nounwind uwtable
define linkonce_odr void @_ZNSt6vectorISt4pairIxxESaIS1_EEC2Ev(%"class.std::vector.31"*) unnamed_addr #4 comdat align 2 personality i8* bitcast (i32 (...)* @__gxx_personality_v0 to i8*) {
  %2 = alloca %"class.std::vector.31"*, align 8
  store %"class.std::vector.31"* %0, %"class.std::vector.31"** %2, align 8
  %3 = load %"class.std::vector.31"*, %"class.std::vector.31"** %2, align 8
  %4 = bitcast %"class.std::vector.31"* %3 to %"struct.std::_Vector_base.32"*
  invoke void @_ZNSt12_Vector_baseISt4pairIxxESaIS1_EEC2Ev(%"struct.std::_Vector_base.32"* %4)
          to label %5 unwind label %6

; <label>:5:                                      ; preds = %1
  ret void

; <label>:6:                                      ; preds = %1
  %7 = landingpad { i8*, i32 }
          catch i8* null
  %8 = extractvalue { i8*, i32 } %7, 0
  call void @__clang_call_terminate(i8* %8) #12
  unreachable
}

; Function Attrs: noinline uwtable
define linkonce_odr void @_ZNSt14priority_queueISt4pairIxxESt6vectorIS1_SaIS1_EESt7greaterIS1_EEC2ERKS6_OS4_(%"class.std::priority_queue"*, %"struct.std::greater"* dereferenceable(1), %"class.std::vector.31"* dereferenceable(24)) unnamed_addr #0 comdat align 2 personality i8* bitcast (i32 (...)* @__gxx_personality_v0 to i8*) {
  %4 = alloca %"class.std::priority_queue"*, align 8
  %5 = alloca %"struct.std::greater"*, align 8
  %6 = alloca %"class.std::vector.31"*, align 8
  %7 = alloca %"class.__gnu_cxx::__normal_iterator.53", align 8
  %8 = alloca %"class.__gnu_cxx::__normal_iterator.53", align 8
  %9 = alloca %"struct.std::greater", align 1
  %10 = alloca i8*
  %11 = alloca i32
  store %"class.std::priority_queue"* %0, %"class.std::priority_queue"** %4, align 8
  store %"struct.std::greater"* %1, %"struct.std::greater"** %5, align 8
  store %"class.std::vector.31"* %2, %"class.std::vector.31"** %6, align 8
  %12 = load %"class.std::priority_queue"*, %"class.std::priority_queue"** %4, align 8
  %13 = getelementptr inbounds %"class.std::priority_queue", %"class.std::priority_queue"* %12, i32 0, i32 0
  %14 = load %"class.std::vector.31"*, %"class.std::vector.31"** %6, align 8
  %15 = call dereferenceable(24) %"class.std::vector.31"* @_ZSt4moveIRSt6vectorISt4pairIxxESaIS2_EEEONSt16remove_referenceIT_E4typeEOS7_(%"class.std::vector.31"* dereferenceable(24) %14) #3
  call void @_ZNSt6vectorISt4pairIxxESaIS1_EEC2EOS3_(%"class.std::vector.31"* %13, %"class.std::vector.31"* dereferenceable(24) %15) #3
  %16 = getelementptr inbounds %"class.std::priority_queue", %"class.std::priority_queue"* %12, i32 0, i32 1
  %17 = load %"struct.std::greater"*, %"struct.std::greater"** %5, align 8
  %18 = getelementptr inbounds %"class.std::priority_queue", %"class.std::priority_queue"* %12, i32 0, i32 0
  %19 = call %"struct.std::pair.36"* @_ZNSt6vectorISt4pairIxxESaIS1_EE5beginEv(%"class.std::vector.31"* %18) #3
  %20 = getelementptr inbounds %"class.__gnu_cxx::__normal_iterator.53", %"class.__gnu_cxx::__normal_iterator.53"* %7, i32 0, i32 0
  store %"struct.std::pair.36"* %19, %"struct.std::pair.36"** %20, align 8
  %21 = getelementptr inbounds %"class.std::priority_queue", %"class.std::priority_queue"* %12, i32 0, i32 0
  %22 = call %"struct.std::pair.36"* @_ZNSt6vectorISt4pairIxxESaIS1_EE3endEv(%"class.std::vector.31"* %21) #3
  %23 = getelementptr inbounds %"class.__gnu_cxx::__normal_iterator.53", %"class.__gnu_cxx::__normal_iterator.53"* %8, i32 0, i32 0
  store %"struct.std::pair.36"* %22, %"struct.std::pair.36"** %23, align 8
  %24 = getelementptr inbounds %"class.std::priority_queue", %"class.std::priority_queue"* %12, i32 0, i32 1
  %25 = getelementptr inbounds %"class.__gnu_cxx::__normal_iterator.53", %"class.__gnu_cxx::__normal_iterator.53"* %7, i32 0, i32 0
  %26 = load %"struct.std::pair.36"*, %"struct.std::pair.36"** %25, align 8
  %27 = getelementptr inbounds %"class.__gnu_cxx::__normal_iterator.53", %"class.__gnu_cxx::__normal_iterator.53"* %8, i32 0, i32 0
  %28 = load %"struct.std::pair.36"*, %"struct.std::pair.36"** %27, align 8
  invoke void @_ZSt9make_heapIN9__gnu_cxx17__normal_iteratorIPSt4pairIxxESt6vectorIS3_SaIS3_EEEESt7greaterIS3_EEvT_SB_T0_(%"struct.std::pair.36"* %26, %"struct.std::pair.36"* %28)
          to label %29 unwind label %30

; <label>:29:                                     ; preds = %3
  ret void

; <label>:30:                                     ; preds = %3
  %31 = landingpad { i8*, i32 }
          cleanup
  %32 = extractvalue { i8*, i32 } %31, 0
  store i8* %32, i8** %10, align 8
  %33 = extractvalue { i8*, i32 } %31, 1
  store i32 %33, i32* %11, align 4
  call void @_ZNSt6vectorISt4pairIxxESaIS1_EED2Ev(%"class.std::vector.31"* %13) #3
  br label %34

; <label>:34:                                     ; preds = %30
  %35 = load i32, i32* @x.91
  %36 = load i32, i32* @y.92
  %37 = sub i32 %35, -1093395353
  %38 = sub i32 %37, 1
  %39 = add i32 %38, -1093395353
  %40 = sub i32 %35, 1
  %41 = mul i32 %35, %39
  %42 = urem i32 %41, 2
  %43 = icmp eq i32 %42, 0
  %44 = icmp slt i32 %36, 10
  %45 = and i1 %43, %44
  %46 = xor i1 %43, %44
  %47 = or i1 %45, %46
  %48 = or i1 %43, %44
  br i1 %47, label %49, label %80

; <label>:49:                                     ; preds = %34, %80
  %50 = load i8*, i8** %10, align 8
  %51 = load i32, i32* %11, align 4
  %52 = insertvalue { i8*, i32 } undef, i8* %50, 0
  %53 = insertvalue { i8*, i32 } %52, i32 %51, 1
  %54 = load i32, i32* @x.91
  %55 = load i32, i32* @y.92
  %56 = sub i32 0, 1
  %57 = add i32 %54, %56
  %58 = sub i32 %54, 1
  %59 = mul i32 %54, %57
  %60 = urem i32 %59, 2
  %61 = icmp eq i32 %60, 0
  %62 = icmp slt i32 %55, 10
  %63 = xor i1 %61, true
  %64 = xor i1 %62, true
  %65 = xor i1 true, true
  %66 = and i1 %63, true
  %67 = and i1 %61, %65
  %68 = and i1 %64, true
  %69 = and i1 %62, %65
  %70 = or i1 %66, %67
  %71 = or i1 %68, %69
  %72 = xor i1 %70, %71
  %73 = or i1 %63, %64
  %74 = xor i1 %73, true
  %75 = or i1 true, %65
  %76 = and i1 %74, %75
  %77 = or i1 %72, %76
  %78 = or i1 %61, %62
  br i1 %77, label %79, label %80

; <label>:79:                                     ; preds = %49
  resume { i8*, i32 } %53

; <label>:80:                                     ; preds = %49, %34
  %81 = load i8*, i8** %10, align 8
  %82 = load i32, i32* %11, align 4
  %83 = insertvalue { i8*, i32 } undef, i8* %81, 0
  %84 = insertvalue { i8*, i32 } %83, i32 %82, 1
  br label %49
}

; Function Attrs: noinline nounwind uwtable
define linkonce_odr void @_ZNSt6vectorISt4pairIxxESaIS1_EED2Ev(%"class.std::vector.31"*) unnamed_addr #4 comdat align 2 personality i8* bitcast (i32 (...)* @__gxx_personality_v0 to i8*) {
  %2 = alloca %"class.std::vector.31"*, align 8
  %3 = alloca i8*
  %4 = alloca i32
  store %"class.std::vector.31"* %0, %"class.std::vector.31"** %2, align 8
  %5 = load %"class.std::vector.31"*, %"class.std::vector.31"** %2, align 8
  %6 = bitcast %"class.std::vector.31"* %5 to %"struct.std::_Vector_base.32"*
  %7 = getelementptr inbounds %"struct.std::_Vector_base.32", %"struct.std::_Vector_base.32"* %6, i32 0, i32 0
  %8 = getelementptr inbounds %"struct.std::_Vector_base<std::pair<long long, long long>, std::allocator<std::pair<long long, long long> > >::_Vector_impl", %"struct.std::_Vector_base<std::pair<long long, long long>, std::allocator<std::pair<long long, long long> > >::_Vector_impl"* %7, i32 0, i32 0
  %9 = load %"struct.std::pair.36"*, %"struct.std::pair.36"** %8, align 8
  %10 = bitcast %"class.std::vector.31"* %5 to %"struct.std::_Vector_base.32"*
  %11 = getelementptr inbounds %"struct.std::_Vector_base.32", %"struct.std::_Vector_base.32"* %10, i32 0, i32 0
  %12 = getelementptr inbounds %"struct.std::_Vector_base<std::pair<long long, long long>, std::allocator<std::pair<long long, long long> > >::_Vector_impl", %"struct.std::_Vector_base<std::pair<long long, long long>, std::allocator<std::pair<long long, long long> > >::_Vector_impl"* %11, i32 0, i32 1
  %13 = load %"struct.std::pair.36"*, %"struct.std::pair.36"** %12, align 8
  %14 = bitcast %"class.std::vector.31"* %5 to %"struct.std::_Vector_base.32"*
  %15 = call dereferenceable(1) %"class.std::allocator.33"* @_ZNSt12_Vector_baseISt4pairIxxESaIS1_EE19_M_get_Tp_allocatorEv(%"struct.std::_Vector_base.32"* %14) #3
  invoke void @_ZSt8_DestroyIPSt4pairIxxES1_EvT_S3_RSaIT0_E(%"struct.std::pair.36"* %9, %"struct.std::pair.36"* %13, %"class.std::allocator.33"* dereferenceable(1) %15)
          to label %16 unwind label %18

; <label>:16:                                     ; preds = %1
  %17 = bitcast %"class.std::vector.31"* %5 to %"struct.std::_Vector_base.32"*
  call void @_ZNSt12_Vector_baseISt4pairIxxESaIS1_EED2Ev(%"struct.std::_Vector_base.32"* %17) #3
  ret void

; <label>:18:                                     ; preds = %1
  %19 = load i32, i32* @x.93
  %20 = load i32, i32* @y.94
  %21 = sub i32 0, 1
  %22 = add i32 %19, %21
  %23 = sub i32 %19, 1
  %24 = mul i32 %19, %22
  %25 = urem i32 %24, 2
  %26 = icmp eq i32 %25, 0
  %27 = icmp slt i32 %20, 10
  %28 = and i1 %26, %27
  %29 = xor i1 %26, %27
  %30 = or i1 %28, %29
  %31 = or i1 %26, %27
  br i1 %30, label %32, label %108

; <label>:32:                                     ; preds = %18, %108
  %33 = landingpad { i8*, i32 }
          catch i8* null
  %34 = extractvalue { i8*, i32 } %33, 0
  store i8* %34, i8** %3, align 8
  %35 = extractvalue { i8*, i32 } %33, 1
  store i32 %35, i32* %4, align 4
  %36 = bitcast %"class.std::vector.31"* %5 to %"struct.std::_Vector_base.32"*
  call void @_ZNSt12_Vector_baseISt4pairIxxESaIS1_EED2Ev(%"struct.std::_Vector_base.32"* %36) #3
  %37 = load i32, i32* @x.93
  %38 = load i32, i32* @y.94
  %39 = add i32 %37, 1368625321
  %40 = sub i32 %39, 1
  %41 = sub i32 %40, 1368625321
  %42 = sub i32 %37, 1
  %43 = mul i32 %37, %41
  %44 = urem i32 %43, 2
  %45 = icmp eq i32 %44, 0
  %46 = icmp slt i32 %38, 10
  %47 = and i1 %45, %46
  %48 = xor i1 %45, %46
  %49 = or i1 %47, %48
  %50 = or i1 %45, %46
  br i1 %49, label %51, label %108

; <label>:51:                                     ; preds = %32
  br label %52

; <label>:52:                                     ; preds = %51
  %53 = load i32, i32* @x.93
  %54 = load i32, i32* @y.94
  %55 = add i32 %53, 1268999305
  %56 = sub i32 %55, 1
  %57 = sub i32 %56, 1268999305
  %58 = sub i32 %53, 1
  %59 = mul i32 %53, %57
  %60 = urem i32 %59, 2
  %61 = icmp eq i32 %60, 0
  %62 = icmp slt i32 %54, 10
  %63 = xor i1 %61, true
  %64 = xor i1 %62, true
  %65 = xor i1 false, true
  %66 = and i1 %63, false
  %67 = and i1 %61, %65
  %68 = and i1 %64, false
  %69 = and i1 %62, %65
  %70 = or i1 %66, %67
  %71 = or i1 %68, %69
  %72 = xor i1 %70, %71
  %73 = or i1 %63, %64
  %74 = xor i1 %73, true
  %75 = or i1 false, %65
  %76 = and i1 %74, %75
  %77 = or i1 %72, %76
  %78 = or i1 %61, %62
  br i1 %77, label %79, label %113

; <label>:79:                                     ; preds = %52, %113
  %80 = load i8*, i8** %3, align 8
  call void @__clang_call_terminate(i8* %80) #12
  %81 = load i32, i32* @x.93
  %82 = load i32, i32* @y.94
  %83 = add i32 %81, 883679217
  %84 = sub i32 %83, 1
  %85 = sub i32 %84, 883679217
  %86 = sub i32 %81, 1
  %87 = mul i32 %81, %85
  %88 = urem i32 %87, 2
  %89 = icmp eq i32 %88, 0
  %90 = icmp slt i32 %82, 10
  %91 = xor i1 %89, true
  %92 = xor i1 %90, true
  %93 = xor i1 false, true
  %94 = and i1 %91, false
  %95 = and i1 %89, %93
  %96 = and i1 %92, false
  %97 = and i1 %90, %93
  %98 = or i1 %94, %95
  %99 = or i1 %96, %97
  %100 = xor i1 %98, %99
  %101 = or i1 %91, %92
  %102 = xor i1 %101, true
  %103 = or i1 false, %93
  %104 = and i1 %102, %103
  %105 = or i1 %100, %104
  %106 = or i1 %89, %90
  br i1 %105, label %107, label %113

; <label>:107:                                    ; preds = %79
  unreachable

; <label>:108:                                    ; preds = %32, %18
  %109 = landingpad { i8*, i32 }
          catch i8* null
  %110 = extractvalue { i8*, i32 } %109, 0
  store i8* %110, i8** %3, align 8
  %111 = extractvalue { i8*, i32 } %109, 1
  store i32 %111, i32* %4, align 4
  %112 = bitcast %"class.std::vector.31"* %5 to %"struct.std::_Vector_base.32"*
  call void @_ZNSt12_Vector_baseISt4pairIxxESaIS1_EED2Ev(%"struct.std::_Vector_base.32"* %112) #3
  br label %32

; <label>:113:                                    ; preds = %79, %52
  %114 = load i8*, i8** %3, align 8
  call void @__clang_call_terminate(i8* %114) #12
  br label %79
}

; Function Attrs: noinline uwtable
define linkonce_odr void @_ZNSt14priority_queueISt4pairIxxESt6vectorIS1_SaIS1_EESt7greaterIS1_EE7emplaceIJRxRiEEEvDpOT_(%"class.std::priority_queue"*, i64* dereferenceable(8), i32* dereferenceable(4)) #0 comdat align 2 {
  %4 = alloca i1
  %5 = alloca i1
  %6 = load i32, i32* @x.95
  %7 = load i32, i32* @y.96
  %8 = add i32 %6, 1977326749
  %9 = sub i32 %8, 1
  %10 = sub i32 %9, 1977326749
  %11 = sub i32 %6, 1
  %12 = mul i32 %6, %10
  %13 = urem i32 %12, 2
  %14 = icmp eq i32 %13, 0
  store i1 %14, i1* %5
  %15 = icmp slt i32 %7, 10
  store i1 %15, i1* %4
  %16 = alloca i32
  store i32 -1377607786, i32* %16
  br label %17

; <label>:17:                                     ; preds = %3, %103
  %18 = load i32, i32* %16
  switch i32 %18, label %19 [
    i32 -1377607786, label %20
    i32 -1889103664, label %28
    i32 888151524, label %78
    i32 -139267868, label %79
  ]

; <label>:19:                                     ; preds = %17
  br label %103

; <label>:20:                                     ; preds = %17
  %21 = load volatile i1, i1* %5
  %22 = load volatile i1, i1* %4
  %23 = and i1 %21, %22
  %24 = xor i1 %21, %22
  %25 = or i1 %23, %24
  %26 = or i1 %21, %22
  %27 = select i1 %25, i32 -1889103664, i32 -139267868
  store i32 %27, i32* %16
  br label %103

; <label>:28:                                     ; preds = %17
  %29 = alloca %"class.std::priority_queue"*, align 8
  %30 = alloca i64*, align 8
  %31 = alloca i32*, align 8
  %32 = alloca %"class.__gnu_cxx::__normal_iterator.53", align 8
  %33 = alloca %"class.__gnu_cxx::__normal_iterator.53", align 8
  %34 = alloca %"struct.std::greater", align 1
  store %"class.std::priority_queue"* %0, %"class.std::priority_queue"** %29, align 8
  store i64* %1, i64** %30, align 8
  store i32* %2, i32** %31, align 8
  %35 = load %"class.std::priority_queue"*, %"class.std::priority_queue"** %29, align 8
  %36 = getelementptr inbounds %"class.std::priority_queue", %"class.std::priority_queue"* %35, i32 0, i32 0
  %37 = load i64*, i64** %30, align 8
  %38 = call dereferenceable(8) i64* @_ZSt7forwardIRxEOT_RNSt16remove_referenceIS1_E4typeE(i64* dereferenceable(8) %37) #3
  %39 = load i32*, i32** %31, align 8
  %40 = call dereferenceable(4) i32* @_ZSt7forwardIRiEOT_RNSt16remove_referenceIS1_E4typeE(i32* dereferenceable(4) %39) #3
  call void @_ZNSt6vectorISt4pairIxxESaIS1_EE12emplace_backIJRxRiEEEvDpOT_(%"class.std::vector.31"* %36, i64* dereferenceable(8) %38, i32* dereferenceable(4) %40)
  %41 = getelementptr inbounds %"class.std::priority_queue", %"class.std::priority_queue"* %35, i32 0, i32 0
  %42 = call %"struct.std::pair.36"* @_ZNSt6vectorISt4pairIxxESaIS1_EE5beginEv(%"class.std::vector.31"* %41) #3
  %43 = getelementptr inbounds %"class.__gnu_cxx::__normal_iterator.53", %"class.__gnu_cxx::__normal_iterator.53"* %32, i32 0, i32 0
  store %"struct.std::pair.36"* %42, %"struct.std::pair.36"** %43, align 8
  %44 = getelementptr inbounds %"class.std::priority_queue", %"class.std::priority_queue"* %35, i32 0, i32 0
  %45 = call %"struct.std::pair.36"* @_ZNSt6vectorISt4pairIxxESaIS1_EE3endEv(%"class.std::vector.31"* %44) #3
  %46 = getelementptr inbounds %"class.__gnu_cxx::__normal_iterator.53", %"class.__gnu_cxx::__normal_iterator.53"* %33, i32 0, i32 0
  store %"struct.std::pair.36"* %45, %"struct.std::pair.36"** %46, align 8
  %47 = getelementptr inbounds %"class.std::priority_queue", %"class.std::priority_queue"* %35, i32 0, i32 1
  %48 = getelementptr inbounds %"class.__gnu_cxx::__normal_iterator.53", %"class.__gnu_cxx::__normal_iterator.53"* %32, i32 0, i32 0
  %49 = load %"struct.std::pair.36"*, %"struct.std::pair.36"** %48, align 8
  %50 = getelementptr inbounds %"class.__gnu_cxx::__normal_iterator.53", %"class.__gnu_cxx::__normal_iterator.53"* %33, i32 0, i32 0
  %51 = load %"struct.std::pair.36"*, %"struct.std::pair.36"** %50, align 8
  call void @_ZSt9push_heapIN9__gnu_cxx17__normal_iteratorIPSt4pairIxxESt6vectorIS3_SaIS3_EEEESt7greaterIS3_EEvT_SB_T0_(%"struct.std::pair.36"* %49, %"struct.std::pair.36"* %51)
  %52 = load i32, i32* @x.95
  %53 = load i32, i32* @y.96
  %54 = sub i32 0, 1
  %55 = add i32 %52, %54
  %56 = sub i32 %52, 1
  %57 = mul i32 %52, %55
  %58 = urem i32 %57, 2
  %59 = icmp eq i32 %58, 0
  %60 = icmp slt i32 %53, 10
  %61 = xor i1 %59, true
  %62 = xor i1 %60, true
  %63 = xor i1 false, true
  %64 = and i1 %61, false
  %65 = and i1 %59, %63
  %66 = and i1 %62, false
  %67 = and i1 %60, %63
  %68 = or i1 %64, %65
  %69 = or i1 %66, %67
  %70 = xor i1 %68, %69
  %71 = or i1 %61, %62
  %72 = xor i1 %71, true
  %73 = or i1 false, %63
  %74 = and i1 %72, %73
  %75 = or i1 %70, %74
  %76 = or i1 %59, %60
  %77 = select i1 %75, i32 888151524, i32 -139267868
  store i32 %77, i32* %16
  br label %103

; <label>:78:                                     ; preds = %17
  ret void

; <label>:79:                                     ; preds = %17
  %80 = alloca %"class.std::priority_queue"*, align 8
  %81 = alloca i64*, align 8
  %82 = alloca i32*, align 8
  %83 = alloca %"class.__gnu_cxx::__normal_iterator.53", align 8
  %84 = alloca %"class.__gnu_cxx::__normal_iterator.53", align 8
  %85 = alloca %"struct.std::greater", align 1
  store %"class.std::priority_queue"* %0, %"class.std::priority_queue"** %80, align 8
  store i64* %1, i64** %81, align 8
  store i32* %2, i32** %82, align 8
  %86 = load %"class.std::priority_queue"*, %"class.std::priority_queue"** %80, align 8
  %87 = getelementptr inbounds %"class.std::priority_queue", %"class.std::priority_queue"* %86, i32 0, i32 0
  %88 = load i64*, i64** %81, align 8
  %89 = call dereferenceable(8) i64* @_ZSt7forwardIRxEOT_RNSt16remove_referenceIS1_E4typeE(i64* dereferenceable(8) %88) #3
  %90 = load i32*, i32** %82, align 8
  %91 = call dereferenceable(4) i32* @_ZSt7forwardIRiEOT_RNSt16remove_referenceIS1_E4typeE(i32* dereferenceable(4) %90) #3
  call void @_ZNSt6vectorISt4pairIxxESaIS1_EE12emplace_backIJRxRiEEEvDpOT_(%"class.std::vector.31"* %87, i64* dereferenceable(8) %89, i32* dereferenceable(4) %91)
  %92 = getelementptr inbounds %"class.std::priority_queue", %"class.std::priority_queue"* %86, i32 0, i32 0
  %93 = call %"struct.std::pair.36"* @_ZNSt6vectorISt4pairIxxESaIS1_EE5beginEv(%"class.std::vector.31"* %92) #3
  %94 = getelementptr inbounds %"class.__gnu_cxx::__normal_iterator.53", %"class.__gnu_cxx::__normal_iterator.53"* %83, i32 0, i32 0
  store %"struct.std::pair.36"* %93, %"struct.std::pair.36"** %94, align 8
  %95 = getelementptr inbounds %"class.std::priority_queue", %"class.std::priority_queue"* %86, i32 0, i32 0
  %96 = call %"struct.std::pair.36"* @_ZNSt6vectorISt4pairIxxESaIS1_EE3endEv(%"class.std::vector.31"* %95) #3
  %97 = getelementptr inbounds %"class.__gnu_cxx::__normal_iterator.53", %"class.__gnu_cxx::__normal_iterator.53"* %84, i32 0, i32 0
  store %"struct.std::pair.36"* %96, %"struct.std::pair.36"** %97, align 8
  %98 = getelementptr inbounds %"class.std::priority_queue", %"class.std::priority_queue"* %86, i32 0, i32 1
  %99 = getelementptr inbounds %"class.__gnu_cxx::__normal_iterator.53", %"class.__gnu_cxx::__normal_iterator.53"* %83, i32 0, i32 0
  %100 = load %"struct.std::pair.36"*, %"struct.std::pair.36"** %99, align 8
  %101 = getelementptr inbounds %"class.__gnu_cxx::__normal_iterator.53", %"class.__gnu_cxx::__normal_iterator.53"* %84, i32 0, i32 0
  %102 = load %"struct.std::pair.36"*, %"struct.std::pair.36"** %101, align 8
  call void @_ZSt9push_heapIN9__gnu_cxx17__normal_iteratorIPSt4pairIxxESt6vectorIS3_SaIS3_EEEESt7greaterIS3_EEvT_SB_T0_(%"struct.std::pair.36"* %100, %"struct.std::pair.36"* %102)
  store i32 -1889103664, i32* %16
  br label %103

; <label>:103:                                    ; preds = %79, %28, %20, %19
  br label %17
}

; Function Attrs: noinline nounwind uwtable
define linkonce_odr zeroext i1 @_ZNKSt14priority_queueISt4pairIxxESt6vectorIS1_SaIS1_EESt7greaterIS1_EE5emptyEv(%"class.std::priority_queue"*) #4 comdat align 2 {
  %2 = alloca %"class.std::priority_queue"*, align 8
  store %"class.std::priority_queue"* %0, %"class.std::priority_queue"** %2, align 8
  %3 = load %"class.std::priority_queue"*, %"class.std::priority_queue"** %2, align 8
  %4 = getelementptr inbounds %"class.std::priority_queue", %"class.std::priority_queue"* %3, i32 0, i32 0
  %5 = call zeroext i1 @_ZNKSt6vectorISt4pairIxxESaIS1_EE5emptyEv(%"class.std::vector.31"* %4) #3
  ret i1 %5
}

; Function Attrs: noinline nounwind uwtable
define linkonce_odr dereferenceable(16) %"struct.std::pair.36"* @_ZNKSt14priority_queueISt4pairIxxESt6vectorIS1_SaIS1_EESt7greaterIS1_EE3topEv(%"class.std::priority_queue"*) #4 comdat align 2 {
  %2 = alloca %"struct.std::pair.36"*
  %3 = alloca i1
  %4 = alloca i1
  %5 = load i32, i32* @x.99
  %6 = load i32, i32* @y.100
  %7 = sub i32 %5, 79566772
  %8 = sub i32 %7, 1
  %9 = add i32 %8, 79566772
  %10 = sub i32 %5, 1
  %11 = mul i32 %5, %9
  %12 = urem i32 %11, 2
  %13 = icmp eq i32 %12, 0
  store i1 %13, i1* %4
  %14 = icmp slt i32 %6, 10
  store i1 %14, i1* %3
  %15 = alloca i32
  store i32 2025494785, i32* %15
  br label %16

; <label>:16:                                     ; preds = %1, %54
  %17 = load i32, i32* %15
  switch i32 %17, label %18 [
    i32 2025494785, label %19
    i32 -2132336279, label %27
    i32 2000681320, label %47
    i32 1042057167, label %49
  ]

; <label>:18:                                     ; preds = %16
  br label %54

; <label>:19:                                     ; preds = %16
  %20 = load volatile i1, i1* %4
  %21 = load volatile i1, i1* %3
  %22 = and i1 %20, %21
  %23 = xor i1 %20, %21
  %24 = or i1 %22, %23
  %25 = or i1 %20, %21
  %26 = select i1 %24, i32 -2132336279, i32 1042057167
  store i32 %26, i32* %15
  br label %54

; <label>:27:                                     ; preds = %16
  %28 = alloca %"class.std::priority_queue"*, align 8
  store %"class.std::priority_queue"* %0, %"class.std::priority_queue"** %28, align 8
  %29 = load %"class.std::priority_queue"*, %"class.std::priority_queue"** %28, align 8
  %30 = getelementptr inbounds %"class.std::priority_queue", %"class.std::priority_queue"* %29, i32 0, i32 0
  %31 = call dereferenceable(16) %"struct.std::pair.36"* @_ZNKSt6vectorISt4pairIxxESaIS1_EE5frontEv(%"class.std::vector.31"* %30) #3
  store %"struct.std::pair.36"* %31, %"struct.std::pair.36"** %2
  %32 = load i32, i32* @x.99
  %33 = load i32, i32* @y.100
  %34 = sub i32 %32, -983373332
  %35 = sub i32 %34, 1
  %36 = add i32 %35, -983373332
  %37 = sub i32 %32, 1
  %38 = mul i32 %32, %36
  %39 = urem i32 %38, 2
  %40 = icmp eq i32 %39, 0
  %41 = icmp slt i32 %33, 10
  %42 = and i1 %40, %41
  %43 = xor i1 %40, %41
  %44 = or i1 %42, %43
  %45 = or i1 %40, %41
  %46 = select i1 %44, i32 2000681320, i32 1042057167
  store i32 %46, i32* %15
  br label %54

; <label>:47:                                     ; preds = %16
  %48 = load volatile %"struct.std::pair.36"*, %"struct.std::pair.36"** %2
  ret %"struct.std::pair.36"* %48

; <label>:49:                                     ; preds = %16
  %50 = alloca %"class.std::priority_queue"*, align 8
  store %"class.std::priority_queue"* %0, %"class.std::priority_queue"** %50, align 8
  %51 = load %"class.std::priority_queue"*, %"class.std::priority_queue"** %50, align 8
  %52 = getelementptr inbounds %"class.std::priority_queue", %"class.std::priority_queue"* %51, i32 0, i32 0
  %53 = call dereferenceable(16) %"struct.std::pair.36"* @_ZNKSt6vectorISt4pairIxxESaIS1_EE5frontEv(%"class.std::vector.31"* %52) #3
  store i32 -2132336279, i32* %15
  br label %54

; <label>:54:                                     ; preds = %49, %27, %19, %18
  br label %16
}

; Function Attrs: noinline uwtable
define linkonce_odr void @_ZNSt14priority_queueISt4pairIxxESt6vectorIS1_SaIS1_EESt7greaterIS1_EE3popEv(%"class.std::priority_queue"*) #0 comdat align 2 {
  %2 = alloca %"class.std::priority_queue"*, align 8
  %3 = alloca %"class.__gnu_cxx::__normal_iterator.53", align 8
  %4 = alloca %"class.__gnu_cxx::__normal_iterator.53", align 8
  %5 = alloca %"struct.std::greater", align 1
  store %"class.std::priority_queue"* %0, %"class.std::priority_queue"** %2, align 8
  %6 = load %"class.std::priority_queue"*, %"class.std::priority_queue"** %2, align 8
  %7 = getelementptr inbounds %"class.std::priority_queue", %"class.std::priority_queue"* %6, i32 0, i32 0
  %8 = call %"struct.std::pair.36"* @_ZNSt6vectorISt4pairIxxESaIS1_EE5beginEv(%"class.std::vector.31"* %7) #3
  %9 = getelementptr inbounds %"class.__gnu_cxx::__normal_iterator.53", %"class.__gnu_cxx::__normal_iterator.53"* %3, i32 0, i32 0
  store %"struct.std::pair.36"* %8, %"struct.std::pair.36"** %9, align 8
  %10 = getelementptr inbounds %"class.std::priority_queue", %"class.std::priority_queue"* %6, i32 0, i32 0
  %11 = call %"struct.std::pair.36"* @_ZNSt6vectorISt4pairIxxESaIS1_EE3endEv(%"class.std::vector.31"* %10) #3
  %12 = getelementptr inbounds %"class.__gnu_cxx::__normal_iterator.53", %"class.__gnu_cxx::__normal_iterator.53"* %4, i32 0, i32 0
  store %"struct.std::pair.36"* %11, %"struct.std::pair.36"** %12, align 8
  %13 = getelementptr inbounds %"class.std::priority_queue", %"class.std::priority_queue"* %6, i32 0, i32 1
  %14 = getelementptr inbounds %"class.__gnu_cxx::__normal_iterator.53", %"class.__gnu_cxx::__normal_iterator.53"* %3, i32 0, i32 0
  %15 = load %"struct.std::pair.36"*, %"struct.std::pair.36"** %14, align 8
  %16 = getelementptr inbounds %"class.__gnu_cxx::__normal_iterator.53", %"class.__gnu_cxx::__normal_iterator.53"* %4, i32 0, i32 0
  %17 = load %"struct.std::pair.36"*, %"struct.std::pair.36"** %16, align 8
  call void @_ZSt8pop_heapIN9__gnu_cxx17__normal_iteratorIPSt4pairIxxESt6vectorIS3_SaIS3_EEEESt7greaterIS3_EEvT_SB_T0_(%"struct.std::pair.36"* %15, %"struct.std::pair.36"* %17)
  %18 = getelementptr inbounds %"class.std::priority_queue", %"class.std::priority_queue"* %6, i32 0, i32 0
  call void @_ZNSt6vectorISt4pairIxxESaIS1_EE8pop_backEv(%"class.std::vector.31"* %18) #3
  ret void
}

; Function Attrs: noinline nounwind uwtable
define linkonce_odr dereferenceable(24) %"class.std::vector.26"* @_ZNKSt6vectorIS_I4EdgeSaIS0_EESaIS2_EEixEm(%"class.std::vector.21"*, i64) #4 comdat align 2 {
  %3 = alloca %"class.std::vector.21"*, align 8
  %4 = alloca i64, align 8
  store %"class.std::vector.21"* %0, %"class.std::vector.21"** %3, align 8
  store i64 %1, i64* %4, align 8
  %5 = load %"class.std::vector.21"*, %"class.std::vector.21"** %3, align 8
  %6 = bitcast %"class.std::vector.21"* %5 to %"struct.std::_Vector_base.22"*
  %7 = getelementptr inbounds %"struct.std::_Vector_base.22", %"struct.std::_Vector_base.22"* %6, i32 0, i32 0
  %8 = getelementptr inbounds %"struct.std::_Vector_base<std::vector<Edge, std::allocator<Edge> >, std::allocator<std::vector<Edge, std::allocator<Edge> > > >::_Vector_impl", %"struct.std::_Vector_base<std::vector<Edge, std::allocator<Edge> >, std::allocator<std::vector<Edge, std::allocator<Edge> > > >::_Vector_impl"* %7, i32 0, i32 0
  %9 = load %"class.std::vector.26"*, %"class.std::vector.26"** %8, align 8
  %10 = load i64, i64* %4, align 8
  %11 = getelementptr inbounds %"class.std::vector.26", %"class.std::vector.26"* %9, i64 %10
  ret %"class.std::vector.26"* %11
}

; Function Attrs: noinline nounwind uwtable
define linkonce_odr %struct.Edge* @_ZNKSt6vectorI4EdgeSaIS0_EE5beginEv(%"class.std::vector.26"*) #4 comdat align 2 {
  %2 = alloca %"class.__gnu_cxx::__normal_iterator", align 8
  %3 = alloca %"class.std::vector.26"*, align 8
  %4 = alloca %struct.Edge*, align 8
  store %"class.std::vector.26"* %0, %"class.std::vector.26"** %3, align 8
  %5 = load %"class.std::vector.26"*, %"class.std::vector.26"** %3, align 8
  %6 = bitcast %"class.std::vector.26"* %5 to %"struct.std::_Vector_base.27"*
  %7 = getelementptr inbounds %"struct.std::_Vector_base.27", %"struct.std::_Vector_base.27"* %6, i32 0, i32 0
  %8 = getelementptr inbounds %"struct.std::_Vector_base<Edge, std::allocator<Edge> >::_Vector_impl", %"struct.std::_Vector_base<Edge, std::allocator<Edge> >::_Vector_impl"* %7, i32 0, i32 0
  %9 = load %struct.Edge*, %struct.Edge** %8, align 8
  store %struct.Edge* %9, %struct.Edge** %4, align 8
  call void @_ZN9__gnu_cxx17__normal_iteratorIPK4EdgeSt6vectorIS1_SaIS1_EEEC2ERKS3_(%"class.__gnu_cxx::__normal_iterator"* %2, %struct.Edge** dereferenceable(8) %4) #3
  %10 = getelementptr inbounds %"class.__gnu_cxx::__normal_iterator", %"class.__gnu_cxx::__normal_iterator"* %2, i32 0, i32 0
  %11 = load %struct.Edge*, %struct.Edge** %10, align 8
  ret %struct.Edge* %11
}

; Function Attrs: noinline nounwind uwtable
define linkonce_odr %struct.Edge* @_ZNKSt6vectorI4EdgeSaIS0_EE3endEv(%"class.std::vector.26"*) #4 comdat align 2 {
  %2 = alloca %"class.__gnu_cxx::__normal_iterator", align 8
  %3 = alloca %"class.std::vector.26"*, align 8
  %4 = alloca %struct.Edge*, align 8
  store %"class.std::vector.26"* %0, %"class.std::vector.26"** %3, align 8
  %5 = load %"class.std::vector.26"*, %"class.std::vector.26"** %3, align 8
  %6 = bitcast %"class.std::vector.26"* %5 to %"struct.std::_Vector_base.27"*
  %7 = getelementptr inbounds %"struct.std::_Vector_base.27", %"struct.std::_Vector_base.27"* %6, i32 0, i32 0
  %8 = getelementptr inbounds %"struct.std::_Vector_base<Edge, std::allocator<Edge> >::_Vector_impl", %"struct.std::_Vector_base<Edge, std::allocator<Edge> >::_Vector_impl"* %7, i32 0, i32 1
  %9 = load %struct.Edge*, %struct.Edge** %8, align 8
  store %struct.Edge* %9, %struct.Edge** %4, align 8
  call void @_ZN9__gnu_cxx17__normal_iteratorIPK4EdgeSt6vectorIS1_SaIS1_EEEC2ERKS3_(%"class.__gnu_cxx::__normal_iterator"* %2, %struct.Edge** dereferenceable(8) %4) #3
  %10 = getelementptr inbounds %"class.__gnu_cxx::__normal_iterator", %"class.__gnu_cxx::__normal_iterator"* %2, i32 0, i32 0
  %11 = load %struct.Edge*, %struct.Edge** %10, align 8
  ret %struct.Edge* %11
}

; Function Attrs: noinline nounwind uwtable
define linkonce_odr zeroext i1 @_ZN9__gnu_cxxneIPK4EdgeSt6vectorIS1_SaIS1_EEEEbRKNS_17__normal_iteratorIT_T0_EESC_(%"class.__gnu_cxx::__normal_iterator"* dereferenceable(8), %"class.__gnu_cxx::__normal_iterator"* dereferenceable(8)) #4 comdat {
  %3 = alloca %"class.__gnu_cxx::__normal_iterator"*, align 8
  %4 = alloca %"class.__gnu_cxx::__normal_iterator"*, align 8
  store %"class.__gnu_cxx::__normal_iterator"* %0, %"class.__gnu_cxx::__normal_iterator"** %3, align 8
  store %"class.__gnu_cxx::__normal_iterator"* %1, %"class.__gnu_cxx::__normal_iterator"** %4, align 8
  %5 = load %"class.__gnu_cxx::__normal_iterator"*, %"class.__gnu_cxx::__normal_iterator"** %3, align 8
  %6 = call dereferenceable(8) %struct.Edge** @_ZNK9__gnu_cxx17__normal_iteratorIPK4EdgeSt6vectorIS1_SaIS1_EEE4baseEv(%"class.__gnu_cxx::__normal_iterator"* %5) #3
  %7 = load %struct.Edge*, %struct.Edge** %6, align 8
  %8 = load %"class.__gnu_cxx::__normal_iterator"*, %"class.__gnu_cxx::__normal_iterator"** %4, align 8
  %9 = call dereferenceable(8) %struct.Edge** @_ZNK9__gnu_cxx17__normal_iteratorIPK4EdgeSt6vectorIS1_SaIS1_EEE4baseEv(%"class.__gnu_cxx::__normal_iterator"* %8) #3
  %10 = load %struct.Edge*, %struct.Edge** %9, align 8
  %11 = icmp ne %struct.Edge* %7, %10
  ret i1 %11
}

; Function Attrs: noinline nounwind uwtable
define linkonce_odr dereferenceable(16) %struct.Edge* @_ZNK9__gnu_cxx17__normal_iteratorIPK4EdgeSt6vectorIS1_SaIS1_EEEdeEv(%"class.__gnu_cxx::__normal_iterator"*) #4 comdat align 2 {
  %2 = alloca %"class.__gnu_cxx::__normal_iterator"*, align 8
  store %"class.__gnu_cxx::__normal_iterator"* %0, %"class.__gnu_cxx::__normal_iterator"** %2, align 8
  %3 = load %"class.__gnu_cxx::__normal_iterator"*, %"class.__gnu_cxx::__normal_iterator"** %2, align 8
  %4 = getelementptr inbounds %"class.__gnu_cxx::__normal_iterator", %"class.__gnu_cxx::__normal_iterator"* %3, i32 0, i32 0
  %5 = load %struct.Edge*, %struct.Edge** %4, align 8
  ret %struct.Edge* %5
}

; Function Attrs: noinline uwtable
define linkonce_odr void @_ZNSt14priority_queueISt4pairIxxESt6vectorIS1_SaIS1_EESt7greaterIS1_EE7emplaceIJRxRKxEEEvDpOT_(%"class.std::priority_queue"*, i64* dereferenceable(8), i64* dereferenceable(8)) #0 comdat align 2 {
  %4 = alloca %"class.std::priority_queue"*, align 8
  %5 = alloca i64*, align 8
  %6 = alloca i64*, align 8
  %7 = alloca %"class.__gnu_cxx::__normal_iterator.53", align 8
  %8 = alloca %"class.__gnu_cxx::__normal_iterator.53", align 8
  %9 = alloca %"struct.std::greater", align 1
  store %"class.std::priority_queue"* %0, %"class.std::priority_queue"** %4, align 8
  store i64* %1, i64** %5, align 8
  store i64* %2, i64** %6, align 8
  %10 = load %"class.std::priority_queue"*, %"class.std::priority_queue"** %4, align 8
  %11 = getelementptr inbounds %"class.std::priority_queue", %"class.std::priority_queue"* %10, i32 0, i32 0
  %12 = load i64*, i64** %5, align 8
  %13 = call dereferenceable(8) i64* @_ZSt7forwardIRxEOT_RNSt16remove_referenceIS1_E4typeE(i64* dereferenceable(8) %12) #3
  %14 = load i64*, i64** %6, align 8
  %15 = call dereferenceable(8) i64* @_ZSt7forwardIRKxEOT_RNSt16remove_referenceIS2_E4typeE(i64* dereferenceable(8) %14) #3
  call void @_ZNSt6vectorISt4pairIxxESaIS1_EE12emplace_backIJRxRKxEEEvDpOT_(%"class.std::vector.31"* %11, i64* dereferenceable(8) %13, i64* dereferenceable(8) %15)
  %16 = getelementptr inbounds %"class.std::priority_queue", %"class.std::priority_queue"* %10, i32 0, i32 0
  %17 = call %"struct.std::pair.36"* @_ZNSt6vectorISt4pairIxxESaIS1_EE5beginEv(%"class.std::vector.31"* %16) #3
  %18 = getelementptr inbounds %"class.__gnu_cxx::__normal_iterator.53", %"class.__gnu_cxx::__normal_iterator.53"* %7, i32 0, i32 0
  store %"struct.std::pair.36"* %17, %"struct.std::pair.36"** %18, align 8
  %19 = getelementptr inbounds %"class.std::priority_queue", %"class.std::priority_queue"* %10, i32 0, i32 0
  %20 = call %"struct.std::pair.36"* @_ZNSt6vectorISt4pairIxxESaIS1_EE3endEv(%"class.std::vector.31"* %19) #3
  %21 = getelementptr inbounds %"class.__gnu_cxx::__normal_iterator.53", %"class.__gnu_cxx::__normal_iterator.53"* %8, i32 0, i32 0
  store %"struct.std::pair.36"* %20, %"struct.std::pair.36"** %21, align 8
  %22 = getelementptr inbounds %"class.std::priority_queue", %"class.std::priority_queue"* %10, i32 0, i32 1
  %23 = getelementptr inbounds %"class.__gnu_cxx::__normal_iterator.53", %"class.__gnu_cxx::__normal_iterator.53"* %7, i32 0, i32 0
  %24 = load %"struct.std::pair.36"*, %"struct.std::pair.36"** %23, align 8
  %25 = getelementptr inbounds %"class.__gnu_cxx::__normal_iterator.53", %"class.__gnu_cxx::__normal_iterator.53"* %8, i32 0, i32 0
  %26 = load %"struct.std::pair.36"*, %"struct.std::pair.36"** %25, align 8
  call void @_ZSt9push_heapIN9__gnu_cxx17__normal_iteratorIPSt4pairIxxESt6vectorIS3_SaIS3_EEEESt7greaterIS3_EEvT_SB_T0_(%"struct.std::pair.36"* %24, %"struct.std::pair.36"* %26)
  ret void
}

; Function Attrs: noinline nounwind uwtable
define linkonce_odr dereferenceable(8) %"class.__gnu_cxx::__normal_iterator"* @_ZN9__gnu_cxx17__normal_iteratorIPK4EdgeSt6vectorIS1_SaIS1_EEEppEv(%"class.__gnu_cxx::__normal_iterator"*) #4 comdat align 2 {
  %2 = alloca %"class.__gnu_cxx::__normal_iterator"*, align 8
  store %"class.__gnu_cxx::__normal_iterator"* %0, %"class.__gnu_cxx::__normal_iterator"** %2, align 8
  %3 = load %"class.__gnu_cxx::__normal_iterator"*, %"class.__gnu_cxx::__normal_iterator"** %2, align 8
  %4 = getelementptr inbounds %"class.__gnu_cxx::__normal_iterator", %"class.__gnu_cxx::__normal_iterator"* %3, i32 0, i32 0
  %5 = load %struct.Edge*, %struct.Edge** %4, align 8
  %6 = getelementptr inbounds %struct.Edge, %struct.Edge* %5, i32 1
  store %struct.Edge* %6, %struct.Edge** %4, align 8
  ret %"class.__gnu_cxx::__normal_iterator"* %3
}

; Function Attrs: noinline nounwind uwtable
define linkonce_odr void @_ZNSt14priority_queueISt4pairIxxESt6vectorIS1_SaIS1_EESt7greaterIS1_EED2Ev(%"class.std::priority_queue"*) unnamed_addr #4 comdat align 2 {
  %2 = alloca i1
  %3 = alloca i1
  %4 = load i32, i32* @x.117
  %5 = load i32, i32* @y.118
  %6 = sub i32 %4, 102639931
  %7 = sub i32 %6, 1
  %8 = add i32 %7, 102639931
  %9 = sub i32 %4, 1
  %10 = mul i32 %4, %8
  %11 = urem i32 %10, 2
  %12 = icmp eq i32 %11, 0
  store i1 %12, i1* %3
  %13 = icmp slt i32 %5, 10
  store i1 %13, i1* %2
  %14 = alloca i32
  store i32 -1604364646, i32* %14
  br label %15

; <label>:15:                                     ; preds = %1, %62
  %16 = load i32, i32* %14
  switch i32 %16, label %17 [
    i32 -1604364646, label %18
    i32 2139194208, label %26
    i32 -1442213142, label %57
    i32 -1415651915, label %58
  ]

; <label>:17:                                     ; preds = %15
  br label %62

; <label>:18:                                     ; preds = %15
  %19 = load volatile i1, i1* %3
  %20 = load volatile i1, i1* %2
  %21 = and i1 %19, %20
  %22 = xor i1 %19, %20
  %23 = or i1 %21, %22
  %24 = or i1 %19, %20
  %25 = select i1 %23, i32 2139194208, i32 -1415651915
  store i32 %25, i32* %14
  br label %62

; <label>:26:                                     ; preds = %15
  %27 = alloca %"class.std::priority_queue"*, align 8
  store %"class.std::priority_queue"* %0, %"class.std::priority_queue"** %27, align 8
  %28 = load %"class.std::priority_queue"*, %"class.std::priority_queue"** %27, align 8
  %29 = getelementptr inbounds %"class.std::priority_queue", %"class.std::priority_queue"* %28, i32 0, i32 0
  call void @_ZNSt6vectorISt4pairIxxESaIS1_EED2Ev(%"class.std::vector.31"* %29) #3
  %30 = load i32, i32* @x.117
  %31 = load i32, i32* @y.118
  %32 = sub i32 %30, -2058084958
  %33 = sub i32 %32, 1
  %34 = add i32 %33, -2058084958
  %35 = sub i32 %30, 1
  %36 = mul i32 %30, %34
  %37 = urem i32 %36, 2
  %38 = icmp eq i32 %37, 0
  %39 = icmp slt i32 %31, 10
  %40 = xor i1 %38, true
  %41 = xor i1 %39, true
  %42 = xor i1 true, true
  %43 = and i1 %40, true
  %44 = and i1 %38, %42
  %45 = and i1 %41, true
  %46 = and i1 %39, %42
  %47 = or i1 %43, %44
  %48 = or i1 %45, %46
  %49 = xor i1 %47, %48
  %50 = or i1 %40, %41
  %51 = xor i1 %50, true
  %52 = or i1 true, %42
  %53 = and i1 %51, %52
  %54 = or i1 %49, %53
  %55 = or i1 %38, %39
  %56 = select i1 %54, i32 -1442213142, i32 -1415651915
  store i32 %56, i32* %14
  br label %62

; <label>:57:                                     ; preds = %15
  ret void

; <label>:58:                                     ; preds = %15
  %59 = alloca %"class.std::priority_queue"*, align 8
  store %"class.std::priority_queue"* %0, %"class.std::priority_queue"** %59, align 8
  %60 = load %"class.std::priority_queue"*, %"class.std::priority_queue"** %59, align 8
  %61 = getelementptr inbounds %"class.std::priority_queue", %"class.std::priority_queue"* %60, i32 0, i32 0
  call void @_ZNSt6vectorISt4pairIxxESaIS1_EED2Ev(%"class.std::vector.31"* %61) #3
  store i32 2139194208, i32* %14
  br label %62

; <label>:62:                                     ; preds = %58, %26, %18, %17
  br label %15
}

; Function Attrs: noinline uwtable
define void @_Z8get_pathRKSt6vectorIxSaIxEEx(%"class.std::vector.0"* noalias sret, %"class.std::vector.0"* dereferenceable(24), i64) #0 personality i8* bitcast (i32 (...)* @__gxx_personality_v0 to i8*) {
  %4 = alloca %"class.std::vector.0"*, align 8
  %5 = alloca i64, align 8
  %6 = alloca i1, align 1
  %7 = alloca i64, align 8
  %8 = alloca i8*
  %9 = alloca i32
  %10 = alloca %"class.__gnu_cxx::__normal_iterator.38", align 8
  %11 = alloca %"class.__gnu_cxx::__normal_iterator.38", align 8
  store %"class.std::vector.0"* %1, %"class.std::vector.0"** %4, align 8
  store i64 %2, i64* %5, align 8
  store i1 false, i1* %6, align 1
  call void @_ZNSt6vectorIxSaIxEEC2Ev(%"class.std::vector.0"* %0) #3
  %12 = load i64, i64* %5, align 8
  store i64 %12, i64* %7, align 8
  br label %13

; <label>:13:                                     ; preds = %157, %3
  %14 = load i32, i32* @x.119
  %15 = load i32, i32* @y.120
  %16 = add i32 %14, 1233167775
  %17 = sub i32 %16, 1
  %18 = sub i32 %17, 1233167775
  %19 = sub i32 %14, 1
  %20 = mul i32 %14, %18
  %21 = urem i32 %20, 2
  %22 = icmp eq i32 %21, 0
  %23 = icmp slt i32 %15, 10
  %24 = and i1 %22, %23
  %25 = xor i1 %22, %23
  %26 = or i1 %24, %25
  %27 = or i1 %22, %23
  br i1 %26, label %28, label %315

; <label>:28:                                     ; preds = %13, %315
  %29 = load i64, i64* %7, align 8
  %30 = icmp ne i64 %29, -1
  %31 = load i32, i32* @x.119
  %32 = load i32, i32* @y.120
  %33 = sub i32 0, 1
  %34 = add i32 %31, %33
  %35 = sub i32 %31, 1
  %36 = mul i32 %31, %34
  %37 = urem i32 %36, 2
  %38 = icmp eq i32 %37, 0
  %39 = icmp slt i32 %32, 10
  %40 = xor i1 %38, true
  %41 = xor i1 %39, true
  %42 = xor i1 false, true
  %43 = and i1 %40, false
  %44 = and i1 %38, %42
  %45 = and i1 %41, false
  %46 = and i1 %39, %42
  %47 = or i1 %43, %44
  %48 = or i1 %45, %46
  %49 = xor i1 %47, %48
  %50 = or i1 %40, %41
  %51 = xor i1 %50, true
  %52 = or i1 false, %42
  %53 = and i1 %51, %52
  %54 = or i1 %49, %53
  %55 = or i1 %38, %39
  br i1 %54, label %56, label %315

; <label>:56:                                     ; preds = %28
  br i1 %30, label %57, label %162

; <label>:57:                                     ; preds = %56
  invoke void @_ZNSt6vectorIxSaIxEE9push_backERKx(%"class.std::vector.0"* %0, i64* dereferenceable(8) %7)
          to label %58 unwind label %158

; <label>:58:                                     ; preds = %57
  %59 = load i32, i32* @x.119
  %60 = load i32, i32* @y.120
  %61 = sub i32 0, 1
  %62 = add i32 %59, %61
  %63 = sub i32 %59, 1
  %64 = mul i32 %59, %62
  %65 = urem i32 %64, 2
  %66 = icmp eq i32 %65, 0
  %67 = icmp slt i32 %60, 10
  %68 = and i1 %66, %67
  %69 = xor i1 %66, %67
  %70 = or i1 %68, %69
  %71 = or i1 %66, %67
  br i1 %70, label %72, label %318

; <label>:72:                                     ; preds = %58, %318
  %73 = load i32, i32* @x.119
  %74 = load i32, i32* @y.120
  %75 = sub i32 %73, 1812831064
  %76 = sub i32 %75, 1
  %77 = add i32 %76, 1812831064
  %78 = sub i32 %73, 1
  %79 = mul i32 %73, %77
  %80 = urem i32 %79, 2
  %81 = icmp eq i32 %80, 0
  %82 = icmp slt i32 %74, 10
  %83 = xor i1 %81, true
  %84 = xor i1 %82, true
  %85 = xor i1 false, true
  %86 = and i1 %83, false
  %87 = and i1 %81, %85
  %88 = and i1 %84, false
  %89 = and i1 %82, %85
  %90 = or i1 %86, %87
  %91 = or i1 %88, %89
  %92 = xor i1 %90, %91
  %93 = or i1 %83, %84
  %94 = xor i1 %93, true
  %95 = or i1 false, %85
  %96 = and i1 %94, %95
  %97 = or i1 %92, %96
  %98 = or i1 %81, %82
  br i1 %97, label %99, label %318

; <label>:99:                                     ; preds = %72
  br label %100

; <label>:100:                                    ; preds = %99
  %101 = load i32, i32* @x.119
  %102 = load i32, i32* @y.120
  %103 = sub i32 0, 1
  %104 = add i32 %101, %103
  %105 = sub i32 %101, 1
  %106 = mul i32 %101, %104
  %107 = urem i32 %106, 2
  %108 = icmp eq i32 %107, 0
  %109 = icmp slt i32 %102, 10
  %110 = xor i1 %108, true
  %111 = xor i1 %109, true
  %112 = xor i1 false, true
  %113 = and i1 %110, false
  %114 = and i1 %108, %112
  %115 = and i1 %111, false
  %116 = and i1 %109, %112
  %117 = or i1 %113, %114
  %118 = or i1 %115, %116
  %119 = xor i1 %117, %118
  %120 = or i1 %110, %111
  %121 = xor i1 %120, true
  %122 = or i1 false, %112
  %123 = and i1 %121, %122
  %124 = or i1 %119, %123
  %125 = or i1 %108, %109
  br i1 %124, label %126, label %319

; <label>:126:                                    ; preds = %100, %319
  %127 = load %"class.std::vector.0"*, %"class.std::vector.0"** %4, align 8
  %128 = load i64, i64* %7, align 8
  %129 = call dereferenceable(8) i64* @_ZNKSt6vectorIxSaIxEEixEm(%"class.std::vector.0"* %127, i64 %128) #3
  %130 = load i64, i64* %129, align 8
  store i64 %130, i64* %7, align 8
  %131 = load i32, i32* @x.119
  %132 = load i32, i32* @y.120
  %133 = add i32 %131, -1582700660
  %134 = sub i32 %133, 1
  %135 = sub i32 %134, -1582700660
  %136 = sub i32 %131, 1
  %137 = mul i32 %131, %135
  %138 = urem i32 %137, 2
  %139 = icmp eq i32 %138, 0
  %140 = icmp slt i32 %132, 10
  %141 = xor i1 %139, true
  %142 = xor i1 %140, true
  %143 = xor i1 false, true
  %144 = and i1 %141, false
  %145 = and i1 %139, %143
  %146 = and i1 %142, false
  %147 = and i1 %140, %143
  %148 = or i1 %144, %145
  %149 = or i1 %146, %147
  %150 = xor i1 %148, %149
  %151 = or i1 %141, %142
  %152 = xor i1 %151, true
  %153 = or i1 false, %143
  %154 = and i1 %152, %153
  %155 = or i1 %150, %154
  %156 = or i1 %139, %140
  br i1 %155, label %157, label %319

; <label>:157:                                    ; preds = %126
  br label %13

; <label>:158:                                    ; preds = %223, %57
  %159 = landingpad { i8*, i32 }
          cleanup
  %160 = extractvalue { i8*, i32 } %159, 0
  store i8* %160, i8** %8, align 8
  %161 = extractvalue { i8*, i32 } %159, 1
  store i32 %161, i32* %9, align 4
  call void @_ZNSt6vectorIxSaIxEED2Ev(%"class.std::vector.0"* %0) #3
  br label %270

; <label>:162:                                    ; preds = %56
  %163 = load i32, i32* @x.119
  %164 = load i32, i32* @y.120
  %165 = sub i32 0, 1
  %166 = add i32 %163, %165
  %167 = sub i32 %163, 1
  %168 = mul i32 %163, %166
  %169 = urem i32 %168, 2
  %170 = icmp eq i32 %169, 0
  %171 = icmp slt i32 %164, 10
  %172 = xor i1 %170, true
  %173 = xor i1 %171, true
  %174 = xor i1 false, true
  %175 = and i1 %172, false
  %176 = and i1 %170, %174
  %177 = and i1 %173, false
  %178 = and i1 %171, %174
  %179 = or i1 %175, %176
  %180 = or i1 %177, %178
  %181 = xor i1 %179, %180
  %182 = or i1 %172, %173
  %183 = xor i1 %182, true
  %184 = or i1 false, %174
  %185 = and i1 %183, %184
  %186 = or i1 %181, %185
  %187 = or i1 %170, %171
  br i1 %186, label %188, label %324

; <label>:188:                                    ; preds = %162, %324
  %189 = call i64* @_ZNSt6vectorIxSaIxEE5beginEv(%"class.std::vector.0"* %0) #3
  %190 = getelementptr inbounds %"class.__gnu_cxx::__normal_iterator.38", %"class.__gnu_cxx::__normal_iterator.38"* %10, i32 0, i32 0
  store i64* %189, i64** %190, align 8
  %191 = call i64* @_ZNSt6vectorIxSaIxEE3endEv(%"class.std::vector.0"* %0) #3
  %192 = getelementptr inbounds %"class.__gnu_cxx::__normal_iterator.38", %"class.__gnu_cxx::__normal_iterator.38"* %11, i32 0, i32 0
  store i64* %191, i64** %192, align 8
  %193 = getelementptr inbounds %"class.__gnu_cxx::__normal_iterator.38", %"class.__gnu_cxx::__normal_iterator.38"* %10, i32 0, i32 0
  %194 = load i64*, i64** %193, align 8
  %195 = getelementptr inbounds %"class.__gnu_cxx::__normal_iterator.38", %"class.__gnu_cxx::__normal_iterator.38"* %11, i32 0, i32 0
  %196 = load i64*, i64** %195, align 8
  %197 = load i32, i32* @x.119
  %198 = load i32, i32* @y.120
  %199 = add i32 %197, 1904597552
  %200 = sub i32 %199, 1
  %201 = sub i32 %200, 1904597552
  %202 = sub i32 %197, 1
  %203 = mul i32 %197, %201
  %204 = urem i32 %203, 2
  %205 = icmp eq i32 %204, 0
  %206 = icmp slt i32 %198, 10
  %207 = xor i1 %205, true
  %208 = xor i1 %206, true
  %209 = xor i1 true, true
  %210 = and i1 %207, true
  %211 = and i1 %205, %209
  %212 = and i1 %208, true
  %213 = and i1 %206, %209
  %214 = or i1 %210, %211
  %215 = or i1 %212, %213
  %216 = xor i1 %214, %215
  %217 = or i1 %207, %208
  %218 = xor i1 %217, true
  %219 = or i1 true, %209
  %220 = and i1 %218, %219
  %221 = or i1 %216, %220
  %222 = or i1 %205, %206
  br i1 %221, label %223, label %324

; <label>:223:                                    ; preds = %188
  invoke void @_ZSt7reverseIN9__gnu_cxx17__normal_iteratorIPxSt6vectorIxSaIxEEEEEvT_S7_(i64* %194, i64* %196)
          to label %224 unwind label %158

; <label>:224:                                    ; preds = %223
  %225 = load i32, i32* @x.119
  %226 = load i32, i32* @y.120
  %227 = sub i32 %225, -1424009569
  %228 = sub i32 %227, 1
  %229 = add i32 %228, -1424009569
  %230 = sub i32 %225, 1
  %231 = mul i32 %225, %229
  %232 = urem i32 %231, 2
  %233 = icmp eq i32 %232, 0
  %234 = icmp slt i32 %226, 10
  %235 = xor i1 %233, true
  %236 = xor i1 %234, true
  %237 = xor i1 false, true
  %238 = and i1 %235, false
  %239 = and i1 %233, %237
  %240 = and i1 %236, false
  %241 = and i1 %234, %237
  %242 = or i1 %238, %239
  %243 = or i1 %240, %241
  %244 = xor i1 %242, %243
  %245 = or i1 %235, %236
  %246 = xor i1 %245, true
  %247 = or i1 false, %237
  %248 = and i1 %246, %247
  %249 = or i1 %244, %248
  %250 = or i1 %233, %234
  br i1 %249, label %251, label %333

; <label>:251:                                    ; preds = %224, %333
  store i1 true, i1* %6, align 1
  %252 = load i1, i1* %6, align 1
  %253 = load i32, i32* @x.119
  %254 = load i32, i32* @y.120
  %255 = sub i32 %253, -2075090124
  %256 = sub i32 %255, 1
  %257 = add i32 %256, -2075090124
  %258 = sub i32 %253, 1
  %259 = mul i32 %253, %257
  %260 = urem i32 %259, 2
  %261 = icmp eq i32 %260, 0
  %262 = icmp slt i32 %254, 10
  %263 = and i1 %261, %262
  %264 = xor i1 %261, %262
  %265 = or i1 %263, %264
  %266 = or i1 %261, %262
  br i1 %265, label %267, label %333

; <label>:267:                                    ; preds = %251
  br i1 %252, label %269, label %268

; <label>:268:                                    ; preds = %267
  call void @_ZNSt6vectorIxSaIxEED2Ev(%"class.std::vector.0"* %0) #3
  br label %269

; <label>:269:                                    ; preds = %268, %267
  ret void

; <label>:270:                                    ; preds = %158
  %271 = load i32, i32* @x.119
  %272 = load i32, i32* @y.120
  %273 = sub i32 0, 1
  %274 = add i32 %271, %273
  %275 = sub i32 %271, 1
  %276 = mul i32 %271, %274
  %277 = urem i32 %276, 2
  %278 = icmp eq i32 %277, 0
  %279 = icmp slt i32 %272, 10
  %280 = and i1 %278, %279
  %281 = xor i1 %278, %279
  %282 = or i1 %280, %281
  %283 = or i1 %278, %279
  br i1 %282, label %284, label %335

; <label>:284:                                    ; preds = %270, %335
  %285 = load i8*, i8** %8, align 8
  %286 = load i32, i32* %9, align 4
  %287 = insertvalue { i8*, i32 } undef, i8* %285, 0
  %288 = insertvalue { i8*, i32 } %287, i32 %286, 1
  %289 = load i32, i32* @x.119
  %290 = load i32, i32* @y.120
  %291 = sub i32 0, 1
  %292 = add i32 %289, %291
  %293 = sub i32 %289, 1
  %294 = mul i32 %289, %292
  %295 = urem i32 %294, 2
  %296 = icmp eq i32 %295, 0
  %297 = icmp slt i32 %290, 10
  %298 = xor i1 %296, true
  %299 = xor i1 %297, true
  %300 = xor i1 false, true
  %301 = and i1 %298, false
  %302 = and i1 %296, %300
  %303 = and i1 %299, false
  %304 = and i1 %297, %300
  %305 = or i1 %301, %302
  %306 = or i1 %303, %304
  %307 = xor i1 %305, %306
  %308 = or i1 %298, %299
  %309 = xor i1 %308, true
  %310 = or i1 false, %300
  %311 = and i1 %309, %310
  %312 = or i1 %307, %311
  %313 = or i1 %296, %297
  br i1 %312, label %314, label %335

; <label>:314:                                    ; preds = %284
  resume { i8*, i32 } %288

; <label>:315:                                    ; preds = %28, %13
  %316 = load i64, i64* %7, align 8
  %317 = icmp ne i64 %316, -1
  br label %28

; <label>:318:                                    ; preds = %72, %58
  br label %72

; <label>:319:                                    ; preds = %126, %100
  %320 = load %"class.std::vector.0"*, %"class.std::vector.0"** %4, align 8
  %321 = load i64, i64* %7, align 8
  %322 = call dereferenceable(8) i64* @_ZNKSt6vectorIxSaIxEEixEm(%"class.std::vector.0"* %320, i64 %321) #3
  %323 = load i64, i64* %322, align 8
  store i64 %323, i64* %7, align 8
  br label %126

; <label>:324:                                    ; preds = %188, %162
  %325 = call i64* @_ZNSt6vectorIxSaIxEE5beginEv(%"class.std::vector.0"* %0) #3
  %326 = getelementptr inbounds %"class.__gnu_cxx::__normal_iterator.38", %"class.__gnu_cxx::__normal_iterator.38"* %10, i32 0, i32 0
  store i64* %325, i64** %326, align 8
  %327 = call i64* @_ZNSt6vectorIxSaIxEE3endEv(%"class.std::vector.0"* %0) #3
  %328 = getelementptr inbounds %"class.__gnu_cxx::__normal_iterator.38", %"class.__gnu_cxx::__normal_iterator.38"* %11, i32 0, i32 0
  store i64* %327, i64** %328, align 8
  %329 = getelementptr inbounds %"class.__gnu_cxx::__normal_iterator.38", %"class.__gnu_cxx::__normal_iterator.38"* %10, i32 0, i32 0
  %330 = load i64*, i64** %329, align 8
  %331 = getelementptr inbounds %"class.__gnu_cxx::__normal_iterator.38", %"class.__gnu_cxx::__normal_iterator.38"* %11, i32 0, i32 0
  %332 = load i64*, i64** %331, align 8
  br label %188

; <label>:333:                                    ; preds = %251, %224
  store i1 true, i1* %6, align 1
  %334 = load i1, i1* %6, align 1
  br label %251

; <label>:335:                                    ; preds = %284, %270
  %336 = load i8*, i8** %8, align 8
  %337 = load i32, i32* %9, align 4
  %338 = insertvalue { i8*, i32 } undef, i8* %336, 0
  %339 = insertvalue { i8*, i32 } %338, i32 %337, 1
  br label %284
}

; Function Attrs: noinline nounwind uwtable
define linkonce_odr void @_ZNSt6vectorIxSaIxEEC2Ev(%"class.std::vector.0"*) unnamed_addr #4 comdat align 2 personality i8* bitcast (i32 (...)* @__gxx_personality_v0 to i8*) {
  %2 = alloca %"class.std::vector.0"*, align 8
  store %"class.std::vector.0"* %0, %"class.std::vector.0"** %2, align 8
  %3 = load %"class.std::vector.0"*, %"class.std::vector.0"** %2, align 8
  %4 = bitcast %"class.std::vector.0"* %3 to %"struct.std::_Vector_base.1"*
  invoke void @_ZNSt12_Vector_baseIxSaIxEEC2Ev(%"struct.std::_Vector_base.1"* %4)
          to label %5 unwind label %6

; <label>:5:                                      ; preds = %1
  ret void

; <label>:6:                                      ; preds = %1
  %7 = load i32, i32* @x.121
  %8 = load i32, i32* @y.122
  %9 = sub i32 %7, 721369655
  %10 = sub i32 %9, 1
  %11 = add i32 %10, 721369655
  %12 = sub i32 %7, 1
  %13 = mul i32 %7, %11
  %14 = urem i32 %13, 2
  %15 = icmp eq i32 %14, 0
  %16 = icmp slt i32 %8, 10
  %17 = and i1 %15, %16
  %18 = xor i1 %15, %16
  %19 = or i1 %17, %18
  %20 = or i1 %15, %16
  br i1 %19, label %21, label %51

; <label>:21:                                     ; preds = %6, %51
  %22 = landingpad { i8*, i32 }
          catch i8* null
  %23 = extractvalue { i8*, i32 } %22, 0
  call void @__clang_call_terminate(i8* %23) #12
  %24 = load i32, i32* @x.121
  %25 = load i32, i32* @y.122
  %26 = sub i32 %24, 290683344
  %27 = sub i32 %26, 1
  %28 = add i32 %27, 290683344
  %29 = sub i32 %24, 1
  %30 = mul i32 %24, %28
  %31 = urem i32 %30, 2
  %32 = icmp eq i32 %31, 0
  %33 = icmp slt i32 %25, 10
  %34 = xor i1 %32, true
  %35 = xor i1 %33, true
  %36 = xor i1 false, true
  %37 = and i1 %34, false
  %38 = and i1 %32, %36
  %39 = and i1 %35, false
  %40 = and i1 %33, %36
  %41 = or i1 %37, %38
  %42 = or i1 %39, %40
  %43 = xor i1 %41, %42
  %44 = or i1 %34, %35
  %45 = xor i1 %44, true
  %46 = or i1 false, %36
  %47 = and i1 %45, %46
  %48 = or i1 %43, %47
  %49 = or i1 %32, %33
  br i1 %48, label %50, label %51

; <label>:50:                                     ; preds = %21
  unreachable

; <label>:51:                                     ; preds = %21, %6
  %52 = landingpad { i8*, i32 }
          catch i8* null
  %53 = extractvalue { i8*, i32 } %52, 0
  call void @__clang_call_terminate(i8* %53) #12
  br label %21
}

; Function Attrs: noinline nounwind uwtable
define linkonce_odr dereferenceable(8) i64* @_ZNKSt6vectorIxSaIxEEixEm(%"class.std::vector.0"*, i64) #4 comdat align 2 {
  %3 = alloca i64*
  %4 = alloca i1
  %5 = alloca i1
  %6 = load i32, i32* @x.123
  %7 = load i32, i32* @y.124
  %8 = add i32 %6, -2001874099
  %9 = sub i32 %8, 1
  %10 = sub i32 %9, -2001874099
  %11 = sub i32 %6, 1
  %12 = mul i32 %6, %10
  %13 = urem i32 %12, 2
  %14 = icmp eq i32 %13, 0
  store i1 %14, i1* %5
  %15 = icmp slt i32 %7, 10
  store i1 %15, i1* %4
  %16 = alloca i32
  store i32 2047861312, i32* %16
  br label %17

; <label>:17:                                     ; preds = %2, %65
  %18 = load i32, i32* %16
  switch i32 %18, label %19 [
    i32 2047861312, label %20
    i32 -292728692, label %28
    i32 -142817082, label %53
    i32 -232248944, label %55
  ]

; <label>:19:                                     ; preds = %17
  br label %65

; <label>:20:                                     ; preds = %17
  %21 = load volatile i1, i1* %5
  %22 = load volatile i1, i1* %4
  %23 = and i1 %21, %22
  %24 = xor i1 %21, %22
  %25 = or i1 %23, %24
  %26 = or i1 %21, %22
  %27 = select i1 %25, i32 -292728692, i32 -232248944
  store i32 %27, i32* %16
  br label %65

; <label>:28:                                     ; preds = %17
  %29 = alloca %"class.std::vector.0"*, align 8
  %30 = alloca i64, align 8
  store %"class.std::vector.0"* %0, %"class.std::vector.0"** %29, align 8
  store i64 %1, i64* %30, align 8
  %31 = load %"class.std::vector.0"*, %"class.std::vector.0"** %29, align 8
  %32 = bitcast %"class.std::vector.0"* %31 to %"struct.std::_Vector_base.1"*
  %33 = getelementptr inbounds %"struct.std::_Vector_base.1", %"struct.std::_Vector_base.1"* %32, i32 0, i32 0
  %34 = getelementptr inbounds %"struct.std::_Vector_base<long long, std::allocator<long long> >::_Vector_impl", %"struct.std::_Vector_base<long long, std::allocator<long long> >::_Vector_impl"* %33, i32 0, i32 0
  %35 = load i64*, i64** %34, align 8
  %36 = load i64, i64* %30, align 8
  %37 = getelementptr inbounds i64, i64* %35, i64 %36
  store i64* %37, i64** %3
  %38 = load i32, i32* @x.123
  %39 = load i32, i32* @y.124
  %40 = add i32 %38, -1479889540
  %41 = sub i32 %40, 1
  %42 = sub i32 %41, -1479889540
  %43 = sub i32 %38, 1
  %44 = mul i32 %38, %42
  %45 = urem i32 %44, 2
  %46 = icmp eq i32 %45, 0
  %47 = icmp slt i32 %39, 10
  %48 = and i1 %46, %47
  %49 = xor i1 %46, %47
  %50 = or i1 %48, %49
  %51 = or i1 %46, %47
  %52 = select i1 %50, i32 -142817082, i32 -232248944
  store i32 %52, i32* %16
  br label %65

; <label>:53:                                     ; preds = %17
  %54 = load volatile i64*, i64** %3
  ret i64* %54

; <label>:55:                                     ; preds = %17
  %56 = alloca %"class.std::vector.0"*, align 8
  %57 = alloca i64, align 8
  store %"class.std::vector.0"* %0, %"class.std::vector.0"** %56, align 8
  store i64 %1, i64* %57, align 8
  %58 = load %"class.std::vector.0"*, %"class.std::vector.0"** %56, align 8
  %59 = bitcast %"class.std::vector.0"* %58 to %"struct.std::_Vector_base.1"*
  %60 = getelementptr inbounds %"struct.std::_Vector_base.1", %"struct.std::_Vector_base.1"* %59, i32 0, i32 0
  %61 = getelementptr inbounds %"struct.std::_Vector_base<long long, std::allocator<long long> >::_Vector_impl", %"struct.std::_Vector_base<long long, std::allocator<long long> >::_Vector_impl"* %60, i32 0, i32 0
  %62 = load i64*, i64** %61, align 8
  %63 = load i64, i64* %57, align 8
  %64 = getelementptr inbounds i64, i64* %62, i64 %63
  store i32 -292728692, i32* %16
  br label %65

; <label>:65:                                     ; preds = %55, %28, %20, %19
  br label %17
}

; Function Attrs: noinline uwtable
define linkonce_odr void @_ZSt7reverseIN9__gnu_cxx17__normal_iteratorIPxSt6vectorIxSaIxEEEEEvT_S7_(i64*, i64*) #0 comdat {
  %3 = alloca i1
  %4 = alloca i1
  %5 = load i32, i32* @x.125
  %6 = load i32, i32* @y.126
  %7 = sub i32 %5, 1588603223
  %8 = sub i32 %7, 1
  %9 = add i32 %8, 1588603223
  %10 = sub i32 %5, 1
  %11 = mul i32 %5, %9
  %12 = urem i32 %11, 2
  %13 = icmp eq i32 %12, 0
  store i1 %13, i1* %4
  %14 = icmp slt i32 %6, 10
  store i1 %14, i1* %3
  %15 = alloca i32
  store i32 391839110, i32* %15
  br label %16

; <label>:16:                                     ; preds = %2, %77
  %17 = load i32, i32* %15
  switch i32 %17, label %18 [
    i32 391839110, label %19
    i32 1950940146, label %27
    i32 -483087228, label %59
    i32 19170187, label %60
  ]

; <label>:18:                                     ; preds = %16
  br label %77

; <label>:19:                                     ; preds = %16
  %20 = load volatile i1, i1* %4
  %21 = load volatile i1, i1* %3
  %22 = and i1 %20, %21
  %23 = xor i1 %20, %21
  %24 = or i1 %22, %23
  %25 = or i1 %20, %21
  %26 = select i1 %24, i32 1950940146, i32 19170187
  store i32 %26, i32* %15
  br label %77

; <label>:27:                                     ; preds = %16
  %28 = alloca %"class.__gnu_cxx::__normal_iterator.38", align 8
  %29 = alloca %"class.__gnu_cxx::__normal_iterator.38", align 8
  %30 = alloca %"class.__gnu_cxx::__normal_iterator.38", align 8
  %31 = alloca %"class.__gnu_cxx::__normal_iterator.38", align 8
  %32 = alloca %"struct.std::random_access_iterator_tag", align 1
  %33 = alloca %"struct.std::random_access_iterator_tag", align 1
  %34 = getelementptr inbounds %"class.__gnu_cxx::__normal_iterator.38", %"class.__gnu_cxx::__normal_iterator.38"* %28, i32 0, i32 0
  store i64* %0, i64** %34, align 8
  %35 = getelementptr inbounds %"class.__gnu_cxx::__normal_iterator.38", %"class.__gnu_cxx::__normal_iterator.38"* %29, i32 0, i32 0
  store i64* %1, i64** %35, align 8
  %36 = bitcast %"class.__gnu_cxx::__normal_iterator.38"* %30 to i8*
  %37 = bitcast %"class.__gnu_cxx::__normal_iterator.38"* %28 to i8*
  call void @llvm.memcpy.p0i8.p0i8.i64(i8* %36, i8* %37, i64 8, i32 8, i1 false)
  %38 = bitcast %"class.__gnu_cxx::__normal_iterator.38"* %31 to i8*
  %39 = bitcast %"class.__gnu_cxx::__normal_iterator.38"* %29 to i8*
  call void @llvm.memcpy.p0i8.p0i8.i64(i8* %38, i8* %39, i64 8, i32 8, i1 false)
  call void @_ZSt19__iterator_categoryIN9__gnu_cxx17__normal_iteratorIPxSt6vectorIxSaIxEEEEENSt15iterator_traitsIT_E17iterator_categoryERKS8_(%"class.__gnu_cxx::__normal_iterator.38"* dereferenceable(8) %28)
  %40 = getelementptr inbounds %"class.__gnu_cxx::__normal_iterator.38", %"class.__gnu_cxx::__normal_iterator.38"* %30, i32 0, i32 0
  %41 = load i64*, i64** %40, align 8
  %42 = getelementptr inbounds %"class.__gnu_cxx::__normal_iterator.38", %"class.__gnu_cxx::__normal_iterator.38"* %31, i32 0, i32 0
  %43 = load i64*, i64** %42, align 8
  call void @_ZSt9__reverseIN9__gnu_cxx17__normal_iteratorIPxSt6vectorIxSaIxEEEEEvT_S7_St26random_access_iterator_tag(i64* %41, i64* %43)
  %44 = load i32, i32* @x.125
  %45 = load i32, i32* @y.126
  %46 = sub i32 %44, 911587747
  %47 = sub i32 %46, 1
  %48 = add i32 %47, 911587747
  %49 = sub i32 %44, 1
  %50 = mul i32 %44, %48
  %51 = urem i32 %50, 2
  %52 = icmp eq i32 %51, 0
  %53 = icmp slt i32 %45, 10
  %54 = and i1 %52, %53
  %55 = xor i1 %52, %53
  %56 = or i1 %54, %55
  %57 = or i1 %52, %53
  %58 = select i1 %56, i32 -483087228, i32 19170187
  store i32 %58, i32* %15
  br label %77

; <label>:59:                                     ; preds = %16
  ret void

; <label>:60:                                     ; preds = %16
  %61 = alloca %"class.__gnu_cxx::__normal_iterator.38", align 8
  %62 = alloca %"class.__gnu_cxx::__normal_iterator.38", align 8
  %63 = alloca %"class.__gnu_cxx::__normal_iterator.38", align 8
  %64 = alloca %"class.__gnu_cxx::__normal_iterator.38", align 8
  %65 = alloca %"struct.std::random_access_iterator_tag", align 1
  %66 = alloca %"struct.std::random_access_iterator_tag", align 1
  %67 = getelementptr inbounds %"class.__gnu_cxx::__normal_iterator.38", %"class.__gnu_cxx::__normal_iterator.38"* %61, i32 0, i32 0
  store i64* %0, i64** %67, align 8
  %68 = getelementptr inbounds %"class.__gnu_cxx::__normal_iterator.38", %"class.__gnu_cxx::__normal_iterator.38"* %62, i32 0, i32 0
  store i64* %1, i64** %68, align 8
  %69 = bitcast %"class.__gnu_cxx::__normal_iterator.38"* %63 to i8*
  %70 = bitcast %"class.__gnu_cxx::__normal_iterator.38"* %61 to i8*
  call void @llvm.memcpy.p0i8.p0i8.i64(i8* %69, i8* %70, i64 8, i32 8, i1 false)
  %71 = bitcast %"class.__gnu_cxx::__normal_iterator.38"* %64 to i8*
  %72 = bitcast %"class.__gnu_cxx::__normal_iterator.38"* %62 to i8*
  call void @llvm.memcpy.p0i8.p0i8.i64(i8* %71, i8* %72, i64 8, i32 8, i1 false)
  call void @_ZSt19__iterator_categoryIN9__gnu_cxx17__normal_iteratorIPxSt6vectorIxSaIxEEEEENSt15iterator_traitsIT_E17iterator_categoryERKS8_(%"class.__gnu_cxx::__normal_iterator.38"* dereferenceable(8) %61)
  %73 = getelementptr inbounds %"class.__gnu_cxx::__normal_iterator.38", %"class.__gnu_cxx::__normal_iterator.38"* %63, i32 0, i32 0
  %74 = load i64*, i64** %73, align 8
  %75 = getelementptr inbounds %"class.__gnu_cxx::__normal_iterator.38", %"class.__gnu_cxx::__normal_iterator.38"* %64, i32 0, i32 0
  %76 = load i64*, i64** %75, align 8
  call void @_ZSt9__reverseIN9__gnu_cxx17__normal_iteratorIPxSt6vectorIxSaIxEEEEEvT_S7_St26random_access_iterator_tag(i64* %74, i64* %76)
  store i32 1950940146, i32* %15
  br label %77

; <label>:77:                                     ; preds = %60, %27, %19, %18
  br label %16
}

; Function Attrs: noinline nounwind uwtable
define linkonce_odr i64* @_ZNSt6vectorIxSaIxEE5beginEv(%"class.std::vector.0"*) #4 comdat align 2 {
  %2 = alloca %"class.__gnu_cxx::__normal_iterator.38", align 8
  %3 = alloca %"class.std::vector.0"*, align 8
  store %"class.std::vector.0"* %0, %"class.std::vector.0"** %3, align 8
  %4 = load %"class.std::vector.0"*, %"class.std::vector.0"** %3, align 8
  %5 = bitcast %"class.std::vector.0"* %4 to %"struct.std::_Vector_base.1"*
  %6 = getelementptr inbounds %"struct.std::_Vector_base.1", %"struct.std::_Vector_base.1"* %5, i32 0, i32 0
  %7 = getelementptr inbounds %"struct.std::_Vector_base<long long, std::allocator<long long> >::_Vector_impl", %"struct.std::_Vector_base<long long, std::allocator<long long> >::_Vector_impl"* %6, i32 0, i32 0
  call void @_ZN9__gnu_cxx17__normal_iteratorIPxSt6vectorIxSaIxEEEC2ERKS1_(%"class.__gnu_cxx::__normal_iterator.38"* %2, i64** dereferenceable(8) %7) #3
  %8 = getelementptr inbounds %"class.__gnu_cxx::__normal_iterator.38", %"class.__gnu_cxx::__normal_iterator.38"* %2, i32 0, i32 0
  %9 = load i64*, i64** %8, align 8
  ret i64* %9
}

; Function Attrs: noinline nounwind uwtable
define linkonce_odr i64* @_ZNSt6vectorIxSaIxEE3endEv(%"class.std::vector.0"*) #4 comdat align 2 {
  %2 = alloca i64*
  %3 = alloca i1
  %4 = alloca i1
  %5 = load i32, i32* @x.129
  %6 = load i32, i32* @y.130
  %7 = add i32 %5, -1388603452
  %8 = sub i32 %7, 1
  %9 = sub i32 %8, -1388603452
  %10 = sub i32 %5, 1
  %11 = mul i32 %5, %9
  %12 = urem i32 %11, 2
  %13 = icmp eq i32 %12, 0
  store i1 %13, i1* %4
  %14 = icmp slt i32 %6, 10
  store i1 %14, i1* %3
  %15 = alloca i32
  store i32 -236931437, i32* %15
  br label %16

; <label>:16:                                     ; preds = %1, %62
  %17 = load i32, i32* %15
  switch i32 %17, label %18 [
    i32 -236931437, label %19
    i32 1111009446, label %27
    i32 1573236688, label %51
    i32 1836491476, label %53
  ]

; <label>:18:                                     ; preds = %16
  br label %62

; <label>:19:                                     ; preds = %16
  %20 = load volatile i1, i1* %4
  %21 = load volatile i1, i1* %3
  %22 = and i1 %20, %21
  %23 = xor i1 %20, %21
  %24 = or i1 %22, %23
  %25 = or i1 %20, %21
  %26 = select i1 %24, i32 1111009446, i32 1836491476
  store i32 %26, i32* %15
  br label %62

; <label>:27:                                     ; preds = %16
  %28 = alloca %"class.__gnu_cxx::__normal_iterator.38", align 8
  %29 = alloca %"class.std::vector.0"*, align 8
  store %"class.std::vector.0"* %0, %"class.std::vector.0"** %29, align 8
  %30 = load %"class.std::vector.0"*, %"class.std::vector.0"** %29, align 8
  %31 = bitcast %"class.std::vector.0"* %30 to %"struct.std::_Vector_base.1"*
  %32 = getelementptr inbounds %"struct.std::_Vector_base.1", %"struct.std::_Vector_base.1"* %31, i32 0, i32 0
  %33 = getelementptr inbounds %"struct.std::_Vector_base<long long, std::allocator<long long> >::_Vector_impl", %"struct.std::_Vector_base<long long, std::allocator<long long> >::_Vector_impl"* %32, i32 0, i32 1
  call void @_ZN9__gnu_cxx17__normal_iteratorIPxSt6vectorIxSaIxEEEC2ERKS1_(%"class.__gnu_cxx::__normal_iterator.38"* %28, i64** dereferenceable(8) %33) #3
  %34 = getelementptr inbounds %"class.__gnu_cxx::__normal_iterator.38", %"class.__gnu_cxx::__normal_iterator.38"* %28, i32 0, i32 0
  %35 = load i64*, i64** %34, align 8
  store i64* %35, i64** %2
  %36 = load i32, i32* @x.129
  %37 = load i32, i32* @y.130
  %38 = add i32 %36, -1766582057
  %39 = sub i32 %38, 1
  %40 = sub i32 %39, -1766582057
  %41 = sub i32 %36, 1
  %42 = mul i32 %36, %40
  %43 = urem i32 %42, 2
  %44 = icmp eq i32 %43, 0
  %45 = icmp slt i32 %37, 10
  %46 = and i1 %44, %45
  %47 = xor i1 %44, %45
  %48 = or i1 %46, %47
  %49 = or i1 %44, %45
  %50 = select i1 %48, i32 1573236688, i32 1836491476
  store i32 %50, i32* %15
  br label %62

; <label>:51:                                     ; preds = %16
  %52 = load volatile i64*, i64** %2
  ret i64* %52

; <label>:53:                                     ; preds = %16
  %54 = alloca %"class.__gnu_cxx::__normal_iterator.38", align 8
  %55 = alloca %"class.std::vector.0"*, align 8
  store %"class.std::vector.0"* %0, %"class.std::vector.0"** %55, align 8
  %56 = load %"class.std::vector.0"*, %"class.std::vector.0"** %55, align 8
  %57 = bitcast %"class.std::vector.0"* %56 to %"struct.std::_Vector_base.1"*
  %58 = getelementptr inbounds %"struct.std::_Vector_base.1", %"struct.std::_Vector_base.1"* %57, i32 0, i32 0
  %59 = getelementptr inbounds %"struct.std::_Vector_base<long long, std::allocator<long long> >::_Vector_impl", %"struct.std::_Vector_base<long long, std::allocator<long long> >::_Vector_impl"* %58, i32 0, i32 1
  call void @_ZN9__gnu_cxx17__normal_iteratorIPxSt6vectorIxSaIxEEEC2ERKS1_(%"class.__gnu_cxx::__normal_iterator.38"* %54, i64** dereferenceable(8) %59) #3
  %60 = getelementptr inbounds %"class.__gnu_cxx::__normal_iterator.38", %"class.__gnu_cxx::__normal_iterator.38"* %54, i32 0, i32 0
  %61 = load i64*, i64** %60, align 8
  store i32 1111009446, i32* %15
  br label %62

; <label>:62:                                     ; preds = %53, %27, %19, %18
  br label %16
}

; Function Attrs: noinline uwtable
define void @_Z5splitRNSt7__cxx1112basic_stringIcSt11char_traitsIcESaIcEEEc(%"class.std::vector.39"* noalias sret, %"class.std::__cxx11::basic_string"* dereferenceable(32), i8 signext) #0 personality i8* bitcast (i32 (...)* @__gxx_personality_v0 to i8*) {
  %4 = alloca %"class.std::__cxx11::basic_string"*, align 8
  %5 = alloca i8, align 1
  %6 = alloca i1, align 1
  %7 = alloca %"class.std::__cxx11::basic_stringstream", align 8
  %8 = alloca i8*
  %9 = alloca i32
  %10 = alloca %"class.std::__cxx11::basic_string", align 8
  store %"class.std::__cxx11::basic_string"* %1, %"class.std::__cxx11::basic_string"** %4, align 8
  store i8 %2, i8* %5, align 1
  store i1 false, i1* %6, align 1
  call void @_ZNSt6vectorINSt7__cxx1112basic_stringIcSt11char_traitsIcESaIcEEESaIS5_EEC2Ev(%"class.std::vector.39"* %0) #3
  %11 = load %"class.std::__cxx11::basic_string"*, %"class.std::__cxx11::basic_string"** %4, align 8
  %12 = invoke i32 @_ZStorSt13_Ios_OpenmodeS_(i32 16, i32 8)
          to label %13 unwind label %76

; <label>:13:                                     ; preds = %3
  invoke void @_ZNSt7__cxx1118basic_stringstreamIcSt11char_traitsIcESaIcEEC1ERKNS_12basic_stringIcS2_S3_EESt13_Ios_Openmode(%"class.std::__cxx11::basic_stringstream"* %7, %"class.std::__cxx11::basic_string"* dereferenceable(32) %11, i32 %12)
          to label %14 unwind label %76

; <label>:14:                                     ; preds = %13
  call void @_ZNSt7__cxx1112basic_stringIcSt11char_traitsIcESaIcEEC1Ev(%"class.std::__cxx11::basic_string"* %10) #3
  br label %15

; <label>:15:                                     ; preds = %179, %14
  %16 = load i32, i32* @x.131
  %17 = load i32, i32* @y.132
  %18 = add i32 %16, 1837577768
  %19 = sub i32 %18, 1
  %20 = sub i32 %19, 1837577768
  %21 = sub i32 %16, 1
  %22 = mul i32 %16, %20
  %23 = urem i32 %22, 2
  %24 = icmp eq i32 %23, 0
  %25 = icmp slt i32 %17, 10
  %26 = xor i1 %24, true
  %27 = xor i1 %25, true
  %28 = xor i1 true, true
  %29 = and i1 %26, true
  %30 = and i1 %24, %28
  %31 = and i1 %27, true
  %32 = and i1 %25, %28
  %33 = or i1 %29, %30
  %34 = or i1 %31, %32
  %35 = xor i1 %33, %34
  %36 = or i1 %26, %27
  %37 = xor i1 %36, true
  %38 = or i1 true, %28
  %39 = and i1 %37, %38
  %40 = or i1 %35, %39
  %41 = or i1 %24, %25
  br i1 %40, label %42, label %232

; <label>:42:                                     ; preds = %15, %232
  %43 = bitcast %"class.std::__cxx11::basic_stringstream"* %7 to %"class.std::basic_istream"*
  %44 = load i8, i8* %5, align 1
  %45 = load i32, i32* @x.131
  %46 = load i32, i32* @y.132
  %47 = add i32 %45, 76829827
  %48 = sub i32 %47, 1
  %49 = sub i32 %48, 76829827
  %50 = sub i32 %45, 1
  %51 = mul i32 %45, %49
  %52 = urem i32 %51, 2
  %53 = icmp eq i32 %52, 0
  %54 = icmp slt i32 %46, 10
  %55 = and i1 %53, %54
  %56 = xor i1 %53, %54
  %57 = or i1 %55, %56
  %58 = or i1 %53, %54
  br i1 %57, label %59, label %232

; <label>:59:                                     ; preds = %42
  %60 = invoke dereferenceable(280) %"class.std::basic_istream"* @_ZSt7getlineIcSt11char_traitsIcESaIcEERSt13basic_istreamIT_T0_ES7_RNSt7__cxx1112basic_stringIS4_S5_T1_EES4_(%"class.std::basic_istream"* dereferenceable(280) %43, %"class.std::__cxx11::basic_string"* dereferenceable(32) %10, i8 signext %44)
          to label %61 unwind label %80

; <label>:61:                                     ; preds = %59
  %62 = bitcast %"class.std::basic_istream"* %60 to i8**
  %63 = load i8*, i8** %62, align 8
  %64 = getelementptr i8, i8* %63, i64 -24
  %65 = bitcast i8* %64 to i64*
  %66 = load i64, i64* %65, align 8
  %67 = bitcast %"class.std::basic_istream"* %60 to i8*
  %68 = getelementptr inbounds i8, i8* %67, i64 %66
  %69 = bitcast i8* %68 to %"class.std::basic_ios"*
  %70 = invoke zeroext i1 @_ZNKSt9basic_iosIcSt11char_traitsIcEEcvbEv(%"class.std::basic_ios"* %69)
          to label %71 unwind label %80

; <label>:71:                                     ; preds = %61
  br i1 %70, label %72, label %180

; <label>:72:                                     ; preds = %71
  %73 = call zeroext i1 @_ZNKSt7__cxx1112basic_stringIcSt11char_traitsIcESaIcEE5emptyEv(%"class.std::__cxx11::basic_string"* %10) #3
  br i1 %73, label %125, label %74

; <label>:74:                                     ; preds = %72
  invoke void @_ZNSt6vectorINSt7__cxx1112basic_stringIcSt11char_traitsIcESaIcEEESaIS5_EE9push_backERKS5_(%"class.std::vector.39"* %0, %"class.std::__cxx11::basic_string"* dereferenceable(32) %10)
          to label %75 unwind label %80

; <label>:75:                                     ; preds = %74
  br label %125

; <label>:76:                                     ; preds = %13, %3
  %77 = landingpad { i8*, i32 }
          cleanup
  %78 = extractvalue { i8*, i32 } %77, 0
  store i8* %78, i8** %8, align 8
  %79 = extractvalue { i8*, i32 } %77, 1
  store i32 %79, i32* %9, align 4
  br label %184

; <label>:80:                                     ; preds = %74, %61, %59
  %81 = load i32, i32* @x.131
  %82 = load i32, i32* @y.132
  %83 = sub i32 %81, -885468951
  %84 = sub i32 %83, 1
  %85 = add i32 %84, -885468951
  %86 = sub i32 %81, 1
  %87 = mul i32 %81, %85
  %88 = urem i32 %87, 2
  %89 = icmp eq i32 %88, 0
  %90 = icmp slt i32 %82, 10
  %91 = xor i1 %89, true
  %92 = xor i1 %90, true
  %93 = xor i1 true, true
  %94 = and i1 %91, true
  %95 = and i1 %89, %93
  %96 = and i1 %92, true
  %97 = and i1 %90, %93
  %98 = or i1 %94, %95
  %99 = or i1 %96, %97
  %100 = xor i1 %98, %99
  %101 = or i1 %91, %92
  %102 = xor i1 %101, true
  %103 = or i1 true, %93
  %104 = and i1 %102, %103
  %105 = or i1 %100, %104
  %106 = or i1 %89, %90
  br i1 %105, label %107, label %235

; <label>:107:                                    ; preds = %80, %235
  %108 = landingpad { i8*, i32 }
          cleanup
  %109 = extractvalue { i8*, i32 } %108, 0
  store i8* %109, i8** %8, align 8
  %110 = extractvalue { i8*, i32 } %108, 1
  store i32 %110, i32* %9, align 4
  call void @_ZNSt7__cxx1112basic_stringIcSt11char_traitsIcESaIcEED1Ev(%"class.std::__cxx11::basic_string"* %10) #3
  call void @_ZNSt7__cxx1118basic_stringstreamIcSt11char_traitsIcESaIcEED1Ev(%"class.std::__cxx11::basic_stringstream"* %7) #3
  %111 = load i32, i32* @x.131
  %112 = load i32, i32* @y.132
  %113 = sub i32 0, 1
  %114 = add i32 %111, %113
  %115 = sub i32 %111, 1
  %116 = mul i32 %111, %114
  %117 = urem i32 %116, 2
  %118 = icmp eq i32 %117, 0
  %119 = icmp slt i32 %112, 10
  %120 = and i1 %118, %119
  %121 = xor i1 %118, %119
  %122 = or i1 %120, %121
  %123 = or i1 %118, %119
  br i1 %122, label %124, label %235

; <label>:124:                                    ; preds = %107
  br label %184

; <label>:125:                                    ; preds = %75, %72
  %126 = load i32, i32* @x.131
  %127 = load i32, i32* @y.132
  %128 = add i32 %126, -410938379
  %129 = sub i32 %128, 1
  %130 = sub i32 %129, -410938379
  %131 = sub i32 %126, 1
  %132 = mul i32 %126, %130
  %133 = urem i32 %132, 2
  %134 = icmp eq i32 %133, 0
  %135 = icmp slt i32 %127, 10
  %136 = xor i1 %134, true
  %137 = xor i1 %135, true
  %138 = xor i1 false, true
  %139 = and i1 %136, false
  %140 = and i1 %134, %138
  %141 = and i1 %137, false
  %142 = and i1 %135, %138
  %143 = or i1 %139, %140
  %144 = or i1 %141, %142
  %145 = xor i1 %143, %144
  %146 = or i1 %136, %137
  %147 = xor i1 %146, true
  %148 = or i1 false, %138
  %149 = and i1 %147, %148
  %150 = or i1 %145, %149
  %151 = or i1 %134, %135
  br i1 %150, label %152, label %239

; <label>:152:                                    ; preds = %125, %239
  %153 = load i32, i32* @x.131
  %154 = load i32, i32* @y.132
  %155 = add i32 %153, -191440085
  %156 = sub i32 %155, 1
  %157 = sub i32 %156, -191440085
  %158 = sub i32 %153, 1
  %159 = mul i32 %153, %157
  %160 = urem i32 %159, 2
  %161 = icmp eq i32 %160, 0
  %162 = icmp slt i32 %154, 10
  %163 = xor i1 %161, true
  %164 = xor i1 %162, true
  %165 = xor i1 false, true
  %166 = and i1 %163, false
  %167 = and i1 %161, %165
  %168 = and i1 %164, false
  %169 = and i1 %162, %165
  %170 = or i1 %166, %167
  %171 = or i1 %168, %169
  %172 = xor i1 %170, %171
  %173 = or i1 %163, %164
  %174 = xor i1 %173, true
  %175 = or i1 false, %165
  %176 = and i1 %174, %175
  %177 = or i1 %172, %176
  %178 = or i1 %161, %162
  br i1 %177, label %179, label %239

; <label>:179:                                    ; preds = %152
  br label %15

; <label>:180:                                    ; preds = %71
  store i1 true, i1* %6, align 1
  call void @_ZNSt7__cxx1112basic_stringIcSt11char_traitsIcESaIcEED1Ev(%"class.std::__cxx11::basic_string"* %10) #3
  call void @_ZNSt7__cxx1118basic_stringstreamIcSt11char_traitsIcESaIcEED1Ev(%"class.std::__cxx11::basic_stringstream"* %7) #3
  %181 = load i1, i1* %6, align 1
  br i1 %181, label %183, label %182

; <label>:182:                                    ; preds = %180
  call void @_ZNSt6vectorINSt7__cxx1112basic_stringIcSt11char_traitsIcESaIcEEESaIS5_EED2Ev(%"class.std::vector.39"* %0) #3
  br label %183

; <label>:183:                                    ; preds = %182, %180
  ret void

; <label>:184:                                    ; preds = %124, %76
  %185 = load i32, i32* @x.131
  %186 = load i32, i32* @y.132
  %187 = sub i32 %185, 1500621025
  %188 = sub i32 %187, 1
  %189 = add i32 %188, 1500621025
  %190 = sub i32 %185, 1
  %191 = mul i32 %185, %189
  %192 = urem i32 %191, 2
  %193 = icmp eq i32 %192, 0
  %194 = icmp slt i32 %186, 10
  %195 = xor i1 %193, true
  %196 = xor i1 %194, true
  %197 = xor i1 false, true
  %198 = and i1 %195, false
  %199 = and i1 %193, %197
  %200 = and i1 %196, false
  %201 = and i1 %194, %197
  %202 = or i1 %198, %199
  %203 = or i1 %200, %201
  %204 = xor i1 %202, %203
  %205 = or i1 %195, %196
  %206 = xor i1 %205, true
  %207 = or i1 false, %197
  %208 = and i1 %206, %207
  %209 = or i1 %204, %208
  %210 = or i1 %193, %194
  br i1 %209, label %211, label %240

; <label>:211:                                    ; preds = %184, %240
  call void @_ZNSt6vectorINSt7__cxx1112basic_stringIcSt11char_traitsIcESaIcEEESaIS5_EED2Ev(%"class.std::vector.39"* %0) #3
  %212 = load i32, i32* @x.131
  %213 = load i32, i32* @y.132
  %214 = sub i32 %212, 892949025
  %215 = sub i32 %214, 1
  %216 = add i32 %215, 892949025
  %217 = sub i32 %212, 1
  %218 = mul i32 %212, %216
  %219 = urem i32 %218, 2
  %220 = icmp eq i32 %219, 0
  %221 = icmp slt i32 %213, 10
  %222 = and i1 %220, %221
  %223 = xor i1 %220, %221
  %224 = or i1 %222, %223
  %225 = or i1 %220, %221
  br i1 %224, label %226, label %240

; <label>:226:                                    ; preds = %211
  br label %227

; <label>:227:                                    ; preds = %226
  %228 = load i8*, i8** %8, align 8
  %229 = load i32, i32* %9, align 4
  %230 = insertvalue { i8*, i32 } undef, i8* %228, 0
  %231 = insertvalue { i8*, i32 } %230, i32 %229, 1
  resume { i8*, i32 } %231

; <label>:232:                                    ; preds = %42, %15
  %233 = bitcast %"class.std::__cxx11::basic_stringstream"* %7 to %"class.std::basic_istream"*
  %234 = load i8, i8* %5, align 1
  br label %42

; <label>:235:                                    ; preds = %107, %80
  %236 = landingpad { i8*, i32 }
          cleanup
  %237 = extractvalue { i8*, i32 } %236, 0
  store i8* %237, i8** %8, align 8
  %238 = extractvalue { i8*, i32 } %236, 1
  store i32 %238, i32* %9, align 4
  call void @_ZNSt7__cxx1112basic_stringIcSt11char_traitsIcESaIcEED1Ev(%"class.std::__cxx11::basic_string"* %10) #3
  call void @_ZNSt7__cxx1118basic_stringstreamIcSt11char_traitsIcESaIcEED1Ev(%"class.std::__cxx11::basic_stringstream"* %7) #3
  br label %107

; <label>:239:                                    ; preds = %152, %125
  br label %152

; <label>:240:                                    ; preds = %211, %184
  call void @_ZNSt6vectorINSt7__cxx1112basic_stringIcSt11char_traitsIcESaIcEEESaIS5_EED2Ev(%"class.std::vector.39"* %0) #3
  br label %211
}

; Function Attrs: noinline nounwind uwtable
define linkonce_odr void @_ZNSt6vectorINSt7__cxx1112basic_stringIcSt11char_traitsIcESaIcEEESaIS5_EEC2Ev(%"class.std::vector.39"*) unnamed_addr #4 comdat align 2 personality i8* bitcast (i32 (...)* @__gxx_personality_v0 to i8*) {
  %2 = alloca %"class.std::vector.39"*, align 8
  store %"class.std::vector.39"* %0, %"class.std::vector.39"** %2, align 8
  %3 = load %"class.std::vector.39"*, %"class.std::vector.39"** %2, align 8
  %4 = bitcast %"class.std::vector.39"* %3 to %"struct.std::_Vector_base.40"*
  invoke void @_ZNSt12_Vector_baseINSt7__cxx1112basic_stringIcSt11char_traitsIcESaIcEEESaIS5_EEC2Ev(%"struct.std::_Vector_base.40"* %4)
          to label %5 unwind label %6

; <label>:5:                                      ; preds = %1
  ret void

; <label>:6:                                      ; preds = %1
  %7 = load i32, i32* @x.133
  %8 = load i32, i32* @y.134
  %9 = sub i32 0, 1
  %10 = add i32 %7, %9
  %11 = sub i32 %7, 1
  %12 = mul i32 %7, %10
  %13 = urem i32 %12, 2
  %14 = icmp eq i32 %13, 0
  %15 = icmp slt i32 %8, 10
  %16 = xor i1 %14, true
  %17 = xor i1 %15, true
  %18 = xor i1 false, true
  %19 = and i1 %16, false
  %20 = and i1 %14, %18
  %21 = and i1 %17, false
  %22 = and i1 %15, %18
  %23 = or i1 %19, %20
  %24 = or i1 %21, %22
  %25 = xor i1 %23, %24
  %26 = or i1 %16, %17
  %27 = xor i1 %26, true
  %28 = or i1 false, %18
  %29 = and i1 %27, %28
  %30 = or i1 %25, %29
  %31 = or i1 %14, %15
  br i1 %30, label %32, label %49

; <label>:32:                                     ; preds = %6, %49
  %33 = landingpad { i8*, i32 }
          catch i8* null
  %34 = extractvalue { i8*, i32 } %33, 0
  call void @__clang_call_terminate(i8* %34) #12
  %35 = load i32, i32* @x.133
  %36 = load i32, i32* @y.134
  %37 = sub i32 0, 1
  %38 = add i32 %35, %37
  %39 = sub i32 %35, 1
  %40 = mul i32 %35, %38
  %41 = urem i32 %40, 2
  %42 = icmp eq i32 %41, 0
  %43 = icmp slt i32 %36, 10
  %44 = and i1 %42, %43
  %45 = xor i1 %42, %43
  %46 = or i1 %44, %45
  %47 = or i1 %42, %43
  br i1 %46, label %48, label %49

; <label>:48:                                     ; preds = %32
  unreachable

; <label>:49:                                     ; preds = %32, %6
  %50 = landingpad { i8*, i32 }
          catch i8* null
  %51 = extractvalue { i8*, i32 } %50, 0
  call void @__clang_call_terminate(i8* %51) #12
  br label %32
}

; Function Attrs: noinline nounwind uwtable
define linkonce_odr i32 @_ZStorSt13_Ios_OpenmodeS_(i32, i32) #4 comdat {
  %3 = alloca i32, align 4
  %4 = alloca i32, align 4
  store i32 %0, i32* %3, align 4
  store i32 %1, i32* %4, align 4
  %5 = load i32, i32* %3, align 4
  %6 = load i32, i32* %4, align 4
  %7 = xor i32 %5, -1
  %8 = xor i32 %6, -1
  %9 = xor i32 1744686599, -1
  %10 = and i32 %7, 1744686599
  %11 = and i32 %5, %9
  %12 = and i32 %8, 1744686599
  %13 = and i32 %6, %9
  %14 = or i32 %10, %11
  %15 = or i32 %12, %13
  %16 = xor i32 %14, %15
  %17 = or i32 %7, %8
  %18 = xor i32 %17, -1
  %19 = or i32 1744686599, %9
  %20 = and i32 %18, %19
  %21 = or i32 %16, %20
  %22 = or i32 %5, %6
  ret i32 %21
}

declare void @_ZNSt7__cxx1118basic_stringstreamIcSt11char_traitsIcESaIcEEC1ERKNS_12basic_stringIcS2_S3_EESt13_Ios_Openmode(%"class.std::__cxx11::basic_stringstream"*, %"class.std::__cxx11::basic_string"* dereferenceable(32), i32) unnamed_addr #1

; Function Attrs: nounwind
declare void @_ZNSt7__cxx1112basic_stringIcSt11char_traitsIcESaIcEEC1Ev(%"class.std::__cxx11::basic_string"*) unnamed_addr #2

declare dereferenceable(280) %"class.std::basic_istream"* @_ZSt7getlineIcSt11char_traitsIcESaIcEERSt13basic_istreamIT_T0_ES7_RNSt7__cxx1112basic_stringIS4_S5_T1_EES4_(%"class.std::basic_istream"* dereferenceable(280), %"class.std::__cxx11::basic_string"* dereferenceable(32), i8 signext) #1

declare zeroext i1 @_ZNKSt9basic_iosIcSt11char_traitsIcEEcvbEv(%"class.std::basic_ios"*) #1

; Function Attrs: nounwind
declare zeroext i1 @_ZNKSt7__cxx1112basic_stringIcSt11char_traitsIcESaIcEE5emptyEv(%"class.std::__cxx11::basic_string"*) #2

; Function Attrs: noinline uwtable
define linkonce_odr void @_ZNSt6vectorINSt7__cxx1112basic_stringIcSt11char_traitsIcESaIcEEESaIS5_EE9push_backERKS5_(%"class.std::vector.39"*, %"class.std::__cxx11::basic_string"* dereferenceable(32)) #0 comdat align 2 {
  %3 = alloca %"class.std::__cxx11::basic_string"*
  %4 = alloca %"class.std::__cxx11::basic_string"*
  %5 = alloca %"class.std::vector.39"*
  %6 = alloca %"class.std::vector.39"*, align 8
  %7 = alloca %"class.std::__cxx11::basic_string"*, align 8
  store %"class.std::vector.39"* %0, %"class.std::vector.39"** %6, align 8
  store %"class.std::__cxx11::basic_string"* %1, %"class.std::__cxx11::basic_string"** %7, align 8
  %8 = load %"class.std::vector.39"*, %"class.std::vector.39"** %6, align 8
  store %"class.std::vector.39"* %8, %"class.std::vector.39"** %5
  %9 = load volatile %"class.std::vector.39"*, %"class.std::vector.39"** %5
  %10 = bitcast %"class.std::vector.39"* %9 to %"struct.std::_Vector_base.40"*
  %11 = getelementptr inbounds %"struct.std::_Vector_base.40", %"struct.std::_Vector_base.40"* %10, i32 0, i32 0
  %12 = getelementptr inbounds %"struct.std::_Vector_base<std::__cxx11::basic_string<char>, std::allocator<std::__cxx11::basic_string<char> > >::_Vector_impl", %"struct.std::_Vector_base<std::__cxx11::basic_string<char>, std::allocator<std::__cxx11::basic_string<char> > >::_Vector_impl"* %11, i32 0, i32 1
  %13 = load %"class.std::__cxx11::basic_string"*, %"class.std::__cxx11::basic_string"** %12, align 8
  store %"class.std::__cxx11::basic_string"* %13, %"class.std::__cxx11::basic_string"** %4
  %14 = load volatile %"class.std::vector.39"*, %"class.std::vector.39"** %5
  %15 = bitcast %"class.std::vector.39"* %14 to %"struct.std::_Vector_base.40"*
  %16 = getelementptr inbounds %"struct.std::_Vector_base.40", %"struct.std::_Vector_base.40"* %15, i32 0, i32 0
  %17 = getelementptr inbounds %"struct.std::_Vector_base<std::__cxx11::basic_string<char>, std::allocator<std::__cxx11::basic_string<char> > >::_Vector_impl", %"struct.std::_Vector_base<std::__cxx11::basic_string<char>, std::allocator<std::__cxx11::basic_string<char> > >::_Vector_impl"* %16, i32 0, i32 2
  %18 = load %"class.std::__cxx11::basic_string"*, %"class.std::__cxx11::basic_string"** %17, align 8
  store %"class.std::__cxx11::basic_string"* %18, %"class.std::__cxx11::basic_string"** %3
  %19 = alloca i32
  store i32 518543433, i32* %19
  br label %20

; <label>:20:                                     ; preds = %2, %120
  %21 = load i32, i32* %19
  switch i32 %21, label %22 [
    i32 518543433, label %23
    i32 -1303634521, label %28
    i32 1283527279, label %55
    i32 1480810153, label %98
    i32 -37880697, label %99
    i32 779925884, label %102
    i32 1898019021, label %103
  ]

; <label>:22:                                     ; preds = %20
  br label %120

; <label>:23:                                     ; preds = %20
  %24 = load volatile %"class.std::__cxx11::basic_string"*, %"class.std::__cxx11::basic_string"** %4
  %25 = load volatile %"class.std::__cxx11::basic_string"*, %"class.std::__cxx11::basic_string"** %3
  %26 = icmp ne %"class.std::__cxx11::basic_string"* %24, %25
  %27 = select i1 %26, i32 -1303634521, i32 -37880697
  store i32 %27, i32* %19
  br label %120

; <label>:28:                                     ; preds = %20
  %29 = load i32, i32* @x.137
  %30 = load i32, i32* @y.138
  %31 = sub i32 0, 1
  %32 = add i32 %29, %31
  %33 = sub i32 %29, 1
  %34 = mul i32 %29, %32
  %35 = urem i32 %34, 2
  %36 = icmp eq i32 %35, 0
  %37 = icmp slt i32 %30, 10
  %38 = xor i1 %36, true
  %39 = xor i1 %37, true
  %40 = xor i1 false, true
  %41 = and i1 %38, false
  %42 = and i1 %36, %40
  %43 = and i1 %39, false
  %44 = and i1 %37, %40
  %45 = or i1 %41, %42
  %46 = or i1 %43, %44
  %47 = xor i1 %45, %46
  %48 = or i1 %38, %39
  %49 = xor i1 %48, true
  %50 = or i1 false, %40
  %51 = and i1 %49, %50
  %52 = or i1 %47, %51
  %53 = or i1 %36, %37
  %54 = select i1 %52, i32 1283527279, i32 1898019021
  store i32 %54, i32* %19
  br label %120

; <label>:55:                                     ; preds = %20
  %56 = load volatile %"class.std::vector.39"*, %"class.std::vector.39"** %5
  %57 = bitcast %"class.std::vector.39"* %56 to %"struct.std::_Vector_base.40"*
  %58 = getelementptr inbounds %"struct.std::_Vector_base.40", %"struct.std::_Vector_base.40"* %57, i32 0, i32 0
  %59 = bitcast %"struct.std::_Vector_base<std::__cxx11::basic_string<char>, std::allocator<std::__cxx11::basic_string<char> > >::_Vector_impl"* %58 to %"class.std::allocator.41"*
  %60 = load volatile %"class.std::vector.39"*, %"class.std::vector.39"** %5
  %61 = bitcast %"class.std::vector.39"* %60 to %"struct.std::_Vector_base.40"*
  %62 = getelementptr inbounds %"struct.std::_Vector_base.40", %"struct.std::_Vector_base.40"* %61, i32 0, i32 0
  %63 = getelementptr inbounds %"struct.std::_Vector_base<std::__cxx11::basic_string<char>, std::allocator<std::__cxx11::basic_string<char> > >::_Vector_impl", %"struct.std::_Vector_base<std::__cxx11::basic_string<char>, std::allocator<std::__cxx11::basic_string<char> > >::_Vector_impl"* %62, i32 0, i32 1
  %64 = load %"class.std::__cxx11::basic_string"*, %"class.std::__cxx11::basic_string"** %63, align 8
  %65 = load %"class.std::__cxx11::basic_string"*, %"class.std::__cxx11::basic_string"** %7, align 8
  call void @_ZNSt16allocator_traitsISaINSt7__cxx1112basic_stringIcSt11char_traitsIcESaIcEEEEE9constructIS5_JRKS5_EEEvRS6_PT_DpOT0_(%"class.std::allocator.41"* dereferenceable(1) %59, %"class.std::__cxx11::basic_string"* %64, %"class.std::__cxx11::basic_string"* dereferenceable(32) %65)
  %66 = load volatile %"class.std::vector.39"*, %"class.std::vector.39"** %5
  %67 = bitcast %"class.std::vector.39"* %66 to %"struct.std::_Vector_base.40"*
  %68 = getelementptr inbounds %"struct.std::_Vector_base.40", %"struct.std::_Vector_base.40"* %67, i32 0, i32 0
  %69 = getelementptr inbounds %"struct.std::_Vector_base<std::__cxx11::basic_string<char>, std::allocator<std::__cxx11::basic_string<char> > >::_Vector_impl", %"struct.std::_Vector_base<std::__cxx11::basic_string<char>, std::allocator<std::__cxx11::basic_string<char> > >::_Vector_impl"* %68, i32 0, i32 1
  %70 = load %"class.std::__cxx11::basic_string"*, %"class.std::__cxx11::basic_string"** %69, align 8
  %71 = getelementptr inbounds %"class.std::__cxx11::basic_string", %"class.std::__cxx11::basic_string"* %70, i32 1
  store %"class.std::__cxx11::basic_string"* %71, %"class.std::__cxx11::basic_string"** %69, align 8
  %72 = load i32, i32* @x.137
  %73 = load i32, i32* @y.138
  %74 = sub i32 0, 1
  %75 = add i32 %72, %74
  %76 = sub i32 %72, 1
  %77 = mul i32 %72, %75
  %78 = urem i32 %77, 2
  %79 = icmp eq i32 %78, 0
  %80 = icmp slt i32 %73, 10
  %81 = xor i1 %79, true
  %82 = xor i1 %80, true
  %83 = xor i1 false, true
  %84 = and i1 %81, false
  %85 = and i1 %79, %83
  %86 = and i1 %82, false
  %87 = and i1 %80, %83
  %88 = or i1 %84, %85
  %89 = or i1 %86, %87
  %90 = xor i1 %88, %89
  %91 = or i1 %81, %82
  %92 = xor i1 %91, true
  %93 = or i1 false, %83
  %94 = and i1 %92, %93
  %95 = or i1 %90, %94
  %96 = or i1 %79, %80
  %97 = select i1 %95, i32 1480810153, i32 1898019021
  store i32 %97, i32* %19
  br label %120

; <label>:98:                                     ; preds = %20
  store i32 779925884, i32* %19
  br label %120

; <label>:99:                                     ; preds = %20
  %100 = load %"class.std::__cxx11::basic_string"*, %"class.std::__cxx11::basic_string"** %7, align 8
  %101 = load volatile %"class.std::vector.39"*, %"class.std::vector.39"** %5
  call void @_ZNSt6vectorINSt7__cxx1112basic_stringIcSt11char_traitsIcESaIcEEESaIS5_EE19_M_emplace_back_auxIJRKS5_EEEvDpOT_(%"class.std::vector.39"* %101, %"class.std::__cxx11::basic_string"* dereferenceable(32) %100)
  store i32 779925884, i32* %19
  br label %120

; <label>:102:                                    ; preds = %20
  ret void

; <label>:103:                                    ; preds = %20
  %104 = load volatile %"class.std::vector.39"*, %"class.std::vector.39"** %5
  %105 = bitcast %"class.std::vector.39"* %104 to %"struct.std::_Vector_base.40"*
  %106 = getelementptr inbounds %"struct.std::_Vector_base.40", %"struct.std::_Vector_base.40"* %105, i32 0, i32 0
  %107 = bitcast %"struct.std::_Vector_base<std::__cxx11::basic_string<char>, std::allocator<std::__cxx11::basic_string<char> > >::_Vector_impl"* %106 to %"class.std::allocator.41"*
  %108 = load volatile %"class.std::vector.39"*, %"class.std::vector.39"** %5
  %109 = bitcast %"class.std::vector.39"* %108 to %"struct.std::_Vector_base.40"*
  %110 = getelementptr inbounds %"struct.std::_Vector_base.40", %"struct.std::_Vector_base.40"* %109, i32 0, i32 0
  %111 = getelementptr inbounds %"struct.std::_Vector_base<std::__cxx11::basic_string<char>, std::allocator<std::__cxx11::basic_string<char> > >::_Vector_impl", %"struct.std::_Vector_base<std::__cxx11::basic_string<char>, std::allocator<std::__cxx11::basic_string<char> > >::_Vector_impl"* %110, i32 0, i32 1
  %112 = load %"class.std::__cxx11::basic_string"*, %"class.std::__cxx11::basic_string"** %111, align 8
  %113 = load %"class.std::__cxx11::basic_string"*, %"class.std::__cxx11::basic_string"** %7, align 8
  call void @_ZNSt16allocator_traitsISaINSt7__cxx1112basic_stringIcSt11char_traitsIcESaIcEEEEE9constructIS5_JRKS5_EEEvRS6_PT_DpOT0_(%"class.std::allocator.41"* dereferenceable(1) %107, %"class.std::__cxx11::basic_string"* %112, %"class.std::__cxx11::basic_string"* dereferenceable(32) %113)
  %114 = load volatile %"class.std::vector.39"*, %"class.std::vector.39"** %5
  %115 = bitcast %"class.std::vector.39"* %114 to %"struct.std::_Vector_base.40"*
  %116 = getelementptr inbounds %"struct.std::_Vector_base.40", %"struct.std::_Vector_base.40"* %115, i32 0, i32 0
  %117 = getelementptr inbounds %"struct.std::_Vector_base<std::__cxx11::basic_string<char>, std::allocator<std::__cxx11::basic_string<char> > >::_Vector_impl", %"struct.std::_Vector_base<std::__cxx11::basic_string<char>, std::allocator<std::__cxx11::basic_string<char> > >::_Vector_impl"* %116, i32 0, i32 1
  %118 = load %"class.std::__cxx11::basic_string"*, %"class.std::__cxx11::basic_string"** %117, align 8
  %119 = getelementptr inbounds %"class.std::__cxx11::basic_string", %"class.std::__cxx11::basic_string"* %118, i32 1
  store %"class.std::__cxx11::basic_string"* %119, %"class.std::__cxx11::basic_string"** %117, align 8
  store i32 1283527279, i32* %19
  br label %120

; <label>:120:                                    ; preds = %103, %99, %98, %55, %28, %23, %22
  br label %20
}

; Function Attrs: nounwind
declare void @_ZNSt7__cxx1112basic_stringIcSt11char_traitsIcESaIcEED1Ev(%"class.std::__cxx11::basic_string"*) unnamed_addr #2

; Function Attrs: nounwind
declare void @_ZNSt7__cxx1118basic_stringstreamIcSt11char_traitsIcESaIcEED1Ev(%"class.std::__cxx11::basic_stringstream"*) unnamed_addr #2

; Function Attrs: noinline nounwind uwtable
define linkonce_odr void @_ZNSt6vectorINSt7__cxx1112basic_stringIcSt11char_traitsIcESaIcEEESaIS5_EED2Ev(%"class.std::vector.39"*) unnamed_addr #4 comdat align 2 personality i8* bitcast (i32 (...)* @__gxx_personality_v0 to i8*) {
  %2 = load i32, i32* @x.139
  %3 = load i32, i32* @y.140
  %4 = add i32 %2, -1221055696
  %5 = sub i32 %4, 1
  %6 = sub i32 %5, -1221055696
  %7 = sub i32 %2, 1
  %8 = mul i32 %2, %6
  %9 = urem i32 %8, 2
  %10 = icmp eq i32 %9, 0
  %11 = icmp slt i32 %3, 10
  %12 = and i1 %10, %11
  %13 = xor i1 %10, %11
  %14 = or i1 %12, %13
  %15 = or i1 %10, %11
  br i1 %14, label %16, label %55

; <label>:16:                                     ; preds = %1, %55
  %17 = alloca %"class.std::vector.39"*, align 8
  %18 = alloca i8*
  %19 = alloca i32
  store %"class.std::vector.39"* %0, %"class.std::vector.39"** %17, align 8
  %20 = load %"class.std::vector.39"*, %"class.std::vector.39"** %17, align 8
  %21 = bitcast %"class.std::vector.39"* %20 to %"struct.std::_Vector_base.40"*
  %22 = getelementptr inbounds %"struct.std::_Vector_base.40", %"struct.std::_Vector_base.40"* %21, i32 0, i32 0
  %23 = getelementptr inbounds %"struct.std::_Vector_base<std::__cxx11::basic_string<char>, std::allocator<std::__cxx11::basic_string<char> > >::_Vector_impl", %"struct.std::_Vector_base<std::__cxx11::basic_string<char>, std::allocator<std::__cxx11::basic_string<char> > >::_Vector_impl"* %22, i32 0, i32 0
  %24 = load %"class.std::__cxx11::basic_string"*, %"class.std::__cxx11::basic_string"** %23, align 8
  %25 = bitcast %"class.std::vector.39"* %20 to %"struct.std::_Vector_base.40"*
  %26 = getelementptr inbounds %"struct.std::_Vector_base.40", %"struct.std::_Vector_base.40"* %25, i32 0, i32 0
  %27 = getelementptr inbounds %"struct.std::_Vector_base<std::__cxx11::basic_string<char>, std::allocator<std::__cxx11::basic_string<char> > >::_Vector_impl", %"struct.std::_Vector_base<std::__cxx11::basic_string<char>, std::allocator<std::__cxx11::basic_string<char> > >::_Vector_impl"* %26, i32 0, i32 1
  %28 = load %"class.std::__cxx11::basic_string"*, %"class.std::__cxx11::basic_string"** %27, align 8
  %29 = bitcast %"class.std::vector.39"* %20 to %"struct.std::_Vector_base.40"*
  %30 = call dereferenceable(1) %"class.std::allocator.41"* @_ZNSt12_Vector_baseINSt7__cxx1112basic_stringIcSt11char_traitsIcESaIcEEESaIS5_EE19_M_get_Tp_allocatorEv(%"struct.std::_Vector_base.40"* %29) #3
  %31 = load i32, i32* @x.139
  %32 = load i32, i32* @y.140
  %33 = sub i32 %31, -515315282
  %34 = sub i32 %33, 1
  %35 = add i32 %34, -515315282
  %36 = sub i32 %31, 1
  %37 = mul i32 %31, %35
  %38 = urem i32 %37, 2
  %39 = icmp eq i32 %38, 0
  %40 = icmp slt i32 %32, 10
  %41 = and i1 %39, %40
  %42 = xor i1 %39, %40
  %43 = or i1 %41, %42
  %44 = or i1 %39, %40
  br i1 %43, label %45, label %55

; <label>:45:                                     ; preds = %16
  invoke void @_ZSt8_DestroyIPNSt7__cxx1112basic_stringIcSt11char_traitsIcESaIcEEES5_EvT_S7_RSaIT0_E(%"class.std::__cxx11::basic_string"* %24, %"class.std::__cxx11::basic_string"* %28, %"class.std::allocator.41"* dereferenceable(1) %30)
          to label %46 unwind label %48

; <label>:46:                                     ; preds = %45
  %47 = bitcast %"class.std::vector.39"* %20 to %"struct.std::_Vector_base.40"*
  call void @_ZNSt12_Vector_baseINSt7__cxx1112basic_stringIcSt11char_traitsIcESaIcEEESaIS5_EED2Ev(%"struct.std::_Vector_base.40"* %47) #3
  ret void

; <label>:48:                                     ; preds = %45
  %49 = landingpad { i8*, i32 }
          catch i8* null
  %50 = extractvalue { i8*, i32 } %49, 0
  store i8* %50, i8** %18, align 8
  %51 = extractvalue { i8*, i32 } %49, 1
  store i32 %51, i32* %19, align 4
  %52 = bitcast %"class.std::vector.39"* %20 to %"struct.std::_Vector_base.40"*
  call void @_ZNSt12_Vector_baseINSt7__cxx1112basic_stringIcSt11char_traitsIcESaIcEEESaIS5_EED2Ev(%"struct.std::_Vector_base.40"* %52) #3
  br label %53

; <label>:53:                                     ; preds = %48
  %54 = load i8*, i8** %18, align 8
  call void @__clang_call_terminate(i8* %54) #12
  unreachable

; <label>:55:                                     ; preds = %16, %1
  %56 = alloca %"class.std::vector.39"*, align 8
  %57 = alloca i8*
  %58 = alloca i32
  store %"class.std::vector.39"* %0, %"class.std::vector.39"** %56, align 8
  %59 = load %"class.std::vector.39"*, %"class.std::vector.39"** %56, align 8
  %60 = bitcast %"class.std::vector.39"* %59 to %"struct.std::_Vector_base.40"*
  %61 = getelementptr inbounds %"struct.std::_Vector_base.40", %"struct.std::_Vector_base.40"* %60, i32 0, i32 0
  %62 = getelementptr inbounds %"struct.std::_Vector_base<std::__cxx11::basic_string<char>, std::allocator<std::__cxx11::basic_string<char> > >::_Vector_impl", %"struct.std::_Vector_base<std::__cxx11::basic_string<char>, std::allocator<std::__cxx11::basic_string<char> > >::_Vector_impl"* %61, i32 0, i32 0
  %63 = load %"class.std::__cxx11::basic_string"*, %"class.std::__cxx11::basic_string"** %62, align 8
  %64 = bitcast %"class.std::vector.39"* %59 to %"struct.std::_Vector_base.40"*
  %65 = getelementptr inbounds %"struct.std::_Vector_base.40", %"struct.std::_Vector_base.40"* %64, i32 0, i32 0
  %66 = getelementptr inbounds %"struct.std::_Vector_base<std::__cxx11::basic_string<char>, std::allocator<std::__cxx11::basic_string<char> > >::_Vector_impl", %"struct.std::_Vector_base<std::__cxx11::basic_string<char>, std::allocator<std::__cxx11::basic_string<char> > >::_Vector_impl"* %65, i32 0, i32 1
  %67 = load %"class.std::__cxx11::basic_string"*, %"class.std::__cxx11::basic_string"** %66, align 8
  %68 = bitcast %"class.std::vector.39"* %59 to %"struct.std::_Vector_base.40"*
  %69 = call dereferenceable(1) %"class.std::allocator.41"* @_ZNSt12_Vector_baseINSt7__cxx1112basic_stringIcSt11char_traitsIcESaIcEEESaIS5_EE19_M_get_Tp_allocatorEv(%"struct.std::_Vector_base.40"* %68) #3
  br label %16
}

; Function Attrs: noinline uwtable
define void @_Z7divisorx(%"class.std::vector.0"* noalias sret, i64) #0 personality i8* bitcast (i32 (...)* @__gxx_personality_v0 to i8*) {
  %3 = alloca i64, align 8
  %4 = alloca i1, align 1
  %5 = alloca i64, align 8
  %6 = alloca i8*
  %7 = alloca i32
  %8 = alloca i64, align 8
  %9 = alloca %"class.__gnu_cxx::__normal_iterator.38", align 8
  %10 = alloca %"class.__gnu_cxx::__normal_iterator.38", align 8
  store i64 %1, i64* %3, align 8
  store i1 false, i1* %4, align 1
  call void @_ZNSt6vectorIxSaIxEEC2Ev(%"class.std::vector.0"* %0) #3
  store i64 1, i64* %5, align 8
  br label %11

; <label>:11:                                     ; preds = %175, %2
  %12 = load i64, i64* %5, align 8
  %13 = load i64, i64* %5, align 8
  %14 = mul nsw i64 %12, %13
  %15 = load i64, i64* %3, align 8
  %16 = icmp sle i64 %14, %15
  br i1 %16, label %17, label %181

; <label>:17:                                     ; preds = %11
  %18 = load i64, i64* %3, align 8
  %19 = load i64, i64* %5, align 8
  %20 = srem i64 %18, %19
  %21 = icmp eq i64 %20, 0
  br i1 %21, label %22, label %134

; <label>:22:                                     ; preds = %17
  invoke void @_ZNSt6vectorIxSaIxEE9push_backERKx(%"class.std::vector.0"* %0, i64* dereferenceable(8) %5)
          to label %23 unwind label %75

; <label>:23:                                     ; preds = %22
  %24 = load i64, i64* %5, align 8
  %25 = load i64, i64* %5, align 8
  %26 = mul nsw i64 %24, %25
  %27 = load i64, i64* %3, align 8
  %28 = icmp ne i64 %26, %27
  br i1 %28, label %29, label %133

; <label>:29:                                     ; preds = %23
  %30 = load i64, i64* %3, align 8
  %31 = load i64, i64* %5, align 8
  %32 = sdiv i64 %30, %31
  store i64 %32, i64* %8, align 8
  invoke void @_ZNSt6vectorIxSaIxEE9push_backEOx(%"class.std::vector.0"* %0, i64* dereferenceable(8) %8)
          to label %33 unwind label %75

; <label>:33:                                     ; preds = %29
  %34 = load i32, i32* @x.141
  %35 = load i32, i32* @y.142
  %36 = sub i32 %34, -241691545
  %37 = sub i32 %36, 1
  %38 = add i32 %37, -241691545
  %39 = sub i32 %34, 1
  %40 = mul i32 %34, %38
  %41 = urem i32 %40, 2
  %42 = icmp eq i32 %41, 0
  %43 = icmp slt i32 %35, 10
  %44 = xor i1 %42, true
  %45 = xor i1 %43, true
  %46 = xor i1 false, true
  %47 = and i1 %44, false
  %48 = and i1 %42, %46
  %49 = and i1 %45, false
  %50 = and i1 %43, %46
  %51 = or i1 %47, %48
  %52 = or i1 %49, %50
  %53 = xor i1 %51, %52
  %54 = or i1 %44, %45
  %55 = xor i1 %54, true
  %56 = or i1 false, %46
  %57 = and i1 %55, %56
  %58 = or i1 %53, %57
  %59 = or i1 %42, %43
  br i1 %58, label %60, label %314

; <label>:60:                                     ; preds = %33, %314
  %61 = load i32, i32* @x.141
  %62 = load i32, i32* @y.142
  %63 = sub i32 0, 1
  %64 = add i32 %61, %63
  %65 = sub i32 %61, 1
  %66 = mul i32 %61, %64
  %67 = urem i32 %66, 2
  %68 = icmp eq i32 %67, 0
  %69 = icmp slt i32 %62, 10
  %70 = and i1 %68, %69
  %71 = xor i1 %68, %69
  %72 = or i1 %70, %71
  %73 = or i1 %68, %69
  br i1 %72, label %74, label %314

; <label>:74:                                     ; preds = %60
  br label %133

; <label>:75:                                     ; preds = %228, %225, %223, %29, %22
  %76 = load i32, i32* @x.141
  %77 = load i32, i32* @y.142
  %78 = sub i32 %76, 1966726270
  %79 = sub i32 %78, 1
  %80 = add i32 %79, 1966726270
  %81 = sub i32 %76, 1
  %82 = mul i32 %76, %80
  %83 = urem i32 %82, 2
  %84 = icmp eq i32 %83, 0
  %85 = icmp slt i32 %77, 10
  %86 = xor i1 %84, true
  %87 = xor i1 %85, true
  %88 = xor i1 true, true
  %89 = and i1 %86, true
  %90 = and i1 %84, %88
  %91 = and i1 %87, true
  %92 = and i1 %85, %88
  %93 = or i1 %89, %90
  %94 = or i1 %91, %92
  %95 = xor i1 %93, %94
  %96 = or i1 %86, %87
  %97 = xor i1 %96, true
  %98 = or i1 true, %88
  %99 = and i1 %97, %98
  %100 = or i1 %95, %99
  %101 = or i1 %84, %85
  br i1 %100, label %102, label %315

; <label>:102:                                    ; preds = %75, %315
  %103 = landingpad { i8*, i32 }
          cleanup
  %104 = extractvalue { i8*, i32 } %103, 0
  store i8* %104, i8** %6, align 8
  %105 = extractvalue { i8*, i32 } %103, 1
  store i32 %105, i32* %7, align 4
  call void @_ZNSt6vectorIxSaIxEED2Ev(%"class.std::vector.0"* %0) #3
  %106 = load i32, i32* @x.141
  %107 = load i32, i32* @y.142
  %108 = sub i32 %106, 853208176
  %109 = sub i32 %108, 1
  %110 = add i32 %109, 853208176
  %111 = sub i32 %106, 1
  %112 = mul i32 %106, %110
  %113 = urem i32 %112, 2
  %114 = icmp eq i32 %113, 0
  %115 = icmp slt i32 %107, 10
  %116 = xor i1 %114, true
  %117 = xor i1 %115, true
  %118 = xor i1 false, true
  %119 = and i1 %116, false
  %120 = and i1 %114, %118
  %121 = and i1 %117, false
  %122 = and i1 %115, %118
  %123 = or i1 %119, %120
  %124 = or i1 %121, %122
  %125 = xor i1 %123, %124
  %126 = or i1 %116, %117
  %127 = xor i1 %126, true
  %128 = or i1 false, %118
  %129 = and i1 %127, %128
  %130 = or i1 %125, %129
  %131 = or i1 %114, %115
  br i1 %130, label %132, label %315

; <label>:132:                                    ; preds = %102
  br label %268

; <label>:133:                                    ; preds = %74, %23
  br label %134

; <label>:134:                                    ; preds = %133, %17
  %135 = load i32, i32* @x.141
  %136 = load i32, i32* @y.142
  %137 = sub i32 0, 1
  %138 = add i32 %135, %137
  %139 = sub i32 %135, 1
  %140 = mul i32 %135, %138
  %141 = urem i32 %140, 2
  %142 = icmp eq i32 %141, 0
  %143 = icmp slt i32 %136, 10
  %144 = and i1 %142, %143
  %145 = xor i1 %142, %143
  %146 = or i1 %144, %145
  %147 = or i1 %142, %143
  br i1 %146, label %148, label %319

; <label>:148:                                    ; preds = %134, %319
  %149 = load i32, i32* @x.141
  %150 = load i32, i32* @y.142
  %151 = sub i32 0, 1
  %152 = add i32 %149, %151
  %153 = sub i32 %149, 1
  %154 = mul i32 %149, %152
  %155 = urem i32 %154, 2
  %156 = icmp eq i32 %155, 0
  %157 = icmp slt i32 %150, 10
  %158 = xor i1 %156, true
  %159 = xor i1 %157, true
  %160 = xor i1 true, true
  %161 = and i1 %158, true
  %162 = and i1 %156, %160
  %163 = and i1 %159, true
  %164 = and i1 %157, %160
  %165 = or i1 %161, %162
  %166 = or i1 %163, %164
  %167 = xor i1 %165, %166
  %168 = or i1 %158, %159
  %169 = xor i1 %168, true
  %170 = or i1 true, %160
  %171 = and i1 %169, %170
  %172 = or i1 %167, %171
  %173 = or i1 %156, %157
  br i1 %172, label %174, label %319

; <label>:174:                                    ; preds = %148
  br label %175

; <label>:175:                                    ; preds = %174
  %176 = load i64, i64* %5, align 8
  %177 = add i64 %176, -2589483543443322491
  %178 = add i64 %177, 1
  %179 = sub i64 %178, -2589483543443322491
  %180 = add nsw i64 %176, 1
  store i64 %179, i64* %5, align 8
  br label %11

; <label>:181:                                    ; preds = %11
  %182 = load i32, i32* @x.141
  %183 = load i32, i32* @y.142
  %184 = sub i32 %182, -1522418064
  %185 = sub i32 %184, 1
  %186 = add i32 %185, -1522418064
  %187 = sub i32 %182, 1
  %188 = mul i32 %182, %186
  %189 = urem i32 %188, 2
  %190 = icmp eq i32 %189, 0
  %191 = icmp slt i32 %183, 10
  %192 = and i1 %190, %191
  %193 = xor i1 %190, %191
  %194 = or i1 %192, %193
  %195 = or i1 %190, %191
  br i1 %194, label %196, label %320

; <label>:196:                                    ; preds = %181, %320
  %197 = load i32, i32* @x.141
  %198 = load i32, i32* @y.142
  %199 = sub i32 %197, 1912528811
  %200 = sub i32 %199, 1
  %201 = add i32 %200, 1912528811
  %202 = sub i32 %197, 1
  %203 = mul i32 %197, %201
  %204 = urem i32 %203, 2
  %205 = icmp eq i32 %204, 0
  %206 = icmp slt i32 %198, 10
  %207 = xor i1 %205, true
  %208 = xor i1 %206, true
  %209 = xor i1 true, true
  %210 = and i1 %207, true
  %211 = and i1 %205, %209
  %212 = and i1 %208, true
  %213 = and i1 %206, %209
  %214 = or i1 %210, %211
  %215 = or i1 %212, %213
  %216 = xor i1 %214, %215
  %217 = or i1 %207, %208
  %218 = xor i1 %217, true
  %219 = or i1 true, %209
  %220 = and i1 %218, %219
  %221 = or i1 %216, %220
  %222 = or i1 %205, %206
  br i1 %221, label %223, label %320

; <label>:223:                                    ; preds = %196
  %224 = invoke i64* @_ZSt5beginISt6vectorIxSaIxEEEDTcldtfp_5beginEERT_(%"class.std::vector.0"* dereferenceable(24) %0)
          to label %225 unwind label %75

; <label>:225:                                    ; preds = %223
  %226 = getelementptr inbounds %"class.__gnu_cxx::__normal_iterator.38", %"class.__gnu_cxx::__normal_iterator.38"* %9, i32 0, i32 0
  store i64* %224, i64** %226, align 8
  %227 = invoke i64* @_ZSt3endISt6vectorIxSaIxEEEDTcldtfp_3endEERT_(%"class.std::vector.0"* dereferenceable(24) %0)
          to label %228 unwind label %75

; <label>:228:                                    ; preds = %225
  %229 = getelementptr inbounds %"class.__gnu_cxx::__normal_iterator.38", %"class.__gnu_cxx::__normal_iterator.38"* %10, i32 0, i32 0
  store i64* %227, i64** %229, align 8
  %230 = getelementptr inbounds %"class.__gnu_cxx::__normal_iterator.38", %"class.__gnu_cxx::__normal_iterator.38"* %9, i32 0, i32 0
  %231 = load i64*, i64** %230, align 8
  %232 = getelementptr inbounds %"class.__gnu_cxx::__normal_iterator.38", %"class.__gnu_cxx::__normal_iterator.38"* %10, i32 0, i32 0
  %233 = load i64*, i64** %232, align 8
  invoke void @_ZSt4sortIN9__gnu_cxx17__normal_iteratorIPxSt6vectorIxSaIxEEEEEvT_S7_(i64* %231, i64* %233)
          to label %234 unwind label %75

; <label>:234:                                    ; preds = %228
  store i1 true, i1* %4, align 1
  %235 = load i1, i1* %4, align 1
  br i1 %235, label %237, label %236

; <label>:236:                                    ; preds = %234
  call void @_ZNSt6vectorIxSaIxEED2Ev(%"class.std::vector.0"* %0) #3
  br label %237

; <label>:237:                                    ; preds = %236, %234
  %238 = load i32, i32* @x.141
  %239 = load i32, i32* @y.142
  %240 = add i32 %238, -1794572215
  %241 = sub i32 %240, 1
  %242 = sub i32 %241, -1794572215
  %243 = sub i32 %238, 1
  %244 = mul i32 %238, %242
  %245 = urem i32 %244, 2
  %246 = icmp eq i32 %245, 0
  %247 = icmp slt i32 %239, 10
  %248 = and i1 %246, %247
  %249 = xor i1 %246, %247
  %250 = or i1 %248, %249
  %251 = or i1 %246, %247
  br i1 %250, label %252, label %321

; <label>:252:                                    ; preds = %237, %321
  %253 = load i32, i32* @x.141
  %254 = load i32, i32* @y.142
  %255 = sub i32 %253, -1036646040
  %256 = sub i32 %255, 1
  %257 = add i32 %256, -1036646040
  %258 = sub i32 %253, 1
  %259 = mul i32 %253, %257
  %260 = urem i32 %259, 2
  %261 = icmp eq i32 %260, 0
  %262 = icmp slt i32 %254, 10
  %263 = and i1 %261, %262
  %264 = xor i1 %261, %262
  %265 = or i1 %263, %264
  %266 = or i1 %261, %262
  br i1 %265, label %267, label %321

; <label>:267:                                    ; preds = %252
  ret void

; <label>:268:                                    ; preds = %132
  %269 = load i32, i32* @x.141
  %270 = load i32, i32* @y.142
  %271 = sub i32 %269, -2081581990
  %272 = sub i32 %271, 1
  %273 = add i32 %272, -2081581990
  %274 = sub i32 %269, 1
  %275 = mul i32 %269, %273
  %276 = urem i32 %275, 2
  %277 = icmp eq i32 %276, 0
  %278 = icmp slt i32 %270, 10
  %279 = xor i1 %277, true
  %280 = xor i1 %278, true
  %281 = xor i1 true, true
  %282 = and i1 %279, true
  %283 = and i1 %277, %281
  %284 = and i1 %280, true
  %285 = and i1 %278, %281
  %286 = or i1 %282, %283
  %287 = or i1 %284, %285
  %288 = xor i1 %286, %287
  %289 = or i1 %279, %280
  %290 = xor i1 %289, true
  %291 = or i1 true, %281
  %292 = and i1 %290, %291
  %293 = or i1 %288, %292
  %294 = or i1 %277, %278
  br i1 %293, label %295, label %322

; <label>:295:                                    ; preds = %268, %322
  %296 = load i8*, i8** %6, align 8
  %297 = load i32, i32* %7, align 4
  %298 = insertvalue { i8*, i32 } undef, i8* %296, 0
  %299 = insertvalue { i8*, i32 } %298, i32 %297, 1
  %300 = load i32, i32* @x.141
  %301 = load i32, i32* @y.142
  %302 = sub i32 0, 1
  %303 = add i32 %300, %302
  %304 = sub i32 %300, 1
  %305 = mul i32 %300, %303
  %306 = urem i32 %305, 2
  %307 = icmp eq i32 %306, 0
  %308 = icmp slt i32 %301, 10
  %309 = and i1 %307, %308
  %310 = xor i1 %307, %308
  %311 = or i1 %309, %310
  %312 = or i1 %307, %308
  br i1 %311, label %313, label %322

; <label>:313:                                    ; preds = %295
  resume { i8*, i32 } %299

; <label>:314:                                    ; preds = %60, %33
  br label %60

; <label>:315:                                    ; preds = %102, %75
  %316 = landingpad { i8*, i32 }
          cleanup
  %317 = extractvalue { i8*, i32 } %316, 0
  store i8* %317, i8** %6, align 8
  %318 = extractvalue { i8*, i32 } %316, 1
  store i32 %318, i32* %7, align 4
  call void @_ZNSt6vectorIxSaIxEED2Ev(%"class.std::vector.0"* %0) #3
  br label %102

; <label>:319:                                    ; preds = %148, %134
  br label %148

; <label>:320:                                    ; preds = %196, %181
  br label %196

; <label>:321:                                    ; preds = %252, %237
  br label %252

; <label>:322:                                    ; preds = %295, %268
  %323 = load i8*, i8** %6, align 8
  %324 = load i32, i32* %7, align 4
  %325 = insertvalue { i8*, i32 } undef, i8* %323, 0
  %326 = insertvalue { i8*, i32 } %325, i32 %324, 1
  br label %295
}

; Function Attrs: noinline uwtable
define linkonce_odr void @_ZNSt6vectorIxSaIxEE9push_backEOx(%"class.std::vector.0"*, i64* dereferenceable(8)) #0 comdat align 2 {
  %3 = alloca %"class.std::vector.0"*, align 8
  %4 = alloca i64*, align 8
  store %"class.std::vector.0"* %0, %"class.std::vector.0"** %3, align 8
  store i64* %1, i64** %4, align 8
  %5 = load %"class.std::vector.0"*, %"class.std::vector.0"** %3, align 8
  %6 = load i64*, i64** %4, align 8
  %7 = call dereferenceable(8) i64* @_ZSt4moveIRxEONSt16remove_referenceIT_E4typeEOS2_(i64* dereferenceable(8) %6) #3
  call void @_ZNSt6vectorIxSaIxEE12emplace_backIJxEEEvDpOT_(%"class.std::vector.0"* %5, i64* dereferenceable(8) %7)
  ret void
}

; Function Attrs: noinline uwtable
define linkonce_odr void @_ZSt4sortIN9__gnu_cxx17__normal_iteratorIPxSt6vectorIxSaIxEEEEEvT_S7_(i64*, i64*) #0 comdat {
  %3 = alloca i1
  %4 = alloca i1
  %5 = load i32, i32* @x.145
  %6 = load i32, i32* @y.146
  %7 = sub i32 0, 1
  %8 = add i32 %5, %7
  %9 = sub i32 %5, 1
  %10 = mul i32 %5, %8
  %11 = urem i32 %10, 2
  %12 = icmp eq i32 %11, 0
  store i1 %12, i1* %4
  %13 = icmp slt i32 %6, 10
  store i1 %13, i1* %3
  %14 = alloca i32
  store i32 736803024, i32* %14
  br label %15

; <label>:15:                                     ; preds = %2, %76
  %16 = load i32, i32* %14
  switch i32 %16, label %17 [
    i32 736803024, label %18
    i32 1376440233, label %26
    i32 -812730159, label %58
    i32 1697906387, label %59
  ]

; <label>:17:                                     ; preds = %15
  br label %76

; <label>:18:                                     ; preds = %15
  %19 = load volatile i1, i1* %4
  %20 = load volatile i1, i1* %3
  %21 = and i1 %19, %20
  %22 = xor i1 %19, %20
  %23 = or i1 %21, %22
  %24 = or i1 %19, %20
  %25 = select i1 %23, i32 1376440233, i32 1697906387
  store i32 %25, i32* %14
  br label %76

; <label>:26:                                     ; preds = %15
  %27 = alloca %"class.__gnu_cxx::__normal_iterator.38", align 8
  %28 = alloca %"class.__gnu_cxx::__normal_iterator.38", align 8
  %29 = alloca %"class.__gnu_cxx::__normal_iterator.38", align 8
  %30 = alloca %"class.__gnu_cxx::__normal_iterator.38", align 8
  %31 = alloca %"struct.__gnu_cxx::__ops::_Iter_less_iter", align 1
  %32 = alloca %"struct.__gnu_cxx::__ops::_Iter_less_iter", align 1
  %33 = getelementptr inbounds %"class.__gnu_cxx::__normal_iterator.38", %"class.__gnu_cxx::__normal_iterator.38"* %27, i32 0, i32 0
  store i64* %0, i64** %33, align 8
  %34 = getelementptr inbounds %"class.__gnu_cxx::__normal_iterator.38", %"class.__gnu_cxx::__normal_iterator.38"* %28, i32 0, i32 0
  store i64* %1, i64** %34, align 8
  %35 = bitcast %"class.__gnu_cxx::__normal_iterator.38"* %29 to i8*
  %36 = bitcast %"class.__gnu_cxx::__normal_iterator.38"* %27 to i8*
  call void @llvm.memcpy.p0i8.p0i8.i64(i8* %35, i8* %36, i64 8, i32 8, i1 false)
  %37 = bitcast %"class.__gnu_cxx::__normal_iterator.38"* %30 to i8*
  %38 = bitcast %"class.__gnu_cxx::__normal_iterator.38"* %28 to i8*
  call void @llvm.memcpy.p0i8.p0i8.i64(i8* %37, i8* %38, i64 8, i32 8, i1 false)
  call void @_ZN9__gnu_cxx5__ops16__iter_less_iterEv()
  %39 = getelementptr inbounds %"class.__gnu_cxx::__normal_iterator.38", %"class.__gnu_cxx::__normal_iterator.38"* %29, i32 0, i32 0
  %40 = load i64*, i64** %39, align 8
  %41 = getelementptr inbounds %"class.__gnu_cxx::__normal_iterator.38", %"class.__gnu_cxx::__normal_iterator.38"* %30, i32 0, i32 0
  %42 = load i64*, i64** %41, align 8
  call void @_ZSt6__sortIN9__gnu_cxx17__normal_iteratorIPxSt6vectorIxSaIxEEEENS0_5__ops15_Iter_less_iterEEvT_S9_T0_(i64* %40, i64* %42)
  %43 = load i32, i32* @x.145
  %44 = load i32, i32* @y.146
  %45 = sub i32 %43, -163357824
  %46 = sub i32 %45, 1
  %47 = add i32 %46, -163357824
  %48 = sub i32 %43, 1
  %49 = mul i32 %43, %47
  %50 = urem i32 %49, 2
  %51 = icmp eq i32 %50, 0
  %52 = icmp slt i32 %44, 10
  %53 = and i1 %51, %52
  %54 = xor i1 %51, %52
  %55 = or i1 %53, %54
  %56 = or i1 %51, %52
  %57 = select i1 %55, i32 -812730159, i32 1697906387
  store i32 %57, i32* %14
  br label %76

; <label>:58:                                     ; preds = %15
  ret void

; <label>:59:                                     ; preds = %15
  %60 = alloca %"class.__gnu_cxx::__normal_iterator.38", align 8
  %61 = alloca %"class.__gnu_cxx::__normal_iterator.38", align 8
  %62 = alloca %"class.__gnu_cxx::__normal_iterator.38", align 8
  %63 = alloca %"class.__gnu_cxx::__normal_iterator.38", align 8
  %64 = alloca %"struct.__gnu_cxx::__ops::_Iter_less_iter", align 1
  %65 = alloca %"struct.__gnu_cxx::__ops::_Iter_less_iter", align 1
  %66 = getelementptr inbounds %"class.__gnu_cxx::__normal_iterator.38", %"class.__gnu_cxx::__normal_iterator.38"* %60, i32 0, i32 0
  store i64* %0, i64** %66, align 8
  %67 = getelementptr inbounds %"class.__gnu_cxx::__normal_iterator.38", %"class.__gnu_cxx::__normal_iterator.38"* %61, i32 0, i32 0
  store i64* %1, i64** %67, align 8
  %68 = bitcast %"class.__gnu_cxx::__normal_iterator.38"* %62 to i8*
  %69 = bitcast %"class.__gnu_cxx::__normal_iterator.38"* %60 to i8*
  call void @llvm.memcpy.p0i8.p0i8.i64(i8* %68, i8* %69, i64 8, i32 8, i1 false)
  %70 = bitcast %"class.__gnu_cxx::__normal_iterator.38"* %63 to i8*
  %71 = bitcast %"class.__gnu_cxx::__normal_iterator.38"* %61 to i8*
  call void @llvm.memcpy.p0i8.p0i8.i64(i8* %70, i8* %71, i64 8, i32 8, i1 false)
  call void @_ZN9__gnu_cxx5__ops16__iter_less_iterEv()
  %72 = getelementptr inbounds %"class.__gnu_cxx::__normal_iterator.38", %"class.__gnu_cxx::__normal_iterator.38"* %62, i32 0, i32 0
  %73 = load i64*, i64** %72, align 8
  %74 = getelementptr inbounds %"class.__gnu_cxx::__normal_iterator.38", %"class.__gnu_cxx::__normal_iterator.38"* %63, i32 0, i32 0
  %75 = load i64*, i64** %74, align 8
  call void @_ZSt6__sortIN9__gnu_cxx17__normal_iteratorIPxSt6vectorIxSaIxEEEENS0_5__ops15_Iter_less_iterEEvT_S9_T0_(i64* %73, i64* %75)
  store i32 1376440233, i32* %14
  br label %76

; <label>:76:                                     ; preds = %59, %26, %18, %17
  br label %15
}

; Function Attrs: noinline nounwind uwtable
define linkonce_odr i64* @_ZSt5beginISt6vectorIxSaIxEEEDTcldtfp_5beginEERT_(%"class.std::vector.0"* dereferenceable(24)) #4 comdat {
  %2 = alloca %"class.__gnu_cxx::__normal_iterator.38", align 8
  %3 = alloca %"class.std::vector.0"*, align 8
  store %"class.std::vector.0"* %0, %"class.std::vector.0"** %3, align 8
  %4 = load %"class.std::vector.0"*, %"class.std::vector.0"** %3, align 8
  %5 = call i64* @_ZNSt6vectorIxSaIxEE5beginEv(%"class.std::vector.0"* %4) #3
  %6 = getelementptr inbounds %"class.__gnu_cxx::__normal_iterator.38", %"class.__gnu_cxx::__normal_iterator.38"* %2, i32 0, i32 0
  store i64* %5, i64** %6, align 8
  %7 = getelementptr inbounds %"class.__gnu_cxx::__normal_iterator.38", %"class.__gnu_cxx::__normal_iterator.38"* %2, i32 0, i32 0
  %8 = load i64*, i64** %7, align 8
  ret i64* %8
}

; Function Attrs: noinline nounwind uwtable
define linkonce_odr i64* @_ZSt3endISt6vectorIxSaIxEEEDTcldtfp_3endEERT_(%"class.std::vector.0"* dereferenceable(24)) #4 comdat {
  %2 = alloca %"class.__gnu_cxx::__normal_iterator.38", align 8
  %3 = alloca %"class.std::vector.0"*, align 8
  store %"class.std::vector.0"* %0, %"class.std::vector.0"** %3, align 8
  %4 = load %"class.std::vector.0"*, %"class.std::vector.0"** %3, align 8
  %5 = call i64* @_ZNSt6vectorIxSaIxEE3endEv(%"class.std::vector.0"* %4) #3
  %6 = getelementptr inbounds %"class.__gnu_cxx::__normal_iterator.38", %"class.__gnu_cxx::__normal_iterator.38"* %2, i32 0, i32 0
  store i64* %5, i64** %6, align 8
  %7 = getelementptr inbounds %"class.__gnu_cxx::__normal_iterator.38", %"class.__gnu_cxx::__normal_iterator.38"* %2, i32 0, i32 0
  %8 = load i64*, i64** %7, align 8
  ret i64* %8
}

; Function Attrs: noinline norecurse uwtable
define i32 @main() #6 personality i8* bitcast (i32 (...)* @__gxx_personality_v0 to i8*) {
  %1 = alloca i32, align 4
  %2 = alloca i64, align 8
  %3 = alloca i64, align 8
  %4 = alloca %"class.std::vector.31", align 8
  %5 = alloca i32, align 4
  %6 = alloca i64, align 8
  %7 = alloca i64, align 8
  %8 = alloca i8*
  %9 = alloca i32
  %10 = alloca %"struct.std::pair.36", align 8
  %11 = alloca i64, align 8
  %12 = alloca i32, align 4
  %13 = alloca %"class.std::vector.21", align 8
  %14 = alloca %"class.std::allocator.23", align 1
  %15 = alloca i32, align 4
  %16 = alloca %struct.Edge, align 8
  %17 = alloca i32, align 4
  %18 = alloca %"class.std::vector.0", align 8
  %19 = alloca %"class.std::vector.0", align 8
  %20 = alloca i8, align 1
  %21 = alloca i32, align 4
  %22 = alloca i32
  store i32 0, i32* %1, align 4
  %23 = call dereferenceable(280) %"class.std::basic_istream"* @_ZNSirsERx(%"class.std::basic_istream"* @_ZSt3cin, i64* dereferenceable(8) %2)
  %24 = call dereferenceable(280) %"class.std::basic_istream"* @_ZNSirsERx(%"class.std::basic_istream"* %23, i64* dereferenceable(8) %3)
  call void @_ZNSt6vectorISt4pairIxxESaIS1_EEC2Ev(%"class.std::vector.31"* %4) #3
  store i32 0, i32* %5, align 4
  br label %25

; <label>:25:                                     ; preds = %137, %0
  %26 = load i32, i32* %5, align 4
  %27 = sext i32 %26 to i64
  %28 = load i64, i64* %3, align 8
  %29 = icmp slt i64 %27, %28
  br i1 %29, label %30, label %146

; <label>:30:                                     ; preds = %25
  %31 = invoke dereferenceable(280) %"class.std::basic_istream"* @_ZNSirsERx(%"class.std::basic_istream"* @_ZSt3cin, i64* dereferenceable(8) %6)
          to label %32 unwind label %142

; <label>:32:                                     ; preds = %30
  %33 = invoke dereferenceable(280) %"class.std::basic_istream"* @_ZNSirsERx(%"class.std::basic_istream"* %31, i64* dereferenceable(8) %7)
          to label %34 unwind label %142

; <label>:34:                                     ; preds = %32
  %35 = load i32, i32* @x.151
  %36 = load i32, i32* @y.152
  %37 = sub i32 %35, 373710049
  %38 = sub i32 %37, 1
  %39 = add i32 %38, 373710049
  %40 = sub i32 %35, 1
  %41 = mul i32 %35, %39
  %42 = urem i32 %41, 2
  %43 = icmp eq i32 %42, 0
  %44 = icmp slt i32 %36, 10
  %45 = xor i1 %43, true
  %46 = xor i1 %44, true
  %47 = xor i1 true, true
  %48 = and i1 %45, true
  %49 = and i1 %43, %47
  %50 = and i1 %46, true
  %51 = and i1 %44, %47
  %52 = or i1 %48, %49
  %53 = or i1 %50, %51
  %54 = xor i1 %52, %53
  %55 = or i1 %45, %46
  %56 = xor i1 %55, true
  %57 = or i1 true, %47
  %58 = and i1 %56, %57
  %59 = or i1 %54, %58
  %60 = or i1 %43, %44
  br i1 %59, label %61, label %614

; <label>:61:                                     ; preds = %34, %614
  %62 = load i64, i64* %6, align 8
  %63 = sub i64 0, %62
  %64 = sub i64 0, -1
  %65 = add i64 %63, %64
  %66 = sub i64 0, %65
  %67 = add nsw i64 %62, -1
  store i64 %66, i64* %6, align 8
  %68 = load i64, i64* %7, align 8
  %69 = sub i64 0, %68
  %70 = sub i64 0, -1
  %71 = add i64 %69, %70
  %72 = sub i64 0, %71
  %73 = add nsw i64 %68, -1
  store i64 %72, i64* %7, align 8
  %74 = load i32, i32* @x.151
  %75 = load i32, i32* @y.152
  %76 = sub i32 0, 1
  %77 = add i32 %74, %76
  %78 = sub i32 %74, 1
  %79 = mul i32 %74, %77
  %80 = urem i32 %79, 2
  %81 = icmp eq i32 %80, 0
  %82 = icmp slt i32 %75, 10
  %83 = and i1 %81, %82
  %84 = xor i1 %81, %82
  %85 = or i1 %83, %84
  %86 = or i1 %81, %82
  br i1 %85, label %87, label %614

; <label>:87:                                     ; preds = %61
  %88 = invoke { i64, i64 } @_ZSt9make_pairIRxS0_ESt4pairINSt17__decay_and_stripIT_E6__typeENS2_IT0_E6__typeEEOS3_OS6_(i64* dereferenceable(8) %6, i64* dereferenceable(8) %7)
          to label %89 unwind label %142

; <label>:89:                                     ; preds = %87
  %90 = bitcast %"struct.std::pair.36"* %10 to { i64, i64 }*
  %91 = getelementptr inbounds { i64, i64 }, { i64, i64 }* %90, i32 0, i32 0
  %92 = extractvalue { i64, i64 } %88, 0
  store i64 %92, i64* %91, align 8
  %93 = getelementptr inbounds { i64, i64 }, { i64, i64 }* %90, i32 0, i32 1
  %94 = extractvalue { i64, i64 } %88, 1
  store i64 %94, i64* %93, align 8
  invoke void @_ZNSt6vectorISt4pairIxxESaIS1_EE9push_backEOS1_(%"class.std::vector.31"* %4, %"struct.std::pair.36"* dereferenceable(16) %10)
          to label %95 unwind label %142

; <label>:95:                                     ; preds = %89
  %96 = load i32, i32* @x.151
  %97 = load i32, i32* @y.152
  %98 = sub i32 %96, 1324034271
  %99 = sub i32 %98, 1
  %100 = add i32 %99, 1324034271
  %101 = sub i32 %96, 1
  %102 = mul i32 %96, %100
  %103 = urem i32 %102, 2
  %104 = icmp eq i32 %103, 0
  %105 = icmp slt i32 %97, 10
  %106 = and i1 %104, %105
  %107 = xor i1 %104, %105
  %108 = or i1 %106, %107
  %109 = or i1 %104, %105
  br i1 %108, label %110, label %647

; <label>:110:                                    ; preds = %95, %647
  %111 = load i32, i32* @x.151
  %112 = load i32, i32* @y.152
  %113 = sub i32 0, 1
  %114 = add i32 %111, %113
  %115 = sub i32 %111, 1
  %116 = mul i32 %111, %114
  %117 = urem i32 %116, 2
  %118 = icmp eq i32 %117, 0
  %119 = icmp slt i32 %112, 10
  %120 = xor i1 %118, true
  %121 = xor i1 %119, true
  %122 = xor i1 true, true
  %123 = and i1 %120, true
  %124 = and i1 %118, %122
  %125 = and i1 %121, true
  %126 = and i1 %119, %122
  %127 = or i1 %123, %124
  %128 = or i1 %125, %126
  %129 = xor i1 %127, %128
  %130 = or i1 %120, %121
  %131 = xor i1 %130, true
  %132 = or i1 true, %122
  %133 = and i1 %131, %132
  %134 = or i1 %129, %133
  %135 = or i1 %118, %119
  br i1 %134, label %136, label %647

; <label>:136:                                    ; preds = %110
  br label %137

; <label>:137:                                    ; preds = %136
  %138 = load i32, i32* %5, align 4
  %139 = sub i32 0, 1
  %140 = sub i32 %138, %139
  %141 = add nsw i32 %138, 1
  store i32 %140, i32* %5, align 4
  br label %25

; <label>:142:                                    ; preds = %563, %560, %89, %87, %32, %30
  %143 = landingpad { i8*, i32 }
          cleanup
  %144 = extractvalue { i8*, i32 } %143, 0
  store i8* %144, i8** %8, align 8
  %145 = extractvalue { i8*, i32 } %143, 1
  store i32 %145, i32* %9, align 4
  br label %567

; <label>:146:                                    ; preds = %25
  %147 = load i32, i32* @x.151
  %148 = load i32, i32* @y.152
  %149 = sub i32 0, 1
  %150 = add i32 %147, %149
  %151 = sub i32 %147, 1
  %152 = mul i32 %147, %150
  %153 = urem i32 %152, 2
  %154 = icmp eq i32 %153, 0
  %155 = icmp slt i32 %148, 10
  %156 = and i1 %154, %155
  %157 = xor i1 %154, %155
  %158 = or i1 %156, %157
  %159 = or i1 %154, %155
  br i1 %158, label %160, label %648

; <label>:160:                                    ; preds = %146, %648
  store i64 0, i64* %11, align 8
  store i32 0, i32* %12, align 4
  %161 = load i32, i32* @x.151
  %162 = load i32, i32* @y.152
  %163 = sub i32 %161, 2079429592
  %164 = sub i32 %163, 1
  %165 = add i32 %164, 2079429592
  %166 = sub i32 %161, 1
  %167 = mul i32 %161, %165
  %168 = urem i32 %167, 2
  %169 = icmp eq i32 %168, 0
  %170 = icmp slt i32 %162, 10
  %171 = and i1 %169, %170
  %172 = xor i1 %169, %170
  %173 = or i1 %171, %172
  %174 = or i1 %169, %170
  br i1 %173, label %175, label %648

; <label>:175:                                    ; preds = %160
  br label %176

; <label>:176:                                    ; preds = %554, %175
  %177 = load i32, i32* %12, align 4
  %178 = sext i32 %177 to i64
  %179 = load i64, i64* %3, align 8
  %180 = icmp slt i64 %178, %179
  br i1 %180, label %181, label %560

; <label>:181:                                    ; preds = %176
  %182 = load i64, i64* %2, align 8
  call void @_ZNSaISt6vectorI4EdgeSaIS0_EEEC2Ev(%"class.std::allocator.23"* %14) #3
  invoke void @_ZNSt6vectorIS_I4EdgeSaIS0_EESaIS2_EEC2EmRKS3_(%"class.std::vector.21"* %13, i64 %182, %"class.std::allocator.23"* dereferenceable(1) %14)
          to label %183 unwind label %289

; <label>:183:                                    ; preds = %181
  %184 = load i32, i32* @x.151
  %185 = load i32, i32* @y.152
  %186 = sub i32 0, 1
  %187 = add i32 %184, %186
  %188 = sub i32 %184, 1
  %189 = mul i32 %184, %187
  %190 = urem i32 %189, 2
  %191 = icmp eq i32 %190, 0
  %192 = icmp slt i32 %185, 10
  %193 = and i1 %191, %192
  %194 = xor i1 %191, %192
  %195 = or i1 %193, %194
  %196 = or i1 %191, %192
  br i1 %195, label %197, label %649

; <label>:197:                                    ; preds = %183, %649
  call void @_ZNSaISt6vectorI4EdgeSaIS0_EEED2Ev(%"class.std::allocator.23"* %14) #3
  store i32 0, i32* %15, align 4
  %198 = load i32, i32* @x.151
  %199 = load i32, i32* @y.152
  %200 = add i32 %198, 1397338373
  %201 = sub i32 %200, 1
  %202 = sub i32 %201, 1397338373
  %203 = sub i32 %198, 1
  %204 = mul i32 %198, %202
  %205 = urem i32 %204, 2
  %206 = icmp eq i32 %205, 0
  %207 = icmp slt i32 %199, 10
  %208 = xor i1 %206, true
  %209 = xor i1 %207, true
  %210 = xor i1 false, true
  %211 = and i1 %208, false
  %212 = and i1 %206, %210
  %213 = and i1 %209, false
  %214 = and i1 %207, %210
  %215 = or i1 %211, %212
  %216 = or i1 %213, %214
  %217 = xor i1 %215, %216
  %218 = or i1 %208, %209
  %219 = xor i1 %218, true
  %220 = or i1 false, %210
  %221 = and i1 %219, %220
  %222 = or i1 %217, %221
  %223 = or i1 %206, %207
  br i1 %222, label %224, label %649

; <label>:224:                                    ; preds = %197
  br label %225

; <label>:225:                                    ; preds = %363, %224
  %226 = load i32, i32* %15, align 4
  %227 = sext i32 %226 to i64
  %228 = load i64, i64* %3, align 8
  %229 = icmp slt i64 %227, %228
  br i1 %229, label %230, label %373

; <label>:230:                                    ; preds = %225
  %231 = load i32, i32* %12, align 4
  %232 = load i32, i32* %15, align 4
  %233 = icmp eq i32 %231, %232
  br i1 %233, label %234, label %293

; <label>:234:                                    ; preds = %230
  %235 = load i32, i32* @x.151
  %236 = load i32, i32* @y.152
  %237 = add i32 %235, 561750339
  %238 = sub i32 %237, 1
  %239 = sub i32 %238, 561750339
  %240 = sub i32 %235, 1
  %241 = mul i32 %235, %239
  %242 = urem i32 %241, 2
  %243 = icmp eq i32 %242, 0
  %244 = icmp slt i32 %236, 10
  %245 = xor i1 %243, true
  %246 = xor i1 %244, true
  %247 = xor i1 true, true
  %248 = and i1 %245, true
  %249 = and i1 %243, %247
  %250 = and i1 %246, true
  %251 = and i1 %244, %247
  %252 = or i1 %248, %249
  %253 = or i1 %250, %251
  %254 = xor i1 %252, %253
  %255 = or i1 %245, %246
  %256 = xor i1 %255, true
  %257 = or i1 true, %247
  %258 = and i1 %256, %257
  %259 = or i1 %254, %258
  %260 = or i1 %243, %244
  br i1 %259, label %261, label %650

; <label>:261:                                    ; preds = %234, %650
  %262 = load i32, i32* @x.151
  %263 = load i32, i32* @y.152
  %264 = sub i32 %262, 306908677
  %265 = sub i32 %264, 1
  %266 = add i32 %265, 306908677
  %267 = sub i32 %262, 1
  %268 = mul i32 %262, %266
  %269 = urem i32 %268, 2
  %270 = icmp eq i32 %269, 0
  %271 = icmp slt i32 %263, 10
  %272 = xor i1 %270, true
  %273 = xor i1 %271, true
  %274 = xor i1 true, true
  %275 = and i1 %272, true
  %276 = and i1 %270, %274
  %277 = and i1 %273, true
  %278 = and i1 %271, %274
  %279 = or i1 %275, %276
  %280 = or i1 %277, %278
  %281 = xor i1 %279, %280
  %282 = or i1 %272, %273
  %283 = xor i1 %282, true
  %284 = or i1 true, %274
  %285 = and i1 %283, %284
  %286 = or i1 %281, %285
  %287 = or i1 %270, %271
  br i1 %286, label %288, label %650

; <label>:288:                                    ; preds = %261
  br label %363

; <label>:289:                                    ; preds = %181
  %290 = landingpad { i8*, i32 }
          cleanup
  %291 = extractvalue { i8*, i32 } %290, 0
  store i8* %291, i8** %8, align 8
  %292 = extractvalue { i8*, i32 } %290, 1
  store i32 %292, i32* %9, align 4
  call void @_ZNSaISt6vectorI4EdgeSaIS0_EEED2Ev(%"class.std::allocator.23"* %14) #3
  br label %567

; <label>:293:                                    ; preds = %230
  %294 = load i32, i32* %15, align 4
  %295 = sext i32 %294 to i64
  %296 = call dereferenceable(16) %"struct.std::pair.36"* @_ZNSt6vectorISt4pairIxxESaIS1_EEixEm(%"class.std::vector.31"* %4, i64 %295) #3
  %297 = getelementptr inbounds %"struct.std::pair.36", %"struct.std::pair.36"* %296, i32 0, i32 1
  %298 = load i64, i64* %297, align 8
  %299 = getelementptr inbounds %struct.Edge, %struct.Edge* %16, i32 0, i32 0
  store i64 %298, i64* %299, align 8
  %300 = getelementptr inbounds %struct.Edge, %struct.Edge* %16, i32 0, i32 1
  store i64 1, i64* %300, align 8
  %301 = load i32, i32* %15, align 4
  %302 = sext i32 %301 to i64
  %303 = call dereferenceable(16) %"struct.std::pair.36"* @_ZNSt6vectorISt4pairIxxESaIS1_EEixEm(%"class.std::vector.31"* %4, i64 %302) #3
  %304 = getelementptr inbounds %"struct.std::pair.36", %"struct.std::pair.36"* %303, i32 0, i32 0
  %305 = load i64, i64* %304, align 8
  %306 = call dereferenceable(24) %"class.std::vector.26"* @_ZNSt6vectorIS_I4EdgeSaIS0_EESaIS2_EEixEm(%"class.std::vector.21"* %13, i64 %305) #3
  invoke void @_ZNSt6vectorI4EdgeSaIS0_EE9push_backERKS0_(%"class.std::vector.26"* %306, %struct.Edge* dereferenceable(16) %16)
          to label %307 unwind label %369

; <label>:307:                                    ; preds = %293
  %308 = load i32, i32* @x.151
  %309 = load i32, i32* @y.152
  %310 = sub i32 0, 1
  %311 = add i32 %308, %310
  %312 = sub i32 %308, 1
  %313 = mul i32 %308, %311
  %314 = urem i32 %313, 2
  %315 = icmp eq i32 %314, 0
  %316 = icmp slt i32 %309, 10
  %317 = and i1 %315, %316
  %318 = xor i1 %315, %316
  %319 = or i1 %317, %318
  %320 = or i1 %315, %316
  br i1 %319, label %321, label %651

; <label>:321:                                    ; preds = %307, %651
  %322 = load i32, i32* %15, align 4
  %323 = sext i32 %322 to i64
  %324 = call dereferenceable(16) %"struct.std::pair.36"* @_ZNSt6vectorISt4pairIxxESaIS1_EEixEm(%"class.std::vector.31"* %4, i64 %323) #3
  %325 = getelementptr inbounds %"struct.std::pair.36", %"struct.std::pair.36"* %324, i32 0, i32 0
  %326 = load i64, i64* %325, align 8
  %327 = getelementptr inbounds %struct.Edge, %struct.Edge* %16, i32 0, i32 0
  store i64 %326, i64* %327, align 8
  %328 = getelementptr inbounds %struct.Edge, %struct.Edge* %16, i32 0, i32 1
  store i64 1, i64* %328, align 8
  %329 = load i32, i32* %15, align 4
  %330 = sext i32 %329 to i64
  %331 = call dereferenceable(16) %"struct.std::pair.36"* @_ZNSt6vectorISt4pairIxxESaIS1_EEixEm(%"class.std::vector.31"* %4, i64 %330) #3
  %332 = getelementptr inbounds %"struct.std::pair.36", %"struct.std::pair.36"* %331, i32 0, i32 1
  %333 = load i64, i64* %332, align 8
  %334 = call dereferenceable(24) %"class.std::vector.26"* @_ZNSt6vectorIS_I4EdgeSaIS0_EESaIS2_EEixEm(%"class.std::vector.21"* %13, i64 %333) #3
  %335 = load i32, i32* @x.151
  %336 = load i32, i32* @y.152
  %337 = sub i32 %335, -243008501
  %338 = sub i32 %337, 1
  %339 = add i32 %338, -243008501
  %340 = sub i32 %335, 1
  %341 = mul i32 %335, %339
  %342 = urem i32 %341, 2
  %343 = icmp eq i32 %342, 0
  %344 = icmp slt i32 %336, 10
  %345 = xor i1 %343, true
  %346 = xor i1 %344, true
  %347 = xor i1 true, true
  %348 = and i1 %345, true
  %349 = and i1 %343, %347
  %350 = and i1 %346, true
  %351 = and i1 %344, %347
  %352 = or i1 %348, %349
  %353 = or i1 %350, %351
  %354 = xor i1 %352, %353
  %355 = or i1 %345, %346
  %356 = xor i1 %355, true
  %357 = or i1 true, %347
  %358 = and i1 %356, %357
  %359 = or i1 %354, %358
  %360 = or i1 %343, %344
  br i1 %359, label %361, label %651

; <label>:361:                                    ; preds = %321
  invoke void @_ZNSt6vectorI4EdgeSaIS0_EE9push_backERKS0_(%"class.std::vector.26"* %334, %struct.Edge* dereferenceable(16) %16)
          to label %362 unwind label %369

; <label>:362:                                    ; preds = %361
  br label %363

; <label>:363:                                    ; preds = %362, %288
  %364 = load i32, i32* %15, align 4
  %365 = add i32 %364, -30251676
  %366 = add i32 %365, 1
  %367 = sub i32 %366, -30251676
  %368 = add nsw i32 %364, 1
  store i32 %367, i32* %15, align 4
  br label %225

; <label>:369:                                    ; preds = %361, %293
  %370 = landingpad { i8*, i32 }
          cleanup
  %371 = extractvalue { i8*, i32 } %370, 0
  store i8* %371, i8** %8, align 8
  %372 = extractvalue { i8*, i32 } %370, 1
  store i32 %372, i32* %9, align 4
  br label %559

; <label>:373:                                    ; preds = %225
  store i32 0, i32* %17, align 4
  br label %374

; <label>:374:                                    ; preds = %504, %373
  %375 = load i32, i32* %17, align 4
  %376 = sext i32 %375 to i64
  %377 = load i64, i64* %2, align 8
  %378 = icmp slt i64 %376, %377
  br i1 %378, label %379, label %511

; <label>:379:                                    ; preds = %374
  call void @_ZNSt6vectorIxSaIxEEC2Ev(%"class.std::vector.0"* %18) #3
  call void @_ZNSt6vectorIxSaIxEEC2Ev(%"class.std::vector.0"* %19) #3
  %380 = load i32, i32* %17, align 4
  invoke void @_Z8dijkstraRKSt6vectorIS_I4EdgeSaIS0_EESaIS2_EEiRS_IxSaIxEES9_(%"class.std::vector.21"* dereferenceable(24) %13, i32 %380, %"class.std::vector.0"* dereferenceable(24) %18, %"class.std::vector.0"* dereferenceable(24) %19)
          to label %381 unwind label %429

; <label>:381:                                    ; preds = %379
  store i8 1, i8* %20, align 1
  store i32 0, i32* %21, align 4
  br label %382

; <label>:382:                                    ; preds = %492, %381
  %383 = load i32, i32* %21, align 4
  %384 = sext i32 %383 to i64
  %385 = call i64 @_ZNKSt6vectorIxSaIxEE4sizeEv(%"class.std::vector.0"* %18) #3
  %386 = icmp ult i64 %384, %385
  br i1 %386, label %387, label %493

; <label>:387:                                    ; preds = %382
  %388 = load i32, i32* @x.151
  %389 = load i32, i32* @y.152
  %390 = sub i32 %388, -1196078708
  %391 = sub i32 %390, 1
  %392 = add i32 %391, -1196078708
  %393 = sub i32 %388, 1
  %394 = mul i32 %388, %392
  %395 = urem i32 %394, 2
  %396 = icmp eq i32 %395, 0
  %397 = icmp slt i32 %389, 10
  %398 = and i1 %396, %397
  %399 = xor i1 %396, %397
  %400 = or i1 %398, %399
  %401 = or i1 %396, %397
  br i1 %400, label %402, label %665

; <label>:402:                                    ; preds = %387, %665
  %403 = load i32, i32* %21, align 4
  %404 = sext i32 %403 to i64
  %405 = call dereferenceable(8) i64* @_ZNSt6vectorIxSaIxEEixEm(%"class.std::vector.0"* %18, i64 %404) #3
  %406 = load i64, i64* %405, align 8
  %407 = icmp eq i64 %406, 1152921504606846976
  %408 = load i32, i32* @x.151
  %409 = load i32, i32* @y.152
  %410 = add i32 %408, 497525355
  %411 = sub i32 %410, 1
  %412 = sub i32 %411, 497525355
  %413 = sub i32 %408, 1
  %414 = mul i32 %408, %412
  %415 = urem i32 %414, 2
  %416 = icmp eq i32 %415, 0
  %417 = icmp slt i32 %409, 10
  %418 = and i1 %416, %417
  %419 = xor i1 %416, %417
  %420 = or i1 %418, %419
  %421 = or i1 %416, %417
  br i1 %420, label %422, label %665

; <label>:422:                                    ; preds = %402
  br i1 %407, label %423, label %433

; <label>:423:                                    ; preds = %422
  %424 = load i64, i64* %11, align 8
  %425 = add i64 %424, -2498403445277008774
  %426 = add i64 %425, 1
  %427 = sub i64 %426, -2498403445277008774
  %428 = add nsw i64 %424, 1
  store i64 %427, i64* %11, align 8
  store i8 0, i8* %20, align 1
  br label %493

; <label>:429:                                    ; preds = %379
  %430 = landingpad { i8*, i32 }
          cleanup
  %431 = extractvalue { i8*, i32 } %430, 0
  store i8* %431, i8** %8, align 8
  %432 = extractvalue { i8*, i32 } %430, 1
  store i32 %432, i32* %9, align 4
  call void @_ZNSt6vectorIxSaIxEED2Ev(%"class.std::vector.0"* %19) #3
  call void @_ZNSt6vectorIxSaIxEED2Ev(%"class.std::vector.0"* %18) #3
  br label %559

; <label>:433:                                    ; preds = %422
  br label %434

; <label>:434:                                    ; preds = %433
  %435 = load i32, i32* @x.151
  %436 = load i32, i32* @y.152
  %437 = sub i32 %435, 1348705269
  %438 = sub i32 %437, 1
  %439 = add i32 %438, 1348705269
  %440 = sub i32 %435, 1
  %441 = mul i32 %435, %439
  %442 = urem i32 %441, 2
  %443 = icmp eq i32 %442, 0
  %444 = icmp slt i32 %436, 10
  %445 = xor i1 %443, true
  %446 = xor i1 %444, true
  %447 = xor i1 true, true
  %448 = and i1 %445, true
  %449 = and i1 %443, %447
  %450 = and i1 %446, true
  %451 = and i1 %444, %447
  %452 = or i1 %448, %449
  %453 = or i1 %450, %451
  %454 = xor i1 %452, %453
  %455 = or i1 %445, %446
  %456 = xor i1 %455, true
  %457 = or i1 true, %447
  %458 = and i1 %456, %457
  %459 = or i1 %454, %458
  %460 = or i1 %443, %444
  br i1 %459, label %461, label %671

; <label>:461:                                    ; preds = %434, %671
  %462 = load i32, i32* %21, align 4
  %463 = sub i32 %462, 1976678680
  %464 = add i32 %463, 1
  %465 = add i32 %464, 1976678680
  %466 = add nsw i32 %462, 1
  store i32 %465, i32* %21, align 4
  %467 = load i32, i32* @x.151
  %468 = load i32, i32* @y.152
  %469 = sub i32 0, 1
  %470 = add i32 %467, %469
  %471 = sub i32 %467, 1
  %472 = mul i32 %467, %470
  %473 = urem i32 %472, 2
  %474 = icmp eq i32 %473, 0
  %475 = icmp slt i32 %468, 10
  %476 = xor i1 %474, true
  %477 = xor i1 %475, true
  %478 = xor i1 true, true
  %479 = and i1 %476, true
  %480 = and i1 %474, %478
  %481 = and i1 %477, true
  %482 = and i1 %475, %478
  %483 = or i1 %479, %480
  %484 = or i1 %481, %482
  %485 = xor i1 %483, %484
  %486 = or i1 %476, %477
  %487 = xor i1 %486, true
  %488 = or i1 true, %478
  %489 = and i1 %487, %488
  %490 = or i1 %485, %489
  %491 = or i1 %474, %475
  br i1 %490, label %492, label %671

; <label>:492:                                    ; preds = %461
  br label %382

; <label>:493:                                    ; preds = %423, %382
  %494 = load i8, i8* %20, align 1
  %495 = trunc i8 %494 to i1
  br i1 %495, label %497, label %496

; <label>:496:                                    ; preds = %493
  store i32 11, i32* %22, align 4
  br label %498

; <label>:497:                                    ; preds = %493
  store i32 0, i32* %22, align 4
  br label %498

; <label>:498:                                    ; preds = %497, %496
  call void @_ZNSt6vectorIxSaIxEED2Ev(%"class.std::vector.0"* %19) #3
  call void @_ZNSt6vectorIxSaIxEED2Ev(%"class.std::vector.0"* %18) #3
  %499 = load i32, i32* %22, align 4
  br label %500

; <label>:500:                                    ; preds = %498
  %501 = icmp eq i32 %499, 11
  br i1 %501, label %511, label %502

; <label>:502:                                    ; preds = %500
  br label %503

; <label>:503:                                    ; preds = %502
  br label %504

; <label>:504:                                    ; preds = %503
  %505 = load i32, i32* %17, align 4
  %506 = sub i32 0, %505
  %507 = sub i32 0, 1
  %508 = add i32 %506, %507
  %509 = sub i32 0, %508
  %510 = add nsw i32 %505, 1
  store i32 %509, i32* %17, align 4
  br label %374

; <label>:511:                                    ; preds = %500, %374
  %512 = load i32, i32* @x.151
  %513 = load i32, i32* @y.152
  %514 = sub i32 %512, -1332229354
  %515 = sub i32 %514, 1
  %516 = add i32 %515, -1332229354
  %517 = sub i32 %512, 1
  %518 = mul i32 %512, %516
  %519 = urem i32 %518, 2
  %520 = icmp eq i32 %519, 0
  %521 = icmp slt i32 %513, 10
  %522 = and i1 %520, %521
  %523 = xor i1 %520, %521
  %524 = or i1 %522, %523
  %525 = or i1 %520, %521
  br i1 %524, label %526, label %709

; <label>:526:                                    ; preds = %511, %709
  call void @_ZNSt6vectorIS_I4EdgeSaIS0_EESaIS2_EED2Ev(%"class.std::vector.21"* %13) #3
  %527 = load i32, i32* @x.151
  %528 = load i32, i32* @y.152
  %529 = sub i32 %527, 128368959
  %530 = sub i32 %529, 1
  %531 = add i32 %530, 128368959
  %532 = sub i32 %527, 1
  %533 = mul i32 %527, %531
  %534 = urem i32 %533, 2
  %535 = icmp eq i32 %534, 0
  %536 = icmp slt i32 %528, 10
  %537 = xor i1 %535, true
  %538 = xor i1 %536, true
  %539 = xor i1 true, true
  %540 = and i1 %537, true
  %541 = and i1 %535, %539
  %542 = and i1 %538, true
  %543 = and i1 %536, %539
  %544 = or i1 %540, %541
  %545 = or i1 %542, %543
  %546 = xor i1 %544, %545
  %547 = or i1 %537, %538
  %548 = xor i1 %547, true
  %549 = or i1 true, %539
  %550 = and i1 %548, %549
  %551 = or i1 %546, %550
  %552 = or i1 %535, %536
  br i1 %551, label %553, label %709

; <label>:553:                                    ; preds = %526
  br label %554

; <label>:554:                                    ; preds = %553
  %555 = load i32, i32* %12, align 4
  %556 = sub i32 0, 1
  %557 = sub i32 %555, %556
  %558 = add nsw i32 %555, 1
  store i32 %557, i32* %12, align 4
  br label %176

; <label>:559:                                    ; preds = %429, %369
  call void @_ZNSt6vectorIS_I4EdgeSaIS0_EESaIS2_EED2Ev(%"class.std::vector.21"* %13) #3
  br label %567

; <label>:560:                                    ; preds = %176
  %561 = load i64, i64* %11, align 8
  %562 = invoke dereferenceable(272) %"class.std::basic_ostream"* @_ZNSolsEx(%"class.std::basic_ostream"* @_ZSt4cout, i64 %561)
          to label %563 unwind label %142

; <label>:563:                                    ; preds = %560
  %564 = invoke dereferenceable(272) %"class.std::basic_ostream"* @_ZNSolsEPFRSoS_E(%"class.std::basic_ostream"* %562, %"class.std::basic_ostream"* (%"class.std::basic_ostream"*)* @_ZSt4endlIcSt11char_traitsIcEERSt13basic_ostreamIT_T0_ES6_)
          to label %565 unwind label %142

; <label>:565:                                    ; preds = %563
  store i32 0, i32* %1, align 4
  store i32 1, i32* %22, align 4
  call void @_ZNSt6vectorISt4pairIxxESaIS1_EED2Ev(%"class.std::vector.31"* %4) #3
  %566 = load i32, i32* %1, align 4
  ret i32 %566

; <label>:567:                                    ; preds = %559, %289, %142
  call void @_ZNSt6vectorISt4pairIxxESaIS1_EED2Ev(%"class.std::vector.31"* %4) #3
  br label %568

; <label>:568:                                    ; preds = %567
  %569 = load i32, i32* @x.151
  %570 = load i32, i32* @y.152
  %571 = sub i32 0, 1
  %572 = add i32 %569, %571
  %573 = sub i32 %569, 1
  %574 = mul i32 %569, %572
  %575 = urem i32 %574, 2
  %576 = icmp eq i32 %575, 0
  %577 = icmp slt i32 %570, 10
  %578 = xor i1 %576, true
  %579 = xor i1 %577, true
  %580 = xor i1 true, true
  %581 = and i1 %578, true
  %582 = and i1 %576, %580
  %583 = and i1 %579, true
  %584 = and i1 %577, %580
  %585 = or i1 %581, %582
  %586 = or i1 %583, %584
  %587 = xor i1 %585, %586
  %588 = or i1 %578, %579
  %589 = xor i1 %588, true
  %590 = or i1 true, %580
  %591 = and i1 %589, %590
  %592 = or i1 %587, %591
  %593 = or i1 %576, %577
  br i1 %592, label %594, label %710

; <label>:594:                                    ; preds = %568, %710
  %595 = load i8*, i8** %8, align 8
  %596 = load i32, i32* %9, align 4
  %597 = insertvalue { i8*, i32 } undef, i8* %595, 0
  %598 = insertvalue { i8*, i32 } %597, i32 %596, 1
  %599 = load i32, i32* @x.151
  %600 = load i32, i32* @y.152
  %601 = sub i32 %599, -642775643
  %602 = sub i32 %601, 1
  %603 = add i32 %602, -642775643
  %604 = sub i32 %599, 1
  %605 = mul i32 %599, %603
  %606 = urem i32 %605, 2
  %607 = icmp eq i32 %606, 0
  %608 = icmp slt i32 %600, 10
  %609 = and i1 %607, %608
  %610 = xor i1 %607, %608
  %611 = or i1 %609, %610
  %612 = or i1 %607, %608
  br i1 %611, label %613, label %710

; <label>:613:                                    ; preds = %594
  resume { i8*, i32 } %598

; <label>:614:                                    ; preds = %61, %34
  %615 = load i64, i64* %6, align 8
  %616 = sub i64 %615, 7144804303283182351
  %617 = add i64 %616, -1
  %618 = add i64 %617, 7144804303283182351
  %619 = add nsw i64 %615, -1
  store i64 %618, i64* %6, align 8
  %620 = load i64, i64* %7, align 8
  %621 = sub i64 %620, -1757931997387120002
  %622 = sub i64 %621, -1
  %623 = add i64 %622, -1757931997387120002
  %624 = sub i64 %620, -1
  %625 = mul i64 %623, -1
  %626 = shl i64 %620, -1
  %627 = add i64 0, 3845109121467754639
  %628 = sub i64 %627, %620
  %629 = sub i64 %628, 3845109121467754639
  %630 = sub i64 0, %620
  %631 = sub i64 %629, 5184923152447730736
  %632 = add i64 %631, -1
  %633 = add i64 %632, 5184923152447730736
  %634 = add i64 %629, -1
  %635 = sub i64 0, -5509691343293994595
  %636 = sub i64 %635, %620
  %637 = add i64 %636, -5509691343293994595
  %638 = sub i64 0, %620
  %639 = sub i64 %637, 8859269549216314189
  %640 = add i64 %639, -1
  %641 = add i64 %640, 8859269549216314189
  %642 = add i64 %637, -1
  %643 = sub i64 %620, -8834570714622954832
  %644 = add i64 %643, -1
  %645 = add i64 %644, -8834570714622954832
  %646 = add nsw i64 %620, -1
  store i64 %645, i64* %7, align 8
  br label %61

; <label>:647:                                    ; preds = %110, %95
  br label %110

; <label>:648:                                    ; preds = %160, %146
  store i64 0, i64* %11, align 8
  store i32 0, i32* %12, align 4
  br label %160

; <label>:649:                                    ; preds = %197, %183
  call void @_ZNSaISt6vectorI4EdgeSaIS0_EEED2Ev(%"class.std::allocator.23"* %14) #3
  store i32 0, i32* %15, align 4
  br label %197

; <label>:650:                                    ; preds = %261, %234
  br label %261

; <label>:651:                                    ; preds = %321, %307
  %652 = load i32, i32* %15, align 4
  %653 = sext i32 %652 to i64
  %654 = call dereferenceable(16) %"struct.std::pair.36"* @_ZNSt6vectorISt4pairIxxESaIS1_EEixEm(%"class.std::vector.31"* %4, i64 %653) #3
  %655 = getelementptr inbounds %"struct.std::pair.36", %"struct.std::pair.36"* %654, i32 0, i32 0
  %656 = load i64, i64* %655, align 8
  %657 = getelementptr inbounds %struct.Edge, %struct.Edge* %16, i32 0, i32 0
  store i64 %656, i64* %657, align 8
  %658 = getelementptr inbounds %struct.Edge, %struct.Edge* %16, i32 0, i32 1
  store i64 1, i64* %658, align 8
  %659 = load i32, i32* %15, align 4
  %660 = sext i32 %659 to i64
  %661 = call dereferenceable(16) %"struct.std::pair.36"* @_ZNSt6vectorISt4pairIxxESaIS1_EEixEm(%"class.std::vector.31"* %4, i64 %660) #3
  %662 = getelementptr inbounds %"struct.std::pair.36", %"struct.std::pair.36"* %661, i32 0, i32 1
  %663 = load i64, i64* %662, align 8
  %664 = call dereferenceable(24) %"class.std::vector.26"* @_ZNSt6vectorIS_I4EdgeSaIS0_EESaIS2_EEixEm(%"class.std::vector.21"* %13, i64 %663) #3
  br label %321

; <label>:665:                                    ; preds = %402, %387
  %666 = load i32, i32* %21, align 4
  %667 = sext i32 %666 to i64
  %668 = call dereferenceable(8) i64* @_ZNSt6vectorIxSaIxEEixEm(%"class.std::vector.0"* %18, i64 %667) #3
  %669 = load i64, i64* %668, align 8
  %670 = icmp eq i64 %669, 1152921504606846976
  br label %402

; <label>:671:                                    ; preds = %461, %434
  %672 = load i32, i32* %21, align 4
  %673 = add i32 0, 1830222271
  %674 = sub i32 %673, %672
  %675 = sub i32 %674, 1830222271
  %676 = sub i32 0, %672
  %677 = sub i32 0, 1
  %678 = sub i32 %675, %677
  %679 = add i32 %675, 1
  %680 = sub i32 %672, -2117568384
  %681 = sub i32 %680, 1
  %682 = add i32 %681, -2117568384
  %683 = sub i32 %672, 1
  %684 = mul i32 %682, 1
  %685 = sub i32 %672, 1131605854
  %686 = sub i32 %685, 1
  %687 = add i32 %686, 1131605854
  %688 = sub i32 %672, 1
  %689 = mul i32 %687, 1
  %690 = add i32 %672, 2132699475
  %691 = sub i32 %690, 1
  %692 = sub i32 %691, 2132699475
  %693 = sub i32 %672, 1
  %694 = mul i32 %692, 1
  %695 = shl i32 %672, 1
  %696 = sub i32 0, -368112878
  %697 = sub i32 %696, %672
  %698 = add i32 %697, -368112878
  %699 = sub i32 0, %672
  %700 = sub i32 0, %698
  %701 = sub i32 0, 1
  %702 = add i32 %700, %701
  %703 = sub i32 0, %702
  %704 = add i32 %698, 1
  %705 = sub i32 %672, -1164578482
  %706 = add i32 %705, 1
  %707 = add i32 %706, -1164578482
  %708 = add nsw i32 %672, 1
  store i32 %707, i32* %21, align 4
  br label %461

; <label>:709:                                    ; preds = %526, %511
  call void @_ZNSt6vectorIS_I4EdgeSaIS0_EESaIS2_EED2Ev(%"class.std::vector.21"* %13) #3
  br label %526

; <label>:710:                                    ; preds = %594, %568
  %711 = load i8*, i8** %8, align 8
  %712 = load i32, i32* %9, align 4
  %713 = insertvalue { i8*, i32 } undef, i8* %711, 0
  %714 = insertvalue { i8*, i32 } %713, i32 %712, 1
  br label %594
}

declare dereferenceable(280) %"class.std::basic_istream"* @_ZNSirsERx(%"class.std::basic_istream"*, i64* dereferenceable(8)) #1

; Function Attrs: noinline uwtable
define linkonce_odr void @_ZNSt6vectorISt4pairIxxESaIS1_EE9push_backEOS1_(%"class.std::vector.31"*, %"struct.std::pair.36"* dereferenceable(16)) #0 comdat align 2 {
  %3 = alloca i1
  %4 = alloca i1
  %5 = load i32, i32* @x.153
  %6 = load i32, i32* @y.154
  %7 = sub i32 %5, -1256544284
  %8 = sub i32 %7, 1
  %9 = add i32 %8, -1256544284
  %10 = sub i32 %5, 1
  %11 = mul i32 %5, %9
  %12 = urem i32 %11, 2
  %13 = icmp eq i32 %12, 0
  store i1 %13, i1* %4
  %14 = icmp slt i32 %6, 10
  store i1 %14, i1* %3
  %15 = alloca i32
  store i32 1530539871, i32* %15
  br label %16

; <label>:16:                                     ; preds = %2, %67
  %17 = load i32, i32* %15
  switch i32 %17, label %18 [
    i32 1530539871, label %19
    i32 946325173, label %27
    i32 91674414, label %60
    i32 -1598558479, label %61
  ]

; <label>:18:                                     ; preds = %16
  br label %67

; <label>:19:                                     ; preds = %16
  %20 = load volatile i1, i1* %4
  %21 = load volatile i1, i1* %3
  %22 = and i1 %20, %21
  %23 = xor i1 %20, %21
  %24 = or i1 %22, %23
  %25 = or i1 %20, %21
  %26 = select i1 %24, i32 946325173, i32 -1598558479
  store i32 %26, i32* %15
  br label %67

; <label>:27:                                     ; preds = %16
  %28 = alloca %"class.std::vector.31"*, align 8
  %29 = alloca %"struct.std::pair.36"*, align 8
  store %"class.std::vector.31"* %0, %"class.std::vector.31"** %28, align 8
  store %"struct.std::pair.36"* %1, %"struct.std::pair.36"** %29, align 8
  %30 = load %"class.std::vector.31"*, %"class.std::vector.31"** %28, align 8
  %31 = load %"struct.std::pair.36"*, %"struct.std::pair.36"** %29, align 8
  %32 = call dereferenceable(16) %"struct.std::pair.36"* @_ZSt4moveIRSt4pairIxxEEONSt16remove_referenceIT_E4typeEOS4_(%"struct.std::pair.36"* dereferenceable(16) %31) #3
  call void @_ZNSt6vectorISt4pairIxxESaIS1_EE12emplace_backIJS1_EEEvDpOT_(%"class.std::vector.31"* %30, %"struct.std::pair.36"* dereferenceable(16) %32)
  %33 = load i32, i32* @x.153
  %34 = load i32, i32* @y.154
  %35 = sub i32 %33, 61470107
  %36 = sub i32 %35, 1
  %37 = add i32 %36, 61470107
  %38 = sub i32 %33, 1
  %39 = mul i32 %33, %37
  %40 = urem i32 %39, 2
  %41 = icmp eq i32 %40, 0
  %42 = icmp slt i32 %34, 10
  %43 = xor i1 %41, true
  %44 = xor i1 %42, true
  %45 = xor i1 true, true
  %46 = and i1 %43, true
  %47 = and i1 %41, %45
  %48 = and i1 %44, true
  %49 = and i1 %42, %45
  %50 = or i1 %46, %47
  %51 = or i1 %48, %49
  %52 = xor i1 %50, %51
  %53 = or i1 %43, %44
  %54 = xor i1 %53, true
  %55 = or i1 true, %45
  %56 = and i1 %54, %55
  %57 = or i1 %52, %56
  %58 = or i1 %41, %42
  %59 = select i1 %57, i32 91674414, i32 -1598558479
  store i32 %59, i32* %15
  br label %67

; <label>:60:                                     ; preds = %16
  ret void

; <label>:61:                                     ; preds = %16
  %62 = alloca %"class.std::vector.31"*, align 8
  %63 = alloca %"struct.std::pair.36"*, align 8
  store %"class.std::vector.31"* %0, %"class.std::vector.31"** %62, align 8
  store %"struct.std::pair.36"* %1, %"struct.std::pair.36"** %63, align 8
  %64 = load %"class.std::vector.31"*, %"class.std::vector.31"** %62, align 8
  %65 = load %"struct.std::pair.36"*, %"struct.std::pair.36"** %63, align 8
  %66 = call dereferenceable(16) %"struct.std::pair.36"* @_ZSt4moveIRSt4pairIxxEEONSt16remove_referenceIT_E4typeEOS4_(%"struct.std::pair.36"* dereferenceable(16) %65) #3
  call void @_ZNSt6vectorISt4pairIxxESaIS1_EE12emplace_backIJS1_EEEvDpOT_(%"class.std::vector.31"* %64, %"struct.std::pair.36"* dereferenceable(16) %66)
  store i32 946325173, i32* %15
  br label %67

; <label>:67:                                     ; preds = %61, %27, %19, %18
  br label %16
}

; Function Attrs: noinline uwtable
define linkonce_odr { i64, i64 } @_ZSt9make_pairIRxS0_ESt4pairINSt17__decay_and_stripIT_E6__typeENS2_IT0_E6__typeEEOS3_OS6_(i64* dereferenceable(8), i64* dereferenceable(8)) #0 comdat {
  %3 = alloca %"struct.std::pair.36", align 8
  %4 = alloca i64*, align 8
  %5 = alloca i64*, align 8
  store i64* %0, i64** %4, align 8
  store i64* %1, i64** %5, align 8
  %6 = load i64*, i64** %4, align 8
  %7 = call dereferenceable(8) i64* @_ZSt7forwardIRxEOT_RNSt16remove_referenceIS1_E4typeE(i64* dereferenceable(8) %6) #3
  %8 = load i64*, i64** %5, align 8
  %9 = call dereferenceable(8) i64* @_ZSt7forwardIRxEOT_RNSt16remove_referenceIS1_E4typeE(i64* dereferenceable(8) %8) #3
  call void @_ZNSt4pairIxxEC2IRxS2_vEEOT_OT0_(%"struct.std::pair.36"* %3, i64* dereferenceable(8) %7, i64* dereferenceable(8) %9)
  %10 = bitcast %"struct.std::pair.36"* %3 to { i64, i64 }*
  %11 = load { i64, i64 }, { i64, i64 }* %10, align 8
  ret { i64, i64 } %11
}

; Function Attrs: noinline nounwind uwtable
