; ModuleID = 'Project_CodeNet_C++1400/p02750/s131759547.cpp'
source_filename = "Project_CodeNet_C++1400/p02750/s131759547.cpp"
target datalayout = "e-m:e-p270:32:32-p271:32:32-p272:64:64-i64:64-f80:128-n8:16:32:64-S128"
target triple = "x86_64-pc-linux-gnu"

%"class.std::ios_base::Init" = type { i8 }
%"class.std::basic_istream" = type { i32 (...)**, i64, %"class.std::basic_ios" }
%"class.std::basic_ios" = type { %"class.std::ios_base", %"class.std::basic_ostream"*, i8, i8, %"class.std::basic_streambuf"*, %"class.std::ctype"*, %"class.std::num_put"*, %"class.std::num_get"* }
%"class.std::ios_base" = type { i32 (...)**, i64, i64, i32, i32, i32, %"struct.std::ios_base::_Callback_list"*, %"struct.std::ios_base::_Words", [8 x %"struct.std::ios_base::_Words"], i32, %"struct.std::ios_base::_Words"*, %"class.std::locale" }
%"struct.std::ios_base::_Callback_list" = type { %"struct.std::ios_base::_Callback_list"*, void (i32, %"class.std::ios_base"*, i32)*, i32, i32 }
%"struct.std::ios_base::_Words" = type { i8*, i64 }
%"class.std::locale" = type { %"class.std::locale::_Impl"* }
%"class.std::locale::_Impl" = type { i32, %"class.std::locale::facet"**, i64, %"class.std::locale::facet"**, i8** }
%"class.std::locale::facet" = type <{ i32 (...)**, i32, [4 x i8] }>
%"class.std::basic_ostream" = type { i32 (...)**, %"class.std::basic_ios" }
%"class.std::basic_streambuf" = type { i32 (...)**, i8*, i8*, i8*, i8*, i8*, i8*, %"class.std::locale" }
%"class.std::ctype" = type <{ %"class.std::locale::facet.base", [4 x i8], %struct.__locale_struct*, i8, [7 x i8], i32*, i32*, i16*, i8, [256 x i8], [256 x i8], i8, [6 x i8] }>
%"class.std::locale::facet.base" = type <{ i32 (...)**, i32 }>
%struct.__locale_struct = type { [13 x %struct.__locale_data*], i16*, i32*, i32*, [13 x i8*] }
%struct.__locale_data = type opaque
%"class.std::num_put" = type { %"class.std::locale::facet.base", [4 x i8] }
%"class.std::num_get" = type { %"class.std::locale::facet.base", [4 x i8] }
%"class.std::vector" = type { %"struct.std::_Vector_base" }
%"struct.std::_Vector_base" = type { %"struct.std::_Vector_base<int, std::allocator<int>>::_Vector_impl" }
%"struct.std::_Vector_base<int, std::allocator<int>>::_Vector_impl" = type { %"struct.std::_Vector_base<int, std::allocator<int>>::_Vector_impl_data" }
%"struct.std::_Vector_base<int, std::allocator<int>>::_Vector_impl_data" = type { i32*, i32*, i32* }
%"class.std::allocator" = type { i8 }
%"class.std::vector.0" = type { %"struct.std::_Vector_base.1" }
%"struct.std::_Vector_base.1" = type { %"struct.std::_Vector_base<std::vector<int>, std::allocator<std::vector<int>>>::_Vector_impl" }
%"struct.std::_Vector_base<std::vector<int>, std::allocator<std::vector<int>>>::_Vector_impl" = type { %"struct.std::_Vector_base<std::vector<int>, std::allocator<std::vector<int>>>::_Vector_impl_data" }
%"struct.std::_Vector_base<std::vector<int>, std::allocator<std::vector<int>>>::_Vector_impl_data" = type { %"class.std::vector"*, %"class.std::vector"*, %"class.std::vector"* }
%"class.std::allocator.2" = type { i8 }
%"class.__gnu_cxx::new_allocator" = type { i8 }
%"struct.__gnu_cxx::__ops::_Iter_less_iter" = type { i8 }
%"struct.__gnu_cxx::__ops::_Iter_less_val" = type { i8 }
%"struct.__gnu_cxx::__ops::_Iter_comp_iter" = type { %class.anon }
%class.anon = type { %"class.std::vector"*, %"class.std::vector"* }
%"struct.__gnu_cxx::__ops::_Iter_comp_val" = type { %class.anon }
%"struct.__gnu_cxx::__ops::_Val_comp_iter" = type { %class.anon }
%"class.__gnu_cxx::new_allocator.3" = type { i8 }

$_ZNSt6vectorIiSaIiEEC2EmRKS0_ = comdat any

$_ZNSt6vectorIiSaIiEE9push_backERKi = comdat any

$_ZNSt6vectorIiSaIiEEC2EmRKiRKS0_ = comdat any

$_ZNSt6vectorIS_IiSaIiEESaIS1_EEC2EmRKS1_RKS2_ = comdat any

$_ZNSt6vectorIS_IiSaIiEESaIS1_EED2Ev = comdat any

$_ZNSt6vectorIiSaIiEE17_S_check_init_lenEmRKS0_ = comdat any

$_ZNSt6vectorIiSaIiEE21_M_default_initializeEm = comdat any

$_ZNSt12_Vector_baseIiSaIiEED2Ev = comdat any

$__clang_call_terminate = comdat any

$_ZNSt12_Vector_baseIiSaIiEE17_M_create_storageEm = comdat any

$_ZNSt12_Vector_baseIiSaIiEE11_M_allocateEm = comdat any

$_ZNSt16allocator_traitsISaIiEE8allocateERS0_m = comdat any

$_ZN9__gnu_cxx13new_allocatorIiE8allocateEmPKv = comdat any

$_ZNSt27__uninitialized_default_n_1ILb1EE18__uninit_default_nIPimEET_S3_T0_ = comdat any

$_ZSt10__fill_n_aIPimiET_S1_T0_RKT1_St26random_access_iterator_tag = comdat any

$_ZNSt6vectorIiSaIiEE17_M_realloc_insertIJRKiEEEvN9__gnu_cxx17__normal_iteratorIPiS1_EEDpOT_ = comdat any

$_ZNKSt6vectorIiSaIiEE12_M_check_lenEmPKc = comdat any

$_ZSt6__sortIN9__gnu_cxx17__normal_iteratorIPiSt6vectorIiSaIiEEEENS0_5__ops15_Iter_less_iterEEvT_S9_T0_ = comdat any

$_ZSt16__introsort_loopIN9__gnu_cxx17__normal_iteratorIPiSt6vectorIiSaIiEEEElNS0_5__ops15_Iter_less_iterEEvT_S9_T0_T1_ = comdat any

$_ZSt22__final_insertion_sortIN9__gnu_cxx17__normal_iteratorIPiSt6vectorIiSaIiEEEENS0_5__ops15_Iter_less_iterEEvT_S9_T0_ = comdat any

$_ZSt14__partial_sortIN9__gnu_cxx17__normal_iteratorIPiSt6vectorIiSaIiEEEENS0_5__ops15_Iter_less_iterEEvT_S9_S9_T0_ = comdat any

$_ZSt27__unguarded_partition_pivotIN9__gnu_cxx17__normal_iteratorIPiSt6vectorIiSaIiEEEENS0_5__ops15_Iter_less_iterEET_S9_S9_T0_ = comdat any

$_ZSt13__heap_selectIN9__gnu_cxx17__normal_iteratorIPiSt6vectorIiSaIiEEEENS0_5__ops15_Iter_less_iterEEvT_S9_S9_T0_ = comdat any

$_ZSt11__sort_heapIN9__gnu_cxx17__normal_iteratorIPiSt6vectorIiSaIiEEEENS0_5__ops15_Iter_less_iterEEvT_S9_RT0_ = comdat any

$_ZSt11__make_heapIN9__gnu_cxx17__normal_iteratorIPiSt6vectorIiSaIiEEEENS0_5__ops15_Iter_less_iterEEvT_S9_RT0_ = comdat any

$_ZSt10__pop_heapIN9__gnu_cxx17__normal_iteratorIPiSt6vectorIiSaIiEEEENS0_5__ops15_Iter_less_iterEEvT_S9_S9_RT0_ = comdat any

$_ZSt13__adjust_heapIN9__gnu_cxx17__normal_iteratorIPiSt6vectorIiSaIiEEEEliNS0_5__ops15_Iter_less_iterEEvT_T0_SA_T1_T2_ = comdat any

$_ZSt11__push_heapIN9__gnu_cxx17__normal_iteratorIPiSt6vectorIiSaIiEEEEliNS0_5__ops14_Iter_less_valEEvT_T0_SA_T1_RT2_ = comdat any

$_ZSt22__move_median_to_firstIN9__gnu_cxx17__normal_iteratorIPiSt6vectorIiSaIiEEEENS0_5__ops15_Iter_less_iterEEvT_S9_S9_S9_T0_ = comdat any

$_ZSt21__unguarded_partitionIN9__gnu_cxx17__normal_iteratorIPiSt6vectorIiSaIiEEEENS0_5__ops15_Iter_less_iterEET_S9_S9_S9_T0_ = comdat any

$_ZSt16__insertion_sortIN9__gnu_cxx17__normal_iteratorIPiSt6vectorIiSaIiEEEENS0_5__ops15_Iter_less_iterEEvT_S9_T0_ = comdat any

$_ZSt26__unguarded_insertion_sortIN9__gnu_cxx17__normal_iteratorIPiSt6vectorIiSaIiEEEENS0_5__ops15_Iter_less_iterEEvT_S9_T0_ = comdat any

$_ZSt25__unguarded_linear_insertIN9__gnu_cxx17__normal_iteratorIPiSt6vectorIiSaIiEEEENS0_5__ops14_Val_less_iterEEvT_T0_ = comdat any

$_ZNSt6vectorIiSaIiEE18_M_fill_initializeEmRKi = comdat any

$_ZNSt6vectorIS_IiSaIiEESaIS1_EE17_S_check_init_lenEmRKS2_ = comdat any

$_ZNSt6vectorIS_IiSaIiEESaIS1_EE18_M_fill_initializeEmRKS1_ = comdat any

$_ZNSt12_Vector_baseISt6vectorIiSaIiEESaIS2_EED2Ev = comdat any

$_ZNSt12_Vector_baseISt6vectorIiSaIiEESaIS2_EE17_M_create_storageEm = comdat any

$_ZNSt12_Vector_baseISt6vectorIiSaIiEESaIS2_EE11_M_allocateEm = comdat any

$_ZNSt16allocator_traitsISaISt6vectorIiSaIiEEEE8allocateERS3_m = comdat any

$_ZN9__gnu_cxx13new_allocatorISt6vectorIiSaIiEEE8allocateEmPKv = comdat any

$_ZNSt22__uninitialized_fill_nILb0EE15__uninit_fill_nIPSt6vectorIiSaIiEEmS4_EET_S6_T0_RKT1_ = comdat any

$_ZNSt6vectorIiSaIiEEC2ERKS1_ = comdat any

$_ZNSt12_Destroy_auxILb0EE9__destroyIPSt6vectorIiSaIiEEEEvT_S6_ = comdat any

@_ZStL8__ioinit = internal global %"class.std::ios_base::Init" zeroinitializer, align 1
@__dso_handle = external hidden global i8
@_ZSt3cin = external global %"class.std::basic_istream", align 8
@_ZSt4cout = external global %"class.std::basic_ostream", align 8
@.str = private unnamed_addr constant [2 x i8] c"\0A\00", align 1
@.str.1 = private unnamed_addr constant [49 x i8] c"cannot create std::vector larger than max_size()\00", align 1
@.str.2 = private unnamed_addr constant [26 x i8] c"vector::_M_realloc_insert\00", align 1
@llvm.global_ctors = appending global [1 x { i32, void ()*, i8* }] [{ i32, void ()*, i8* } { i32 65535, void ()* @_GLOBAL__sub_I_s131759547.cpp, i8* null }]

; Function Attrs: minsize optsize
declare void @_ZNSt8ios_base4InitC1Ev(%"class.std::ios_base::Init"* nonnull align 1 dereferenceable(1)) unnamed_addr #0

; Function Attrs: minsize nounwind optsize
declare void @_ZNSt8ios_base4InitD1Ev(%"class.std::ios_base::Init"* nonnull align 1 dereferenceable(1)) unnamed_addr #1

; Function Attrs: nofree nounwind
declare i32 @__cxa_atexit(void (i8*)*, i8*, i8*) local_unnamed_addr #2

; Function Attrs: minsize norecurse optsize sspstrong uwtable
define dso_local i32 @main() local_unnamed_addr #3 personality i8* bitcast (i32 (...)* @__gxx_personality_v0 to i8*) {
  %1 = alloca i32, align 4
  %2 = alloca i32, align 4
  %3 = alloca %"class.std::vector", align 8
  %4 = alloca %"class.std::allocator", align 1
  %5 = alloca %"class.std::vector", align 8
  %6 = alloca %"class.std::allocator", align 1
  %7 = alloca %"class.std::vector", align 8
  %8 = alloca %"class.std::allocator", align 1
  %9 = alloca %"class.std::vector", align 8
  %10 = alloca %"class.std::vector.0", align 8
  %11 = alloca %"class.std::vector", align 8
  %12 = alloca i32, align 4
  %13 = alloca %"class.std::allocator", align 1
  %14 = alloca %"class.std::allocator.2", align 1
  %15 = tail call zeroext i1 @_ZNSt8ios_base15sync_with_stdioEb(i1 zeroext false) #24
  %16 = load i8*, i8** bitcast (%"class.std::basic_istream"* @_ZSt3cin to i8**), align 8, !tbaa !5
  %17 = getelementptr i8, i8* %16, i64 -24
  %18 = bitcast i8* %17 to i64*
  %19 = load i64, i64* %18, align 8
  %20 = add nsw i64 %19, 216
  %21 = getelementptr inbounds i8, i8* bitcast (%"class.std::basic_istream"* @_ZSt3cin to i8*), i64 %20
  %22 = bitcast i8* %21 to %"class.std::basic_ostream"**
  store %"class.std::basic_ostream"* null, %"class.std::basic_ostream"** %22, align 8, !tbaa !8
  %23 = bitcast i32* %1 to i8*
  call void @llvm.lifetime.start.p0i8(i64 4, i8* nonnull %23) #25
  %24 = bitcast i32* %2 to i8*
  call void @llvm.lifetime.start.p0i8(i64 4, i8* nonnull %24) #25
  %25 = call nonnull align 8 dereferenceable(16) %"class.std::basic_istream"* @_ZNSirsERi(%"class.std::basic_istream"* nonnull align 8 dereferenceable(16) @_ZSt3cin, i32* nonnull align 4 dereferenceable(4) %1) #24
  %26 = call nonnull align 8 dereferenceable(16) %"class.std::basic_istream"* @_ZNSirsERi(%"class.std::basic_istream"* nonnull align 8 dereferenceable(16) %25, i32* nonnull align 4 dereferenceable(4) %2) #24
  %27 = bitcast %"class.std::vector"* %3 to i8*
  call void @llvm.lifetime.start.p0i8(i64 24, i8* nonnull %27) #25
  %28 = load i32, i32* %1, align 4, !tbaa !13
  %29 = add nsw i32 %28, 1
  %30 = sext i32 %29 to i64
  %31 = getelementptr inbounds %"class.std::allocator", %"class.std::allocator"* %4, i64 0, i32 0
  call void @llvm.lifetime.start.p0i8(i64 1, i8* nonnull %31) #25
  call void @_ZNSt6vectorIiSaIiEEC2EmRKS0_(%"class.std::vector"* nonnull align 8 dereferenceable(24) %3, i64 %30, %"class.std::allocator"* nonnull align 1 dereferenceable(1) %4) #24
  call void @llvm.lifetime.end.p0i8(i64 1, i8* nonnull %31) #25
  %32 = bitcast %"class.std::vector"* %5 to i8*
  call void @llvm.lifetime.start.p0i8(i64 24, i8* nonnull %32) #25
  %33 = load i32, i32* %1, align 4, !tbaa !13
  %34 = add nsw i32 %33, 1
  %35 = sext i32 %34 to i64
  %36 = getelementptr inbounds %"class.std::allocator", %"class.std::allocator"* %6, i64 0, i32 0
  call void @llvm.lifetime.start.p0i8(i64 1, i8* nonnull %36) #25
  invoke void @_ZNSt6vectorIiSaIiEEC2EmRKS0_(%"class.std::vector"* nonnull align 8 dereferenceable(24) %5, i64 %35, %"class.std::allocator"* nonnull align 1 dereferenceable(1) %6) #24
          to label %37 unwind label %57

37:                                               ; preds = %0
  call void @llvm.lifetime.end.p0i8(i64 1, i8* nonnull %36) #25
  %38 = bitcast %"class.std::vector"* %7 to i8*
  call void @llvm.lifetime.start.p0i8(i64 24, i8* nonnull %38) #25
  %39 = load i32, i32* %1, align 4, !tbaa !13
  %40 = sext i32 %39 to i64
  %41 = getelementptr inbounds %"class.std::allocator", %"class.std::allocator"* %8, i64 0, i32 0
  call void @llvm.lifetime.start.p0i8(i64 1, i8* nonnull %41) #25
  invoke void @_ZNSt6vectorIiSaIiEEC2EmRKS0_(%"class.std::vector"* nonnull align 8 dereferenceable(24) %7, i64 %40, %"class.std::allocator"* nonnull align 1 dereferenceable(1) %8) #24
          to label %42 unwind label %59

42:                                               ; preds = %37
  call void @llvm.lifetime.end.p0i8(i64 1, i8* nonnull %41) #25
  %43 = bitcast %"class.std::vector"* %9 to i8*
  call void @llvm.lifetime.start.p0i8(i64 24, i8* nonnull %43) #25
  call void @llvm.memset.p0i8.i64(i8* noundef nonnull align 8 dereferenceable(24) %43, i8 0, i64 24, i1 false) #25
  %44 = getelementptr inbounds %"class.std::vector", %"class.std::vector"* %3, i64 0, i32 0, i32 0, i32 0, i32 0
  %45 = getelementptr inbounds %"class.std::vector", %"class.std::vector"* %5, i64 0, i32 0, i32 0, i32 0, i32 0
  %46 = getelementptr inbounds %"class.std::vector", %"class.std::vector"* %7, i64 0, i32 0, i32 0, i32 0, i32 0
  br label %47

47:                                               ; preds = %83, %42
  %48 = phi i64 [ %84, %83 ], [ 1, %42 ]
  %49 = load i32, i32* %1, align 4, !tbaa !13
  %50 = sext i32 %49 to i64
  %51 = icmp sgt i64 %48, %50
  br i1 %51, label %52, label %61

52:                                               ; preds = %47
  %53 = getelementptr inbounds %"class.std::vector", %"class.std::vector"* %9, i64 0, i32 0, i32 0, i32 0, i32 0
  %54 = load i32*, i32** %53, align 8, !tbaa !15
  %55 = getelementptr inbounds %"class.std::vector", %"class.std::vector"* %9, i64 0, i32 0, i32 0, i32 0, i32 1
  %56 = load i32*, i32** %55, align 8, !tbaa !15
  invoke void @_ZSt6__sortIN9__gnu_cxx17__normal_iteratorIPiSt6vectorIiSaIiEEEENS0_5__ops15_Iter_less_iterEEvT_S9_T0_(i32* %54, i32* %56) #24
          to label %85 unwind label %140

57:                                               ; preds = %0
  %58 = landingpad { i8*, i32 }
          cleanup
  call void @llvm.lifetime.end.p0i8(i64 1, i8* nonnull %36) #25
  br label %245

59:                                               ; preds = %37
  %60 = landingpad { i8*, i32 }
          cleanup
  call void @llvm.lifetime.end.p0i8(i64 1, i8* nonnull %41) #25
  br label %242

61:                                               ; preds = %47
  %62 = load i32*, i32** %44, align 8, !tbaa !16
  %63 = getelementptr inbounds i32, i32* %62, i64 %48
  %64 = invoke nonnull align 8 dereferenceable(16) %"class.std::basic_istream"* @_ZNSirsERi(%"class.std::basic_istream"* nonnull align 8 dereferenceable(16) @_ZSt3cin, i32* nonnull align 4 dereferenceable(4) %63) #24
          to label %65 unwind label %81

65:                                               ; preds = %61
  %66 = load i32*, i32** %45, align 8, !tbaa !16
  %67 = getelementptr inbounds i32, i32* %66, i64 %48
  %68 = invoke nonnull align 8 dereferenceable(16) %"class.std::basic_istream"* @_ZNSirsERi(%"class.std::basic_istream"* nonnull align 8 dereferenceable(16) %64, i32* nonnull align 4 dereferenceable(4) %67) #24
          to label %69 unwind label %81

69:                                               ; preds = %65
  %70 = add nsw i64 %48, -1
  %71 = load i32*, i32** %46, align 8, !tbaa !16
  %72 = getelementptr inbounds i32, i32* %71, i64 %70
  %73 = trunc i64 %48 to i32
  store i32 %73, i32* %72, align 4, !tbaa !13
  %74 = load i32*, i32** %44, align 8, !tbaa !16
  %75 = getelementptr inbounds i32, i32* %74, i64 %48
  %76 = load i32, i32* %75, align 4, !tbaa !13
  %77 = icmp eq i32 %76, 0
  br i1 %77, label %78, label %83

78:                                               ; preds = %69
  %79 = load i32*, i32** %45, align 8, !tbaa !16
  %80 = getelementptr inbounds i32, i32* %79, i64 %48
  invoke void @_ZNSt6vectorIiSaIiEE9push_backERKi(%"class.std::vector"* nonnull align 8 dereferenceable(24) %9, i32* nonnull align 4 dereferenceable(4) %80) #24
          to label %83 unwind label %81

81:                                               ; preds = %78, %65, %61
  %82 = landingpad { i8*, i32 }
          cleanup
  br label %238

83:                                               ; preds = %69, %78
  %84 = add nuw nsw i64 %48, 1
  br label %47, !llvm.loop !18

85:                                               ; preds = %52
  %86 = load i32*, i32** %46, align 8, !tbaa !15
  %87 = getelementptr inbounds %"class.std::vector", %"class.std::vector"* %7, i64 0, i32 0, i32 0, i32 0, i32 1
  %88 = load i32*, i32** %87, align 8, !tbaa !15
  %89 = icmp eq i32* %86, %88
  br i1 %89, label %107, label %90

90:                                               ; preds = %85
  %91 = ptrtoint i32* %88 to i64
  %92 = ptrtoint i32* %86 to i64
  %93 = sub i64 %91, %92
  %94 = ashr exact i64 %93, 2
  %95 = call i64 @llvm.ctlz.i64(i64 %94, i1 true) #25, !range !20
  %96 = shl nuw nsw i64 %95, 1
  %97 = xor i64 %96, 126
  call fastcc void @"_ZSt16__introsort_loopIN9__gnu_cxx17__normal_iteratorIPiSt6vectorIiSaIiEEEElNS0_5__ops15_Iter_comp_iterIZ4mainE3$_0EEEvT_SB_T0_T1_"(i32* %86, i32* %88, i64 %97, %"class.std::vector"* nonnull %3, %"class.std::vector"* nonnull %5) #26
  %98 = icmp sgt i64 %93, 64
  br i1 %98, label %99, label %106

99:                                               ; preds = %90
  %100 = getelementptr inbounds i32, i32* %86, i64 16
  call fastcc void @"_ZSt16__insertion_sortIN9__gnu_cxx17__normal_iteratorIPiSt6vectorIiSaIiEEEENS0_5__ops15_Iter_comp_iterIZ4mainE3$_0EEEvT_SB_T0_"(i32* %86, i32* nonnull %100, %"class.std::vector"* nonnull %3, %"class.std::vector"* nonnull %5) #26
  br label %101

101:                                              ; preds = %104, %99
  %102 = phi i32* [ %100, %99 ], [ %105, %104 ]
  %103 = icmp eq i32* %102, %88
  br i1 %103, label %107, label %104

104:                                              ; preds = %101
  call fastcc void @"_ZSt25__unguarded_linear_insertIN9__gnu_cxx17__normal_iteratorIPiSt6vectorIiSaIiEEEENS0_5__ops14_Val_comp_iterIZ4mainE3$_0EEEvT_T0_"(i32* nonnull %102, %"class.std::vector"* nonnull %3, %"class.std::vector"* nonnull %5) #26
  %105 = getelementptr inbounds i32, i32* %102, i64 1
  br label %101, !llvm.loop !21

106:                                              ; preds = %90
  call fastcc void @"_ZSt16__insertion_sortIN9__gnu_cxx17__normal_iteratorIPiSt6vectorIiSaIiEEEENS0_5__ops15_Iter_comp_iterIZ4mainE3$_0EEEvT_SB_T0_"(i32* %86, i32* %88, %"class.std::vector"* nonnull %3, %"class.std::vector"* nonnull %5) #26
  br label %107

107:                                              ; preds = %101, %106, %85
  %108 = bitcast %"class.std::vector.0"* %10 to i8*
  call void @llvm.lifetime.start.p0i8(i64 24, i8* nonnull %108) #25
  %109 = load i32, i32* %1, align 4, !tbaa !13
  %110 = bitcast %"class.std::vector"* %11 to i8*
  call void @llvm.lifetime.start.p0i8(i64 24, i8* nonnull %110) #25
  %111 = bitcast i32* %12 to i8*
  call void @llvm.lifetime.start.p0i8(i64 4, i8* nonnull %111) #25
  %112 = load i32, i32* %2, align 4, !tbaa !13
  %113 = add nsw i32 %112, 1
  store i32 %113, i32* %12, align 4, !tbaa !13
  %114 = getelementptr inbounds %"class.std::allocator", %"class.std::allocator"* %13, i64 0, i32 0
  call void @llvm.lifetime.start.p0i8(i64 1, i8* nonnull %114) #25
  invoke void @_ZNSt6vectorIiSaIiEEC2EmRKiRKS0_(%"class.std::vector"* nonnull align 8 dereferenceable(24) %11, i64 40, i32* nonnull align 4 dereferenceable(4) %12, %"class.std::allocator"* nonnull align 1 dereferenceable(1) %13) #24
          to label %115 unwind label %142

115:                                              ; preds = %107
  %116 = add nsw i32 %109, 1
  %117 = sext i32 %116 to i64
  %118 = getelementptr inbounds %"class.std::allocator.2", %"class.std::allocator.2"* %14, i64 0, i32 0
  call void @llvm.lifetime.start.p0i8(i64 1, i8* nonnull %118) #25
  invoke void @_ZNSt6vectorIS_IiSaIiEESaIS1_EEC2EmRKS1_RKS2_(%"class.std::vector.0"* nonnull align 8 dereferenceable(24) %10, i64 %117, %"class.std::vector"* nonnull align 8 dereferenceable(24) %11, %"class.std::allocator.2"* nonnull align 1 dereferenceable(1) %14) #24
          to label %119 unwind label %144

119:                                              ; preds = %115
  call void @llvm.lifetime.end.p0i8(i64 1, i8* nonnull %118) #25
  %120 = getelementptr inbounds %"class.std::vector", %"class.std::vector"* %11, i64 0, i32 0
  call void @_ZNSt12_Vector_baseIiSaIiEED2Ev(%"struct.std::_Vector_base"* nonnull align 8 dereferenceable(24) %120) #26
  call void @llvm.lifetime.end.p0i8(i64 1, i8* nonnull %114) #25
  call void @llvm.lifetime.end.p0i8(i64 4, i8* nonnull %111) #25
  call void @llvm.lifetime.end.p0i8(i64 24, i8* nonnull %110) #25
  %121 = getelementptr inbounds %"class.std::vector.0", %"class.std::vector.0"* %10, i64 0, i32 0, i32 0, i32 0, i32 0
  %122 = load %"class.std::vector"*, %"class.std::vector"** %121, align 8, !tbaa !22
  %123 = getelementptr inbounds %"class.std::vector", %"class.std::vector"* %122, i64 0, i32 0, i32 0, i32 0, i32 0
  %124 = load i32*, i32** %123, align 8, !tbaa !16
  store i32 0, i32* %124, align 4, !tbaa !13
  %125 = load i32*, i32** %46, align 8
  %126 = load i32*, i32** %44, align 8
  br label %127

127:                                              ; preds = %162, %119
  %128 = phi i32* [ %154, %162 ], [ %124, %119 ]
  %129 = phi i64 [ %163, %162 ], [ 1, %119 ]
  %130 = load i32, i32* %1, align 4, !tbaa !13
  %131 = sext i32 %130 to i64
  %132 = icmp sgt i64 %129, %131
  br i1 %132, label %133, label %149

133:                                              ; preds = %127
  %134 = sext i32 %130 to i64
  %135 = getelementptr inbounds %"class.std::vector", %"class.std::vector"* %122, i64 %134, i32 0, i32 0, i32 0, i32 0
  %136 = load i32*, i32** %135, align 8, !tbaa !16
  %137 = load i32*, i32** %53, align 8, !tbaa !15
  %138 = load i32*, i32** %55, align 8, !tbaa !15
  %139 = load i32, i32* %2, align 4
  br label %195

140:                                              ; preds = %52
  %141 = landingpad { i8*, i32 }
          cleanup
  br label %238

142:                                              ; preds = %107
  %143 = landingpad { i8*, i32 }
          cleanup
  br label %147

144:                                              ; preds = %115
  %145 = landingpad { i8*, i32 }
          cleanup
  call void @llvm.lifetime.end.p0i8(i64 1, i8* nonnull %118) #25
  %146 = getelementptr inbounds %"class.std::vector", %"class.std::vector"* %11, i64 0, i32 0
  call void @_ZNSt12_Vector_baseIiSaIiEED2Ev(%"struct.std::_Vector_base"* nonnull align 8 dereferenceable(24) %146) #26
  br label %147

147:                                              ; preds = %144, %142
  %148 = phi { i8*, i32 } [ %145, %144 ], [ %143, %142 ]
  call void @llvm.lifetime.end.p0i8(i64 1, i8* nonnull %114) #25
  call void @llvm.lifetime.end.p0i8(i64 4, i8* nonnull %111) #25
  call void @llvm.lifetime.end.p0i8(i64 24, i8* nonnull %110) #25
  br label %236

149:                                              ; preds = %127
  %150 = add nsw i64 %129, -1
  %151 = getelementptr inbounds i32, i32* %125, i64 %150
  %152 = load i32, i32* %151, align 4, !tbaa !13
  %153 = getelementptr inbounds %"class.std::vector", %"class.std::vector"* %122, i64 %129, i32 0, i32 0, i32 0, i32 0
  %154 = load i32*, i32** %153, align 8, !tbaa !16
  %155 = sext i32 %152 to i64
  %156 = getelementptr inbounds i32, i32* %126, i64 %155
  %157 = load i32*, i32** %45, align 8
  %158 = getelementptr inbounds i32, i32* %157, i64 %155
  br label %159

159:                                              ; preds = %193, %149
  %160 = phi i64 [ %194, %193 ], [ 0, %149 ]
  %161 = icmp eq i64 %160, 40
  br i1 %161, label %162, label %164

162:                                              ; preds = %159
  %163 = add nuw nsw i64 %129, 1
  br label %127, !llvm.loop !24

164:                                              ; preds = %159
  %165 = getelementptr inbounds i32, i32* %128, i64 %160
  %166 = load i32, i32* %165, align 4, !tbaa !13
  %167 = getelementptr inbounds i32, i32* %154, i64 %160
  store i32 %166, i32* %167, align 4, !tbaa !13
  %168 = load i32, i32* %156, align 4, !tbaa !13
  %169 = icmp sgt i32 %168, 0
  %170 = icmp ne i64 %160, 0
  %171 = select i1 %169, i1 %170, i1 false
  br i1 %171, label %172, label %193

172:                                              ; preds = %164
  %173 = load i32, i32* %2, align 4, !tbaa !13
  %174 = sext i32 %173 to i64
  %175 = add nsw i64 %174, 1
  %176 = add nuw i64 %160, 4294967295
  %177 = and i64 %176, 4294967295
  %178 = getelementptr inbounds i32, i32* %128, i64 %177
  %179 = load i32, i32* %178, align 4, !tbaa !13
  %180 = add nsw i32 %179, 1
  %181 = sext i32 %180 to i64
  %182 = add nuw nsw i32 %168, 1
  %183 = zext i32 %182 to i64
  %184 = mul nsw i64 %181, %183
  %185 = load i32, i32* %158, align 4, !tbaa !13
  %186 = sext i32 %185 to i64
  %187 = add nsw i64 %184, %186
  %188 = icmp sgt i64 %187, %174
  %189 = select i1 %188, i64 %175, i64 %187
  %190 = trunc i64 %189 to i32
  %191 = icmp sgt i32 %166, %190
  %192 = select i1 %191, i32 %190, i32 %166
  store i32 %192, i32* %167, align 4, !tbaa !13
  br label %193

193:                                              ; preds = %164, %172
  %194 = add nuw nsw i64 %160, 1
  br label %159, !llvm.loop !25

195:                                              ; preds = %133, %210
  %196 = phi i64 [ 0, %133 ], [ %215, %210 ]
  %197 = phi i32 [ 0, %133 ], [ %214, %210 ]
  %198 = icmp eq i64 %196, 40
  br i1 %198, label %199, label %201

199:                                              ; preds = %195
  %200 = invoke nonnull align 8 dereferenceable(8) %"class.std::basic_ostream"* @_ZNSolsEi(%"class.std::basic_ostream"* nonnull align 8 dereferenceable(8) @_ZSt4cout, i32 %197) #24
          to label %227 unwind label %234

201:                                              ; preds = %195
  %202 = getelementptr inbounds i32, i32* %136, i64 %196
  %203 = load i32, i32* %202, align 4, !tbaa !13
  %204 = trunc i64 %196 to i32
  br label %205

205:                                              ; preds = %216, %201
  %206 = phi i32 [ %204, %201 ], [ %223, %216 ]
  %207 = phi i32* [ %137, %201 ], [ %226, %216 ]
  %208 = phi i32 [ %203, %201 ], [ %225, %216 ]
  %209 = icmp eq i32* %207, %138
  br i1 %209, label %210, label %216

210:                                              ; preds = %205
  %211 = icmp sgt i32 %208, %139
  %212 = icmp slt i32 %197, %206
  %213 = select i1 %212, i32 %206, i32 %197
  %214 = select i1 %211, i32 %197, i32 %213
  %215 = add nuw nsw i64 %196, 1
  br label %195, !llvm.loop !26

216:                                              ; preds = %205
  %217 = load i32, i32* %207, align 4, !tbaa !13
  %218 = add i32 %217, 1
  %219 = add i32 %218, %208
  %220 = icmp sgt i32 %219, %139
  %221 = xor i1 %220, true
  %222 = zext i1 %221 to i32
  %223 = add nuw nsw i32 %206, %222
  %224 = select i1 %220, i32 0, i32 %218
  %225 = add nsw i32 %224, %208
  %226 = getelementptr inbounds i32, i32* %207, i64 1
  br label %205

227:                                              ; preds = %199
  %228 = invoke nonnull align 8 dereferenceable(8) %"class.std::basic_ostream"* @_ZStlsISt11char_traitsIcEERSt13basic_ostreamIcT_ES5_PKc(%"class.std::basic_ostream"* nonnull align 8 dereferenceable(8) %200, i8* getelementptr inbounds ([2 x i8], [2 x i8]* @.str, i64 0, i64 0)) #24
          to label %229 unwind label %234

229:                                              ; preds = %227
  call void @_ZNSt6vectorIS_IiSaIiEESaIS1_EED2Ev(%"class.std::vector.0"* nonnull align 8 dereferenceable(24) %10) #26
  call void @llvm.lifetime.end.p0i8(i64 24, i8* nonnull %108) #25
  %230 = getelementptr inbounds %"class.std::vector", %"class.std::vector"* %9, i64 0, i32 0
  call void @_ZNSt12_Vector_baseIiSaIiEED2Ev(%"struct.std::_Vector_base"* nonnull align 8 dereferenceable(24) %230) #26
  call void @llvm.lifetime.end.p0i8(i64 24, i8* nonnull %43) #25
  %231 = getelementptr inbounds %"class.std::vector", %"class.std::vector"* %7, i64 0, i32 0
  call void @_ZNSt12_Vector_baseIiSaIiEED2Ev(%"struct.std::_Vector_base"* nonnull align 8 dereferenceable(24) %231) #26
  call void @llvm.lifetime.end.p0i8(i64 24, i8* nonnull %38) #25
  %232 = getelementptr inbounds %"class.std::vector", %"class.std::vector"* %5, i64 0, i32 0
  call void @_ZNSt12_Vector_baseIiSaIiEED2Ev(%"struct.std::_Vector_base"* nonnull align 8 dereferenceable(24) %232) #26
  call void @llvm.lifetime.end.p0i8(i64 24, i8* nonnull %32) #25
  %233 = getelementptr inbounds %"class.std::vector", %"class.std::vector"* %3, i64 0, i32 0
  call void @_ZNSt12_Vector_baseIiSaIiEED2Ev(%"struct.std::_Vector_base"* nonnull align 8 dereferenceable(24) %233) #26
  call void @llvm.lifetime.end.p0i8(i64 24, i8* nonnull %27) #25
  call void @llvm.lifetime.end.p0i8(i64 4, i8* nonnull %24) #25
  call void @llvm.lifetime.end.p0i8(i64 4, i8* nonnull %23) #25
  ret i32 0

234:                                              ; preds = %227, %199
  %235 = landingpad { i8*, i32 }
          cleanup
  call void @_ZNSt6vectorIS_IiSaIiEESaIS1_EED2Ev(%"class.std::vector.0"* nonnull align 8 dereferenceable(24) %10) #26
  br label %236

236:                                              ; preds = %234, %147
  %237 = phi { i8*, i32 } [ %235, %234 ], [ %148, %147 ]
  call void @llvm.lifetime.end.p0i8(i64 24, i8* nonnull %108) #25
  br label %238

238:                                              ; preds = %236, %140, %81
  %239 = phi { i8*, i32 } [ %82, %81 ], [ %237, %236 ], [ %141, %140 ]
  %240 = getelementptr inbounds %"class.std::vector", %"class.std::vector"* %9, i64 0, i32 0
  call void @_ZNSt12_Vector_baseIiSaIiEED2Ev(%"struct.std::_Vector_base"* nonnull align 8 dereferenceable(24) %240) #26
  call void @llvm.lifetime.end.p0i8(i64 24, i8* nonnull %43) #25
  %241 = getelementptr inbounds %"class.std::vector", %"class.std::vector"* %7, i64 0, i32 0
  call void @_ZNSt12_Vector_baseIiSaIiEED2Ev(%"struct.std::_Vector_base"* nonnull align 8 dereferenceable(24) %241) #26
  br label %242

242:                                              ; preds = %238, %59
  %243 = phi { i8*, i32 } [ %239, %238 ], [ %60, %59 ]
  call void @llvm.lifetime.end.p0i8(i64 24, i8* nonnull %38) #25
  %244 = getelementptr inbounds %"class.std::vector", %"class.std::vector"* %5, i64 0, i32 0
  call void @_ZNSt12_Vector_baseIiSaIiEED2Ev(%"struct.std::_Vector_base"* nonnull align 8 dereferenceable(24) %244) #26
  br label %245

245:                                              ; preds = %242, %57
  %246 = phi { i8*, i32 } [ %243, %242 ], [ %58, %57 ]
  call void @llvm.lifetime.end.p0i8(i64 24, i8* nonnull %32) #25
  %247 = getelementptr inbounds %"class.std::vector", %"class.std::vector"* %3, i64 0, i32 0
  call void @_ZNSt12_Vector_baseIiSaIiEED2Ev(%"struct.std::_Vector_base"* nonnull align 8 dereferenceable(24) %247) #26
  call void @llvm.lifetime.end.p0i8(i64 24, i8* nonnull %27) #25
  call void @llvm.lifetime.end.p0i8(i64 4, i8* nonnull %24) #25
  call void @llvm.lifetime.end.p0i8(i64 4, i8* nonnull %23) #25
  resume { i8*, i32 } %246
}

; Function Attrs: minsize optsize
declare zeroext i1 @_ZNSt8ios_base15sync_with_stdioEb(i1 zeroext) local_unnamed_addr #0

; Function Attrs: argmemonly mustprogress nofree nosync nounwind willreturn
declare void @llvm.lifetime.start.p0i8(i64 immarg, i8* nocapture) #4

; Function Attrs: minsize optsize
declare nonnull align 8 dereferenceable(16) %"class.std::basic_istream"* @_ZNSirsERi(%"class.std::basic_istream"* nonnull align 8 dereferenceable(16), i32* nonnull align 4 dereferenceable(4)) local_unnamed_addr #0

; Function Attrs: minsize optsize sspstrong uwtable
define linkonce_odr dso_local void @_ZNSt6vectorIiSaIiEEC2EmRKS0_(%"class.std::vector"* nonnull align 8 dereferenceable(24) %0, i64 %1, %"class.std::allocator"* nonnull align 1 dereferenceable(1) %2) unnamed_addr #5 comdat align 2 personality i8* bitcast (i32 (...)* @__gxx_personality_v0 to i8*) {
  %4 = getelementptr inbounds %"class.std::vector", %"class.std::vector"* %0, i64 0, i32 0
  %5 = tail call i64 @_ZNSt6vectorIiSaIiEE17_S_check_init_lenEmRKS0_(i64 %1, %"class.std::allocator"* nonnull align 1 dereferenceable(1) %2) #24
  %6 = bitcast %"class.std::vector"* %0 to i8*
  tail call void @llvm.memset.p0i8.i64(i8* noundef nonnull align 8 dereferenceable(24) %6, i8 0, i64 24, i1 false) #25
  tail call void @_ZNSt12_Vector_baseIiSaIiEE17_M_create_storageEm(%"struct.std::_Vector_base"* nonnull align 8 dereferenceable(24) %4, i64 %5) #24
  invoke void @_ZNSt6vectorIiSaIiEE21_M_default_initializeEm(%"class.std::vector"* nonnull align 8 dereferenceable(24) %0, i64 %1) #24
          to label %7 unwind label %8

7:                                                ; preds = %3
  ret void

8:                                                ; preds = %3
  %9 = landingpad { i8*, i32 }
          cleanup
  tail call void @_ZNSt12_Vector_baseIiSaIiEED2Ev(%"struct.std::_Vector_base"* nonnull align 8 dereferenceable(24) %4) #26
  resume { i8*, i32 } %9
}

declare i32 @__gxx_personality_v0(...)

; Function Attrs: argmemonly mustprogress nofree nosync nounwind willreturn
declare void @llvm.lifetime.end.p0i8(i64 immarg, i8* nocapture) #4

; Function Attrs: minsize optsize sspstrong uwtable
define linkonce_odr dso_local void @_ZNSt6vectorIiSaIiEE9push_backERKi(%"class.std::vector"* nonnull align 8 dereferenceable(24) %0, i32* nonnull align 4 dereferenceable(4) %1) local_unnamed_addr #5 comdat align 2 {
  %3 = getelementptr inbounds %"class.std::vector", %"class.std::vector"* %0, i64 0, i32 0, i32 0, i32 0, i32 1
  %4 = load i32*, i32** %3, align 8, !tbaa !27
  %5 = getelementptr inbounds %"class.std::vector", %"class.std::vector"* %0, i64 0, i32 0, i32 0, i32 0, i32 2
  %6 = load i32*, i32** %5, align 8, !tbaa !28
  %7 = icmp eq i32* %4, %6
  br i1 %7, label %11, label %8

8:                                                ; preds = %2
  %9 = load i32, i32* %1, align 4, !tbaa !13
  store i32 %9, i32* %4, align 4, !tbaa !13
  %10 = getelementptr inbounds i32, i32* %4, i64 1
  store i32* %10, i32** %3, align 8, !tbaa !27
  br label %12

11:                                               ; preds = %2
  tail call void @_ZNSt6vectorIiSaIiEE17_M_realloc_insertIJRKiEEEvN9__gnu_cxx17__normal_iteratorIPiS1_EEDpOT_(%"class.std::vector"* nonnull align 8 dereferenceable(24) %0, i32* %4, i32* nonnull align 4 dereferenceable(4) %1) #24
  br label %12

12:                                               ; preds = %11, %8
  ret void
}

; Function Attrs: minsize optsize sspstrong uwtable
define linkonce_odr dso_local void @_ZNSt6vectorIiSaIiEEC2EmRKiRKS0_(%"class.std::vector"* nonnull align 8 dereferenceable(24) %0, i64 %1, i32* nonnull align 4 dereferenceable(4) %2, %"class.std::allocator"* nonnull align 1 dereferenceable(1) %3) unnamed_addr #5 comdat align 2 personality i8* bitcast (i32 (...)* @__gxx_personality_v0 to i8*) {
  %5 = getelementptr inbounds %"class.std::vector", %"class.std::vector"* %0, i64 0, i32 0
  %6 = tail call i64 @_ZNSt6vectorIiSaIiEE17_S_check_init_lenEmRKS0_(i64 %1, %"class.std::allocator"* nonnull align 1 dereferenceable(1) %3) #24
  %7 = bitcast %"class.std::vector"* %0 to i8*
  tail call void @llvm.memset.p0i8.i64(i8* noundef nonnull align 8 dereferenceable(24) %7, i8 0, i64 24, i1 false) #25
  tail call void @_ZNSt12_Vector_baseIiSaIiEE17_M_create_storageEm(%"struct.std::_Vector_base"* nonnull align 8 dereferenceable(24) %5, i64 %6) #24
  invoke void @_ZNSt6vectorIiSaIiEE18_M_fill_initializeEmRKi(%"class.std::vector"* nonnull align 8 dereferenceable(24) %0, i64 %1, i32* nonnull align 4 dereferenceable(4) %2) #24
          to label %8 unwind label %9

8:                                                ; preds = %4
  ret void

9:                                                ; preds = %4
  %10 = landingpad { i8*, i32 }
          cleanup
  tail call void @_ZNSt12_Vector_baseIiSaIiEED2Ev(%"struct.std::_Vector_base"* nonnull align 8 dereferenceable(24) %5) #26
  resume { i8*, i32 } %10
}

; Function Attrs: minsize optsize sspstrong uwtable
define linkonce_odr dso_local void @_ZNSt6vectorIS_IiSaIiEESaIS1_EEC2EmRKS1_RKS2_(%"class.std::vector.0"* nonnull align 8 dereferenceable(24) %0, i64 %1, %"class.std::vector"* nonnull align 8 dereferenceable(24) %2, %"class.std::allocator.2"* nonnull align 1 dereferenceable(1) %3) unnamed_addr #5 comdat align 2 personality i8* bitcast (i32 (...)* @__gxx_personality_v0 to i8*) {
  %5 = getelementptr inbounds %"class.std::vector.0", %"class.std::vector.0"* %0, i64 0, i32 0
  %6 = tail call i64 @_ZNSt6vectorIS_IiSaIiEESaIS1_EE17_S_check_init_lenEmRKS2_(i64 %1, %"class.std::allocator.2"* nonnull align 1 dereferenceable(1) %3) #24
  %7 = bitcast %"class.std::vector.0"* %0 to i8*
  tail call void @llvm.memset.p0i8.i64(i8* noundef nonnull align 8 dereferenceable(24) %7, i8 0, i64 24, i1 false) #25
  tail call void @_ZNSt12_Vector_baseISt6vectorIiSaIiEESaIS2_EE17_M_create_storageEm(%"struct.std::_Vector_base.1"* nonnull align 8 dereferenceable(24) %5, i64 %6) #24
  invoke void @_ZNSt6vectorIS_IiSaIiEESaIS1_EE18_M_fill_initializeEmRKS1_(%"class.std::vector.0"* nonnull align 8 dereferenceable(24) %0, i64 %1, %"class.std::vector"* nonnull align 8 dereferenceable(24) %2) #24
          to label %8 unwind label %9

8:                                                ; preds = %4
  ret void

9:                                                ; preds = %4
  %10 = landingpad { i8*, i32 }
          cleanup
  tail call void @_ZNSt12_Vector_baseISt6vectorIiSaIiEESaIS2_EED2Ev(%"struct.std::_Vector_base.1"* nonnull align 8 dereferenceable(24) %5) #26
  resume { i8*, i32 } %10
}

; Function Attrs: inlinehint minsize mustprogress optsize sspstrong uwtable
declare nonnull align 8 dereferenceable(8) %"class.std::basic_ostream"* @_ZStlsISt11char_traitsIcEERSt13basic_ostreamIcT_ES5_PKc(%"class.std::basic_ostream"* nonnull align 8 dereferenceable(8), i8*) local_unnamed_addr #6

; Function Attrs: minsize optsize
declare nonnull align 8 dereferenceable(8) %"class.std::basic_ostream"* @_ZNSolsEi(%"class.std::basic_ostream"* nonnull align 8 dereferenceable(8), i32) local_unnamed_addr #0

; Function Attrs: minsize nounwind optsize sspstrong uwtable
define linkonce_odr dso_local void @_ZNSt6vectorIS_IiSaIiEESaIS1_EED2Ev(%"class.std::vector.0"* nonnull align 8 dereferenceable(24) %0) unnamed_addr #7 comdat align 2 personality i8* bitcast (i32 (...)* @__gxx_personality_v0 to i8*) {
  %2 = getelementptr inbounds %"class.std::vector.0", %"class.std::vector.0"* %0, i64 0, i32 0
  %3 = getelementptr inbounds %"class.std::vector.0", %"class.std::vector.0"* %0, i64 0, i32 0, i32 0, i32 0, i32 0
  %4 = load %"class.std::vector"*, %"class.std::vector"** %3, align 8, !tbaa !22
  %5 = getelementptr inbounds %"class.std::vector.0", %"class.std::vector.0"* %0, i64 0, i32 0, i32 0, i32 0, i32 1
  %6 = load %"class.std::vector"*, %"class.std::vector"** %5, align 8, !tbaa !29
  invoke void @_ZNSt12_Destroy_auxILb0EE9__destroyIPSt6vectorIiSaIiEEEEvT_S6_(%"class.std::vector"* %4, %"class.std::vector"* %6) #24
          to label %7 unwind label %8

7:                                                ; preds = %1
  tail call void @_ZNSt12_Vector_baseISt6vectorIiSaIiEESaIS2_EED2Ev(%"struct.std::_Vector_base.1"* nonnull align 8 dereferenceable(24) %2) #26
  ret void

8:                                                ; preds = %1
  %9 = landingpad { i8*, i32 }
          catch i8* null
  %10 = extractvalue { i8*, i32 } %9, 0
  tail call void @_ZNSt12_Vector_baseISt6vectorIiSaIiEESaIS2_EED2Ev(%"struct.std::_Vector_base.1"* nonnull align 8 dereferenceable(24) %2) #26
  tail call void @__clang_call_terminate(i8* %10) #27
  unreachable
}

; Function Attrs: minsize optsize sspstrong uwtable
define linkonce_odr dso_local i64 @_ZNSt6vectorIiSaIiEE17_S_check_init_lenEmRKS0_(i64 %0, %"class.std::allocator"* nonnull align 1 dereferenceable(1) %1) local_unnamed_addr #5 comdat align 2 personality i32 (...)* @__gxx_personality_v0 {
  %3 = icmp ugt i64 %0, 2305843009213693951
  br i1 %3, label %4, label %5

4:                                                ; preds = %2
  tail call void @_ZSt20__throw_length_errorPKc(i8* getelementptr inbounds ([49 x i8], [49 x i8]* @.str.1, i64 0, i64 0)) #28
  unreachable

5:                                                ; preds = %2
  ret i64 %0
}

; Function Attrs: minsize mustprogress optsize sspstrong uwtable
define linkonce_odr dso_local void @_ZNSt6vectorIiSaIiEE21_M_default_initializeEm(%"class.std::vector"* nonnull align 8 dereferenceable(24) %0, i64 %1) local_unnamed_addr #8 comdat align 2 {
  %3 = getelementptr inbounds %"class.std::vector", %"class.std::vector"* %0, i64 0, i32 0, i32 0, i32 0, i32 0
  %4 = load i32*, i32** %3, align 8, !tbaa !16
  %5 = tail call i32* @_ZNSt27__uninitialized_default_n_1ILb1EE18__uninit_default_nIPimEET_S3_T0_(i32* %4, i64 %1) #24
  %6 = getelementptr inbounds %"class.std::vector", %"class.std::vector"* %0, i64 0, i32 0, i32 0, i32 0, i32 1
  store i32* %5, i32** %6, align 8, !tbaa !27
  ret void
}

; Function Attrs: minsize nounwind optsize sspstrong uwtable
define linkonce_odr dso_local void @_ZNSt12_Vector_baseIiSaIiEED2Ev(%"struct.std::_Vector_base"* nonnull align 8 dereferenceable(24) %0) unnamed_addr #7 comdat align 2 personality i8* bitcast (i32 (...)* @__gxx_personality_v0 to i8*) {
  %2 = getelementptr inbounds %"struct.std::_Vector_base", %"struct.std::_Vector_base"* %0, i64 0, i32 0, i32 0, i32 0
  %3 = load i32*, i32** %2, align 8, !tbaa !16
  %4 = icmp eq i32* %3, null
  br i1 %4, label %7, label %5

5:                                                ; preds = %1
  %6 = bitcast i32* %3 to i8*
  tail call void @_ZdlPv(i8* nonnull %6) #26
  br label %7

7:                                                ; preds = %5, %1
  ret void
}

; Function Attrs: minsize noreturn optsize
declare void @_ZSt20__throw_length_errorPKc(i8*) local_unnamed_addr #9

; Function Attrs: noinline noreturn nounwind
define linkonce_odr hidden void @__clang_call_terminate(i8* %0) local_unnamed_addr #10 comdat {
  %2 = tail call i8* @__cxa_begin_catch(i8* %0) #25
  tail call void @_ZSt9terminatev() #27
  unreachable
}

declare i8* @__cxa_begin_catch(i8*) local_unnamed_addr

declare void @_ZSt9terminatev() local_unnamed_addr

; Function Attrs: minsize mustprogress optsize sspstrong uwtable
define linkonce_odr dso_local void @_ZNSt12_Vector_baseIiSaIiEE17_M_create_storageEm(%"struct.std::_Vector_base"* nonnull align 8 dereferenceable(24) %0, i64 %1) local_unnamed_addr #8 comdat align 2 {
  %3 = tail call i32* @_ZNSt12_Vector_baseIiSaIiEE11_M_allocateEm(%"struct.std::_Vector_base"* nonnull align 8 dereferenceable(24) %0, i64 %1) #24
  %4 = getelementptr inbounds %"struct.std::_Vector_base", %"struct.std::_Vector_base"* %0, i64 0, i32 0, i32 0, i32 0
  store i32* %3, i32** %4, align 8, !tbaa !16
  %5 = getelementptr inbounds %"struct.std::_Vector_base", %"struct.std::_Vector_base"* %0, i64 0, i32 0, i32 0, i32 1
  store i32* %3, i32** %5, align 8, !tbaa !27
  %6 = getelementptr inbounds i32, i32* %3, i64 %1
  %7 = getelementptr inbounds %"struct.std::_Vector_base", %"struct.std::_Vector_base"* %0, i64 0, i32 0, i32 0, i32 2
  store i32* %6, i32** %7, align 8, !tbaa !28
  ret void
}

; Function Attrs: minsize mustprogress optsize sspstrong uwtable
define linkonce_odr dso_local i32* @_ZNSt12_Vector_baseIiSaIiEE11_M_allocateEm(%"struct.std::_Vector_base"* nonnull align 8 dereferenceable(24) %0, i64 %1) local_unnamed_addr #8 comdat align 2 {
  %3 = icmp eq i64 %1, 0
  br i1 %3, label %7, label %4

4:                                                ; preds = %2
  %5 = bitcast %"struct.std::_Vector_base"* %0 to %"class.std::allocator"*
  %6 = tail call i32* @_ZNSt16allocator_traitsISaIiEE8allocateERS0_m(%"class.std::allocator"* nonnull align 1 dereferenceable(1) %5, i64 %1) #24
  br label %7

7:                                                ; preds = %2, %4
  %8 = phi i32* [ %6, %4 ], [ null, %2 ]
  ret i32* %8
}

; Function Attrs: minsize mustprogress optsize sspstrong uwtable
define linkonce_odr dso_local i32* @_ZNSt16allocator_traitsISaIiEE8allocateERS0_m(%"class.std::allocator"* nonnull align 1 dereferenceable(1) %0, i64 %1) local_unnamed_addr #8 comdat align 2 {
  %3 = bitcast %"class.std::allocator"* %0 to %"class.__gnu_cxx::new_allocator"*
  %4 = tail call i32* @_ZN9__gnu_cxx13new_allocatorIiE8allocateEmPKv(%"class.__gnu_cxx::new_allocator"* nonnull align 1 dereferenceable(1) %3, i64 %1, i8* null) #24
  ret i32* %4
}

; Function Attrs: minsize mustprogress optsize sspstrong uwtable
define linkonce_odr dso_local i32* @_ZN9__gnu_cxx13new_allocatorIiE8allocateEmPKv(%"class.__gnu_cxx::new_allocator"* nonnull align 1 dereferenceable(1) %0, i64 %1, i8* %2) local_unnamed_addr #8 comdat align 2 {
  %4 = icmp ugt i64 %1, 2305843009213693951
  br i1 %4, label %5, label %9, !prof !30

5:                                                ; preds = %3
  %6 = icmp ugt i64 %1, 4611686018427387903
  br i1 %6, label %7, label %8

7:                                                ; preds = %5
  tail call void @_ZSt28__throw_bad_array_new_lengthv() #28
  unreachable

8:                                                ; preds = %5
  tail call void @_ZSt17__throw_bad_allocv() #28
  unreachable

9:                                                ; preds = %3
  %10 = shl nuw nsw i64 %1, 2
  %11 = tail call noalias nonnull i8* @_Znwm(i64 %10) #29
  %12 = bitcast i8* %11 to i32*
  ret i32* %12
}

; Function Attrs: minsize noreturn optsize
declare void @_ZSt28__throw_bad_array_new_lengthv() local_unnamed_addr #9

; Function Attrs: minsize noreturn optsize
declare void @_ZSt17__throw_bad_allocv() local_unnamed_addr #9

; Function Attrs: minsize nobuiltin optsize allocsize(0)
declare nonnull i8* @_Znwm(i64) local_unnamed_addr #11

; Function Attrs: minsize mustprogress optsize sspstrong uwtable
define linkonce_odr dso_local i32* @_ZNSt27__uninitialized_default_n_1ILb1EE18__uninit_default_nIPimEET_S3_T0_(i32* %0, i64 %1) local_unnamed_addr #8 comdat align 2 {
  %3 = icmp eq i64 %1, 0
  br i1 %3, label %8, label %4

4:                                                ; preds = %2
  store i32 0, i32* %0, align 4, !tbaa !13
  %5 = getelementptr inbounds i32, i32* %0, i64 1
  %6 = add i64 %1, -1
  %7 = tail call i32* @_ZSt10__fill_n_aIPimiET_S1_T0_RKT1_St26random_access_iterator_tag(i32* nonnull %5, i64 %6, i32* nonnull align 4 dereferenceable(4) %0) #24
  br label %8

8:                                                ; preds = %4, %2
  %9 = phi i32* [ %7, %4 ], [ %0, %2 ]
  ret i32* %9
}

; Function Attrs: inlinehint minsize mustprogress optsize sspstrong uwtable
define linkonce_odr dso_local i32* @_ZSt10__fill_n_aIPimiET_S1_T0_RKT1_St26random_access_iterator_tag(i32* %0, i64 %1, i32* nonnull align 4 dereferenceable(4) %2) local_unnamed_addr #6 comdat {
  %4 = icmp eq i64 %1, 0
  br i1 %4, label %13, label %5

5:                                                ; preds = %3
  %6 = getelementptr inbounds i32, i32* %0, i64 %1
  %7 = load i32, i32* %2, align 4, !tbaa !13
  br label %8

8:                                                ; preds = %11, %5
  %9 = phi i32* [ %0, %5 ], [ %12, %11 ]
  %10 = icmp eq i32* %9, %6
  br i1 %10, label %13, label %11

11:                                               ; preds = %8
  store i32 %7, i32* %9, align 4, !tbaa !13
  %12 = getelementptr inbounds i32, i32* %9, i64 1
  br label %8, !llvm.loop !31

13:                                               ; preds = %8, %3
  %14 = phi i32* [ %0, %3 ], [ %6, %8 ]
  ret i32* %14
}

; Function Attrs: minsize nobuiltin nounwind optsize
declare void @_ZdlPv(i8*) local_unnamed_addr #12

; Function Attrs: minsize optsize sspstrong uwtable
define linkonce_odr dso_local void @_ZNSt6vectorIiSaIiEE17_M_realloc_insertIJRKiEEEvN9__gnu_cxx17__normal_iteratorIPiS1_EEDpOT_(%"class.std::vector"* nonnull align 8 dereferenceable(24) %0, i32* %1, i32* nonnull align 4 dereferenceable(4) %2) local_unnamed_addr #5 comdat align 2 {
  %4 = tail call i64 @_ZNKSt6vectorIiSaIiEE12_M_check_lenEmPKc(%"class.std::vector"* nonnull align 8 dereferenceable(24) %0, i64 1, i8* getelementptr inbounds ([26 x i8], [26 x i8]* @.str.2, i64 0, i64 0)) #24
  %5 = getelementptr inbounds %"class.std::vector", %"class.std::vector"* %0, i64 0, i32 0
  %6 = getelementptr inbounds %"class.std::vector", %"class.std::vector"* %0, i64 0, i32 0, i32 0, i32 0, i32 0
  %7 = load i32*, i32** %6, align 8, !tbaa !16
  %8 = getelementptr inbounds %"class.std::vector", %"class.std::vector"* %0, i64 0, i32 0, i32 0, i32 0, i32 1
  %9 = load i32*, i32** %8, align 8, !tbaa !27
  %10 = ptrtoint i32* %1 to i64
  %11 = ptrtoint i32* %7 to i64
  %12 = sub i64 %10, %11
  %13 = ashr exact i64 %12, 2
  %14 = tail call i32* @_ZNSt12_Vector_baseIiSaIiEE11_M_allocateEm(%"struct.std::_Vector_base"* nonnull align 8 dereferenceable(24) %5, i64 %4) #24
  %15 = getelementptr inbounds i32, i32* %14, i64 %13
  %16 = load i32, i32* %2, align 4, !tbaa !13
  store i32 %16, i32* %15, align 4, !tbaa !13
  %17 = icmp sgt i64 %12, 0
  br i1 %17, label %18, label %21

18:                                               ; preds = %3
  %19 = bitcast i32* %14 to i8*
  %20 = bitcast i32* %7 to i8*
  tail call void @llvm.memmove.p0i8.p0i8.i64(i8* align 4 %19, i8* align 4 %20, i64 %12, i1 false) #25
  br label %21

21:                                               ; preds = %3, %18
  %22 = getelementptr inbounds i32, i32* %15, i64 1
  %23 = ptrtoint i32* %9 to i64
  %24 = sub i64 %23, %10
  %25 = icmp sgt i64 %24, 0
  br i1 %25, label %26, label %29

26:                                               ; preds = %21
  %27 = bitcast i32* %22 to i8*
  %28 = bitcast i32* %1 to i8*
  tail call void @llvm.memmove.p0i8.p0i8.i64(i8* nonnull align 4 %27, i8* align 4 %28, i64 %24, i1 false) #25
  br label %29

29:                                               ; preds = %21, %26
  %30 = icmp eq i32* %7, null
  br i1 %30, label %33, label %31

31:                                               ; preds = %29
  %32 = bitcast i32* %7 to i8*
  tail call void @_ZdlPv(i8* nonnull %32) #26
  br label %33

33:                                               ; preds = %29, %31
  %34 = getelementptr inbounds %"class.std::vector", %"class.std::vector"* %0, i64 0, i32 0, i32 0, i32 0, i32 2
  %35 = ashr exact i64 %24, 2
  %36 = getelementptr inbounds i32, i32* %22, i64 %35
  store i32* %14, i32** %6, align 8, !tbaa !16
  store i32* %36, i32** %8, align 8, !tbaa !27
  %37 = getelementptr inbounds i32, i32* %14, i64 %4
  store i32* %37, i32** %34, align 8, !tbaa !28
  ret void
}

; Function Attrs: minsize mustprogress optsize sspstrong uwtable
define linkonce_odr dso_local i64 @_ZNKSt6vectorIiSaIiEE12_M_check_lenEmPKc(%"class.std::vector"* nonnull align 8 dereferenceable(24) %0, i64 %1, i8* %2) local_unnamed_addr #8 comdat align 2 personality i32 (...)* @__gxx_personality_v0 {
  %4 = getelementptr inbounds %"class.std::vector", %"class.std::vector"* %0, i64 0, i32 0, i32 0, i32 0, i32 1
  %5 = load i32*, i32** %4, align 8, !tbaa !27
  %6 = getelementptr inbounds %"class.std::vector", %"class.std::vector"* %0, i64 0, i32 0, i32 0, i32 0, i32 0
  %7 = load i32*, i32** %6, align 8, !tbaa !16
  %8 = ptrtoint i32* %5 to i64
  %9 = ptrtoint i32* %7 to i64
  %10 = sub i64 %8, %9
  %11 = ashr exact i64 %10, 2
  %12 = sub nsw i64 2305843009213693951, %11
  %13 = icmp ult i64 %12, %1
  br i1 %13, label %14, label %15

14:                                               ; preds = %3
  tail call void @_ZSt20__throw_length_errorPKc(i8* %2) #28
  unreachable

15:                                               ; preds = %3
  %16 = icmp ult i64 %11, %1
  %17 = select i1 %16, i64 %1, i64 %11
  %18 = add i64 %17, %11
  %19 = icmp ult i64 %18, %11
  %20 = icmp ugt i64 %18, 2305843009213693951
  %21 = or i1 %19, %20
  %22 = select i1 %21, i64 2305843009213693951, i64 %18
  ret i64 %22
}

; Function Attrs: argmemonly mustprogress nofree nounwind willreturn
declare void @llvm.memmove.p0i8.p0i8.i64(i8* nocapture writeonly, i8* nocapture readonly, i64, i1 immarg) #13

; Function Attrs: inlinehint minsize mustprogress optsize sspstrong uwtable
define linkonce_odr dso_local void @_ZSt6__sortIN9__gnu_cxx17__normal_iteratorIPiSt6vectorIiSaIiEEEENS0_5__ops15_Iter_less_iterEEvT_S9_T0_(i32* %0, i32* %1) local_unnamed_addr #6 comdat {
  %3 = icmp eq i32* %0, %1
  br i1 %3, label %12, label %4

4:                                                ; preds = %2
  %5 = ptrtoint i32* %1 to i64
  %6 = ptrtoint i32* %0 to i64
  %7 = sub i64 %5, %6
  %8 = ashr exact i64 %7, 2
  %9 = tail call i64 @llvm.ctlz.i64(i64 %8, i1 true) #25, !range !20
  %10 = shl nuw nsw i64 %9, 1
  %11 = xor i64 %10, 126
  tail call void @_ZSt16__introsort_loopIN9__gnu_cxx17__normal_iteratorIPiSt6vectorIiSaIiEEEElNS0_5__ops15_Iter_less_iterEEvT_S9_T0_T1_(i32* %0, i32* %1, i64 %11) #24
  tail call void @_ZSt22__final_insertion_sortIN9__gnu_cxx17__normal_iteratorIPiSt6vectorIiSaIiEEEENS0_5__ops15_Iter_less_iterEEvT_S9_T0_(i32* %0, i32* %1) #24
  br label %12

12:                                               ; preds = %4, %2
  ret void
}

; Function Attrs: argmemonly mustprogress nofree nounwind willreturn
declare void @llvm.memcpy.p0i8.p0i8.i64(i8* noalias nocapture writeonly, i8* noalias nocapture readonly, i64, i1 immarg) #13

; Function Attrs: minsize mustprogress optsize sspstrong uwtable
define linkonce_odr dso_local void @_ZSt16__introsort_loopIN9__gnu_cxx17__normal_iteratorIPiSt6vectorIiSaIiEEEElNS0_5__ops15_Iter_less_iterEEvT_S9_T0_T1_(i32* %0, i32* %1, i64 %2) local_unnamed_addr #8 comdat {
  %4 = ptrtoint i32* %0 to i64
  br label %5

5:                                                ; preds = %14, %3
  %6 = phi i32* [ %1, %3 ], [ %16, %14 ]
  %7 = phi i64 [ %2, %3 ], [ %15, %14 ]
  %8 = ptrtoint i32* %6 to i64
  %9 = sub i64 %8, %4
  %10 = icmp sgt i64 %9, 64
  br i1 %10, label %11, label %17

11:                                               ; preds = %5
  %12 = icmp eq i64 %7, 0
  br i1 %12, label %13, label %14

13:                                               ; preds = %11
  tail call void @_ZSt14__partial_sortIN9__gnu_cxx17__normal_iteratorIPiSt6vectorIiSaIiEEEENS0_5__ops15_Iter_less_iterEEvT_S9_S9_T0_(i32* %0, i32* %6, i32* %6) #24
  br label %17

14:                                               ; preds = %11
  %15 = add nsw i64 %7, -1
  %16 = tail call i32* @_ZSt27__unguarded_partition_pivotIN9__gnu_cxx17__normal_iteratorIPiSt6vectorIiSaIiEEEENS0_5__ops15_Iter_less_iterEET_S9_S9_T0_(i32* %0, i32* %6) #24
  tail call void @_ZSt16__introsort_loopIN9__gnu_cxx17__normal_iteratorIPiSt6vectorIiSaIiEEEElNS0_5__ops15_Iter_less_iterEEvT_S9_T0_T1_(i32* %16, i32* %6, i64 %15) #24
  br label %5, !llvm.loop !32

17:                                               ; preds = %5, %13
  ret void
}

; Function Attrs: minsize optsize sspstrong uwtable
define linkonce_odr dso_local void @_ZSt22__final_insertion_sortIN9__gnu_cxx17__normal_iteratorIPiSt6vectorIiSaIiEEEENS0_5__ops15_Iter_less_iterEEvT_S9_T0_(i32* %0, i32* %1) local_unnamed_addr #5 comdat {
  %3 = ptrtoint i32* %1 to i64
  %4 = ptrtoint i32* %0 to i64
  %5 = sub i64 %3, %4
  %6 = icmp sgt i64 %5, 64
  br i1 %6, label %7, label %9

7:                                                ; preds = %2
  %8 = getelementptr inbounds i32, i32* %0, i64 16
  tail call void @_ZSt16__insertion_sortIN9__gnu_cxx17__normal_iteratorIPiSt6vectorIiSaIiEEEENS0_5__ops15_Iter_less_iterEEvT_S9_T0_(i32* %0, i32* nonnull %8) #24
  tail call void @_ZSt26__unguarded_insertion_sortIN9__gnu_cxx17__normal_iteratorIPiSt6vectorIiSaIiEEEENS0_5__ops15_Iter_less_iterEEvT_S9_T0_(i32* nonnull %8, i32* %1) #24
  br label %10

9:                                                ; preds = %2
  tail call void @_ZSt16__insertion_sortIN9__gnu_cxx17__normal_iteratorIPiSt6vectorIiSaIiEEEENS0_5__ops15_Iter_less_iterEEvT_S9_T0_(i32* %0, i32* %1) #24
  br label %10

10:                                               ; preds = %9, %7
  ret void
}

; Function Attrs: inlinehint minsize mustprogress optsize sspstrong uwtable
define linkonce_odr dso_local void @_ZSt14__partial_sortIN9__gnu_cxx17__normal_iteratorIPiSt6vectorIiSaIiEEEENS0_5__ops15_Iter_less_iterEEvT_S9_S9_T0_(i32* %0, i32* %1, i32* %2) local_unnamed_addr #6 comdat {
  %4 = alloca %"struct.__gnu_cxx::__ops::_Iter_less_iter", align 1
  tail call void @_ZSt13__heap_selectIN9__gnu_cxx17__normal_iteratorIPiSt6vectorIiSaIiEEEENS0_5__ops15_Iter_less_iterEEvT_S9_S9_T0_(i32* %0, i32* %1, i32* %2) #24
  call void @_ZSt11__sort_heapIN9__gnu_cxx17__normal_iteratorIPiSt6vectorIiSaIiEEEENS0_5__ops15_Iter_less_iterEEvT_S9_RT0_(i32* %0, i32* %1, %"struct.__gnu_cxx::__ops::_Iter_less_iter"* nonnull align 1 dereferenceable(1) %4) #24
  ret void
}

; Function Attrs: inlinehint minsize optsize sspstrong uwtable
define linkonce_odr dso_local i32* @_ZSt27__unguarded_partition_pivotIN9__gnu_cxx17__normal_iteratorIPiSt6vectorIiSaIiEEEENS0_5__ops15_Iter_less_iterEET_S9_S9_T0_(i32* %0, i32* %1) local_unnamed_addr #14 comdat {
  %3 = ptrtoint i32* %1 to i64
  %4 = ptrtoint i32* %0 to i64
  %5 = sub i64 %3, %4
  %6 = ashr exact i64 %5, 2
  %7 = sdiv i64 %6, 2
  %8 = getelementptr inbounds i32, i32* %0, i64 %7
  %9 = getelementptr inbounds i32, i32* %0, i64 1
  %10 = getelementptr inbounds i32, i32* %1, i64 -1
  tail call void @_ZSt22__move_median_to_firstIN9__gnu_cxx17__normal_iteratorIPiSt6vectorIiSaIiEEEENS0_5__ops15_Iter_less_iterEEvT_S9_S9_S9_T0_(i32* %0, i32* nonnull %9, i32* %8, i32* nonnull %10) #24
  %11 = tail call i32* @_ZSt21__unguarded_partitionIN9__gnu_cxx17__normal_iteratorIPiSt6vectorIiSaIiEEEENS0_5__ops15_Iter_less_iterEET_S9_S9_S9_T0_(i32* nonnull %9, i32* %1, i32* %0) #24
  ret i32* %11
}

; Function Attrs: minsize mustprogress optsize sspstrong uwtable
define linkonce_odr dso_local void @_ZSt13__heap_selectIN9__gnu_cxx17__normal_iteratorIPiSt6vectorIiSaIiEEEENS0_5__ops15_Iter_less_iterEEvT_S9_S9_T0_(i32* %0, i32* %1, i32* %2) local_unnamed_addr #8 comdat {
  %4 = alloca %"struct.__gnu_cxx::__ops::_Iter_less_iter", align 1
  call void @_ZSt11__make_heapIN9__gnu_cxx17__normal_iteratorIPiSt6vectorIiSaIiEEEENS0_5__ops15_Iter_less_iterEEvT_S9_RT0_(i32* %0, i32* %1, %"struct.__gnu_cxx::__ops::_Iter_less_iter"* nonnull align 1 dereferenceable(1) %4) #24
  br label %5

5:                                                ; preds = %14, %3
  %6 = phi i32* [ %1, %3 ], [ %15, %14 ]
  %7 = icmp ult i32* %6, %2
  br i1 %7, label %9, label %8

8:                                                ; preds = %5
  ret void

9:                                                ; preds = %5
  %10 = load i32, i32* %6, align 4, !tbaa !13
  %11 = load i32, i32* %0, align 4, !tbaa !13
  %12 = icmp slt i32 %10, %11
  br i1 %12, label %13, label %14

13:                                               ; preds = %9
  call void @_ZSt10__pop_heapIN9__gnu_cxx17__normal_iteratorIPiSt6vectorIiSaIiEEEENS0_5__ops15_Iter_less_iterEEvT_S9_S9_RT0_(i32* nonnull %0, i32* %1, i32* nonnull %6, %"struct.__gnu_cxx::__ops::_Iter_less_iter"* nonnull align 1 dereferenceable(1) %4) #24
  br label %14

14:                                               ; preds = %9, %13
  %15 = getelementptr inbounds i32, i32* %6, i64 1
  br label %5, !llvm.loop !33
}

; Function Attrs: minsize mustprogress optsize sspstrong uwtable
define linkonce_odr dso_local void @_ZSt11__sort_heapIN9__gnu_cxx17__normal_iteratorIPiSt6vectorIiSaIiEEEENS0_5__ops15_Iter_less_iterEEvT_S9_RT0_(i32* %0, i32* %1, %"struct.__gnu_cxx::__ops::_Iter_less_iter"* nonnull align 1 dereferenceable(1) %2) local_unnamed_addr #8 comdat {
  %4 = ptrtoint i32* %0 to i64
  br label %5

5:                                                ; preds = %10, %3
  %6 = phi i32* [ %1, %3 ], [ %11, %10 ]
  %7 = ptrtoint i32* %6 to i64
  %8 = sub i64 %7, %4
  %9 = icmp sgt i64 %8, 4
  br i1 %9, label %10, label %12

10:                                               ; preds = %5
  %11 = getelementptr inbounds i32, i32* %6, i64 -1
  tail call void @_ZSt10__pop_heapIN9__gnu_cxx17__normal_iteratorIPiSt6vectorIiSaIiEEEENS0_5__ops15_Iter_less_iterEEvT_S9_S9_RT0_(i32* %0, i32* nonnull %11, i32* nonnull %11, %"struct.__gnu_cxx::__ops::_Iter_less_iter"* nonnull align 1 dereferenceable(1) %2) #24
  br label %5, !llvm.loop !34

12:                                               ; preds = %5
  ret void
}

; Function Attrs: minsize optsize sspstrong uwtable
define linkonce_odr dso_local void @_ZSt11__make_heapIN9__gnu_cxx17__normal_iteratorIPiSt6vectorIiSaIiEEEENS0_5__ops15_Iter_less_iterEEvT_S9_RT0_(i32* %0, i32* %1, %"struct.__gnu_cxx::__ops::_Iter_less_iter"* nonnull align 1 dereferenceable(1) %2) local_unnamed_addr #5 comdat {
  %4 = ptrtoint i32* %1 to i64
  %5 = ptrtoint i32* %0 to i64
  %6 = sub i64 %4, %5
  %7 = ashr exact i64 %6, 2
  %8 = icmp slt i64 %6, 8
  br i1 %8, label %18, label %9

9:                                                ; preds = %3
  %10 = add nsw i64 %7, -2
  %11 = lshr i64 %10, 1
  br label %12

12:                                               ; preds = %12, %9
  %13 = phi i64 [ %11, %9 ], [ %17, %12 ]
  %14 = getelementptr inbounds i32, i32* %0, i64 %13
  %15 = load i32, i32* %14, align 4, !tbaa !13
  tail call void @_ZSt13__adjust_heapIN9__gnu_cxx17__normal_iteratorIPiSt6vectorIiSaIiEEEEliNS0_5__ops15_Iter_less_iterEEvT_T0_SA_T1_T2_(i32* %0, i64 %13, i64 %7, i32 %15) #24
  %16 = icmp eq i64 %13, 0
  %17 = add nsw i64 %13, -1
  br i1 %16, label %18, label %12, !llvm.loop !35

18:                                               ; preds = %12, %3
  ret void
}

; Function Attrs: inlinehint minsize mustprogress optsize sspstrong uwtable
define linkonce_odr dso_local void @_ZSt10__pop_heapIN9__gnu_cxx17__normal_iteratorIPiSt6vectorIiSaIiEEEENS0_5__ops15_Iter_less_iterEEvT_S9_S9_RT0_(i32* %0, i32* %1, i32* %2, %"struct.__gnu_cxx::__ops::_Iter_less_iter"* nonnull align 1 dereferenceable(1) %3) local_unnamed_addr #6 comdat {
  %5 = load i32, i32* %2, align 4, !tbaa !13
  %6 = load i32, i32* %0, align 4, !tbaa !13
  store i32 %6, i32* %2, align 4, !tbaa !13
  %7 = ptrtoint i32* %1 to i64
  %8 = ptrtoint i32* %0 to i64
  %9 = sub i64 %7, %8
  %10 = ashr exact i64 %9, 2
  tail call void @_ZSt13__adjust_heapIN9__gnu_cxx17__normal_iteratorIPiSt6vectorIiSaIiEEEEliNS0_5__ops15_Iter_less_iterEEvT_T0_SA_T1_T2_(i32* nonnull %0, i64 0, i64 %10, i32 %5) #24
  ret void
}

; Function Attrs: minsize optsize sspstrong uwtable
define linkonce_odr dso_local void @_ZSt13__adjust_heapIN9__gnu_cxx17__normal_iteratorIPiSt6vectorIiSaIiEEEEliNS0_5__ops15_Iter_less_iterEEvT_T0_SA_T1_T2_(i32* %0, i64 %1, i64 %2, i32 %3) local_unnamed_addr #5 comdat {
  %5 = alloca %"struct.__gnu_cxx::__ops::_Iter_less_val", align 1
  %6 = add nsw i64 %2, -1
  %7 = sdiv i64 %6, 2
  br label %8

8:                                                ; preds = %11, %4
  %9 = phi i64 [ %1, %4 ], [ %20, %11 ]
  %10 = icmp slt i64 %9, %7
  br i1 %10, label %11, label %24

11:                                               ; preds = %8
  %12 = shl i64 %9, 1
  %13 = add i64 %12, 2
  %14 = getelementptr inbounds i32, i32* %0, i64 %13
  %15 = or i64 %12, 1
  %16 = getelementptr inbounds i32, i32* %0, i64 %15
  %17 = load i32, i32* %14, align 4, !tbaa !13
  %18 = load i32, i32* %16, align 4, !tbaa !13
  %19 = icmp slt i32 %17, %18
  %20 = select i1 %19, i64 %15, i64 %13
  %21 = getelementptr inbounds i32, i32* %0, i64 %20
  %22 = load i32, i32* %21, align 4, !tbaa !13
  %23 = getelementptr inbounds i32, i32* %0, i64 %9
  store i32 %22, i32* %23, align 4, !tbaa !13
  br label %8, !llvm.loop !36

24:                                               ; preds = %8
  %25 = and i64 %2, 1
  %26 = icmp eq i64 %25, 0
  br i1 %26, label %27, label %37

27:                                               ; preds = %24
  %28 = add nsw i64 %2, -2
  %29 = sdiv i64 %28, 2
  %30 = icmp eq i64 %9, %29
  br i1 %30, label %31, label %37

31:                                               ; preds = %27
  %32 = shl i64 %9, 1
  %33 = or i64 %32, 1
  %34 = getelementptr inbounds i32, i32* %0, i64 %33
  %35 = load i32, i32* %34, align 4, !tbaa !13
  %36 = getelementptr inbounds i32, i32* %0, i64 %9
  store i32 %35, i32* %36, align 4, !tbaa !13
  br label %37

37:                                               ; preds = %31, %27, %24
  %38 = phi i64 [ %33, %31 ], [ %9, %27 ], [ %9, %24 ]
  %39 = getelementptr inbounds %"struct.__gnu_cxx::__ops::_Iter_less_val", %"struct.__gnu_cxx::__ops::_Iter_less_val"* %5, i64 0, i32 0
  call void @llvm.lifetime.start.p0i8(i64 1, i8* nonnull %39) #25
  call void @_ZSt11__push_heapIN9__gnu_cxx17__normal_iteratorIPiSt6vectorIiSaIiEEEEliNS0_5__ops14_Iter_less_valEEvT_T0_SA_T1_RT2_(i32* %0, i64 %38, i64 %1, i32 %3, %"struct.__gnu_cxx::__ops::_Iter_less_val"* nonnull align 1 dereferenceable(1) %5) #24
  call void @llvm.lifetime.end.p0i8(i64 1, i8* nonnull %39) #25
  ret void
}

; Function Attrs: minsize optsize sspstrong uwtable
define linkonce_odr dso_local void @_ZSt11__push_heapIN9__gnu_cxx17__normal_iteratorIPiSt6vectorIiSaIiEEEEliNS0_5__ops14_Iter_less_valEEvT_T0_SA_T1_RT2_(i32* %0, i64 %1, i64 %2, i32 %3, %"struct.__gnu_cxx::__ops::_Iter_less_val"* nonnull align 1 dereferenceable(1) %4) local_unnamed_addr #5 comdat {
  br label %6

6:                                                ; preds = %15, %5
  %7 = phi i64 [ %1, %5 ], [ %9, %15 ]
  %8 = add nsw i64 %7, -1
  %9 = sdiv i64 %8, 2
  %10 = icmp sgt i64 %7, %2
  br i1 %10, label %11, label %17

11:                                               ; preds = %6
  %12 = getelementptr inbounds i32, i32* %0, i64 %9
  %13 = load i32, i32* %12, align 4, !tbaa !13
  %14 = icmp slt i32 %13, %3
  br i1 %14, label %15, label %17

15:                                               ; preds = %11
  %16 = getelementptr inbounds i32, i32* %0, i64 %7
  store i32 %13, i32* %16, align 4, !tbaa !13
  br label %6, !llvm.loop !37

17:                                               ; preds = %6, %11
  %18 = getelementptr inbounds i32, i32* %0, i64 %7
  store i32 %3, i32* %18, align 4, !tbaa !13
  ret void
}

; Function Attrs: minsize mustprogress optsize sspstrong uwtable
define linkonce_odr dso_local void @_ZSt22__move_median_to_firstIN9__gnu_cxx17__normal_iteratorIPiSt6vectorIiSaIiEEEENS0_5__ops15_Iter_less_iterEEvT_S9_S9_S9_T0_(i32* %0, i32* %1, i32* %2, i32* %3) local_unnamed_addr #8 comdat {
  %5 = load i32, i32* %1, align 4, !tbaa !13
  %6 = load i32, i32* %2, align 4, !tbaa !13
  %7 = icmp slt i32 %5, %6
  %8 = load i32, i32* %3, align 4, !tbaa !13
  br i1 %7, label %9, label %18

9:                                                ; preds = %4
  %10 = icmp slt i32 %6, %8
  br i1 %10, label %11, label %13

11:                                               ; preds = %9
  %12 = load i32, i32* %0, align 4, !tbaa !13
  store i32 %6, i32* %0, align 4, !tbaa !13
  store i32 %12, i32* %2, align 4, !tbaa !13
  br label %27

13:                                               ; preds = %9
  %14 = icmp slt i32 %5, %8
  %15 = load i32, i32* %0, align 4, !tbaa !13
  br i1 %14, label %16, label %17

16:                                               ; preds = %13
  store i32 %8, i32* %0, align 4, !tbaa !13
  store i32 %15, i32* %3, align 4, !tbaa !13
  br label %27

17:                                               ; preds = %13
  store i32 %5, i32* %0, align 4, !tbaa !13
  store i32 %15, i32* %1, align 4, !tbaa !13
  br label %27

18:                                               ; preds = %4
  %19 = icmp slt i32 %5, %8
  br i1 %19, label %20, label %22

20:                                               ; preds = %18
  %21 = load i32, i32* %0, align 4, !tbaa !13
  store i32 %5, i32* %0, align 4, !tbaa !13
  store i32 %21, i32* %1, align 4, !tbaa !13
  br label %27

22:                                               ; preds = %18
  %23 = icmp slt i32 %6, %8
  %24 = load i32, i32* %0, align 4, !tbaa !13
  br i1 %23, label %25, label %26

25:                                               ; preds = %22
  store i32 %8, i32* %0, align 4, !tbaa !13
  store i32 %24, i32* %3, align 4, !tbaa !13
  br label %27

26:                                               ; preds = %22
  store i32 %6, i32* %0, align 4, !tbaa !13
  store i32 %24, i32* %2, align 4, !tbaa !13
  br label %27

27:                                               ; preds = %20, %26, %25, %11, %17, %16
  ret void
}

; Function Attrs: minsize mustprogress nounwind optsize sspstrong uwtable
define linkonce_odr dso_local i32* @_ZSt21__unguarded_partitionIN9__gnu_cxx17__normal_iteratorIPiSt6vectorIiSaIiEEEENS0_5__ops15_Iter_less_iterEET_S9_S9_S9_T0_(i32* %0, i32* %1, i32* %2) local_unnamed_addr #15 comdat {
  br label %4

4:                                                ; preds = %3, %21
  %5 = phi i32* [ %0, %3 ], [ %12, %21 ]
  %6 = phi i32* [ %1, %3 ], [ %15, %21 ]
  %7 = load i32, i32* %2, align 4, !tbaa !13
  br label %8

8:                                                ; preds = %8, %4
  %9 = phi i32* [ %5, %4 ], [ %12, %8 ]
  %10 = load i32, i32* %9, align 4, !tbaa !13
  %11 = icmp slt i32 %10, %7
  %12 = getelementptr inbounds i32, i32* %9, i64 1
  br i1 %11, label %8, label %13, !llvm.loop !38

13:                                               ; preds = %8, %13
  %14 = phi i32* [ %15, %13 ], [ %6, %8 ]
  %15 = getelementptr inbounds i32, i32* %14, i64 -1
  %16 = load i32, i32* %15, align 4, !tbaa !13
  %17 = icmp slt i32 %7, %16
  br i1 %17, label %13, label %18, !llvm.loop !39

18:                                               ; preds = %13
  %19 = icmp ult i32* %9, %15
  br i1 %19, label %21, label %20

20:                                               ; preds = %18
  ret i32* %9

21:                                               ; preds = %18
  store i32 %16, i32* %9, align 4, !tbaa !13
  store i32 %10, i32* %15, align 4, !tbaa !13
  br label %4, !llvm.loop !40
}

; Function Attrs: mustprogress nofree nosync nounwind readnone speculatable willreturn
declare i64 @llvm.ctlz.i64(i64, i1 immarg) #16

; Function Attrs: minsize optsize sspstrong uwtable
define linkonce_odr dso_local void @_ZSt16__insertion_sortIN9__gnu_cxx17__normal_iteratorIPiSt6vectorIiSaIiEEEENS0_5__ops15_Iter_less_iterEEvT_S9_T0_(i32* %0, i32* %1) local_unnamed_addr #5 comdat {
  %3 = icmp eq i32* %0, %1
  br i1 %3, label %27, label %4

4:                                                ; preds = %2
  %5 = ptrtoint i32* %0 to i64
  %6 = bitcast i32* %0 to i8*
  br label %7

7:                                                ; preds = %25, %4
  %8 = phi i32* [ %0, %4 ], [ %9, %25 ]
  %9 = getelementptr inbounds i32, i32* %8, i64 1
  %10 = icmp eq i32* %9, %1
  br i1 %10, label %27, label %11

11:                                               ; preds = %7
  %12 = load i32, i32* %9, align 4, !tbaa !13
  %13 = load i32, i32* %0, align 4, !tbaa !13
  %14 = icmp slt i32 %12, %13
  br i1 %14, label %15, label %26

15:                                               ; preds = %11
  %16 = ptrtoint i32* %9 to i64
  %17 = sub i64 %16, %5
  %18 = icmp eq i64 %17, 0
  br i1 %18, label %24, label %19

19:                                               ; preds = %15
  %20 = ashr exact i64 %17, 2
  %21 = sub nsw i64 2, %20
  %22 = getelementptr inbounds i32, i32* %8, i64 %21
  %23 = bitcast i32* %22 to i8*
  tail call void @llvm.memmove.p0i8.p0i8.i64(i8* nonnull align 4 %23, i8* nonnull align 4 %6, i64 %17, i1 false) #25
  br label %24

24:                                               ; preds = %15, %19
  store i32 %12, i32* %0, align 4, !tbaa !13
  br label %25

25:                                               ; preds = %24, %26
  br label %7, !llvm.loop !41

26:                                               ; preds = %11
  tail call void @_ZSt25__unguarded_linear_insertIN9__gnu_cxx17__normal_iteratorIPiSt6vectorIiSaIiEEEENS0_5__ops14_Val_less_iterEEvT_T0_(i32* nonnull %9) #24
  br label %25

27:                                               ; preds = %7, %2
  ret void
}

; Function Attrs: inlinehint minsize mustprogress optsize sspstrong uwtable
define linkonce_odr dso_local void @_ZSt26__unguarded_insertion_sortIN9__gnu_cxx17__normal_iteratorIPiSt6vectorIiSaIiEEEENS0_5__ops15_Iter_less_iterEEvT_S9_T0_(i32* %0, i32* %1) local_unnamed_addr #6 comdat {
  br label %3

3:                                                ; preds = %7, %2
  %4 = phi i32* [ %0, %2 ], [ %8, %7 ]
  %5 = icmp eq i32* %4, %1
  br i1 %5, label %6, label %7

6:                                                ; preds = %3
  ret void

7:                                                ; preds = %3
  tail call void @_ZSt25__unguarded_linear_insertIN9__gnu_cxx17__normal_iteratorIPiSt6vectorIiSaIiEEEENS0_5__ops14_Val_less_iterEEvT_T0_(i32* %4) #24
  %8 = getelementptr inbounds i32, i32* %4, i64 1
  br label %3, !llvm.loop !42
}

; Function Attrs: minsize mustprogress optsize sspstrong uwtable
define linkonce_odr dso_local void @_ZSt25__unguarded_linear_insertIN9__gnu_cxx17__normal_iteratorIPiSt6vectorIiSaIiEEEENS0_5__ops14_Val_less_iterEEvT_T0_(i32* %0) local_unnamed_addr #8 comdat {
  %2 = load i32, i32* %0, align 4, !tbaa !13
  br label %3

3:                                                ; preds = %8, %1
  %4 = phi i32* [ %0, %1 ], [ %5, %8 ]
  %5 = getelementptr inbounds i32, i32* %4, i64 -1
  %6 = load i32, i32* %5, align 4, !tbaa !13
  %7 = icmp slt i32 %2, %6
  br i1 %7, label %8, label %9

8:                                                ; preds = %3
  store i32 %6, i32* %4, align 4, !tbaa !13
  br label %3, !llvm.loop !43

9:                                                ; preds = %3
  store i32 %2, i32* %4, align 4, !tbaa !13
  ret void
}

; Function Attrs: minsize nofree nosync nounwind optsize sspstrong uwtable
define internal fastcc void @"_ZSt16__introsort_loopIN9__gnu_cxx17__normal_iteratorIPiSt6vectorIiSaIiEEEElNS0_5__ops15_Iter_comp_iterIZ4mainE3$_0EEEvT_SB_T0_T1_"(i32* %0, i32* %1, i64 %2, %"class.std::vector"* %3, %"class.std::vector"* %4) unnamed_addr #17 {
  %6 = alloca %"struct.__gnu_cxx::__ops::_Iter_comp_iter", align 8
  %7 = alloca %"struct.__gnu_cxx::__ops::_Iter_comp_iter", align 8
  %8 = alloca %"struct.__gnu_cxx::__ops::_Iter_comp_iter", align 8
  %9 = ptrtoint i32* %0 to i64
  %10 = getelementptr inbounds i32, i32* %0, i64 1
  %11 = bitcast %"struct.__gnu_cxx::__ops::_Iter_comp_iter"* %7 to i8*
  %12 = getelementptr inbounds %"struct.__gnu_cxx::__ops::_Iter_comp_iter", %"struct.__gnu_cxx::__ops::_Iter_comp_iter"* %7, i64 0, i32 0, i32 0
  %13 = getelementptr inbounds %"struct.__gnu_cxx::__ops::_Iter_comp_iter", %"struct.__gnu_cxx::__ops::_Iter_comp_iter"* %7, i64 0, i32 0, i32 1
  %14 = bitcast %"struct.__gnu_cxx::__ops::_Iter_comp_iter"* %6 to i8*
  %15 = getelementptr inbounds %"struct.__gnu_cxx::__ops::_Iter_comp_iter", %"struct.__gnu_cxx::__ops::_Iter_comp_iter"* %6, i64 0, i32 0, i32 0
  %16 = getelementptr inbounds %"struct.__gnu_cxx::__ops::_Iter_comp_iter", %"struct.__gnu_cxx::__ops::_Iter_comp_iter"* %6, i64 0, i32 0, i32 1
  br label %17

17:                                               ; preds = %93, %5
  %18 = phi i32* [ %1, %5 ], [ %81, %93 ]
  %19 = phi i64 [ %2, %5 ], [ %47, %93 ]
  %20 = ptrtoint i32* %18 to i64
  %21 = sub i64 %20, %9
  %22 = ashr exact i64 %21, 2
  %23 = icmp sgt i64 %21, 64
  br i1 %23, label %24, label %94

24:                                               ; preds = %17
  %25 = icmp eq i64 %19, 0
  br i1 %25, label %26, label %46

26:                                               ; preds = %24
  %27 = bitcast %"struct.__gnu_cxx::__ops::_Iter_comp_iter"* %8 to i8*
  call void @llvm.lifetime.start.p0i8(i64 16, i8* nonnull %27)
  %28 = getelementptr inbounds %"struct.__gnu_cxx::__ops::_Iter_comp_iter", %"struct.__gnu_cxx::__ops::_Iter_comp_iter"* %8, i64 0, i32 0, i32 0
  store %"class.std::vector"* %3, %"class.std::vector"** %28, align 8
  %29 = getelementptr inbounds %"struct.__gnu_cxx::__ops::_Iter_comp_iter", %"struct.__gnu_cxx::__ops::_Iter_comp_iter"* %8, i64 0, i32 0, i32 1
  store %"class.std::vector"* %4, %"class.std::vector"** %29, align 8
  %30 = add nsw i64 %22, -2
  %31 = lshr i64 %30, 1
  br label %32

32:                                               ; preds = %32, %26
  %33 = phi i64 [ %31, %26 ], [ %37, %32 ]
  %34 = getelementptr inbounds i32, i32* %0, i64 %33
  %35 = load i32, i32* %34, align 4, !tbaa !13
  tail call fastcc void @"_ZSt13__adjust_heapIN9__gnu_cxx17__normal_iteratorIPiSt6vectorIiSaIiEEEEliNS0_5__ops15_Iter_comp_iterIZ4mainE3$_0EEEvT_T0_SC_T1_T2_"(i32* %0, i64 %33, i64 %22, i32 %35, %"class.std::vector"* %3, %"class.std::vector"* %4) #26
  %36 = icmp eq i64 %33, 0
  %37 = add nsw i64 %33, -1
  br i1 %36, label %38, label %32, !llvm.loop !44

38:                                               ; preds = %32, %43
  %39 = phi i32* [ %44, %43 ], [ %18, %32 ]
  %40 = ptrtoint i32* %39 to i64
  %41 = sub i64 %40, %9
  %42 = icmp sgt i64 %41, 4
  br i1 %42, label %43, label %45

43:                                               ; preds = %38
  %44 = getelementptr inbounds i32, i32* %39, i64 -1
  call fastcc void @"_ZSt10__pop_heapIN9__gnu_cxx17__normal_iteratorIPiSt6vectorIiSaIiEEEENS0_5__ops15_Iter_comp_iterIZ4mainE3$_0EEEvT_SB_SB_RT0_"(i32* %0, i32* nonnull %44, i32* nonnull %44, %"struct.__gnu_cxx::__ops::_Iter_comp_iter"* nonnull align 8 dereferenceable(16) %8) #26
  br label %38, !llvm.loop !45

45:                                               ; preds = %38
  call void @llvm.lifetime.end.p0i8(i64 16, i8* nonnull %27)
  br label %94

46:                                               ; preds = %24
  %47 = add nsw i64 %19, -1
  %48 = lshr i64 %22, 1
  %49 = getelementptr inbounds i32, i32* %0, i64 %48
  %50 = getelementptr inbounds i32, i32* %18, i64 -1
  call void @llvm.lifetime.start.p0i8(i64 16, i8* nonnull %11) #25
  store %"class.std::vector"* %3, %"class.std::vector"** %12, align 8
  store %"class.std::vector"* %4, %"class.std::vector"** %13, align 8
  %51 = call fastcc zeroext i1 @"_ZN9__gnu_cxx5__ops15_Iter_comp_iterIZ4mainE3$_0EclINS_17__normal_iteratorIPiSt6vectorIiSaIiEEEESA_EEbT_T0_"(%"struct.__gnu_cxx::__ops::_Iter_comp_iter"* nonnull align 8 dereferenceable(16) %7, i32* nonnull %10, i32* %49) #26
  br i1 %51, label %52, label %64

52:                                               ; preds = %46
  %53 = call fastcc zeroext i1 @"_ZN9__gnu_cxx5__ops15_Iter_comp_iterIZ4mainE3$_0EclINS_17__normal_iteratorIPiSt6vectorIiSaIiEEEESA_EEbT_T0_"(%"struct.__gnu_cxx::__ops::_Iter_comp_iter"* nonnull align 8 dereferenceable(16) %7, i32* %49, i32* nonnull %50) #26
  br i1 %53, label %54, label %57

54:                                               ; preds = %52
  %55 = load i32, i32* %0, align 4, !tbaa !13
  %56 = load i32, i32* %49, align 4, !tbaa !13
  store i32 %56, i32* %0, align 4, !tbaa !13
  store i32 %55, i32* %49, align 4, !tbaa !13
  br label %76

57:                                               ; preds = %52
  %58 = call fastcc zeroext i1 @"_ZN9__gnu_cxx5__ops15_Iter_comp_iterIZ4mainE3$_0EclINS_17__normal_iteratorIPiSt6vectorIiSaIiEEEESA_EEbT_T0_"(%"struct.__gnu_cxx::__ops::_Iter_comp_iter"* nonnull align 8 dereferenceable(16) %7, i32* nonnull %10, i32* nonnull %50) #26
  %59 = load i32, i32* %0, align 4, !tbaa !13
  br i1 %58, label %60, label %62

60:                                               ; preds = %57
  %61 = load i32, i32* %50, align 4, !tbaa !13
  store i32 %61, i32* %0, align 4, !tbaa !13
  store i32 %59, i32* %50, align 4, !tbaa !13
  br label %76

62:                                               ; preds = %57
  %63 = load i32, i32* %10, align 4, !tbaa !13
  store i32 %63, i32* %0, align 4, !tbaa !13
  store i32 %59, i32* %10, align 4, !tbaa !13
  br label %76

64:                                               ; preds = %46
  %65 = call fastcc zeroext i1 @"_ZN9__gnu_cxx5__ops15_Iter_comp_iterIZ4mainE3$_0EclINS_17__normal_iteratorIPiSt6vectorIiSaIiEEEESA_EEbT_T0_"(%"struct.__gnu_cxx::__ops::_Iter_comp_iter"* nonnull align 8 dereferenceable(16) %7, i32* nonnull %10, i32* nonnull %50) #26
  br i1 %65, label %66, label %69

66:                                               ; preds = %64
  %67 = load i32, i32* %0, align 4, !tbaa !13
  %68 = load i32, i32* %10, align 4, !tbaa !13
  store i32 %68, i32* %0, align 4, !tbaa !13
  store i32 %67, i32* %10, align 4, !tbaa !13
  br label %76

69:                                               ; preds = %64
  %70 = call fastcc zeroext i1 @"_ZN9__gnu_cxx5__ops15_Iter_comp_iterIZ4mainE3$_0EclINS_17__normal_iteratorIPiSt6vectorIiSaIiEEEESA_EEbT_T0_"(%"struct.__gnu_cxx::__ops::_Iter_comp_iter"* nonnull align 8 dereferenceable(16) %7, i32* %49, i32* nonnull %50) #26
  %71 = load i32, i32* %0, align 4, !tbaa !13
  br i1 %70, label %72, label %74

72:                                               ; preds = %69
  %73 = load i32, i32* %50, align 4, !tbaa !13
  store i32 %73, i32* %0, align 4, !tbaa !13
  store i32 %71, i32* %50, align 4, !tbaa !13
  br label %76

74:                                               ; preds = %69
  %75 = load i32, i32* %49, align 4, !tbaa !13
  store i32 %75, i32* %0, align 4, !tbaa !13
  store i32 %71, i32* %49, align 4, !tbaa !13
  br label %76

76:                                               ; preds = %74, %72, %66, %62, %60, %54
  call void @llvm.lifetime.end.p0i8(i64 16, i8* nonnull %11) #25
  call void @llvm.lifetime.start.p0i8(i64 16, i8* nonnull %14) #25
  store %"class.std::vector"* %3, %"class.std::vector"** %15, align 8
  store %"class.std::vector"* %4, %"class.std::vector"** %16, align 8
  br label %77

77:                                               ; preds = %90, %76
  %78 = phi i32* [ %10, %76 ], [ %83, %90 ]
  %79 = phi i32* [ %18, %76 ], [ %86, %90 ]
  br label %80

80:                                               ; preds = %80, %77
  %81 = phi i32* [ %78, %77 ], [ %83, %80 ]
  %82 = call fastcc zeroext i1 @"_ZN9__gnu_cxx5__ops15_Iter_comp_iterIZ4mainE3$_0EclINS_17__normal_iteratorIPiSt6vectorIiSaIiEEEESA_EEbT_T0_"(%"struct.__gnu_cxx::__ops::_Iter_comp_iter"* nonnull align 8 dereferenceable(16) %6, i32* nonnull %81, i32* %0) #26
  %83 = getelementptr inbounds i32, i32* %81, i64 1
  br i1 %82, label %80, label %84, !llvm.loop !46

84:                                               ; preds = %80, %84
  %85 = phi i32* [ %86, %84 ], [ %79, %80 ]
  %86 = getelementptr inbounds i32, i32* %85, i64 -1
  %87 = call fastcc zeroext i1 @"_ZN9__gnu_cxx5__ops15_Iter_comp_iterIZ4mainE3$_0EclINS_17__normal_iteratorIPiSt6vectorIiSaIiEEEESA_EEbT_T0_"(%"struct.__gnu_cxx::__ops::_Iter_comp_iter"* nonnull align 8 dereferenceable(16) %6, i32* %0, i32* nonnull %86) #26
  br i1 %87, label %84, label %88, !llvm.loop !47

88:                                               ; preds = %84
  %89 = icmp ult i32* %81, %86
  br i1 %89, label %90, label %93

90:                                               ; preds = %88
  %91 = load i32, i32* %81, align 4, !tbaa !13
  %92 = load i32, i32* %86, align 4, !tbaa !13
  store i32 %92, i32* %81, align 4, !tbaa !13
  store i32 %91, i32* %86, align 4, !tbaa !13
  br label %77, !llvm.loop !48

93:                                               ; preds = %88
  call void @llvm.lifetime.end.p0i8(i64 16, i8* nonnull %14) #25
  tail call fastcc void @"_ZSt16__introsort_loopIN9__gnu_cxx17__normal_iteratorIPiSt6vectorIiSaIiEEEElNS0_5__ops15_Iter_comp_iterIZ4mainE3$_0EEEvT_SB_T0_T1_"(i32* %81, i32* %18, i64 %47, %"class.std::vector"* %3, %"class.std::vector"* %4) #24
  br label %17, !llvm.loop !49

94:                                               ; preds = %17, %45
  ret void
}

; Function Attrs: minsize mustprogress nofree norecurse nosync nounwind optsize readonly sspstrong uwtable willreturn
define internal fastcc zeroext i1 @"_ZN9__gnu_cxx5__ops15_Iter_comp_iterIZ4mainE3$_0EclINS_17__normal_iteratorIPiSt6vectorIiSaIiEEEESA_EEbT_T0_"(%"struct.__gnu_cxx::__ops::_Iter_comp_iter"* nocapture nonnull readonly align 8 dereferenceable(16) %0, i32* %1, i32* %2) unnamed_addr #18 align 2 {
  %4 = getelementptr inbounds %"struct.__gnu_cxx::__ops::_Iter_comp_iter", %"struct.__gnu_cxx::__ops::_Iter_comp_iter"* %0, i64 0, i32 0
  %5 = load i32, i32* %1, align 4, !tbaa !13
  %6 = load i32, i32* %2, align 4, !tbaa !13
  %7 = tail call fastcc zeroext i1 @"_ZZ4mainENK3$_0clEii"(%class.anon* nonnull align 8 dereferenceable(16) %4, i32 %5, i32 %6) #24
  ret i1 %7
}

; Function Attrs: inlinehint minsize mustprogress nofree nosync nounwind optsize sspstrong uwtable
define internal fastcc void @"_ZSt10__pop_heapIN9__gnu_cxx17__normal_iteratorIPiSt6vectorIiSaIiEEEENS0_5__ops15_Iter_comp_iterIZ4mainE3$_0EEEvT_SB_SB_RT0_"(i32* %0, i32* %1, i32* %2, %"struct.__gnu_cxx::__ops::_Iter_comp_iter"* nocapture nonnull readonly align 8 dereferenceable(16) %3) unnamed_addr #19 {
  %5 = load i32, i32* %2, align 4, !tbaa !13
  %6 = load i32, i32* %0, align 4, !tbaa !13
  store i32 %6, i32* %2, align 4, !tbaa !13
  %7 = ptrtoint i32* %1 to i64
  %8 = ptrtoint i32* %0 to i64
  %9 = sub i64 %7, %8
  %10 = ashr exact i64 %9, 2
  %11 = getelementptr inbounds %"struct.__gnu_cxx::__ops::_Iter_comp_iter", %"struct.__gnu_cxx::__ops::_Iter_comp_iter"* %3, i64 0, i32 0, i32 0
  %12 = load %"class.std::vector"*, %"class.std::vector"** %11, align 8, !tbaa.struct !50
  %13 = getelementptr inbounds %"struct.__gnu_cxx::__ops::_Iter_comp_iter", %"struct.__gnu_cxx::__ops::_Iter_comp_iter"* %3, i64 0, i32 0, i32 1
  %14 = load %"class.std::vector"*, %"class.std::vector"** %13, align 8, !tbaa.struct !51
  tail call fastcc void @"_ZSt13__adjust_heapIN9__gnu_cxx17__normal_iteratorIPiSt6vectorIiSaIiEEEEliNS0_5__ops15_Iter_comp_iterIZ4mainE3$_0EEEvT_T0_SC_T1_T2_"(i32* nonnull %0, i64 0, i64 %10, i32 %5, %"class.std::vector"* %12, %"class.std::vector"* %14) #24
  ret void
}

; Function Attrs: minsize nofree nosync nounwind optsize sspstrong uwtable
define internal fastcc void @"_ZSt13__adjust_heapIN9__gnu_cxx17__normal_iteratorIPiSt6vectorIiSaIiEEEEliNS0_5__ops15_Iter_comp_iterIZ4mainE3$_0EEEvT_T0_SC_T1_T2_"(i32* %0, i64 %1, i64 %2, i32 %3, %"class.std::vector"* %4, %"class.std::vector"* %5) unnamed_addr #17 {
  %7 = alloca %"struct.__gnu_cxx::__ops::_Iter_comp_iter", align 8
  %8 = alloca %"struct.__gnu_cxx::__ops::_Iter_comp_val", align 8
  %9 = getelementptr inbounds %"struct.__gnu_cxx::__ops::_Iter_comp_iter", %"struct.__gnu_cxx::__ops::_Iter_comp_iter"* %7, i64 0, i32 0, i32 0
  store %"class.std::vector"* %4, %"class.std::vector"** %9, align 8
  %10 = getelementptr inbounds %"struct.__gnu_cxx::__ops::_Iter_comp_iter", %"struct.__gnu_cxx::__ops::_Iter_comp_iter"* %7, i64 0, i32 0, i32 1
  store %"class.std::vector"* %5, %"class.std::vector"** %10, align 8
  %11 = add nsw i64 %2, -1
  %12 = sdiv i64 %11, 2
  br label %13

13:                                               ; preds = %16, %6
  %14 = phi i64 [ %1, %6 ], [ %23, %16 ]
  %15 = icmp slt i64 %14, %12
  br i1 %15, label %16, label %27

16:                                               ; preds = %13
  %17 = shl i64 %14, 1
  %18 = add i64 %17, 2
  %19 = getelementptr inbounds i32, i32* %0, i64 %18
  %20 = or i64 %17, 1
  %21 = getelementptr inbounds i32, i32* %0, i64 %20
  %22 = call fastcc zeroext i1 @"_ZN9__gnu_cxx5__ops15_Iter_comp_iterIZ4mainE3$_0EclINS_17__normal_iteratorIPiSt6vectorIiSaIiEEEESA_EEbT_T0_"(%"struct.__gnu_cxx::__ops::_Iter_comp_iter"* nonnull align 8 dereferenceable(16) %7, i32* %19, i32* nonnull %21) #24
  %23 = select i1 %22, i64 %20, i64 %18
  %24 = getelementptr inbounds i32, i32* %0, i64 %23
  %25 = load i32, i32* %24, align 4, !tbaa !13
  %26 = getelementptr inbounds i32, i32* %0, i64 %14
  store i32 %25, i32* %26, align 4, !tbaa !13
  br label %13, !llvm.loop !52

27:                                               ; preds = %13
  %28 = and i64 %2, 1
  %29 = icmp eq i64 %28, 0
  br i1 %29, label %30, label %40

30:                                               ; preds = %27
  %31 = add nsw i64 %2, -2
  %32 = sdiv i64 %31, 2
  %33 = icmp eq i64 %14, %32
  br i1 %33, label %34, label %40

34:                                               ; preds = %30
  %35 = shl i64 %14, 1
  %36 = or i64 %35, 1
  %37 = getelementptr inbounds i32, i32* %0, i64 %36
  %38 = load i32, i32* %37, align 4, !tbaa !13
  %39 = getelementptr inbounds i32, i32* %0, i64 %14
  store i32 %38, i32* %39, align 4, !tbaa !13
  br label %40

40:                                               ; preds = %34, %30, %27
  %41 = phi i64 [ %36, %34 ], [ %14, %30 ], [ %14, %27 ]
  %42 = bitcast %"struct.__gnu_cxx::__ops::_Iter_comp_val"* %8 to i8*
  call void @llvm.lifetime.start.p0i8(i64 16, i8* nonnull %42) #25
  %43 = bitcast %"struct.__gnu_cxx::__ops::_Iter_comp_iter"* %7 to i8*
  call void @llvm.memcpy.p0i8.p0i8.i64(i8* noundef nonnull align 8 dereferenceable(16) %42, i8* noundef nonnull align 8 dereferenceable(16) %43, i64 16, i1 false) #25, !tbaa.struct !50
  %44 = getelementptr inbounds %"struct.__gnu_cxx::__ops::_Iter_comp_val", %"struct.__gnu_cxx::__ops::_Iter_comp_val"* %8, i64 0, i32 0
  br label %45

45:                                               ; preds = %54, %40
  %46 = phi i64 [ %41, %40 ], [ %48, %54 ]
  %47 = add nsw i64 %46, -1
  %48 = sdiv i64 %47, 2
  %49 = icmp sgt i64 %46, %1
  br i1 %49, label %50, label %56

50:                                               ; preds = %45
  %51 = getelementptr inbounds i32, i32* %0, i64 %48
  %52 = load i32, i32* %51, align 4, !tbaa !13
  %53 = call fastcc zeroext i1 @"_ZZ4mainENK3$_0clEii"(%class.anon* nonnull align 8 dereferenceable(16) %44, i32 %52, i32 %3) #26
  br i1 %53, label %54, label %56

54:                                               ; preds = %50
  %55 = getelementptr inbounds i32, i32* %0, i64 %46
  store i32 %52, i32* %55, align 4, !tbaa !13
  br label %45, !llvm.loop !53

56:                                               ; preds = %45, %50
  %57 = getelementptr inbounds i32, i32* %0, i64 %46
  store i32 %3, i32* %57, align 4, !tbaa !13
  call void @llvm.lifetime.end.p0i8(i64 16, i8* nonnull %42) #25
  ret void
}

; Function Attrs: inlinehint minsize mustprogress nofree norecurse nosync nounwind optsize readonly sspstrong uwtable willreturn
define internal fastcc zeroext i1 @"_ZZ4mainENK3$_0clEii"(%class.anon* nocapture nonnull readonly align 8 dereferenceable(16) %0, i32 %1, i32 %2) unnamed_addr #20 align 2 {
  %4 = getelementptr inbounds %class.anon, %class.anon* %0, i64 0, i32 0
  %5 = load %"class.std::vector"*, %"class.std::vector"** %4, align 8, !tbaa !54
  %6 = sext i32 %2 to i64
  %7 = getelementptr inbounds %"class.std::vector", %"class.std::vector"* %5, i64 0, i32 0, i32 0, i32 0, i32 0
  %8 = load i32*, i32** %7, align 8, !tbaa !16
  %9 = getelementptr inbounds i32, i32* %8, i64 %6
  %10 = load i32, i32* %9, align 4, !tbaa !13
  %11 = sext i32 %10 to i64
  %12 = getelementptr inbounds %class.anon, %class.anon* %0, i64 0, i32 1
  %13 = load %"class.std::vector"*, %"class.std::vector"** %12, align 8, !tbaa !56
  %14 = sext i32 %1 to i64
  %15 = getelementptr inbounds %"class.std::vector", %"class.std::vector"* %13, i64 0, i32 0, i32 0, i32 0, i32 0
  %16 = load i32*, i32** %15, align 8, !tbaa !16
  %17 = getelementptr inbounds i32, i32* %16, i64 %14
  %18 = load i32, i32* %17, align 4, !tbaa !13
  %19 = add nsw i32 %18, 1
  %20 = sext i32 %19 to i64
  %21 = mul nsw i64 %20, %11
  %22 = getelementptr inbounds i32, i32* %8, i64 %14
  %23 = load i32, i32* %22, align 4, !tbaa !13
  %24 = sext i32 %23 to i64
  %25 = getelementptr inbounds i32, i32* %16, i64 %6
  %26 = load i32, i32* %25, align 4, !tbaa !13
  %27 = add nsw i32 %26, 1
  %28 = sext i32 %27 to i64
  %29 = mul nsw i64 %28, %24
  %30 = icmp slt i64 %21, %29
  ret i1 %30
}

; Function Attrs: minsize nofree norecurse nosync nounwind optsize sspstrong uwtable
define internal fastcc void @"_ZSt16__insertion_sortIN9__gnu_cxx17__normal_iteratorIPiSt6vectorIiSaIiEEEENS0_5__ops15_Iter_comp_iterIZ4mainE3$_0EEEvT_SB_T0_"(i32* %0, i32* %1, %"class.std::vector"* %2, %"class.std::vector"* %3) unnamed_addr #21 {
  %5 = alloca %"struct.__gnu_cxx::__ops::_Iter_comp_iter", align 8
  %6 = getelementptr inbounds %"struct.__gnu_cxx::__ops::_Iter_comp_iter", %"struct.__gnu_cxx::__ops::_Iter_comp_iter"* %5, i64 0, i32 0, i32 0
  store %"class.std::vector"* %2, %"class.std::vector"** %6, align 8
  %7 = getelementptr inbounds %"struct.__gnu_cxx::__ops::_Iter_comp_iter", %"struct.__gnu_cxx::__ops::_Iter_comp_iter"* %5, i64 0, i32 0, i32 1
  store %"class.std::vector"* %3, %"class.std::vector"** %7, align 8
  %8 = icmp eq i32* %0, %1
  br i1 %8, label %31, label %9

9:                                                ; preds = %4
  %10 = ptrtoint i32* %0 to i64
  %11 = bitcast i32* %0 to i8*
  br label %12

12:                                               ; preds = %29, %9
  %13 = phi i32* [ %0, %9 ], [ %14, %29 ]
  %14 = getelementptr inbounds i32, i32* %13, i64 1
  %15 = icmp eq i32* %14, %1
  br i1 %15, label %31, label %16

16:                                               ; preds = %12
  %17 = call fastcc zeroext i1 @"_ZN9__gnu_cxx5__ops15_Iter_comp_iterIZ4mainE3$_0EclINS_17__normal_iteratorIPiSt6vectorIiSaIiEEEESA_EEbT_T0_"(%"struct.__gnu_cxx::__ops::_Iter_comp_iter"* nonnull align 8 dereferenceable(16) %5, i32* nonnull %14, i32* %0) #24
  br i1 %17, label %18, label %30

18:                                               ; preds = %16
  %19 = load i32, i32* %14, align 4, !tbaa !13
  %20 = ptrtoint i32* %14 to i64
  %21 = sub i64 %20, %10
  %22 = icmp eq i64 %21, 0
  br i1 %22, label %28, label %23

23:                                               ; preds = %18
  %24 = ashr exact i64 %21, 2
  %25 = sub nsw i64 2, %24
  %26 = getelementptr inbounds i32, i32* %13, i64 %25
  %27 = bitcast i32* %26 to i8*
  tail call void @llvm.memmove.p0i8.p0i8.i64(i8* nonnull align 4 %27, i8* align 4 %11, i64 %21, i1 false) #25
  br label %28

28:                                               ; preds = %18, %23
  store i32 %19, i32* %0, align 4, !tbaa !13
  br label %29

29:                                               ; preds = %28, %30
  br label %12, !llvm.loop !57

30:                                               ; preds = %16
  tail call fastcc void @"_ZSt25__unguarded_linear_insertIN9__gnu_cxx17__normal_iteratorIPiSt6vectorIiSaIiEEEENS0_5__ops14_Val_comp_iterIZ4mainE3$_0EEEvT_T0_"(i32* nonnull %14, %"class.std::vector"* %2, %"class.std::vector"* %3) #24
  br label %29

31:                                               ; preds = %12, %4
  ret void
}

; Function Attrs: minsize mustprogress nofree norecurse nosync nounwind optsize sspstrong uwtable
define internal fastcc void @"_ZSt25__unguarded_linear_insertIN9__gnu_cxx17__normal_iteratorIPiSt6vectorIiSaIiEEEENS0_5__ops14_Val_comp_iterIZ4mainE3$_0EEEvT_T0_"(i32* %0, %"class.std::vector"* %1, %"class.std::vector"* %2) unnamed_addr #22 {
  %4 = alloca %"struct.__gnu_cxx::__ops::_Val_comp_iter", align 8
  %5 = getelementptr inbounds %"struct.__gnu_cxx::__ops::_Val_comp_iter", %"struct.__gnu_cxx::__ops::_Val_comp_iter"* %4, i64 0, i32 0, i32 0
  store %"class.std::vector"* %1, %"class.std::vector"** %5, align 8
  %6 = getelementptr inbounds %"struct.__gnu_cxx::__ops::_Val_comp_iter", %"struct.__gnu_cxx::__ops::_Val_comp_iter"* %4, i64 0, i32 0, i32 1
  store %"class.std::vector"* %2, %"class.std::vector"** %6, align 8
  %7 = load i32, i32* %0, align 4, !tbaa !13
  %8 = getelementptr inbounds %"struct.__gnu_cxx::__ops::_Val_comp_iter", %"struct.__gnu_cxx::__ops::_Val_comp_iter"* %4, i64 0, i32 0
  br label %9

9:                                                ; preds = %14, %3
  %10 = phi i32* [ %0, %3 ], [ %11, %14 ]
  %11 = getelementptr inbounds i32, i32* %10, i64 -1
  %12 = load i32, i32* %11, align 4, !tbaa !13
  %13 = call fastcc zeroext i1 @"_ZZ4mainENK3$_0clEii"(%class.anon* nonnull align 8 dereferenceable(16) %8, i32 %7, i32 %12) #26
  br i1 %13, label %14, label %15

14:                                               ; preds = %9
  store i32 %12, i32* %10, align 4, !tbaa !13
  br label %9, !llvm.loop !58

15:                                               ; preds = %9
  store i32 %7, i32* %10, align 4, !tbaa !13
  ret void
}

; Function Attrs: minsize mustprogress optsize sspstrong uwtable
define linkonce_odr dso_local void @_ZNSt6vectorIiSaIiEE18_M_fill_initializeEmRKi(%"class.std::vector"* nonnull align 8 dereferenceable(24) %0, i64 %1, i32* nonnull align 4 dereferenceable(4) %2) local_unnamed_addr #8 comdat align 2 {
  %4 = getelementptr inbounds %"class.std::vector", %"class.std::vector"* %0, i64 0, i32 0, i32 0, i32 0, i32 0
  %5 = load i32*, i32** %4, align 8, !tbaa !16
  %6 = tail call i32* @_ZSt10__fill_n_aIPimiET_S1_T0_RKT1_St26random_access_iterator_tag(i32* %5, i64 %1, i32* nonnull align 4 dereferenceable(4) %2) #24
  %7 = getelementptr inbounds %"class.std::vector", %"class.std::vector"* %0, i64 0, i32 0, i32 0, i32 0, i32 1
  store i32* %6, i32** %7, align 8, !tbaa !27
  ret void
}

; Function Attrs: minsize optsize sspstrong uwtable
define linkonce_odr dso_local i64 @_ZNSt6vectorIS_IiSaIiEESaIS1_EE17_S_check_init_lenEmRKS2_(i64 %0, %"class.std::allocator.2"* nonnull align 1 dereferenceable(1) %1) local_unnamed_addr #5 comdat align 2 {
  %3 = icmp ugt i64 %0, 384307168202282325
  br i1 %3, label %4, label %5

4:                                                ; preds = %2
  tail call void @_ZSt20__throw_length_errorPKc(i8* getelementptr inbounds ([49 x i8], [49 x i8]* @.str.1, i64 0, i64 0)) #28
  unreachable

5:                                                ; preds = %2
  ret i64 %0
}

; Function Attrs: minsize mustprogress optsize sspstrong uwtable
define linkonce_odr dso_local void @_ZNSt6vectorIS_IiSaIiEESaIS1_EE18_M_fill_initializeEmRKS1_(%"class.std::vector.0"* nonnull align 8 dereferenceable(24) %0, i64 %1, %"class.std::vector"* nonnull align 8 dereferenceable(24) %2) local_unnamed_addr #8 comdat align 2 {
  %4 = getelementptr inbounds %"class.std::vector.0", %"class.std::vector.0"* %0, i64 0, i32 0, i32 0, i32 0, i32 0
  %5 = load %"class.std::vector"*, %"class.std::vector"** %4, align 8, !tbaa !22
  %6 = tail call %"class.std::vector"* @_ZNSt22__uninitialized_fill_nILb0EE15__uninit_fill_nIPSt6vectorIiSaIiEEmS4_EET_S6_T0_RKT1_(%"class.std::vector"* %5, i64 %1, %"class.std::vector"* nonnull align 8 dereferenceable(24) %2) #24
  %7 = getelementptr inbounds %"class.std::vector.0", %"class.std::vector.0"* %0, i64 0, i32 0, i32 0, i32 0, i32 1
  store %"class.std::vector"* %6, %"class.std::vector"** %7, align 8, !tbaa !29
  ret void
}

; Function Attrs: minsize nounwind optsize sspstrong uwtable
define linkonce_odr dso_local void @_ZNSt12_Vector_baseISt6vectorIiSaIiEESaIS2_EED2Ev(%"struct.std::_Vector_base.1"* nonnull align 8 dereferenceable(24) %0) unnamed_addr #7 comdat align 2 personality i8* bitcast (i32 (...)* @__gxx_personality_v0 to i8*) {
  %2 = getelementptr inbounds %"struct.std::_Vector_base.1", %"struct.std::_Vector_base.1"* %0, i64 0, i32 0, i32 0, i32 0
  %3 = load %"class.std::vector"*, %"class.std::vector"** %2, align 8, !tbaa !22
  %4 = icmp eq %"class.std::vector"* %3, null
  br i1 %4, label %7, label %5

5:                                                ; preds = %1
  %6 = bitcast %"class.std::vector"* %3 to i8*
  tail call void @_ZdlPv(i8* nonnull %6) #26
  br label %7

7:                                                ; preds = %5, %1
  ret void
}

; Function Attrs: minsize mustprogress optsize sspstrong uwtable
define linkonce_odr dso_local void @_ZNSt12_Vector_baseISt6vectorIiSaIiEESaIS2_EE17_M_create_storageEm(%"struct.std::_Vector_base.1"* nonnull align 8 dereferenceable(24) %0, i64 %1) local_unnamed_addr #8 comdat align 2 {
  %3 = tail call %"class.std::vector"* @_ZNSt12_Vector_baseISt6vectorIiSaIiEESaIS2_EE11_M_allocateEm(%"struct.std::_Vector_base.1"* nonnull align 8 dereferenceable(24) %0, i64 %1) #24
  %4 = getelementptr inbounds %"struct.std::_Vector_base.1", %"struct.std::_Vector_base.1"* %0, i64 0, i32 0, i32 0, i32 0
  store %"class.std::vector"* %3, %"class.std::vector"** %4, align 8, !tbaa !22
  %5 = getelementptr inbounds %"struct.std::_Vector_base.1", %"struct.std::_Vector_base.1"* %0, i64 0, i32 0, i32 0, i32 1
  store %"class.std::vector"* %3, %"class.std::vector"** %5, align 8, !tbaa !29
  %6 = getelementptr inbounds %"class.std::vector", %"class.std::vector"* %3, i64 %1
  %7 = getelementptr inbounds %"struct.std::_Vector_base.1", %"struct.std::_Vector_base.1"* %0, i64 0, i32 0, i32 0, i32 2
  store %"class.std::vector"* %6, %"class.std::vector"** %7, align 8, !tbaa !59
  ret void
}

; Function Attrs: minsize mustprogress optsize sspstrong uwtable
define linkonce_odr dso_local %"class.std::vector"* @_ZNSt12_Vector_baseISt6vectorIiSaIiEESaIS2_EE11_M_allocateEm(%"struct.std::_Vector_base.1"* nonnull align 8 dereferenceable(24) %0, i64 %1) local_unnamed_addr #8 comdat align 2 {
  %3 = icmp eq i64 %1, 0
  br i1 %3, label %7, label %4

4:                                                ; preds = %2
  %5 = bitcast %"struct.std::_Vector_base.1"* %0 to %"class.std::allocator.2"*
  %6 = tail call %"class.std::vector"* @_ZNSt16allocator_traitsISaISt6vectorIiSaIiEEEE8allocateERS3_m(%"class.std::allocator.2"* nonnull align 1 dereferenceable(1) %5, i64 %1) #24
  br label %7

7:                                                ; preds = %2, %4
  %8 = phi %"class.std::vector"* [ %6, %4 ], [ null, %2 ]
  ret %"class.std::vector"* %8
}

; Function Attrs: minsize mustprogress optsize sspstrong uwtable
define linkonce_odr dso_local %"class.std::vector"* @_ZNSt16allocator_traitsISaISt6vectorIiSaIiEEEE8allocateERS3_m(%"class.std::allocator.2"* nonnull align 1 dereferenceable(1) %0, i64 %1) local_unnamed_addr #8 comdat align 2 {
  %3 = bitcast %"class.std::allocator.2"* %0 to %"class.__gnu_cxx::new_allocator.3"*
  %4 = tail call %"class.std::vector"* @_ZN9__gnu_cxx13new_allocatorISt6vectorIiSaIiEEE8allocateEmPKv(%"class.__gnu_cxx::new_allocator.3"* nonnull align 1 dereferenceable(1) %3, i64 %1, i8* null) #24
  ret %"class.std::vector"* %4
}

; Function Attrs: minsize mustprogress optsize sspstrong uwtable
define linkonce_odr dso_local %"class.std::vector"* @_ZN9__gnu_cxx13new_allocatorISt6vectorIiSaIiEEE8allocateEmPKv(%"class.__gnu_cxx::new_allocator.3"* nonnull align 1 dereferenceable(1) %0, i64 %1, i8* %2) local_unnamed_addr #8 comdat align 2 {
  %4 = icmp ugt i64 %1, 384307168202282325
  br i1 %4, label %5, label %9, !prof !30

5:                                                ; preds = %3
  %6 = icmp ugt i64 %1, 768614336404564650
  br i1 %6, label %7, label %8

7:                                                ; preds = %5
  tail call void @_ZSt28__throw_bad_array_new_lengthv() #28
  unreachable

8:                                                ; preds = %5
  tail call void @_ZSt17__throw_bad_allocv() #28
  unreachable

9:                                                ; preds = %3
  %10 = mul nuw nsw i64 %1, 24
  %11 = tail call noalias nonnull i8* @_Znwm(i64 %10) #29
  %12 = bitcast i8* %11 to %"class.std::vector"*
  ret %"class.std::vector"* %12
}

; Function Attrs: minsize mustprogress optsize sspstrong uwtable
define linkonce_odr dso_local %"class.std::vector"* @_ZNSt22__uninitialized_fill_nILb0EE15__uninit_fill_nIPSt6vectorIiSaIiEEmS4_EET_S6_T0_RKT1_(%"class.std::vector"* %0, i64 %1, %"class.std::vector"* nonnull align 8 dereferenceable(24) %2) local_unnamed_addr #8 comdat align 2 personality i8* bitcast (i32 (...)* @__gxx_personality_v0 to i8*) {
  br label %4

4:                                                ; preds = %9, %3
  %5 = phi i64 [ %1, %3 ], [ %10, %9 ]
  %6 = phi %"class.std::vector"* [ %0, %3 ], [ %11, %9 ]
  %7 = icmp eq i64 %5, 0
  br i1 %7, label %17, label %8

8:                                                ; preds = %4
  invoke void @_ZNSt6vectorIiSaIiEEC2ERKS1_(%"class.std::vector"* nonnull align 8 dereferenceable(24) %6, %"class.std::vector"* nonnull align 8 dereferenceable(24) %2) #24
          to label %9 unwind label %12

9:                                                ; preds = %8
  %10 = add i64 %5, -1
  %11 = getelementptr inbounds %"class.std::vector", %"class.std::vector"* %6, i64 1
  br label %4, !llvm.loop !60

12:                                               ; preds = %8
  %13 = landingpad { i8*, i32 }
          catch i8* null
  %14 = extractvalue { i8*, i32 } %13, 0
  %15 = tail call i8* @__cxa_begin_catch(i8* %14) #25
  invoke void @_ZNSt12_Destroy_auxILb0EE9__destroyIPSt6vectorIiSaIiEEEEvT_S6_(%"class.std::vector"* %0, %"class.std::vector"* %6) #24
          to label %16 unwind label %18

16:                                               ; preds = %12
  invoke void @__cxa_rethrow() #30
          to label %24 unwind label %18

17:                                               ; preds = %4
  ret %"class.std::vector"* %6

18:                                               ; preds = %12, %16
  %19 = landingpad { i8*, i32 }
          cleanup
  invoke void @__cxa_end_catch()
          to label %20 unwind label %21

20:                                               ; preds = %18
  resume { i8*, i32 } %19

21:                                               ; preds = %18
  %22 = landingpad { i8*, i32 }
          catch i8* null
  %23 = extractvalue { i8*, i32 } %22, 0
  tail call void @__clang_call_terminate(i8* %23) #27
  unreachable

24:                                               ; preds = %16
  unreachable
}

declare void @__cxa_rethrow() local_unnamed_addr

declare void @__cxa_end_catch() local_unnamed_addr

; Function Attrs: minsize optsize sspstrong uwtable
define linkonce_odr dso_local void @_ZNSt6vectorIiSaIiEEC2ERKS1_(%"class.std::vector"* nonnull align 8 dereferenceable(24) %0, %"class.std::vector"* nonnull align 8 dereferenceable(24) %1) unnamed_addr #5 comdat align 2 personality i8* bitcast (i32 (...)* @__gxx_personality_v0 to i8*) {
  %3 = getelementptr inbounds %"class.std::vector", %"class.std::vector"* %0, i64 0, i32 0
  %4 = getelementptr inbounds %"class.std::vector", %"class.std::vector"* %1, i64 0, i32 0, i32 0, i32 0, i32 1
  %5 = load i32*, i32** %4, align 8, !tbaa !27
  %6 = getelementptr inbounds %"class.std::vector", %"class.std::vector"* %1, i64 0, i32 0, i32 0, i32 0, i32 0
  %7 = load i32*, i32** %6, align 8, !tbaa !16
  %8 = ptrtoint i32* %5 to i64
  %9 = ptrtoint i32* %7 to i64
  %10 = sub i64 %8, %9
  %11 = ashr exact i64 %10, 2
  %12 = bitcast %"class.std::vector"* %0 to i8*
  tail call void @llvm.memset.p0i8.i64(i8* noundef nonnull align 8 dereferenceable(24) %12, i8 0, i64 24, i1 false) #25
  tail call void @_ZNSt12_Vector_baseIiSaIiEE17_M_create_storageEm(%"struct.std::_Vector_base"* nonnull align 8 dereferenceable(24) %3, i64 %11) #24
  %13 = load i32*, i32** %6, align 8, !tbaa !15
  %14 = load i32*, i32** %4, align 8, !tbaa !15
  %15 = getelementptr inbounds %"class.std::vector", %"class.std::vector"* %0, i64 0, i32 0, i32 0, i32 0, i32 0
  %16 = load i32*, i32** %15, align 8, !tbaa !16
  %17 = ptrtoint i32* %14 to i64
  %18 = ptrtoint i32* %13 to i64
  %19 = sub i64 %17, %18
  %20 = icmp eq i64 %19, 0
  br i1 %20, label %24, label %21

21:                                               ; preds = %2
  %22 = bitcast i32* %16 to i8*
  %23 = bitcast i32* %13 to i8*
  tail call void @llvm.memmove.p0i8.p0i8.i64(i8* align 4 %22, i8* align 4 %23, i64 %19, i1 false) #25
  br label %24

24:                                               ; preds = %21, %2
  %25 = ashr exact i64 %19, 2
  %26 = getelementptr inbounds i32, i32* %16, i64 %25
  %27 = getelementptr inbounds %"class.std::vector", %"class.std::vector"* %0, i64 0, i32 0, i32 0, i32 0, i32 1
  store i32* %26, i32** %27, align 8, !tbaa !27
  ret void
}

; Function Attrs: minsize optsize sspstrong uwtable
define linkonce_odr dso_local void @_ZNSt12_Destroy_auxILb0EE9__destroyIPSt6vectorIiSaIiEEEEvT_S6_(%"class.std::vector"* %0, %"class.std::vector"* %1) local_unnamed_addr #5 comdat align 2 personality i32 (...)* @__gxx_personality_v0 {
  br label %3

3:                                                ; preds = %6, %2
  %4 = phi %"class.std::vector"* [ %0, %2 ], [ %8, %6 ]
  %5 = icmp eq %"class.std::vector"* %4, %1
  br i1 %5, label %9, label %6

6:                                                ; preds = %3
  %7 = getelementptr inbounds %"class.std::vector", %"class.std::vector"* %4, i64 0, i32 0
  tail call void @_ZNSt12_Vector_baseIiSaIiEED2Ev(%"struct.std::_Vector_base"* nonnull align 8 dereferenceable(24) %7) #26
  %8 = getelementptr inbounds %"class.std::vector", %"class.std::vector"* %4, i64 1
  br label %3, !llvm.loop !61

9:                                                ; preds = %3
  ret void
}

; Function Attrs: minsize optsize sspstrong uwtable
define internal void @_GLOBAL__sub_I_s131759547.cpp() #5 section ".text.startup" {
  tail call void @_ZNSt8ios_base4InitC1Ev(%"class.std::ios_base::Init"* nonnull align 1 dereferenceable(1) @_ZStL8__ioinit) #24
  %1 = tail call i32 @__cxa_atexit(void (i8*)* bitcast (void (%"class.std::ios_base::Init"*)* @_ZNSt8ios_base4InitD1Ev to void (i8*)*), i8* getelementptr inbounds (%"class.std::ios_base::Init", %"class.std::ios_base::Init"* @_ZStL8__ioinit, i64 0, i32 0), i8* nonnull @__dso_handle) #25
  ret void
}

; Function Attrs: argmemonly nofree nounwind willreturn writeonly
declare void @llvm.memset.p0i8.i64(i8* nocapture writeonly, i8, i64, i1 immarg) #23

attributes #0 = { minsize optsize "frame-pointer"="none" "no-trapping-math"="true" "stack-protector-buffer-size"="8" "target-cpu"="x86-64" "target-features"="+cx8,+fxsr,+mmx,+sse,+sse2,+x87" "tune-cpu"="generic" }
attributes #1 = { minsize nounwind optsize "frame-pointer"="none" "no-trapping-math"="true" "stack-protector-buffer-size"="8" "target-cpu"="x86-64" "target-features"="+cx8,+fxsr,+mmx,+sse,+sse2,+x87" "tune-cpu"="generic" }
attributes #2 = { nofree nounwind }
attributes #3 = { minsize norecurse optsize sspstrong uwtable "frame-pointer"="none" "min-legal-vector-width"="0" "no-trapping-math"="true" "stack-protector-buffer-size"="8" "target-cpu"="x86-64" "target-features"="+cx8,+fxsr,+mmx,+sse,+sse2,+x87" "tune-cpu"="generic" }
attributes #4 = { argmemonly mustprogress nofree nosync nounwind willreturn }
attributes #5 = { minsize optsize sspstrong uwtable "frame-pointer"="none" "min-legal-vector-width"="0" "no-trapping-math"="true" "stack-protector-buffer-size"="8" "target-cpu"="x86-64" "target-features"="+cx8,+fxsr,+mmx,+sse,+sse2,+x87" "tune-cpu"="generic" }
attributes #6 = { inlinehint minsize mustprogress optsize sspstrong uwtable "frame-pointer"="none" "min-legal-vector-width"="0" "no-trapping-math"="true" "stack-protector-buffer-size"="8" "target-cpu"="x86-64" "target-features"="+cx8,+fxsr,+mmx,+sse,+sse2,+x87" "tune-cpu"="generic" }
attributes #7 = { minsize nounwind optsize sspstrong uwtable "frame-pointer"="none" "min-legal-vector-width"="0" "no-trapping-math"="true" "stack-protector-buffer-size"="8" "target-cpu"="x86-64" "target-features"="+cx8,+fxsr,+mmx,+sse,+sse2,+x87" "tune-cpu"="generic" }
attributes #8 = { minsize mustprogress optsize sspstrong uwtable "frame-pointer"="none" "min-legal-vector-width"="0" "no-trapping-math"="true" "stack-protector-buffer-size"="8" "target-cpu"="x86-64" "target-features"="+cx8,+fxsr,+mmx,+sse,+sse2,+x87" "tune-cpu"="generic" }
attributes #9 = { minsize noreturn optsize "frame-pointer"="none" "no-trapping-math"="true" "stack-protector-buffer-size"="8" "target-cpu"="x86-64" "target-features"="+cx8,+fxsr,+mmx,+sse,+sse2,+x87" "tune-cpu"="generic" }
attributes #10 = { noinline noreturn nounwind }
attributes #11 = { minsize nobuiltin optsize allocsize(0) "frame-pointer"="none" "no-trapping-math"="true" "stack-protector-buffer-size"="8" "target-cpu"="x86-64" "target-features"="+cx8,+fxsr,+mmx,+sse,+sse2,+x87" "tune-cpu"="generic" }
attributes #12 = { minsize nobuiltin nounwind optsize "frame-pointer"="none" "no-trapping-math"="true" "stack-protector-buffer-size"="8" "target-cpu"="x86-64" "target-features"="+cx8,+fxsr,+mmx,+sse,+sse2,+x87" "tune-cpu"="generic" }
attributes #13 = { argmemonly mustprogress nofree nounwind willreturn }
attributes #14 = { inlinehint minsize optsize sspstrong uwtable "frame-pointer"="none" "min-legal-vector-width"="0" "no-trapping-math"="true" "stack-protector-buffer-size"="8" "target-cpu"="x86-64" "target-features"="+cx8,+fxsr,+mmx,+sse,+sse2,+x87" "tune-cpu"="generic" }
attributes #15 = { minsize mustprogress nounwind optsize sspstrong uwtable "frame-pointer"="none" "min-legal-vector-width"="0" "no-trapping-math"="true" "stack-protector-buffer-size"="8" "target-cpu"="x86-64" "target-features"="+cx8,+fxsr,+mmx,+sse,+sse2,+x87" "tune-cpu"="generic" }
attributes #16 = { mustprogress nofree nosync nounwind readnone speculatable willreturn }
attributes #17 = { minsize nofree nosync nounwind optsize sspstrong uwtable "frame-pointer"="none" "min-legal-vector-width"="0" "no-trapping-math"="true" "stack-protector-buffer-size"="8" "target-cpu"="x86-64" "target-features"="+cx8,+fxsr,+mmx,+sse,+sse2,+x87" "tune-cpu"="generic" }
attributes #18 = { minsize mustprogress nofree norecurse nosync nounwind optsize readonly sspstrong uwtable willreturn "frame-pointer"="none" "min-legal-vector-width"="0" "no-trapping-math"="true" "stack-protector-buffer-size"="8" "target-cpu"="x86-64" "target-features"="+cx8,+fxsr,+mmx,+sse,+sse2,+x87" "tune-cpu"="generic" }
attributes #19 = { inlinehint minsize mustprogress nofree nosync nounwind optsize sspstrong uwtable "frame-pointer"="none" "min-legal-vector-width"="0" "no-trapping-math"="true" "stack-protector-buffer-size"="8" "target-cpu"="x86-64" "target-features"="+cx8,+fxsr,+mmx,+sse,+sse2,+x87" "tune-cpu"="generic" }
attributes #20 = { inlinehint minsize mustprogress nofree norecurse nosync nounwind optsize readonly sspstrong uwtable willreturn "frame-pointer"="none" "min-legal-vector-width"="0" "no-trapping-math"="true" "stack-protector-buffer-size"="8" "target-cpu"="x86-64" "target-features"="+cx8,+fxsr,+mmx,+sse,+sse2,+x87" "tune-cpu"="generic" }
attributes #21 = { minsize nofree norecurse nosync nounwind optsize sspstrong uwtable "frame-pointer"="none" "min-legal-vector-width"="0" "no-trapping-math"="true" "stack-protector-buffer-size"="8" "target-cpu"="x86-64" "target-features"="+cx8,+fxsr,+mmx,+sse,+sse2,+x87" "tune-cpu"="generic" }
attributes #22 = { minsize mustprogress nofree norecurse nosync nounwind optsize sspstrong uwtable "frame-pointer"="none" "min-legal-vector-width"="0" "no-trapping-math"="true" "stack-protector-buffer-size"="8" "target-cpu"="x86-64" "target-features"="+cx8,+fxsr,+mmx,+sse,+sse2,+x87" "tune-cpu"="generic" }
attributes #23 = { argmemonly nofree nounwind willreturn writeonly }
attributes #24 = { minsize optsize }
attributes #25 = { nounwind }
attributes #26 = { minsize nounwind optsize }
attributes #27 = { noreturn nounwind }
attributes #28 = { minsize noreturn optsize }
attributes #29 = { minsize optsize allocsize(0) }
attributes #30 = { noreturn }

!llvm.module.flags = !{!0, !1, !2, !3}
!llvm.ident = !{!4}

!0 = !{i32 1, !"wchar_size", i32 4}
!1 = !{i32 7, !"PIC Level", i32 2}
!2 = !{i32 7, !"PIE Level", i32 2}
!3 = !{i32 7, !"uwtable", i32 1}
!4 = !{!"clang version 13.0.0"}
!5 = !{!6, !6, i64 0}
!6 = !{!"vtable pointer", !7, i64 0}
!7 = !{!"Simple C++ TBAA"}
!8 = !{!9, !10, i64 216}
!9 = !{!"_ZTSSt9basic_iosIcSt11char_traitsIcEE", !10, i64 216, !11, i64 224, !12, i64 225, !10, i64 232, !10, i64 240, !10, i64 248, !10, i64 256}
!10 = !{!"any pointer", !11, i64 0}
!11 = !{!"omnipotent char", !7, i64 0}
!12 = !{!"bool", !11, i64 0}
!13 = !{!14, !14, i64 0}
!14 = !{!"int", !11, i64 0}
!15 = !{!10, !10, i64 0}
!16 = !{!17, !10, i64 0}
!17 = !{!"_ZTSNSt12_Vector_baseIiSaIiEE17_Vector_impl_dataE", !10, i64 0, !10, i64 8, !10, i64 16}
!18 = distinct !{!18, !19}
!19 = !{!"llvm.loop.mustprogress"}
!20 = !{i64 0, i64 65}
!21 = distinct !{!21, !19}
!22 = !{!23, !10, i64 0}
!23 = !{!"_ZTSNSt12_Vector_baseISt6vectorIiSaIiEESaIS2_EE17_Vector_impl_dataE", !10, i64 0, !10, i64 8, !10, i64 16}
!24 = distinct !{!24, !19}
!25 = distinct !{!25, !19}
!26 = distinct !{!26, !19}
!27 = !{!17, !10, i64 8}
!28 = !{!17, !10, i64 16}
!29 = !{!23, !10, i64 8}
!30 = !{!"branch_weights", i32 1, i32 2000}
!31 = distinct !{!31, !19}
!32 = distinct !{!32, !19}
!33 = distinct !{!33, !19}
!34 = distinct !{!34, !19}
!35 = distinct !{!35, !19}
!36 = distinct !{!36, !19}
!37 = distinct !{!37, !19}
!38 = distinct !{!38, !19}
!39 = distinct !{!39, !19}
!40 = distinct !{!40, !19}
!41 = distinct !{!41, !19}
!42 = distinct !{!42, !19}
!43 = distinct !{!43, !19}
!44 = distinct !{!44, !19}
!45 = distinct !{!45, !19}
!46 = distinct !{!46, !19}
!47 = distinct !{!47, !19}
!48 = distinct !{!48, !19}
!49 = distinct !{!49, !19}
!50 = !{i64 0, i64 8, !15, i64 8, i64 8, !15}
!51 = !{i64 0, i64 8, !15}
!52 = distinct !{!52, !19}
!53 = distinct !{!53, !19}
!54 = !{!55, !10, i64 0}
!55 = !{!"_ZTSZ4mainE3$_0", !10, i64 0, !10, i64 8}
!56 = !{!55, !10, i64 8}
!57 = distinct !{!57, !19}
!58 = distinct !{!58, !19}
!59 = !{!23, !10, i64 16}
!60 = distinct !{!60, !19}
!61 = distinct !{!61, !19}
