; ModuleID = 'Project_CodeNet_C++1400/p02750/s133917870.cpp'
source_filename = "Project_CodeNet_C++1400/p02750/s133917870.cpp"
target datalayout = "e-m:e-p270:32:32-p271:32:32-p272:64:64-i64:64-f80:128-n8:16:32:64-S128"
target triple = "x86_64-pc-linux-gnu"

%"class.std::ios_base::Init" = type { i8 }
%"class.std::basic_istream" = type { i32 (...)**, i64, %"class.std::basic_ios" }
%"class.std::basic_ios" = type { %"class.std::ios_base", %"class.std::basic_ostream"*, i8, i8, %"class.std::basic_streambuf"*, %"class.std::ctype"*, %"class.std::num_put"*, %"class.std::num_get"* }
%"class.std::ios_base" = type { i32 (...)**, i64, i64, i32, i32, i32, %"struct.std::ios_base::_Callback_list"*, %"struct.std::ios_base::_Words", [8 x %"struct.std::ios_base::_Words"], i32, %"struct.std::ios_base::_Words"*, %"class.std::locale" }
%"struct.std::ios_base::_Callback_list" = type { %"struct.std::ios_base::_Callback_list"*, void (i32, %"class.std::ios_base"*, i32)*, i32, i32 }
%"struct.std::ios_base::_Words" = type { i8*, i64 }
%"class.std::locale" = type { %"class.std::locale::_Impl"* }
%"class.std::locale::_Impl" = type { i32, %"class.std::locale::facet"**, i64, %"class.std::locale::facet"**, i8** }
%"class.std::locale::facet" = type <{ i32 (...)**, i32, [4 x i8] }>
%"class.std::basic_ostream" = type { i32 (...)**, %"class.std::basic_ios" }
%"class.std::basic_streambuf" = type { i32 (...)**, i8*, i8*, i8*, i8*, i8*, i8*, %"class.std::locale" }
%"class.std::ctype" = type <{ %"class.std::locale::facet.base", [4 x i8], %struct.__locale_struct*, i8, [7 x i8], i32*, i32*, i16*, i8, [256 x i8], [256 x i8], i8, [6 x i8] }>
%"class.std::locale::facet.base" = type <{ i32 (...)**, i32 }>
%struct.__locale_struct = type { [13 x %struct.__locale_data*], i16*, i32*, i32*, [13 x i8*] }
%struct.__locale_data = type opaque
%"class.std::num_put" = type { %"class.std::locale::facet.base", [4 x i8] }
%"class.std::num_get" = type { %"class.std::locale::facet.base", [4 x i8] }
%"class.std::vector" = type { %"struct.std::_Vector_base" }
%"struct.std::_Vector_base" = type { %"struct.std::_Vector_base<Data, std::allocator<Data>>::_Vector_impl" }
%"struct.std::_Vector_base<Data, std::allocator<Data>>::_Vector_impl" = type { %"struct.std::_Vector_base<Data, std::allocator<Data>>::_Vector_impl_data" }
%"struct.std::_Vector_base<Data, std::allocator<Data>>::_Vector_impl_data" = type { %struct.Data*, %struct.Data*, %struct.Data* }
%struct.Data = type { i64, i64 }
%"class.std::allocator" = type { i8 }
%"class.std::vector.0" = type { %"struct.std::_Vector_base.1" }
%"struct.std::_Vector_base.1" = type { %"struct.std::_Vector_base<std::vector<long long>, std::allocator<std::vector<long long>>>::_Vector_impl" }
%"struct.std::_Vector_base<std::vector<long long>, std::allocator<std::vector<long long>>>::_Vector_impl" = type { %"struct.std::_Vector_base<std::vector<long long>, std::allocator<std::vector<long long>>>::_Vector_impl_data" }
%"struct.std::_Vector_base<std::vector<long long>, std::allocator<std::vector<long long>>>::_Vector_impl_data" = type { %"class.std::vector.5"*, %"class.std::vector.5"*, %"class.std::vector.5"* }
%"class.std::vector.5" = type { %"struct.std::_Vector_base.6" }
%"struct.std::_Vector_base.6" = type { %"struct.std::_Vector_base<long long, std::allocator<long long>>::_Vector_impl" }
%"struct.std::_Vector_base<long long, std::allocator<long long>>::_Vector_impl" = type { %"struct.std::_Vector_base<long long, std::allocator<long long>>::_Vector_impl_data" }
%"struct.std::_Vector_base<long long, std::allocator<long long>>::_Vector_impl_data" = type { i64*, i64*, i64* }
%"class.std::allocator.7" = type { i8 }
%"class.std::allocator.2" = type { i8 }
%"class.__gnu_cxx::new_allocator" = type { i8 }
%"struct.__gnu_cxx::__ops::_Iter_less_iter" = type { i8 }
%"struct.__gnu_cxx::__ops::_Iter_less_val" = type { i8 }
%"class.__gnu_cxx::new_allocator.8" = type { i8 }
%"class.__gnu_cxx::new_allocator.3" = type { i8 }

$_ZNSt6vectorI4DataSaIS0_EEC2EmRKS0_RKS1_ = comdat any

$_ZSt4log2IxEN9__gnu_cxx11__enable_ifIXsr12__is_integerIT_EE7__valueEdE6__typeES2_ = comdat any

$_ZNSt6vectorIxSaIxEEC2EmRKxRKS0_ = comdat any

$_ZNSt6vectorIS_IxSaIxEESaIS1_EEC2EmRKS1_RKS2_ = comdat any

$_ZNSt6vectorIS_IxSaIxEESaIS1_EED2Ev = comdat any

$_ZNSt6vectorI4DataSaIS0_EE17_S_check_init_lenEmRKS1_ = comdat any

$_ZNSt6vectorI4DataSaIS0_EE18_M_fill_initializeEmRKS0_ = comdat any

$_ZNSt12_Vector_baseI4DataSaIS0_EED2Ev = comdat any

$__clang_call_terminate = comdat any

$_ZNSt12_Vector_baseI4DataSaIS0_EE17_M_create_storageEm = comdat any

$_ZNSt12_Vector_baseI4DataSaIS0_EE11_M_allocateEm = comdat any

$_ZNSt16allocator_traitsISaI4DataEE8allocateERS1_m = comdat any

$_ZN9__gnu_cxx13new_allocatorI4DataE8allocateEmPKv = comdat any

$_ZSt10__fill_n_aIP4DatamS0_ET_S2_T0_RKT1_St26random_access_iterator_tag = comdat any

$_ZSt6__sortIN9__gnu_cxx17__normal_iteratorIP4DataSt6vectorIS2_SaIS2_EEEENS0_5__ops15_Iter_less_iterEEvT_SA_T0_ = comdat any

$_ZSt16__introsort_loopIN9__gnu_cxx17__normal_iteratorIP4DataSt6vectorIS2_SaIS2_EEEElNS0_5__ops15_Iter_less_iterEEvT_SA_T0_T1_ = comdat any

$_ZSt22__final_insertion_sortIN9__gnu_cxx17__normal_iteratorIP4DataSt6vectorIS2_SaIS2_EEEENS0_5__ops15_Iter_less_iterEEvT_SA_T0_ = comdat any

$_ZSt14__partial_sortIN9__gnu_cxx17__normal_iteratorIP4DataSt6vectorIS2_SaIS2_EEEENS0_5__ops15_Iter_less_iterEEvT_SA_SA_T0_ = comdat any

$_ZSt27__unguarded_partition_pivotIN9__gnu_cxx17__normal_iteratorIP4DataSt6vectorIS2_SaIS2_EEEENS0_5__ops15_Iter_less_iterEET_SA_SA_T0_ = comdat any

$_ZSt13__heap_selectIN9__gnu_cxx17__normal_iteratorIP4DataSt6vectorIS2_SaIS2_EEEENS0_5__ops15_Iter_less_iterEEvT_SA_SA_T0_ = comdat any

$_ZSt11__sort_heapIN9__gnu_cxx17__normal_iteratorIP4DataSt6vectorIS2_SaIS2_EEEENS0_5__ops15_Iter_less_iterEEvT_SA_RT0_ = comdat any

$_ZSt11__make_heapIN9__gnu_cxx17__normal_iteratorIP4DataSt6vectorIS2_SaIS2_EEEENS0_5__ops15_Iter_less_iterEEvT_SA_RT0_ = comdat any

$_ZSt10__pop_heapIN9__gnu_cxx17__normal_iteratorIP4DataSt6vectorIS2_SaIS2_EEEENS0_5__ops15_Iter_less_iterEEvT_SA_SA_RT0_ = comdat any

$_ZSt13__adjust_heapIN9__gnu_cxx17__normal_iteratorIP4DataSt6vectorIS2_SaIS2_EEEElS2_NS0_5__ops15_Iter_less_iterEEvT_T0_SB_T1_T2_ = comdat any

$_ZSt11__push_heapIN9__gnu_cxx17__normal_iteratorIP4DataSt6vectorIS2_SaIS2_EEEElS2_NS0_5__ops14_Iter_less_valEEvT_T0_SB_T1_RT2_ = comdat any

$_ZNK4DataltERKS_ = comdat any

$_ZSt22__move_median_to_firstIN9__gnu_cxx17__normal_iteratorIP4DataSt6vectorIS2_SaIS2_EEEENS0_5__ops15_Iter_less_iterEEvT_SA_SA_SA_T0_ = comdat any

$_ZSt21__unguarded_partitionIN9__gnu_cxx17__normal_iteratorIP4DataSt6vectorIS2_SaIS2_EEEENS0_5__ops15_Iter_less_iterEET_SA_SA_SA_T0_ = comdat any

$_ZSt16__insertion_sortIN9__gnu_cxx17__normal_iteratorIP4DataSt6vectorIS2_SaIS2_EEEENS0_5__ops15_Iter_less_iterEEvT_SA_T0_ = comdat any

$_ZSt26__unguarded_insertion_sortIN9__gnu_cxx17__normal_iteratorIP4DataSt6vectorIS2_SaIS2_EEEENS0_5__ops15_Iter_less_iterEEvT_SA_T0_ = comdat any

$_ZSt25__unguarded_linear_insertIN9__gnu_cxx17__normal_iteratorIP4DataSt6vectorIS2_SaIS2_EEEENS0_5__ops14_Val_less_iterEEvT_T0_ = comdat any

$_ZNSt6vectorIxSaIxEE17_S_check_init_lenEmRKS0_ = comdat any

$_ZNSt6vectorIxSaIxEE18_M_fill_initializeEmRKx = comdat any

$_ZNSt12_Vector_baseIxSaIxEED2Ev = comdat any

$_ZNSt12_Vector_baseIxSaIxEE17_M_create_storageEm = comdat any

$_ZNSt12_Vector_baseIxSaIxEE11_M_allocateEm = comdat any

$_ZNSt16allocator_traitsISaIxEE8allocateERS0_m = comdat any

$_ZN9__gnu_cxx13new_allocatorIxE8allocateEmPKv = comdat any

$_ZSt10__fill_n_aIPxmxET_S1_T0_RKT1_St26random_access_iterator_tag = comdat any

$_ZNSt6vectorIS_IxSaIxEESaIS1_EE17_S_check_init_lenEmRKS2_ = comdat any

$_ZNSt6vectorIS_IxSaIxEESaIS1_EE18_M_fill_initializeEmRKS1_ = comdat any

$_ZNSt12_Vector_baseISt6vectorIxSaIxEESaIS2_EED2Ev = comdat any

$_ZNSt12_Vector_baseISt6vectorIxSaIxEESaIS2_EE17_M_create_storageEm = comdat any

$_ZNSt12_Vector_baseISt6vectorIxSaIxEESaIS2_EE11_M_allocateEm = comdat any

$_ZNSt16allocator_traitsISaISt6vectorIxSaIxEEEE8allocateERS3_m = comdat any

$_ZN9__gnu_cxx13new_allocatorISt6vectorIxSaIxEEE8allocateEmPKv = comdat any

$_ZNSt22__uninitialized_fill_nILb0EE15__uninit_fill_nIPSt6vectorIxSaIxEEmS4_EET_S6_T0_RKT1_ = comdat any

$_ZNSt6vectorIxSaIxEEC2ERKS1_ = comdat any

$_ZNSt12_Destroy_auxILb0EE9__destroyIPSt6vectorIxSaIxEEEEvT_S6_ = comdat any

@_ZStL8__ioinit = internal global %"class.std::ios_base::Init" zeroinitializer, align 1
@__dso_handle = external hidden global i8
@_ZSt3cin = external global %"class.std::basic_istream", align 8
@_ZSt4cout = external global %"class.std::basic_ostream", align 8
@.str = private unnamed_addr constant [49 x i8] c"cannot create std::vector larger than max_size()\00", align 1
@llvm.global_ctors = appending global [1 x { i32, void ()*, i8* }] [{ i32, void ()*, i8* } { i32 65535, void ()* @_GLOBAL__sub_I_s133917870.cpp, i8* null }]

; Function Attrs: minsize optsize
declare void @_ZNSt8ios_base4InitC1Ev(%"class.std::ios_base::Init"* nonnull align 1 dereferenceable(1)) unnamed_addr #0

; Function Attrs: minsize nounwind optsize
declare void @_ZNSt8ios_base4InitD1Ev(%"class.std::ios_base::Init"* nonnull align 1 dereferenceable(1)) unnamed_addr #1

; Function Attrs: nofree nounwind
declare i32 @__cxa_atexit(void (i8*)*, i8*, i8*) local_unnamed_addr #2

; Function Attrs: minsize norecurse optsize sspstrong uwtable
define dso_local i32 @main() local_unnamed_addr #3 personality i8* bitcast (i32 (...)* @__gxx_personality_v0 to i8*) {
  %1 = alloca i32, align 4
  %2 = alloca i64, align 8
  %3 = alloca %"class.std::vector", align 8
  %4 = alloca %struct.Data, align 8
  %5 = alloca %"class.std::allocator", align 1
  %6 = alloca %"class.std::vector.0", align 8
  %7 = alloca %"class.std::vector.5", align 8
  %8 = alloca i64, align 8
  %9 = alloca %"class.std::allocator.7", align 1
  %10 = alloca %"class.std::allocator.2", align 1
  %11 = tail call zeroext i1 @_ZNSt8ios_base15sync_with_stdioEb(i1 zeroext false) #20
  %12 = load i8*, i8** bitcast (%"class.std::basic_istream"* @_ZSt3cin to i8**), align 8, !tbaa !5
  %13 = getelementptr i8, i8* %12, i64 -24
  %14 = bitcast i8* %13 to i64*
  %15 = load i64, i64* %14, align 8
  %16 = add nsw i64 %15, 216
  %17 = getelementptr inbounds i8, i8* bitcast (%"class.std::basic_istream"* @_ZSt3cin to i8*), i64 %16
  %18 = bitcast i8* %17 to %"class.std::basic_ostream"**
  store %"class.std::basic_ostream"* null, %"class.std::basic_ostream"** %18, align 8, !tbaa !8
  %19 = load i8*, i8** bitcast (%"class.std::basic_ostream"* @_ZSt4cout to i8**), align 8, !tbaa !5
  %20 = getelementptr i8, i8* %19, i64 -24
  %21 = bitcast i8* %20 to i64*
  %22 = load i64, i64* %21, align 8
  %23 = add nsw i64 %22, 216
  %24 = getelementptr inbounds i8, i8* bitcast (%"class.std::basic_ostream"* @_ZSt4cout to i8*), i64 %23
  %25 = bitcast i8* %24 to %"class.std::basic_ostream"**
  store %"class.std::basic_ostream"* null, %"class.std::basic_ostream"** %25, align 8, !tbaa !8
  %26 = bitcast i32* %1 to i8*
  call void @llvm.lifetime.start.p0i8(i64 4, i8* nonnull %26) #21
  %27 = bitcast i64* %2 to i8*
  call void @llvm.lifetime.start.p0i8(i64 8, i8* nonnull %27) #21
  %28 = call nonnull align 8 dereferenceable(16) %"class.std::basic_istream"* @_ZNSirsERi(%"class.std::basic_istream"* nonnull align 8 dereferenceable(16) @_ZSt3cin, i32* nonnull align 4 dereferenceable(4) %1) #20
  %29 = call nonnull align 8 dereferenceable(16) %"class.std::basic_istream"* @_ZNSi10_M_extractIxEERSiRT_(%"class.std::basic_istream"* nonnull align 8 dereferenceable(16) %28, i64* nonnull align 8 dereferenceable(8) %2) #20
  %30 = bitcast %"class.std::vector"* %3 to i8*
  call void @llvm.lifetime.start.p0i8(i64 24, i8* nonnull %30) #21
  %31 = load i32, i32* %1, align 4, !tbaa !13
  %32 = add nsw i32 %31, 1
  %33 = sext i32 %32 to i64
  %34 = bitcast %struct.Data* %4 to i8*
  call void @llvm.lifetime.start.p0i8(i64 16, i8* nonnull %34) #21
  %35 = getelementptr inbounds %"class.std::allocator", %"class.std::allocator"* %5, i64 0, i32 0
  %36 = bitcast %struct.Data* %4 to i8*
  call void @llvm.memset.p0i8.i64(i8* noundef nonnull align 8 dereferenceable(16) %36, i8 0, i64 16, i1 false)
  call void @llvm.lifetime.start.p0i8(i64 1, i8* nonnull %35) #21
  call void @_ZNSt6vectorI4DataSaIS0_EEC2EmRKS0_RKS1_(%"class.std::vector"* nonnull align 8 dereferenceable(24) %3, i64 %33, %struct.Data* nonnull align 8 dereferenceable(16) %4, %"class.std::allocator"* nonnull align 1 dereferenceable(1) %5) #20
  call void @llvm.lifetime.end.p0i8(i64 1, i8* nonnull %35) #21
  call void @llvm.lifetime.end.p0i8(i64 16, i8* nonnull %34) #21
  %37 = getelementptr inbounds %"class.std::vector", %"class.std::vector"* %3, i64 0, i32 0, i32 0, i32 0, i32 0
  br label %38

38:                                               ; preds = %55, %0
  %39 = phi i64 [ %56, %55 ], [ 1, %0 ]
  %40 = load i32, i32* %1, align 4, !tbaa !13
  %41 = sext i32 %40 to i64
  %42 = icmp sgt i64 %39, %41
  %43 = load %struct.Data*, %struct.Data** %37, align 8, !tbaa !15
  br i1 %42, label %44, label %48

44:                                               ; preds = %38
  %45 = getelementptr inbounds %struct.Data, %struct.Data* %43, i64 1
  %46 = getelementptr inbounds %"class.std::vector", %"class.std::vector"* %3, i64 0, i32 0, i32 0, i32 0, i32 1
  %47 = load %struct.Data*, %struct.Data** %46, align 8, !tbaa !15
  invoke void @_ZSt6__sortIN9__gnu_cxx17__normal_iteratorIP4DataSt6vectorIS2_SaIS2_EEEENS0_5__ops15_Iter_less_iterEEvT_SA_T0_(%struct.Data* nonnull %45, %struct.Data* %47) #20
          to label %59 unwind label %74

48:                                               ; preds = %38
  %49 = getelementptr inbounds %struct.Data, %struct.Data* %43, i64 %39, i32 0
  %50 = invoke nonnull align 8 dereferenceable(16) %"class.std::basic_istream"* @_ZNSi10_M_extractIxEERSiRT_(%"class.std::basic_istream"* nonnull align 8 dereferenceable(16) @_ZSt3cin, i64* nonnull align 8 dereferenceable(8) %49) #20
          to label %51 unwind label %57

51:                                               ; preds = %48
  %52 = load %struct.Data*, %struct.Data** %37, align 8, !tbaa !16
  %53 = getelementptr inbounds %struct.Data, %struct.Data* %52, i64 %39, i32 1
  %54 = invoke nonnull align 8 dereferenceable(16) %"class.std::basic_istream"* @_ZNSi10_M_extractIxEERSiRT_(%"class.std::basic_istream"* nonnull align 8 dereferenceable(16) %50, i64* nonnull align 8 dereferenceable(8) %53) #20
          to label %55 unwind label %57

55:                                               ; preds = %51
  %56 = add nuw nsw i64 %39, 1
  br label %38, !llvm.loop !18

57:                                               ; preds = %51, %48
  %58 = landingpad { i8*, i32 }
          cleanup
  br label %210

59:                                               ; preds = %44
  %60 = load i32, i32* %1, align 4, !tbaa !13
  %61 = load %struct.Data*, %struct.Data** %37, align 8
  %62 = call i32 @llvm.smax.i32(i32 %60, i32 0)
  %63 = add nuw i32 %62, 1
  %64 = zext i32 %63 to i64
  br label %65

65:                                               ; preds = %72, %59
  %66 = phi i64 [ %73, %72 ], [ 1, %59 ]
  %67 = icmp eq i64 %66, %64
  br i1 %67, label %78, label %68

68:                                               ; preds = %65
  %69 = getelementptr inbounds %struct.Data, %struct.Data* %61, i64 %66, i32 0
  %70 = load i64, i64* %69, align 8, !tbaa !20
  %71 = icmp eq i64 %70, 0
  br i1 %71, label %76, label %72

72:                                               ; preds = %68
  %73 = add nuw nsw i64 %66, 1
  br label %65, !llvm.loop !23

74:                                               ; preds = %44
  %75 = landingpad { i8*, i32 }
          cleanup
  br label %210

76:                                               ; preds = %68
  %77 = trunc i64 %66 to i32
  br label %78

78:                                               ; preds = %65, %76
  %79 = phi i32 [ %77, %76 ], [ %63, %65 ]
  %80 = add nsw i32 %79, -1
  store i32 %80, i32* %1, align 4, !tbaa !13
  %81 = load i64, i64* %2, align 8, !tbaa !24
  %82 = icmp sgt i64 %81, 0
  br i1 %82, label %83, label %89

83:                                               ; preds = %78
  %84 = call double @_ZSt4log2IxEN9__gnu_cxx11__enable_ifIXsr12__is_integerIT_EE7__valueEdE6__typeES2_(i64 %81) #20
  %85 = fptosi double %84 to i32
  %86 = add nsw i32 %85, 5
  %87 = load i32, i32* %1, align 4, !tbaa !13
  %88 = load i64, i64* %2, align 8, !tbaa !24
  br label %89

89:                                               ; preds = %83, %78
  %90 = phi i64 [ %88, %83 ], [ %81, %78 ]
  %91 = phi i32 [ %87, %83 ], [ %80, %78 ]
  %92 = phi i32 [ %86, %83 ], [ 5, %78 ]
  %93 = bitcast %"class.std::vector.0"* %6 to i8*
  call void @llvm.lifetime.start.p0i8(i64 24, i8* nonnull %93) #21
  %94 = bitcast %"class.std::vector.5"* %7 to i8*
  call void @llvm.lifetime.start.p0i8(i64 24, i8* nonnull %94) #21
  %95 = add nsw i32 %92, 1
  %96 = sext i32 %95 to i64
  %97 = bitcast i64* %8 to i8*
  call void @llvm.lifetime.start.p0i8(i64 8, i8* nonnull %97) #21
  %98 = add nsw i64 %90, 5
  store i64 %98, i64* %8, align 8, !tbaa !24
  %99 = getelementptr inbounds %"class.std::allocator.7", %"class.std::allocator.7"* %9, i64 0, i32 0
  call void @llvm.lifetime.start.p0i8(i64 1, i8* nonnull %99) #21
  invoke void @_ZNSt6vectorIxSaIxEEC2EmRKxRKS0_(%"class.std::vector.5"* nonnull align 8 dereferenceable(24) %7, i64 %96, i64* nonnull align 8 dereferenceable(8) %8, %"class.std::allocator.7"* nonnull align 1 dereferenceable(1) %9) #20
          to label %100 unwind label %125

100:                                              ; preds = %89
  %101 = add nsw i32 %91, 1
  %102 = sext i32 %101 to i64
  %103 = getelementptr inbounds %"class.std::allocator.2", %"class.std::allocator.2"* %10, i64 0, i32 0
  call void @llvm.lifetime.start.p0i8(i64 1, i8* nonnull %103) #21
  invoke void @_ZNSt6vectorIS_IxSaIxEESaIS1_EEC2EmRKS1_RKS2_(%"class.std::vector.0"* nonnull align 8 dereferenceable(24) %6, i64 %102, %"class.std::vector.5"* nonnull align 8 dereferenceable(24) %7, %"class.std::allocator.2"* nonnull align 1 dereferenceable(1) %10) #20
          to label %104 unwind label %127

104:                                              ; preds = %100
  call void @llvm.lifetime.end.p0i8(i64 1, i8* nonnull %103) #21
  %105 = getelementptr inbounds %"class.std::vector.5", %"class.std::vector.5"* %7, i64 0, i32 0
  call void @_ZNSt12_Vector_baseIxSaIxEED2Ev(%"struct.std::_Vector_base.6"* nonnull align 8 dereferenceable(24) %105) #22
  call void @llvm.lifetime.end.p0i8(i64 1, i8* nonnull %99) #21
  call void @llvm.lifetime.end.p0i8(i64 8, i8* nonnull %97) #21
  call void @llvm.lifetime.end.p0i8(i64 24, i8* nonnull %94) #21
  %106 = getelementptr inbounds %"class.std::vector.0", %"class.std::vector.0"* %6, i64 0, i32 0, i32 0, i32 0, i32 0
  %107 = load %"class.std::vector.5"*, %"class.std::vector.5"** %106, align 8, !tbaa !25
  %108 = getelementptr inbounds %"class.std::vector.5", %"class.std::vector.5"* %107, i64 0, i32 0, i32 0, i32 0, i32 0
  %109 = load i64*, i64** %108, align 8, !tbaa !27
  store i64 0, i64* %109, align 8, !tbaa !24
  %110 = load i32, i32* %1, align 4, !tbaa !13
  %111 = sext i32 %92 to i64
  %112 = call i32 @llvm.smax.i32(i32 %110, i32 0)
  %113 = add nuw i32 %112, 1
  %114 = zext i32 %113 to i64
  br label %115

115:                                              ; preds = %147, %104
  %116 = phi i64 [ %148, %147 ], [ 1, %104 ]
  %117 = icmp eq i64 %116, %114
  br i1 %117, label %118, label %132

118:                                              ; preds = %115
  %119 = sext i32 %110 to i64
  %120 = getelementptr inbounds %"class.std::vector.5", %"class.std::vector.5"* %107, i64 %119, i32 0, i32 0, i32 0, i32 0
  %121 = xor i32 %110, -1
  %122 = sext i32 %60 to i64
  %123 = call i32 @llvm.smax.i32(i32 %110, i32 %60)
  %124 = add i32 %123, 1
  br label %166

125:                                              ; preds = %89
  %126 = landingpad { i8*, i32 }
          cleanup
  br label %130

127:                                              ; preds = %100
  %128 = landingpad { i8*, i32 }
          cleanup
  call void @llvm.lifetime.end.p0i8(i64 1, i8* nonnull %103) #21
  %129 = getelementptr inbounds %"class.std::vector.5", %"class.std::vector.5"* %7, i64 0, i32 0
  call void @_ZNSt12_Vector_baseIxSaIxEED2Ev(%"struct.std::_Vector_base.6"* nonnull align 8 dereferenceable(24) %129) #22
  br label %130

130:                                              ; preds = %127, %125
  %131 = phi { i8*, i32 } [ %128, %127 ], [ %126, %125 ]
  call void @llvm.lifetime.end.p0i8(i64 1, i8* nonnull %99) #21
  call void @llvm.lifetime.end.p0i8(i64 8, i8* nonnull %97) #21
  call void @llvm.lifetime.end.p0i8(i64 24, i8* nonnull %94) #21
  br label %208

132:                                              ; preds = %115
  %133 = getelementptr inbounds %"class.std::vector.5", %"class.std::vector.5"* %107, i64 %116, i32 0, i32 0, i32 0, i32 0
  %134 = load i64*, i64** %133, align 8, !tbaa !27
  store i64 0, i64* %134, align 8, !tbaa !24
  %135 = icmp slt i64 %116, %111
  %136 = trunc i64 %116 to i32
  %137 = select i1 %135, i32 %136, i32 %92
  %138 = add nsw i64 %116, -1
  %139 = getelementptr inbounds %"class.std::vector.5", %"class.std::vector.5"* %107, i64 %138, i32 0, i32 0, i32 0, i32 0
  %140 = load %struct.Data*, %struct.Data** %37, align 8
  %141 = getelementptr inbounds %struct.Data, %struct.Data* %140, i64 %116, i32 0
  %142 = getelementptr inbounds %struct.Data, %struct.Data* %140, i64 %116, i32 1
  %143 = sext i32 %137 to i64
  br label %144

144:                                              ; preds = %149, %132
  %145 = phi i64 [ %165, %149 ], [ 1, %132 ]
  %146 = icmp sgt i64 %145, %143
  br i1 %146, label %147, label %149

147:                                              ; preds = %144
  %148 = add nuw nsw i64 %116, 1
  br label %115, !llvm.loop !29

149:                                              ; preds = %144
  %150 = load i64*, i64** %139, align 8, !tbaa !27
  %151 = getelementptr inbounds i64, i64* %150, i64 %145
  %152 = add nsw i64 %145, -1
  %153 = getelementptr inbounds i64, i64* %150, i64 %152
  %154 = load i64, i64* %153, align 8, !tbaa !24
  %155 = add nsw i64 %154, 1
  %156 = load i64, i64* %141, align 8, !tbaa !20
  %157 = add nsw i64 %156, 1
  %158 = mul nsw i64 %157, %155
  %159 = load i64, i64* %142, align 8, !tbaa !30
  %160 = add nsw i64 %158, %159
  %161 = load i64, i64* %151, align 8, !tbaa !24
  %162 = icmp slt i64 %160, %161
  %163 = select i1 %162, i64 %160, i64 %161
  %164 = getelementptr inbounds i64, i64* %134, i64 %145
  store i64 %163, i64* %164, align 8, !tbaa !24
  %165 = add nuw nsw i64 %145, 1
  br label %144, !llvm.loop !31

166:                                              ; preds = %118, %193
  %167 = phi i64 [ 0, %118 ], [ %203, %193 ]
  %168 = phi i32 [ 0, %118 ], [ %202, %193 ]
  %169 = icmp sgt i64 %167, %111
  br i1 %169, label %174, label %170

170:                                              ; preds = %166
  %171 = load %struct.Data*, %struct.Data** %37, align 8
  %172 = load i64*, i64** %120, align 8, !tbaa !27
  %173 = getelementptr inbounds i64, i64* %172, i64 %167
  br label %176

174:                                              ; preds = %166
  %175 = invoke nonnull align 8 dereferenceable(8) %"class.std::basic_ostream"* @_ZNSolsEi(%"class.std::basic_ostream"* nonnull align 8 dereferenceable(8) @_ZSt4cout, i32 %168) #20
          to label %204 unwind label %206

176:                                              ; preds = %170, %190
  %177 = phi i64 [ %119, %170 ], [ %178, %190 ]
  %178 = add nsw i64 %177, 1
  %179 = icmp slt i64 %177, %122
  %180 = load i64, i64* %173, align 8, !tbaa !24
  br i1 %179, label %183, label %181

181:                                              ; preds = %176
  %182 = load i64, i64* %2, align 8, !tbaa !24
  br label %193

183:                                              ; preds = %176
  %184 = add i64 %180, 1
  %185 = getelementptr inbounds %struct.Data, %struct.Data* %171, i64 %178, i32 1
  %186 = load i64, i64* %185, align 8, !tbaa !30
  %187 = add i64 %184, %186
  %188 = load i64, i64* %2, align 8, !tbaa !24
  %189 = icmp sgt i64 %187, %188
  br i1 %189, label %191, label %190

190:                                              ; preds = %183
  store i64 %187, i64* %173, align 8, !tbaa !24
  br label %176, !llvm.loop !32

191:                                              ; preds = %183
  %192 = trunc i64 %178 to i32
  br label %193

193:                                              ; preds = %191, %181
  %194 = phi i64 [ %182, %181 ], [ %188, %191 ]
  %195 = phi i32 [ %124, %181 ], [ %192, %191 ]
  %196 = icmp sgt i64 %180, %194
  %197 = trunc i64 %167 to i32
  %198 = add i32 %197, %121
  %199 = add i32 %198, %195
  %200 = icmp slt i32 %168, %199
  %201 = select i1 %200, i32 %199, i32 %168
  %202 = select i1 %196, i32 %168, i32 %201
  %203 = add nuw nsw i64 %167, 1
  br label %166, !llvm.loop !33

204:                                              ; preds = %174
  call void @_ZNSt6vectorIS_IxSaIxEESaIS1_EED2Ev(%"class.std::vector.0"* nonnull align 8 dereferenceable(24) %6) #22
  call void @llvm.lifetime.end.p0i8(i64 24, i8* nonnull %93) #21
  %205 = getelementptr inbounds %"class.std::vector", %"class.std::vector"* %3, i64 0, i32 0
  call void @_ZNSt12_Vector_baseI4DataSaIS0_EED2Ev(%"struct.std::_Vector_base"* nonnull align 8 dereferenceable(24) %205) #22
  call void @llvm.lifetime.end.p0i8(i64 24, i8* nonnull %30) #21
  call void @llvm.lifetime.end.p0i8(i64 8, i8* nonnull %27) #21
  call void @llvm.lifetime.end.p0i8(i64 4, i8* nonnull %26) #21
  ret i32 0

206:                                              ; preds = %174
  %207 = landingpad { i8*, i32 }
          cleanup
  call void @_ZNSt6vectorIS_IxSaIxEESaIS1_EED2Ev(%"class.std::vector.0"* nonnull align 8 dereferenceable(24) %6) #22
  br label %208

208:                                              ; preds = %206, %130
  %209 = phi { i8*, i32 } [ %207, %206 ], [ %131, %130 ]
  call void @llvm.lifetime.end.p0i8(i64 24, i8* nonnull %93) #21
  br label %210

210:                                              ; preds = %208, %74, %57
  %211 = phi { i8*, i32 } [ %58, %57 ], [ %209, %208 ], [ %75, %74 ]
  %212 = getelementptr inbounds %"class.std::vector", %"class.std::vector"* %3, i64 0, i32 0
  call void @_ZNSt12_Vector_baseI4DataSaIS0_EED2Ev(%"struct.std::_Vector_base"* nonnull align 8 dereferenceable(24) %212) #22
  call void @llvm.lifetime.end.p0i8(i64 24, i8* nonnull %30) #21
  call void @llvm.lifetime.end.p0i8(i64 8, i8* nonnull %27) #21
  call void @llvm.lifetime.end.p0i8(i64 4, i8* nonnull %26) #21
  resume { i8*, i32 } %211
}

; Function Attrs: minsize optsize
declare zeroext i1 @_ZNSt8ios_base15sync_with_stdioEb(i1 zeroext) local_unnamed_addr #0

; Function Attrs: argmemonly mustprogress nofree nosync nounwind willreturn
declare void @llvm.lifetime.start.p0i8(i64 immarg, i8* nocapture) #4

; Function Attrs: minsize optsize
declare nonnull align 8 dereferenceable(16) %"class.std::basic_istream"* @_ZNSirsERi(%"class.std::basic_istream"* nonnull align 8 dereferenceable(16), i32* nonnull align 4 dereferenceable(4)) local_unnamed_addr #0

; Function Attrs: minsize optsize sspstrong uwtable
define linkonce_odr dso_local void @_ZNSt6vectorI4DataSaIS0_EEC2EmRKS0_RKS1_(%"class.std::vector"* nonnull align 8 dereferenceable(24) %0, i64 %1, %struct.Data* nonnull align 8 dereferenceable(16) %2, %"class.std::allocator"* nonnull align 1 dereferenceable(1) %3) unnamed_addr #5 comdat align 2 personality i8* bitcast (i32 (...)* @__gxx_personality_v0 to i8*) {
  %5 = getelementptr inbounds %"class.std::vector", %"class.std::vector"* %0, i64 0, i32 0
  %6 = tail call i64 @_ZNSt6vectorI4DataSaIS0_EE17_S_check_init_lenEmRKS1_(i64 %1, %"class.std::allocator"* nonnull align 1 dereferenceable(1) %3) #20
  %7 = bitcast %"class.std::vector"* %0 to i8*
  tail call void @llvm.memset.p0i8.i64(i8* noundef nonnull align 8 dereferenceable(24) %7, i8 0, i64 24, i1 false) #21
  tail call void @_ZNSt12_Vector_baseI4DataSaIS0_EE17_M_create_storageEm(%"struct.std::_Vector_base"* nonnull align 8 dereferenceable(24) %5, i64 %6) #20
  invoke void @_ZNSt6vectorI4DataSaIS0_EE18_M_fill_initializeEmRKS0_(%"class.std::vector"* nonnull align 8 dereferenceable(24) %0, i64 %1, %struct.Data* nonnull align 8 dereferenceable(16) %2) #20
          to label %8 unwind label %9

8:                                                ; preds = %4
  ret void

9:                                                ; preds = %4
  %10 = landingpad { i8*, i32 }
          cleanup
  tail call void @_ZNSt12_Vector_baseI4DataSaIS0_EED2Ev(%"struct.std::_Vector_base"* nonnull align 8 dereferenceable(24) %5) #22
  resume { i8*, i32 } %10
}

declare i32 @__gxx_personality_v0(...)

; Function Attrs: argmemonly mustprogress nofree nosync nounwind willreturn
declare void @llvm.lifetime.end.p0i8(i64 immarg, i8* nocapture) #4

; Function Attrs: minsize mustprogress nounwind optsize sspstrong uwtable
define linkonce_odr dso_local double @_ZSt4log2IxEN9__gnu_cxx11__enable_ifIXsr12__is_integerIT_EE7__valueEdE6__typeES2_(i64 %0) local_unnamed_addr #6 comdat {
  %2 = sitofp i64 %0 to double
  %3 = tail call double @log2(double %2) #22
  ret double %3
}

; Function Attrs: minsize optsize sspstrong uwtable
define linkonce_odr dso_local void @_ZNSt6vectorIxSaIxEEC2EmRKxRKS0_(%"class.std::vector.5"* nonnull align 8 dereferenceable(24) %0, i64 %1, i64* nonnull align 8 dereferenceable(8) %2, %"class.std::allocator.7"* nonnull align 1 dereferenceable(1) %3) unnamed_addr #5 comdat align 2 personality i8* bitcast (i32 (...)* @__gxx_personality_v0 to i8*) {
  %5 = getelementptr inbounds %"class.std::vector.5", %"class.std::vector.5"* %0, i64 0, i32 0
  %6 = tail call i64 @_ZNSt6vectorIxSaIxEE17_S_check_init_lenEmRKS0_(i64 %1, %"class.std::allocator.7"* nonnull align 1 dereferenceable(1) %3) #20
  %7 = bitcast %"class.std::vector.5"* %0 to i8*
  tail call void @llvm.memset.p0i8.i64(i8* noundef nonnull align 8 dereferenceable(24) %7, i8 0, i64 24, i1 false) #21
  tail call void @_ZNSt12_Vector_baseIxSaIxEE17_M_create_storageEm(%"struct.std::_Vector_base.6"* nonnull align 8 dereferenceable(24) %5, i64 %6) #20
  invoke void @_ZNSt6vectorIxSaIxEE18_M_fill_initializeEmRKx(%"class.std::vector.5"* nonnull align 8 dereferenceable(24) %0, i64 %1, i64* nonnull align 8 dereferenceable(8) %2) #20
          to label %8 unwind label %9

8:                                                ; preds = %4
  ret void

9:                                                ; preds = %4
  %10 = landingpad { i8*, i32 }
          cleanup
  tail call void @_ZNSt12_Vector_baseIxSaIxEED2Ev(%"struct.std::_Vector_base.6"* nonnull align 8 dereferenceable(24) %5) #22
  resume { i8*, i32 } %10
}

; Function Attrs: minsize optsize sspstrong uwtable
define linkonce_odr dso_local void @_ZNSt6vectorIS_IxSaIxEESaIS1_EEC2EmRKS1_RKS2_(%"class.std::vector.0"* nonnull align 8 dereferenceable(24) %0, i64 %1, %"class.std::vector.5"* nonnull align 8 dereferenceable(24) %2, %"class.std::allocator.2"* nonnull align 1 dereferenceable(1) %3) unnamed_addr #5 comdat align 2 personality i8* bitcast (i32 (...)* @__gxx_personality_v0 to i8*) {
  %5 = getelementptr inbounds %"class.std::vector.0", %"class.std::vector.0"* %0, i64 0, i32 0
  %6 = tail call i64 @_ZNSt6vectorIS_IxSaIxEESaIS1_EE17_S_check_init_lenEmRKS2_(i64 %1, %"class.std::allocator.2"* nonnull align 1 dereferenceable(1) %3) #20
  %7 = bitcast %"class.std::vector.0"* %0 to i8*
  tail call void @llvm.memset.p0i8.i64(i8* noundef nonnull align 8 dereferenceable(24) %7, i8 0, i64 24, i1 false) #21
  tail call void @_ZNSt12_Vector_baseISt6vectorIxSaIxEESaIS2_EE17_M_create_storageEm(%"struct.std::_Vector_base.1"* nonnull align 8 dereferenceable(24) %5, i64 %6) #20
  invoke void @_ZNSt6vectorIS_IxSaIxEESaIS1_EE18_M_fill_initializeEmRKS1_(%"class.std::vector.0"* nonnull align 8 dereferenceable(24) %0, i64 %1, %"class.std::vector.5"* nonnull align 8 dereferenceable(24) %2) #20
          to label %8 unwind label %9

8:                                                ; preds = %4
  ret void

9:                                                ; preds = %4
  %10 = landingpad { i8*, i32 }
          cleanup
  tail call void @_ZNSt12_Vector_baseISt6vectorIxSaIxEESaIS2_EED2Ev(%"struct.std::_Vector_base.1"* nonnull align 8 dereferenceable(24) %5) #22
  resume { i8*, i32 } %10
}

; Function Attrs: minsize optsize
declare nonnull align 8 dereferenceable(8) %"class.std::basic_ostream"* @_ZNSolsEi(%"class.std::basic_ostream"* nonnull align 8 dereferenceable(8), i32) local_unnamed_addr #0

; Function Attrs: minsize nounwind optsize sspstrong uwtable
define linkonce_odr dso_local void @_ZNSt6vectorIS_IxSaIxEESaIS1_EED2Ev(%"class.std::vector.0"* nonnull align 8 dereferenceable(24) %0) unnamed_addr #7 comdat align 2 personality i8* bitcast (i32 (...)* @__gxx_personality_v0 to i8*) {
  %2 = getelementptr inbounds %"class.std::vector.0", %"class.std::vector.0"* %0, i64 0, i32 0
  %3 = getelementptr inbounds %"class.std::vector.0", %"class.std::vector.0"* %0, i64 0, i32 0, i32 0, i32 0, i32 0
  %4 = load %"class.std::vector.5"*, %"class.std::vector.5"** %3, align 8, !tbaa !25
  %5 = getelementptr inbounds %"class.std::vector.0", %"class.std::vector.0"* %0, i64 0, i32 0, i32 0, i32 0, i32 1
  %6 = load %"class.std::vector.5"*, %"class.std::vector.5"** %5, align 8, !tbaa !34
  invoke void @_ZNSt12_Destroy_auxILb0EE9__destroyIPSt6vectorIxSaIxEEEEvT_S6_(%"class.std::vector.5"* %4, %"class.std::vector.5"* %6) #20
          to label %7 unwind label %8

7:                                                ; preds = %1
  tail call void @_ZNSt12_Vector_baseISt6vectorIxSaIxEESaIS2_EED2Ev(%"struct.std::_Vector_base.1"* nonnull align 8 dereferenceable(24) %2) #22
  ret void

8:                                                ; preds = %1
  %9 = landingpad { i8*, i32 }
          catch i8* null
  %10 = extractvalue { i8*, i32 } %9, 0
  tail call void @_ZNSt12_Vector_baseISt6vectorIxSaIxEESaIS2_EED2Ev(%"struct.std::_Vector_base.1"* nonnull align 8 dereferenceable(24) %2) #22
  tail call void @__clang_call_terminate(i8* %10) #23
  unreachable
}

; Function Attrs: minsize mustprogress nofree nounwind optsize willreturn
declare double @log2(double) local_unnamed_addr #8

; Function Attrs: minsize optsize
declare nonnull align 8 dereferenceable(16) %"class.std::basic_istream"* @_ZNSi10_M_extractIxEERSiRT_(%"class.std::basic_istream"* nonnull align 8 dereferenceable(16), i64* nonnull align 8 dereferenceable(8)) local_unnamed_addr #0

; Function Attrs: minsize optsize sspstrong uwtable
define linkonce_odr dso_local i64 @_ZNSt6vectorI4DataSaIS0_EE17_S_check_init_lenEmRKS1_(i64 %0, %"class.std::allocator"* nonnull align 1 dereferenceable(1) %1) local_unnamed_addr #5 comdat align 2 personality i32 (...)* @__gxx_personality_v0 {
  %3 = icmp ugt i64 %0, 576460752303423487
  br i1 %3, label %4, label %5

4:                                                ; preds = %2
  tail call void @_ZSt20__throw_length_errorPKc(i8* getelementptr inbounds ([49 x i8], [49 x i8]* @.str, i64 0, i64 0)) #24
  unreachable

5:                                                ; preds = %2
  ret i64 %0
}

; Function Attrs: minsize mustprogress optsize sspstrong uwtable
define linkonce_odr dso_local void @_ZNSt6vectorI4DataSaIS0_EE18_M_fill_initializeEmRKS0_(%"class.std::vector"* nonnull align 8 dereferenceable(24) %0, i64 %1, %struct.Data* nonnull align 8 dereferenceable(16) %2) local_unnamed_addr #9 comdat align 2 {
  %4 = getelementptr inbounds %"class.std::vector", %"class.std::vector"* %0, i64 0, i32 0, i32 0, i32 0, i32 0
  %5 = load %struct.Data*, %struct.Data** %4, align 8, !tbaa !16
  %6 = tail call %struct.Data* @_ZSt10__fill_n_aIP4DatamS0_ET_S2_T0_RKT1_St26random_access_iterator_tag(%struct.Data* %5, i64 %1, %struct.Data* nonnull align 8 dereferenceable(16) %2) #20
  %7 = getelementptr inbounds %"class.std::vector", %"class.std::vector"* %0, i64 0, i32 0, i32 0, i32 0, i32 1
  store %struct.Data* %6, %struct.Data** %7, align 8, !tbaa !35
  ret void
}

; Function Attrs: minsize nounwind optsize sspstrong uwtable
define linkonce_odr dso_local void @_ZNSt12_Vector_baseI4DataSaIS0_EED2Ev(%"struct.std::_Vector_base"* nonnull align 8 dereferenceable(24) %0) unnamed_addr #7 comdat align 2 personality i8* bitcast (i32 (...)* @__gxx_personality_v0 to i8*) {
  %2 = getelementptr inbounds %"struct.std::_Vector_base", %"struct.std::_Vector_base"* %0, i64 0, i32 0, i32 0, i32 0
  %3 = load %struct.Data*, %struct.Data** %2, align 8, !tbaa !16
  %4 = icmp eq %struct.Data* %3, null
  br i1 %4, label %7, label %5

5:                                                ; preds = %1
  %6 = bitcast %struct.Data* %3 to i8*
  tail call void @_ZdlPv(i8* nonnull %6) #22
  br label %7

7:                                                ; preds = %5, %1
  ret void
}

; Function Attrs: minsize noreturn optsize
declare void @_ZSt20__throw_length_errorPKc(i8*) local_unnamed_addr #10

; Function Attrs: noinline noreturn nounwind
define linkonce_odr hidden void @__clang_call_terminate(i8* %0) local_unnamed_addr #11 comdat {
  %2 = tail call i8* @__cxa_begin_catch(i8* %0) #21
  tail call void @_ZSt9terminatev() #23
  unreachable
}

declare i8* @__cxa_begin_catch(i8*) local_unnamed_addr

declare void @_ZSt9terminatev() local_unnamed_addr

; Function Attrs: minsize mustprogress optsize sspstrong uwtable
define linkonce_odr dso_local void @_ZNSt12_Vector_baseI4DataSaIS0_EE17_M_create_storageEm(%"struct.std::_Vector_base"* nonnull align 8 dereferenceable(24) %0, i64 %1) local_unnamed_addr #9 comdat align 2 {
  %3 = tail call %struct.Data* @_ZNSt12_Vector_baseI4DataSaIS0_EE11_M_allocateEm(%"struct.std::_Vector_base"* nonnull align 8 dereferenceable(24) %0, i64 %1) #20
  %4 = getelementptr inbounds %"struct.std::_Vector_base", %"struct.std::_Vector_base"* %0, i64 0, i32 0, i32 0, i32 0
  store %struct.Data* %3, %struct.Data** %4, align 8, !tbaa !16
  %5 = getelementptr inbounds %"struct.std::_Vector_base", %"struct.std::_Vector_base"* %0, i64 0, i32 0, i32 0, i32 1
  store %struct.Data* %3, %struct.Data** %5, align 8, !tbaa !35
  %6 = getelementptr inbounds %struct.Data, %struct.Data* %3, i64 %1
  %7 = getelementptr inbounds %"struct.std::_Vector_base", %"struct.std::_Vector_base"* %0, i64 0, i32 0, i32 0, i32 2
  store %struct.Data* %6, %struct.Data** %7, align 8, !tbaa !36
  ret void
}

; Function Attrs: minsize mustprogress optsize sspstrong uwtable
define linkonce_odr dso_local %struct.Data* @_ZNSt12_Vector_baseI4DataSaIS0_EE11_M_allocateEm(%"struct.std::_Vector_base"* nonnull align 8 dereferenceable(24) %0, i64 %1) local_unnamed_addr #9 comdat align 2 {
  %3 = icmp eq i64 %1, 0
  br i1 %3, label %7, label %4

4:                                                ; preds = %2
  %5 = bitcast %"struct.std::_Vector_base"* %0 to %"class.std::allocator"*
  %6 = tail call %struct.Data* @_ZNSt16allocator_traitsISaI4DataEE8allocateERS1_m(%"class.std::allocator"* nonnull align 1 dereferenceable(1) %5, i64 %1) #20
  br label %7

7:                                                ; preds = %2, %4
  %8 = phi %struct.Data* [ %6, %4 ], [ null, %2 ]
  ret %struct.Data* %8
}

; Function Attrs: minsize mustprogress optsize sspstrong uwtable
define linkonce_odr dso_local %struct.Data* @_ZNSt16allocator_traitsISaI4DataEE8allocateERS1_m(%"class.std::allocator"* nonnull align 1 dereferenceable(1) %0, i64 %1) local_unnamed_addr #9 comdat align 2 {
  %3 = bitcast %"class.std::allocator"* %0 to %"class.__gnu_cxx::new_allocator"*
  %4 = tail call %struct.Data* @_ZN9__gnu_cxx13new_allocatorI4DataE8allocateEmPKv(%"class.__gnu_cxx::new_allocator"* nonnull align 1 dereferenceable(1) %3, i64 %1, i8* null) #20
  ret %struct.Data* %4
}

; Function Attrs: minsize mustprogress optsize sspstrong uwtable
define linkonce_odr dso_local %struct.Data* @_ZN9__gnu_cxx13new_allocatorI4DataE8allocateEmPKv(%"class.__gnu_cxx::new_allocator"* nonnull align 1 dereferenceable(1) %0, i64 %1, i8* %2) local_unnamed_addr #9 comdat align 2 {
  %4 = icmp ugt i64 %1, 576460752303423487
  br i1 %4, label %5, label %9, !prof !37

5:                                                ; preds = %3
  %6 = icmp ugt i64 %1, 1152921504606846975
  br i1 %6, label %7, label %8

7:                                                ; preds = %5
  tail call void @_ZSt28__throw_bad_array_new_lengthv() #24
  unreachable

8:                                                ; preds = %5
  tail call void @_ZSt17__throw_bad_allocv() #24
  unreachable

9:                                                ; preds = %3
  %10 = shl nuw nsw i64 %1, 4
  %11 = tail call noalias nonnull i8* @_Znwm(i64 %10) #25
  %12 = bitcast i8* %11 to %struct.Data*
  ret %struct.Data* %12
}

; Function Attrs: minsize noreturn optsize
declare void @_ZSt28__throw_bad_array_new_lengthv() local_unnamed_addr #10

; Function Attrs: minsize noreturn optsize
declare void @_ZSt17__throw_bad_allocv() local_unnamed_addr #10

; Function Attrs: minsize nobuiltin optsize allocsize(0)
declare nonnull i8* @_Znwm(i64) local_unnamed_addr #12

; Function Attrs: inlinehint minsize mustprogress optsize sspstrong uwtable
define linkonce_odr dso_local %struct.Data* @_ZSt10__fill_n_aIP4DatamS0_ET_S2_T0_RKT1_St26random_access_iterator_tag(%struct.Data* %0, i64 %1, %struct.Data* nonnull align 8 dereferenceable(16) %2) local_unnamed_addr #13 comdat {
  %4 = icmp eq i64 %1, 0
  br i1 %4, label %14, label %5

5:                                                ; preds = %3
  %6 = getelementptr inbounds %struct.Data, %struct.Data* %0, i64 %1
  %7 = bitcast %struct.Data* %2 to i8*
  br label %8

8:                                                ; preds = %11, %5
  %9 = phi %struct.Data* [ %0, %5 ], [ %13, %11 ]
  %10 = icmp eq %struct.Data* %9, %6
  br i1 %10, label %14, label %11

11:                                               ; preds = %8
  %12 = bitcast %struct.Data* %9 to i8*
  tail call void @llvm.memcpy.p0i8.p0i8.i64(i8* noundef nonnull align 8 dereferenceable(16) %12, i8* noundef nonnull align 8 dereferenceable(16) %7, i64 16, i1 false) #21, !tbaa.struct !38
  %13 = getelementptr inbounds %struct.Data, %struct.Data* %9, i64 1
  br label %8, !llvm.loop !39

14:                                               ; preds = %8, %3
  %15 = phi %struct.Data* [ %0, %3 ], [ %6, %8 ]
  ret %struct.Data* %15
}

; Function Attrs: argmemonly mustprogress nofree nounwind willreturn
declare void @llvm.memcpy.p0i8.p0i8.i64(i8* noalias nocapture writeonly, i8* noalias nocapture readonly, i64, i1 immarg) #14

; Function Attrs: minsize nobuiltin nounwind optsize
declare void @_ZdlPv(i8*) local_unnamed_addr #15

; Function Attrs: inlinehint minsize mustprogress optsize sspstrong uwtable
define linkonce_odr dso_local void @_ZSt6__sortIN9__gnu_cxx17__normal_iteratorIP4DataSt6vectorIS2_SaIS2_EEEENS0_5__ops15_Iter_less_iterEEvT_SA_T0_(%struct.Data* %0, %struct.Data* %1) local_unnamed_addr #13 comdat {
  %3 = icmp eq %struct.Data* %0, %1
  br i1 %3, label %12, label %4

4:                                                ; preds = %2
  %5 = ptrtoint %struct.Data* %1 to i64
  %6 = ptrtoint %struct.Data* %0 to i64
  %7 = sub i64 %5, %6
  %8 = ashr exact i64 %7, 4
  %9 = tail call i64 @llvm.ctlz.i64(i64 %8, i1 true) #21, !range !40
  %10 = shl nuw nsw i64 %9, 1
  %11 = xor i64 %10, 126
  tail call void @_ZSt16__introsort_loopIN9__gnu_cxx17__normal_iteratorIP4DataSt6vectorIS2_SaIS2_EEEElNS0_5__ops15_Iter_less_iterEEvT_SA_T0_T1_(%struct.Data* %0, %struct.Data* %1, i64 %11) #20
  tail call void @_ZSt22__final_insertion_sortIN9__gnu_cxx17__normal_iteratorIP4DataSt6vectorIS2_SaIS2_EEEENS0_5__ops15_Iter_less_iterEEvT_SA_T0_(%struct.Data* %0, %struct.Data* %1) #20
  br label %12

12:                                               ; preds = %4, %2
  ret void
}

; Function Attrs: minsize mustprogress optsize sspstrong uwtable
define linkonce_odr dso_local void @_ZSt16__introsort_loopIN9__gnu_cxx17__normal_iteratorIP4DataSt6vectorIS2_SaIS2_EEEElNS0_5__ops15_Iter_less_iterEEvT_SA_T0_T1_(%struct.Data* %0, %struct.Data* %1, i64 %2) local_unnamed_addr #9 comdat {
  %4 = ptrtoint %struct.Data* %0 to i64
  br label %5

5:                                                ; preds = %14, %3
  %6 = phi %struct.Data* [ %1, %3 ], [ %16, %14 ]
  %7 = phi i64 [ %2, %3 ], [ %15, %14 ]
  %8 = ptrtoint %struct.Data* %6 to i64
  %9 = sub i64 %8, %4
  %10 = icmp sgt i64 %9, 256
  br i1 %10, label %11, label %17

11:                                               ; preds = %5
  %12 = icmp eq i64 %7, 0
  br i1 %12, label %13, label %14

13:                                               ; preds = %11
  tail call void @_ZSt14__partial_sortIN9__gnu_cxx17__normal_iteratorIP4DataSt6vectorIS2_SaIS2_EEEENS0_5__ops15_Iter_less_iterEEvT_SA_SA_T0_(%struct.Data* %0, %struct.Data* %6, %struct.Data* %6) #20
  br label %17

14:                                               ; preds = %11
  %15 = add nsw i64 %7, -1
  %16 = tail call %struct.Data* @_ZSt27__unguarded_partition_pivotIN9__gnu_cxx17__normal_iteratorIP4DataSt6vectorIS2_SaIS2_EEEENS0_5__ops15_Iter_less_iterEET_SA_SA_T0_(%struct.Data* %0, %struct.Data* %6) #20
  tail call void @_ZSt16__introsort_loopIN9__gnu_cxx17__normal_iteratorIP4DataSt6vectorIS2_SaIS2_EEEElNS0_5__ops15_Iter_less_iterEEvT_SA_T0_T1_(%struct.Data* %16, %struct.Data* %6, i64 %15) #20
  br label %5, !llvm.loop !41

17:                                               ; preds = %5, %13
  ret void
}

; Function Attrs: minsize optsize sspstrong uwtable
define linkonce_odr dso_local void @_ZSt22__final_insertion_sortIN9__gnu_cxx17__normal_iteratorIP4DataSt6vectorIS2_SaIS2_EEEENS0_5__ops15_Iter_less_iterEEvT_SA_T0_(%struct.Data* %0, %struct.Data* %1) local_unnamed_addr #5 comdat {
  %3 = ptrtoint %struct.Data* %1 to i64
  %4 = ptrtoint %struct.Data* %0 to i64
  %5 = sub i64 %3, %4
  %6 = icmp sgt i64 %5, 256
  br i1 %6, label %7, label %9

7:                                                ; preds = %2
  %8 = getelementptr inbounds %struct.Data, %struct.Data* %0, i64 16
  tail call void @_ZSt16__insertion_sortIN9__gnu_cxx17__normal_iteratorIP4DataSt6vectorIS2_SaIS2_EEEENS0_5__ops15_Iter_less_iterEEvT_SA_T0_(%struct.Data* %0, %struct.Data* nonnull %8) #20
  tail call void @_ZSt26__unguarded_insertion_sortIN9__gnu_cxx17__normal_iteratorIP4DataSt6vectorIS2_SaIS2_EEEENS0_5__ops15_Iter_less_iterEEvT_SA_T0_(%struct.Data* nonnull %8, %struct.Data* %1) #20
  br label %10

9:                                                ; preds = %2
  tail call void @_ZSt16__insertion_sortIN9__gnu_cxx17__normal_iteratorIP4DataSt6vectorIS2_SaIS2_EEEENS0_5__ops15_Iter_less_iterEEvT_SA_T0_(%struct.Data* %0, %struct.Data* %1) #20
  br label %10

10:                                               ; preds = %9, %7
  ret void
}

; Function Attrs: inlinehint minsize mustprogress optsize sspstrong uwtable
define linkonce_odr dso_local void @_ZSt14__partial_sortIN9__gnu_cxx17__normal_iteratorIP4DataSt6vectorIS2_SaIS2_EEEENS0_5__ops15_Iter_less_iterEEvT_SA_SA_T0_(%struct.Data* %0, %struct.Data* %1, %struct.Data* %2) local_unnamed_addr #13 comdat {
  %4 = alloca %"struct.__gnu_cxx::__ops::_Iter_less_iter", align 1
  tail call void @_ZSt13__heap_selectIN9__gnu_cxx17__normal_iteratorIP4DataSt6vectorIS2_SaIS2_EEEENS0_5__ops15_Iter_less_iterEEvT_SA_SA_T0_(%struct.Data* %0, %struct.Data* %1, %struct.Data* %2) #20
  call void @_ZSt11__sort_heapIN9__gnu_cxx17__normal_iteratorIP4DataSt6vectorIS2_SaIS2_EEEENS0_5__ops15_Iter_less_iterEEvT_SA_RT0_(%struct.Data* %0, %struct.Data* %1, %"struct.__gnu_cxx::__ops::_Iter_less_iter"* nonnull align 1 dereferenceable(1) %4) #20
  ret void
}

; Function Attrs: inlinehint minsize optsize sspstrong uwtable
define linkonce_odr dso_local %struct.Data* @_ZSt27__unguarded_partition_pivotIN9__gnu_cxx17__normal_iteratorIP4DataSt6vectorIS2_SaIS2_EEEENS0_5__ops15_Iter_less_iterEET_SA_SA_T0_(%struct.Data* %0, %struct.Data* %1) local_unnamed_addr #16 comdat {
  %3 = ptrtoint %struct.Data* %1 to i64
  %4 = ptrtoint %struct.Data* %0 to i64
  %5 = sub i64 %3, %4
  %6 = ashr exact i64 %5, 4
  %7 = sdiv i64 %6, 2
  %8 = getelementptr inbounds %struct.Data, %struct.Data* %0, i64 %7
  %9 = getelementptr inbounds %struct.Data, %struct.Data* %0, i64 1
  %10 = getelementptr inbounds %struct.Data, %struct.Data* %1, i64 -1
  tail call void @_ZSt22__move_median_to_firstIN9__gnu_cxx17__normal_iteratorIP4DataSt6vectorIS2_SaIS2_EEEENS0_5__ops15_Iter_less_iterEEvT_SA_SA_SA_T0_(%struct.Data* %0, %struct.Data* nonnull %9, %struct.Data* %8, %struct.Data* nonnull %10) #20
  %11 = tail call %struct.Data* @_ZSt21__unguarded_partitionIN9__gnu_cxx17__normal_iteratorIP4DataSt6vectorIS2_SaIS2_EEEENS0_5__ops15_Iter_less_iterEET_SA_SA_SA_T0_(%struct.Data* nonnull %9, %struct.Data* %1, %struct.Data* %0) #20
  ret %struct.Data* %11
}

; Function Attrs: minsize mustprogress optsize sspstrong uwtable
define linkonce_odr dso_local void @_ZSt13__heap_selectIN9__gnu_cxx17__normal_iteratorIP4DataSt6vectorIS2_SaIS2_EEEENS0_5__ops15_Iter_less_iterEEvT_SA_SA_T0_(%struct.Data* %0, %struct.Data* %1, %struct.Data* %2) local_unnamed_addr #9 comdat {
  %4 = alloca %"struct.__gnu_cxx::__ops::_Iter_less_iter", align 1
  call void @_ZSt11__make_heapIN9__gnu_cxx17__normal_iteratorIP4DataSt6vectorIS2_SaIS2_EEEENS0_5__ops15_Iter_less_iterEEvT_SA_RT0_(%struct.Data* %0, %struct.Data* %1, %"struct.__gnu_cxx::__ops::_Iter_less_iter"* nonnull align 1 dereferenceable(1) %4) #20
  br label %5

5:                                                ; preds = %12, %3
  %6 = phi %struct.Data* [ %1, %3 ], [ %13, %12 ]
  %7 = icmp ult %struct.Data* %6, %2
  br i1 %7, label %9, label %8

8:                                                ; preds = %5
  ret void

9:                                                ; preds = %5
  %10 = call zeroext i1 @_ZNK4DataltERKS_(%struct.Data* nonnull align 8 dereferenceable(16) %6, %struct.Data* nonnull align 8 dereferenceable(16) %0) #22
  br i1 %10, label %11, label %12

11:                                               ; preds = %9
  call void @_ZSt10__pop_heapIN9__gnu_cxx17__normal_iteratorIP4DataSt6vectorIS2_SaIS2_EEEENS0_5__ops15_Iter_less_iterEEvT_SA_SA_RT0_(%struct.Data* nonnull %0, %struct.Data* %1, %struct.Data* nonnull %6, %"struct.__gnu_cxx::__ops::_Iter_less_iter"* nonnull align 1 dereferenceable(1) %4) #20
  br label %12

12:                                               ; preds = %9, %11
  %13 = getelementptr inbounds %struct.Data, %struct.Data* %6, i64 1
  br label %5, !llvm.loop !42
}

; Function Attrs: minsize mustprogress optsize sspstrong uwtable
define linkonce_odr dso_local void @_ZSt11__sort_heapIN9__gnu_cxx17__normal_iteratorIP4DataSt6vectorIS2_SaIS2_EEEENS0_5__ops15_Iter_less_iterEEvT_SA_RT0_(%struct.Data* %0, %struct.Data* %1, %"struct.__gnu_cxx::__ops::_Iter_less_iter"* nonnull align 1 dereferenceable(1) %2) local_unnamed_addr #9 comdat {
  %4 = ptrtoint %struct.Data* %0 to i64
  br label %5

5:                                                ; preds = %10, %3
  %6 = phi %struct.Data* [ %1, %3 ], [ %11, %10 ]
  %7 = ptrtoint %struct.Data* %6 to i64
  %8 = sub i64 %7, %4
  %9 = icmp sgt i64 %8, 16
  br i1 %9, label %10, label %12

10:                                               ; preds = %5
  %11 = getelementptr inbounds %struct.Data, %struct.Data* %6, i64 -1
  tail call void @_ZSt10__pop_heapIN9__gnu_cxx17__normal_iteratorIP4DataSt6vectorIS2_SaIS2_EEEENS0_5__ops15_Iter_less_iterEEvT_SA_SA_RT0_(%struct.Data* %0, %struct.Data* nonnull %11, %struct.Data* nonnull %11, %"struct.__gnu_cxx::__ops::_Iter_less_iter"* nonnull align 1 dereferenceable(1) %2) #20
  br label %5, !llvm.loop !43

12:                                               ; preds = %5
  ret void
}

; Function Attrs: minsize optsize sspstrong uwtable
define linkonce_odr dso_local void @_ZSt11__make_heapIN9__gnu_cxx17__normal_iteratorIP4DataSt6vectorIS2_SaIS2_EEEENS0_5__ops15_Iter_less_iterEEvT_SA_RT0_(%struct.Data* %0, %struct.Data* %1, %"struct.__gnu_cxx::__ops::_Iter_less_iter"* nonnull align 1 dereferenceable(1) %2) local_unnamed_addr #5 comdat {
  %4 = ptrtoint %struct.Data* %1 to i64
  %5 = ptrtoint %struct.Data* %0 to i64
  %6 = sub i64 %4, %5
  %7 = ashr exact i64 %6, 4
  %8 = icmp slt i64 %6, 32
  br i1 %8, label %20, label %9

9:                                                ; preds = %3
  %10 = add nsw i64 %7, -2
  %11 = lshr i64 %10, 1
  br label %12

12:                                               ; preds = %12, %9
  %13 = phi i64 [ %11, %9 ], [ %19, %12 ]
  %14 = getelementptr inbounds %struct.Data, %struct.Data* %0, i64 %13, i32 0
  %15 = load i64, i64* %14, align 8, !tbaa.struct !38
  %16 = getelementptr inbounds %struct.Data, %struct.Data* %0, i64 %13, i32 1
  %17 = load i64, i64* %16, align 8, !tbaa.struct !44
  tail call void @_ZSt13__adjust_heapIN9__gnu_cxx17__normal_iteratorIP4DataSt6vectorIS2_SaIS2_EEEElS2_NS0_5__ops15_Iter_less_iterEEvT_T0_SB_T1_T2_(%struct.Data* %0, i64 %13, i64 %7, i64 %15, i64 %17) #20
  %18 = icmp eq i64 %13, 0
  %19 = add nsw i64 %13, -1
  br i1 %18, label %20, label %12, !llvm.loop !45

20:                                               ; preds = %12, %3
  ret void
}

; Function Attrs: inlinehint minsize mustprogress optsize sspstrong uwtable
define linkonce_odr dso_local void @_ZSt10__pop_heapIN9__gnu_cxx17__normal_iteratorIP4DataSt6vectorIS2_SaIS2_EEEENS0_5__ops15_Iter_less_iterEEvT_SA_SA_RT0_(%struct.Data* %0, %struct.Data* %1, %struct.Data* %2, %"struct.__gnu_cxx::__ops::_Iter_less_iter"* nonnull align 1 dereferenceable(1) %3) local_unnamed_addr #13 comdat {
  %5 = getelementptr inbounds %struct.Data, %struct.Data* %2, i64 0, i32 0
  %6 = load i64, i64* %5, align 8, !tbaa.struct !38
  %7 = getelementptr inbounds %struct.Data, %struct.Data* %2, i64 0, i32 1
  %8 = load i64, i64* %7, align 8, !tbaa.struct !44
  %9 = bitcast %struct.Data* %2 to i8*
  %10 = bitcast %struct.Data* %0 to i8*
  tail call void @llvm.memcpy.p0i8.p0i8.i64(i8* noundef nonnull align 8 dereferenceable(16) %9, i8* noundef nonnull align 8 dereferenceable(16) %10, i64 16, i1 false), !tbaa.struct !38
  %11 = ptrtoint %struct.Data* %1 to i64
  %12 = ptrtoint %struct.Data* %0 to i64
  %13 = sub i64 %11, %12
  %14 = ashr exact i64 %13, 4
  tail call void @_ZSt13__adjust_heapIN9__gnu_cxx17__normal_iteratorIP4DataSt6vectorIS2_SaIS2_EEEElS2_NS0_5__ops15_Iter_less_iterEEvT_T0_SB_T1_T2_(%struct.Data* %0, i64 0, i64 %14, i64 %6, i64 %8) #20
  ret void
}

; Function Attrs: minsize optsize sspstrong uwtable
define linkonce_odr dso_local void @_ZSt13__adjust_heapIN9__gnu_cxx17__normal_iteratorIP4DataSt6vectorIS2_SaIS2_EEEElS2_NS0_5__ops15_Iter_less_iterEEvT_T0_SB_T1_T2_(%struct.Data* %0, i64 %1, i64 %2, i64 %3, i64 %4) local_unnamed_addr #5 comdat {
  %6 = alloca %"struct.__gnu_cxx::__ops::_Iter_less_val", align 1
  %7 = add nsw i64 %2, -1
  %8 = sdiv i64 %7, 2
  br label %9

9:                                                ; preds = %12, %5
  %10 = phi i64 [ %1, %5 ], [ %19, %12 ]
  %11 = icmp slt i64 %10, %8
  br i1 %11, label %12, label %24

12:                                               ; preds = %9
  %13 = shl i64 %10, 1
  %14 = add i64 %13, 2
  %15 = getelementptr inbounds %struct.Data, %struct.Data* %0, i64 %14
  %16 = or i64 %13, 1
  %17 = getelementptr inbounds %struct.Data, %struct.Data* %0, i64 %16
  %18 = tail call zeroext i1 @_ZNK4DataltERKS_(%struct.Data* nonnull align 8 dereferenceable(16) %15, %struct.Data* nonnull align 8 dereferenceable(16) %17) #22
  %19 = select i1 %18, i64 %16, i64 %14
  %20 = getelementptr inbounds %struct.Data, %struct.Data* %0, i64 %19
  %21 = getelementptr inbounds %struct.Data, %struct.Data* %0, i64 %10
  %22 = bitcast %struct.Data* %21 to i8*
  %23 = bitcast %struct.Data* %20 to i8*
  tail call void @llvm.memcpy.p0i8.p0i8.i64(i8* noundef nonnull align 8 dereferenceable(16) %22, i8* noundef nonnull align 8 dereferenceable(16) %23, i64 16, i1 false), !tbaa.struct !38
  br label %9, !llvm.loop !46

24:                                               ; preds = %9
  %25 = and i64 %2, 1
  %26 = icmp eq i64 %25, 0
  br i1 %26, label %27, label %38

27:                                               ; preds = %24
  %28 = add nsw i64 %2, -2
  %29 = sdiv i64 %28, 2
  %30 = icmp eq i64 %10, %29
  br i1 %30, label %31, label %38

31:                                               ; preds = %27
  %32 = shl i64 %10, 1
  %33 = or i64 %32, 1
  %34 = getelementptr inbounds %struct.Data, %struct.Data* %0, i64 %33
  %35 = getelementptr inbounds %struct.Data, %struct.Data* %0, i64 %10
  %36 = bitcast %struct.Data* %35 to i8*
  %37 = bitcast %struct.Data* %34 to i8*
  tail call void @llvm.memcpy.p0i8.p0i8.i64(i8* noundef nonnull align 8 dereferenceable(16) %36, i8* noundef nonnull align 8 dereferenceable(16) %37, i64 16, i1 false), !tbaa.struct !38
  br label %38

38:                                               ; preds = %31, %27, %24
  %39 = phi i64 [ %33, %31 ], [ %10, %27 ], [ %10, %24 ]
  %40 = getelementptr inbounds %"struct.__gnu_cxx::__ops::_Iter_less_val", %"struct.__gnu_cxx::__ops::_Iter_less_val"* %6, i64 0, i32 0
  call void @llvm.lifetime.start.p0i8(i64 1, i8* nonnull %40) #21
  call void @_ZSt11__push_heapIN9__gnu_cxx17__normal_iteratorIP4DataSt6vectorIS2_SaIS2_EEEElS2_NS0_5__ops14_Iter_less_valEEvT_T0_SB_T1_RT2_(%struct.Data* %0, i64 %39, i64 %1, i64 %3, i64 %4, %"struct.__gnu_cxx::__ops::_Iter_less_val"* nonnull align 1 dereferenceable(1) %6) #20
  call void @llvm.lifetime.end.p0i8(i64 1, i8* nonnull %40) #21
  ret void
}

; Function Attrs: minsize optsize sspstrong uwtable
define linkonce_odr dso_local void @_ZSt11__push_heapIN9__gnu_cxx17__normal_iteratorIP4DataSt6vectorIS2_SaIS2_EEEElS2_NS0_5__ops14_Iter_less_valEEvT_T0_SB_T1_RT2_(%struct.Data* %0, i64 %1, i64 %2, i64 %3, i64 %4, %"struct.__gnu_cxx::__ops::_Iter_less_val"* nonnull align 1 dereferenceable(1) %5) local_unnamed_addr #5 comdat {
  %7 = alloca %struct.Data, align 8
  %8 = getelementptr inbounds %struct.Data, %struct.Data* %7, i64 0, i32 0
  store i64 %3, i64* %8, align 8
  %9 = getelementptr inbounds %struct.Data, %struct.Data* %7, i64 0, i32 1
  store i64 %4, i64* %9, align 8
  br label %10

10:                                               ; preds = %18, %6
  %11 = phi i64 [ %1, %6 ], [ %13, %18 ]
  %12 = add nsw i64 %11, -1
  %13 = sdiv i64 %12, 2
  %14 = icmp sgt i64 %11, %2
  br i1 %14, label %15, label %22

15:                                               ; preds = %10
  %16 = getelementptr inbounds %struct.Data, %struct.Data* %0, i64 %13
  %17 = call zeroext i1 @_ZNK4DataltERKS_(%struct.Data* nonnull align 8 dereferenceable(16) %16, %struct.Data* nonnull align 8 dereferenceable(16) %7) #20
  br i1 %17, label %18, label %22

18:                                               ; preds = %15
  %19 = getelementptr inbounds %struct.Data, %struct.Data* %0, i64 %11
  %20 = bitcast %struct.Data* %19 to i8*
  %21 = bitcast %struct.Data* %16 to i8*
  call void @llvm.memcpy.p0i8.p0i8.i64(i8* noundef nonnull align 8 dereferenceable(16) %20, i8* noundef nonnull align 8 dereferenceable(16) %21, i64 16, i1 false), !tbaa.struct !38
  br label %10, !llvm.loop !47

22:                                               ; preds = %10, %15
  %23 = getelementptr inbounds %struct.Data, %struct.Data* %0, i64 %11
  %24 = bitcast %struct.Data* %23 to i8*
  %25 = bitcast %struct.Data* %7 to i8*
  call void @llvm.memcpy.p0i8.p0i8.i64(i8* noundef nonnull align 8 dereferenceable(16) %24, i8* noundef nonnull align 8 dereferenceable(16) %25, i64 16, i1 false), !tbaa.struct !38
  ret void
}

; Function Attrs: minsize mustprogress nounwind optsize sspstrong uwtable
define linkonce_odr dso_local zeroext i1 @_ZNK4DataltERKS_(%struct.Data* nonnull align 8 dereferenceable(16) %0, %struct.Data* nonnull align 8 dereferenceable(16) %1) local_unnamed_addr #6 comdat align 2 {
  %3 = getelementptr inbounds %struct.Data, %struct.Data* %0, i64 0, i32 0
  %4 = load i64, i64* %3, align 8, !tbaa !20
  %5 = getelementptr inbounds %struct.Data, %struct.Data* %1, i64 0, i32 0
  %6 = load i64, i64* %5, align 8, !tbaa !20
  %7 = icmp eq i64 %4, %6
  br i1 %7, label %8, label %14

8:                                                ; preds = %2
  %9 = getelementptr inbounds %struct.Data, %struct.Data* %0, i64 0, i32 1
  %10 = load i64, i64* %9, align 8, !tbaa !30
  %11 = getelementptr inbounds %struct.Data, %struct.Data* %1, i64 0, i32 1
  %12 = load i64, i64* %11, align 8, !tbaa !30
  %13 = icmp slt i64 %10, %12
  br label %24

14:                                               ; preds = %2
  %15 = getelementptr inbounds %struct.Data, %struct.Data* %1, i64 0, i32 1
  %16 = load i64, i64* %15, align 8, !tbaa !30
  %17 = add nsw i64 %16, 1
  %18 = mul nsw i64 %17, %4
  %19 = getelementptr inbounds %struct.Data, %struct.Data* %0, i64 0, i32 1
  %20 = load i64, i64* %19, align 8, !tbaa !30
  %21 = add nsw i64 %20, 1
  %22 = mul nsw i64 %21, %6
  %23 = icmp sgt i64 %18, %22
  br label %24

24:                                               ; preds = %14, %8
  %25 = phi i1 [ %13, %8 ], [ %23, %14 ]
  ret i1 %25
}

; Function Attrs: minsize mustprogress optsize sspstrong uwtable
define linkonce_odr dso_local void @_ZSt22__move_median_to_firstIN9__gnu_cxx17__normal_iteratorIP4DataSt6vectorIS2_SaIS2_EEEENS0_5__ops15_Iter_less_iterEEvT_SA_SA_SA_T0_(%struct.Data* %0, %struct.Data* %1, %struct.Data* %2, %struct.Data* %3) local_unnamed_addr #9 comdat {
  %5 = alloca %struct.Data, align 8
  %6 = alloca %struct.Data, align 8
  %7 = alloca %struct.Data, align 8
  %8 = alloca %struct.Data, align 8
  %9 = alloca %struct.Data, align 8
  %10 = alloca %struct.Data, align 8
  %11 = tail call zeroext i1 @_ZNK4DataltERKS_(%struct.Data* nonnull align 8 dereferenceable(16) %1, %struct.Data* nonnull align 8 dereferenceable(16) %2) #22
  br i1 %11, label %12, label %28

12:                                               ; preds = %4
  %13 = tail call zeroext i1 @_ZNK4DataltERKS_(%struct.Data* nonnull align 8 dereferenceable(16) %2, %struct.Data* nonnull align 8 dereferenceable(16) %3) #22
  br i1 %13, label %14, label %18

14:                                               ; preds = %12
  %15 = bitcast %struct.Data* %10 to i8*
  call void @llvm.lifetime.start.p0i8(i64 16, i8* nonnull %15)
  %16 = bitcast %struct.Data* %0 to i8*
  call void @llvm.memcpy.p0i8.p0i8.i64(i8* noundef nonnull align 8 dereferenceable(16) %15, i8* noundef nonnull align 8 dereferenceable(16) %16, i64 16, i1 false) #21, !tbaa.struct !38
  %17 = bitcast %struct.Data* %2 to i8*
  tail call void @llvm.memcpy.p0i8.p0i8.i64(i8* noundef nonnull align 8 dereferenceable(16) %16, i8* noundef nonnull align 8 dereferenceable(16) %17, i64 16, i1 false) #21, !tbaa.struct !38
  call void @llvm.memcpy.p0i8.p0i8.i64(i8* noundef nonnull align 8 dereferenceable(16) %17, i8* noundef nonnull align 8 dereferenceable(16) %15, i64 16, i1 false) #21, !tbaa.struct !38
  call void @llvm.lifetime.end.p0i8(i64 16, i8* nonnull %15)
  br label %44

18:                                               ; preds = %12
  %19 = tail call zeroext i1 @_ZNK4DataltERKS_(%struct.Data* nonnull align 8 dereferenceable(16) %1, %struct.Data* nonnull align 8 dereferenceable(16) %3) #22
  br i1 %19, label %20, label %24

20:                                               ; preds = %18
  %21 = bitcast %struct.Data* %9 to i8*
  call void @llvm.lifetime.start.p0i8(i64 16, i8* nonnull %21)
  %22 = bitcast %struct.Data* %0 to i8*
  call void @llvm.memcpy.p0i8.p0i8.i64(i8* noundef nonnull align 8 dereferenceable(16) %21, i8* noundef nonnull align 8 dereferenceable(16) %22, i64 16, i1 false) #21, !tbaa.struct !38
  %23 = bitcast %struct.Data* %3 to i8*
  tail call void @llvm.memcpy.p0i8.p0i8.i64(i8* noundef nonnull align 8 dereferenceable(16) %22, i8* noundef nonnull align 8 dereferenceable(16) %23, i64 16, i1 false) #21, !tbaa.struct !38
  call void @llvm.memcpy.p0i8.p0i8.i64(i8* noundef nonnull align 8 dereferenceable(16) %23, i8* noundef nonnull align 8 dereferenceable(16) %21, i64 16, i1 false) #21, !tbaa.struct !38
  call void @llvm.lifetime.end.p0i8(i64 16, i8* nonnull %21)
  br label %44

24:                                               ; preds = %18
  %25 = bitcast %struct.Data* %8 to i8*
  call void @llvm.lifetime.start.p0i8(i64 16, i8* nonnull %25)
  %26 = bitcast %struct.Data* %0 to i8*
  call void @llvm.memcpy.p0i8.p0i8.i64(i8* noundef nonnull align 8 dereferenceable(16) %25, i8* noundef nonnull align 8 dereferenceable(16) %26, i64 16, i1 false) #21, !tbaa.struct !38
  %27 = bitcast %struct.Data* %1 to i8*
  tail call void @llvm.memcpy.p0i8.p0i8.i64(i8* noundef nonnull align 8 dereferenceable(16) %26, i8* noundef nonnull align 8 dereferenceable(16) %27, i64 16, i1 false) #21, !tbaa.struct !38
  call void @llvm.memcpy.p0i8.p0i8.i64(i8* noundef nonnull align 8 dereferenceable(16) %27, i8* noundef nonnull align 8 dereferenceable(16) %25, i64 16, i1 false) #21, !tbaa.struct !38
  call void @llvm.lifetime.end.p0i8(i64 16, i8* nonnull %25)
  br label %44

28:                                               ; preds = %4
  %29 = tail call zeroext i1 @_ZNK4DataltERKS_(%struct.Data* nonnull align 8 dereferenceable(16) %1, %struct.Data* nonnull align 8 dereferenceable(16) %3) #22
  br i1 %29, label %30, label %34

30:                                               ; preds = %28
  %31 = bitcast %struct.Data* %7 to i8*
  call void @llvm.lifetime.start.p0i8(i64 16, i8* nonnull %31)
  %32 = bitcast %struct.Data* %0 to i8*
  call void @llvm.memcpy.p0i8.p0i8.i64(i8* noundef nonnull align 8 dereferenceable(16) %31, i8* noundef nonnull align 8 dereferenceable(16) %32, i64 16, i1 false) #21, !tbaa.struct !38
  %33 = bitcast %struct.Data* %1 to i8*
  tail call void @llvm.memcpy.p0i8.p0i8.i64(i8* noundef nonnull align 8 dereferenceable(16) %32, i8* noundef nonnull align 8 dereferenceable(16) %33, i64 16, i1 false) #21, !tbaa.struct !38
  call void @llvm.memcpy.p0i8.p0i8.i64(i8* noundef nonnull align 8 dereferenceable(16) %33, i8* noundef nonnull align 8 dereferenceable(16) %31, i64 16, i1 false) #21, !tbaa.struct !38
  call void @llvm.lifetime.end.p0i8(i64 16, i8* nonnull %31)
  br label %44

34:                                               ; preds = %28
  %35 = tail call zeroext i1 @_ZNK4DataltERKS_(%struct.Data* nonnull align 8 dereferenceable(16) %2, %struct.Data* nonnull align 8 dereferenceable(16) %3) #22
  br i1 %35, label %36, label %40

36:                                               ; preds = %34
  %37 = bitcast %struct.Data* %6 to i8*
  call void @llvm.lifetime.start.p0i8(i64 16, i8* nonnull %37)
  %38 = bitcast %struct.Data* %0 to i8*
  call void @llvm.memcpy.p0i8.p0i8.i64(i8* noundef nonnull align 8 dereferenceable(16) %37, i8* noundef nonnull align 8 dereferenceable(16) %38, i64 16, i1 false) #21, !tbaa.struct !38
  %39 = bitcast %struct.Data* %3 to i8*
  tail call void @llvm.memcpy.p0i8.p0i8.i64(i8* noundef nonnull align 8 dereferenceable(16) %38, i8* noundef nonnull align 8 dereferenceable(16) %39, i64 16, i1 false) #21, !tbaa.struct !38
  call void @llvm.memcpy.p0i8.p0i8.i64(i8* noundef nonnull align 8 dereferenceable(16) %39, i8* noundef nonnull align 8 dereferenceable(16) %37, i64 16, i1 false) #21, !tbaa.struct !38
  call void @llvm.lifetime.end.p0i8(i64 16, i8* nonnull %37)
  br label %44

40:                                               ; preds = %34
  %41 = bitcast %struct.Data* %5 to i8*
  call void @llvm.lifetime.start.p0i8(i64 16, i8* nonnull %41)
  %42 = bitcast %struct.Data* %0 to i8*
  call void @llvm.memcpy.p0i8.p0i8.i64(i8* noundef nonnull align 8 dereferenceable(16) %41, i8* noundef nonnull align 8 dereferenceable(16) %42, i64 16, i1 false) #21, !tbaa.struct !38
  %43 = bitcast %struct.Data* %2 to i8*
  tail call void @llvm.memcpy.p0i8.p0i8.i64(i8* noundef nonnull align 8 dereferenceable(16) %42, i8* noundef nonnull align 8 dereferenceable(16) %43, i64 16, i1 false) #21, !tbaa.struct !38
  call void @llvm.memcpy.p0i8.p0i8.i64(i8* noundef nonnull align 8 dereferenceable(16) %43, i8* noundef nonnull align 8 dereferenceable(16) %41, i64 16, i1 false) #21, !tbaa.struct !38
  call void @llvm.lifetime.end.p0i8(i64 16, i8* nonnull %41)
  br label %44

44:                                               ; preds = %30, %40, %36, %14, %24, %20
  ret void
}

; Function Attrs: minsize mustprogress nounwind optsize sspstrong uwtable
define linkonce_odr dso_local %struct.Data* @_ZSt21__unguarded_partitionIN9__gnu_cxx17__normal_iteratorIP4DataSt6vectorIS2_SaIS2_EEEENS0_5__ops15_Iter_less_iterEET_SA_SA_SA_T0_(%struct.Data* %0, %struct.Data* %1, %struct.Data* %2) local_unnamed_addr #6 comdat {
  %4 = alloca %struct.Data, align 8
  %5 = bitcast %struct.Data* %4 to i8*
  br label %6

6:                                                ; preds = %3, %20
  %7 = phi %struct.Data* [ %0, %3 ], [ %12, %20 ]
  %8 = phi %struct.Data* [ %1, %3 ], [ %15, %20 ]
  br label %9

9:                                                ; preds = %9, %6
  %10 = phi %struct.Data* [ %7, %6 ], [ %12, %9 ]
  %11 = tail call zeroext i1 @_ZNK4DataltERKS_(%struct.Data* nonnull align 8 dereferenceable(16) %10, %struct.Data* nonnull align 8 dereferenceable(16) %2) #22
  %12 = getelementptr inbounds %struct.Data, %struct.Data* %10, i64 1
  br i1 %11, label %9, label %13, !llvm.loop !48

13:                                               ; preds = %9, %13
  %14 = phi %struct.Data* [ %15, %13 ], [ %8, %9 ]
  %15 = getelementptr inbounds %struct.Data, %struct.Data* %14, i64 -1
  %16 = tail call zeroext i1 @_ZNK4DataltERKS_(%struct.Data* nonnull align 8 dereferenceable(16) %2, %struct.Data* nonnull align 8 dereferenceable(16) %15) #22
  br i1 %16, label %13, label %17, !llvm.loop !49

17:                                               ; preds = %13
  %18 = icmp ult %struct.Data* %10, %15
  br i1 %18, label %20, label %19

19:                                               ; preds = %17
  ret %struct.Data* %10

20:                                               ; preds = %17
  call void @llvm.lifetime.start.p0i8(i64 16, i8* nonnull %5)
  %21 = bitcast %struct.Data* %10 to i8*
  call void @llvm.memcpy.p0i8.p0i8.i64(i8* noundef nonnull align 8 dereferenceable(16) %5, i8* noundef nonnull align 8 dereferenceable(16) %21, i64 16, i1 false) #21, !tbaa.struct !38
  %22 = bitcast %struct.Data* %15 to i8*
  tail call void @llvm.memcpy.p0i8.p0i8.i64(i8* noundef nonnull align 8 dereferenceable(16) %21, i8* noundef nonnull align 8 dereferenceable(16) %22, i64 16, i1 false) #21, !tbaa.struct !38
  call void @llvm.memcpy.p0i8.p0i8.i64(i8* noundef nonnull align 8 dereferenceable(16) %22, i8* noundef nonnull align 8 dereferenceable(16) %5, i64 16, i1 false) #21, !tbaa.struct !38
  call void @llvm.lifetime.end.p0i8(i64 16, i8* nonnull %5)
  br label %6, !llvm.loop !50
}

; Function Attrs: mustprogress nofree nosync nounwind readnone speculatable willreturn
declare i64 @llvm.ctlz.i64(i64, i1 immarg) #17

; Function Attrs: minsize optsize sspstrong uwtable
define linkonce_odr dso_local void @_ZSt16__insertion_sortIN9__gnu_cxx17__normal_iteratorIP4DataSt6vectorIS2_SaIS2_EEEENS0_5__ops15_Iter_less_iterEEvT_SA_T0_(%struct.Data* %0, %struct.Data* %1) local_unnamed_addr #5 comdat {
  %3 = alloca %struct.Data, align 8
  %4 = icmp eq %struct.Data* %0, %1
  br i1 %4, label %28, label %5

5:                                                ; preds = %2
  %6 = bitcast %struct.Data* %3 to i8*
  %7 = ptrtoint %struct.Data* %0 to i64
  %8 = bitcast %struct.Data* %0 to i8*
  br label %9

9:                                                ; preds = %26, %5
  %10 = phi %struct.Data* [ %0, %5 ], [ %11, %26 ]
  %11 = getelementptr inbounds %struct.Data, %struct.Data* %10, i64 1
  %12 = icmp eq %struct.Data* %11, %1
  br i1 %12, label %28, label %13

13:                                               ; preds = %9
  %14 = tail call zeroext i1 @_ZNK4DataltERKS_(%struct.Data* nonnull align 8 dereferenceable(16) %11, %struct.Data* nonnull align 8 dereferenceable(16) %0) #22
  br i1 %14, label %15, label %27

15:                                               ; preds = %13
  call void @llvm.lifetime.start.p0i8(i64 16, i8* nonnull %6)
  %16 = bitcast %struct.Data* %11 to i8*
  call void @llvm.memcpy.p0i8.p0i8.i64(i8* noundef nonnull align 8 dereferenceable(16) %6, i8* noundef nonnull align 8 dereferenceable(16) %16, i64 16, i1 false), !tbaa.struct !38
  %17 = ptrtoint %struct.Data* %11 to i64
  %18 = sub i64 %17, %7
  %19 = icmp eq i64 %18, 0
  br i1 %19, label %25, label %20

20:                                               ; preds = %15
  %21 = ashr exact i64 %18, 4
  %22 = sub nsw i64 2, %21
  %23 = getelementptr inbounds %struct.Data, %struct.Data* %10, i64 %22
  %24 = bitcast %struct.Data* %23 to i8*
  tail call void @llvm.memmove.p0i8.p0i8.i64(i8* nonnull align 8 %24, i8* nonnull align 8 %8, i64 %18, i1 false) #21
  br label %25

25:                                               ; preds = %15, %20
  call void @llvm.memcpy.p0i8.p0i8.i64(i8* noundef nonnull align 8 dereferenceable(16) %8, i8* noundef nonnull align 8 dereferenceable(16) %6, i64 16, i1 false), !tbaa.struct !38
  call void @llvm.lifetime.end.p0i8(i64 16, i8* nonnull %6)
  br label %26

26:                                               ; preds = %25, %27
  br label %9, !llvm.loop !51

27:                                               ; preds = %13
  tail call void @_ZSt25__unguarded_linear_insertIN9__gnu_cxx17__normal_iteratorIP4DataSt6vectorIS2_SaIS2_EEEENS0_5__ops14_Val_less_iterEEvT_T0_(%struct.Data* nonnull %11) #20
  br label %26

28:                                               ; preds = %9, %2
  ret void
}

; Function Attrs: inlinehint minsize mustprogress optsize sspstrong uwtable
define linkonce_odr dso_local void @_ZSt26__unguarded_insertion_sortIN9__gnu_cxx17__normal_iteratorIP4DataSt6vectorIS2_SaIS2_EEEENS0_5__ops15_Iter_less_iterEEvT_SA_T0_(%struct.Data* %0, %struct.Data* %1) local_unnamed_addr #13 comdat {
  br label %3

3:                                                ; preds = %7, %2
  %4 = phi %struct.Data* [ %0, %2 ], [ %8, %7 ]
  %5 = icmp eq %struct.Data* %4, %1
  br i1 %5, label %6, label %7

6:                                                ; preds = %3
  ret void

7:                                                ; preds = %3
  tail call void @_ZSt25__unguarded_linear_insertIN9__gnu_cxx17__normal_iteratorIP4DataSt6vectorIS2_SaIS2_EEEENS0_5__ops14_Val_less_iterEEvT_T0_(%struct.Data* %4) #20
  %8 = getelementptr inbounds %struct.Data, %struct.Data* %4, i64 1
  br label %3, !llvm.loop !52
}

; Function Attrs: minsize mustprogress optsize sspstrong uwtable
define linkonce_odr dso_local void @_ZSt25__unguarded_linear_insertIN9__gnu_cxx17__normal_iteratorIP4DataSt6vectorIS2_SaIS2_EEEENS0_5__ops14_Val_less_iterEEvT_T0_(%struct.Data* %0) local_unnamed_addr #9 comdat {
  %2 = alloca %struct.Data, align 8
  %3 = bitcast %struct.Data* %2 to i8*
  call void @llvm.lifetime.start.p0i8(i64 16, i8* nonnull %3) #21
  br label %4

4:                                                ; preds = %4, %1
  %5 = phi %struct.Data* [ %0, %1 ], [ %8, %4 ]
  %6 = phi i8* [ %3, %1 ], [ %10, %4 ]
  %7 = bitcast %struct.Data* %5 to i8*
  call void @llvm.memcpy.p0i8.p0i8.i64(i8* noundef nonnull align 8 dereferenceable(16) %6, i8* noundef nonnull align 8 dereferenceable(16) %7, i64 16, i1 false)
  %8 = getelementptr inbounds %struct.Data, %struct.Data* %5, i64 -1
  %9 = call zeroext i1 @_ZNK4DataltERKS_(%struct.Data* nonnull align 8 dereferenceable(16) %2, %struct.Data* nonnull align 8 dereferenceable(16) %8) #22
  %10 = bitcast %struct.Data* %5 to i8*
  br i1 %9, label %4, label %11, !llvm.loop !53

11:                                               ; preds = %4
  %12 = bitcast %struct.Data* %5 to i8*
  call void @llvm.memcpy.p0i8.p0i8.i64(i8* noundef nonnull align 8 dereferenceable(16) %12, i8* noundef nonnull align 8 dereferenceable(16) %3, i64 16, i1 false), !tbaa.struct !38
  call void @llvm.lifetime.end.p0i8(i64 16, i8* nonnull %3) #21
  ret void
}

; Function Attrs: argmemonly mustprogress nofree nounwind willreturn
declare void @llvm.memmove.p0i8.p0i8.i64(i8* nocapture writeonly, i8* nocapture readonly, i64, i1 immarg) #14

; Function Attrs: minsize optsize sspstrong uwtable
define linkonce_odr dso_local i64 @_ZNSt6vectorIxSaIxEE17_S_check_init_lenEmRKS0_(i64 %0, %"class.std::allocator.7"* nonnull align 1 dereferenceable(1) %1) local_unnamed_addr #5 comdat align 2 {
  %3 = icmp ugt i64 %0, 1152921504606846975
  br i1 %3, label %4, label %5

4:                                                ; preds = %2
  tail call void @_ZSt20__throw_length_errorPKc(i8* getelementptr inbounds ([49 x i8], [49 x i8]* @.str, i64 0, i64 0)) #24
  unreachable

5:                                                ; preds = %2
  ret i64 %0
}

; Function Attrs: minsize mustprogress optsize sspstrong uwtable
define linkonce_odr dso_local void @_ZNSt6vectorIxSaIxEE18_M_fill_initializeEmRKx(%"class.std::vector.5"* nonnull align 8 dereferenceable(24) %0, i64 %1, i64* nonnull align 8 dereferenceable(8) %2) local_unnamed_addr #9 comdat align 2 {
  %4 = getelementptr inbounds %"class.std::vector.5", %"class.std::vector.5"* %0, i64 0, i32 0, i32 0, i32 0, i32 0
  %5 = load i64*, i64** %4, align 8, !tbaa !27
  %6 = tail call i64* @_ZSt10__fill_n_aIPxmxET_S1_T0_RKT1_St26random_access_iterator_tag(i64* %5, i64 %1, i64* nonnull align 8 dereferenceable(8) %2) #20
  %7 = getelementptr inbounds %"class.std::vector.5", %"class.std::vector.5"* %0, i64 0, i32 0, i32 0, i32 0, i32 1
  store i64* %6, i64** %7, align 8, !tbaa !54
  ret void
}

; Function Attrs: minsize nounwind optsize sspstrong uwtable
define linkonce_odr dso_local void @_ZNSt12_Vector_baseIxSaIxEED2Ev(%"struct.std::_Vector_base.6"* nonnull align 8 dereferenceable(24) %0) unnamed_addr #7 comdat align 2 personality i8* bitcast (i32 (...)* @__gxx_personality_v0 to i8*) {
  %2 = getelementptr inbounds %"struct.std::_Vector_base.6", %"struct.std::_Vector_base.6"* %0, i64 0, i32 0, i32 0, i32 0
  %3 = load i64*, i64** %2, align 8, !tbaa !27
  %4 = icmp eq i64* %3, null
  br i1 %4, label %7, label %5

5:                                                ; preds = %1
  %6 = bitcast i64* %3 to i8*
  tail call void @_ZdlPv(i8* nonnull %6) #22
  br label %7

7:                                                ; preds = %5, %1
  ret void
}

; Function Attrs: minsize mustprogress optsize sspstrong uwtable
define linkonce_odr dso_local void @_ZNSt12_Vector_baseIxSaIxEE17_M_create_storageEm(%"struct.std::_Vector_base.6"* nonnull align 8 dereferenceable(24) %0, i64 %1) local_unnamed_addr #9 comdat align 2 {
  %3 = tail call i64* @_ZNSt12_Vector_baseIxSaIxEE11_M_allocateEm(%"struct.std::_Vector_base.6"* nonnull align 8 dereferenceable(24) %0, i64 %1) #20
  %4 = getelementptr inbounds %"struct.std::_Vector_base.6", %"struct.std::_Vector_base.6"* %0, i64 0, i32 0, i32 0, i32 0
  store i64* %3, i64** %4, align 8, !tbaa !27
  %5 = getelementptr inbounds %"struct.std::_Vector_base.6", %"struct.std::_Vector_base.6"* %0, i64 0, i32 0, i32 0, i32 1
  store i64* %3, i64** %5, align 8, !tbaa !54
  %6 = getelementptr inbounds i64, i64* %3, i64 %1
  %7 = getelementptr inbounds %"struct.std::_Vector_base.6", %"struct.std::_Vector_base.6"* %0, i64 0, i32 0, i32 0, i32 2
  store i64* %6, i64** %7, align 8, !tbaa !55
  ret void
}

; Function Attrs: minsize mustprogress optsize sspstrong uwtable
define linkonce_odr dso_local i64* @_ZNSt12_Vector_baseIxSaIxEE11_M_allocateEm(%"struct.std::_Vector_base.6"* nonnull align 8 dereferenceable(24) %0, i64 %1) local_unnamed_addr #9 comdat align 2 {
  %3 = icmp eq i64 %1, 0
  br i1 %3, label %7, label %4

4:                                                ; preds = %2
  %5 = bitcast %"struct.std::_Vector_base.6"* %0 to %"class.std::allocator.7"*
  %6 = tail call i64* @_ZNSt16allocator_traitsISaIxEE8allocateERS0_m(%"class.std::allocator.7"* nonnull align 1 dereferenceable(1) %5, i64 %1) #20
  br label %7

7:                                                ; preds = %2, %4
  %8 = phi i64* [ %6, %4 ], [ null, %2 ]
  ret i64* %8
}

; Function Attrs: minsize mustprogress optsize sspstrong uwtable
define linkonce_odr dso_local i64* @_ZNSt16allocator_traitsISaIxEE8allocateERS0_m(%"class.std::allocator.7"* nonnull align 1 dereferenceable(1) %0, i64 %1) local_unnamed_addr #9 comdat align 2 {
  %3 = bitcast %"class.std::allocator.7"* %0 to %"class.__gnu_cxx::new_allocator.8"*
  %4 = tail call i64* @_ZN9__gnu_cxx13new_allocatorIxE8allocateEmPKv(%"class.__gnu_cxx::new_allocator.8"* nonnull align 1 dereferenceable(1) %3, i64 %1, i8* null) #20
  ret i64* %4
}

; Function Attrs: minsize mustprogress optsize sspstrong uwtable
define linkonce_odr dso_local i64* @_ZN9__gnu_cxx13new_allocatorIxE8allocateEmPKv(%"class.__gnu_cxx::new_allocator.8"* nonnull align 1 dereferenceable(1) %0, i64 %1, i8* %2) local_unnamed_addr #9 comdat align 2 {
  %4 = icmp ugt i64 %1, 1152921504606846975
  br i1 %4, label %5, label %9, !prof !37

5:                                                ; preds = %3
  %6 = icmp ugt i64 %1, 2305843009213693951
  br i1 %6, label %7, label %8

7:                                                ; preds = %5
  tail call void @_ZSt28__throw_bad_array_new_lengthv() #24
  unreachable

8:                                                ; preds = %5
  tail call void @_ZSt17__throw_bad_allocv() #24
  unreachable

9:                                                ; preds = %3
  %10 = shl nuw nsw i64 %1, 3
  %11 = tail call noalias nonnull i8* @_Znwm(i64 %10) #25
  %12 = bitcast i8* %11 to i64*
  ret i64* %12
}

; Function Attrs: inlinehint minsize mustprogress optsize sspstrong uwtable
define linkonce_odr dso_local i64* @_ZSt10__fill_n_aIPxmxET_S1_T0_RKT1_St26random_access_iterator_tag(i64* %0, i64 %1, i64* nonnull align 8 dereferenceable(8) %2) local_unnamed_addr #13 comdat {
  %4 = icmp eq i64 %1, 0
  br i1 %4, label %13, label %5

5:                                                ; preds = %3
  %6 = getelementptr inbounds i64, i64* %0, i64 %1
  %7 = load i64, i64* %2, align 8, !tbaa !24
  br label %8

8:                                                ; preds = %11, %5
  %9 = phi i64* [ %0, %5 ], [ %12, %11 ]
  %10 = icmp eq i64* %9, %6
  br i1 %10, label %13, label %11

11:                                               ; preds = %8
  store i64 %7, i64* %9, align 8, !tbaa !24
  %12 = getelementptr inbounds i64, i64* %9, i64 1
  br label %8, !llvm.loop !56

13:                                               ; preds = %8, %3
  %14 = phi i64* [ %0, %3 ], [ %6, %8 ]
  ret i64* %14
}

; Function Attrs: minsize optsize sspstrong uwtable
define linkonce_odr dso_local i64 @_ZNSt6vectorIS_IxSaIxEESaIS1_EE17_S_check_init_lenEmRKS2_(i64 %0, %"class.std::allocator.2"* nonnull align 1 dereferenceable(1) %1) local_unnamed_addr #5 comdat align 2 {
  %3 = icmp ugt i64 %0, 384307168202282325
  br i1 %3, label %4, label %5

4:                                                ; preds = %2
  tail call void @_ZSt20__throw_length_errorPKc(i8* getelementptr inbounds ([49 x i8], [49 x i8]* @.str, i64 0, i64 0)) #24
  unreachable

5:                                                ; preds = %2
  ret i64 %0
}

; Function Attrs: minsize mustprogress optsize sspstrong uwtable
define linkonce_odr dso_local void @_ZNSt6vectorIS_IxSaIxEESaIS1_EE18_M_fill_initializeEmRKS1_(%"class.std::vector.0"* nonnull align 8 dereferenceable(24) %0, i64 %1, %"class.std::vector.5"* nonnull align 8 dereferenceable(24) %2) local_unnamed_addr #9 comdat align 2 {
  %4 = getelementptr inbounds %"class.std::vector.0", %"class.std::vector.0"* %0, i64 0, i32 0, i32 0, i32 0, i32 0
  %5 = load %"class.std::vector.5"*, %"class.std::vector.5"** %4, align 8, !tbaa !25
  %6 = tail call %"class.std::vector.5"* @_ZNSt22__uninitialized_fill_nILb0EE15__uninit_fill_nIPSt6vectorIxSaIxEEmS4_EET_S6_T0_RKT1_(%"class.std::vector.5"* %5, i64 %1, %"class.std::vector.5"* nonnull align 8 dereferenceable(24) %2) #20
  %7 = getelementptr inbounds %"class.std::vector.0", %"class.std::vector.0"* %0, i64 0, i32 0, i32 0, i32 0, i32 1
  store %"class.std::vector.5"* %6, %"class.std::vector.5"** %7, align 8, !tbaa !34
  ret void
}

; Function Attrs: minsize nounwind optsize sspstrong uwtable
define linkonce_odr dso_local void @_ZNSt12_Vector_baseISt6vectorIxSaIxEESaIS2_EED2Ev(%"struct.std::_Vector_base.1"* nonnull align 8 dereferenceable(24) %0) unnamed_addr #7 comdat align 2 personality i8* bitcast (i32 (...)* @__gxx_personality_v0 to i8*) {
  %2 = getelementptr inbounds %"struct.std::_Vector_base.1", %"struct.std::_Vector_base.1"* %0, i64 0, i32 0, i32 0, i32 0
  %3 = load %"class.std::vector.5"*, %"class.std::vector.5"** %2, align 8, !tbaa !25
  %4 = icmp eq %"class.std::vector.5"* %3, null
  br i1 %4, label %7, label %5

5:                                                ; preds = %1
  %6 = bitcast %"class.std::vector.5"* %3 to i8*
  tail call void @_ZdlPv(i8* nonnull %6) #22
  br label %7

7:                                                ; preds = %5, %1
  ret void
}

; Function Attrs: minsize mustprogress optsize sspstrong uwtable
define linkonce_odr dso_local void @_ZNSt12_Vector_baseISt6vectorIxSaIxEESaIS2_EE17_M_create_storageEm(%"struct.std::_Vector_base.1"* nonnull align 8 dereferenceable(24) %0, i64 %1) local_unnamed_addr #9 comdat align 2 {
  %3 = tail call %"class.std::vector.5"* @_ZNSt12_Vector_baseISt6vectorIxSaIxEESaIS2_EE11_M_allocateEm(%"struct.std::_Vector_base.1"* nonnull align 8 dereferenceable(24) %0, i64 %1) #20
  %4 = getelementptr inbounds %"struct.std::_Vector_base.1", %"struct.std::_Vector_base.1"* %0, i64 0, i32 0, i32 0, i32 0
  store %"class.std::vector.5"* %3, %"class.std::vector.5"** %4, align 8, !tbaa !25
  %5 = getelementptr inbounds %"struct.std::_Vector_base.1", %"struct.std::_Vector_base.1"* %0, i64 0, i32 0, i32 0, i32 1
  store %"class.std::vector.5"* %3, %"class.std::vector.5"** %5, align 8, !tbaa !34
  %6 = getelementptr inbounds %"class.std::vector.5", %"class.std::vector.5"* %3, i64 %1
  %7 = getelementptr inbounds %"struct.std::_Vector_base.1", %"struct.std::_Vector_base.1"* %0, i64 0, i32 0, i32 0, i32 2
  store %"class.std::vector.5"* %6, %"class.std::vector.5"** %7, align 8, !tbaa !57
  ret void
}

; Function Attrs: minsize mustprogress optsize sspstrong uwtable
define linkonce_odr dso_local %"class.std::vector.5"* @_ZNSt12_Vector_baseISt6vectorIxSaIxEESaIS2_EE11_M_allocateEm(%"struct.std::_Vector_base.1"* nonnull align 8 dereferenceable(24) %0, i64 %1) local_unnamed_addr #9 comdat align 2 {
  %3 = icmp eq i64 %1, 0
  br i1 %3, label %7, label %4

4:                                                ; preds = %2
  %5 = bitcast %"struct.std::_Vector_base.1"* %0 to %"class.std::allocator.2"*
  %6 = tail call %"class.std::vector.5"* @_ZNSt16allocator_traitsISaISt6vectorIxSaIxEEEE8allocateERS3_m(%"class.std::allocator.2"* nonnull align 1 dereferenceable(1) %5, i64 %1) #20
  br label %7

7:                                                ; preds = %2, %4
  %8 = phi %"class.std::vector.5"* [ %6, %4 ], [ null, %2 ]
  ret %"class.std::vector.5"* %8
}

; Function Attrs: minsize mustprogress optsize sspstrong uwtable
define linkonce_odr dso_local %"class.std::vector.5"* @_ZNSt16allocator_traitsISaISt6vectorIxSaIxEEEE8allocateERS3_m(%"class.std::allocator.2"* nonnull align 1 dereferenceable(1) %0, i64 %1) local_unnamed_addr #9 comdat align 2 {
  %3 = bitcast %"class.std::allocator.2"* %0 to %"class.__gnu_cxx::new_allocator.3"*
  %4 = tail call %"class.std::vector.5"* @_ZN9__gnu_cxx13new_allocatorISt6vectorIxSaIxEEE8allocateEmPKv(%"class.__gnu_cxx::new_allocator.3"* nonnull align 1 dereferenceable(1) %3, i64 %1, i8* null) #20
  ret %"class.std::vector.5"* %4
}

; Function Attrs: minsize mustprogress optsize sspstrong uwtable
define linkonce_odr dso_local %"class.std::vector.5"* @_ZN9__gnu_cxx13new_allocatorISt6vectorIxSaIxEEE8allocateEmPKv(%"class.__gnu_cxx::new_allocator.3"* nonnull align 1 dereferenceable(1) %0, i64 %1, i8* %2) local_unnamed_addr #9 comdat align 2 {
  %4 = icmp ugt i64 %1, 384307168202282325
  br i1 %4, label %5, label %9, !prof !37

5:                                                ; preds = %3
  %6 = icmp ugt i64 %1, 768614336404564650
  br i1 %6, label %7, label %8

7:                                                ; preds = %5
  tail call void @_ZSt28__throw_bad_array_new_lengthv() #24
  unreachable

8:                                                ; preds = %5
  tail call void @_ZSt17__throw_bad_allocv() #24
  unreachable

9:                                                ; preds = %3
  %10 = mul nuw nsw i64 %1, 24
  %11 = tail call noalias nonnull i8* @_Znwm(i64 %10) #25
  %12 = bitcast i8* %11 to %"class.std::vector.5"*
  ret %"class.std::vector.5"* %12
}

; Function Attrs: minsize mustprogress optsize sspstrong uwtable
define linkonce_odr dso_local %"class.std::vector.5"* @_ZNSt22__uninitialized_fill_nILb0EE15__uninit_fill_nIPSt6vectorIxSaIxEEmS4_EET_S6_T0_RKT1_(%"class.std::vector.5"* %0, i64 %1, %"class.std::vector.5"* nonnull align 8 dereferenceable(24) %2) local_unnamed_addr #9 comdat align 2 personality i8* bitcast (i32 (...)* @__gxx_personality_v0 to i8*) {
  br label %4

4:                                                ; preds = %9, %3
  %5 = phi i64 [ %1, %3 ], [ %10, %9 ]
  %6 = phi %"class.std::vector.5"* [ %0, %3 ], [ %11, %9 ]
  %7 = icmp eq i64 %5, 0
  br i1 %7, label %17, label %8

8:                                                ; preds = %4
  invoke void @_ZNSt6vectorIxSaIxEEC2ERKS1_(%"class.std::vector.5"* nonnull align 8 dereferenceable(24) %6, %"class.std::vector.5"* nonnull align 8 dereferenceable(24) %2) #20
          to label %9 unwind label %12

9:                                                ; preds = %8
  %10 = add i64 %5, -1
  %11 = getelementptr inbounds %"class.std::vector.5", %"class.std::vector.5"* %6, i64 1
  br label %4, !llvm.loop !58

12:                                               ; preds = %8
  %13 = landingpad { i8*, i32 }
          catch i8* null
  %14 = extractvalue { i8*, i32 } %13, 0
  %15 = tail call i8* @__cxa_begin_catch(i8* %14) #21
  invoke void @_ZNSt12_Destroy_auxILb0EE9__destroyIPSt6vectorIxSaIxEEEEvT_S6_(%"class.std::vector.5"* %0, %"class.std::vector.5"* %6) #20
          to label %16 unwind label %18

16:                                               ; preds = %12
  invoke void @__cxa_rethrow() #26
          to label %24 unwind label %18

17:                                               ; preds = %4
  ret %"class.std::vector.5"* %6

18:                                               ; preds = %12, %16
  %19 = landingpad { i8*, i32 }
          cleanup
  invoke void @__cxa_end_catch()
          to label %20 unwind label %21

20:                                               ; preds = %18
  resume { i8*, i32 } %19

21:                                               ; preds = %18
  %22 = landingpad { i8*, i32 }
          catch i8* null
  %23 = extractvalue { i8*, i32 } %22, 0
  tail call void @__clang_call_terminate(i8* %23) #23
  unreachable

24:                                               ; preds = %16
  unreachable
}

declare void @__cxa_rethrow() local_unnamed_addr

declare void @__cxa_end_catch() local_unnamed_addr

; Function Attrs: minsize optsize sspstrong uwtable
define linkonce_odr dso_local void @_ZNSt6vectorIxSaIxEEC2ERKS1_(%"class.std::vector.5"* nonnull align 8 dereferenceable(24) %0, %"class.std::vector.5"* nonnull align 8 dereferenceable(24) %1) unnamed_addr #5 comdat align 2 personality i8* bitcast (i32 (...)* @__gxx_personality_v0 to i8*) {
  %3 = getelementptr inbounds %"class.std::vector.5", %"class.std::vector.5"* %0, i64 0, i32 0
  %4 = getelementptr inbounds %"class.std::vector.5", %"class.std::vector.5"* %1, i64 0, i32 0, i32 0, i32 0, i32 1
  %5 = load i64*, i64** %4, align 8, !tbaa !54
  %6 = getelementptr inbounds %"class.std::vector.5", %"class.std::vector.5"* %1, i64 0, i32 0, i32 0, i32 0, i32 0
  %7 = load i64*, i64** %6, align 8, !tbaa !27
  %8 = ptrtoint i64* %5 to i64
  %9 = ptrtoint i64* %7 to i64
  %10 = sub i64 %8, %9
  %11 = ashr exact i64 %10, 3
  %12 = bitcast %"class.std::vector.5"* %0 to i8*
  tail call void @llvm.memset.p0i8.i64(i8* noundef nonnull align 8 dereferenceable(24) %12, i8 0, i64 24, i1 false) #21
  tail call void @_ZNSt12_Vector_baseIxSaIxEE17_M_create_storageEm(%"struct.std::_Vector_base.6"* nonnull align 8 dereferenceable(24) %3, i64 %11) #20
  %13 = load i64*, i64** %6, align 8, !tbaa !15
  %14 = load i64*, i64** %4, align 8, !tbaa !15
  %15 = getelementptr inbounds %"class.std::vector.5", %"class.std::vector.5"* %0, i64 0, i32 0, i32 0, i32 0, i32 0
  %16 = load i64*, i64** %15, align 8, !tbaa !27
  %17 = ptrtoint i64* %14 to i64
  %18 = ptrtoint i64* %13 to i64
  %19 = sub i64 %17, %18
  %20 = icmp eq i64 %19, 0
  br i1 %20, label %24, label %21

21:                                               ; preds = %2
  %22 = bitcast i64* %16 to i8*
  %23 = bitcast i64* %13 to i8*
  tail call void @llvm.memmove.p0i8.p0i8.i64(i8* align 8 %22, i8* align 8 %23, i64 %19, i1 false) #21
  br label %24

24:                                               ; preds = %21, %2
  %25 = ashr exact i64 %19, 3
  %26 = getelementptr inbounds i64, i64* %16, i64 %25
  %27 = getelementptr inbounds %"class.std::vector.5", %"class.std::vector.5"* %0, i64 0, i32 0, i32 0, i32 0, i32 1
  store i64* %26, i64** %27, align 8, !tbaa !54
  ret void
}

; Function Attrs: minsize optsize sspstrong uwtable
define linkonce_odr dso_local void @_ZNSt12_Destroy_auxILb0EE9__destroyIPSt6vectorIxSaIxEEEEvT_S6_(%"class.std::vector.5"* %0, %"class.std::vector.5"* %1) local_unnamed_addr #5 comdat align 2 personality i32 (...)* @__gxx_personality_v0 {
  br label %3

3:                                                ; preds = %6, %2
  %4 = phi %"class.std::vector.5"* [ %0, %2 ], [ %8, %6 ]
  %5 = icmp eq %"class.std::vector.5"* %4, %1
  br i1 %5, label %9, label %6

6:                                                ; preds = %3
  %7 = getelementptr inbounds %"class.std::vector.5", %"class.std::vector.5"* %4, i64 0, i32 0
  tail call void @_ZNSt12_Vector_baseIxSaIxEED2Ev(%"struct.std::_Vector_base.6"* nonnull align 8 dereferenceable(24) %7) #22
  %8 = getelementptr inbounds %"class.std::vector.5", %"class.std::vector.5"* %4, i64 1
  br label %3, !llvm.loop !59

9:                                                ; preds = %3
  ret void
}

; Function Attrs: minsize optsize sspstrong uwtable
define internal void @_GLOBAL__sub_I_s133917870.cpp() #5 section ".text.startup" {
  tail call void @_ZNSt8ios_base4InitC1Ev(%"class.std::ios_base::Init"* nonnull align 1 dereferenceable(1) @_ZStL8__ioinit) #20
  %1 = tail call i32 @__cxa_atexit(void (i8*)* bitcast (void (%"class.std::ios_base::Init"*)* @_ZNSt8ios_base4InitD1Ev to void (i8*)*), i8* getelementptr inbounds (%"class.std::ios_base::Init", %"class.std::ios_base::Init"* @_ZStL8__ioinit, i64 0, i32 0), i8* nonnull @__dso_handle) #21
  ret void
}

; Function Attrs: argmemonly nofree nounwind willreturn writeonly
declare void @llvm.memset.p0i8.i64(i8* nocapture writeonly, i8, i64, i1 immarg) #18

; Function Attrs: nofree nosync nounwind readnone speculatable willreturn
declare i32 @llvm.smax.i32(i32, i32) #19

attributes #0 = { minsize optsize "frame-pointer"="none" "no-trapping-math"="true" "stack-protector-buffer-size"="8" "target-cpu"="x86-64" "target-features"="+cx8,+fxsr,+mmx,+sse,+sse2,+x87" "tune-cpu"="generic" }
attributes #1 = { minsize nounwind optsize "frame-pointer"="none" "no-trapping-math"="true" "stack-protector-buffer-size"="8" "target-cpu"="x86-64" "target-features"="+cx8,+fxsr,+mmx,+sse,+sse2,+x87" "tune-cpu"="generic" }
attributes #2 = { nofree nounwind }
attributes #3 = { minsize norecurse optsize sspstrong uwtable "frame-pointer"="none" "min-legal-vector-width"="0" "no-trapping-math"="true" "stack-protector-buffer-size"="8" "target-cpu"="x86-64" "target-features"="+cx8,+fxsr,+mmx,+sse,+sse2,+x87" "tune-cpu"="generic" }
attributes #4 = { argmemonly mustprogress nofree nosync nounwind willreturn }
attributes #5 = { minsize optsize sspstrong uwtable "frame-pointer"="none" "min-legal-vector-width"="0" "no-trapping-math"="true" "stack-protector-buffer-size"="8" "target-cpu"="x86-64" "target-features"="+cx8,+fxsr,+mmx,+sse,+sse2,+x87" "tune-cpu"="generic" }
attributes #6 = { minsize mustprogress nounwind optsize sspstrong uwtable "frame-pointer"="none" "min-legal-vector-width"="0" "no-trapping-math"="true" "stack-protector-buffer-size"="8" "target-cpu"="x86-64" "target-features"="+cx8,+fxsr,+mmx,+sse,+sse2,+x87" "tune-cpu"="generic" }
attributes #7 = { minsize nounwind optsize sspstrong uwtable "frame-pointer"="none" "min-legal-vector-width"="0" "no-trapping-math"="true" "stack-protector-buffer-size"="8" "target-cpu"="x86-64" "target-features"="+cx8,+fxsr,+mmx,+sse,+sse2,+x87" "tune-cpu"="generic" }
attributes #8 = { minsize mustprogress nofree nounwind optsize willreturn "frame-pointer"="none" "no-trapping-math"="true" "stack-protector-buffer-size"="8" "target-cpu"="x86-64" "target-features"="+cx8,+fxsr,+mmx,+sse,+sse2,+x87" "tune-cpu"="generic" }
attributes #9 = { minsize mustprogress optsize sspstrong uwtable "frame-pointer"="none" "min-legal-vector-width"="0" "no-trapping-math"="true" "stack-protector-buffer-size"="8" "target-cpu"="x86-64" "target-features"="+cx8,+fxsr,+mmx,+sse,+sse2,+x87" "tune-cpu"="generic" }
attributes #10 = { minsize noreturn optsize "frame-pointer"="none" "no-trapping-math"="true" "stack-protector-buffer-size"="8" "target-cpu"="x86-64" "target-features"="+cx8,+fxsr,+mmx,+sse,+sse2,+x87" "tune-cpu"="generic" }
attributes #11 = { noinline noreturn nounwind }
attributes #12 = { minsize nobuiltin optsize allocsize(0) "frame-pointer"="none" "no-trapping-math"="true" "stack-protector-buffer-size"="8" "target-cpu"="x86-64" "target-features"="+cx8,+fxsr,+mmx,+sse,+sse2,+x87" "tune-cpu"="generic" }
attributes #13 = { inlinehint minsize mustprogress optsize sspstrong uwtable "frame-pointer"="none" "min-legal-vector-width"="0" "no-trapping-math"="true" "stack-protector-buffer-size"="8" "target-cpu"="x86-64" "target-features"="+cx8,+fxsr,+mmx,+sse,+sse2,+x87" "tune-cpu"="generic" }
attributes #14 = { argmemonly mustprogress nofree nounwind willreturn }
attributes #15 = { minsize nobuiltin nounwind optsize "frame-pointer"="none" "no-trapping-math"="true" "stack-protector-buffer-size"="8" "target-cpu"="x86-64" "target-features"="+cx8,+fxsr,+mmx,+sse,+sse2,+x87" "tune-cpu"="generic" }
attributes #16 = { inlinehint minsize optsize sspstrong uwtable "frame-pointer"="none" "min-legal-vector-width"="0" "no-trapping-math"="true" "stack-protector-buffer-size"="8" "target-cpu"="x86-64" "target-features"="+cx8,+fxsr,+mmx,+sse,+sse2,+x87" "tune-cpu"="generic" }
attributes #17 = { mustprogress nofree nosync nounwind readnone speculatable willreturn }
attributes #18 = { argmemonly nofree nounwind willreturn writeonly }
attributes #19 = { nofree nosync nounwind readnone speculatable willreturn }
attributes #20 = { minsize optsize }
attributes #21 = { nounwind }
attributes #22 = { minsize nounwind optsize }
attributes #23 = { noreturn nounwind }
attributes #24 = { minsize noreturn optsize }
attributes #25 = { minsize optsize allocsize(0) }
attributes #26 = { noreturn }

!llvm.module.flags = !{!0, !1, !2, !3}
!llvm.ident = !{!4}

!0 = !{i32 1, !"wchar_size", i32 4}
!1 = !{i32 7, !"PIC Level", i32 2}
!2 = !{i32 7, !"PIE Level", i32 2}
!3 = !{i32 7, !"uwtable", i32 1}
!4 = !{!"clang version 13.0.0"}
!5 = !{!6, !6, i64 0}
!6 = !{!"vtable pointer", !7, i64 0}
!7 = !{!"Simple C++ TBAA"}
!8 = !{!9, !10, i64 216}
!9 = !{!"_ZTSSt9basic_iosIcSt11char_traitsIcEE", !10, i64 216, !11, i64 224, !12, i64 225, !10, i64 232, !10, i64 240, !10, i64 248, !10, i64 256}
!10 = !{!"any pointer", !11, i64 0}
!11 = !{!"omnipotent char", !7, i64 0}
!12 = !{!"bool", !11, i64 0}
!13 = !{!14, !14, i64 0}
!14 = !{!"int", !11, i64 0}
!15 = !{!10, !10, i64 0}
!16 = !{!17, !10, i64 0}
!17 = !{!"_ZTSNSt12_Vector_baseI4DataSaIS0_EE17_Vector_impl_dataE", !10, i64 0, !10, i64 8, !10, i64 16}
!18 = distinct !{!18, !19}
!19 = !{!"llvm.loop.mustprogress"}
!20 = !{!21, !22, i64 0}
!21 = !{!"_ZTS4Data", !22, i64 0, !22, i64 8}
!22 = !{!"long long", !11, i64 0}
!23 = distinct !{!23, !19}
!24 = !{!22, !22, i64 0}
!25 = !{!26, !10, i64 0}
!26 = !{!"_ZTSNSt12_Vector_baseISt6vectorIxSaIxEESaIS2_EE17_Vector_impl_dataE", !10, i64 0, !10, i64 8, !10, i64 16}
!27 = !{!28, !10, i64 0}
!28 = !{!"_ZTSNSt12_Vector_baseIxSaIxEE17_Vector_impl_dataE", !10, i64 0, !10, i64 8, !10, i64 16}
!29 = distinct !{!29, !19}
!30 = !{!21, !22, i64 8}
!31 = distinct !{!31, !19}
!32 = distinct !{!32, !19}
!33 = distinct !{!33, !19}
!34 = !{!26, !10, i64 8}
!35 = !{!17, !10, i64 8}
!36 = !{!17, !10, i64 16}
!37 = !{!"branch_weights", i32 1, i32 2000}
!38 = !{i64 0, i64 8, !24, i64 8, i64 8, !24}
!39 = distinct !{!39, !19}
!40 = !{i64 0, i64 65}
!41 = distinct !{!41, !19}
!42 = distinct !{!42, !19}
!43 = distinct !{!43, !19}
!44 = !{i64 0, i64 8, !24}
!45 = distinct !{!45, !19}
!46 = distinct !{!46, !19}
!47 = distinct !{!47, !19}
!48 = distinct !{!48, !19}
!49 = distinct !{!49, !19}
!50 = distinct !{!50, !19}
!51 = distinct !{!51, !19}
!52 = distinct !{!52, !19}
!53 = distinct !{!53, !19}
!54 = !{!28, !10, i64 8}
!55 = !{!28, !10, i64 16}
!56 = distinct !{!56, !19}
!57 = !{!26, !10, i64 16}
!58 = distinct !{!58, !19}
!59 = distinct !{!59, !19}
