; ModuleID = 'Project_CodeNet_C++1400/p02750/s332710513.cpp'
source_filename = "Project_CodeNet_C++1400/p02750/s332710513.cpp"
target datalayout = "e-m:e-p270:32:32-p271:32:32-p272:64:64-i64:64-f80:128-n8:16:32:64-S128"
target triple = "x86_64-pc-linux-gnu"

%"class.std::ios_base::Init" = type { i8 }
%"class.std::basic_ostream" = type { i32 (...)**, %"class.std::basic_ios" }
%"class.std::basic_ios" = type { %"class.std::ios_base", %"class.std::basic_ostream"*, i8, i8, %"class.std::basic_streambuf"*, %"class.std::ctype"*, %"class.std::num_put"*, %"class.std::num_get"* }
%"class.std::ios_base" = type { i32 (...)**, i64, i64, i32, i32, i32, %"struct.std::ios_base::_Callback_list"*, %"struct.std::ios_base::_Words", [8 x %"struct.std::ios_base::_Words"], i32, %"struct.std::ios_base::_Words"*, %"class.std::locale" }
%"struct.std::ios_base::_Callback_list" = type { %"struct.std::ios_base::_Callback_list"*, void (i32, %"class.std::ios_base"*, i32)*, i32, i32 }
%"struct.std::ios_base::_Words" = type { i8*, i64 }
%"class.std::locale" = type { %"class.std::locale::_Impl"* }
%"class.std::locale::_Impl" = type { i32, %"class.std::locale::facet"**, i64, %"class.std::locale::facet"**, i8** }
%"class.std::locale::facet" = type <{ i32 (...)**, i32, [4 x i8] }>
%"class.std::basic_streambuf" = type { i32 (...)**, i8*, i8*, i8*, i8*, i8*, i8*, %"class.std::locale" }
%"class.std::ctype" = type <{ %"class.std::locale::facet.base", [4 x i8], %struct.__locale_struct*, i8, [7 x i8], i32*, i32*, i16*, i8, [256 x i8], [256 x i8], i8, [6 x i8] }>
%"class.std::locale::facet.base" = type <{ i32 (...)**, i32 }>
%struct.__locale_struct = type { [13 x %struct.__locale_data*], i16*, i32*, i32*, [13 x i8*] }
%struct.__locale_data = type opaque
%"class.std::num_put" = type { %"class.std::locale::facet.base", [4 x i8] }
%"class.std::num_get" = type { %"class.std::locale::facet.base", [4 x i8] }
%"class.std::basic_istream" = type { i32 (...)**, i64, %"class.std::basic_ios" }
%"class.std::vector" = type { %"struct.std::_Vector_base" }
%"struct.std::_Vector_base" = type { %"struct.std::_Vector_base<Market, std::allocator<Market>>::_Vector_impl" }
%"struct.std::_Vector_base<Market, std::allocator<Market>>::_Vector_impl" = type { %"struct.std::_Vector_base<Market, std::allocator<Market>>::_Vector_impl_data" }
%"struct.std::_Vector_base<Market, std::allocator<Market>>::_Vector_impl_data" = type { %struct.Market*, %struct.Market*, %struct.Market* }
%struct.Market = type { i64, i64 }
%"class.std::vector.0" = type { %"struct.std::_Vector_base.1" }
%"struct.std::_Vector_base.1" = type { %"struct.std::_Vector_base<long long, std::allocator<long long>>::_Vector_impl" }
%"struct.std::_Vector_base<long long, std::allocator<long long>>::_Vector_impl" = type { %"struct.std::_Vector_base<long long, std::allocator<long long>>::_Vector_impl_data" }
%"struct.std::_Vector_base<long long, std::allocator<long long>>::_Vector_impl_data" = type { i64*, i64*, i64* }
%"class.std::allocator.2" = type { i8 }
%"class.std::allocator" = type { i8 }
%"class.__gnu_cxx::new_allocator" = type { i8 }
%"struct.__gnu_cxx::__ops::_Iter_less_iter" = type { i8 }
%"struct.__gnu_cxx::__ops::_Iter_less_val" = type { i8 }
%"class.__gnu_cxx::new_allocator.3" = type { i8 }

$_ZNSt6vectorI6MarketSaIS0_EE9push_backERKS0_ = comdat any

$_ZNSt6vectorIxSaIxEEC2EmRKxRKS0_ = comdat any

$_ZNSt6vectorI6MarketSaIS0_EEC2EmRKS1_ = comdat any

$_ZNSt12_Vector_baseI6MarketSaIS0_EED2Ev = comdat any

$_ZNSt6vectorI6MarketSaIS0_EE17_M_realloc_insertIJRKS0_EEEvN9__gnu_cxx17__normal_iteratorIPS0_S2_EEDpOT_ = comdat any

$_ZNKSt6vectorI6MarketSaIS0_EE12_M_check_lenEmPKc = comdat any

$_ZNSt12_Vector_baseI6MarketSaIS0_EE11_M_allocateEm = comdat any

$_ZNSt16allocator_traitsISaI6MarketEE8allocateERS1_m = comdat any

$_ZN9__gnu_cxx13new_allocatorI6MarketE8allocateEmPKv = comdat any

$_ZSt6__sortIN9__gnu_cxx17__normal_iteratorIP6MarketSt6vectorIS2_SaIS2_EEEENS0_5__ops15_Iter_less_iterEEvT_SA_T0_ = comdat any

$_ZSt16__introsort_loopIN9__gnu_cxx17__normal_iteratorIP6MarketSt6vectorIS2_SaIS2_EEEElNS0_5__ops15_Iter_less_iterEEvT_SA_T0_T1_ = comdat any

$_ZSt22__final_insertion_sortIN9__gnu_cxx17__normal_iteratorIP6MarketSt6vectorIS2_SaIS2_EEEENS0_5__ops15_Iter_less_iterEEvT_SA_T0_ = comdat any

$_ZSt14__partial_sortIN9__gnu_cxx17__normal_iteratorIP6MarketSt6vectorIS2_SaIS2_EEEENS0_5__ops15_Iter_less_iterEEvT_SA_SA_T0_ = comdat any

$_ZSt27__unguarded_partition_pivotIN9__gnu_cxx17__normal_iteratorIP6MarketSt6vectorIS2_SaIS2_EEEENS0_5__ops15_Iter_less_iterEET_SA_SA_T0_ = comdat any

$_ZSt13__heap_selectIN9__gnu_cxx17__normal_iteratorIP6MarketSt6vectorIS2_SaIS2_EEEENS0_5__ops15_Iter_less_iterEEvT_SA_SA_T0_ = comdat any

$_ZSt11__sort_heapIN9__gnu_cxx17__normal_iteratorIP6MarketSt6vectorIS2_SaIS2_EEEENS0_5__ops15_Iter_less_iterEEvT_SA_RT0_ = comdat any

$_ZSt11__make_heapIN9__gnu_cxx17__normal_iteratorIP6MarketSt6vectorIS2_SaIS2_EEEENS0_5__ops15_Iter_less_iterEEvT_SA_RT0_ = comdat any

$_ZSt10__pop_heapIN9__gnu_cxx17__normal_iteratorIP6MarketSt6vectorIS2_SaIS2_EEEENS0_5__ops15_Iter_less_iterEEvT_SA_SA_RT0_ = comdat any

$_ZSt13__adjust_heapIN9__gnu_cxx17__normal_iteratorIP6MarketSt6vectorIS2_SaIS2_EEEElS2_NS0_5__ops15_Iter_less_iterEEvT_T0_SB_T1_T2_ = comdat any

$_ZSt11__push_heapIN9__gnu_cxx17__normal_iteratorIP6MarketSt6vectorIS2_SaIS2_EEEElS2_NS0_5__ops14_Iter_less_valEEvT_T0_SB_T1_RT2_ = comdat any

$_ZNK6MarketltERKS_ = comdat any

$_ZSt22__move_median_to_firstIN9__gnu_cxx17__normal_iteratorIP6MarketSt6vectorIS2_SaIS2_EEEENS0_5__ops15_Iter_less_iterEEvT_SA_SA_SA_T0_ = comdat any

$_ZSt21__unguarded_partitionIN9__gnu_cxx17__normal_iteratorIP6MarketSt6vectorIS2_SaIS2_EEEENS0_5__ops15_Iter_less_iterEET_SA_SA_SA_T0_ = comdat any

$_ZSt16__insertion_sortIN9__gnu_cxx17__normal_iteratorIP6MarketSt6vectorIS2_SaIS2_EEEENS0_5__ops15_Iter_less_iterEEvT_SA_T0_ = comdat any

$_ZSt26__unguarded_insertion_sortIN9__gnu_cxx17__normal_iteratorIP6MarketSt6vectorIS2_SaIS2_EEEENS0_5__ops15_Iter_less_iterEEvT_SA_T0_ = comdat any

$_ZSt25__unguarded_linear_insertIN9__gnu_cxx17__normal_iteratorIP6MarketSt6vectorIS2_SaIS2_EEEENS0_5__ops14_Val_less_iterEEvT_T0_ = comdat any

$_ZNSt6vectorIxSaIxEE17_S_check_init_lenEmRKS0_ = comdat any

$_ZNSt6vectorIxSaIxEE18_M_fill_initializeEmRKx = comdat any

$_ZNSt12_Vector_baseIxSaIxEED2Ev = comdat any

$_ZNSt12_Vector_baseIxSaIxEE17_M_create_storageEm = comdat any

$_ZNSt12_Vector_baseIxSaIxEE11_M_allocateEm = comdat any

$_ZNSt16allocator_traitsISaIxEE8allocateERS0_m = comdat any

$_ZN9__gnu_cxx13new_allocatorIxE8allocateEmPKv = comdat any

$_ZSt10__fill_n_aIPxmxET_S1_T0_RKT1_St26random_access_iterator_tag = comdat any

$_ZNSt6vectorI6MarketSaIS0_EE17_S_check_init_lenEmRKS1_ = comdat any

$_ZNSt6vectorI6MarketSaIS0_EE21_M_default_initializeEm = comdat any

$_ZNSt12_Vector_baseI6MarketSaIS0_EE17_M_create_storageEm = comdat any

$_ZNSt27__uninitialized_default_n_1ILb1EE18__uninit_default_nIP6MarketmEET_S4_T0_ = comdat any

$_ZSt10__fill_n_aIP6MarketmS0_ET_S2_T0_RKT1_St26random_access_iterator_tag = comdat any

@_ZStL8__ioinit = internal global %"class.std::ios_base::Init" zeroinitializer, align 1
@__dso_handle = external hidden global i8
@_ZSt4cout = external global %"class.std::basic_ostream", align 8
@_ZSt3cin = external global %"class.std::basic_istream", align 8
@.str = private unnamed_addr constant [26 x i8] c"vector::_M_realloc_insert\00", align 1
@.str.1 = private unnamed_addr constant [49 x i8] c"cannot create std::vector larger than max_size()\00", align 1
@llvm.global_ctors = appending global [1 x { i32, void ()*, i8* }] [{ i32, void ()*, i8* } { i32 65535, void ()* @_GLOBAL__sub_I_s332710513.cpp, i8* null }]

; Function Attrs: minsize optsize
declare void @_ZNSt8ios_base4InitC1Ev(%"class.std::ios_base::Init"* nonnull align 1 dereferenceable(1)) unnamed_addr #0

; Function Attrs: minsize nounwind optsize
declare void @_ZNSt8ios_base4InitD1Ev(%"class.std::ios_base::Init"* nonnull align 1 dereferenceable(1)) unnamed_addr #1

; Function Attrs: nofree nounwind
declare i32 @__cxa_atexit(void (i8*)*, i8*, i8*) local_unnamed_addr #2

; Function Attrs: minsize optsize sspstrong uwtable
define dso_local void @_Z5solvexSt6vectorI6MarketSaIS0_EE(i64 %0, %"class.std::vector"* nocapture readonly %1) local_unnamed_addr #3 personality i8* bitcast (i32 (...)* @__gxx_personality_v0 to i8*) {
  %3 = alloca %"class.std::vector", align 8
  %4 = alloca %"class.std::vector", align 8
  %5 = alloca %struct.Market, align 8
  %6 = alloca %"class.std::vector.0", align 8
  %7 = alloca i64, align 8
  %8 = alloca %"class.std::allocator.2", align 1
  %9 = bitcast %"class.std::vector"* %3 to i8*
  call void @llvm.lifetime.start.p0i8(i64 24, i8* nonnull %9) #18
  call void @llvm.memset.p0i8.i64(i8* noundef nonnull align 8 dereferenceable(24) %9, i8 0, i64 24, i1 false) #18
  %10 = bitcast %"class.std::vector"* %4 to i8*
  call void @llvm.lifetime.start.p0i8(i64 24, i8* nonnull %10) #18
  call void @llvm.memset.p0i8.i64(i8* noundef nonnull align 8 dereferenceable(24) %10, i8 0, i64 24, i1 false) #18
  %11 = getelementptr inbounds %"class.std::vector", %"class.std::vector"* %1, i64 0, i32 0, i32 0, i32 0, i32 0
  %12 = load %struct.Market*, %struct.Market** %11, align 8, !tbaa !5
  %13 = getelementptr inbounds %"class.std::vector", %"class.std::vector"* %1, i64 0, i32 0, i32 0, i32 0, i32 1
  %14 = load %struct.Market*, %struct.Market** %13, align 8, !tbaa !5
  %15 = bitcast %struct.Market* %5 to i8*
  %16 = getelementptr inbounds %struct.Market, %struct.Market* %5, i64 0, i32 0
  br label %17

17:                                               ; preds = %33, %2
  %18 = phi %struct.Market* [ %12, %2 ], [ %34, %33 ]
  %19 = icmp eq %struct.Market* %18, %14
  br i1 %19, label %20, label %25

20:                                               ; preds = %17
  %21 = getelementptr inbounds %"class.std::vector", %"class.std::vector"* %3, i64 0, i32 0, i32 0, i32 0, i32 0
  %22 = load %struct.Market*, %struct.Market** %21, align 8, !tbaa !5
  %23 = getelementptr inbounds %"class.std::vector", %"class.std::vector"* %3, i64 0, i32 0, i32 0, i32 0, i32 1
  %24 = load %struct.Market*, %struct.Market** %23, align 8, !tbaa !5
  invoke void @_ZSt6__sortIN9__gnu_cxx17__normal_iteratorIP6MarketSt6vectorIS2_SaIS2_EEEENS0_5__ops15_Iter_less_iterEEvT_SA_T0_(%struct.Market* %22, %struct.Market* %24) #19
          to label %35 unwind label %56

25:                                               ; preds = %17
  call void @llvm.lifetime.start.p0i8(i64 16, i8* nonnull %15) #18
  %26 = bitcast %struct.Market* %18 to i8*
  call void @llvm.memcpy.p0i8.p0i8.i64(i8* noundef nonnull align 8 dereferenceable(16) %15, i8* noundef nonnull align 8 dereferenceable(16) %26, i64 16, i1 false), !tbaa.struct !9
  %27 = load i64, i64* %16, align 8, !tbaa !12
  %28 = icmp eq i64 %27, 0
  br i1 %28, label %29, label %32

29:                                               ; preds = %25
  invoke void @_ZNSt6vectorI6MarketSaIS0_EE9push_backERKS0_(%"class.std::vector"* nonnull align 8 dereferenceable(24) %4, %struct.Market* nonnull align 8 dereferenceable(16) %5) #19
          to label %33 unwind label %30

30:                                               ; preds = %32, %29
  %31 = landingpad { i8*, i32 }
          cleanup
  call void @llvm.lifetime.end.p0i8(i64 16, i8* nonnull %15) #18
  br label %161

32:                                               ; preds = %25
  invoke void @_ZNSt6vectorI6MarketSaIS0_EE9push_backERKS0_(%"class.std::vector"* nonnull align 8 dereferenceable(24) %3, %struct.Market* nonnull align 8 dereferenceable(16) %5) #19
          to label %33 unwind label %30

33:                                               ; preds = %32, %29
  call void @llvm.lifetime.end.p0i8(i64 16, i8* nonnull %15) #18
  %34 = getelementptr inbounds %struct.Market, %struct.Market* %18, i64 1
  br label %17

35:                                               ; preds = %20
  %36 = getelementptr inbounds %"class.std::vector", %"class.std::vector"* %4, i64 0, i32 0, i32 0, i32 0, i32 0
  %37 = load %struct.Market*, %struct.Market** %36, align 8, !tbaa !5
  %38 = getelementptr inbounds %"class.std::vector", %"class.std::vector"* %4, i64 0, i32 0, i32 0, i32 0, i32 1
  %39 = load %struct.Market*, %struct.Market** %38, align 8, !tbaa !5
  invoke void @_ZSt6__sortIN9__gnu_cxx17__normal_iteratorIP6MarketSt6vectorIS2_SaIS2_EEEENS0_5__ops15_Iter_less_iterEEvT_SA_T0_(%struct.Market* %37, %struct.Market* %39) #19
          to label %40 unwind label %56

40:                                               ; preds = %35
  %41 = bitcast %"class.std::vector.0"* %6 to i8*
  call void @llvm.lifetime.start.p0i8(i64 24, i8* nonnull %41) #18
  %42 = bitcast i64* %7 to i8*
  call void @llvm.lifetime.start.p0i8(i64 8, i8* nonnull %42) #18
  store i64 2147483647, i64* %7, align 8, !tbaa !10
  %43 = getelementptr inbounds %"class.std::allocator.2", %"class.std::allocator.2"* %8, i64 0, i32 0
  call void @llvm.lifetime.start.p0i8(i64 1, i8* nonnull %43) #18
  invoke void @_ZNSt6vectorIxSaIxEEC2EmRKxRKS0_(%"class.std::vector.0"* nonnull align 8 dereferenceable(24) %6, i64 34, i64* nonnull align 8 dereferenceable(8) %7, %"class.std::allocator.2"* nonnull align 1 dereferenceable(1) %8) #19
          to label %44 unwind label %58

44:                                               ; preds = %40
  call void @llvm.lifetime.end.p0i8(i64 1, i8* nonnull %43) #18
  call void @llvm.lifetime.end.p0i8(i64 8, i8* nonnull %42) #18
  %45 = getelementptr inbounds %"class.std::vector.0", %"class.std::vector.0"* %6, i64 0, i32 0, i32 0, i32 0, i32 0
  %46 = load i64*, i64** %45, align 8, !tbaa !14
  store i64 0, i64* %46, align 8, !tbaa !10
  %47 = load %struct.Market*, %struct.Market** %23, align 8, !tbaa !16
  %48 = load %struct.Market*, %struct.Market** %21, align 8, !tbaa !18
  %49 = ptrtoint %struct.Market* %47 to i64
  %50 = ptrtoint %struct.Market* %48 to i64
  %51 = sub i64 %49, %50
  %52 = ashr exact i64 %51, 4
  br label %53

53:                                               ; preds = %94, %44
  %54 = phi i64 [ %95, %94 ], [ 0, %44 ]
  %55 = icmp eq i64 %54, %52
  br i1 %55, label %96, label %60

56:                                               ; preds = %35, %20
  %57 = landingpad { i8*, i32 }
          cleanup
  br label %161

58:                                               ; preds = %40
  %59 = landingpad { i8*, i32 }
          cleanup
  call void @llvm.lifetime.end.p0i8(i64 1, i8* nonnull %43) #18
  call void @llvm.lifetime.end.p0i8(i64 8, i8* nonnull %42) #18
  br label %159

60:                                               ; preds = %53, %68
  %61 = phi i32 [ %69, %68 ], [ 32, %53 ]
  %62 = icmp sgt i32 %61, -1
  br i1 %62, label %63, label %70

63:                                               ; preds = %60
  %64 = zext i32 %61 to i64
  %65 = getelementptr inbounds i64, i64* %46, i64 %64
  %66 = load i64, i64* %65, align 8, !tbaa !10
  %67 = icmp slt i64 %66, %0
  br i1 %67, label %70, label %68

68:                                               ; preds = %63
  %69 = add nsw i32 %61, -1
  br label %60, !llvm.loop !19

70:                                               ; preds = %60, %63
  %71 = phi i32 [ -1, %60 ], [ %61, %63 ]
  %72 = getelementptr inbounds %struct.Market, %struct.Market* %48, i64 %54, i32 0
  %73 = getelementptr inbounds %struct.Market, %struct.Market* %48, i64 %54, i32 1
  br label %74

74:                                               ; preds = %92, %70
  %75 = phi i32 [ %71, %70 ], [ %93, %92 ]
  %76 = icmp sgt i32 %75, -1
  br i1 %76, label %77, label %94

77:                                               ; preds = %74
  %78 = zext i32 %75 to i64
  %79 = getelementptr inbounds i64, i64* %46, i64 %78
  %80 = load i64, i64* %79, align 8, !tbaa !10
  %81 = load i64, i64* %72, align 8, !tbaa !12
  %82 = mul nsw i64 %81, %80
  %83 = load i64, i64* %73, align 8, !tbaa !21
  %84 = add i64 %83, %80
  %85 = add i64 %84, %82
  %86 = add nuw nsw i32 %75, 1
  %87 = zext i32 %86 to i64
  %88 = getelementptr inbounds i64, i64* %46, i64 %87
  %89 = load i64, i64* %88, align 8, !tbaa !10
  %90 = icmp slt i64 %85, %89
  br i1 %90, label %91, label %92

91:                                               ; preds = %77
  store i64 %85, i64* %88, align 8, !tbaa !10
  br label %92

92:                                               ; preds = %77, %91
  %93 = add nsw i32 %75, -1
  br label %74, !llvm.loop !22

94:                                               ; preds = %74
  %95 = add nuw i64 %54, 1
  br label %53, !llvm.loop !23

96:                                               ; preds = %53, %108
  %97 = phi i64 [ %115, %108 ], [ 0, %53 ]
  %98 = phi i32 [ %113, %108 ], [ 0, %53 ]
  %99 = phi i32 [ %114, %108 ], [ 0, %53 ]
  %100 = icmp eq i64 %97, 33
  br i1 %100, label %101, label %108

101:                                              ; preds = %96
  %102 = load %struct.Market*, %struct.Market** %38, align 8, !tbaa !16
  %103 = load %struct.Market*, %struct.Market** %36, align 8, !tbaa !18
  %104 = ptrtoint %struct.Market* %102 to i64
  %105 = ptrtoint %struct.Market* %103 to i64
  %106 = sub i64 %104, %105
  %107 = ashr exact i64 %106, 4
  br label %116

108:                                              ; preds = %96
  %109 = getelementptr inbounds i64, i64* %46, i64 %97
  %110 = load i64, i64* %109, align 8, !tbaa !10
  %111 = icmp sgt i64 %110, %0
  %112 = trunc i64 %97 to i32
  %113 = select i1 %111, i32 %98, i32 %112
  %114 = select i1 %111, i32 %99, i32 %112
  %115 = add nuw nsw i64 %97, 1
  br label %96, !llvm.loop !24

116:                                              ; preds = %101, %140
  %117 = phi i64 [ 0, %101 ], [ %147, %140 ]
  %118 = phi i32 [ %98, %101 ], [ %146, %140 ]
  %119 = phi i32 [ %99, %101 ], [ %141, %140 ]
  %120 = phi i64 [ 0, %101 ], [ %125, %140 ]
  %121 = icmp eq i64 %117, %107
  br i1 %121, label %148, label %122

122:                                              ; preds = %116
  %123 = getelementptr inbounds %struct.Market, %struct.Market* %103, i64 %117, i32 1
  %124 = load i64, i64* %123, align 8, !tbaa !21
  %125 = add nsw i64 %124, %120
  %126 = icmp sgt i64 %125, %0
  br i1 %126, label %148, label %127

127:                                              ; preds = %122
  %128 = call i32 @llvm.smin.i32(i32 %119, i32 -1)
  br label %129

129:                                              ; preds = %127, %138
  %130 = phi i32 [ %139, %138 ], [ %119, %127 ]
  %131 = icmp sgt i32 %130, -1
  br i1 %131, label %132, label %140

132:                                              ; preds = %129
  %133 = zext i32 %130 to i64
  %134 = getelementptr inbounds i64, i64* %46, i64 %133
  %135 = load i64, i64* %134, align 8, !tbaa !10
  %136 = add nsw i64 %135, %125
  %137 = icmp sgt i64 %136, %0
  br i1 %137, label %138, label %140

138:                                              ; preds = %132
  %139 = add nsw i32 %130, -1
  br label %129, !llvm.loop !25

140:                                              ; preds = %129, %132
  %141 = phi i32 [ %128, %129 ], [ %130, %132 ]
  %142 = trunc i64 %117 to i32
  %143 = add nsw i32 %141, %142
  %144 = add nsw i32 %143, 1
  %145 = icmp sgt i32 %118, %143
  %146 = select i1 %145, i32 %118, i32 %144
  %147 = add nuw i64 %117, 1
  br label %116, !llvm.loop !26

148:                                              ; preds = %122, %116
  %149 = invoke nonnull align 8 dereferenceable(8) %"class.std::basic_ostream"* @_ZNSolsEi(%"class.std::basic_ostream"* nonnull align 8 dereferenceable(8) @_ZSt4cout, i32 %118) #19
          to label %150 unwind label %156

150:                                              ; preds = %148
  %151 = invoke nonnull align 8 dereferenceable(8) %"class.std::basic_ostream"* @_ZSt4endlIcSt11char_traitsIcEERSt13basic_ostreamIT_T0_ES6_(%"class.std::basic_ostream"* nonnull align 8 dereferenceable(8) %149) #19
          to label %152 unwind label %156

152:                                              ; preds = %150
  %153 = getelementptr inbounds %"class.std::vector.0", %"class.std::vector.0"* %6, i64 0, i32 0
  call void @_ZNSt12_Vector_baseIxSaIxEED2Ev(%"struct.std::_Vector_base.1"* nonnull align 8 dereferenceable(24) %153) #20
  call void @llvm.lifetime.end.p0i8(i64 24, i8* nonnull %41) #18
  %154 = getelementptr inbounds %"class.std::vector", %"class.std::vector"* %4, i64 0, i32 0
  call void @_ZNSt12_Vector_baseI6MarketSaIS0_EED2Ev(%"struct.std::_Vector_base"* nonnull align 8 dereferenceable(24) %154) #20
  call void @llvm.lifetime.end.p0i8(i64 24, i8* nonnull %10) #18
  %155 = getelementptr inbounds %"class.std::vector", %"class.std::vector"* %3, i64 0, i32 0
  call void @_ZNSt12_Vector_baseI6MarketSaIS0_EED2Ev(%"struct.std::_Vector_base"* nonnull align 8 dereferenceable(24) %155) #20
  call void @llvm.lifetime.end.p0i8(i64 24, i8* nonnull %9) #18
  ret void

156:                                              ; preds = %150, %148
  %157 = landingpad { i8*, i32 }
          cleanup
  %158 = getelementptr inbounds %"class.std::vector.0", %"class.std::vector.0"* %6, i64 0, i32 0
  call void @_ZNSt12_Vector_baseIxSaIxEED2Ev(%"struct.std::_Vector_base.1"* nonnull align 8 dereferenceable(24) %158) #20
  br label %159

159:                                              ; preds = %156, %58
  %160 = phi { i8*, i32 } [ %157, %156 ], [ %59, %58 ]
  call void @llvm.lifetime.end.p0i8(i64 24, i8* nonnull %41) #18
  br label %161

161:                                              ; preds = %159, %56, %30
  %162 = phi { i8*, i32 } [ %31, %30 ], [ %160, %159 ], [ %57, %56 ]
  %163 = getelementptr inbounds %"class.std::vector", %"class.std::vector"* %4, i64 0, i32 0
  call void @_ZNSt12_Vector_baseI6MarketSaIS0_EED2Ev(%"struct.std::_Vector_base"* nonnull align 8 dereferenceable(24) %163) #20
  call void @llvm.lifetime.end.p0i8(i64 24, i8* nonnull %10) #18
  %164 = getelementptr inbounds %"class.std::vector", %"class.std::vector"* %3, i64 0, i32 0
  call void @_ZNSt12_Vector_baseI6MarketSaIS0_EED2Ev(%"struct.std::_Vector_base"* nonnull align 8 dereferenceable(24) %164) #20
  call void @llvm.lifetime.end.p0i8(i64 24, i8* nonnull %9) #18
  resume { i8*, i32 } %162
}

; Function Attrs: argmemonly mustprogress nofree nosync nounwind willreturn
declare void @llvm.lifetime.start.p0i8(i64 immarg, i8* nocapture) #4

; Function Attrs: argmemonly mustprogress nofree nounwind willreturn
declare void @llvm.memcpy.p0i8.p0i8.i64(i8* noalias nocapture writeonly, i8* noalias nocapture readonly, i64, i1 immarg) #5

; Function Attrs: minsize optsize sspstrong uwtable
define linkonce_odr dso_local void @_ZNSt6vectorI6MarketSaIS0_EE9push_backERKS0_(%"class.std::vector"* nonnull align 8 dereferenceable(24) %0, %struct.Market* nonnull align 8 dereferenceable(16) %1) local_unnamed_addr #3 comdat align 2 {
  %3 = getelementptr inbounds %"class.std::vector", %"class.std::vector"* %0, i64 0, i32 0, i32 0, i32 0, i32 1
  %4 = load %struct.Market*, %struct.Market** %3, align 8, !tbaa !16
  %5 = getelementptr inbounds %"class.std::vector", %"class.std::vector"* %0, i64 0, i32 0, i32 0, i32 0, i32 2
  %6 = load %struct.Market*, %struct.Market** %5, align 8, !tbaa !27
  %7 = icmp eq %struct.Market* %4, %6
  br i1 %7, label %13, label %8

8:                                                ; preds = %2
  %9 = bitcast %struct.Market* %4 to i8*
  %10 = bitcast %struct.Market* %1 to i8*
  tail call void @llvm.memcpy.p0i8.p0i8.i64(i8* noundef nonnull align 8 dereferenceable(16) %9, i8* noundef nonnull align 8 dereferenceable(16) %10, i64 16, i1 false) #18, !tbaa.struct !9
  %11 = load %struct.Market*, %struct.Market** %3, align 8, !tbaa !16
  %12 = getelementptr inbounds %struct.Market, %struct.Market* %11, i64 1
  store %struct.Market* %12, %struct.Market** %3, align 8, !tbaa !16
  br label %14

13:                                               ; preds = %2
  tail call void @_ZNSt6vectorI6MarketSaIS0_EE17_M_realloc_insertIJRKS0_EEEvN9__gnu_cxx17__normal_iteratorIPS0_S2_EEDpOT_(%"class.std::vector"* nonnull align 8 dereferenceable(24) %0, %struct.Market* %4, %struct.Market* nonnull align 8 dereferenceable(16) %1) #19
  br label %14

14:                                               ; preds = %13, %8
  ret void
}

declare i32 @__gxx_personality_v0(...)

; Function Attrs: argmemonly mustprogress nofree nosync nounwind willreturn
declare void @llvm.lifetime.end.p0i8(i64 immarg, i8* nocapture) #4

; Function Attrs: minsize optsize sspstrong uwtable
define linkonce_odr dso_local void @_ZNSt6vectorIxSaIxEEC2EmRKxRKS0_(%"class.std::vector.0"* nonnull align 8 dereferenceable(24) %0, i64 %1, i64* nonnull align 8 dereferenceable(8) %2, %"class.std::allocator.2"* nonnull align 1 dereferenceable(1) %3) unnamed_addr #3 comdat align 2 personality i8* bitcast (i32 (...)* @__gxx_personality_v0 to i8*) {
  %5 = getelementptr inbounds %"class.std::vector.0", %"class.std::vector.0"* %0, i64 0, i32 0
  %6 = tail call i64 @_ZNSt6vectorIxSaIxEE17_S_check_init_lenEmRKS0_(i64 %1, %"class.std::allocator.2"* nonnull align 1 dereferenceable(1) %3) #19
  %7 = bitcast %"class.std::vector.0"* %0 to i8*
  tail call void @llvm.memset.p0i8.i64(i8* noundef nonnull align 8 dereferenceable(24) %7, i8 0, i64 24, i1 false) #18
  tail call void @_ZNSt12_Vector_baseIxSaIxEE17_M_create_storageEm(%"struct.std::_Vector_base.1"* nonnull align 8 dereferenceable(24) %5, i64 %6) #19
  invoke void @_ZNSt6vectorIxSaIxEE18_M_fill_initializeEmRKx(%"class.std::vector.0"* nonnull align 8 dereferenceable(24) %0, i64 %1, i64* nonnull align 8 dereferenceable(8) %2) #19
          to label %8 unwind label %9

8:                                                ; preds = %4
  ret void

9:                                                ; preds = %4
  %10 = landingpad { i8*, i32 }
          cleanup
  tail call void @_ZNSt12_Vector_baseIxSaIxEED2Ev(%"struct.std::_Vector_base.1"* nonnull align 8 dereferenceable(24) %5) #20
  resume { i8*, i32 } %10
}

; Function Attrs: minsize optsize
declare nonnull align 8 dereferenceable(8) %"class.std::basic_ostream"* @_ZNSolsEi(%"class.std::basic_ostream"* nonnull align 8 dereferenceable(8), i32) local_unnamed_addr #0

; Function Attrs: inlinehint minsize mustprogress optsize sspstrong uwtable
declare nonnull align 8 dereferenceable(8) %"class.std::basic_ostream"* @_ZSt4endlIcSt11char_traitsIcEERSt13basic_ostreamIT_T0_ES6_(%"class.std::basic_ostream"* nonnull align 8 dereferenceable(8)) local_unnamed_addr #6

; Function Attrs: minsize norecurse optsize sspstrong uwtable
define dso_local i32 @main() local_unnamed_addr #7 personality i8* bitcast (i32 (...)* @__gxx_personality_v0 to i8*) {
  %1 = alloca i64, align 8
  %2 = alloca i64, align 8
  %3 = alloca %"class.std::vector", align 16
  %4 = alloca %"class.std::allocator", align 1
  %5 = alloca %"class.std::vector", align 16
  %6 = bitcast i64* %1 to i8*
  call void @llvm.lifetime.start.p0i8(i64 8, i8* nonnull %6) #18
  %7 = call nonnull align 8 dereferenceable(16) %"class.std::basic_istream"* @_ZNSi10_M_extractIxEERSiRT_(%"class.std::basic_istream"* nonnull align 8 dereferenceable(16) @_ZSt3cin, i64* nonnull align 8 dereferenceable(8) %1) #19
  %8 = bitcast i64* %2 to i8*
  call void @llvm.lifetime.start.p0i8(i64 8, i8* nonnull %8) #18
  %9 = call nonnull align 8 dereferenceable(16) %"class.std::basic_istream"* @_ZNSi10_M_extractIxEERSiRT_(%"class.std::basic_istream"* nonnull align 8 dereferenceable(16) @_ZSt3cin, i64* nonnull align 8 dereferenceable(8) %2) #19
  %10 = bitcast %"class.std::vector"* %3 to i8*
  call void @llvm.lifetime.start.p0i8(i64 24, i8* nonnull %10) #18
  %11 = load i64, i64* %1, align 8, !tbaa !10
  %12 = getelementptr inbounds %"class.std::allocator", %"class.std::allocator"* %4, i64 0, i32 0
  call void @llvm.lifetime.start.p0i8(i64 1, i8* nonnull %12) #18
  call void @_ZNSt6vectorI6MarketSaIS0_EEC2EmRKS1_(%"class.std::vector"* nonnull align 8 dereferenceable(24) %3, i64 %11, %"class.std::allocator"* nonnull align 1 dereferenceable(1) %4) #19
  call void @llvm.lifetime.end.p0i8(i64 1, i8* nonnull %12) #18
  %13 = getelementptr inbounds %"class.std::vector", %"class.std::vector"* %3, i64 0, i32 0, i32 0, i32 0, i32 0
  br label %14

14:                                               ; preds = %34, %0
  %15 = phi i64 [ %42, %34 ], [ 0, %0 ]
  %16 = load i64, i64* %1, align 8, !tbaa !10
  %17 = icmp sgt i64 %16, %15
  br i1 %17, label %26, label %18

18:                                               ; preds = %14
  %19 = load i64, i64* %2, align 8, !tbaa !10
  %20 = bitcast %"class.std::vector"* %3 to <2 x %struct.Market*>*
  %21 = load <2 x %struct.Market*>, <2 x %struct.Market*>* %20, align 16, !tbaa !5
  %22 = bitcast %"class.std::vector"* %5 to <2 x %struct.Market*>*
  store <2 x %struct.Market*> %21, <2 x %struct.Market*>* %22, align 16, !tbaa !5
  %23 = getelementptr inbounds %"class.std::vector", %"class.std::vector"* %5, i64 0, i32 0, i32 0, i32 0, i32 2
  %24 = getelementptr inbounds %"class.std::vector", %"class.std::vector"* %3, i64 0, i32 0, i32 0, i32 0, i32 2
  %25 = load %struct.Market*, %struct.Market** %24, align 16, !tbaa !27
  store %struct.Market* %25, %struct.Market** %23, align 16, !tbaa !27
  call void @llvm.memset.p0i8.i64(i8* noundef nonnull align 16 dereferenceable(24) %10, i8 0, i64 24, i1 false) #18
  invoke void @_Z5solvexSt6vectorI6MarketSaIS0_EE(i64 %19, %"class.std::vector"* nonnull %5) #19
          to label %45 unwind label %48

26:                                               ; preds = %14
  %27 = load %struct.Market*, %struct.Market** %13, align 16, !tbaa !18
  %28 = getelementptr inbounds %struct.Market, %struct.Market* %27, i64 %15, i32 0
  %29 = invoke nonnull align 8 dereferenceable(16) %"class.std::basic_istream"* @_ZNSi10_M_extractIxEERSiRT_(%"class.std::basic_istream"* nonnull align 8 dereferenceable(16) @_ZSt3cin, i64* nonnull align 8 dereferenceable(8) %28) #19
          to label %30 unwind label %43

30:                                               ; preds = %26
  %31 = load %struct.Market*, %struct.Market** %13, align 16, !tbaa !18
  %32 = getelementptr inbounds %struct.Market, %struct.Market* %31, i64 %15, i32 1
  %33 = invoke nonnull align 8 dereferenceable(16) %"class.std::basic_istream"* @_ZNSi10_M_extractIxEERSiRT_(%"class.std::basic_istream"* nonnull align 8 dereferenceable(16) %29, i64* nonnull align 8 dereferenceable(8) %32) #19
          to label %34 unwind label %43

34:                                               ; preds = %30
  %35 = load %struct.Market*, %struct.Market** %13, align 16, !tbaa !18
  %36 = getelementptr inbounds %struct.Market, %struct.Market* %35, i64 %15, i32 0
  %37 = load i64, i64* %36, align 8, !tbaa !12
  %38 = add nsw i64 %37, 1
  %39 = getelementptr inbounds %struct.Market, %struct.Market* %35, i64 %15, i32 1
  %40 = load i64, i64* %39, align 8, !tbaa !21
  %41 = add nsw i64 %38, %40
  store i64 %41, i64* %39, align 8, !tbaa !21
  %42 = add nuw nsw i64 %15, 1
  br label %14, !llvm.loop !28

43:                                               ; preds = %30, %26
  %44 = landingpad { i8*, i32 }
          cleanup
  br label %51

45:                                               ; preds = %18
  %46 = getelementptr inbounds %"class.std::vector", %"class.std::vector"* %5, i64 0, i32 0
  call void @_ZNSt12_Vector_baseI6MarketSaIS0_EED2Ev(%"struct.std::_Vector_base"* nonnull align 8 dereferenceable(24) %46) #20
  %47 = getelementptr inbounds %"class.std::vector", %"class.std::vector"* %3, i64 0, i32 0
  call void @_ZNSt12_Vector_baseI6MarketSaIS0_EED2Ev(%"struct.std::_Vector_base"* nonnull align 8 dereferenceable(24) %47) #20
  call void @llvm.lifetime.end.p0i8(i64 24, i8* nonnull %10) #18
  call void @llvm.lifetime.end.p0i8(i64 8, i8* nonnull %8) #18
  call void @llvm.lifetime.end.p0i8(i64 8, i8* nonnull %6) #18
  ret i32 0

48:                                               ; preds = %18
  %49 = landingpad { i8*, i32 }
          cleanup
  %50 = getelementptr inbounds %"class.std::vector", %"class.std::vector"* %5, i64 0, i32 0
  call void @_ZNSt12_Vector_baseI6MarketSaIS0_EED2Ev(%"struct.std::_Vector_base"* nonnull align 8 dereferenceable(24) %50) #20
  br label %51

51:                                               ; preds = %48, %43
  %52 = phi { i8*, i32 } [ %44, %43 ], [ %49, %48 ]
  %53 = getelementptr inbounds %"class.std::vector", %"class.std::vector"* %3, i64 0, i32 0
  call void @_ZNSt12_Vector_baseI6MarketSaIS0_EED2Ev(%"struct.std::_Vector_base"* nonnull align 8 dereferenceable(24) %53) #20
  call void @llvm.lifetime.end.p0i8(i64 24, i8* nonnull %10) #18
  call void @llvm.lifetime.end.p0i8(i64 8, i8* nonnull %8) #18
  call void @llvm.lifetime.end.p0i8(i64 8, i8* nonnull %6) #18
  resume { i8*, i32 } %52
}

; Function Attrs: minsize optsize sspstrong uwtable
define linkonce_odr dso_local void @_ZNSt6vectorI6MarketSaIS0_EEC2EmRKS1_(%"class.std::vector"* nonnull align 8 dereferenceable(24) %0, i64 %1, %"class.std::allocator"* nonnull align 1 dereferenceable(1) %2) unnamed_addr #3 comdat align 2 personality i8* bitcast (i32 (...)* @__gxx_personality_v0 to i8*) {
  %4 = getelementptr inbounds %"class.std::vector", %"class.std::vector"* %0, i64 0, i32 0
  %5 = tail call i64 @_ZNSt6vectorI6MarketSaIS0_EE17_S_check_init_lenEmRKS1_(i64 %1, %"class.std::allocator"* nonnull align 1 dereferenceable(1) %2) #19
  %6 = bitcast %"class.std::vector"* %0 to i8*
  tail call void @llvm.memset.p0i8.i64(i8* noundef nonnull align 8 dereferenceable(24) %6, i8 0, i64 24, i1 false) #18
  tail call void @_ZNSt12_Vector_baseI6MarketSaIS0_EE17_M_create_storageEm(%"struct.std::_Vector_base"* nonnull align 8 dereferenceable(24) %4, i64 %5) #19
  invoke void @_ZNSt6vectorI6MarketSaIS0_EE21_M_default_initializeEm(%"class.std::vector"* nonnull align 8 dereferenceable(24) %0, i64 %1) #19
          to label %7 unwind label %8

7:                                                ; preds = %3
  ret void

8:                                                ; preds = %3
  %9 = landingpad { i8*, i32 }
          cleanup
  tail call void @_ZNSt12_Vector_baseI6MarketSaIS0_EED2Ev(%"struct.std::_Vector_base"* nonnull align 8 dereferenceable(24) %4) #20
  resume { i8*, i32 } %9
}

; Function Attrs: minsize nounwind optsize sspstrong uwtable
define linkonce_odr dso_local void @_ZNSt12_Vector_baseI6MarketSaIS0_EED2Ev(%"struct.std::_Vector_base"* nonnull align 8 dereferenceable(24) %0) unnamed_addr #8 comdat align 2 personality i8* bitcast (i32 (...)* @__gxx_personality_v0 to i8*) {
  %2 = getelementptr inbounds %"struct.std::_Vector_base", %"struct.std::_Vector_base"* %0, i64 0, i32 0, i32 0, i32 0
  %3 = load %struct.Market*, %struct.Market** %2, align 8, !tbaa !18
  %4 = icmp eq %struct.Market* %3, null
  br i1 %4, label %7, label %5

5:                                                ; preds = %1
  %6 = bitcast %struct.Market* %3 to i8*
  tail call void @_ZdlPv(i8* nonnull %6) #20
  br label %7

7:                                                ; preds = %5, %1
  ret void
}

; Function Attrs: minsize nobuiltin nounwind optsize
declare void @_ZdlPv(i8*) local_unnamed_addr #9

; Function Attrs: minsize optsize sspstrong uwtable
define linkonce_odr dso_local void @_ZNSt6vectorI6MarketSaIS0_EE17_M_realloc_insertIJRKS0_EEEvN9__gnu_cxx17__normal_iteratorIPS0_S2_EEDpOT_(%"class.std::vector"* nonnull align 8 dereferenceable(24) %0, %struct.Market* %1, %struct.Market* nonnull align 8 dereferenceable(16) %2) local_unnamed_addr #3 comdat align 2 {
  %4 = tail call i64 @_ZNKSt6vectorI6MarketSaIS0_EE12_M_check_lenEmPKc(%"class.std::vector"* nonnull align 8 dereferenceable(24) %0, i64 1, i8* getelementptr inbounds ([26 x i8], [26 x i8]* @.str, i64 0, i64 0)) #19
  %5 = getelementptr inbounds %"class.std::vector", %"class.std::vector"* %0, i64 0, i32 0
  %6 = getelementptr inbounds %"class.std::vector", %"class.std::vector"* %0, i64 0, i32 0, i32 0, i32 0, i32 0
  %7 = load %struct.Market*, %struct.Market** %6, align 8, !tbaa !18
  %8 = getelementptr inbounds %"class.std::vector", %"class.std::vector"* %0, i64 0, i32 0, i32 0, i32 0, i32 1
  %9 = load %struct.Market*, %struct.Market** %8, align 8, !tbaa !16
  %10 = ptrtoint %struct.Market* %1 to i64
  %11 = ptrtoint %struct.Market* %7 to i64
  %12 = sub i64 %10, %11
  %13 = ashr exact i64 %12, 4
  %14 = tail call %struct.Market* @_ZNSt12_Vector_baseI6MarketSaIS0_EE11_M_allocateEm(%"struct.std::_Vector_base"* nonnull align 8 dereferenceable(24) %5, i64 %4) #19
  %15 = getelementptr inbounds %struct.Market, %struct.Market* %14, i64 %13
  %16 = bitcast %struct.Market* %15 to i8*
  %17 = bitcast %struct.Market* %2 to i8*
  tail call void @llvm.memcpy.p0i8.p0i8.i64(i8* noundef nonnull align 8 dereferenceable(16) %16, i8* noundef nonnull align 8 dereferenceable(16) %17, i64 16, i1 false) #18, !tbaa.struct !9
  %18 = icmp sgt i64 %12, 0
  br i1 %18, label %19, label %22

19:                                               ; preds = %3
  %20 = bitcast %struct.Market* %14 to i8*
  %21 = bitcast %struct.Market* %7 to i8*
  tail call void @llvm.memmove.p0i8.p0i8.i64(i8* align 8 %20, i8* align 8 %21, i64 %12, i1 false) #18
  br label %22

22:                                               ; preds = %3, %19
  %23 = getelementptr inbounds %struct.Market, %struct.Market* %15, i64 1
  %24 = ptrtoint %struct.Market* %9 to i64
  %25 = sub i64 %24, %10
  %26 = icmp sgt i64 %25, 0
  br i1 %26, label %27, label %30

27:                                               ; preds = %22
  %28 = bitcast %struct.Market* %23 to i8*
  %29 = bitcast %struct.Market* %1 to i8*
  tail call void @llvm.memmove.p0i8.p0i8.i64(i8* nonnull align 8 %28, i8* align 8 %29, i64 %25, i1 false) #18
  br label %30

30:                                               ; preds = %22, %27
  %31 = icmp eq %struct.Market* %7, null
  br i1 %31, label %34, label %32

32:                                               ; preds = %30
  %33 = bitcast %struct.Market* %7 to i8*
  tail call void @_ZdlPv(i8* nonnull %33) #20
  br label %34

34:                                               ; preds = %30, %32
  %35 = getelementptr inbounds %"class.std::vector", %"class.std::vector"* %0, i64 0, i32 0, i32 0, i32 0, i32 2
  %36 = ashr exact i64 %25, 4
  %37 = getelementptr inbounds %struct.Market, %struct.Market* %23, i64 %36
  store %struct.Market* %14, %struct.Market** %6, align 8, !tbaa !18
  store %struct.Market* %37, %struct.Market** %8, align 8, !tbaa !16
  %38 = getelementptr inbounds %struct.Market, %struct.Market* %14, i64 %4
  store %struct.Market* %38, %struct.Market** %35, align 8, !tbaa !27
  ret void
}

; Function Attrs: minsize mustprogress optsize sspstrong uwtable
define linkonce_odr dso_local i64 @_ZNKSt6vectorI6MarketSaIS0_EE12_M_check_lenEmPKc(%"class.std::vector"* nonnull align 8 dereferenceable(24) %0, i64 %1, i8* %2) local_unnamed_addr #10 comdat align 2 personality i32 (...)* @__gxx_personality_v0 {
  %4 = getelementptr inbounds %"class.std::vector", %"class.std::vector"* %0, i64 0, i32 0, i32 0, i32 0, i32 1
  %5 = load %struct.Market*, %struct.Market** %4, align 8, !tbaa !16
  %6 = getelementptr inbounds %"class.std::vector", %"class.std::vector"* %0, i64 0, i32 0, i32 0, i32 0, i32 0
  %7 = load %struct.Market*, %struct.Market** %6, align 8, !tbaa !18
  %8 = ptrtoint %struct.Market* %5 to i64
  %9 = ptrtoint %struct.Market* %7 to i64
  %10 = sub i64 %8, %9
  %11 = ashr exact i64 %10, 4
  %12 = sub nsw i64 576460752303423487, %11
  %13 = icmp ult i64 %12, %1
  br i1 %13, label %14, label %15

14:                                               ; preds = %3
  tail call void @_ZSt20__throw_length_errorPKc(i8* %2) #21
  unreachable

15:                                               ; preds = %3
  %16 = icmp ult i64 %11, %1
  %17 = select i1 %16, i64 %1, i64 %11
  %18 = add i64 %17, %11
  %19 = icmp ult i64 %18, %11
  %20 = icmp ugt i64 %18, 576460752303423487
  %21 = or i1 %19, %20
  %22 = select i1 %21, i64 576460752303423487, i64 %18
  ret i64 %22
}

; Function Attrs: minsize mustprogress optsize sspstrong uwtable
define linkonce_odr dso_local %struct.Market* @_ZNSt12_Vector_baseI6MarketSaIS0_EE11_M_allocateEm(%"struct.std::_Vector_base"* nonnull align 8 dereferenceable(24) %0, i64 %1) local_unnamed_addr #10 comdat align 2 {
  %3 = icmp eq i64 %1, 0
  br i1 %3, label %7, label %4

4:                                                ; preds = %2
  %5 = bitcast %"struct.std::_Vector_base"* %0 to %"class.std::allocator"*
  %6 = tail call %struct.Market* @_ZNSt16allocator_traitsISaI6MarketEE8allocateERS1_m(%"class.std::allocator"* nonnull align 1 dereferenceable(1) %5, i64 %1) #19
  br label %7

7:                                                ; preds = %2, %4
  %8 = phi %struct.Market* [ %6, %4 ], [ null, %2 ]
  ret %struct.Market* %8
}

; Function Attrs: minsize noreturn optsize
declare void @_ZSt20__throw_length_errorPKc(i8*) local_unnamed_addr #11

; Function Attrs: minsize mustprogress optsize sspstrong uwtable
define linkonce_odr dso_local %struct.Market* @_ZNSt16allocator_traitsISaI6MarketEE8allocateERS1_m(%"class.std::allocator"* nonnull align 1 dereferenceable(1) %0, i64 %1) local_unnamed_addr #10 comdat align 2 {
  %3 = bitcast %"class.std::allocator"* %0 to %"class.__gnu_cxx::new_allocator"*
  %4 = tail call %struct.Market* @_ZN9__gnu_cxx13new_allocatorI6MarketE8allocateEmPKv(%"class.__gnu_cxx::new_allocator"* nonnull align 1 dereferenceable(1) %3, i64 %1, i8* null) #19
  ret %struct.Market* %4
}

; Function Attrs: minsize mustprogress optsize sspstrong uwtable
define linkonce_odr dso_local %struct.Market* @_ZN9__gnu_cxx13new_allocatorI6MarketE8allocateEmPKv(%"class.__gnu_cxx::new_allocator"* nonnull align 1 dereferenceable(1) %0, i64 %1, i8* %2) local_unnamed_addr #10 comdat align 2 {
  %4 = icmp ugt i64 %1, 576460752303423487
  br i1 %4, label %5, label %9, !prof !29

5:                                                ; preds = %3
  %6 = icmp ugt i64 %1, 1152921504606846975
  br i1 %6, label %7, label %8

7:                                                ; preds = %5
  tail call void @_ZSt28__throw_bad_array_new_lengthv() #21
  unreachable

8:                                                ; preds = %5
  tail call void @_ZSt17__throw_bad_allocv() #21
  unreachable

9:                                                ; preds = %3
  %10 = shl nuw nsw i64 %1, 4
  %11 = tail call noalias nonnull i8* @_Znwm(i64 %10) #22
  %12 = bitcast i8* %11 to %struct.Market*
  ret %struct.Market* %12
}

; Function Attrs: minsize noreturn optsize
declare void @_ZSt28__throw_bad_array_new_lengthv() local_unnamed_addr #11

; Function Attrs: minsize noreturn optsize
declare void @_ZSt17__throw_bad_allocv() local_unnamed_addr #11

; Function Attrs: minsize nobuiltin optsize allocsize(0)
declare nonnull i8* @_Znwm(i64) local_unnamed_addr #12

; Function Attrs: argmemonly mustprogress nofree nounwind willreturn
declare void @llvm.memmove.p0i8.p0i8.i64(i8* nocapture writeonly, i8* nocapture readonly, i64, i1 immarg) #5

; Function Attrs: inlinehint minsize mustprogress optsize sspstrong uwtable
define linkonce_odr dso_local void @_ZSt6__sortIN9__gnu_cxx17__normal_iteratorIP6MarketSt6vectorIS2_SaIS2_EEEENS0_5__ops15_Iter_less_iterEEvT_SA_T0_(%struct.Market* %0, %struct.Market* %1) local_unnamed_addr #6 comdat {
  %3 = icmp eq %struct.Market* %0, %1
  br i1 %3, label %12, label %4

4:                                                ; preds = %2
  %5 = ptrtoint %struct.Market* %1 to i64
  %6 = ptrtoint %struct.Market* %0 to i64
  %7 = sub i64 %5, %6
  %8 = ashr exact i64 %7, 4
  %9 = tail call i64 @llvm.ctlz.i64(i64 %8, i1 true) #18, !range !30
  %10 = shl nuw nsw i64 %9, 1
  %11 = xor i64 %10, 126
  tail call void @_ZSt16__introsort_loopIN9__gnu_cxx17__normal_iteratorIP6MarketSt6vectorIS2_SaIS2_EEEElNS0_5__ops15_Iter_less_iterEEvT_SA_T0_T1_(%struct.Market* %0, %struct.Market* %1, i64 %11) #19
  tail call void @_ZSt22__final_insertion_sortIN9__gnu_cxx17__normal_iteratorIP6MarketSt6vectorIS2_SaIS2_EEEENS0_5__ops15_Iter_less_iterEEvT_SA_T0_(%struct.Market* %0, %struct.Market* %1) #19
  br label %12

12:                                               ; preds = %4, %2
  ret void
}

; Function Attrs: minsize mustprogress optsize sspstrong uwtable
define linkonce_odr dso_local void @_ZSt16__introsort_loopIN9__gnu_cxx17__normal_iteratorIP6MarketSt6vectorIS2_SaIS2_EEEElNS0_5__ops15_Iter_less_iterEEvT_SA_T0_T1_(%struct.Market* %0, %struct.Market* %1, i64 %2) local_unnamed_addr #10 comdat {
  %4 = ptrtoint %struct.Market* %0 to i64
  br label %5

5:                                                ; preds = %14, %3
  %6 = phi %struct.Market* [ %1, %3 ], [ %16, %14 ]
  %7 = phi i64 [ %2, %3 ], [ %15, %14 ]
  %8 = ptrtoint %struct.Market* %6 to i64
  %9 = sub i64 %8, %4
  %10 = icmp sgt i64 %9, 256
  br i1 %10, label %11, label %17

11:                                               ; preds = %5
  %12 = icmp eq i64 %7, 0
  br i1 %12, label %13, label %14

13:                                               ; preds = %11
  tail call void @_ZSt14__partial_sortIN9__gnu_cxx17__normal_iteratorIP6MarketSt6vectorIS2_SaIS2_EEEENS0_5__ops15_Iter_less_iterEEvT_SA_SA_T0_(%struct.Market* %0, %struct.Market* %6, %struct.Market* %6) #19
  br label %17

14:                                               ; preds = %11
  %15 = add nsw i64 %7, -1
  %16 = tail call %struct.Market* @_ZSt27__unguarded_partition_pivotIN9__gnu_cxx17__normal_iteratorIP6MarketSt6vectorIS2_SaIS2_EEEENS0_5__ops15_Iter_less_iterEET_SA_SA_T0_(%struct.Market* %0, %struct.Market* %6) #19
  tail call void @_ZSt16__introsort_loopIN9__gnu_cxx17__normal_iteratorIP6MarketSt6vectorIS2_SaIS2_EEEElNS0_5__ops15_Iter_less_iterEEvT_SA_T0_T1_(%struct.Market* %16, %struct.Market* %6, i64 %15) #19
  br label %5, !llvm.loop !31

17:                                               ; preds = %5, %13
  ret void
}

; Function Attrs: minsize optsize sspstrong uwtable
define linkonce_odr dso_local void @_ZSt22__final_insertion_sortIN9__gnu_cxx17__normal_iteratorIP6MarketSt6vectorIS2_SaIS2_EEEENS0_5__ops15_Iter_less_iterEEvT_SA_T0_(%struct.Market* %0, %struct.Market* %1) local_unnamed_addr #3 comdat {
  %3 = ptrtoint %struct.Market* %1 to i64
  %4 = ptrtoint %struct.Market* %0 to i64
  %5 = sub i64 %3, %4
  %6 = icmp sgt i64 %5, 256
  br i1 %6, label %7, label %9

7:                                                ; preds = %2
  %8 = getelementptr inbounds %struct.Market, %struct.Market* %0, i64 16
  tail call void @_ZSt16__insertion_sortIN9__gnu_cxx17__normal_iteratorIP6MarketSt6vectorIS2_SaIS2_EEEENS0_5__ops15_Iter_less_iterEEvT_SA_T0_(%struct.Market* %0, %struct.Market* nonnull %8) #19
  tail call void @_ZSt26__unguarded_insertion_sortIN9__gnu_cxx17__normal_iteratorIP6MarketSt6vectorIS2_SaIS2_EEEENS0_5__ops15_Iter_less_iterEEvT_SA_T0_(%struct.Market* nonnull %8, %struct.Market* %1) #19
  br label %10

9:                                                ; preds = %2
  tail call void @_ZSt16__insertion_sortIN9__gnu_cxx17__normal_iteratorIP6MarketSt6vectorIS2_SaIS2_EEEENS0_5__ops15_Iter_less_iterEEvT_SA_T0_(%struct.Market* %0, %struct.Market* %1) #19
  br label %10

10:                                               ; preds = %9, %7
  ret void
}

; Function Attrs: inlinehint minsize mustprogress optsize sspstrong uwtable
define linkonce_odr dso_local void @_ZSt14__partial_sortIN9__gnu_cxx17__normal_iteratorIP6MarketSt6vectorIS2_SaIS2_EEEENS0_5__ops15_Iter_less_iterEEvT_SA_SA_T0_(%struct.Market* %0, %struct.Market* %1, %struct.Market* %2) local_unnamed_addr #6 comdat {
  %4 = alloca %"struct.__gnu_cxx::__ops::_Iter_less_iter", align 1
  tail call void @_ZSt13__heap_selectIN9__gnu_cxx17__normal_iteratorIP6MarketSt6vectorIS2_SaIS2_EEEENS0_5__ops15_Iter_less_iterEEvT_SA_SA_T0_(%struct.Market* %0, %struct.Market* %1, %struct.Market* %2) #19
  call void @_ZSt11__sort_heapIN9__gnu_cxx17__normal_iteratorIP6MarketSt6vectorIS2_SaIS2_EEEENS0_5__ops15_Iter_less_iterEEvT_SA_RT0_(%struct.Market* %0, %struct.Market* %1, %"struct.__gnu_cxx::__ops::_Iter_less_iter"* nonnull align 1 dereferenceable(1) %4) #19
  ret void
}

; Function Attrs: inlinehint minsize optsize sspstrong uwtable
define linkonce_odr dso_local %struct.Market* @_ZSt27__unguarded_partition_pivotIN9__gnu_cxx17__normal_iteratorIP6MarketSt6vectorIS2_SaIS2_EEEENS0_5__ops15_Iter_less_iterEET_SA_SA_T0_(%struct.Market* %0, %struct.Market* %1) local_unnamed_addr #13 comdat {
  %3 = ptrtoint %struct.Market* %1 to i64
  %4 = ptrtoint %struct.Market* %0 to i64
  %5 = sub i64 %3, %4
  %6 = ashr exact i64 %5, 4
  %7 = sdiv i64 %6, 2
  %8 = getelementptr inbounds %struct.Market, %struct.Market* %0, i64 %7
  %9 = getelementptr inbounds %struct.Market, %struct.Market* %0, i64 1
  %10 = getelementptr inbounds %struct.Market, %struct.Market* %1, i64 -1
  tail call void @_ZSt22__move_median_to_firstIN9__gnu_cxx17__normal_iteratorIP6MarketSt6vectorIS2_SaIS2_EEEENS0_5__ops15_Iter_less_iterEEvT_SA_SA_SA_T0_(%struct.Market* %0, %struct.Market* nonnull %9, %struct.Market* %8, %struct.Market* nonnull %10) #19
  %11 = tail call %struct.Market* @_ZSt21__unguarded_partitionIN9__gnu_cxx17__normal_iteratorIP6MarketSt6vectorIS2_SaIS2_EEEENS0_5__ops15_Iter_less_iterEET_SA_SA_SA_T0_(%struct.Market* nonnull %9, %struct.Market* %1, %struct.Market* %0) #19
  ret %struct.Market* %11
}

; Function Attrs: minsize mustprogress optsize sspstrong uwtable
define linkonce_odr dso_local void @_ZSt13__heap_selectIN9__gnu_cxx17__normal_iteratorIP6MarketSt6vectorIS2_SaIS2_EEEENS0_5__ops15_Iter_less_iterEEvT_SA_SA_T0_(%struct.Market* %0, %struct.Market* %1, %struct.Market* %2) local_unnamed_addr #10 comdat {
  %4 = alloca %"struct.__gnu_cxx::__ops::_Iter_less_iter", align 1
  call void @_ZSt11__make_heapIN9__gnu_cxx17__normal_iteratorIP6MarketSt6vectorIS2_SaIS2_EEEENS0_5__ops15_Iter_less_iterEEvT_SA_RT0_(%struct.Market* %0, %struct.Market* %1, %"struct.__gnu_cxx::__ops::_Iter_less_iter"* nonnull align 1 dereferenceable(1) %4) #19
  br label %5

5:                                                ; preds = %12, %3
  %6 = phi %struct.Market* [ %1, %3 ], [ %13, %12 ]
  %7 = icmp ult %struct.Market* %6, %2
  br i1 %7, label %9, label %8

8:                                                ; preds = %5
  ret void

9:                                                ; preds = %5
  %10 = call zeroext i1 @_ZNK6MarketltERKS_(%struct.Market* nonnull align 8 dereferenceable(16) %6, %struct.Market* nonnull align 8 dereferenceable(16) %0) #20
  br i1 %10, label %11, label %12

11:                                               ; preds = %9
  call void @_ZSt10__pop_heapIN9__gnu_cxx17__normal_iteratorIP6MarketSt6vectorIS2_SaIS2_EEEENS0_5__ops15_Iter_less_iterEEvT_SA_SA_RT0_(%struct.Market* nonnull %0, %struct.Market* %1, %struct.Market* nonnull %6, %"struct.__gnu_cxx::__ops::_Iter_less_iter"* nonnull align 1 dereferenceable(1) %4) #19
  br label %12

12:                                               ; preds = %9, %11
  %13 = getelementptr inbounds %struct.Market, %struct.Market* %6, i64 1
  br label %5, !llvm.loop !32
}

; Function Attrs: minsize mustprogress optsize sspstrong uwtable
define linkonce_odr dso_local void @_ZSt11__sort_heapIN9__gnu_cxx17__normal_iteratorIP6MarketSt6vectorIS2_SaIS2_EEEENS0_5__ops15_Iter_less_iterEEvT_SA_RT0_(%struct.Market* %0, %struct.Market* %1, %"struct.__gnu_cxx::__ops::_Iter_less_iter"* nonnull align 1 dereferenceable(1) %2) local_unnamed_addr #10 comdat {
  %4 = ptrtoint %struct.Market* %0 to i64
  br label %5

5:                                                ; preds = %10, %3
  %6 = phi %struct.Market* [ %1, %3 ], [ %11, %10 ]
  %7 = ptrtoint %struct.Market* %6 to i64
  %8 = sub i64 %7, %4
  %9 = icmp sgt i64 %8, 16
  br i1 %9, label %10, label %12

10:                                               ; preds = %5
  %11 = getelementptr inbounds %struct.Market, %struct.Market* %6, i64 -1
  tail call void @_ZSt10__pop_heapIN9__gnu_cxx17__normal_iteratorIP6MarketSt6vectorIS2_SaIS2_EEEENS0_5__ops15_Iter_less_iterEEvT_SA_SA_RT0_(%struct.Market* %0, %struct.Market* nonnull %11, %struct.Market* nonnull %11, %"struct.__gnu_cxx::__ops::_Iter_less_iter"* nonnull align 1 dereferenceable(1) %2) #19
  br label %5, !llvm.loop !33

12:                                               ; preds = %5
  ret void
}

; Function Attrs: minsize optsize sspstrong uwtable
define linkonce_odr dso_local void @_ZSt11__make_heapIN9__gnu_cxx17__normal_iteratorIP6MarketSt6vectorIS2_SaIS2_EEEENS0_5__ops15_Iter_less_iterEEvT_SA_RT0_(%struct.Market* %0, %struct.Market* %1, %"struct.__gnu_cxx::__ops::_Iter_less_iter"* nonnull align 1 dereferenceable(1) %2) local_unnamed_addr #3 comdat {
  %4 = ptrtoint %struct.Market* %1 to i64
  %5 = ptrtoint %struct.Market* %0 to i64
  %6 = sub i64 %4, %5
  %7 = ashr exact i64 %6, 4
  %8 = icmp slt i64 %6, 32
  br i1 %8, label %20, label %9

9:                                                ; preds = %3
  %10 = add nsw i64 %7, -2
  %11 = lshr i64 %10, 1
  br label %12

12:                                               ; preds = %12, %9
  %13 = phi i64 [ %11, %9 ], [ %19, %12 ]
  %14 = getelementptr inbounds %struct.Market, %struct.Market* %0, i64 %13, i32 0
  %15 = load i64, i64* %14, align 8, !tbaa.struct !9
  %16 = getelementptr inbounds %struct.Market, %struct.Market* %0, i64 %13, i32 1
  %17 = load i64, i64* %16, align 8, !tbaa.struct !34
  tail call void @_ZSt13__adjust_heapIN9__gnu_cxx17__normal_iteratorIP6MarketSt6vectorIS2_SaIS2_EEEElS2_NS0_5__ops15_Iter_less_iterEEvT_T0_SB_T1_T2_(%struct.Market* %0, i64 %13, i64 %7, i64 %15, i64 %17) #19
  %18 = icmp eq i64 %13, 0
  %19 = add nsw i64 %13, -1
  br i1 %18, label %20, label %12, !llvm.loop !35

20:                                               ; preds = %12, %3
  ret void
}

; Function Attrs: inlinehint minsize mustprogress optsize sspstrong uwtable
define linkonce_odr dso_local void @_ZSt10__pop_heapIN9__gnu_cxx17__normal_iteratorIP6MarketSt6vectorIS2_SaIS2_EEEENS0_5__ops15_Iter_less_iterEEvT_SA_SA_RT0_(%struct.Market* %0, %struct.Market* %1, %struct.Market* %2, %"struct.__gnu_cxx::__ops::_Iter_less_iter"* nonnull align 1 dereferenceable(1) %3) local_unnamed_addr #6 comdat {
  %5 = getelementptr inbounds %struct.Market, %struct.Market* %2, i64 0, i32 0
  %6 = load i64, i64* %5, align 8, !tbaa.struct !9
  %7 = getelementptr inbounds %struct.Market, %struct.Market* %2, i64 0, i32 1
  %8 = load i64, i64* %7, align 8, !tbaa.struct !34
  %9 = bitcast %struct.Market* %2 to i8*
  %10 = bitcast %struct.Market* %0 to i8*
  tail call void @llvm.memcpy.p0i8.p0i8.i64(i8* noundef nonnull align 8 dereferenceable(16) %9, i8* noundef nonnull align 8 dereferenceable(16) %10, i64 16, i1 false), !tbaa.struct !9
  %11 = ptrtoint %struct.Market* %1 to i64
  %12 = ptrtoint %struct.Market* %0 to i64
  %13 = sub i64 %11, %12
  %14 = ashr exact i64 %13, 4
  tail call void @_ZSt13__adjust_heapIN9__gnu_cxx17__normal_iteratorIP6MarketSt6vectorIS2_SaIS2_EEEElS2_NS0_5__ops15_Iter_less_iterEEvT_T0_SB_T1_T2_(%struct.Market* %0, i64 0, i64 %14, i64 %6, i64 %8) #19
  ret void
}

; Function Attrs: minsize optsize sspstrong uwtable
define linkonce_odr dso_local void @_ZSt13__adjust_heapIN9__gnu_cxx17__normal_iteratorIP6MarketSt6vectorIS2_SaIS2_EEEElS2_NS0_5__ops15_Iter_less_iterEEvT_T0_SB_T1_T2_(%struct.Market* %0, i64 %1, i64 %2, i64 %3, i64 %4) local_unnamed_addr #3 comdat {
  %6 = alloca %"struct.__gnu_cxx::__ops::_Iter_less_val", align 1
  %7 = add nsw i64 %2, -1
  %8 = sdiv i64 %7, 2
  br label %9

9:                                                ; preds = %12, %5
  %10 = phi i64 [ %1, %5 ], [ %19, %12 ]
  %11 = icmp slt i64 %10, %8
  br i1 %11, label %12, label %24

12:                                               ; preds = %9
  %13 = shl i64 %10, 1
  %14 = add i64 %13, 2
  %15 = getelementptr inbounds %struct.Market, %struct.Market* %0, i64 %14
  %16 = or i64 %13, 1
  %17 = getelementptr inbounds %struct.Market, %struct.Market* %0, i64 %16
  %18 = tail call zeroext i1 @_ZNK6MarketltERKS_(%struct.Market* nonnull align 8 dereferenceable(16) %15, %struct.Market* nonnull align 8 dereferenceable(16) %17) #20
  %19 = select i1 %18, i64 %16, i64 %14
  %20 = getelementptr inbounds %struct.Market, %struct.Market* %0, i64 %19
  %21 = getelementptr inbounds %struct.Market, %struct.Market* %0, i64 %10
  %22 = bitcast %struct.Market* %21 to i8*
  %23 = bitcast %struct.Market* %20 to i8*
  tail call void @llvm.memcpy.p0i8.p0i8.i64(i8* noundef nonnull align 8 dereferenceable(16) %22, i8* noundef nonnull align 8 dereferenceable(16) %23, i64 16, i1 false), !tbaa.struct !9
  br label %9, !llvm.loop !36

24:                                               ; preds = %9
  %25 = and i64 %2, 1
  %26 = icmp eq i64 %25, 0
  br i1 %26, label %27, label %38

27:                                               ; preds = %24
  %28 = add nsw i64 %2, -2
  %29 = sdiv i64 %28, 2
  %30 = icmp eq i64 %10, %29
  br i1 %30, label %31, label %38

31:                                               ; preds = %27
  %32 = shl i64 %10, 1
  %33 = or i64 %32, 1
  %34 = getelementptr inbounds %struct.Market, %struct.Market* %0, i64 %33
  %35 = getelementptr inbounds %struct.Market, %struct.Market* %0, i64 %10
  %36 = bitcast %struct.Market* %35 to i8*
  %37 = bitcast %struct.Market* %34 to i8*
  tail call void @llvm.memcpy.p0i8.p0i8.i64(i8* noundef nonnull align 8 dereferenceable(16) %36, i8* noundef nonnull align 8 dereferenceable(16) %37, i64 16, i1 false), !tbaa.struct !9
  br label %38

38:                                               ; preds = %31, %27, %24
  %39 = phi i64 [ %33, %31 ], [ %10, %27 ], [ %10, %24 ]
  %40 = getelementptr inbounds %"struct.__gnu_cxx::__ops::_Iter_less_val", %"struct.__gnu_cxx::__ops::_Iter_less_val"* %6, i64 0, i32 0
  call void @llvm.lifetime.start.p0i8(i64 1, i8* nonnull %40) #18
  call void @_ZSt11__push_heapIN9__gnu_cxx17__normal_iteratorIP6MarketSt6vectorIS2_SaIS2_EEEElS2_NS0_5__ops14_Iter_less_valEEvT_T0_SB_T1_RT2_(%struct.Market* %0, i64 %39, i64 %1, i64 %3, i64 %4, %"struct.__gnu_cxx::__ops::_Iter_less_val"* nonnull align 1 dereferenceable(1) %6) #19
  call void @llvm.lifetime.end.p0i8(i64 1, i8* nonnull %40) #18
  ret void
}

; Function Attrs: minsize optsize sspstrong uwtable
define linkonce_odr dso_local void @_ZSt11__push_heapIN9__gnu_cxx17__normal_iteratorIP6MarketSt6vectorIS2_SaIS2_EEEElS2_NS0_5__ops14_Iter_less_valEEvT_T0_SB_T1_RT2_(%struct.Market* %0, i64 %1, i64 %2, i64 %3, i64 %4, %"struct.__gnu_cxx::__ops::_Iter_less_val"* nonnull align 1 dereferenceable(1) %5) local_unnamed_addr #3 comdat {
  %7 = alloca %struct.Market, align 8
  %8 = getelementptr inbounds %struct.Market, %struct.Market* %7, i64 0, i32 0
  store i64 %3, i64* %8, align 8
  %9 = getelementptr inbounds %struct.Market, %struct.Market* %7, i64 0, i32 1
  store i64 %4, i64* %9, align 8
  br label %10

10:                                               ; preds = %18, %6
  %11 = phi i64 [ %1, %6 ], [ %13, %18 ]
  %12 = add nsw i64 %11, -1
  %13 = sdiv i64 %12, 2
  %14 = icmp sgt i64 %11, %2
  br i1 %14, label %15, label %22

15:                                               ; preds = %10
  %16 = getelementptr inbounds %struct.Market, %struct.Market* %0, i64 %13
  %17 = call zeroext i1 @_ZNK6MarketltERKS_(%struct.Market* nonnull align 8 dereferenceable(16) %16, %struct.Market* nonnull align 8 dereferenceable(16) %7) #19
  br i1 %17, label %18, label %22

18:                                               ; preds = %15
  %19 = getelementptr inbounds %struct.Market, %struct.Market* %0, i64 %11
  %20 = bitcast %struct.Market* %19 to i8*
  %21 = bitcast %struct.Market* %16 to i8*
  call void @llvm.memcpy.p0i8.p0i8.i64(i8* noundef nonnull align 8 dereferenceable(16) %20, i8* noundef nonnull align 8 dereferenceable(16) %21, i64 16, i1 false), !tbaa.struct !9
  br label %10, !llvm.loop !37

22:                                               ; preds = %10, %15
  %23 = getelementptr inbounds %struct.Market, %struct.Market* %0, i64 %11
  %24 = bitcast %struct.Market* %23 to i8*
  %25 = bitcast %struct.Market* %7 to i8*
  call void @llvm.memcpy.p0i8.p0i8.i64(i8* noundef nonnull align 8 dereferenceable(16) %24, i8* noundef nonnull align 8 dereferenceable(16) %25, i64 16, i1 false), !tbaa.struct !9
  ret void
}

; Function Attrs: minsize mustprogress nounwind optsize sspstrong uwtable
define linkonce_odr dso_local zeroext i1 @_ZNK6MarketltERKS_(%struct.Market* nonnull align 8 dereferenceable(16) %0, %struct.Market* nonnull align 8 dereferenceable(16) %1) local_unnamed_addr #14 comdat align 2 {
  %3 = getelementptr inbounds %struct.Market, %struct.Market* %1, i64 0, i32 0
  %4 = load i64, i64* %3, align 8, !tbaa !12
  %5 = icmp eq i64 %4, 0
  %6 = getelementptr inbounds %struct.Market, %struct.Market* %0, i64 0, i32 0
  %7 = load i64, i64* %6, align 8, !tbaa !12
  %8 = icmp eq i64 %7, 0
  %9 = select i1 %5, i1 %8, i1 false
  %10 = getelementptr inbounds %struct.Market, %struct.Market* %0, i64 0, i32 1
  %11 = load i64, i64* %10, align 8, !tbaa !21
  br i1 %9, label %18, label %12

12:                                               ; preds = %2
  %13 = mul nsw i64 %11, %4
  %14 = getelementptr inbounds %struct.Market, %struct.Market* %1, i64 0, i32 1
  %15 = load i64, i64* %14, align 8, !tbaa !21
  %16 = mul nsw i64 %15, %7
  %17 = icmp slt i64 %13, %16
  br label %22

18:                                               ; preds = %2
  %19 = getelementptr inbounds %struct.Market, %struct.Market* %1, i64 0, i32 1
  %20 = load i64, i64* %19, align 8, !tbaa !21
  %21 = icmp slt i64 %11, %20
  br label %22

22:                                               ; preds = %18, %12
  %23 = phi i1 [ %17, %12 ], [ %21, %18 ]
  ret i1 %23
}

; Function Attrs: minsize mustprogress optsize sspstrong uwtable
define linkonce_odr dso_local void @_ZSt22__move_median_to_firstIN9__gnu_cxx17__normal_iteratorIP6MarketSt6vectorIS2_SaIS2_EEEENS0_5__ops15_Iter_less_iterEEvT_SA_SA_SA_T0_(%struct.Market* %0, %struct.Market* %1, %struct.Market* %2, %struct.Market* %3) local_unnamed_addr #10 comdat {
  %5 = alloca %struct.Market, align 8
  %6 = alloca %struct.Market, align 8
  %7 = alloca %struct.Market, align 8
  %8 = alloca %struct.Market, align 8
  %9 = alloca %struct.Market, align 8
  %10 = alloca %struct.Market, align 8
  %11 = tail call zeroext i1 @_ZNK6MarketltERKS_(%struct.Market* nonnull align 8 dereferenceable(16) %1, %struct.Market* nonnull align 8 dereferenceable(16) %2) #20
  br i1 %11, label %12, label %28

12:                                               ; preds = %4
  %13 = tail call zeroext i1 @_ZNK6MarketltERKS_(%struct.Market* nonnull align 8 dereferenceable(16) %2, %struct.Market* nonnull align 8 dereferenceable(16) %3) #20
  br i1 %13, label %14, label %18

14:                                               ; preds = %12
  %15 = bitcast %struct.Market* %10 to i8*
  call void @llvm.lifetime.start.p0i8(i64 16, i8* nonnull %15)
  %16 = bitcast %struct.Market* %0 to i8*
  call void @llvm.memcpy.p0i8.p0i8.i64(i8* noundef nonnull align 8 dereferenceable(16) %15, i8* noundef nonnull align 8 dereferenceable(16) %16, i64 16, i1 false) #18, !tbaa.struct !9
  %17 = bitcast %struct.Market* %2 to i8*
  tail call void @llvm.memcpy.p0i8.p0i8.i64(i8* noundef nonnull align 8 dereferenceable(16) %16, i8* noundef nonnull align 8 dereferenceable(16) %17, i64 16, i1 false) #18, !tbaa.struct !9
  call void @llvm.memcpy.p0i8.p0i8.i64(i8* noundef nonnull align 8 dereferenceable(16) %17, i8* noundef nonnull align 8 dereferenceable(16) %15, i64 16, i1 false) #18, !tbaa.struct !9
  call void @llvm.lifetime.end.p0i8(i64 16, i8* nonnull %15)
  br label %44

18:                                               ; preds = %12
  %19 = tail call zeroext i1 @_ZNK6MarketltERKS_(%struct.Market* nonnull align 8 dereferenceable(16) %1, %struct.Market* nonnull align 8 dereferenceable(16) %3) #20
  br i1 %19, label %20, label %24

20:                                               ; preds = %18
  %21 = bitcast %struct.Market* %9 to i8*
  call void @llvm.lifetime.start.p0i8(i64 16, i8* nonnull %21)
  %22 = bitcast %struct.Market* %0 to i8*
  call void @llvm.memcpy.p0i8.p0i8.i64(i8* noundef nonnull align 8 dereferenceable(16) %21, i8* noundef nonnull align 8 dereferenceable(16) %22, i64 16, i1 false) #18, !tbaa.struct !9
  %23 = bitcast %struct.Market* %3 to i8*
  tail call void @llvm.memcpy.p0i8.p0i8.i64(i8* noundef nonnull align 8 dereferenceable(16) %22, i8* noundef nonnull align 8 dereferenceable(16) %23, i64 16, i1 false) #18, !tbaa.struct !9
  call void @llvm.memcpy.p0i8.p0i8.i64(i8* noundef nonnull align 8 dereferenceable(16) %23, i8* noundef nonnull align 8 dereferenceable(16) %21, i64 16, i1 false) #18, !tbaa.struct !9
  call void @llvm.lifetime.end.p0i8(i64 16, i8* nonnull %21)
  br label %44

24:                                               ; preds = %18
  %25 = bitcast %struct.Market* %8 to i8*
  call void @llvm.lifetime.start.p0i8(i64 16, i8* nonnull %25)
  %26 = bitcast %struct.Market* %0 to i8*
  call void @llvm.memcpy.p0i8.p0i8.i64(i8* noundef nonnull align 8 dereferenceable(16) %25, i8* noundef nonnull align 8 dereferenceable(16) %26, i64 16, i1 false) #18, !tbaa.struct !9
  %27 = bitcast %struct.Market* %1 to i8*
  tail call void @llvm.memcpy.p0i8.p0i8.i64(i8* noundef nonnull align 8 dereferenceable(16) %26, i8* noundef nonnull align 8 dereferenceable(16) %27, i64 16, i1 false) #18, !tbaa.struct !9
  call void @llvm.memcpy.p0i8.p0i8.i64(i8* noundef nonnull align 8 dereferenceable(16) %27, i8* noundef nonnull align 8 dereferenceable(16) %25, i64 16, i1 false) #18, !tbaa.struct !9
  call void @llvm.lifetime.end.p0i8(i64 16, i8* nonnull %25)
  br label %44

28:                                               ; preds = %4
  %29 = tail call zeroext i1 @_ZNK6MarketltERKS_(%struct.Market* nonnull align 8 dereferenceable(16) %1, %struct.Market* nonnull align 8 dereferenceable(16) %3) #20
  br i1 %29, label %30, label %34

30:                                               ; preds = %28
  %31 = bitcast %struct.Market* %7 to i8*
  call void @llvm.lifetime.start.p0i8(i64 16, i8* nonnull %31)
  %32 = bitcast %struct.Market* %0 to i8*
  call void @llvm.memcpy.p0i8.p0i8.i64(i8* noundef nonnull align 8 dereferenceable(16) %31, i8* noundef nonnull align 8 dereferenceable(16) %32, i64 16, i1 false) #18, !tbaa.struct !9
  %33 = bitcast %struct.Market* %1 to i8*
  tail call void @llvm.memcpy.p0i8.p0i8.i64(i8* noundef nonnull align 8 dereferenceable(16) %32, i8* noundef nonnull align 8 dereferenceable(16) %33, i64 16, i1 false) #18, !tbaa.struct !9
  call void @llvm.memcpy.p0i8.p0i8.i64(i8* noundef nonnull align 8 dereferenceable(16) %33, i8* noundef nonnull align 8 dereferenceable(16) %31, i64 16, i1 false) #18, !tbaa.struct !9
  call void @llvm.lifetime.end.p0i8(i64 16, i8* nonnull %31)
  br label %44

34:                                               ; preds = %28
  %35 = tail call zeroext i1 @_ZNK6MarketltERKS_(%struct.Market* nonnull align 8 dereferenceable(16) %2, %struct.Market* nonnull align 8 dereferenceable(16) %3) #20
  br i1 %35, label %36, label %40

36:                                               ; preds = %34
  %37 = bitcast %struct.Market* %6 to i8*
  call void @llvm.lifetime.start.p0i8(i64 16, i8* nonnull %37)
  %38 = bitcast %struct.Market* %0 to i8*
  call void @llvm.memcpy.p0i8.p0i8.i64(i8* noundef nonnull align 8 dereferenceable(16) %37, i8* noundef nonnull align 8 dereferenceable(16) %38, i64 16, i1 false) #18, !tbaa.struct !9
  %39 = bitcast %struct.Market* %3 to i8*
  tail call void @llvm.memcpy.p0i8.p0i8.i64(i8* noundef nonnull align 8 dereferenceable(16) %38, i8* noundef nonnull align 8 dereferenceable(16) %39, i64 16, i1 false) #18, !tbaa.struct !9
  call void @llvm.memcpy.p0i8.p0i8.i64(i8* noundef nonnull align 8 dereferenceable(16) %39, i8* noundef nonnull align 8 dereferenceable(16) %37, i64 16, i1 false) #18, !tbaa.struct !9
  call void @llvm.lifetime.end.p0i8(i64 16, i8* nonnull %37)
  br label %44

40:                                               ; preds = %34
  %41 = bitcast %struct.Market* %5 to i8*
  call void @llvm.lifetime.start.p0i8(i64 16, i8* nonnull %41)
  %42 = bitcast %struct.Market* %0 to i8*
  call void @llvm.memcpy.p0i8.p0i8.i64(i8* noundef nonnull align 8 dereferenceable(16) %41, i8* noundef nonnull align 8 dereferenceable(16) %42, i64 16, i1 false) #18, !tbaa.struct !9
  %43 = bitcast %struct.Market* %2 to i8*
  tail call void @llvm.memcpy.p0i8.p0i8.i64(i8* noundef nonnull align 8 dereferenceable(16) %42, i8* noundef nonnull align 8 dereferenceable(16) %43, i64 16, i1 false) #18, !tbaa.struct !9
  call void @llvm.memcpy.p0i8.p0i8.i64(i8* noundef nonnull align 8 dereferenceable(16) %43, i8* noundef nonnull align 8 dereferenceable(16) %41, i64 16, i1 false) #18, !tbaa.struct !9
  call void @llvm.lifetime.end.p0i8(i64 16, i8* nonnull %41)
  br label %44

44:                                               ; preds = %30, %40, %36, %14, %24, %20
  ret void
}

; Function Attrs: minsize mustprogress nounwind optsize sspstrong uwtable
define linkonce_odr dso_local %struct.Market* @_ZSt21__unguarded_partitionIN9__gnu_cxx17__normal_iteratorIP6MarketSt6vectorIS2_SaIS2_EEEENS0_5__ops15_Iter_less_iterEET_SA_SA_SA_T0_(%struct.Market* %0, %struct.Market* %1, %struct.Market* %2) local_unnamed_addr #14 comdat {
  %4 = alloca %struct.Market, align 8
  %5 = bitcast %struct.Market* %4 to i8*
  br label %6

6:                                                ; preds = %3, %20
  %7 = phi %struct.Market* [ %0, %3 ], [ %12, %20 ]
  %8 = phi %struct.Market* [ %1, %3 ], [ %15, %20 ]
  br label %9

9:                                                ; preds = %9, %6
  %10 = phi %struct.Market* [ %7, %6 ], [ %12, %9 ]
  %11 = tail call zeroext i1 @_ZNK6MarketltERKS_(%struct.Market* nonnull align 8 dereferenceable(16) %10, %struct.Market* nonnull align 8 dereferenceable(16) %2) #20
  %12 = getelementptr inbounds %struct.Market, %struct.Market* %10, i64 1
  br i1 %11, label %9, label %13, !llvm.loop !38

13:                                               ; preds = %9, %13
  %14 = phi %struct.Market* [ %15, %13 ], [ %8, %9 ]
  %15 = getelementptr inbounds %struct.Market, %struct.Market* %14, i64 -1
  %16 = tail call zeroext i1 @_ZNK6MarketltERKS_(%struct.Market* nonnull align 8 dereferenceable(16) %2, %struct.Market* nonnull align 8 dereferenceable(16) %15) #20
  br i1 %16, label %13, label %17, !llvm.loop !39

17:                                               ; preds = %13
  %18 = icmp ult %struct.Market* %10, %15
  br i1 %18, label %20, label %19

19:                                               ; preds = %17
  ret %struct.Market* %10

20:                                               ; preds = %17
  call void @llvm.lifetime.start.p0i8(i64 16, i8* nonnull %5)
  %21 = bitcast %struct.Market* %10 to i8*
  call void @llvm.memcpy.p0i8.p0i8.i64(i8* noundef nonnull align 8 dereferenceable(16) %5, i8* noundef nonnull align 8 dereferenceable(16) %21, i64 16, i1 false) #18, !tbaa.struct !9
  %22 = bitcast %struct.Market* %15 to i8*
  tail call void @llvm.memcpy.p0i8.p0i8.i64(i8* noundef nonnull align 8 dereferenceable(16) %21, i8* noundef nonnull align 8 dereferenceable(16) %22, i64 16, i1 false) #18, !tbaa.struct !9
  call void @llvm.memcpy.p0i8.p0i8.i64(i8* noundef nonnull align 8 dereferenceable(16) %22, i8* noundef nonnull align 8 dereferenceable(16) %5, i64 16, i1 false) #18, !tbaa.struct !9
  call void @llvm.lifetime.end.p0i8(i64 16, i8* nonnull %5)
  br label %6, !llvm.loop !40
}

; Function Attrs: mustprogress nofree nosync nounwind readnone speculatable willreturn
declare i64 @llvm.ctlz.i64(i64, i1 immarg) #15

; Function Attrs: minsize optsize sspstrong uwtable
define linkonce_odr dso_local void @_ZSt16__insertion_sortIN9__gnu_cxx17__normal_iteratorIP6MarketSt6vectorIS2_SaIS2_EEEENS0_5__ops15_Iter_less_iterEEvT_SA_T0_(%struct.Market* %0, %struct.Market* %1) local_unnamed_addr #3 comdat {
  %3 = alloca %struct.Market, align 8
  %4 = icmp eq %struct.Market* %0, %1
  br i1 %4, label %28, label %5

5:                                                ; preds = %2
  %6 = bitcast %struct.Market* %3 to i8*
  %7 = ptrtoint %struct.Market* %0 to i64
  %8 = bitcast %struct.Market* %0 to i8*
  br label %9

9:                                                ; preds = %26, %5
  %10 = phi %struct.Market* [ %0, %5 ], [ %11, %26 ]
  %11 = getelementptr inbounds %struct.Market, %struct.Market* %10, i64 1
  %12 = icmp eq %struct.Market* %11, %1
  br i1 %12, label %28, label %13

13:                                               ; preds = %9
  %14 = tail call zeroext i1 @_ZNK6MarketltERKS_(%struct.Market* nonnull align 8 dereferenceable(16) %11, %struct.Market* nonnull align 8 dereferenceable(16) %0) #20
  br i1 %14, label %15, label %27

15:                                               ; preds = %13
  call void @llvm.lifetime.start.p0i8(i64 16, i8* nonnull %6)
  %16 = bitcast %struct.Market* %11 to i8*
  call void @llvm.memcpy.p0i8.p0i8.i64(i8* noundef nonnull align 8 dereferenceable(16) %6, i8* noundef nonnull align 8 dereferenceable(16) %16, i64 16, i1 false), !tbaa.struct !9
  %17 = ptrtoint %struct.Market* %11 to i64
  %18 = sub i64 %17, %7
  %19 = icmp eq i64 %18, 0
  br i1 %19, label %25, label %20

20:                                               ; preds = %15
  %21 = ashr exact i64 %18, 4
  %22 = sub nsw i64 2, %21
  %23 = getelementptr inbounds %struct.Market, %struct.Market* %10, i64 %22
  %24 = bitcast %struct.Market* %23 to i8*
  tail call void @llvm.memmove.p0i8.p0i8.i64(i8* nonnull align 8 %24, i8* nonnull align 8 %8, i64 %18, i1 false) #18
  br label %25

25:                                               ; preds = %15, %20
  call void @llvm.memcpy.p0i8.p0i8.i64(i8* noundef nonnull align 8 dereferenceable(16) %8, i8* noundef nonnull align 8 dereferenceable(16) %6, i64 16, i1 false), !tbaa.struct !9
  call void @llvm.lifetime.end.p0i8(i64 16, i8* nonnull %6)
  br label %26

26:                                               ; preds = %25, %27
  br label %9, !llvm.loop !41

27:                                               ; preds = %13
  tail call void @_ZSt25__unguarded_linear_insertIN9__gnu_cxx17__normal_iteratorIP6MarketSt6vectorIS2_SaIS2_EEEENS0_5__ops14_Val_less_iterEEvT_T0_(%struct.Market* nonnull %11) #19
  br label %26

28:                                               ; preds = %9, %2
  ret void
}

; Function Attrs: inlinehint minsize mustprogress optsize sspstrong uwtable
define linkonce_odr dso_local void @_ZSt26__unguarded_insertion_sortIN9__gnu_cxx17__normal_iteratorIP6MarketSt6vectorIS2_SaIS2_EEEENS0_5__ops15_Iter_less_iterEEvT_SA_T0_(%struct.Market* %0, %struct.Market* %1) local_unnamed_addr #6 comdat {
  br label %3

3:                                                ; preds = %7, %2
  %4 = phi %struct.Market* [ %0, %2 ], [ %8, %7 ]
  %5 = icmp eq %struct.Market* %4, %1
  br i1 %5, label %6, label %7

6:                                                ; preds = %3
  ret void

7:                                                ; preds = %3
  tail call void @_ZSt25__unguarded_linear_insertIN9__gnu_cxx17__normal_iteratorIP6MarketSt6vectorIS2_SaIS2_EEEENS0_5__ops14_Val_less_iterEEvT_T0_(%struct.Market* %4) #19
  %8 = getelementptr inbounds %struct.Market, %struct.Market* %4, i64 1
  br label %3, !llvm.loop !42
}

; Function Attrs: minsize mustprogress optsize sspstrong uwtable
define linkonce_odr dso_local void @_ZSt25__unguarded_linear_insertIN9__gnu_cxx17__normal_iteratorIP6MarketSt6vectorIS2_SaIS2_EEEENS0_5__ops14_Val_less_iterEEvT_T0_(%struct.Market* %0) local_unnamed_addr #10 comdat {
  %2 = alloca %struct.Market, align 8
  %3 = bitcast %struct.Market* %2 to i8*
  call void @llvm.lifetime.start.p0i8(i64 16, i8* nonnull %3) #18
  br label %4

4:                                                ; preds = %4, %1
  %5 = phi %struct.Market* [ %0, %1 ], [ %8, %4 ]
  %6 = phi i8* [ %3, %1 ], [ %10, %4 ]
  %7 = bitcast %struct.Market* %5 to i8*
  call void @llvm.memcpy.p0i8.p0i8.i64(i8* noundef nonnull align 8 dereferenceable(16) %6, i8* noundef nonnull align 8 dereferenceable(16) %7, i64 16, i1 false)
  %8 = getelementptr inbounds %struct.Market, %struct.Market* %5, i64 -1
  %9 = call zeroext i1 @_ZNK6MarketltERKS_(%struct.Market* nonnull align 8 dereferenceable(16) %2, %struct.Market* nonnull align 8 dereferenceable(16) %8) #20
  %10 = bitcast %struct.Market* %5 to i8*
  br i1 %9, label %4, label %11, !llvm.loop !43

11:                                               ; preds = %4
  %12 = bitcast %struct.Market* %5 to i8*
  call void @llvm.memcpy.p0i8.p0i8.i64(i8* noundef nonnull align 8 dereferenceable(16) %12, i8* noundef nonnull align 8 dereferenceable(16) %3, i64 16, i1 false), !tbaa.struct !9
  call void @llvm.lifetime.end.p0i8(i64 16, i8* nonnull %3) #18
  ret void
}

; Function Attrs: minsize optsize sspstrong uwtable
define linkonce_odr dso_local i64 @_ZNSt6vectorIxSaIxEE17_S_check_init_lenEmRKS0_(i64 %0, %"class.std::allocator.2"* nonnull align 1 dereferenceable(1) %1) local_unnamed_addr #3 comdat align 2 {
  %3 = icmp ugt i64 %0, 1152921504606846975
  br i1 %3, label %4, label %5

4:                                                ; preds = %2
  tail call void @_ZSt20__throw_length_errorPKc(i8* getelementptr inbounds ([49 x i8], [49 x i8]* @.str.1, i64 0, i64 0)) #21
  unreachable

5:                                                ; preds = %2
  ret i64 %0
}

; Function Attrs: minsize mustprogress optsize sspstrong uwtable
define linkonce_odr dso_local void @_ZNSt6vectorIxSaIxEE18_M_fill_initializeEmRKx(%"class.std::vector.0"* nonnull align 8 dereferenceable(24) %0, i64 %1, i64* nonnull align 8 dereferenceable(8) %2) local_unnamed_addr #10 comdat align 2 {
  %4 = getelementptr inbounds %"class.std::vector.0", %"class.std::vector.0"* %0, i64 0, i32 0, i32 0, i32 0, i32 0
  %5 = load i64*, i64** %4, align 8, !tbaa !14
  %6 = tail call i64* @_ZSt10__fill_n_aIPxmxET_S1_T0_RKT1_St26random_access_iterator_tag(i64* %5, i64 %1, i64* nonnull align 8 dereferenceable(8) %2) #19
  %7 = getelementptr inbounds %"class.std::vector.0", %"class.std::vector.0"* %0, i64 0, i32 0, i32 0, i32 0, i32 1
  store i64* %6, i64** %7, align 8, !tbaa !44
  ret void
}

; Function Attrs: minsize nounwind optsize sspstrong uwtable
define linkonce_odr dso_local void @_ZNSt12_Vector_baseIxSaIxEED2Ev(%"struct.std::_Vector_base.1"* nonnull align 8 dereferenceable(24) %0) unnamed_addr #8 comdat align 2 personality i8* bitcast (i32 (...)* @__gxx_personality_v0 to i8*) {
  %2 = getelementptr inbounds %"struct.std::_Vector_base.1", %"struct.std::_Vector_base.1"* %0, i64 0, i32 0, i32 0, i32 0
  %3 = load i64*, i64** %2, align 8, !tbaa !14
  %4 = icmp eq i64* %3, null
  br i1 %4, label %7, label %5

5:                                                ; preds = %1
  %6 = bitcast i64* %3 to i8*
  tail call void @_ZdlPv(i8* nonnull %6) #20
  br label %7

7:                                                ; preds = %5, %1
  ret void
}

; Function Attrs: minsize mustprogress optsize sspstrong uwtable
define linkonce_odr dso_local void @_ZNSt12_Vector_baseIxSaIxEE17_M_create_storageEm(%"struct.std::_Vector_base.1"* nonnull align 8 dereferenceable(24) %0, i64 %1) local_unnamed_addr #10 comdat align 2 {
  %3 = tail call i64* @_ZNSt12_Vector_baseIxSaIxEE11_M_allocateEm(%"struct.std::_Vector_base.1"* nonnull align 8 dereferenceable(24) %0, i64 %1) #19
  %4 = getelementptr inbounds %"struct.std::_Vector_base.1", %"struct.std::_Vector_base.1"* %0, i64 0, i32 0, i32 0, i32 0
  store i64* %3, i64** %4, align 8, !tbaa !14
  %5 = getelementptr inbounds %"struct.std::_Vector_base.1", %"struct.std::_Vector_base.1"* %0, i64 0, i32 0, i32 0, i32 1
  store i64* %3, i64** %5, align 8, !tbaa !44
  %6 = getelementptr inbounds i64, i64* %3, i64 %1
  %7 = getelementptr inbounds %"struct.std::_Vector_base.1", %"struct.std::_Vector_base.1"* %0, i64 0, i32 0, i32 0, i32 2
  store i64* %6, i64** %7, align 8, !tbaa !45
  ret void
}

; Function Attrs: minsize mustprogress optsize sspstrong uwtable
define linkonce_odr dso_local i64* @_ZNSt12_Vector_baseIxSaIxEE11_M_allocateEm(%"struct.std::_Vector_base.1"* nonnull align 8 dereferenceable(24) %0, i64 %1) local_unnamed_addr #10 comdat align 2 {
  %3 = icmp eq i64 %1, 0
  br i1 %3, label %7, label %4

4:                                                ; preds = %2
  %5 = bitcast %"struct.std::_Vector_base.1"* %0 to %"class.std::allocator.2"*
  %6 = tail call i64* @_ZNSt16allocator_traitsISaIxEE8allocateERS0_m(%"class.std::allocator.2"* nonnull align 1 dereferenceable(1) %5, i64 %1) #19
  br label %7

7:                                                ; preds = %2, %4
  %8 = phi i64* [ %6, %4 ], [ null, %2 ]
  ret i64* %8
}

; Function Attrs: minsize mustprogress optsize sspstrong uwtable
define linkonce_odr dso_local i64* @_ZNSt16allocator_traitsISaIxEE8allocateERS0_m(%"class.std::allocator.2"* nonnull align 1 dereferenceable(1) %0, i64 %1) local_unnamed_addr #10 comdat align 2 {
  %3 = bitcast %"class.std::allocator.2"* %0 to %"class.__gnu_cxx::new_allocator.3"*
  %4 = tail call i64* @_ZN9__gnu_cxx13new_allocatorIxE8allocateEmPKv(%"class.__gnu_cxx::new_allocator.3"* nonnull align 1 dereferenceable(1) %3, i64 %1, i8* null) #19
  ret i64* %4
}

; Function Attrs: minsize mustprogress optsize sspstrong uwtable
define linkonce_odr dso_local i64* @_ZN9__gnu_cxx13new_allocatorIxE8allocateEmPKv(%"class.__gnu_cxx::new_allocator.3"* nonnull align 1 dereferenceable(1) %0, i64 %1, i8* %2) local_unnamed_addr #10 comdat align 2 {
  %4 = icmp ugt i64 %1, 1152921504606846975
  br i1 %4, label %5, label %9, !prof !29

5:                                                ; preds = %3
  %6 = icmp ugt i64 %1, 2305843009213693951
  br i1 %6, label %7, label %8

7:                                                ; preds = %5
  tail call void @_ZSt28__throw_bad_array_new_lengthv() #21
  unreachable

8:                                                ; preds = %5
  tail call void @_ZSt17__throw_bad_allocv() #21
  unreachable

9:                                                ; preds = %3
  %10 = shl nuw nsw i64 %1, 3
  %11 = tail call noalias nonnull i8* @_Znwm(i64 %10) #22
  %12 = bitcast i8* %11 to i64*
  ret i64* %12
}

; Function Attrs: inlinehint minsize mustprogress optsize sspstrong uwtable
define linkonce_odr dso_local i64* @_ZSt10__fill_n_aIPxmxET_S1_T0_RKT1_St26random_access_iterator_tag(i64* %0, i64 %1, i64* nonnull align 8 dereferenceable(8) %2) local_unnamed_addr #6 comdat {
  %4 = icmp eq i64 %1, 0
  br i1 %4, label %13, label %5

5:                                                ; preds = %3
  %6 = getelementptr inbounds i64, i64* %0, i64 %1
  %7 = load i64, i64* %2, align 8, !tbaa !10
  br label %8

8:                                                ; preds = %11, %5
  %9 = phi i64* [ %0, %5 ], [ %12, %11 ]
  %10 = icmp eq i64* %9, %6
  br i1 %10, label %13, label %11

11:                                               ; preds = %8
  store i64 %7, i64* %9, align 8, !tbaa !10
  %12 = getelementptr inbounds i64, i64* %9, i64 1
  br label %8, !llvm.loop !46

13:                                               ; preds = %8, %3
  %14 = phi i64* [ %0, %3 ], [ %6, %8 ]
  ret i64* %14
}

; Function Attrs: minsize optsize
declare nonnull align 8 dereferenceable(16) %"class.std::basic_istream"* @_ZNSi10_M_extractIxEERSiRT_(%"class.std::basic_istream"* nonnull align 8 dereferenceable(16), i64* nonnull align 8 dereferenceable(8)) local_unnamed_addr #0

; Function Attrs: minsize optsize sspstrong uwtable
define linkonce_odr dso_local i64 @_ZNSt6vectorI6MarketSaIS0_EE17_S_check_init_lenEmRKS1_(i64 %0, %"class.std::allocator"* nonnull align 1 dereferenceable(1) %1) local_unnamed_addr #3 comdat align 2 personality i32 (...)* @__gxx_personality_v0 {
  %3 = icmp ugt i64 %0, 576460752303423487
  br i1 %3, label %4, label %5

4:                                                ; preds = %2
  tail call void @_ZSt20__throw_length_errorPKc(i8* getelementptr inbounds ([49 x i8], [49 x i8]* @.str.1, i64 0, i64 0)) #21
  unreachable

5:                                                ; preds = %2
  ret i64 %0
}

; Function Attrs: minsize mustprogress optsize sspstrong uwtable
define linkonce_odr dso_local void @_ZNSt6vectorI6MarketSaIS0_EE21_M_default_initializeEm(%"class.std::vector"* nonnull align 8 dereferenceable(24) %0, i64 %1) local_unnamed_addr #10 comdat align 2 {
  %3 = getelementptr inbounds %"class.std::vector", %"class.std::vector"* %0, i64 0, i32 0, i32 0, i32 0, i32 0
  %4 = load %struct.Market*, %struct.Market** %3, align 8, !tbaa !18
  %5 = tail call %struct.Market* @_ZNSt27__uninitialized_default_n_1ILb1EE18__uninit_default_nIP6MarketmEET_S4_T0_(%struct.Market* %4, i64 %1) #19
  %6 = getelementptr inbounds %"class.std::vector", %"class.std::vector"* %0, i64 0, i32 0, i32 0, i32 0, i32 1
  store %struct.Market* %5, %struct.Market** %6, align 8, !tbaa !16
  ret void
}

; Function Attrs: minsize mustprogress optsize sspstrong uwtable
define linkonce_odr dso_local void @_ZNSt12_Vector_baseI6MarketSaIS0_EE17_M_create_storageEm(%"struct.std::_Vector_base"* nonnull align 8 dereferenceable(24) %0, i64 %1) local_unnamed_addr #10 comdat align 2 {
  %3 = tail call %struct.Market* @_ZNSt12_Vector_baseI6MarketSaIS0_EE11_M_allocateEm(%"struct.std::_Vector_base"* nonnull align 8 dereferenceable(24) %0, i64 %1) #19
  %4 = getelementptr inbounds %"struct.std::_Vector_base", %"struct.std::_Vector_base"* %0, i64 0, i32 0, i32 0, i32 0
  store %struct.Market* %3, %struct.Market** %4, align 8, !tbaa !18
  %5 = getelementptr inbounds %"struct.std::_Vector_base", %"struct.std::_Vector_base"* %0, i64 0, i32 0, i32 0, i32 1
  store %struct.Market* %3, %struct.Market** %5, align 8, !tbaa !16
  %6 = getelementptr inbounds %struct.Market, %struct.Market* %3, i64 %1
  %7 = getelementptr inbounds %"struct.std::_Vector_base", %"struct.std::_Vector_base"* %0, i64 0, i32 0, i32 0, i32 2
  store %struct.Market* %6, %struct.Market** %7, align 8, !tbaa !27
  ret void
}

; Function Attrs: minsize mustprogress optsize sspstrong uwtable
define linkonce_odr dso_local %struct.Market* @_ZNSt27__uninitialized_default_n_1ILb1EE18__uninit_default_nIP6MarketmEET_S4_T0_(%struct.Market* %0, i64 %1) local_unnamed_addr #10 comdat align 2 {
  %3 = icmp eq i64 %1, 0
  br i1 %3, label %9, label %4

4:                                                ; preds = %2
  %5 = bitcast %struct.Market* %0 to i8*
  tail call void @llvm.memset.p0i8.i64(i8* noundef nonnull align 8 dereferenceable(16) %5, i8 0, i64 16, i1 false) #18
  %6 = getelementptr inbounds %struct.Market, %struct.Market* %0, i64 1
  %7 = add i64 %1, -1
  %8 = tail call %struct.Market* @_ZSt10__fill_n_aIP6MarketmS0_ET_S2_T0_RKT1_St26random_access_iterator_tag(%struct.Market* nonnull %6, i64 %7, %struct.Market* nonnull align 8 dereferenceable(16) %0) #19
  br label %9

9:                                                ; preds = %4, %2
  %10 = phi %struct.Market* [ %8, %4 ], [ %0, %2 ]
  ret %struct.Market* %10
}

; Function Attrs: argmemonly mustprogress nofree nounwind willreturn writeonly
declare void @llvm.memset.p0i8.i64(i8* nocapture writeonly, i8, i64, i1 immarg) #16

; Function Attrs: inlinehint minsize mustprogress optsize sspstrong uwtable
define linkonce_odr dso_local %struct.Market* @_ZSt10__fill_n_aIP6MarketmS0_ET_S2_T0_RKT1_St26random_access_iterator_tag(%struct.Market* %0, i64 %1, %struct.Market* nonnull align 8 dereferenceable(16) %2) local_unnamed_addr #6 comdat {
  %4 = icmp eq i64 %1, 0
  br i1 %4, label %14, label %5

5:                                                ; preds = %3
  %6 = getelementptr inbounds %struct.Market, %struct.Market* %0, i64 %1
  %7 = bitcast %struct.Market* %2 to i8*
  br label %8

8:                                                ; preds = %11, %5
  %9 = phi %struct.Market* [ %0, %5 ], [ %13, %11 ]
  %10 = icmp eq %struct.Market* %9, %6
  br i1 %10, label %14, label %11

11:                                               ; preds = %8
  %12 = bitcast %struct.Market* %9 to i8*
  tail call void @llvm.memcpy.p0i8.p0i8.i64(i8* noundef nonnull align 8 dereferenceable(16) %12, i8* noundef nonnull align 8 dereferenceable(16) %7, i64 16, i1 false) #18, !tbaa.struct !9
  %13 = getelementptr inbounds %struct.Market, %struct.Market* %9, i64 1
  br label %8, !llvm.loop !47

14:                                               ; preds = %8, %3
  %15 = phi %struct.Market* [ %0, %3 ], [ %6, %8 ]
  ret %struct.Market* %15
}

; Function Attrs: minsize optsize sspstrong uwtable
define internal void @_GLOBAL__sub_I_s332710513.cpp() #3 section ".text.startup" {
  tail call void @_ZNSt8ios_base4InitC1Ev(%"class.std::ios_base::Init"* nonnull align 1 dereferenceable(1) @_ZStL8__ioinit) #19
  %1 = tail call i32 @__cxa_atexit(void (i8*)* bitcast (void (%"class.std::ios_base::Init"*)* @_ZNSt8ios_base4InitD1Ev to void (i8*)*), i8* getelementptr inbounds (%"class.std::ios_base::Init", %"class.std::ios_base::Init"* @_ZStL8__ioinit, i64 0, i32 0), i8* nonnull @__dso_handle) #18
  ret void
}

; Function Attrs: nofree nosync nounwind readnone speculatable willreturn
declare i32 @llvm.smin.i32(i32, i32) #17

attributes #0 = { minsize optsize "frame-pointer"="none" "no-trapping-math"="true" "stack-protector-buffer-size"="8" "target-cpu"="x86-64" "target-features"="+cx8,+fxsr,+mmx,+sse,+sse2,+x87" "tune-cpu"="generic" }
attributes #1 = { minsize nounwind optsize "frame-pointer"="none" "no-trapping-math"="true" "stack-protector-buffer-size"="8" "target-cpu"="x86-64" "target-features"="+cx8,+fxsr,+mmx,+sse,+sse2,+x87" "tune-cpu"="generic" }
attributes #2 = { nofree nounwind }
attributes #3 = { minsize optsize sspstrong uwtable "frame-pointer"="none" "min-legal-vector-width"="0" "no-trapping-math"="true" "stack-protector-buffer-size"="8" "target-cpu"="x86-64" "target-features"="+cx8,+fxsr,+mmx,+sse,+sse2,+x87" "tune-cpu"="generic" }
attributes #4 = { argmemonly mustprogress nofree nosync nounwind willreturn }
attributes #5 = { argmemonly mustprogress nofree nounwind willreturn }
attributes #6 = { inlinehint minsize mustprogress optsize sspstrong uwtable "frame-pointer"="none" "min-legal-vector-width"="0" "no-trapping-math"="true" "stack-protector-buffer-size"="8" "target-cpu"="x86-64" "target-features"="+cx8,+fxsr,+mmx,+sse,+sse2,+x87" "tune-cpu"="generic" }
attributes #7 = { minsize norecurse optsize sspstrong uwtable "frame-pointer"="none" "min-legal-vector-width"="0" "no-trapping-math"="true" "stack-protector-buffer-size"="8" "target-cpu"="x86-64" "target-features"="+cx8,+fxsr,+mmx,+sse,+sse2,+x87" "tune-cpu"="generic" }
attributes #8 = { minsize nounwind optsize sspstrong uwtable "frame-pointer"="none" "min-legal-vector-width"="0" "no-trapping-math"="true" "stack-protector-buffer-size"="8" "target-cpu"="x86-64" "target-features"="+cx8,+fxsr,+mmx,+sse,+sse2,+x87" "tune-cpu"="generic" }
attributes #9 = { minsize nobuiltin nounwind optsize "frame-pointer"="none" "no-trapping-math"="true" "stack-protector-buffer-size"="8" "target-cpu"="x86-64" "target-features"="+cx8,+fxsr,+mmx,+sse,+sse2,+x87" "tune-cpu"="generic" }
attributes #10 = { minsize mustprogress optsize sspstrong uwtable "frame-pointer"="none" "min-legal-vector-width"="0" "no-trapping-math"="true" "stack-protector-buffer-size"="8" "target-cpu"="x86-64" "target-features"="+cx8,+fxsr,+mmx,+sse,+sse2,+x87" "tune-cpu"="generic" }
attributes #11 = { minsize noreturn optsize "frame-pointer"="none" "no-trapping-math"="true" "stack-protector-buffer-size"="8" "target-cpu"="x86-64" "target-features"="+cx8,+fxsr,+mmx,+sse,+sse2,+x87" "tune-cpu"="generic" }
attributes #12 = { minsize nobuiltin optsize allocsize(0) "frame-pointer"="none" "no-trapping-math"="true" "stack-protector-buffer-size"="8" "target-cpu"="x86-64" "target-features"="+cx8,+fxsr,+mmx,+sse,+sse2,+x87" "tune-cpu"="generic" }
attributes #13 = { inlinehint minsize optsize sspstrong uwtable "frame-pointer"="none" "min-legal-vector-width"="0" "no-trapping-math"="true" "stack-protector-buffer-size"="8" "target-cpu"="x86-64" "target-features"="+cx8,+fxsr,+mmx,+sse,+sse2,+x87" "tune-cpu"="generic" }
attributes #14 = { minsize mustprogress nounwind optsize sspstrong uwtable "frame-pointer"="none" "min-legal-vector-width"="0" "no-trapping-math"="true" "stack-protector-buffer-size"="8" "target-cpu"="x86-64" "target-features"="+cx8,+fxsr,+mmx,+sse,+sse2,+x87" "tune-cpu"="generic" }
attributes #15 = { mustprogress nofree nosync nounwind readnone speculatable willreturn }
attributes #16 = { argmemonly mustprogress nofree nounwind willreturn writeonly }
attributes #17 = { nofree nosync nounwind readnone speculatable willreturn }
attributes #18 = { nounwind }
attributes #19 = { minsize optsize }
attributes #20 = { minsize nounwind optsize }
attributes #21 = { minsize noreturn optsize }
attributes #22 = { minsize optsize allocsize(0) }

!llvm.module.flags = !{!0, !1, !2, !3}
!llvm.ident = !{!4}

!0 = !{i32 1, !"wchar_size", i32 4}
!1 = !{i32 7, !"PIC Level", i32 2}
!2 = !{i32 7, !"PIE Level", i32 2}
!3 = !{i32 7, !"uwtable", i32 1}
!4 = !{!"clang version 13.0.0"}
!5 = !{!6, !6, i64 0}
!6 = !{!"any pointer", !7, i64 0}
!7 = !{!"omnipotent char", !8, i64 0}
!8 = !{!"Simple C++ TBAA"}
!9 = !{i64 0, i64 8, !10, i64 8, i64 8, !10}
!10 = !{!11, !11, i64 0}
!11 = !{!"long long", !7, i64 0}
!12 = !{!13, !11, i64 0}
!13 = !{!"_ZTS6Market", !11, i64 0, !11, i64 8}
!14 = !{!15, !6, i64 0}
!15 = !{!"_ZTSNSt12_Vector_baseIxSaIxEE17_Vector_impl_dataE", !6, i64 0, !6, i64 8, !6, i64 16}
!16 = !{!17, !6, i64 8}
!17 = !{!"_ZTSNSt12_Vector_baseI6MarketSaIS0_EE17_Vector_impl_dataE", !6, i64 0, !6, i64 8, !6, i64 16}
!18 = !{!17, !6, i64 0}
!19 = distinct !{!19, !20}
!20 = !{!"llvm.loop.mustprogress"}
!21 = !{!13, !11, i64 8}
!22 = distinct !{!22, !20}
!23 = distinct !{!23, !20}
!24 = distinct !{!24, !20}
!25 = distinct !{!25, !20}
!26 = distinct !{!26, !20}
!27 = !{!17, !6, i64 16}
!28 = distinct !{!28, !20}
!29 = !{!"branch_weights", i32 1, i32 2000}
!30 = !{i64 0, i64 65}
!31 = distinct !{!31, !20}
!32 = distinct !{!32, !20}
!33 = distinct !{!33, !20}
!34 = !{i64 0, i64 8, !10}
!35 = distinct !{!35, !20}
!36 = distinct !{!36, !20}
!37 = distinct !{!37, !20}
!38 = distinct !{!38, !20}
!39 = distinct !{!39, !20}
!40 = distinct !{!40, !20}
!41 = distinct !{!41, !20}
!42 = distinct !{!42, !20}
!43 = distinct !{!43, !20}
!44 = !{!15, !6, i64 8}
!45 = !{!15, !6, i64 16}
!46 = distinct !{!46, !20}
!47 = distinct !{!47, !20}
