; ModuleID = 'Project_CodeNet_C++1400/p02965/s247684034.cpp'
source_filename = "Project_CodeNet_C++1400/p02965/s247684034.cpp"
target datalayout = "e-m:e-i64:64-f80:128-n8:16:32:64-S128"
target triple = "x86_64-unknown-linux-gnu"

%"class.std::ios_base::Init" = type { i8 }
%"class.std::basic_istream" = type { i32 (...)**, i64, %"class.std::basic_ios" }
%"class.std::basic_ios" = type { %"class.std::ios_base", %"class.std::basic_ostream"*, i8, i8, %"class.std::basic_streambuf"*, %"class.std::ctype"*, %"class.std::num_put"*, %"class.std::num_get"* }
%"class.std::ios_base" = type { i32 (...)**, i64, i64, i32, i32, i32, %"struct.std::ios_base::_Callback_list"*, %"struct.std::ios_base::_Words", [8 x %"struct.std::ios_base::_Words"], i32, %"struct.std::ios_base::_Words"*, %"class.std::locale" }
%"struct.std::ios_base::_Callback_list" = type { %"struct.std::ios_base::_Callback_list"*, void (i32, %"class.std::ios_base"*, i32)*, i32, i32 }
%"struct.std::ios_base::_Words" = type { i8*, i64 }
%"class.std::locale" = type { %"class.std::locale::_Impl"* }
%"class.std::locale::_Impl" = type { i32, %"class.std::locale::facet"**, i64, %"class.std::locale::facet"**, i8** }
%"class.std::locale::facet" = type <{ i32 (...)**, i32, [4 x i8] }>
%"class.std::basic_ostream" = type { i32 (...)**, %"class.std::basic_ios" }
%"class.std::basic_streambuf" = type { i32 (...)**, i8*, i8*, i8*, i8*, i8*, i8*, %"class.std::locale" }
%"class.std::ctype" = type <{ %"class.std::locale::facet.base", [4 x i8], %struct.__locale_struct*, i8, [7 x i8], i32*, i32*, i16*, i8, [256 x i8], [256 x i8], i8, [6 x i8] }>
%"class.std::locale::facet.base" = type <{ i32 (...)**, i32 }>
%struct.__locale_struct = type { [13 x %struct.__locale_data*], i16*, i32*, i32*, [13 x i8*] }
%struct.__locale_data = type opaque
%"class.std::num_put" = type { %"class.std::locale::facet.base", [4 x i8] }
%"class.std::num_get" = type { %"class.std::locale::facet.base", [4 x i8] }
%"class.std::vector" = type { %"struct.std::_Vector_base" }
%"struct.std::_Vector_base" = type { %"struct.std::_Vector_base<int, std::allocator<int> >::_Vector_impl" }
%"struct.std::_Vector_base<int, std::allocator<int> >::_Vector_impl" = type { i32*, i32*, i32* }
%"class.__gnu_cxx::__normal_iterator" = type { i32* }
%"class.__gnu_cxx::__normal_iterator.0" = type { i32* }
%"class.std::allocator" = type { i8 }
%"class.std::move_iterator" = type { i32* }
%"class.__gnu_cxx::new_allocator" = type { i8 }

$_ZN3fft3eeaIiEET_S1_S1_RS1_S2_ = comdat any

$_ZNKSt6vectorIiSaIiEE4sizeEv = comdat any

$_ZSt4swapIiEvRT_S1_ = comdat any

$_ZNSt6vectorIiSaIiEEixEm = comdat any

$_ZNSt6vectorIiSaIiEE5beginEv = comdat any

$_ZNSt6vectorIiSaIiEE3endEv = comdat any

$_ZN9__gnu_cxxneIPiSt6vectorIiSaIiEEEEbRKNS_17__normal_iteratorIT_T0_EESA_ = comdat any

$_ZNK9__gnu_cxx17__normal_iteratorIPiSt6vectorIiSaIiEEEdeEv = comdat any

$_ZN9__gnu_cxx17__normal_iteratorIPiSt6vectorIiSaIiEEEppEv = comdat any

$_ZNSt6vectorIiSaIiEE6resizeEm = comdat any

$_ZSteqIiSaIiEEbRKSt6vectorIT_T0_ES6_ = comdat any

$_ZNSt6vectorIiSaIiEEaSERKS1_ = comdat any

$_ZNSt6vectorIiSaIiEEC2EOS1_ = comdat any

$_Z5countii = comdat any

$_ZSt4moveIRiEONSt16remove_referenceIT_E4typeEOS2_ = comdat any

$_ZN9__gnu_cxx17__normal_iteratorIPiSt6vectorIiSaIiEEEC2ERKS1_ = comdat any

$_ZNK9__gnu_cxx17__normal_iteratorIPiSt6vectorIiSaIiEEE4baseEv = comdat any

$_ZNSt6vectorIiSaIiEE17_M_default_appendEm = comdat any

$_ZNSt6vectorIiSaIiEE15_M_erase_at_endEPi = comdat any

$_ZSt27__uninitialized_default_n_aIPimiET_S1_T0_RSaIT1_E = comdat any

$_ZNSt12_Vector_baseIiSaIiEE19_M_get_Tp_allocatorEv = comdat any

$_ZNKSt6vectorIiSaIiEE12_M_check_lenEmPKc = comdat any

$_ZNSt12_Vector_baseIiSaIiEE11_M_allocateEm = comdat any

$_ZSt34__uninitialized_move_if_noexcept_aIPiS0_SaIiEET0_T_S3_S2_RT1_ = comdat any

$_ZSt8_DestroyIPiiEvT_S1_RSaIT0_E = comdat any

$_ZNSt12_Vector_baseIiSaIiEE13_M_deallocateEPim = comdat any

$__clang_call_terminate = comdat any

$_ZSt25__uninitialized_default_nIPimET_S1_T0_ = comdat any

$_ZNSt27__uninitialized_default_n_1ILb1EE18__uninit_default_nIPimEET_S3_T0_ = comdat any

$_ZSt6fill_nIPimiET_S1_T0_RKT1_ = comdat any

$_ZSt10__fill_n_aIPimiEN9__gnu_cxx11__enable_ifIXsr11__is_scalarIT1_EE7__valueET_E6__typeES4_T0_RKS3_ = comdat any

$_ZSt12__niter_baseIPiENSt11_Niter_baseIT_E13iterator_typeES2_ = comdat any

$_ZNSt10_Iter_baseIPiLb0EE7_S_baseES0_ = comdat any

$_ZNKSt6vectorIiSaIiEE8max_sizeEv = comdat any

$_ZSt3maxImERKT_S2_S2_ = comdat any

$_ZNSt16allocator_traitsISaIiEE8max_sizeERKS0_ = comdat any

$_ZNKSt12_Vector_baseIiSaIiEE19_M_get_Tp_allocatorEv = comdat any

$_ZNK9__gnu_cxx13new_allocatorIiE8max_sizeEv = comdat any

$_ZNSt16allocator_traitsISaIiEE8allocateERS0_m = comdat any

$_ZN9__gnu_cxx13new_allocatorIiE8allocateEmPKv = comdat any

$_ZSt22__uninitialized_copy_aISt13move_iteratorIPiES1_iET0_T_S4_S3_RSaIT1_E = comdat any

$_ZSt32__make_move_if_noexcept_iteratorIPiSt13move_iteratorIS0_EET0_T_ = comdat any

$_ZSt18uninitialized_copyISt13move_iteratorIPiES1_ET0_T_S4_S3_ = comdat any

$_ZNSt20__uninitialized_copyILb1EE13__uninit_copyISt13move_iteratorIPiES3_EET0_T_S6_S5_ = comdat any

$_ZSt4copyISt13move_iteratorIPiES1_ET0_T_S4_S3_ = comdat any

$_ZSt14__copy_move_a2ILb1EPiS0_ET1_T0_S2_S1_ = comdat any

$_ZSt12__miter_baseISt13move_iteratorIPiEENSt11_Miter_baseIT_E13iterator_typeES4_ = comdat any

$_ZSt13__copy_move_aILb1EPiS0_ET1_T0_S2_S1_ = comdat any

$_ZNSt11__copy_moveILb1ELb1ESt26random_access_iterator_tagE8__copy_mIiEEPT_PKS3_S6_S4_ = comdat any

$_ZNSt10_Iter_baseISt13move_iteratorIPiELb1EE7_S_baseES2_ = comdat any

$_ZNKSt13move_iteratorIPiE4baseEv = comdat any

$_ZNSt13move_iteratorIPiEC2ES0_ = comdat any

$_ZSt8_DestroyIPiEvT_S1_ = comdat any

$_ZNSt12_Destroy_auxILb1EE9__destroyIPiEEvT_S3_ = comdat any

$_ZNSt16allocator_traitsISaIiEE10deallocateERS0_Pim = comdat any

$_ZN9__gnu_cxx13new_allocatorIiE10deallocateEPim = comdat any

$_ZSt5equalIN9__gnu_cxx17__normal_iteratorIPKiSt6vectorIiSaIiEEEES7_EbT_S8_T0_ = comdat any

$_ZNKSt6vectorIiSaIiEE5beginEv = comdat any

$_ZNKSt6vectorIiSaIiEE3endEv = comdat any

$_ZSt11__equal_auxIPKiS1_EbT_S2_T0_ = comdat any

$_ZSt12__niter_baseIN9__gnu_cxx17__normal_iteratorIPKiSt6vectorIiSaIiEEEEENSt11_Niter_baseIT_E13iterator_typeES9_ = comdat any

$_ZNSt7__equalILb1EE5equalIiEEbPKT_S4_S4_ = comdat any

$_ZNSt10_Iter_baseIN9__gnu_cxx17__normal_iteratorIPKiSt6vectorIiSaIiEEEELb1EE7_S_baseES7_ = comdat any

$_ZNK9__gnu_cxx17__normal_iteratorIPKiSt6vectorIiSaIiEEE4baseEv = comdat any

$_ZN9__gnu_cxx17__normal_iteratorIPKiSt6vectorIiSaIiEEEC2ERKS2_ = comdat any

$_ZNKSt6vectorIiSaIiEE8capacityEv = comdat any

$_ZNSt6vectorIiSaIiEE20_M_allocate_and_copyIN9__gnu_cxx17__normal_iteratorIPKiS1_EEEEPimT_S9_ = comdat any

$_ZSt8_DestroyIN9__gnu_cxx17__normal_iteratorIPiSt6vectorIiSaIiEEEEiEvT_S7_RSaIT0_E = comdat any

$_ZSt4copyIN9__gnu_cxx17__normal_iteratorIPKiSt6vectorIiSaIiEEEENS1_IPiS6_EEET0_T_SB_SA_ = comdat any

$_ZSt4copyIPiS0_ET0_T_S2_S1_ = comdat any

$_ZSt22__uninitialized_copy_aIPiS0_iET0_T_S2_S1_RSaIT1_E = comdat any

$_ZSt22__uninitialized_copy_aIN9__gnu_cxx17__normal_iteratorIPKiSt6vectorIiSaIiEEEEPiiET0_T_SA_S9_RSaIT1_E = comdat any

$_ZSt18uninitialized_copyIN9__gnu_cxx17__normal_iteratorIPKiSt6vectorIiSaIiEEEEPiET0_T_SA_S9_ = comdat any

$_ZNSt20__uninitialized_copyILb1EE13__uninit_copyIN9__gnu_cxx17__normal_iteratorIPKiSt6vectorIiSaIiEEEEPiEET0_T_SC_SB_ = comdat any

$_ZSt4copyIN9__gnu_cxx17__normal_iteratorIPKiSt6vectorIiSaIiEEEEPiET0_T_SA_S9_ = comdat any

$_ZSt14__copy_move_a2ILb0EN9__gnu_cxx17__normal_iteratorIPKiSt6vectorIiSaIiEEEEPiET1_T0_SA_S9_ = comdat any

$_ZSt12__miter_baseIN9__gnu_cxx17__normal_iteratorIPKiSt6vectorIiSaIiEEEEENSt11_Miter_baseIT_E13iterator_typeES9_ = comdat any

$_ZSt13__copy_move_aILb0EPKiPiET1_T0_S4_S3_ = comdat any

$_ZNSt11__copy_moveILb0ELb1ESt26random_access_iterator_tagE8__copy_mIiEEPT_PKS3_S6_S4_ = comdat any

$_ZNSt10_Iter_baseIN9__gnu_cxx17__normal_iteratorIPKiSt6vectorIiSaIiEEEELb0EE7_S_baseES7_ = comdat any

$_ZSt8_DestroyIN9__gnu_cxx17__normal_iteratorIPiSt6vectorIiSaIiEEEEEvT_S7_ = comdat any

$_ZNSt12_Destroy_auxILb1EE9__destroyIN9__gnu_cxx17__normal_iteratorIPiSt6vectorIiSaIiEEEEEEvT_S9_ = comdat any

$_ZSt14__copy_move_a2ILb0EN9__gnu_cxx17__normal_iteratorIPKiSt6vectorIiSaIiEEEENS1_IPiS6_EEET1_T0_SB_SA_ = comdat any

$_ZSt12__niter_baseIN9__gnu_cxx17__normal_iteratorIPiSt6vectorIiSaIiEEEEENSt11_Niter_baseIT_E13iterator_typeES8_ = comdat any

$_ZNSt10_Iter_baseIN9__gnu_cxx17__normal_iteratorIPiSt6vectorIiSaIiEEEELb1EE7_S_baseES6_ = comdat any

$_ZSt14__copy_move_a2ILb0EPiS0_ET1_T0_S2_S1_ = comdat any

$_ZSt12__miter_baseIPiENSt11_Miter_baseIT_E13iterator_typeES2_ = comdat any

$_ZSt13__copy_move_aILb0EPiS0_ET1_T0_S2_S1_ = comdat any

$_ZSt18uninitialized_copyIPiS0_ET0_T_S2_S1_ = comdat any

$_ZNSt20__uninitialized_copyILb1EE13__uninit_copyIPiS2_EET0_T_S4_S3_ = comdat any

$_ZSt4moveIRSt6vectorIiSaIiEEEONSt16remove_referenceIT_E4typeEOS5_ = comdat any

$_ZNSt12_Vector_baseIiSaIiEEC2EOS1_ = comdat any

$_ZSt4moveIRSaIiEEONSt16remove_referenceIT_E4typeEOS3_ = comdat any

$_ZNSt12_Vector_baseIiSaIiEE12_Vector_implC2EOS0_ = comdat any

$_ZNSt12_Vector_baseIiSaIiEE12_Vector_impl12_M_swap_dataERS2_ = comdat any

$_ZNSaIiEC2ERKS_ = comdat any

$_ZN9__gnu_cxx13new_allocatorIiEC2ERKS1_ = comdat any

$_ZSt4swapIPiEvRT_S2_ = comdat any

$_ZSt4moveIRPiEONSt16remove_referenceIT_E4typeEOS3_ = comdat any

@_ZStL8__ioinit = internal global %"class.std::ios_base::Init" zeroinitializer, align 1
@__dso_handle = external global i8
@fact = global [2500005 x i32] zeroinitializer, align 16
@w = global [5000001 x i32] zeroinitializer, align 16
@inv = global [2500005 x i32] zeroinitializer, align 16
@R = global [2000001 x i32] zeroinitializer, align 16
@t1 = global [2000001 x i32] zeroinitializer, align 16
@t2 = global [2000001 x i32] zeroinitializer, align 16
@lim = global i32 0, align 4
@dp = global [100 x [200 x i32]] zeroinitializer, align 16
@_ZSt3cin = external global %"class.std::basic_istream", align 8
@_ZSt4cout = external global %"class.std::basic_ostream", align 8
@.str = private unnamed_addr constant [26 x i8] c"vector::_M_default_append\00", align 1
@llvm.global_ctors = appending global [1 x { i32, void ()*, i8* }] [{ i32, void ()*, i8* } { i32 65535, void ()* @_GLOBAL__sub_I_s247684034.cpp, i8* null }]

; Function Attrs: noinline uwtable
define internal void @__cxx_global_var_init() #0 section ".text.startup" {
  call void @_ZNSt8ios_base4InitC1Ev(%"class.std::ios_base::Init"* @_ZStL8__ioinit)
  %1 = call i32 @__cxa_atexit(void (i8*)* bitcast (void (%"class.std::ios_base::Init"*)* @_ZNSt8ios_base4InitD1Ev to void (i8*)*), i8* getelementptr inbounds (%"class.std::ios_base::Init", %"class.std::ios_base::Init"* @_ZStL8__ioinit, i32 0, i32 0), i8* @__dso_handle) #3
  ret void
}

declare void @_ZNSt8ios_base4InitC1Ev(%"class.std::ios_base::Init"*) unnamed_addr #1

; Function Attrs: nounwind
declare void @_ZNSt8ios_base4InitD1Ev(%"class.std::ios_base::Init"*) unnamed_addr #2

; Function Attrs: nounwind
declare i32 @__cxa_atexit(void (i8*)*, i8*, i8*) #3

; Function Attrs: noinline nounwind uwtable
define i32 @_Z4multii(i32, i32) #4 {
  %3 = alloca i32, align 4
  %4 = alloca i32, align 4
  store i32 %0, i32* %3, align 4
  store i32 %1, i32* %4, align 4
  %5 = load i32, i32* %3, align 4
  %6 = sext i32 %5 to i64
  %7 = load i32, i32* %4, align 4
  %8 = sext i32 %7 to i64
  %9 = mul nsw i64 %6, %8
  %10 = srem i64 %9, 998244353
  %11 = trunc i64 %10 to i32
  ret i32 %11
}

; Function Attrs: noinline nounwind uwtable
define i32 @_Z3addii(i32, i32) #4 {
  %3 = alloca i32, align 4
  %4 = alloca i32, align 4
  store i32 %0, i32* %3, align 4
  store i32 %1, i32* %4, align 4
  %5 = load i32, i32* %3, align 4
  %6 = load i32, i32* %4, align 4
  %7 = add i32 %5, -2025394419
  %8 = add i32 %7, %6
  %9 = sub i32 %8, -2025394419
  %10 = add nsw i32 %5, %6
  %11 = icmp sge i32 %9, 998244353
  br i1 %11, label %12, label %23

; <label>:12:                                     ; preds = %2
  %13 = load i32, i32* %3, align 4
  %14 = load i32, i32* %4, align 4
  %15 = add i32 %13, 1821300455
  %16 = add i32 %15, %14
  %17 = sub i32 %16, 1821300455
  %18 = add nsw i32 %13, %14
  %19 = add i32 %17, 659505380
  %20 = sub i32 %19, 998244353
  %21 = sub i32 %20, 659505380
  %22 = sub nsw i32 %17, 998244353
  br label %29

; <label>:23:                                     ; preds = %2
  %24 = load i32, i32* %3, align 4
  %25 = load i32, i32* %4, align 4
  %26 = sub i32 0, %25
  %27 = sub i32 %24, %26
  %28 = add nsw i32 %24, %25
  br label %29

; <label>:29:                                     ; preds = %23, %12
  %30 = phi i32 [ %21, %12 ], [ %27, %23 ]
  ret i32 %30
}

; Function Attrs: noinline nounwind uwtable
define i32 @_Z3subii(i32, i32) #4 {
  %3 = alloca i32, align 4
  %4 = alloca i32, align 4
  store i32 %0, i32* %3, align 4
  store i32 %1, i32* %4, align 4
  %5 = load i32, i32* %3, align 4
  %6 = load i32, i32* %4, align 4
  %7 = add i32 %5, -438490097
  %8 = sub i32 %7, %6
  %9 = sub i32 %8, -438490097
  %10 = sub nsw i32 %5, %6
  %11 = icmp slt i32 %9, 0
  br i1 %11, label %12, label %23

; <label>:12:                                     ; preds = %2
  %13 = load i32, i32* %3, align 4
  %14 = load i32, i32* %4, align 4
  %15 = add i32 %13, -161621674
  %16 = sub i32 %15, %14
  %17 = sub i32 %16, -161621674
  %18 = sub nsw i32 %13, %14
  %19 = sub i32 %17, -1606204524
  %20 = add i32 %19, 998244353
  %21 = add i32 %20, -1606204524
  %22 = add nsw i32 %17, 998244353
  br label %29

; <label>:23:                                     ; preds = %2
  %24 = load i32, i32* %3, align 4
  %25 = load i32, i32* %4, align 4
  %26 = sub i32 0, %25
  %27 = add i32 %24, %26
  %28 = sub nsw i32 %24, %25
  br label %29

; <label>:29:                                     ; preds = %23, %12
  %30 = phi i32 [ %21, %12 ], [ %27, %23 ]
  ret i32 %30
}

; Function Attrs: noinline nounwind uwtable
define i32 @_Z1cii(i32, i32) #4 {
  %3 = alloca i32, align 4
  %4 = alloca i32, align 4
  %5 = alloca i32, align 4
  store i32 %0, i32* %4, align 4
  store i32 %1, i32* %5, align 4
  %6 = load i32, i32* %4, align 4
  %7 = load i32, i32* %5, align 4
  %8 = icmp slt i32 %6, %7
  br i1 %8, label %9, label %10

; <label>:9:                                      ; preds = %2
  store i32 1, i32* %3, align 4
  br label %30

; <label>:10:                                     ; preds = %2
  %11 = load i32, i32* %4, align 4
  %12 = sext i32 %11 to i64
  %13 = getelementptr inbounds [2500005 x i32], [2500005 x i32]* @fact, i64 0, i64 %12
  %14 = load i32, i32* %13, align 4
  %15 = load i32, i32* %5, align 4
  %16 = sext i32 %15 to i64
  %17 = getelementptr inbounds [2500005 x i32], [2500005 x i32]* @inv, i64 0, i64 %16
  %18 = load i32, i32* %17, align 4
  %19 = load i32, i32* %4, align 4
  %20 = load i32, i32* %5, align 4
  %21 = sub i32 %19, -1498238005
  %22 = sub i32 %21, %20
  %23 = add i32 %22, -1498238005
  %24 = sub nsw i32 %19, %20
  %25 = sext i32 %23 to i64
  %26 = getelementptr inbounds [2500005 x i32], [2500005 x i32]* @inv, i64 0, i64 %25
  %27 = load i32, i32* %26, align 4
  %28 = call i32 @_Z4multii(i32 %18, i32 %27)
  %29 = call i32 @_Z4multii(i32 %14, i32 %28)
  store i32 %29, i32* %3, align 4
  br label %30

; <label>:30:                                     ; preds = %10, %9
  %31 = load i32, i32* %3, align 4
  ret i32 %31
}

; Function Attrs: noinline nounwind uwtable
define i32 @_Z6modPowii(i32, i32) #4 {
  %3 = alloca i32, align 4
  %4 = alloca i32, align 4
  %5 = alloca i32, align 4
  store i32 %0, i32* %3, align 4
  store i32 %1, i32* %4, align 4
  store i32 1, i32* %5, align 4
  br label %6

; <label>:6:                                      ; preds = %24, %2
  %7 = load i32, i32* %4, align 4
  %8 = icmp ne i32 %7, 0
  br i1 %8, label %9, label %30

; <label>:9:                                      ; preds = %6
  %10 = load i32, i32* %4, align 4
  %11 = xor i32 %10, -1
  %12 = xor i32 1, -1
  %13 = xor i32 775472620, -1
  %14 = or i32 %11, %12
  %15 = or i32 775472620, %13
  %16 = xor i32 %14, -1
  %17 = and i32 %16, %15
  %18 = and i32 %10, 1
  %19 = icmp ne i32 %17, 0
  br i1 %19, label %20, label %24

; <label>:20:                                     ; preds = %9
  %21 = load i32, i32* %5, align 4
  %22 = load i32, i32* %3, align 4
  %23 = call i32 @_Z4multii(i32 %21, i32 %22)
  store i32 %23, i32* %5, align 4
  br label %24

; <label>:24:                                     ; preds = %20, %9
  %25 = load i32, i32* %4, align 4
  %26 = ashr i32 %25, 1
  store i32 %26, i32* %4, align 4
  %27 = load i32, i32* %3, align 4
  %28 = load i32, i32* %3, align 4
  %29 = call i32 @_Z4multii(i32 %27, i32 %28)
  store i32 %29, i32* %3, align 4
  br label %6

; <label>:30:                                     ; preds = %6
  %31 = load i32, i32* %5, align 4
  ret i32 %31
}

; Function Attrs: noinline uwtable
define i32 @_ZN3fft7inverseEi(i32) #0 {
  %2 = alloca i32, align 4
  %3 = alloca i32, align 4
  %4 = alloca i32, align 4
  store i32 %0, i32* %2, align 4
  %5 = load i32, i32* %2, align 4
  %6 = call i32 @_ZN3fft3eeaIiEET_S1_S1_RS1_S2_(i32 %5, i32 998244353, i32* dereferenceable(4) %3, i32* dereferenceable(4) %4)
  %7 = load i32, i32* %3, align 4
  %8 = srem i32 %7, 998244353
  store i32 %8, i32* %3, align 4
  %9 = load i32, i32* %3, align 4
  %10 = icmp slt i32 %9, 0
  br i1 %10, label %11, label %17

; <label>:11:                                     ; preds = %1
  %12 = load i32, i32* %3, align 4
  %13 = sub i32 %12, 4233789
  %14 = add i32 %13, 998244353
  %15 = add i32 %14, 4233789
  %16 = add nsw i32 %12, 998244353
  store i32 %15, i32* %3, align 4
  br label %17

; <label>:17:                                     ; preds = %11, %1
  %18 = load i32, i32* %3, align 4
  ret i32 %18
}

; Function Attrs: noinline uwtable
define linkonce_odr i32 @_ZN3fft3eeaIiEET_S1_S1_RS1_S2_(i32, i32, i32* dereferenceable(4), i32* dereferenceable(4)) #0 comdat {
  %5 = alloca i32, align 4
  %6 = alloca i32, align 4
  %7 = alloca i32, align 4
  %8 = alloca i32*, align 8
  %9 = alloca i32*, align 8
  %10 = alloca i32, align 4
  %11 = alloca i32, align 4
  %12 = alloca i32, align 4
  store i32 %0, i32* %6, align 4
  store i32 %1, i32* %7, align 4
  store i32* %2, i32** %8, align 8
  store i32* %3, i32** %9, align 8
  %13 = load i32, i32* %7, align 4
  %14 = icmp ne i32 %13, 0
  br i1 %14, label %19, label %15

; <label>:15:                                     ; preds = %4
  %16 = load i32*, i32** %8, align 8
  store i32 1, i32* %16, align 4
  %17 = load i32*, i32** %9, align 8
  store i32 0, i32* %17, align 4
  %18 = load i32, i32* %6, align 4
  store i32 %18, i32* %5, align 4
  br label %38

; <label>:19:                                     ; preds = %4
  %20 = load i32, i32* %7, align 4
  %21 = load i32, i32* %6, align 4
  %22 = load i32, i32* %7, align 4
  %23 = srem i32 %21, %22
  %24 = call i32 @_ZN3fft3eeaIiEET_S1_S1_RS1_S2_(i32 %20, i32 %23, i32* dereferenceable(4) %10, i32* dereferenceable(4) %11)
  store i32 %24, i32* %12, align 4
  %25 = load i32, i32* %11, align 4
  %26 = load i32*, i32** %8, align 8
  store i32 %25, i32* %26, align 4
  %27 = load i32, i32* %10, align 4
  %28 = load i32, i32* %6, align 4
  %29 = load i32, i32* %7, align 4
  %30 = sdiv i32 %28, %29
  %31 = load i32, i32* %11, align 4
  %32 = mul nsw i32 %30, %31
  %33 = sub i32 0, %32
  %34 = add i32 %27, %33
  %35 = sub nsw i32 %27, %32
  %36 = load i32*, i32** %9, align 8
  store i32 %34, i32* %36, align 4
  %37 = load i32, i32* %12, align 4
  store i32 %37, i32* %5, align 4
  br label %38

; <label>:38:                                     ; preds = %19, %15
  %39 = load i32, i32* %5, align 4
  ret i32 %39
}

; Function Attrs: noinline uwtable
define void @_ZN3fft3fftERSt6vectorIiSaIiEEb(%"class.std::vector"* dereferenceable(24), i1 zeroext) #0 {
  %3 = alloca %"class.std::vector"*, align 8
  %4 = alloca i8, align 1
  %5 = alloca i32, align 4
  %6 = alloca i32, align 4
  %7 = alloca i32, align 4
  %8 = alloca i32, align 4
  %9 = alloca i32, align 4
  %10 = alloca i32, align 4
  %11 = alloca i32, align 4
  %12 = alloca i32, align 4
  %13 = alloca i32, align 4
  %14 = alloca i32, align 4
  %15 = alloca i32, align 4
  %16 = alloca i32, align 4
  %17 = alloca i32, align 4
  %18 = alloca %"class.std::vector"*, align 8
  %19 = alloca %"class.__gnu_cxx::__normal_iterator", align 8
  %20 = alloca %"class.__gnu_cxx::__normal_iterator", align 8
  %21 = alloca i32*, align 8
  store %"class.std::vector"* %0, %"class.std::vector"** %3, align 8
  %22 = zext i1 %1 to i8
  store i8 %22, i8* %4, align 1
  %23 = load %"class.std::vector"*, %"class.std::vector"** %3, align 8
  %24 = call i64 @_ZNKSt6vectorIiSaIiEE4sizeEv(%"class.std::vector"* %23) #3
  %25 = trunc i64 %24 to i32
  store i32 %25, i32* %5, align 4
  store i32 1, i32* %6, align 4
  store i32 0, i32* %7, align 4
  br label %26

; <label>:26:                                     ; preds = %84, %2
  %27 = load i32, i32* %6, align 4
  %28 = load i32, i32* %5, align 4
  %29 = icmp slt i32 %27, %28
  br i1 %29, label %30, label %90

; <label>:30:                                     ; preds = %26
  %31 = load i32, i32* %5, align 4
  %32 = ashr i32 %31, 1
  store i32 %32, i32* %8, align 4
  br label %33

; <label>:33:                                     ; preds = %59, %30
  %34 = load i32, i32* %7, align 4
  %35 = load i32, i32* %8, align 4
  %36 = xor i32 %34, -1
  %37 = xor i32 %35, -1
  %38 = xor i32 -1610051955, -1
  %39 = or i32 %36, %37
  %40 = or i32 -1610051955, %38
  %41 = xor i32 %39, -1
  %42 = and i32 %41, %40
  %43 = and i32 %34, %35
  %44 = icmp ne i32 %42, 0
  br i1 %44, label %45, label %62

; <label>:45:                                     ; preds = %33
  %46 = load i32, i32* %8, align 4
  %47 = load i32, i32* %7, align 4
  %48 = xor i32 %47, -1
  %49 = and i32 -1965301110, %48
  %50 = xor i32 -1965301110, -1
  %51 = and i32 %47, %50
  %52 = xor i32 %46, -1
  %53 = and i32 %52, -1965301110
  %54 = and i32 %46, %50
  %55 = or i32 %49, %51
  %56 = or i32 %53, %54
  %57 = xor i32 %55, %56
  %58 = xor i32 %47, %46
  store i32 %57, i32* %7, align 4
  br label %59

; <label>:59:                                     ; preds = %45
  %60 = load i32, i32* %8, align 4
  %61 = ashr i32 %60, 1
  store i32 %61, i32* %8, align 4
  br label %33

; <label>:62:                                     ; preds = %33
  %63 = load i32, i32* %8, align 4
  %64 = load i32, i32* %7, align 4
  %65 = xor i32 %64, -1
  %66 = and i32 %63, %65
  %67 = xor i32 %63, -1
  %68 = and i32 %64, %67
  %69 = or i32 %66, %68
  %70 = xor i32 %64, %63
  store i32 %69, i32* %7, align 4
  %71 = load i32, i32* %6, align 4
  %72 = load i32, i32* %7, align 4
  %73 = icmp slt i32 %71, %72
  br i1 %73, label %74, label %83

; <label>:74:                                     ; preds = %62
  %75 = load %"class.std::vector"*, %"class.std::vector"** %3, align 8
  %76 = load i32, i32* %6, align 4
  %77 = sext i32 %76 to i64
  %78 = call dereferenceable(4) i32* @_ZNSt6vectorIiSaIiEEixEm(%"class.std::vector"* %75, i64 %77) #3
  %79 = load %"class.std::vector"*, %"class.std::vector"** %3, align 8
  %80 = load i32, i32* %7, align 4
  %81 = sext i32 %80 to i64
  %82 = call dereferenceable(4) i32* @_ZNSt6vectorIiSaIiEEixEm(%"class.std::vector"* %79, i64 %81) #3
  call void @_ZSt4swapIiEvRT_S1_(i32* dereferenceable(4) %78, i32* dereferenceable(4) %82) #3
  br label %83

; <label>:83:                                     ; preds = %74, %62
  br label %84

; <label>:84:                                     ; preds = %83
  %85 = load i32, i32* %6, align 4
  %86 = add i32 %85, -1565273229
  %87 = add i32 %86, 1
  %88 = sub i32 %87, -1565273229
  %89 = add nsw i32 %85, 1
  store i32 %88, i32* %6, align 4
  br label %26

; <label>:90:                                     ; preds = %26
  store i32 2, i32* %9, align 4
  br label %91

; <label>:91:                                     ; preds = %263, %90
  %92 = load i32, i32* %9, align 4
  %93 = load i32, i32* %5, align 4
  %94 = icmp sle i32 %92, %93
  br i1 %94, label %95, label %266

; <label>:95:                                     ; preds = %91
  %96 = load i8, i8* %4, align 1
  %97 = trunc i8 %96 to i1
  %98 = select i1 %97, i32 469870224, i32 15311432
  store i32 %98, i32* %10, align 4
  %99 = load i32, i32* %9, align 4
  store i32 %99, i32* %11, align 4
  br label %100

; <label>:100:                                    ; preds = %112, %95
  %101 = load i32, i32* %11, align 4
  %102 = icmp slt i32 %101, 8388608
  br i1 %102, label %103, label %115

; <label>:103:                                    ; preds = %100
  %104 = load i32, i32* %10, align 4
  %105 = sext i32 %104 to i64
  %106 = mul nsw i64 1, %105
  %107 = load i32, i32* %10, align 4
  %108 = sext i32 %107 to i64
  %109 = mul nsw i64 %106, %108
  %110 = srem i64 %109, 998244353
  %111 = trunc i64 %110 to i32
  store i32 %111, i32* %10, align 4
  br label %112

; <label>:112:                                    ; preds = %103
  %113 = load i32, i32* %11, align 4
  %114 = shl i32 %113, 1
  store i32 %114, i32* %11, align 4
  br label %100

; <label>:115:                                    ; preds = %100
  store i32 0, i32* %12, align 4
  br label %116

; <label>:116:                                    ; preds = %255, %115
  %117 = load i32, i32* %12, align 4
  %118 = load i32, i32* %5, align 4
  %119 = icmp slt i32 %117, %118
  br i1 %119, label %120, label %262

; <label>:120:                                    ; preds = %116
  store i32 1, i32* %13, align 4
  store i32 0, i32* %14, align 4
  br label %121

; <label>:121:                                    ; preds = %247, %120
  %122 = load i32, i32* %14, align 4
  %123 = load i32, i32* %9, align 4
  %124 = sdiv i32 %123, 2
  %125 = icmp slt i32 %122, %124
  br i1 %125, label %126, label %254

; <label>:126:                                    ; preds = %121
  %127 = load %"class.std::vector"*, %"class.std::vector"** %3, align 8
  %128 = load i32, i32* %12, align 4
  %129 = load i32, i32* %14, align 4
  %130 = add i32 %128, -776190155
  %131 = add i32 %130, %129
  %132 = sub i32 %131, -776190155
  %133 = add nsw i32 %128, %129
  %134 = sext i32 %132 to i64
  %135 = call dereferenceable(4) i32* @_ZNSt6vectorIiSaIiEEixEm(%"class.std::vector"* %127, i64 %134) #3
  %136 = load i32, i32* %135, align 4
  store i32 %136, i32* %15, align 4
  %137 = load %"class.std::vector"*, %"class.std::vector"** %3, align 8
  %138 = load i32, i32* %12, align 4
  %139 = load i32, i32* %14, align 4
  %140 = sub i32 %138, 333139353
  %141 = add i32 %140, %139
  %142 = add i32 %141, 333139353
  %143 = add nsw i32 %138, %139
  %144 = load i32, i32* %9, align 4
  %145 = sdiv i32 %144, 2
  %146 = add i32 %142, -1338128534
  %147 = add i32 %146, %145
  %148 = sub i32 %147, -1338128534
  %149 = add nsw i32 %142, %145
  %150 = sext i32 %148 to i64
  %151 = call dereferenceable(4) i32* @_ZNSt6vectorIiSaIiEEixEm(%"class.std::vector"* %137, i64 %150) #3
  %152 = load i32, i32* %151, align 4
  %153 = sext i32 %152 to i64
  %154 = mul nsw i64 1, %153
  %155 = load i32, i32* %13, align 4
  %156 = sext i32 %155 to i64
  %157 = mul nsw i64 %154, %156
  %158 = srem i64 %157, 998244353
  %159 = trunc i64 %158 to i32
  store i32 %159, i32* %16, align 4
  %160 = load i32, i32* %15, align 4
  %161 = load i32, i32* %16, align 4
  %162 = sub i32 %160, -542977748
  %163 = add i32 %162, %161
  %164 = add i32 %163, -542977748
  %165 = add nsw i32 %160, %161
  %166 = icmp slt i32 %164, 998244353
  br i1 %166, label %167, label %175

; <label>:167:                                    ; preds = %126
  %168 = load i32, i32* %15, align 4
  %169 = load i32, i32* %16, align 4
  %170 = sub i32 0, %168
  %171 = sub i32 0, %169
  %172 = add i32 %170, %171
  %173 = sub i32 0, %172
  %174 = add nsw i32 %168, %169
  br label %185

; <label>:175:                                    ; preds = %126
  %176 = load i32, i32* %15, align 4
  %177 = load i32, i32* %16, align 4
  %178 = sub i32 0, %177
  %179 = sub i32 %176, %178
  %180 = add nsw i32 %176, %177
  %181 = sub i32 %179, 1969853696
  %182 = sub i32 %181, 998244353
  %183 = add i32 %182, 1969853696
  %184 = sub nsw i32 %179, 998244353
  br label %185

; <label>:185:                                    ; preds = %175, %167
  %186 = phi i32 [ %173, %167 ], [ %183, %175 ]
  %187 = load %"class.std::vector"*, %"class.std::vector"** %3, align 8
  %188 = load i32, i32* %12, align 4
  %189 = load i32, i32* %14, align 4
  %190 = add i32 %188, 1361247923
  %191 = add i32 %190, %189
  %192 = sub i32 %191, 1361247923
  %193 = add nsw i32 %188, %189
  %194 = sext i32 %192 to i64
  %195 = call dereferenceable(4) i32* @_ZNSt6vectorIiSaIiEEixEm(%"class.std::vector"* %187, i64 %194) #3
  store i32 %186, i32* %195, align 4
  %196 = load i32, i32* %15, align 4
  %197 = load i32, i32* %16, align 4
  %198 = sub i32 %196, -1521750287
  %199 = sub i32 %198, %197
  %200 = add i32 %199, -1521750287
  %201 = sub nsw i32 %196, %197
  %202 = icmp sge i32 %200, 0
  br i1 %202, label %203, label %210

; <label>:203:                                    ; preds = %185
  %204 = load i32, i32* %15, align 4
  %205 = load i32, i32* %16, align 4
  %206 = sub i32 %204, -1458724900
  %207 = sub i32 %206, %205
  %208 = add i32 %207, -1458724900
  %209 = sub nsw i32 %204, %205
  br label %221

; <label>:210:                                    ; preds = %185
  %211 = load i32, i32* %15, align 4
  %212 = load i32, i32* %16, align 4
  %213 = sub i32 %211, 1867097424
  %214 = sub i32 %213, %212
  %215 = add i32 %214, 1867097424
  %216 = sub nsw i32 %211, %212
  %217 = sub i32 %215, -1317289314
  %218 = add i32 %217, 998244353
  %219 = add i32 %218, -1317289314
  %220 = add nsw i32 %215, 998244353
  br label %221

; <label>:221:                                    ; preds = %210, %203
  %222 = phi i32 [ %208, %203 ], [ %219, %210 ]
  %223 = load %"class.std::vector"*, %"class.std::vector"** %3, align 8
  %224 = load i32, i32* %12, align 4
  %225 = load i32, i32* %14, align 4
  %226 = sub i32 %224, -1076197979
  %227 = add i32 %226, %225
  %228 = add i32 %227, -1076197979
  %229 = add nsw i32 %224, %225
  %230 = load i32, i32* %9, align 4
  %231 = sdiv i32 %230, 2
  %232 = sub i32 0, %228
  %233 = sub i32 0, %231
  %234 = add i32 %232, %233
  %235 = sub i32 0, %234
  %236 = add nsw i32 %228, %231
  %237 = sext i32 %235 to i64
  %238 = call dereferenceable(4) i32* @_ZNSt6vectorIiSaIiEEixEm(%"class.std::vector"* %223, i64 %237) #3
  store i32 %222, i32* %238, align 4
  %239 = load i32, i32* %13, align 4
  %240 = sext i32 %239 to i64
  %241 = mul nsw i64 1, %240
  %242 = load i32, i32* %10, align 4
  %243 = sext i32 %242 to i64
  %244 = mul nsw i64 %241, %243
  %245 = srem i64 %244, 998244353
  %246 = trunc i64 %245 to i32
  store i32 %246, i32* %13, align 4
  br label %247

; <label>:247:                                    ; preds = %221
  %248 = load i32, i32* %14, align 4
  %249 = sub i32 0, %248
  %250 = sub i32 0, 1
  %251 = add i32 %249, %250
  %252 = sub i32 0, %251
  %253 = add nsw i32 %248, 1
  store i32 %252, i32* %14, align 4
  br label %121

; <label>:254:                                    ; preds = %121
  br label %255

; <label>:255:                                    ; preds = %254
  %256 = load i32, i32* %9, align 4
  %257 = load i32, i32* %12, align 4
  %258 = sub i32 %257, -1228672148
  %259 = add i32 %258, %256
  %260 = add i32 %259, -1228672148
  %261 = add nsw i32 %257, %256
  store i32 %260, i32* %12, align 4
  br label %116

; <label>:262:                                    ; preds = %116
  br label %263

; <label>:263:                                    ; preds = %262
  %264 = load i32, i32* %9, align 4
  %265 = shl i32 %264, 1
  store i32 %265, i32* %9, align 4
  br label %91

; <label>:266:                                    ; preds = %91
  %267 = load i8, i8* %4, align 1
  %268 = trunc i8 %267 to i1
  br i1 %268, label %269, label %296

; <label>:269:                                    ; preds = %266
  %270 = load i32, i32* %5, align 4
  %271 = call i32 @_ZN3fft7inverseEi(i32 %270)
  store i32 %271, i32* %17, align 4
  %272 = load %"class.std::vector"*, %"class.std::vector"** %3, align 8
  store %"class.std::vector"* %272, %"class.std::vector"** %18, align 8
  %273 = load %"class.std::vector"*, %"class.std::vector"** %18, align 8
  %274 = call i32* @_ZNSt6vectorIiSaIiEE5beginEv(%"class.std::vector"* %273) #3
  %275 = getelementptr inbounds %"class.__gnu_cxx::__normal_iterator", %"class.__gnu_cxx::__normal_iterator"* %19, i32 0, i32 0
  store i32* %274, i32** %275, align 8
  %276 = load %"class.std::vector"*, %"class.std::vector"** %18, align 8
  %277 = call i32* @_ZNSt6vectorIiSaIiEE3endEv(%"class.std::vector"* %276) #3
  %278 = getelementptr inbounds %"class.__gnu_cxx::__normal_iterator", %"class.__gnu_cxx::__normal_iterator"* %20, i32 0, i32 0
  store i32* %277, i32** %278, align 8
  br label %279

; <label>:279:                                    ; preds = %293, %269
  %280 = call zeroext i1 @_ZN9__gnu_cxxneIPiSt6vectorIiSaIiEEEEbRKNS_17__normal_iteratorIT_T0_EESA_(%"class.__gnu_cxx::__normal_iterator"* dereferenceable(8) %19, %"class.__gnu_cxx::__normal_iterator"* dereferenceable(8) %20) #3
  br i1 %280, label %281, label %295

; <label>:281:                                    ; preds = %279
  %282 = call dereferenceable(4) i32* @_ZNK9__gnu_cxx17__normal_iteratorIPiSt6vectorIiSaIiEEEdeEv(%"class.__gnu_cxx::__normal_iterator"* %19) #3
  store i32* %282, i32** %21, align 8
  %283 = load i32*, i32** %21, align 8
  %284 = load i32, i32* %283, align 4
  %285 = sext i32 %284 to i64
  %286 = mul nsw i64 1, %285
  %287 = load i32, i32* %17, align 4
  %288 = sext i32 %287 to i64
  %289 = mul nsw i64 %286, %288
  %290 = srem i64 %289, 998244353
  %291 = trunc i64 %290 to i32
  %292 = load i32*, i32** %21, align 8
  store i32 %291, i32* %292, align 4
  br label %293

; <label>:293:                                    ; preds = %281
  %294 = call dereferenceable(8) %"class.__gnu_cxx::__normal_iterator"* @_ZN9__gnu_cxx17__normal_iteratorIPiSt6vectorIiSaIiEEEppEv(%"class.__gnu_cxx::__normal_iterator"* %19) #3
  br label %279

; <label>:295:                                    ; preds = %279
  br label %296

; <label>:296:                                    ; preds = %295, %266
  ret void
}

; Function Attrs: noinline nounwind uwtable
define linkonce_odr i64 @_ZNKSt6vectorIiSaIiEE4sizeEv(%"class.std::vector"*) #4 comdat align 2 {
  %2 = alloca %"class.std::vector"*, align 8
  store %"class.std::vector"* %0, %"class.std::vector"** %2, align 8
  %3 = load %"class.std::vector"*, %"class.std::vector"** %2, align 8
  %4 = bitcast %"class.std::vector"* %3 to %"struct.std::_Vector_base"*
  %5 = getelementptr inbounds %"struct.std::_Vector_base", %"struct.std::_Vector_base"* %4, i32 0, i32 0
  %6 = getelementptr inbounds %"struct.std::_Vector_base<int, std::allocator<int> >::_Vector_impl", %"struct.std::_Vector_base<int, std::allocator<int> >::_Vector_impl"* %5, i32 0, i32 1
  %7 = load i32*, i32** %6, align 8
  %8 = bitcast %"class.std::vector"* %3 to %"struct.std::_Vector_base"*
  %9 = getelementptr inbounds %"struct.std::_Vector_base", %"struct.std::_Vector_base"* %8, i32 0, i32 0
  %10 = getelementptr inbounds %"struct.std::_Vector_base<int, std::allocator<int> >::_Vector_impl", %"struct.std::_Vector_base<int, std::allocator<int> >::_Vector_impl"* %9, i32 0, i32 0
  %11 = load i32*, i32** %10, align 8
  %12 = ptrtoint i32* %7 to i64
  %13 = ptrtoint i32* %11 to i64
  %14 = sub i64 %12, -411010105619771736
  %15 = sub i64 %14, %13
  %16 = add i64 %15, -411010105619771736
  %17 = sub i64 %12, %13
  %18 = sdiv exact i64 %16, 4
  ret i64 %18
}

; Function Attrs: noinline nounwind uwtable
define linkonce_odr void @_ZSt4swapIiEvRT_S1_(i32* dereferenceable(4), i32* dereferenceable(4)) #4 comdat {
  %3 = alloca i32*, align 8
  %4 = alloca i32*, align 8
  %5 = alloca i32, align 4
  store i32* %0, i32** %3, align 8
  store i32* %1, i32** %4, align 8
  %6 = load i32*, i32** %3, align 8
  %7 = call dereferenceable(4) i32* @_ZSt4moveIRiEONSt16remove_referenceIT_E4typeEOS2_(i32* dereferenceable(4) %6) #3
  %8 = load i32, i32* %7, align 4
  store i32 %8, i32* %5, align 4
  %9 = load i32*, i32** %4, align 8
  %10 = call dereferenceable(4) i32* @_ZSt4moveIRiEONSt16remove_referenceIT_E4typeEOS2_(i32* dereferenceable(4) %9) #3
  %11 = load i32, i32* %10, align 4
  %12 = load i32*, i32** %3, align 8
  store i32 %11, i32* %12, align 4
  %13 = call dereferenceable(4) i32* @_ZSt4moveIRiEONSt16remove_referenceIT_E4typeEOS2_(i32* dereferenceable(4) %5) #3
  %14 = load i32, i32* %13, align 4
  %15 = load i32*, i32** %4, align 8
  store i32 %14, i32* %15, align 4
  ret void
}

; Function Attrs: noinline nounwind uwtable
define linkonce_odr dereferenceable(4) i32* @_ZNSt6vectorIiSaIiEEixEm(%"class.std::vector"*, i64) #4 comdat align 2 {
  %3 = alloca %"class.std::vector"*, align 8
  %4 = alloca i64, align 8
  store %"class.std::vector"* %0, %"class.std::vector"** %3, align 8
  store i64 %1, i64* %4, align 8
  %5 = load %"class.std::vector"*, %"class.std::vector"** %3, align 8
  %6 = bitcast %"class.std::vector"* %5 to %"struct.std::_Vector_base"*
  %7 = getelementptr inbounds %"struct.std::_Vector_base", %"struct.std::_Vector_base"* %6, i32 0, i32 0
  %8 = getelementptr inbounds %"struct.std::_Vector_base<int, std::allocator<int> >::_Vector_impl", %"struct.std::_Vector_base<int, std::allocator<int> >::_Vector_impl"* %7, i32 0, i32 0
  %9 = load i32*, i32** %8, align 8
  %10 = load i64, i64* %4, align 8
  %11 = getelementptr inbounds i32, i32* %9, i64 %10
  ret i32* %11
}

; Function Attrs: noinline nounwind uwtable
define linkonce_odr i32* @_ZNSt6vectorIiSaIiEE5beginEv(%"class.std::vector"*) #4 comdat align 2 {
  %2 = alloca %"class.__gnu_cxx::__normal_iterator", align 8
  %3 = alloca %"class.std::vector"*, align 8
  store %"class.std::vector"* %0, %"class.std::vector"** %3, align 8
  %4 = load %"class.std::vector"*, %"class.std::vector"** %3, align 8
  %5 = bitcast %"class.std::vector"* %4 to %"struct.std::_Vector_base"*
  %6 = getelementptr inbounds %"struct.std::_Vector_base", %"struct.std::_Vector_base"* %5, i32 0, i32 0
  %7 = getelementptr inbounds %"struct.std::_Vector_base<int, std::allocator<int> >::_Vector_impl", %"struct.std::_Vector_base<int, std::allocator<int> >::_Vector_impl"* %6, i32 0, i32 0
  call void @_ZN9__gnu_cxx17__normal_iteratorIPiSt6vectorIiSaIiEEEC2ERKS1_(%"class.__gnu_cxx::__normal_iterator"* %2, i32** dereferenceable(8) %7) #3
  %8 = getelementptr inbounds %"class.__gnu_cxx::__normal_iterator", %"class.__gnu_cxx::__normal_iterator"* %2, i32 0, i32 0
  %9 = load i32*, i32** %8, align 8
  ret i32* %9
}

; Function Attrs: noinline nounwind uwtable
define linkonce_odr i32* @_ZNSt6vectorIiSaIiEE3endEv(%"class.std::vector"*) #4 comdat align 2 {
  %2 = alloca %"class.__gnu_cxx::__normal_iterator", align 8
  %3 = alloca %"class.std::vector"*, align 8
  store %"class.std::vector"* %0, %"class.std::vector"** %3, align 8
  %4 = load %"class.std::vector"*, %"class.std::vector"** %3, align 8
  %5 = bitcast %"class.std::vector"* %4 to %"struct.std::_Vector_base"*
  %6 = getelementptr inbounds %"struct.std::_Vector_base", %"struct.std::_Vector_base"* %5, i32 0, i32 0
  %7 = getelementptr inbounds %"struct.std::_Vector_base<int, std::allocator<int> >::_Vector_impl", %"struct.std::_Vector_base<int, std::allocator<int> >::_Vector_impl"* %6, i32 0, i32 1
  call void @_ZN9__gnu_cxx17__normal_iteratorIPiSt6vectorIiSaIiEEEC2ERKS1_(%"class.__gnu_cxx::__normal_iterator"* %2, i32** dereferenceable(8) %7) #3
  %8 = getelementptr inbounds %"class.__gnu_cxx::__normal_iterator", %"class.__gnu_cxx::__normal_iterator"* %2, i32 0, i32 0
  %9 = load i32*, i32** %8, align 8
  ret i32* %9
}

; Function Attrs: noinline nounwind uwtable
define linkonce_odr zeroext i1 @_ZN9__gnu_cxxneIPiSt6vectorIiSaIiEEEEbRKNS_17__normal_iteratorIT_T0_EESA_(%"class.__gnu_cxx::__normal_iterator"* dereferenceable(8), %"class.__gnu_cxx::__normal_iterator"* dereferenceable(8)) #4 comdat {
  %3 = alloca %"class.__gnu_cxx::__normal_iterator"*, align 8
  %4 = alloca %"class.__gnu_cxx::__normal_iterator"*, align 8
  store %"class.__gnu_cxx::__normal_iterator"* %0, %"class.__gnu_cxx::__normal_iterator"** %3, align 8
  store %"class.__gnu_cxx::__normal_iterator"* %1, %"class.__gnu_cxx::__normal_iterator"** %4, align 8
  %5 = load %"class.__gnu_cxx::__normal_iterator"*, %"class.__gnu_cxx::__normal_iterator"** %3, align 8
  %6 = call dereferenceable(8) i32** @_ZNK9__gnu_cxx17__normal_iteratorIPiSt6vectorIiSaIiEEE4baseEv(%"class.__gnu_cxx::__normal_iterator"* %5) #3
  %7 = load i32*, i32** %6, align 8
  %8 = load %"class.__gnu_cxx::__normal_iterator"*, %"class.__gnu_cxx::__normal_iterator"** %4, align 8
  %9 = call dereferenceable(8) i32** @_ZNK9__gnu_cxx17__normal_iteratorIPiSt6vectorIiSaIiEEE4baseEv(%"class.__gnu_cxx::__normal_iterator"* %8) #3
  %10 = load i32*, i32** %9, align 8
  %11 = icmp ne i32* %7, %10
  ret i1 %11
}

; Function Attrs: noinline nounwind uwtable
define linkonce_odr dereferenceable(4) i32* @_ZNK9__gnu_cxx17__normal_iteratorIPiSt6vectorIiSaIiEEEdeEv(%"class.__gnu_cxx::__normal_iterator"*) #4 comdat align 2 {
  %2 = alloca %"class.__gnu_cxx::__normal_iterator"*, align 8
  store %"class.__gnu_cxx::__normal_iterator"* %0, %"class.__gnu_cxx::__normal_iterator"** %2, align 8
  %3 = load %"class.__gnu_cxx::__normal_iterator"*, %"class.__gnu_cxx::__normal_iterator"** %2, align 8
  %4 = getelementptr inbounds %"class.__gnu_cxx::__normal_iterator", %"class.__gnu_cxx::__normal_iterator"* %3, i32 0, i32 0
  %5 = load i32*, i32** %4, align 8
  ret i32* %5
}

; Function Attrs: noinline nounwind uwtable
define linkonce_odr dereferenceable(8) %"class.__gnu_cxx::__normal_iterator"* @_ZN9__gnu_cxx17__normal_iteratorIPiSt6vectorIiSaIiEEEppEv(%"class.__gnu_cxx::__normal_iterator"*) #4 comdat align 2 {
  %2 = alloca %"class.__gnu_cxx::__normal_iterator"*, align 8
  store %"class.__gnu_cxx::__normal_iterator"* %0, %"class.__gnu_cxx::__normal_iterator"** %2, align 8
  %3 = load %"class.__gnu_cxx::__normal_iterator"*, %"class.__gnu_cxx::__normal_iterator"** %2, align 8
  %4 = getelementptr inbounds %"class.__gnu_cxx::__normal_iterator", %"class.__gnu_cxx::__normal_iterator"* %3, i32 0, i32 0
  %5 = load i32*, i32** %4, align 8
  %6 = getelementptr inbounds i32, i32* %5, i32 1
  store i32* %6, i32** %4, align 8
  ret %"class.__gnu_cxx::__normal_iterator"* %3
}

; Function Attrs: noinline nounwind uwtable
define i32 @_Z2pmi(i32) #4 {
  %2 = alloca i32, align 4
  %3 = alloca i32, align 4
  store i32 %0, i32* %3, align 4
  %4 = load i32, i32* %3, align 4
  %5 = load i32, i32* %3, align 4
  %6 = sub i32 998244353, 293187012
  %7 = sub i32 %6, %5
  %8 = add i32 %7, 293187012
  %9 = sub nsw i32 998244353, %5
  %10 = icmp slt i32 %4, %8
  br i1 %10, label %11, label %13

; <label>:11:                                     ; preds = %1
  %12 = load i32, i32* %3, align 4
  store i32 %12, i32* %2, align 4
  br label %19

; <label>:13:                                     ; preds = %1
  %14 = load i32, i32* %3, align 4
  %15 = add i32 %14, -1895057238
  %16 = sub i32 %15, 998244353
  %17 = sub i32 %16, -1895057238
  %18 = sub nsw i32 %14, 998244353
  store i32 %17, i32* %2, align 4
  br label %19

; <label>:19:                                     ; preds = %13, %11
  %20 = load i32, i32* %2, align 4
  ret i32 %20
}

; Function Attrs: noinline uwtable
define void @_Z8poly_mulSt6vectorIiSaIiEES1_(%"class.std::vector"* noalias sret, %"class.std::vector"*, %"class.std::vector"*) #0 {
  %4 = alloca i32, align 4
  %5 = alloca i32, align 4
  %6 = alloca i32, align 4
  %7 = call i64 @_ZNKSt6vectorIiSaIiEE4sizeEv(%"class.std::vector"* %1) #3
  %8 = call i64 @_ZNKSt6vectorIiSaIiEE4sizeEv(%"class.std::vector"* %2) #3
  %9 = sub i64 %7, -7847708010449196255
  %10 = add i64 %9, %8
  %11 = add i64 %10, -7847708010449196255
  %12 = add i64 %7, %8
  %13 = sub i64 %11, -9096532646383112547
  %14 = sub i64 %13, 1
  %15 = add i64 %14, -9096532646383112547
  %16 = sub i64 %11, 1
  %17 = trunc i64 %15 to i32
  store i32 %17, i32* %4, align 4
  store i32 1, i32* %5, align 4
  br label %18

; <label>:18:                                     ; preds = %22, %3
  %19 = load i32, i32* %5, align 4
  %20 = load i32, i32* %4, align 4
  %21 = icmp slt i32 %19, %20
  br i1 %21, label %22, label %25

; <label>:22:                                     ; preds = %18
  %23 = load i32, i32* %5, align 4
  %24 = mul nsw i32 %23, 2
  store i32 %24, i32* %5, align 4
  br label %18

; <label>:25:                                     ; preds = %18
  %26 = load i32, i32* %5, align 4
  %27 = sext i32 %26 to i64
  call void @_ZNSt6vectorIiSaIiEE6resizeEm(%"class.std::vector"* %1, i64 %27)
  %28 = load i32, i32* %5, align 4
  %29 = sext i32 %28 to i64
  call void @_ZNSt6vectorIiSaIiEE6resizeEm(%"class.std::vector"* %2, i64 %29)
  %30 = call zeroext i1 @_ZSteqIiSaIiEEbRKSt6vectorIT_T0_ES6_(%"class.std::vector"* dereferenceable(24) %1, %"class.std::vector"* dereferenceable(24) %2)
  br i1 %30, label %31, label %33

; <label>:31:                                     ; preds = %25
  call void @_ZN3fft3fftERSt6vectorIiSaIiEEb(%"class.std::vector"* dereferenceable(24) %1, i1 zeroext false)
  %32 = call dereferenceable(24) %"class.std::vector"* @_ZNSt6vectorIiSaIiEEaSERKS1_(%"class.std::vector"* %2, %"class.std::vector"* dereferenceable(24) %1)
  br label %34

; <label>:33:                                     ; preds = %25
  call void @_ZN3fft3fftERSt6vectorIiSaIiEEb(%"class.std::vector"* dereferenceable(24) %1, i1 zeroext false)
  call void @_ZN3fft3fftERSt6vectorIiSaIiEEb(%"class.std::vector"* dereferenceable(24) %2, i1 zeroext false)
  br label %34

; <label>:34:                                     ; preds = %33, %31
  store i32 0, i32* %6, align 4
  br label %35

; <label>:35:                                     ; preds = %57, %34
  %36 = load i32, i32* %6, align 4
  %37 = load i32, i32* %5, align 4
  %38 = icmp slt i32 %36, %37
  br i1 %38, label %39, label %64

; <label>:39:                                     ; preds = %35
  %40 = load i32, i32* %6, align 4
  %41 = sext i32 %40 to i64
  %42 = call dereferenceable(4) i32* @_ZNSt6vectorIiSaIiEEixEm(%"class.std::vector"* %1, i64 %41) #3
  %43 = load i32, i32* %42, align 4
  %44 = sext i32 %43 to i64
  %45 = mul nsw i64 %44, 1
  %46 = load i32, i32* %6, align 4
  %47 = sext i32 %46 to i64
  %48 = call dereferenceable(4) i32* @_ZNSt6vectorIiSaIiEEixEm(%"class.std::vector"* %2, i64 %47) #3
  %49 = load i32, i32* %48, align 4
  %50 = sext i32 %49 to i64
  %51 = mul nsw i64 %45, %50
  %52 = srem i64 %51, 998244353
  %53 = trunc i64 %52 to i32
  %54 = load i32, i32* %6, align 4
  %55 = sext i32 %54 to i64
  %56 = call dereferenceable(4) i32* @_ZNSt6vectorIiSaIiEEixEm(%"class.std::vector"* %1, i64 %55) #3
  store i32 %53, i32* %56, align 4
  br label %57

; <label>:57:                                     ; preds = %39
  %58 = load i32, i32* %6, align 4
  %59 = sub i32 0, %58
  %60 = sub i32 0, 1
  %61 = add i32 %59, %60
  %62 = sub i32 0, %61
  %63 = add nsw i32 %58, 1
  store i32 %62, i32* %6, align 4
  br label %35

; <label>:64:                                     ; preds = %35
  call void @_ZN3fft3fftERSt6vectorIiSaIiEEb(%"class.std::vector"* dereferenceable(24) %1, i1 zeroext true)
  %65 = load i32, i32* %4, align 4
  %66 = sext i32 %65 to i64
  call void @_ZNSt6vectorIiSaIiEE6resizeEm(%"class.std::vector"* %1, i64 %66)
  call void @_ZNSt6vectorIiSaIiEEC2EOS1_(%"class.std::vector"* %0, %"class.std::vector"* dereferenceable(24) %1) #3
  ret void
}

; Function Attrs: noinline uwtable
define linkonce_odr void @_ZNSt6vectorIiSaIiEE6resizeEm(%"class.std::vector"*, i64) #0 comdat align 2 {
  %3 = alloca %"class.std::vector"*, align 8
  %4 = alloca i64, align 8
  store %"class.std::vector"* %0, %"class.std::vector"** %3, align 8
  store i64 %1, i64* %4, align 8
  %5 = load %"class.std::vector"*, %"class.std::vector"** %3, align 8
  %6 = load i64, i64* %4, align 8
  %7 = call i64 @_ZNKSt6vectorIiSaIiEE4sizeEv(%"class.std::vector"* %5) #3
  %8 = icmp ugt i64 %6, %7
  br i1 %8, label %9, label %16

; <label>:9:                                      ; preds = %2
  %10 = load i64, i64* %4, align 8
  %11 = call i64 @_ZNKSt6vectorIiSaIiEE4sizeEv(%"class.std::vector"* %5) #3
  %12 = add i64 %10, -1489040946503675448
  %13 = sub i64 %12, %11
  %14 = sub i64 %13, -1489040946503675448
  %15 = sub i64 %10, %11
  call void @_ZNSt6vectorIiSaIiEE17_M_default_appendEm(%"class.std::vector"* %5, i64 %14)
  br label %28

; <label>:16:                                     ; preds = %2
  %17 = load i64, i64* %4, align 8
  %18 = call i64 @_ZNKSt6vectorIiSaIiEE4sizeEv(%"class.std::vector"* %5) #3
  %19 = icmp ult i64 %17, %18
  br i1 %19, label %20, label %27

; <label>:20:                                     ; preds = %16
  %21 = bitcast %"class.std::vector"* %5 to %"struct.std::_Vector_base"*
  %22 = getelementptr inbounds %"struct.std::_Vector_base", %"struct.std::_Vector_base"* %21, i32 0, i32 0
  %23 = getelementptr inbounds %"struct.std::_Vector_base<int, std::allocator<int> >::_Vector_impl", %"struct.std::_Vector_base<int, std::allocator<int> >::_Vector_impl"* %22, i32 0, i32 0
  %24 = load i32*, i32** %23, align 8
  %25 = load i64, i64* %4, align 8
  %26 = getelementptr inbounds i32, i32* %24, i64 %25
  call void @_ZNSt6vectorIiSaIiEE15_M_erase_at_endEPi(%"class.std::vector"* %5, i32* %26) #3
  br label %27

; <label>:27:                                     ; preds = %20, %16
  br label %28

; <label>:28:                                     ; preds = %27, %9
  ret void
}

; Function Attrs: noinline uwtable
define linkonce_odr zeroext i1 @_ZSteqIiSaIiEEbRKSt6vectorIT_T0_ES6_(%"class.std::vector"* dereferenceable(24), %"class.std::vector"* dereferenceable(24)) #0 comdat {
  %3 = alloca %"class.std::vector"*, align 8
  %4 = alloca %"class.std::vector"*, align 8
  %5 = alloca %"class.__gnu_cxx::__normal_iterator.0", align 8
  %6 = alloca %"class.__gnu_cxx::__normal_iterator.0", align 8
  %7 = alloca %"class.__gnu_cxx::__normal_iterator.0", align 8
  store %"class.std::vector"* %0, %"class.std::vector"** %3, align 8
  store %"class.std::vector"* %1, %"class.std::vector"** %4, align 8
  %8 = load %"class.std::vector"*, %"class.std::vector"** %3, align 8
  %9 = call i64 @_ZNKSt6vectorIiSaIiEE4sizeEv(%"class.std::vector"* %8) #3
  %10 = load %"class.std::vector"*, %"class.std::vector"** %4, align 8
  %11 = call i64 @_ZNKSt6vectorIiSaIiEE4sizeEv(%"class.std::vector"* %10) #3
  %12 = icmp eq i64 %9, %11
  br i1 %12, label %13, label %30

; <label>:13:                                     ; preds = %2
  %14 = load %"class.std::vector"*, %"class.std::vector"** %3, align 8
  %15 = call i32* @_ZNKSt6vectorIiSaIiEE5beginEv(%"class.std::vector"* %14) #3
  %16 = getelementptr inbounds %"class.__gnu_cxx::__normal_iterator.0", %"class.__gnu_cxx::__normal_iterator.0"* %5, i32 0, i32 0
  store i32* %15, i32** %16, align 8
  %17 = load %"class.std::vector"*, %"class.std::vector"** %3, align 8
  %18 = call i32* @_ZNKSt6vectorIiSaIiEE3endEv(%"class.std::vector"* %17) #3
  %19 = getelementptr inbounds %"class.__gnu_cxx::__normal_iterator.0", %"class.__gnu_cxx::__normal_iterator.0"* %6, i32 0, i32 0
  store i32* %18, i32** %19, align 8
  %20 = load %"class.std::vector"*, %"class.std::vector"** %4, align 8
  %21 = call i32* @_ZNKSt6vectorIiSaIiEE5beginEv(%"class.std::vector"* %20) #3
  %22 = getelementptr inbounds %"class.__gnu_cxx::__normal_iterator.0", %"class.__gnu_cxx::__normal_iterator.0"* %7, i32 0, i32 0
  store i32* %21, i32** %22, align 8
  %23 = getelementptr inbounds %"class.__gnu_cxx::__normal_iterator.0", %"class.__gnu_cxx::__normal_iterator.0"* %5, i32 0, i32 0
  %24 = load i32*, i32** %23, align 8
  %25 = getelementptr inbounds %"class.__gnu_cxx::__normal_iterator.0", %"class.__gnu_cxx::__normal_iterator.0"* %6, i32 0, i32 0
  %26 = load i32*, i32** %25, align 8
  %27 = getelementptr inbounds %"class.__gnu_cxx::__normal_iterator.0", %"class.__gnu_cxx::__normal_iterator.0"* %7, i32 0, i32 0
  %28 = load i32*, i32** %27, align 8
  %29 = call zeroext i1 @_ZSt5equalIN9__gnu_cxx17__normal_iteratorIPKiSt6vectorIiSaIiEEEES7_EbT_S8_T0_(i32* %24, i32* %26, i32* %28)
  br label %30

; <label>:30:                                     ; preds = %13, %2
  %31 = phi i1 [ false, %2 ], [ %29, %13 ]
  ret i1 %31
}

; Function Attrs: noinline uwtable
define linkonce_odr dereferenceable(24) %"class.std::vector"* @_ZNSt6vectorIiSaIiEEaSERKS1_(%"class.std::vector"*, %"class.std::vector"* dereferenceable(24)) #0 comdat align 2 {
  %3 = alloca %"class.std::vector"*, align 8
  %4 = alloca %"class.std::vector"*, align 8
  %5 = alloca i64, align 8
  %6 = alloca i32*, align 8
  %7 = alloca %"class.__gnu_cxx::__normal_iterator.0", align 8
  %8 = alloca %"class.__gnu_cxx::__normal_iterator.0", align 8
  %9 = alloca %"class.__gnu_cxx::__normal_iterator", align 8
  %10 = alloca %"class.__gnu_cxx::__normal_iterator.0", align 8
  %11 = alloca %"class.__gnu_cxx::__normal_iterator.0", align 8
  %12 = alloca %"class.__gnu_cxx::__normal_iterator", align 8
  %13 = alloca %"class.__gnu_cxx::__normal_iterator", align 8
  store %"class.std::vector"* %0, %"class.std::vector"** %3, align 8
  store %"class.std::vector"* %1, %"class.std::vector"** %4, align 8
  %14 = load %"class.std::vector"*, %"class.std::vector"** %3, align 8
  %15 = load %"class.std::vector"*, %"class.std::vector"** %4, align 8
  %16 = icmp ne %"class.std::vector"* %15, %14
  br i1 %16, label %17, label %156

; <label>:17:                                     ; preds = %2
  %18 = load %"class.std::vector"*, %"class.std::vector"** %4, align 8
  %19 = call i64 @_ZNKSt6vectorIiSaIiEE4sizeEv(%"class.std::vector"* %18) #3
  store i64 %19, i64* %5, align 8
  %20 = load i64, i64* %5, align 8
  %21 = call i64 @_ZNKSt6vectorIiSaIiEE8capacityEv(%"class.std::vector"* %14) #3
  %22 = icmp ugt i64 %20, %21
  br i1 %22, label %23, label %79

; <label>:23:                                     ; preds = %17
  %24 = load i64, i64* %5, align 8
  %25 = load %"class.std::vector"*, %"class.std::vector"** %4, align 8
  %26 = call i32* @_ZNKSt6vectorIiSaIiEE5beginEv(%"class.std::vector"* %25) #3
  %27 = getelementptr inbounds %"class.__gnu_cxx::__normal_iterator.0", %"class.__gnu_cxx::__normal_iterator.0"* %7, i32 0, i32 0
  store i32* %26, i32** %27, align 8
  %28 = load %"class.std::vector"*, %"class.std::vector"** %4, align 8
  %29 = call i32* @_ZNKSt6vectorIiSaIiEE3endEv(%"class.std::vector"* %28) #3
  %30 = getelementptr inbounds %"class.__gnu_cxx::__normal_iterator.0", %"class.__gnu_cxx::__normal_iterator.0"* %8, i32 0, i32 0
  store i32* %29, i32** %30, align 8
  %31 = getelementptr inbounds %"class.__gnu_cxx::__normal_iterator.0", %"class.__gnu_cxx::__normal_iterator.0"* %7, i32 0, i32 0
  %32 = load i32*, i32** %31, align 8
  %33 = getelementptr inbounds %"class.__gnu_cxx::__normal_iterator.0", %"class.__gnu_cxx::__normal_iterator.0"* %8, i32 0, i32 0
  %34 = load i32*, i32** %33, align 8
  %35 = call i32* @_ZNSt6vectorIiSaIiEE20_M_allocate_and_copyIN9__gnu_cxx17__normal_iteratorIPKiS1_EEEEPimT_S9_(%"class.std::vector"* %14, i64 %24, i32* %32, i32* %34)
  store i32* %35, i32** %6, align 8
  %36 = bitcast %"class.std::vector"* %14 to %"struct.std::_Vector_base"*
  %37 = getelementptr inbounds %"struct.std::_Vector_base", %"struct.std::_Vector_base"* %36, i32 0, i32 0
  %38 = getelementptr inbounds %"struct.std::_Vector_base<int, std::allocator<int> >::_Vector_impl", %"struct.std::_Vector_base<int, std::allocator<int> >::_Vector_impl"* %37, i32 0, i32 0
  %39 = load i32*, i32** %38, align 8
  %40 = bitcast %"class.std::vector"* %14 to %"struct.std::_Vector_base"*
  %41 = getelementptr inbounds %"struct.std::_Vector_base", %"struct.std::_Vector_base"* %40, i32 0, i32 0
  %42 = getelementptr inbounds %"struct.std::_Vector_base<int, std::allocator<int> >::_Vector_impl", %"struct.std::_Vector_base<int, std::allocator<int> >::_Vector_impl"* %41, i32 0, i32 1
  %43 = load i32*, i32** %42, align 8
  %44 = bitcast %"class.std::vector"* %14 to %"struct.std::_Vector_base"*
  %45 = call dereferenceable(1) %"class.std::allocator"* @_ZNSt12_Vector_baseIiSaIiEE19_M_get_Tp_allocatorEv(%"struct.std::_Vector_base"* %44) #3
  call void @_ZSt8_DestroyIPiiEvT_S1_RSaIT0_E(i32* %39, i32* %43, %"class.std::allocator"* dereferenceable(1) %45)
  %46 = bitcast %"class.std::vector"* %14 to %"struct.std::_Vector_base"*
  %47 = bitcast %"class.std::vector"* %14 to %"struct.std::_Vector_base"*
  %48 = getelementptr inbounds %"struct.std::_Vector_base", %"struct.std::_Vector_base"* %47, i32 0, i32 0
  %49 = getelementptr inbounds %"struct.std::_Vector_base<int, std::allocator<int> >::_Vector_impl", %"struct.std::_Vector_base<int, std::allocator<int> >::_Vector_impl"* %48, i32 0, i32 0
  %50 = load i32*, i32** %49, align 8
  %51 = bitcast %"class.std::vector"* %14 to %"struct.std::_Vector_base"*
  %52 = getelementptr inbounds %"struct.std::_Vector_base", %"struct.std::_Vector_base"* %51, i32 0, i32 0
  %53 = getelementptr inbounds %"struct.std::_Vector_base<int, std::allocator<int> >::_Vector_impl", %"struct.std::_Vector_base<int, std::allocator<int> >::_Vector_impl"* %52, i32 0, i32 2
  %54 = load i32*, i32** %53, align 8
  %55 = bitcast %"class.std::vector"* %14 to %"struct.std::_Vector_base"*
  %56 = getelementptr inbounds %"struct.std::_Vector_base", %"struct.std::_Vector_base"* %55, i32 0, i32 0
  %57 = getelementptr inbounds %"struct.std::_Vector_base<int, std::allocator<int> >::_Vector_impl", %"struct.std::_Vector_base<int, std::allocator<int> >::_Vector_impl"* %56, i32 0, i32 0
  %58 = load i32*, i32** %57, align 8
  %59 = ptrtoint i32* %54 to i64
  %60 = ptrtoint i32* %58 to i64
  %61 = sub i64 %59, 7849395588783407193
  %62 = sub i64 %61, %60
  %63 = add i64 %62, 7849395588783407193
  %64 = sub i64 %59, %60
  %65 = sdiv exact i64 %63, 4
  call void @_ZNSt12_Vector_baseIiSaIiEE13_M_deallocateEPim(%"struct.std::_Vector_base"* %46, i32* %50, i64 %65)
  %66 = load i32*, i32** %6, align 8
  %67 = bitcast %"class.std::vector"* %14 to %"struct.std::_Vector_base"*
  %68 = getelementptr inbounds %"struct.std::_Vector_base", %"struct.std::_Vector_base"* %67, i32 0, i32 0
  %69 = getelementptr inbounds %"struct.std::_Vector_base<int, std::allocator<int> >::_Vector_impl", %"struct.std::_Vector_base<int, std::allocator<int> >::_Vector_impl"* %68, i32 0, i32 0
  store i32* %66, i32** %69, align 8
  %70 = bitcast %"class.std::vector"* %14 to %"struct.std::_Vector_base"*
  %71 = getelementptr inbounds %"struct.std::_Vector_base", %"struct.std::_Vector_base"* %70, i32 0, i32 0
  %72 = getelementptr inbounds %"struct.std::_Vector_base<int, std::allocator<int> >::_Vector_impl", %"struct.std::_Vector_base<int, std::allocator<int> >::_Vector_impl"* %71, i32 0, i32 0
  %73 = load i32*, i32** %72, align 8
  %74 = load i64, i64* %5, align 8
  %75 = getelementptr inbounds i32, i32* %73, i64 %74
  %76 = bitcast %"class.std::vector"* %14 to %"struct.std::_Vector_base"*
  %77 = getelementptr inbounds %"struct.std::_Vector_base", %"struct.std::_Vector_base"* %76, i32 0, i32 0
  %78 = getelementptr inbounds %"struct.std::_Vector_base<int, std::allocator<int> >::_Vector_impl", %"struct.std::_Vector_base<int, std::allocator<int> >::_Vector_impl"* %77, i32 0, i32 2
  store i32* %75, i32** %78, align 8
  br label %146

; <label>:79:                                     ; preds = %17
  %80 = call i64 @_ZNKSt6vectorIiSaIiEE4sizeEv(%"class.std::vector"* %14) #3
  %81 = load i64, i64* %5, align 8
  %82 = icmp uge i64 %80, %81
  br i1 %82, label %83, label %108

; <label>:83:                                     ; preds = %79
  %84 = load %"class.std::vector"*, %"class.std::vector"** %4, align 8
  %85 = call i32* @_ZNKSt6vectorIiSaIiEE5beginEv(%"class.std::vector"* %84) #3
  %86 = getelementptr inbounds %"class.__gnu_cxx::__normal_iterator.0", %"class.__gnu_cxx::__normal_iterator.0"* %10, i32 0, i32 0
  store i32* %85, i32** %86, align 8
  %87 = load %"class.std::vector"*, %"class.std::vector"** %4, align 8
  %88 = call i32* @_ZNKSt6vectorIiSaIiEE3endEv(%"class.std::vector"* %87) #3
  %89 = getelementptr inbounds %"class.__gnu_cxx::__normal_iterator.0", %"class.__gnu_cxx::__normal_iterator.0"* %11, i32 0, i32 0
  store i32* %88, i32** %89, align 8
  %90 = call i32* @_ZNSt6vectorIiSaIiEE5beginEv(%"class.std::vector"* %14) #3
  %91 = getelementptr inbounds %"class.__gnu_cxx::__normal_iterator", %"class.__gnu_cxx::__normal_iterator"* %12, i32 0, i32 0
  store i32* %90, i32** %91, align 8
  %92 = getelementptr inbounds %"class.__gnu_cxx::__normal_iterator.0", %"class.__gnu_cxx::__normal_iterator.0"* %10, i32 0, i32 0
  %93 = load i32*, i32** %92, align 8
  %94 = getelementptr inbounds %"class.__gnu_cxx::__normal_iterator.0", %"class.__gnu_cxx::__normal_iterator.0"* %11, i32 0, i32 0
  %95 = load i32*, i32** %94, align 8
  %96 = getelementptr inbounds %"class.__gnu_cxx::__normal_iterator", %"class.__gnu_cxx::__normal_iterator"* %12, i32 0, i32 0
  %97 = load i32*, i32** %96, align 8
  %98 = call i32* @_ZSt4copyIN9__gnu_cxx17__normal_iteratorIPKiSt6vectorIiSaIiEEEENS1_IPiS6_EEET0_T_SB_SA_(i32* %93, i32* %95, i32* %97)
  %99 = getelementptr inbounds %"class.__gnu_cxx::__normal_iterator", %"class.__gnu_cxx::__normal_iterator"* %9, i32 0, i32 0
  store i32* %98, i32** %99, align 8
  %100 = call i32* @_ZNSt6vectorIiSaIiEE3endEv(%"class.std::vector"* %14) #3
  %101 = getelementptr inbounds %"class.__gnu_cxx::__normal_iterator", %"class.__gnu_cxx::__normal_iterator"* %13, i32 0, i32 0
  store i32* %100, i32** %101, align 8
  %102 = bitcast %"class.std::vector"* %14 to %"struct.std::_Vector_base"*
  %103 = call dereferenceable(1) %"class.std::allocator"* @_ZNSt12_Vector_baseIiSaIiEE19_M_get_Tp_allocatorEv(%"struct.std::_Vector_base"* %102) #3
  %104 = getelementptr inbounds %"class.__gnu_cxx::__normal_iterator", %"class.__gnu_cxx::__normal_iterator"* %9, i32 0, i32 0
  %105 = load i32*, i32** %104, align 8
  %106 = getelementptr inbounds %"class.__gnu_cxx::__normal_iterator", %"class.__gnu_cxx::__normal_iterator"* %13, i32 0, i32 0
  %107 = load i32*, i32** %106, align 8
  call void @_ZSt8_DestroyIN9__gnu_cxx17__normal_iteratorIPiSt6vectorIiSaIiEEEEiEvT_S7_RSaIT0_E(i32* %105, i32* %107, %"class.std::allocator"* dereferenceable(1) %103)
  br label %145

; <label>:108:                                    ; preds = %79
  %109 = load %"class.std::vector"*, %"class.std::vector"** %4, align 8
  %110 = bitcast %"class.std::vector"* %109 to %"struct.std::_Vector_base"*
  %111 = getelementptr inbounds %"struct.std::_Vector_base", %"struct.std::_Vector_base"* %110, i32 0, i32 0
  %112 = getelementptr inbounds %"struct.std::_Vector_base<int, std::allocator<int> >::_Vector_impl", %"struct.std::_Vector_base<int, std::allocator<int> >::_Vector_impl"* %111, i32 0, i32 0
  %113 = load i32*, i32** %112, align 8
  %114 = load %"class.std::vector"*, %"class.std::vector"** %4, align 8
  %115 = bitcast %"class.std::vector"* %114 to %"struct.std::_Vector_base"*
  %116 = getelementptr inbounds %"struct.std::_Vector_base", %"struct.std::_Vector_base"* %115, i32 0, i32 0
  %117 = getelementptr inbounds %"struct.std::_Vector_base<int, std::allocator<int> >::_Vector_impl", %"struct.std::_Vector_base<int, std::allocator<int> >::_Vector_impl"* %116, i32 0, i32 0
  %118 = load i32*, i32** %117, align 8
  %119 = call i64 @_ZNKSt6vectorIiSaIiEE4sizeEv(%"class.std::vector"* %14) #3
  %120 = getelementptr inbounds i32, i32* %118, i64 %119
  %121 = bitcast %"class.std::vector"* %14 to %"struct.std::_Vector_base"*
  %122 = getelementptr inbounds %"struct.std::_Vector_base", %"struct.std::_Vector_base"* %121, i32 0, i32 0
  %123 = getelementptr inbounds %"struct.std::_Vector_base<int, std::allocator<int> >::_Vector_impl", %"struct.std::_Vector_base<int, std::allocator<int> >::_Vector_impl"* %122, i32 0, i32 0
  %124 = load i32*, i32** %123, align 8
  %125 = call i32* @_ZSt4copyIPiS0_ET0_T_S2_S1_(i32* %113, i32* %120, i32* %124)
  %126 = load %"class.std::vector"*, %"class.std::vector"** %4, align 8
  %127 = bitcast %"class.std::vector"* %126 to %"struct.std::_Vector_base"*
  %128 = getelementptr inbounds %"struct.std::_Vector_base", %"struct.std::_Vector_base"* %127, i32 0, i32 0
  %129 = getelementptr inbounds %"struct.std::_Vector_base<int, std::allocator<int> >::_Vector_impl", %"struct.std::_Vector_base<int, std::allocator<int> >::_Vector_impl"* %128, i32 0, i32 0
  %130 = load i32*, i32** %129, align 8
  %131 = call i64 @_ZNKSt6vectorIiSaIiEE4sizeEv(%"class.std::vector"* %14) #3
  %132 = getelementptr inbounds i32, i32* %130, i64 %131
  %133 = load %"class.std::vector"*, %"class.std::vector"** %4, align 8
  %134 = bitcast %"class.std::vector"* %133 to %"struct.std::_Vector_base"*
  %135 = getelementptr inbounds %"struct.std::_Vector_base", %"struct.std::_Vector_base"* %134, i32 0, i32 0
  %136 = getelementptr inbounds %"struct.std::_Vector_base<int, std::allocator<int> >::_Vector_impl", %"struct.std::_Vector_base<int, std::allocator<int> >::_Vector_impl"* %135, i32 0, i32 1
  %137 = load i32*, i32** %136, align 8
  %138 = bitcast %"class.std::vector"* %14 to %"struct.std::_Vector_base"*
  %139 = getelementptr inbounds %"struct.std::_Vector_base", %"struct.std::_Vector_base"* %138, i32 0, i32 0
  %140 = getelementptr inbounds %"struct.std::_Vector_base<int, std::allocator<int> >::_Vector_impl", %"struct.std::_Vector_base<int, std::allocator<int> >::_Vector_impl"* %139, i32 0, i32 1
  %141 = load i32*, i32** %140, align 8
  %142 = bitcast %"class.std::vector"* %14 to %"struct.std::_Vector_base"*
  %143 = call dereferenceable(1) %"class.std::allocator"* @_ZNSt12_Vector_baseIiSaIiEE19_M_get_Tp_allocatorEv(%"struct.std::_Vector_base"* %142) #3
  %144 = call i32* @_ZSt22__uninitialized_copy_aIPiS0_iET0_T_S2_S1_RSaIT1_E(i32* %132, i32* %137, i32* %141, %"class.std::allocator"* dereferenceable(1) %143)
  br label %145

; <label>:145:                                    ; preds = %108, %83
  br label %146

; <label>:146:                                    ; preds = %145, %23
  %147 = bitcast %"class.std::vector"* %14 to %"struct.std::_Vector_base"*
  %148 = getelementptr inbounds %"struct.std::_Vector_base", %"struct.std::_Vector_base"* %147, i32 0, i32 0
  %149 = getelementptr inbounds %"struct.std::_Vector_base<int, std::allocator<int> >::_Vector_impl", %"struct.std::_Vector_base<int, std::allocator<int> >::_Vector_impl"* %148, i32 0, i32 0
  %150 = load i32*, i32** %149, align 8
  %151 = load i64, i64* %5, align 8
  %152 = getelementptr inbounds i32, i32* %150, i64 %151
  %153 = bitcast %"class.std::vector"* %14 to %"struct.std::_Vector_base"*
  %154 = getelementptr inbounds %"struct.std::_Vector_base", %"struct.std::_Vector_base"* %153, i32 0, i32 0
  %155 = getelementptr inbounds %"struct.std::_Vector_base<int, std::allocator<int> >::_Vector_impl", %"struct.std::_Vector_base<int, std::allocator<int> >::_Vector_impl"* %154, i32 0, i32 1
  store i32* %152, i32** %155, align 8
  br label %156

; <label>:156:                                    ; preds = %146, %2
  ret %"class.std::vector"* %14
}

; Function Attrs: noinline nounwind uwtable
define linkonce_odr void @_ZNSt6vectorIiSaIiEEC2EOS1_(%"class.std::vector"*, %"class.std::vector"* dereferenceable(24)) unnamed_addr #4 comdat align 2 {
  %3 = alloca %"class.std::vector"*, align 8
  %4 = alloca %"class.std::vector"*, align 8
  store %"class.std::vector"* %0, %"class.std::vector"** %3, align 8
  store %"class.std::vector"* %1, %"class.std::vector"** %4, align 8
  %5 = load %"class.std::vector"*, %"class.std::vector"** %3, align 8
  %6 = bitcast %"class.std::vector"* %5 to %"struct.std::_Vector_base"*
  %7 = load %"class.std::vector"*, %"class.std::vector"** %4, align 8
  %8 = call dereferenceable(24) %"class.std::vector"* @_ZSt4moveIRSt6vectorIiSaIiEEEONSt16remove_referenceIT_E4typeEOS5_(%"class.std::vector"* dereferenceable(24) %7) #3
  %9 = bitcast %"class.std::vector"* %8 to %"struct.std::_Vector_base"*
  call void @_ZNSt12_Vector_baseIiSaIiEEC2EOS1_(%"struct.std::_Vector_base"* %6, %"struct.std::_Vector_base"* dereferenceable(24) %9) #3
  ret void
}

; Function Attrs: noinline uwtable
define i32 @_Z4jebuiii(i32, i32, i32) #0 {
  %4 = alloca i32, align 4
  %5 = alloca i32, align 4
  %6 = alloca i32, align 4
  store i32 %0, i32* %4, align 4
  store i32 %1, i32* %5, align 4
  store i32 %2, i32* %6, align 4
  %7 = load i32, i32* %4, align 4
  %8 = load i32, i32* %6, align 4
  %9 = mul nsw i32 3, %8
  %10 = load i32, i32* %5, align 4
  %11 = sub i32 0, %10
  %12 = add i32 %9, %11
  %13 = sub nsw i32 %9, %10
  %14 = sdiv i32 %12, 2
  %15 = call i32 @_Z5countii(i32 %7, i32 %14)
  ret i32 %15
}

; Function Attrs: noinline nounwind uwtable
define linkonce_odr i32 @_Z5countii(i32, i32) #4 comdat {
  %3 = alloca i32, align 4
  %4 = alloca i32, align 4
  store i32 %0, i32* %3, align 4
  store i32 %1, i32* %4, align 4
  %5 = load i32, i32* %3, align 4
  %6 = add i32 %5, -194171895
  %7 = sub i32 %6, 1
  %8 = sub i32 %7, -194171895
  %9 = sub nsw i32 %5, 1
  %10 = load i32, i32* %4, align 4
  %11 = sub i32 0, %8
  %12 = sub i32 0, %10
  %13 = add i32 %11, %12
  %14 = sub i32 0, %13
  %15 = add nsw i32 %8, %10
  %16 = load i32, i32* %4, align 4
  %17 = call i32 @_Z1cii(i32 %14, i32 %16)
  ret i32 %17
}

; Function Attrs: noinline norecurse uwtable
define i32 @main() #5 {
  %1 = alloca i32, align 4
  %2 = alloca i32, align 4
  %3 = alloca i32, align 4
  %4 = alloca i32, align 4
  %5 = alloca i32, align 4
  %6 = alloca i32, align 4
  %7 = alloca i32, align 4
  %8 = alloca i32, align 4
  store i32 0, i32* %1, align 4
  %9 = call zeroext i1 @_ZNSt8ios_base15sync_with_stdioEb(i1 zeroext false)
  store i32 1, i32* getelementptr inbounds ([2500005 x i32], [2500005 x i32]* @inv, i64 0, i64 0), align 16
  store i32 1, i32* getelementptr inbounds ([2500005 x i32], [2500005 x i32]* @fact, i64 0, i64 0), align 16
  store i32 1, i32* %2, align 4
  br label %10

; <label>:10:                                     ; preds = %35, %0
  %11 = load i32, i32* %2, align 4
  %12 = icmp sle i32 %11, 2500000
  br i1 %12, label %13, label %42

; <label>:13:                                     ; preds = %10
  %14 = load i32, i32* %2, align 4
  %15 = add i32 %14, -1285024940
  %16 = sub i32 %15, 1
  %17 = sub i32 %16, -1285024940
  %18 = sub nsw i32 %14, 1
  %19 = sext i32 %17 to i64
  %20 = getelementptr inbounds [2500005 x i32], [2500005 x i32]* @fact, i64 0, i64 %19
  %21 = load i32, i32* %20, align 4
  %22 = load i32, i32* %2, align 4
  %23 = call i32 @_Z4multii(i32 %21, i32 %22)
  %24 = load i32, i32* %2, align 4
  %25 = sext i32 %24 to i64
  %26 = getelementptr inbounds [2500005 x i32], [2500005 x i32]* @fact, i64 0, i64 %25
  store i32 %23, i32* %26, align 4
  %27 = load i32, i32* %2, align 4
  %28 = sext i32 %27 to i64
  %29 = getelementptr inbounds [2500005 x i32], [2500005 x i32]* @fact, i64 0, i64 %28
  %30 = load i32, i32* %29, align 4
  %31 = call i32 @_Z6modPowii(i32 %30, i32 998244351)
  %32 = load i32, i32* %2, align 4
  %33 = sext i32 %32 to i64
  %34 = getelementptr inbounds [2500005 x i32], [2500005 x i32]* @inv, i64 0, i64 %33
  store i32 %31, i32* %34, align 4
  br label %35

; <label>:35:                                     ; preds = %13
  %36 = load i32, i32* %2, align 4
  %37 = sub i32 0, %36
  %38 = sub i32 0, 1
  %39 = add i32 %37, %38
  %40 = sub i32 0, %39
  %41 = add nsw i32 %36, 1
  store i32 %40, i32* %2, align 4
  br label %10

; <label>:42:                                     ; preds = %10
  %43 = call dereferenceable(280) %"class.std::basic_istream"* @_ZNSirsERi(%"class.std::basic_istream"* @_ZSt3cin, i32* dereferenceable(4) %3)
  %44 = call dereferenceable(280) %"class.std::basic_istream"* @_ZNSirsERi(%"class.std::basic_istream"* %43, i32* dereferenceable(4) %4)
  %45 = load i32, i32* %3, align 4
  %46 = load i32, i32* %4, align 4
  %47 = mul nsw i32 3, %46
  %48 = sub i32 %45, -2022884902
  %49 = add i32 %48, %47
  %50 = add i32 %49, -2022884902
  %51 = add nsw i32 %45, %47
  %52 = add i32 %50, -658257942
  %53 = sub i32 %52, 1
  %54 = sub i32 %53, -658257942
  %55 = sub nsw i32 %50, 1
  %56 = load i32, i32* %3, align 4
  %57 = add i32 %56, 326251060
  %58 = sub i32 %57, 1
  %59 = sub i32 %58, 326251060
  %60 = sub nsw i32 %56, 1
  %61 = call i32 @_Z1cii(i32 %54, i32 %59)
  store i32 %61, i32* %5, align 4
  %62 = load i32, i32* %4, align 4
  %63 = mul nsw i32 2, %62
  %64 = sub i32 0, 1
  %65 = sub i32 %63, %64
  %66 = add nsw i32 %63, 1
  store i32 %65, i32* %6, align 4
  br label %67

; <label>:67:                                     ; preds = %103, %42
  %68 = load i32, i32* %6, align 4
  %69 = load i32, i32* %4, align 4
  %70 = mul nsw i32 3, %69
  %71 = icmp sle i32 %68, %70
  br i1 %71, label %72, label %109

; <label>:72:                                     ; preds = %67
  %73 = load i32, i32* %5, align 4
  %74 = load i32, i32* %3, align 4
  %75 = load i32, i32* %4, align 4
  %76 = mul nsw i32 3, %75
  %77 = load i32, i32* %6, align 4
  %78 = sub i32 %76, -1927544218
  %79 = sub i32 %78, %77
  %80 = add i32 %79, -1927544218
  %81 = sub nsw i32 %76, %77
  %82 = load i32, i32* %3, align 4
  %83 = add i32 %82, -537309860
  %84 = sub i32 %83, 1
  %85 = sub i32 %84, -537309860
  %86 = sub nsw i32 %82, 1
  %87 = add i32 %80, -949467485
  %88 = add i32 %87, %85
  %89 = sub i32 %88, -949467485
  %90 = add nsw i32 %80, %85
  %91 = add i32 %89, -1153619680
  %92 = sub i32 %91, 1
  %93 = sub i32 %92, -1153619680
  %94 = sub nsw i32 %89, 1
  %95 = load i32, i32* %3, align 4
  %96 = sub i32 %95, 218286351
  %97 = sub i32 %96, 2
  %98 = add i32 %97, 218286351
  %99 = sub nsw i32 %95, 2
  %100 = call i32 @_Z1cii(i32 %93, i32 %98)
  %101 = call i32 @_Z4multii(i32 %74, i32 %100)
  %102 = call i32 @_Z3subii(i32 %73, i32 %101)
  store i32 %102, i32* %5, align 4
  br label %103

; <label>:103:                                    ; preds = %72
  %104 = load i32, i32* %6, align 4
  %105 = sub i32 %104, -2142994665
  %106 = add i32 %105, 1
  %107 = add i32 %106, -2142994665
  %108 = add nsw i32 %104, 1
  store i32 %107, i32* %6, align 4
  br label %67

; <label>:109:                                    ; preds = %67
  %110 = load i32, i32* %4, align 4
  %111 = sub i32 %110, -688957150
  %112 = add i32 %111, 1
  %113 = add i32 %112, -688957150
  %114 = add nsw i32 %110, 1
  store i32 %113, i32* %7, align 4
  br label %115

; <label>:115:                                    ; preds = %166, %109
  %116 = load i32, i32* %7, align 4
  %117 = load i32, i32* %4, align 4
  %118 = mul nsw i32 3, %117
  %119 = icmp sle i32 %116, %118
  br i1 %119, label %120, label %172

; <label>:120:                                    ; preds = %115
  %121 = load i32, i32* %7, align 4
  %122 = load i32, i32* %3, align 4
  %123 = icmp sle i32 %121, %122
  br i1 %123, label %124, label %165

; <label>:124:                                    ; preds = %120
  %125 = load i32, i32* %4, align 4
  %126 = mul nsw i32 3, %125
  %127 = load i32, i32* %7, align 4
  %128 = sub i32 %126, 6776991
  %129 = sub i32 %128, %127
  %130 = add i32 %129, 6776991
  %131 = sub nsw i32 %126, %127
  %132 = srem i32 %130, 2
  %133 = icmp eq i32 %132, 0
  br i1 %133, label %134, label %165

; <label>:134:                                    ; preds = %124
  %135 = load i32, i32* %3, align 4
  %136 = load i32, i32* %7, align 4
  %137 = call i32 @_Z1cii(i32 %135, i32 %136)
  %138 = load i32, i32* %3, align 4
  %139 = load i32, i32* %4, align 4
  %140 = mul nsw i32 3, %139
  %141 = load i32, i32* %7, align 4
  %142 = sub i32 %140, -186749711
  %143 = sub i32 %142, %141
  %144 = add i32 %143, -186749711
  %145 = sub nsw i32 %140, %141
  %146 = sdiv i32 %144, 2
  %147 = sub i32 %138, -685797471
  %148 = add i32 %147, %146
  %149 = add i32 %148, -685797471
  %150 = add nsw i32 %138, %146
  %151 = add i32 %149, -626524427
  %152 = sub i32 %151, 1
  %153 = sub i32 %152, -626524427
  %154 = sub nsw i32 %149, 1
  %155 = load i32, i32* %3, align 4
  %156 = sub i32 %155, 2127042039
  %157 = sub i32 %156, 1
  %158 = add i32 %157, 2127042039
  %159 = sub nsw i32 %155, 1
  %160 = call i32 @_Z1cii(i32 %153, i32 %158)
  %161 = call i32 @_Z4multii(i32 %137, i32 %160)
  store i32 %161, i32* %8, align 4
  %162 = load i32, i32* %5, align 4
  %163 = load i32, i32* %8, align 4
  %164 = call i32 @_Z3subii(i32 %162, i32 %163)
  store i32 %164, i32* %5, align 4
  br label %165

; <label>:165:                                    ; preds = %134, %124, %120
  br label %166

; <label>:166:                                    ; preds = %165
  %167 = load i32, i32* %7, align 4
  %168 = sub i32 %167, -768780334
  %169 = add i32 %168, 1
  %170 = add i32 %169, -768780334
  %171 = add nsw i32 %167, 1
  store i32 %170, i32* %7, align 4
  br label %115

; <label>:172:                                    ; preds = %115
  %173 = load i32, i32* %5, align 4
  %174 = call dereferenceable(272) %"class.std::basic_ostream"* @_ZNSolsEi(%"class.std::basic_ostream"* @_ZSt4cout, i32 %173)
  %175 = load i32, i32* %1, align 4
  ret i32 %175
}

declare zeroext i1 @_ZNSt8ios_base15sync_with_stdioEb(i1 zeroext) #1

declare dereferenceable(280) %"class.std::basic_istream"* @_ZNSirsERi(%"class.std::basic_istream"*, i32* dereferenceable(4)) #1

declare dereferenceable(272) %"class.std::basic_ostream"* @_ZNSolsEi(%"class.std::basic_ostream"*, i32) #1

; Function Attrs: noinline nounwind uwtable
define linkonce_odr dereferenceable(4) i32* @_ZSt4moveIRiEONSt16remove_referenceIT_E4typeEOS2_(i32* dereferenceable(4)) #4 comdat {
  %2 = alloca i32*, align 8
  store i32* %0, i32** %2, align 8
  %3 = load i32*, i32** %2, align 8
  ret i32* %3
}

; Function Attrs: noinline nounwind uwtable
define linkonce_odr void @_ZN9__gnu_cxx17__normal_iteratorIPiSt6vectorIiSaIiEEEC2ERKS1_(%"class.__gnu_cxx::__normal_iterator"*, i32** dereferenceable(8)) unnamed_addr #4 comdat align 2 {
  %3 = alloca %"class.__gnu_cxx::__normal_iterator"*, align 8
  %4 = alloca i32**, align 8
  store %"class.__gnu_cxx::__normal_iterator"* %0, %"class.__gnu_cxx::__normal_iterator"** %3, align 8
  store i32** %1, i32*** %4, align 8
  %5 = load %"class.__gnu_cxx::__normal_iterator"*, %"class.__gnu_cxx::__normal_iterator"** %3, align 8
  %6 = getelementptr inbounds %"class.__gnu_cxx::__normal_iterator", %"class.__gnu_cxx::__normal_iterator"* %5, i32 0, i32 0
  %7 = load i32**, i32*** %4, align 8
  %8 = load i32*, i32** %7, align 8
  store i32* %8, i32** %6, align 8
  ret void
}

; Function Attrs: noinline nounwind uwtable
define linkonce_odr dereferenceable(8) i32** @_ZNK9__gnu_cxx17__normal_iteratorIPiSt6vectorIiSaIiEEE4baseEv(%"class.__gnu_cxx::__normal_iterator"*) #4 comdat align 2 {
  %2 = alloca %"class.__gnu_cxx::__normal_iterator"*, align 8
  store %"class.__gnu_cxx::__normal_iterator"* %0, %"class.__gnu_cxx::__normal_iterator"** %2, align 8
  %3 = load %"class.__gnu_cxx::__normal_iterator"*, %"class.__gnu_cxx::__normal_iterator"** %2, align 8
  %4 = getelementptr inbounds %"class.__gnu_cxx::__normal_iterator", %"class.__gnu_cxx::__normal_iterator"* %3, i32 0, i32 0
  ret i32** %4
}

; Function Attrs: noinline uwtable
define linkonce_odr void @_ZNSt6vectorIiSaIiEE17_M_default_appendEm(%"class.std::vector"*, i64) #0 comdat align 2 personality i8* bitcast (i32 (...)* @__gxx_personality_v0 to i8*) {
  %3 = alloca %"class.std::vector"*, align 8
  %4 = alloca i64, align 8
  %5 = alloca i64, align 8
  %6 = alloca i64, align 8
  %7 = alloca i32*, align 8
  %8 = alloca i32*, align 8
  %9 = alloca i8*
  %10 = alloca i32
  store %"class.std::vector"* %0, %"class.std::vector"** %3, align 8
  store i64 %1, i64* %4, align 8
  %11 = load %"class.std::vector"*, %"class.std::vector"** %3, align 8
  %12 = load i64, i64* %4, align 8
  %13 = icmp ne i64 %12, 0
  br i1 %13, label %14, label %137

; <label>:14:                                     ; preds = %2
  %15 = bitcast %"class.std::vector"* %11 to %"struct.std::_Vector_base"*
  %16 = getelementptr inbounds %"struct.std::_Vector_base", %"struct.std::_Vector_base"* %15, i32 0, i32 0
  %17 = getelementptr inbounds %"struct.std::_Vector_base<int, std::allocator<int> >::_Vector_impl", %"struct.std::_Vector_base<int, std::allocator<int> >::_Vector_impl"* %16, i32 0, i32 2
  %18 = load i32*, i32** %17, align 8
  %19 = bitcast %"class.std::vector"* %11 to %"struct.std::_Vector_base"*
  %20 = getelementptr inbounds %"struct.std::_Vector_base", %"struct.std::_Vector_base"* %19, i32 0, i32 0
  %21 = getelementptr inbounds %"struct.std::_Vector_base<int, std::allocator<int> >::_Vector_impl", %"struct.std::_Vector_base<int, std::allocator<int> >::_Vector_impl"* %20, i32 0, i32 1
  %22 = load i32*, i32** %21, align 8
  %23 = ptrtoint i32* %18 to i64
  %24 = ptrtoint i32* %22 to i64
  %25 = sub i64 0, %24
  %26 = add i64 %23, %25
  %27 = sub i64 %23, %24
  %28 = sdiv exact i64 %26, 4
  %29 = load i64, i64* %4, align 8
  %30 = icmp uge i64 %28, %29
  br i1 %30, label %31, label %43

; <label>:31:                                     ; preds = %14
  %32 = bitcast %"class.std::vector"* %11 to %"struct.std::_Vector_base"*
  %33 = getelementptr inbounds %"struct.std::_Vector_base", %"struct.std::_Vector_base"* %32, i32 0, i32 0
  %34 = getelementptr inbounds %"struct.std::_Vector_base<int, std::allocator<int> >::_Vector_impl", %"struct.std::_Vector_base<int, std::allocator<int> >::_Vector_impl"* %33, i32 0, i32 1
  %35 = load i32*, i32** %34, align 8
  %36 = load i64, i64* %4, align 8
  %37 = bitcast %"class.std::vector"* %11 to %"struct.std::_Vector_base"*
  %38 = call dereferenceable(1) %"class.std::allocator"* @_ZNSt12_Vector_baseIiSaIiEE19_M_get_Tp_allocatorEv(%"struct.std::_Vector_base"* %37) #3
  %39 = call i32* @_ZSt27__uninitialized_default_n_aIPimiET_S1_T0_RSaIT1_E(i32* %35, i64 %36, %"class.std::allocator"* dereferenceable(1) %38)
  %40 = bitcast %"class.std::vector"* %11 to %"struct.std::_Vector_base"*
  %41 = getelementptr inbounds %"struct.std::_Vector_base", %"struct.std::_Vector_base"* %40, i32 0, i32 0
  %42 = getelementptr inbounds %"struct.std::_Vector_base<int, std::allocator<int> >::_Vector_impl", %"struct.std::_Vector_base<int, std::allocator<int> >::_Vector_impl"* %41, i32 0, i32 1
  store i32* %39, i32** %42, align 8
  br label %136

; <label>:43:                                     ; preds = %14
  %44 = load i64, i64* %4, align 8
  %45 = call i64 @_ZNKSt6vectorIiSaIiEE12_M_check_lenEmPKc(%"class.std::vector"* %11, i64 %44, i8* getelementptr inbounds ([26 x i8], [26 x i8]* @.str, i32 0, i32 0))
  store i64 %45, i64* %5, align 8
  %46 = call i64 @_ZNKSt6vectorIiSaIiEE4sizeEv(%"class.std::vector"* %11) #3
  store i64 %46, i64* %6, align 8
  %47 = bitcast %"class.std::vector"* %11 to %"struct.std::_Vector_base"*
  %48 = load i64, i64* %5, align 8
  %49 = call i32* @_ZNSt12_Vector_baseIiSaIiEE11_M_allocateEm(%"struct.std::_Vector_base"* %47, i64 %48)
  store i32* %49, i32** %7, align 8
  %50 = load i32*, i32** %7, align 8
  store i32* %50, i32** %8, align 8
  %51 = bitcast %"class.std::vector"* %11 to %"struct.std::_Vector_base"*
  %52 = getelementptr inbounds %"struct.std::_Vector_base", %"struct.std::_Vector_base"* %51, i32 0, i32 0
  %53 = getelementptr inbounds %"struct.std::_Vector_base<int, std::allocator<int> >::_Vector_impl", %"struct.std::_Vector_base<int, std::allocator<int> >::_Vector_impl"* %52, i32 0, i32 0
  %54 = load i32*, i32** %53, align 8
  %55 = bitcast %"class.std::vector"* %11 to %"struct.std::_Vector_base"*
  %56 = getelementptr inbounds %"struct.std::_Vector_base", %"struct.std::_Vector_base"* %55, i32 0, i32 0
  %57 = getelementptr inbounds %"struct.std::_Vector_base<int, std::allocator<int> >::_Vector_impl", %"struct.std::_Vector_base<int, std::allocator<int> >::_Vector_impl"* %56, i32 0, i32 1
  %58 = load i32*, i32** %57, align 8
  %59 = load i32*, i32** %7, align 8
  %60 = bitcast %"class.std::vector"* %11 to %"struct.std::_Vector_base"*
  %61 = call dereferenceable(1) %"class.std::allocator"* @_ZNSt12_Vector_baseIiSaIiEE19_M_get_Tp_allocatorEv(%"struct.std::_Vector_base"* %60) #3
  %62 = invoke i32* @_ZSt34__uninitialized_move_if_noexcept_aIPiS0_SaIiEET0_T_S3_S2_RT1_(i32* %54, i32* %58, i32* %59, %"class.std::allocator"* dereferenceable(1) %61)
          to label %63 unwind label %70

; <label>:63:                                     ; preds = %43
  store i32* %62, i32** %8, align 8
  %64 = load i32*, i32** %8, align 8
  %65 = load i64, i64* %4, align 8
  %66 = bitcast %"class.std::vector"* %11 to %"struct.std::_Vector_base"*
  %67 = call dereferenceable(1) %"class.std::allocator"* @_ZNSt12_Vector_baseIiSaIiEE19_M_get_Tp_allocatorEv(%"struct.std::_Vector_base"* %66) #3
  %68 = invoke i32* @_ZSt27__uninitialized_default_n_aIPimiET_S1_T0_RSaIT1_E(i32* %64, i64 %65, %"class.std::allocator"* dereferenceable(1) %67)
          to label %69 unwind label %70

; <label>:69:                                     ; preds = %63
  store i32* %68, i32** %8, align 8
  br label %91

; <label>:70:                                     ; preds = %63, %43
  %71 = landingpad { i8*, i32 }
          catch i8* null
  %72 = extractvalue { i8*, i32 } %71, 0
  store i8* %72, i8** %9, align 8
  %73 = extractvalue { i8*, i32 } %71, 1
  store i32 %73, i32* %10, align 4
  br label %74

; <label>:74:                                     ; preds = %70
  %75 = load i8*, i8** %9, align 8
  %76 = call i8* @__cxa_begin_catch(i8* %75) #3
  %77 = load i32*, i32** %7, align 8
  %78 = load i32*, i32** %8, align 8
  %79 = bitcast %"class.std::vector"* %11 to %"struct.std::_Vector_base"*
  %80 = call dereferenceable(1) %"class.std::allocator"* @_ZNSt12_Vector_baseIiSaIiEE19_M_get_Tp_allocatorEv(%"struct.std::_Vector_base"* %79) #3
  invoke void @_ZSt8_DestroyIPiiEvT_S1_RSaIT0_E(i32* %77, i32* %78, %"class.std::allocator"* dereferenceable(1) %80)
          to label %81 unwind label %86

; <label>:81:                                     ; preds = %74
  %82 = bitcast %"class.std::vector"* %11 to %"struct.std::_Vector_base"*
  %83 = load i32*, i32** %7, align 8
  %84 = load i64, i64* %5, align 8
  invoke void @_ZNSt12_Vector_baseIiSaIiEE13_M_deallocateEPim(%"struct.std::_Vector_base"* %82, i32* %83, i64 %84)
          to label %85 unwind label %86

; <label>:85:                                     ; preds = %81
  invoke void @__cxa_rethrow() #12
          to label %146 unwind label %86

; <label>:86:                                     ; preds = %85, %81, %74
  %87 = landingpad { i8*, i32 }
          cleanup
  %88 = extractvalue { i8*, i32 } %87, 0
  store i8* %88, i8** %9, align 8
  %89 = extractvalue { i8*, i32 } %87, 1
  store i32 %89, i32* %10, align 4
  invoke void @__cxa_end_catch()
          to label %90 unwind label %143

; <label>:90:                                     ; preds = %86
  br label %138

; <label>:91:                                     ; preds = %69
  %92 = bitcast %"class.std::vector"* %11 to %"struct.std::_Vector_base"*
  %93 = getelementptr inbounds %"struct.std::_Vector_base", %"struct.std::_Vector_base"* %92, i32 0, i32 0
  %94 = getelementptr inbounds %"struct.std::_Vector_base<int, std::allocator<int> >::_Vector_impl", %"struct.std::_Vector_base<int, std::allocator<int> >::_Vector_impl"* %93, i32 0, i32 0
  %95 = load i32*, i32** %94, align 8
  %96 = bitcast %"class.std::vector"* %11 to %"struct.std::_Vector_base"*
  %97 = getelementptr inbounds %"struct.std::_Vector_base", %"struct.std::_Vector_base"* %96, i32 0, i32 0
  %98 = getelementptr inbounds %"struct.std::_Vector_base<int, std::allocator<int> >::_Vector_impl", %"struct.std::_Vector_base<int, std::allocator<int> >::_Vector_impl"* %97, i32 0, i32 1
  %99 = load i32*, i32** %98, align 8
  %100 = bitcast %"class.std::vector"* %11 to %"struct.std::_Vector_base"*
  %101 = call dereferenceable(1) %"class.std::allocator"* @_ZNSt12_Vector_baseIiSaIiEE19_M_get_Tp_allocatorEv(%"struct.std::_Vector_base"* %100) #3
  call void @_ZSt8_DestroyIPiiEvT_S1_RSaIT0_E(i32* %95, i32* %99, %"class.std::allocator"* dereferenceable(1) %101)
  %102 = bitcast %"class.std::vector"* %11 to %"struct.std::_Vector_base"*
  %103 = bitcast %"class.std::vector"* %11 to %"struct.std::_Vector_base"*
  %104 = getelementptr inbounds %"struct.std::_Vector_base", %"struct.std::_Vector_base"* %103, i32 0, i32 0
  %105 = getelementptr inbounds %"struct.std::_Vector_base<int, std::allocator<int> >::_Vector_impl", %"struct.std::_Vector_base<int, std::allocator<int> >::_Vector_impl"* %104, i32 0, i32 0
  %106 = load i32*, i32** %105, align 8
  %107 = bitcast %"class.std::vector"* %11 to %"struct.std::_Vector_base"*
  %108 = getelementptr inbounds %"struct.std::_Vector_base", %"struct.std::_Vector_base"* %107, i32 0, i32 0
  %109 = getelementptr inbounds %"struct.std::_Vector_base<int, std::allocator<int> >::_Vector_impl", %"struct.std::_Vector_base<int, std::allocator<int> >::_Vector_impl"* %108, i32 0, i32 2
  %110 = load i32*, i32** %109, align 8
  %111 = bitcast %"class.std::vector"* %11 to %"struct.std::_Vector_base"*
  %112 = getelementptr inbounds %"struct.std::_Vector_base", %"struct.std::_Vector_base"* %111, i32 0, i32 0
  %113 = getelementptr inbounds %"struct.std::_Vector_base<int, std::allocator<int> >::_Vector_impl", %"struct.std::_Vector_base<int, std::allocator<int> >::_Vector_impl"* %112, i32 0, i32 0
  %114 = load i32*, i32** %113, align 8
  %115 = ptrtoint i32* %110 to i64
  %116 = ptrtoint i32* %114 to i64
  %117 = sub i64 %115, 6691052338652519247
  %118 = sub i64 %117, %116
  %119 = add i64 %118, 6691052338652519247
  %120 = sub i64 %115, %116
  %121 = sdiv exact i64 %119, 4
  call void @_ZNSt12_Vector_baseIiSaIiEE13_M_deallocateEPim(%"struct.std::_Vector_base"* %102, i32* %106, i64 %121)
  %122 = load i32*, i32** %7, align 8
  %123 = bitcast %"class.std::vector"* %11 to %"struct.std::_Vector_base"*
  %124 = getelementptr inbounds %"struct.std::_Vector_base", %"struct.std::_Vector_base"* %123, i32 0, i32 0
  %125 = getelementptr inbounds %"struct.std::_Vector_base<int, std::allocator<int> >::_Vector_impl", %"struct.std::_Vector_base<int, std::allocator<int> >::_Vector_impl"* %124, i32 0, i32 0
  store i32* %122, i32** %125, align 8
  %126 = load i32*, i32** %8, align 8
  %127 = bitcast %"class.std::vector"* %11 to %"struct.std::_Vector_base"*
  %128 = getelementptr inbounds %"struct.std::_Vector_base", %"struct.std::_Vector_base"* %127, i32 0, i32 0
  %129 = getelementptr inbounds %"struct.std::_Vector_base<int, std::allocator<int> >::_Vector_impl", %"struct.std::_Vector_base<int, std::allocator<int> >::_Vector_impl"* %128, i32 0, i32 1
  store i32* %126, i32** %129, align 8
  %130 = load i32*, i32** %7, align 8
  %131 = load i64, i64* %5, align 8
  %132 = getelementptr inbounds i32, i32* %130, i64 %131
  %133 = bitcast %"class.std::vector"* %11 to %"struct.std::_Vector_base"*
  %134 = getelementptr inbounds %"struct.std::_Vector_base", %"struct.std::_Vector_base"* %133, i32 0, i32 0
  %135 = getelementptr inbounds %"struct.std::_Vector_base<int, std::allocator<int> >::_Vector_impl", %"struct.std::_Vector_base<int, std::allocator<int> >::_Vector_impl"* %134, i32 0, i32 2
  store i32* %132, i32** %135, align 8
  br label %136

; <label>:136:                                    ; preds = %91, %31
  br label %137

; <label>:137:                                    ; preds = %136, %2
  ret void

; <label>:138:                                    ; preds = %90
  %139 = load i8*, i8** %9, align 8
  %140 = load i32, i32* %10, align 4
  %141 = insertvalue { i8*, i32 } undef, i8* %139, 0
  %142 = insertvalue { i8*, i32 } %141, i32 %140, 1
  resume { i8*, i32 } %142

; <label>:143:                                    ; preds = %86
  %144 = landingpad { i8*, i32 }
          catch i8* null
  %145 = extractvalue { i8*, i32 } %144, 0
  call void @__clang_call_terminate(i8* %145) #11
  unreachable

; <label>:146:                                    ; preds = %85
  unreachable
}

; Function Attrs: noinline nounwind uwtable
define linkonce_odr void @_ZNSt6vectorIiSaIiEE15_M_erase_at_endEPi(%"class.std::vector"*, i32*) #4 comdat align 2 personality i8* bitcast (i32 (...)* @__gxx_personality_v0 to i8*) {
  %3 = alloca %"class.std::vector"*, align 8
  %4 = alloca i32*, align 8
  store %"class.std::vector"* %0, %"class.std::vector"** %3, align 8
  store i32* %1, i32** %4, align 8
  %5 = load %"class.std::vector"*, %"class.std::vector"** %3, align 8
  %6 = load i32*, i32** %4, align 8
  %7 = bitcast %"class.std::vector"* %5 to %"struct.std::_Vector_base"*
  %8 = getelementptr inbounds %"struct.std::_Vector_base", %"struct.std::_Vector_base"* %7, i32 0, i32 0
  %9 = getelementptr inbounds %"struct.std::_Vector_base<int, std::allocator<int> >::_Vector_impl", %"struct.std::_Vector_base<int, std::allocator<int> >::_Vector_impl"* %8, i32 0, i32 1
  %10 = load i32*, i32** %9, align 8
  %11 = bitcast %"class.std::vector"* %5 to %"struct.std::_Vector_base"*
  %12 = call dereferenceable(1) %"class.std::allocator"* @_ZNSt12_Vector_baseIiSaIiEE19_M_get_Tp_allocatorEv(%"struct.std::_Vector_base"* %11) #3
  invoke void @_ZSt8_DestroyIPiiEvT_S1_RSaIT0_E(i32* %6, i32* %10, %"class.std::allocator"* dereferenceable(1) %12)
          to label %13 unwind label %18

; <label>:13:                                     ; preds = %2
  %14 = load i32*, i32** %4, align 8
  %15 = bitcast %"class.std::vector"* %5 to %"struct.std::_Vector_base"*
  %16 = getelementptr inbounds %"struct.std::_Vector_base", %"struct.std::_Vector_base"* %15, i32 0, i32 0
  %17 = getelementptr inbounds %"struct.std::_Vector_base<int, std::allocator<int> >::_Vector_impl", %"struct.std::_Vector_base<int, std::allocator<int> >::_Vector_impl"* %16, i32 0, i32 1
  store i32* %14, i32** %17, align 8
  ret void

; <label>:18:                                     ; preds = %2
  %19 = landingpad { i8*, i32 }
          catch i8* null
  %20 = extractvalue { i8*, i32 } %19, 0
  call void @__clang_call_terminate(i8* %20) #11
  unreachable
}

; Function Attrs: noinline uwtable
define linkonce_odr i32* @_ZSt27__uninitialized_default_n_aIPimiET_S1_T0_RSaIT1_E(i32*, i64, %"class.std::allocator"* dereferenceable(1)) #0 comdat {
  %4 = alloca i32*, align 8
  %5 = alloca i64, align 8
  %6 = alloca %"class.std::allocator"*, align 8
  store i32* %0, i32** %4, align 8
  store i64 %1, i64* %5, align 8
  store %"class.std::allocator"* %2, %"class.std::allocator"** %6, align 8
  %7 = load i32*, i32** %4, align 8
  %8 = load i64, i64* %5, align 8
  %9 = call i32* @_ZSt25__uninitialized_default_nIPimET_S1_T0_(i32* %7, i64 %8)
  ret i32* %9
}

; Function Attrs: noinline nounwind uwtable
define linkonce_odr dereferenceable(1) %"class.std::allocator"* @_ZNSt12_Vector_baseIiSaIiEE19_M_get_Tp_allocatorEv(%"struct.std::_Vector_base"*) #4 comdat align 2 {
  %2 = alloca %"struct.std::_Vector_base"*, align 8
  store %"struct.std::_Vector_base"* %0, %"struct.std::_Vector_base"** %2, align 8
  %3 = load %"struct.std::_Vector_base"*, %"struct.std::_Vector_base"** %2, align 8
  %4 = getelementptr inbounds %"struct.std::_Vector_base", %"struct.std::_Vector_base"* %3, i32 0, i32 0
  %5 = bitcast %"struct.std::_Vector_base<int, std::allocator<int> >::_Vector_impl"* %4 to %"class.std::allocator"*
  ret %"class.std::allocator"* %5
}

; Function Attrs: noinline uwtable
define linkonce_odr i64 @_ZNKSt6vectorIiSaIiEE12_M_check_lenEmPKc(%"class.std::vector"*, i64, i8*) #0 comdat align 2 {
  %4 = alloca %"class.std::vector"*, align 8
  %5 = alloca i64, align 8
  %6 = alloca i8*, align 8
  %7 = alloca i64, align 8
  %8 = alloca i64, align 8
  store %"class.std::vector"* %0, %"class.std::vector"** %4, align 8
  store i64 %1, i64* %5, align 8
  store i8* %2, i8** %6, align 8
  %9 = load %"class.std::vector"*, %"class.std::vector"** %4, align 8
  %10 = call i64 @_ZNKSt6vectorIiSaIiEE8max_sizeEv(%"class.std::vector"* %9) #3
  %11 = call i64 @_ZNKSt6vectorIiSaIiEE4sizeEv(%"class.std::vector"* %9) #3
  %12 = sub i64 %10, -1743590465712843915
  %13 = sub i64 %12, %11
  %14 = add i64 %13, -1743590465712843915
  %15 = sub i64 %10, %11
  %16 = load i64, i64* %5, align 8
  %17 = icmp ult i64 %14, %16
  br i1 %17, label %18, label %20

; <label>:18:                                     ; preds = %3
  %19 = load i8*, i8** %6, align 8
  call void @_ZSt20__throw_length_errorPKc(i8* %19) #12
  unreachable

; <label>:20:                                     ; preds = %3
  %21 = call i64 @_ZNKSt6vectorIiSaIiEE4sizeEv(%"class.std::vector"* %9) #3
  %22 = call i64 @_ZNKSt6vectorIiSaIiEE4sizeEv(%"class.std::vector"* %9) #3
  store i64 %22, i64* %8, align 8
  %23 = call dereferenceable(8) i64* @_ZSt3maxImERKT_S2_S2_(i64* dereferenceable(8) %8, i64* dereferenceable(8) %5)
  %24 = load i64, i64* %23, align 8
  %25 = sub i64 %21, 5396491503223262552
  %26 = add i64 %25, %24
  %27 = add i64 %26, 5396491503223262552
  %28 = add i64 %21, %24
  store i64 %27, i64* %7, align 8
  %29 = load i64, i64* %7, align 8
  %30 = call i64 @_ZNKSt6vectorIiSaIiEE4sizeEv(%"class.std::vector"* %9) #3
  %31 = icmp ult i64 %29, %30
  br i1 %31, label %36, label %32

; <label>:32:                                     ; preds = %20
  %33 = load i64, i64* %7, align 8
  %34 = call i64 @_ZNKSt6vectorIiSaIiEE8max_sizeEv(%"class.std::vector"* %9) #3
  %35 = icmp ugt i64 %33, %34
  br i1 %35, label %36, label %38

; <label>:36:                                     ; preds = %32, %20
  %37 = call i64 @_ZNKSt6vectorIiSaIiEE8max_sizeEv(%"class.std::vector"* %9) #3
  br label %40

; <label>:38:                                     ; preds = %32
  %39 = load i64, i64* %7, align 8
  br label %40

; <label>:40:                                     ; preds = %38, %36
  %41 = phi i64 [ %37, %36 ], [ %39, %38 ]
  ret i64 %41
}

; Function Attrs: noinline uwtable
define linkonce_odr i32* @_ZNSt12_Vector_baseIiSaIiEE11_M_allocateEm(%"struct.std::_Vector_base"*, i64) #0 comdat align 2 {
  %3 = alloca %"struct.std::_Vector_base"*, align 8
  %4 = alloca i64, align 8
  store %"struct.std::_Vector_base"* %0, %"struct.std::_Vector_base"** %3, align 8
  store i64 %1, i64* %4, align 8
  %5 = load %"struct.std::_Vector_base"*, %"struct.std::_Vector_base"** %3, align 8
  %6 = load i64, i64* %4, align 8
  %7 = icmp ne i64 %6, 0
  br i1 %7, label %8, label %13

; <label>:8:                                      ; preds = %2
  %9 = getelementptr inbounds %"struct.std::_Vector_base", %"struct.std::_Vector_base"* %5, i32 0, i32 0
  %10 = bitcast %"struct.std::_Vector_base<int, std::allocator<int> >::_Vector_impl"* %9 to %"class.std::allocator"*
  %11 = load i64, i64* %4, align 8
  %12 = call i32* @_ZNSt16allocator_traitsISaIiEE8allocateERS0_m(%"class.std::allocator"* dereferenceable(1) %10, i64 %11)
  br label %14

; <label>:13:                                     ; preds = %2
  br label %14

; <label>:14:                                     ; preds = %13, %8
  %15 = phi i32* [ %12, %8 ], [ null, %13 ]
  ret i32* %15
}

; Function Attrs: noinline uwtable
define linkonce_odr i32* @_ZSt34__uninitialized_move_if_noexcept_aIPiS0_SaIiEET0_T_S3_S2_RT1_(i32*, i32*, i32*, %"class.std::allocator"* dereferenceable(1)) #0 comdat {
  %5 = alloca i32*, align 8
  %6 = alloca i32*, align 8
  %7 = alloca i32*, align 8
  %8 = alloca %"class.std::allocator"*, align 8
  %9 = alloca %"class.std::move_iterator", align 8
  %10 = alloca %"class.std::move_iterator", align 8
  store i32* %0, i32** %5, align 8
  store i32* %1, i32** %6, align 8
  store i32* %2, i32** %7, align 8
  store %"class.std::allocator"* %3, %"class.std::allocator"** %8, align 8
  %11 = load i32*, i32** %5, align 8
  %12 = call i32* @_ZSt32__make_move_if_noexcept_iteratorIPiSt13move_iteratorIS0_EET0_T_(i32* %11)
  %13 = getelementptr inbounds %"class.std::move_iterator", %"class.std::move_iterator"* %9, i32 0, i32 0
  store i32* %12, i32** %13, align 8
  %14 = load i32*, i32** %6, align 8
  %15 = call i32* @_ZSt32__make_move_if_noexcept_iteratorIPiSt13move_iteratorIS0_EET0_T_(i32* %14)
  %16 = getelementptr inbounds %"class.std::move_iterator", %"class.std::move_iterator"* %10, i32 0, i32 0
  store i32* %15, i32** %16, align 8
  %17 = load i32*, i32** %7, align 8
  %18 = load %"class.std::allocator"*, %"class.std::allocator"** %8, align 8
  %19 = getelementptr inbounds %"class.std::move_iterator", %"class.std::move_iterator"* %9, i32 0, i32 0
  %20 = load i32*, i32** %19, align 8
  %21 = getelementptr inbounds %"class.std::move_iterator", %"class.std::move_iterator"* %10, i32 0, i32 0
  %22 = load i32*, i32** %21, align 8
  %23 = call i32* @_ZSt22__uninitialized_copy_aISt13move_iteratorIPiES1_iET0_T_S4_S3_RSaIT1_E(i32* %20, i32* %22, i32* %17, %"class.std::allocator"* dereferenceable(1) %18)
  ret i32* %23
}

declare i32 @__gxx_personality_v0(...)

declare i8* @__cxa_begin_catch(i8*)

; Function Attrs: noinline uwtable
define linkonce_odr void @_ZSt8_DestroyIPiiEvT_S1_RSaIT0_E(i32*, i32*, %"class.std::allocator"* dereferenceable(1)) #0 comdat {
  %4 = alloca i32*, align 8
  %5 = alloca i32*, align 8
  %6 = alloca %"class.std::allocator"*, align 8
  store i32* %0, i32** %4, align 8
  store i32* %1, i32** %5, align 8
  store %"class.std::allocator"* %2, %"class.std::allocator"** %6, align 8
  %7 = load i32*, i32** %4, align 8
  %8 = load i32*, i32** %5, align 8
  call void @_ZSt8_DestroyIPiEvT_S1_(i32* %7, i32* %8)
  ret void
}

; Function Attrs: noinline uwtable
define linkonce_odr void @_ZNSt12_Vector_baseIiSaIiEE13_M_deallocateEPim(%"struct.std::_Vector_base"*, i32*, i64) #0 comdat align 2 {
  %4 = alloca %"struct.std::_Vector_base"*, align 8
  %5 = alloca i32*, align 8
  %6 = alloca i64, align 8
  store %"struct.std::_Vector_base"* %0, %"struct.std::_Vector_base"** %4, align 8
  store i32* %1, i32** %5, align 8
  store i64 %2, i64* %6, align 8
  %7 = load %"struct.std::_Vector_base"*, %"struct.std::_Vector_base"** %4, align 8
  %8 = load i32*, i32** %5, align 8
  %9 = icmp ne i32* %8, null
  br i1 %9, label %10, label %15

; <label>:10:                                     ; preds = %3
  %11 = getelementptr inbounds %"struct.std::_Vector_base", %"struct.std::_Vector_base"* %7, i32 0, i32 0
  %12 = bitcast %"struct.std::_Vector_base<int, std::allocator<int> >::_Vector_impl"* %11 to %"class.std::allocator"*
  %13 = load i32*, i32** %5, align 8
  %14 = load i64, i64* %6, align 8
  call void @_ZNSt16allocator_traitsISaIiEE10deallocateERS0_Pim(%"class.std::allocator"* dereferenceable(1) %12, i32* %13, i64 %14)
  br label %15

; <label>:15:                                     ; preds = %10, %3
  ret void
}

declare void @__cxa_rethrow()

declare void @__cxa_end_catch()

; Function Attrs: noinline noreturn nounwind
define linkonce_odr hidden void @__clang_call_terminate(i8*) #6 comdat {
  %2 = call i8* @__cxa_begin_catch(i8* %0) #3
  call void @_ZSt9terminatev() #11
  unreachable
}

declare void @_ZSt9terminatev()

; Function Attrs: noinline uwtable
define linkonce_odr i32* @_ZSt25__uninitialized_default_nIPimET_S1_T0_(i32*, i64) #0 comdat {
  %3 = alloca i32*, align 8
  %4 = alloca i64, align 8
  %5 = alloca i8, align 1
  store i32* %0, i32** %3, align 8
  store i64 %1, i64* %4, align 8
  store i8 1, i8* %5, align 1
  %6 = load i32*, i32** %3, align 8
  %7 = load i64, i64* %4, align 8
  %8 = call i32* @_ZNSt27__uninitialized_default_n_1ILb1EE18__uninit_default_nIPimEET_S3_T0_(i32* %6, i64 %7)
  ret i32* %8
}

; Function Attrs: noinline uwtable
define linkonce_odr i32* @_ZNSt27__uninitialized_default_n_1ILb1EE18__uninit_default_nIPimEET_S3_T0_(i32*, i64) #0 comdat align 2 {
  %3 = alloca i32*, align 8
  %4 = alloca i64, align 8
  %5 = alloca i32, align 4
  store i32* %0, i32** %3, align 8
  store i64 %1, i64* %4, align 8
  %6 = load i32*, i32** %3, align 8
  %7 = load i64, i64* %4, align 8
  store i32 0, i32* %5, align 4
  %8 = call i32* @_ZSt6fill_nIPimiET_S1_T0_RKT1_(i32* %6, i64 %7, i32* dereferenceable(4) %5)
  ret i32* %8
}

; Function Attrs: noinline uwtable
define linkonce_odr i32* @_ZSt6fill_nIPimiET_S1_T0_RKT1_(i32*, i64, i32* dereferenceable(4)) #0 comdat {
  %4 = alloca i32*, align 8
  %5 = alloca i64, align 8
  %6 = alloca i32*, align 8
  store i32* %0, i32** %4, align 8
  store i64 %1, i64* %5, align 8
  store i32* %2, i32** %6, align 8
  %7 = load i32*, i32** %4, align 8
  %8 = call i32* @_ZSt12__niter_baseIPiENSt11_Niter_baseIT_E13iterator_typeES2_(i32* %7)
  %9 = load i64, i64* %5, align 8
  %10 = load i32*, i32** %6, align 8
  %11 = call i32* @_ZSt10__fill_n_aIPimiEN9__gnu_cxx11__enable_ifIXsr11__is_scalarIT1_EE7__valueET_E6__typeES4_T0_RKS3_(i32* %8, i64 %9, i32* dereferenceable(4) %10)
  ret i32* %11
}

; Function Attrs: noinline nounwind uwtable
define linkonce_odr i32* @_ZSt10__fill_n_aIPimiEN9__gnu_cxx11__enable_ifIXsr11__is_scalarIT1_EE7__valueET_E6__typeES4_T0_RKS3_(i32*, i64, i32* dereferenceable(4)) #4 comdat {
  %4 = alloca i32*, align 8
  %5 = alloca i64, align 8
  %6 = alloca i32*, align 8
  %7 = alloca i32, align 4
  %8 = alloca i64, align 8
  store i32* %0, i32** %4, align 8
  store i64 %1, i64* %5, align 8
  store i32* %2, i32** %6, align 8
  %9 = load i32*, i32** %6, align 8
  %10 = load i32, i32* %9, align 4
  store i32 %10, i32* %7, align 4
  %11 = load i64, i64* %5, align 8
  store i64 %11, i64* %8, align 8
  br label %12

; <label>:12:                                     ; preds = %18, %3
  %13 = load i64, i64* %8, align 8
  %14 = icmp ugt i64 %13, 0
  br i1 %14, label %15, label %25

; <label>:15:                                     ; preds = %12
  %16 = load i32, i32* %7, align 4
  %17 = load i32*, i32** %4, align 8
  store i32 %16, i32* %17, align 4
  br label %18

; <label>:18:                                     ; preds = %15
  %19 = load i64, i64* %8, align 8
  %20 = sub i64 0, -1
  %21 = sub i64 %19, %20
  %22 = add i64 %19, -1
  store i64 %21, i64* %8, align 8
  %23 = load i32*, i32** %4, align 8
  %24 = getelementptr inbounds i32, i32* %23, i32 1
  store i32* %24, i32** %4, align 8
  br label %12

; <label>:25:                                     ; preds = %12
  %26 = load i32*, i32** %4, align 8
  ret i32* %26
}

; Function Attrs: noinline uwtable
define linkonce_odr i32* @_ZSt12__niter_baseIPiENSt11_Niter_baseIT_E13iterator_typeES2_(i32*) #0 comdat {
  %2 = alloca i32*, align 8
  store i32* %0, i32** %2, align 8
  %3 = load i32*, i32** %2, align 8
  %4 = call i32* @_ZNSt10_Iter_baseIPiLb0EE7_S_baseES0_(i32* %3)
  ret i32* %4
}

; Function Attrs: noinline nounwind uwtable
define linkonce_odr i32* @_ZNSt10_Iter_baseIPiLb0EE7_S_baseES0_(i32*) #4 comdat align 2 {
  %2 = alloca i32*, align 8
  store i32* %0, i32** %2, align 8
  %3 = load i32*, i32** %2, align 8
  ret i32* %3
}

; Function Attrs: noinline nounwind uwtable
define linkonce_odr i64 @_ZNKSt6vectorIiSaIiEE8max_sizeEv(%"class.std::vector"*) #4 comdat align 2 {
  %2 = alloca %"class.std::vector"*, align 8
  store %"class.std::vector"* %0, %"class.std::vector"** %2, align 8
  %3 = load %"class.std::vector"*, %"class.std::vector"** %2, align 8
  %4 = bitcast %"class.std::vector"* %3 to %"struct.std::_Vector_base"*
  %5 = call dereferenceable(1) %"class.std::allocator"* @_ZNKSt12_Vector_baseIiSaIiEE19_M_get_Tp_allocatorEv(%"struct.std::_Vector_base"* %4) #3
  %6 = call i64 @_ZNSt16allocator_traitsISaIiEE8max_sizeERKS0_(%"class.std::allocator"* dereferenceable(1) %5) #3
  ret i64 %6
}

; Function Attrs: noreturn
declare void @_ZSt20__throw_length_errorPKc(i8*) #7

; Function Attrs: noinline nounwind uwtable
define linkonce_odr dereferenceable(8) i64* @_ZSt3maxImERKT_S2_S2_(i64* dereferenceable(8), i64* dereferenceable(8)) #4 comdat {
  %3 = alloca i64*, align 8
  %4 = alloca i64*, align 8
  %5 = alloca i64*, align 8
  store i64* %0, i64** %4, align 8
  store i64* %1, i64** %5, align 8
  %6 = load i64*, i64** %4, align 8
  %7 = load i64, i64* %6, align 8
  %8 = load i64*, i64** %5, align 8
  %9 = load i64, i64* %8, align 8
  %10 = icmp ult i64 %7, %9
  br i1 %10, label %11, label %13

; <label>:11:                                     ; preds = %2
  %12 = load i64*, i64** %5, align 8
  store i64* %12, i64** %3, align 8
  br label %15

; <label>:13:                                     ; preds = %2
  %14 = load i64*, i64** %4, align 8
  store i64* %14, i64** %3, align 8
  br label %15

; <label>:15:                                     ; preds = %13, %11
  %16 = load i64*, i64** %3, align 8
  ret i64* %16
}

; Function Attrs: noinline nounwind uwtable
define linkonce_odr i64 @_ZNSt16allocator_traitsISaIiEE8max_sizeERKS0_(%"class.std::allocator"* dereferenceable(1)) #4 comdat align 2 {
  %2 = alloca %"class.std::allocator"*, align 8
  store %"class.std::allocator"* %0, %"class.std::allocator"** %2, align 8
  %3 = load %"class.std::allocator"*, %"class.std::allocator"** %2, align 8
  %4 = bitcast %"class.std::allocator"* %3 to %"class.__gnu_cxx::new_allocator"*
  %5 = call i64 @_ZNK9__gnu_cxx13new_allocatorIiE8max_sizeEv(%"class.__gnu_cxx::new_allocator"* %4) #3
  ret i64 %5
}

; Function Attrs: noinline nounwind uwtable
define linkonce_odr dereferenceable(1) %"class.std::allocator"* @_ZNKSt12_Vector_baseIiSaIiEE19_M_get_Tp_allocatorEv(%"struct.std::_Vector_base"*) #4 comdat align 2 {
  %2 = alloca %"struct.std::_Vector_base"*, align 8
  store %"struct.std::_Vector_base"* %0, %"struct.std::_Vector_base"** %2, align 8
  %3 = load %"struct.std::_Vector_base"*, %"struct.std::_Vector_base"** %2, align 8
  %4 = getelementptr inbounds %"struct.std::_Vector_base", %"struct.std::_Vector_base"* %3, i32 0, i32 0
  %5 = bitcast %"struct.std::_Vector_base<int, std::allocator<int> >::_Vector_impl"* %4 to %"class.std::allocator"*
  ret %"class.std::allocator"* %5
}

; Function Attrs: noinline nounwind uwtable
define linkonce_odr i64 @_ZNK9__gnu_cxx13new_allocatorIiE8max_sizeEv(%"class.__gnu_cxx::new_allocator"*) #4 comdat align 2 {
  %2 = alloca %"class.__gnu_cxx::new_allocator"*, align 8
  store %"class.__gnu_cxx::new_allocator"* %0, %"class.__gnu_cxx::new_allocator"** %2, align 8
  %3 = load %"class.__gnu_cxx::new_allocator"*, %"class.__gnu_cxx::new_allocator"** %2, align 8
  ret i64 4611686018427387903
}

; Function Attrs: noinline uwtable
define linkonce_odr i32* @_ZNSt16allocator_traitsISaIiEE8allocateERS0_m(%"class.std::allocator"* dereferenceable(1), i64) #0 comdat align 2 {
  %3 = alloca %"class.std::allocator"*, align 8
  %4 = alloca i64, align 8
  store %"class.std::allocator"* %0, %"class.std::allocator"** %3, align 8
  store i64 %1, i64* %4, align 8
  %5 = load %"class.std::allocator"*, %"class.std::allocator"** %3, align 8
  %6 = bitcast %"class.std::allocator"* %5 to %"class.__gnu_cxx::new_allocator"*
  %7 = load i64, i64* %4, align 8
  %8 = call i32* @_ZN9__gnu_cxx13new_allocatorIiE8allocateEmPKv(%"class.__gnu_cxx::new_allocator"* %6, i64 %7, i8* null)
  ret i32* %8
}

; Function Attrs: noinline uwtable
define linkonce_odr i32* @_ZN9__gnu_cxx13new_allocatorIiE8allocateEmPKv(%"class.__gnu_cxx::new_allocator"*, i64, i8*) #0 comdat align 2 {
  %4 = alloca %"class.__gnu_cxx::new_allocator"*, align 8
  %5 = alloca i64, align 8
  %6 = alloca i8*, align 8
  store %"class.__gnu_cxx::new_allocator"* %0, %"class.__gnu_cxx::new_allocator"** %4, align 8
  store i64 %1, i64* %5, align 8
  store i8* %2, i8** %6, align 8
  %7 = load %"class.__gnu_cxx::new_allocator"*, %"class.__gnu_cxx::new_allocator"** %4, align 8
  %8 = load i64, i64* %5, align 8
  %9 = call i64 @_ZNK9__gnu_cxx13new_allocatorIiE8max_sizeEv(%"class.__gnu_cxx::new_allocator"* %7) #3
  %10 = icmp ugt i64 %8, %9
  br i1 %10, label %11, label %12

; <label>:11:                                     ; preds = %3
  call void @_ZSt17__throw_bad_allocv() #12
  unreachable

; <label>:12:                                     ; preds = %3
  %13 = load i64, i64* %5, align 8
  %14 = mul i64 %13, 4
  %15 = call i8* @_Znwm(i64 %14)
  %16 = bitcast i8* %15 to i32*
  ret i32* %16
}

; Function Attrs: noreturn
declare void @_ZSt17__throw_bad_allocv() #7

; Function Attrs: nobuiltin
declare noalias i8* @_Znwm(i64) #8

; Function Attrs: noinline uwtable
define linkonce_odr i32* @_ZSt22__uninitialized_copy_aISt13move_iteratorIPiES1_iET0_T_S4_S3_RSaIT1_E(i32*, i32*, i32*, %"class.std::allocator"* dereferenceable(1)) #0 comdat {
  %5 = alloca %"class.std::move_iterator", align 8
  %6 = alloca %"class.std::move_iterator", align 8
  %7 = alloca i32*, align 8
  %8 = alloca %"class.std::allocator"*, align 8
  %9 = alloca %"class.std::move_iterator", align 8
  %10 = alloca %"class.std::move_iterator", align 8
  %11 = getelementptr inbounds %"class.std::move_iterator", %"class.std::move_iterator"* %5, i32 0, i32 0
  store i32* %0, i32** %11, align 8
  %12 = getelementptr inbounds %"class.std::move_iterator", %"class.std::move_iterator"* %6, i32 0, i32 0
  store i32* %1, i32** %12, align 8
  store i32* %2, i32** %7, align 8
  store %"class.std::allocator"* %3, %"class.std::allocator"** %8, align 8
  %13 = bitcast %"class.std::move_iterator"* %9 to i8*
  %14 = bitcast %"class.std::move_iterator"* %5 to i8*
  call void @llvm.memcpy.p0i8.p0i8.i64(i8* %13, i8* %14, i64 8, i32 8, i1 false)
  %15 = bitcast %"class.std::move_iterator"* %10 to i8*
  %16 = bitcast %"class.std::move_iterator"* %6 to i8*
  call void @llvm.memcpy.p0i8.p0i8.i64(i8* %15, i8* %16, i64 8, i32 8, i1 false)
  %17 = load i32*, i32** %7, align 8
  %18 = getelementptr inbounds %"class.std::move_iterator", %"class.std::move_iterator"* %9, i32 0, i32 0
  %19 = load i32*, i32** %18, align 8
  %20 = getelementptr inbounds %"class.std::move_iterator", %"class.std::move_iterator"* %10, i32 0, i32 0
  %21 = load i32*, i32** %20, align 8
  %22 = call i32* @_ZSt18uninitialized_copyISt13move_iteratorIPiES1_ET0_T_S4_S3_(i32* %19, i32* %21, i32* %17)
  ret i32* %22
}

; Function Attrs: noinline uwtable
define linkonce_odr i32* @_ZSt32__make_move_if_noexcept_iteratorIPiSt13move_iteratorIS0_EET0_T_(i32*) #0 comdat {
  %2 = alloca %"class.std::move_iterator", align 8
  %3 = alloca i32*, align 8
  store i32* %0, i32** %3, align 8
  %4 = load i32*, i32** %3, align 8
  call void @_ZNSt13move_iteratorIPiEC2ES0_(%"class.std::move_iterator"* %2, i32* %4)
  %5 = getelementptr inbounds %"class.std::move_iterator", %"class.std::move_iterator"* %2, i32 0, i32 0
  %6 = load i32*, i32** %5, align 8
  ret i32* %6
}

; Function Attrs: noinline uwtable
define linkonce_odr i32* @_ZSt18uninitialized_copyISt13move_iteratorIPiES1_ET0_T_S4_S3_(i32*, i32*, i32*) #0 comdat {
  %4 = alloca %"class.std::move_iterator", align 8
  %5 = alloca %"class.std::move_iterator", align 8
  %6 = alloca i32*, align 8
  %7 = alloca i8, align 1
  %8 = alloca %"class.std::move_iterator", align 8
  %9 = alloca %"class.std::move_iterator", align 8
  %10 = getelementptr inbounds %"class.std::move_iterator", %"class.std::move_iterator"* %4, i32 0, i32 0
  store i32* %0, i32** %10, align 8
  %11 = getelementptr inbounds %"class.std::move_iterator", %"class.std::move_iterator"* %5, i32 0, i32 0
  store i32* %1, i32** %11, align 8
  store i32* %2, i32** %6, align 8
  store i8 1, i8* %7, align 1
  %12 = bitcast %"class.std::move_iterator"* %8 to i8*
  %13 = bitcast %"class.std::move_iterator"* %4 to i8*
  call void @llvm.memcpy.p0i8.p0i8.i64(i8* %12, i8* %13, i64 8, i32 8, i1 false)
  %14 = bitcast %"class.std::move_iterator"* %9 to i8*
  %15 = bitcast %"class.std::move_iterator"* %5 to i8*
  call void @llvm.memcpy.p0i8.p0i8.i64(i8* %14, i8* %15, i64 8, i32 8, i1 false)
  %16 = load i32*, i32** %6, align 8
  %17 = getelementptr inbounds %"class.std::move_iterator", %"class.std::move_iterator"* %8, i32 0, i32 0
  %18 = load i32*, i32** %17, align 8
  %19 = getelementptr inbounds %"class.std::move_iterator", %"class.std::move_iterator"* %9, i32 0, i32 0
  %20 = load i32*, i32** %19, align 8
  %21 = call i32* @_ZNSt20__uninitialized_copyILb1EE13__uninit_copyISt13move_iteratorIPiES3_EET0_T_S6_S5_(i32* %18, i32* %20, i32* %16)
  ret i32* %21
}

; Function Attrs: argmemonly nounwind
declare void @llvm.memcpy.p0i8.p0i8.i64(i8* nocapture writeonly, i8* nocapture readonly, i64, i32, i1) #9

; Function Attrs: noinline uwtable
define linkonce_odr i32* @_ZNSt20__uninitialized_copyILb1EE13__uninit_copyISt13move_iteratorIPiES3_EET0_T_S6_S5_(i32*, i32*, i32*) #0 comdat align 2 {
  %4 = alloca %"class.std::move_iterator", align 8
  %5 = alloca %"class.std::move_iterator", align 8
  %6 = alloca i32*, align 8
  %7 = alloca %"class.std::move_iterator", align 8
  %8 = alloca %"class.std::move_iterator", align 8
  %9 = getelementptr inbounds %"class.std::move_iterator", %"class.std::move_iterator"* %4, i32 0, i32 0
  store i32* %0, i32** %9, align 8
  %10 = getelementptr inbounds %"class.std::move_iterator", %"class.std::move_iterator"* %5, i32 0, i32 0
  store i32* %1, i32** %10, align 8
  store i32* %2, i32** %6, align 8
  %11 = bitcast %"class.std::move_iterator"* %7 to i8*
  %12 = bitcast %"class.std::move_iterator"* %4 to i8*
  call void @llvm.memcpy.p0i8.p0i8.i64(i8* %11, i8* %12, i64 8, i32 8, i1 false)
  %13 = bitcast %"class.std::move_iterator"* %8 to i8*
  %14 = bitcast %"class.std::move_iterator"* %5 to i8*
  call void @llvm.memcpy.p0i8.p0i8.i64(i8* %13, i8* %14, i64 8, i32 8, i1 false)
  %15 = load i32*, i32** %6, align 8
  %16 = getelementptr inbounds %"class.std::move_iterator", %"class.std::move_iterator"* %7, i32 0, i32 0
  %17 = load i32*, i32** %16, align 8
  %18 = getelementptr inbounds %"class.std::move_iterator", %"class.std::move_iterator"* %8, i32 0, i32 0
  %19 = load i32*, i32** %18, align 8
  %20 = call i32* @_ZSt4copyISt13move_iteratorIPiES1_ET0_T_S4_S3_(i32* %17, i32* %19, i32* %15)
  ret i32* %20
}

; Function Attrs: noinline uwtable
define linkonce_odr i32* @_ZSt4copyISt13move_iteratorIPiES1_ET0_T_S4_S3_(i32*, i32*, i32*) #0 comdat {
  %4 = alloca %"class.std::move_iterator", align 8
  %5 = alloca %"class.std::move_iterator", align 8
  %6 = alloca i32*, align 8
  %7 = alloca %"class.std::move_iterator", align 8
  %8 = alloca %"class.std::move_iterator", align 8
  %9 = getelementptr inbounds %"class.std::move_iterator", %"class.std::move_iterator"* %4, i32 0, i32 0
  store i32* %0, i32** %9, align 8
  %10 = getelementptr inbounds %"class.std::move_iterator", %"class.std::move_iterator"* %5, i32 0, i32 0
  store i32* %1, i32** %10, align 8
  store i32* %2, i32** %6, align 8
  %11 = bitcast %"class.std::move_iterator"* %7 to i8*
  %12 = bitcast %"class.std::move_iterator"* %4 to i8*
  call void @llvm.memcpy.p0i8.p0i8.i64(i8* %11, i8* %12, i64 8, i32 8, i1 false)
  %13 = getelementptr inbounds %"class.std::move_iterator", %"class.std::move_iterator"* %7, i32 0, i32 0
  %14 = load i32*, i32** %13, align 8
  %15 = call i32* @_ZSt12__miter_baseISt13move_iteratorIPiEENSt11_Miter_baseIT_E13iterator_typeES4_(i32* %14)
  %16 = bitcast %"class.std::move_iterator"* %8 to i8*
  %17 = bitcast %"class.std::move_iterator"* %5 to i8*
  call void @llvm.memcpy.p0i8.p0i8.i64(i8* %16, i8* %17, i64 8, i32 8, i1 false)
  %18 = getelementptr inbounds %"class.std::move_iterator", %"class.std::move_iterator"* %8, i32 0, i32 0
  %19 = load i32*, i32** %18, align 8
  %20 = call i32* @_ZSt12__miter_baseISt13move_iteratorIPiEENSt11_Miter_baseIT_E13iterator_typeES4_(i32* %19)
  %21 = load i32*, i32** %6, align 8
  %22 = call i32* @_ZSt14__copy_move_a2ILb1EPiS0_ET1_T0_S2_S1_(i32* %15, i32* %20, i32* %21)
  ret i32* %22
}

; Function Attrs: noinline uwtable
define linkonce_odr i32* @_ZSt14__copy_move_a2ILb1EPiS0_ET1_T0_S2_S1_(i32*, i32*, i32*) #0 comdat {
  %4 = alloca i32*, align 8
  %5 = alloca i32*, align 8
  %6 = alloca i32*, align 8
  store i32* %0, i32** %4, align 8
  store i32* %1, i32** %5, align 8
  store i32* %2, i32** %6, align 8
  %7 = load i32*, i32** %4, align 8
  %8 = call i32* @_ZSt12__niter_baseIPiENSt11_Niter_baseIT_E13iterator_typeES2_(i32* %7)
  %9 = load i32*, i32** %5, align 8
  %10 = call i32* @_ZSt12__niter_baseIPiENSt11_Niter_baseIT_E13iterator_typeES2_(i32* %9)
  %11 = load i32*, i32** %6, align 8
  %12 = call i32* @_ZSt12__niter_baseIPiENSt11_Niter_baseIT_E13iterator_typeES2_(i32* %11)
  %13 = call i32* @_ZSt13__copy_move_aILb1EPiS0_ET1_T0_S2_S1_(i32* %8, i32* %10, i32* %12)
  ret i32* %13
}

; Function Attrs: noinline uwtable
define linkonce_odr i32* @_ZSt12__miter_baseISt13move_iteratorIPiEENSt11_Miter_baseIT_E13iterator_typeES4_(i32*) #0 comdat {
  %2 = alloca %"class.std::move_iterator", align 8
  %3 = alloca %"class.std::move_iterator", align 8
  %4 = getelementptr inbounds %"class.std::move_iterator", %"class.std::move_iterator"* %2, i32 0, i32 0
  store i32* %0, i32** %4, align 8
  %5 = bitcast %"class.std::move_iterator"* %3 to i8*
  %6 = bitcast %"class.std::move_iterator"* %2 to i8*
  call void @llvm.memcpy.p0i8.p0i8.i64(i8* %5, i8* %6, i64 8, i32 8, i1 false)
  %7 = getelementptr inbounds %"class.std::move_iterator", %"class.std::move_iterator"* %3, i32 0, i32 0
  %8 = load i32*, i32** %7, align 8
  %9 = call i32* @_ZNSt10_Iter_baseISt13move_iteratorIPiELb1EE7_S_baseES2_(i32* %8)
  ret i32* %9
}

; Function Attrs: noinline uwtable
define linkonce_odr i32* @_ZSt13__copy_move_aILb1EPiS0_ET1_T0_S2_S1_(i32*, i32*, i32*) #0 comdat {
  %4 = alloca i32*, align 8
  %5 = alloca i32*, align 8
  %6 = alloca i32*, align 8
  %7 = alloca i8, align 1
  store i32* %0, i32** %4, align 8
  store i32* %1, i32** %5, align 8
  store i32* %2, i32** %6, align 8
  store i8 1, i8* %7, align 1
  %8 = load i32*, i32** %4, align 8
  %9 = load i32*, i32** %5, align 8
  %10 = load i32*, i32** %6, align 8
  %11 = call i32* @_ZNSt11__copy_moveILb1ELb1ESt26random_access_iterator_tagE8__copy_mIiEEPT_PKS3_S6_S4_(i32* %8, i32* %9, i32* %10)
  ret i32* %11
}

; Function Attrs: noinline nounwind uwtable
define linkonce_odr i32* @_ZNSt11__copy_moveILb1ELb1ESt26random_access_iterator_tagE8__copy_mIiEEPT_PKS3_S6_S4_(i32*, i32*, i32*) #4 comdat align 2 {
  %4 = alloca i32*, align 8
  %5 = alloca i32*, align 8
  %6 = alloca i32*, align 8
  %7 = alloca i64, align 8
  store i32* %0, i32** %4, align 8
  store i32* %1, i32** %5, align 8
  store i32* %2, i32** %6, align 8
  %8 = load i32*, i32** %5, align 8
  %9 = load i32*, i32** %4, align 8
  %10 = ptrtoint i32* %8 to i64
  %11 = ptrtoint i32* %9 to i64
  %12 = sub i64 %10, 7407620675699887788
  %13 = sub i64 %12, %11
  %14 = add i64 %13, 7407620675699887788
  %15 = sub i64 %10, %11
  %16 = sdiv exact i64 %14, 4
  store i64 %16, i64* %7, align 8
  %17 = load i64, i64* %7, align 8
  %18 = icmp ne i64 %17, 0
  br i1 %18, label %19, label %26

; <label>:19:                                     ; preds = %3
  %20 = load i32*, i32** %6, align 8
  %21 = bitcast i32* %20 to i8*
  %22 = load i32*, i32** %4, align 8
  %23 = bitcast i32* %22 to i8*
  %24 = load i64, i64* %7, align 8
  %25 = mul i64 4, %24
  call void @llvm.memmove.p0i8.p0i8.i64(i8* %21, i8* %23, i64 %25, i32 4, i1 false)
  br label %26

; <label>:26:                                     ; preds = %19, %3
  %27 = load i32*, i32** %6, align 8
  %28 = load i64, i64* %7, align 8
  %29 = getelementptr inbounds i32, i32* %27, i64 %28
  ret i32* %29
}

; Function Attrs: argmemonly nounwind
declare void @llvm.memmove.p0i8.p0i8.i64(i8* nocapture, i8* nocapture readonly, i64, i32, i1) #9

; Function Attrs: noinline uwtable
define linkonce_odr i32* @_ZNSt10_Iter_baseISt13move_iteratorIPiELb1EE7_S_baseES2_(i32*) #0 comdat align 2 {
  %2 = alloca %"class.std::move_iterator", align 8
  %3 = getelementptr inbounds %"class.std::move_iterator", %"class.std::move_iterator"* %2, i32 0, i32 0
  store i32* %0, i32** %3, align 8
  %4 = call i32* @_ZNKSt13move_iteratorIPiE4baseEv(%"class.std::move_iterator"* %2)
  ret i32* %4
}

; Function Attrs: noinline nounwind uwtable
define linkonce_odr i32* @_ZNKSt13move_iteratorIPiE4baseEv(%"class.std::move_iterator"*) #4 comdat align 2 {
  %2 = alloca %"class.std::move_iterator"*, align 8
  store %"class.std::move_iterator"* %0, %"class.std::move_iterator"** %2, align 8
  %3 = load %"class.std::move_iterator"*, %"class.std::move_iterator"** %2, align 8
  %4 = getelementptr inbounds %"class.std::move_iterator", %"class.std::move_iterator"* %3, i32 0, i32 0
  %5 = load i32*, i32** %4, align 8
  ret i32* %5
}

; Function Attrs: noinline nounwind uwtable
define linkonce_odr void @_ZNSt13move_iteratorIPiEC2ES0_(%"class.std::move_iterator"*, i32*) unnamed_addr #4 comdat align 2 {
  %3 = alloca %"class.std::move_iterator"*, align 8
  %4 = alloca i32*, align 8
  store %"class.std::move_iterator"* %0, %"class.std::move_iterator"** %3, align 8
  store i32* %1, i32** %4, align 8
  %5 = load %"class.std::move_iterator"*, %"class.std::move_iterator"** %3, align 8
  %6 = getelementptr inbounds %"class.std::move_iterator", %"class.std::move_iterator"* %5, i32 0, i32 0
  %7 = load i32*, i32** %4, align 8
  store i32* %7, i32** %6, align 8
  ret void
}

; Function Attrs: noinline uwtable
define linkonce_odr void @_ZSt8_DestroyIPiEvT_S1_(i32*, i32*) #0 comdat {
  %3 = alloca i32*, align 8
  %4 = alloca i32*, align 8
  store i32* %0, i32** %3, align 8
  store i32* %1, i32** %4, align 8
  %5 = load i32*, i32** %3, align 8
  %6 = load i32*, i32** %4, align 8
  call void @_ZNSt12_Destroy_auxILb1EE9__destroyIPiEEvT_S3_(i32* %5, i32* %6)
  ret void
}

; Function Attrs: noinline nounwind uwtable
define linkonce_odr void @_ZNSt12_Destroy_auxILb1EE9__destroyIPiEEvT_S3_(i32*, i32*) #4 comdat align 2 {
  %3 = alloca i32*, align 8
  %4 = alloca i32*, align 8
  store i32* %0, i32** %3, align 8
  store i32* %1, i32** %4, align 8
  ret void
}

; Function Attrs: noinline uwtable
define linkonce_odr void @_ZNSt16allocator_traitsISaIiEE10deallocateERS0_Pim(%"class.std::allocator"* dereferenceable(1), i32*, i64) #0 comdat align 2 {
  %4 = alloca %"class.std::allocator"*, align 8
  %5 = alloca i32*, align 8
  %6 = alloca i64, align 8
  store %"class.std::allocator"* %0, %"class.std::allocator"** %4, align 8
  store i32* %1, i32** %5, align 8
  store i64 %2, i64* %6, align 8
  %7 = load %"class.std::allocator"*, %"class.std::allocator"** %4, align 8
  %8 = bitcast %"class.std::allocator"* %7 to %"class.__gnu_cxx::new_allocator"*
  %9 = load i32*, i32** %5, align 8
  %10 = load i64, i64* %6, align 8
  call void @_ZN9__gnu_cxx13new_allocatorIiE10deallocateEPim(%"class.__gnu_cxx::new_allocator"* %8, i32* %9, i64 %10)
  ret void
}

; Function Attrs: noinline nounwind uwtable
define linkonce_odr void @_ZN9__gnu_cxx13new_allocatorIiE10deallocateEPim(%"class.__gnu_cxx::new_allocator"*, i32*, i64) #4 comdat align 2 {
  %4 = alloca %"class.__gnu_cxx::new_allocator"*, align 8
  %5 = alloca i32*, align 8
  %6 = alloca i64, align 8
  store %"class.__gnu_cxx::new_allocator"* %0, %"class.__gnu_cxx::new_allocator"** %4, align 8
  store i32* %1, i32** %5, align 8
  store i64 %2, i64* %6, align 8
  %7 = load %"class.__gnu_cxx::new_allocator"*, %"class.__gnu_cxx::new_allocator"** %4, align 8
  %8 = load i32*, i32** %5, align 8
  %9 = bitcast i32* %8 to i8*
  call void @_ZdlPv(i8* %9) #3
  ret void
}

; Function Attrs: nobuiltin nounwind
declare void @_ZdlPv(i8*) #10

; Function Attrs: noinline uwtable
define linkonce_odr zeroext i1 @_ZSt5equalIN9__gnu_cxx17__normal_iteratorIPKiSt6vectorIiSaIiEEEES7_EbT_S8_T0_(i32*, i32*, i32*) #0 comdat {
  %4 = alloca %"class.__gnu_cxx::__normal_iterator.0", align 8
  %5 = alloca %"class.__gnu_cxx::__normal_iterator.0", align 8
  %6 = alloca %"class.__gnu_cxx::__normal_iterator.0", align 8
  %7 = alloca %"class.__gnu_cxx::__normal_iterator.0", align 8
  %8 = alloca %"class.__gnu_cxx::__normal_iterator.0", align 8
  %9 = alloca %"class.__gnu_cxx::__normal_iterator.0", align 8
  %10 = getelementptr inbounds %"class.__gnu_cxx::__normal_iterator.0", %"class.__gnu_cxx::__normal_iterator.0"* %4, i32 0, i32 0
  store i32* %0, i32** %10, align 8
  %11 = getelementptr inbounds %"class.__gnu_cxx::__normal_iterator.0", %"class.__gnu_cxx::__normal_iterator.0"* %5, i32 0, i32 0
  store i32* %1, i32** %11, align 8
  %12 = getelementptr inbounds %"class.__gnu_cxx::__normal_iterator.0", %"class.__gnu_cxx::__normal_iterator.0"* %6, i32 0, i32 0
  store i32* %2, i32** %12, align 8
  %13 = bitcast %"class.__gnu_cxx::__normal_iterator.0"* %7 to i8*
  %14 = bitcast %"class.__gnu_cxx::__normal_iterator.0"* %4 to i8*
  call void @llvm.memcpy.p0i8.p0i8.i64(i8* %13, i8* %14, i64 8, i32 8, i1 false)
  %15 = getelementptr inbounds %"class.__gnu_cxx::__normal_iterator.0", %"class.__gnu_cxx::__normal_iterator.0"* %7, i32 0, i32 0
  %16 = load i32*, i32** %15, align 8
  %17 = call i32* @_ZSt12__niter_baseIN9__gnu_cxx17__normal_iteratorIPKiSt6vectorIiSaIiEEEEENSt11_Niter_baseIT_E13iterator_typeES9_(i32* %16)
  %18 = bitcast %"class.__gnu_cxx::__normal_iterator.0"* %8 to i8*
  %19 = bitcast %"class.__gnu_cxx::__normal_iterator.0"* %5 to i8*
  call void @llvm.memcpy.p0i8.p0i8.i64(i8* %18, i8* %19, i64 8, i32 8, i1 false)
  %20 = getelementptr inbounds %"class.__gnu_cxx::__normal_iterator.0", %"class.__gnu_cxx::__normal_iterator.0"* %8, i32 0, i32 0
  %21 = load i32*, i32** %20, align 8
  %22 = call i32* @_ZSt12__niter_baseIN9__gnu_cxx17__normal_iteratorIPKiSt6vectorIiSaIiEEEEENSt11_Niter_baseIT_E13iterator_typeES9_(i32* %21)
  %23 = bitcast %"class.__gnu_cxx::__normal_iterator.0"* %9 to i8*
  %24 = bitcast %"class.__gnu_cxx::__normal_iterator.0"* %6 to i8*
  call void @llvm.memcpy.p0i8.p0i8.i64(i8* %23, i8* %24, i64 8, i32 8, i1 false)
  %25 = getelementptr inbounds %"class.__gnu_cxx::__normal_iterator.0", %"class.__gnu_cxx::__normal_iterator.0"* %9, i32 0, i32 0
  %26 = load i32*, i32** %25, align 8
  %27 = call i32* @_ZSt12__niter_baseIN9__gnu_cxx17__normal_iteratorIPKiSt6vectorIiSaIiEEEEENSt11_Niter_baseIT_E13iterator_typeES9_(i32* %26)
  %28 = call zeroext i1 @_ZSt11__equal_auxIPKiS1_EbT_S2_T0_(i32* %17, i32* %22, i32* %27)
  ret i1 %28
}

; Function Attrs: noinline nounwind uwtable
define linkonce_odr i32* @_ZNKSt6vectorIiSaIiEE5beginEv(%"class.std::vector"*) #4 comdat align 2 {
  %2 = alloca %"class.__gnu_cxx::__normal_iterator.0", align 8
  %3 = alloca %"class.std::vector"*, align 8
  %4 = alloca i32*, align 8
  store %"class.std::vector"* %0, %"class.std::vector"** %3, align 8
  %5 = load %"class.std::vector"*, %"class.std::vector"** %3, align 8
  %6 = bitcast %"class.std::vector"* %5 to %"struct.std::_Vector_base"*
  %7 = getelementptr inbounds %"struct.std::_Vector_base", %"struct.std::_Vector_base"* %6, i32 0, i32 0
  %8 = getelementptr inbounds %"struct.std::_Vector_base<int, std::allocator<int> >::_Vector_impl", %"struct.std::_Vector_base<int, std::allocator<int> >::_Vector_impl"* %7, i32 0, i32 0
  %9 = load i32*, i32** %8, align 8
  store i32* %9, i32** %4, align 8
  call void @_ZN9__gnu_cxx17__normal_iteratorIPKiSt6vectorIiSaIiEEEC2ERKS2_(%"class.__gnu_cxx::__normal_iterator.0"* %2, i32** dereferenceable(8) %4) #3
  %10 = getelementptr inbounds %"class.__gnu_cxx::__normal_iterator.0", %"class.__gnu_cxx::__normal_iterator.0"* %2, i32 0, i32 0
  %11 = load i32*, i32** %10, align 8
  ret i32* %11
}

; Function Attrs: noinline nounwind uwtable
define linkonce_odr i32* @_ZNKSt6vectorIiSaIiEE3endEv(%"class.std::vector"*) #4 comdat align 2 {
  %2 = alloca %"class.__gnu_cxx::__normal_iterator.0", align 8
  %3 = alloca %"class.std::vector"*, align 8
  %4 = alloca i32*, align 8
  store %"class.std::vector"* %0, %"class.std::vector"** %3, align 8
  %5 = load %"class.std::vector"*, %"class.std::vector"** %3, align 8
  %6 = bitcast %"class.std::vector"* %5 to %"struct.std::_Vector_base"*
  %7 = getelementptr inbounds %"struct.std::_Vector_base", %"struct.std::_Vector_base"* %6, i32 0, i32 0
  %8 = getelementptr inbounds %"struct.std::_Vector_base<int, std::allocator<int> >::_Vector_impl", %"struct.std::_Vector_base<int, std::allocator<int> >::_Vector_impl"* %7, i32 0, i32 1
  %9 = load i32*, i32** %8, align 8
  store i32* %9, i32** %4, align 8
  call void @_ZN9__gnu_cxx17__normal_iteratorIPKiSt6vectorIiSaIiEEEC2ERKS2_(%"class.__gnu_cxx::__normal_iterator.0"* %2, i32** dereferenceable(8) %4) #3
  %10 = getelementptr inbounds %"class.__gnu_cxx::__normal_iterator.0", %"class.__gnu_cxx::__normal_iterator.0"* %2, i32 0, i32 0
  %11 = load i32*, i32** %10, align 8
  ret i32* %11
}

; Function Attrs: noinline uwtable
define linkonce_odr zeroext i1 @_ZSt11__equal_auxIPKiS1_EbT_S2_T0_(i32*, i32*, i32*) #0 comdat {
  %4 = alloca i32*, align 8
  %5 = alloca i32*, align 8
  %6 = alloca i32*, align 8
  %7 = alloca i8, align 1
  store i32* %0, i32** %4, align 8
  store i32* %1, i32** %5, align 8
  store i32* %2, i32** %6, align 8
  store i8 1, i8* %7, align 1
  %8 = load i32*, i32** %4, align 8
  %9 = load i32*, i32** %5, align 8
  %10 = load i32*, i32** %6, align 8
  %11 = call zeroext i1 @_ZNSt7__equalILb1EE5equalIiEEbPKT_S4_S4_(i32* %8, i32* %9, i32* %10)
  ret i1 %11
}

; Function Attrs: noinline uwtable
define linkonce_odr i32* @_ZSt12__niter_baseIN9__gnu_cxx17__normal_iteratorIPKiSt6vectorIiSaIiEEEEENSt11_Niter_baseIT_E13iterator_typeES9_(i32*) #0 comdat {
  %2 = alloca %"class.__gnu_cxx::__normal_iterator.0", align 8
  %3 = alloca %"class.__gnu_cxx::__normal_iterator.0", align 8
  %4 = getelementptr inbounds %"class.__gnu_cxx::__normal_iterator.0", %"class.__gnu_cxx::__normal_iterator.0"* %2, i32 0, i32 0
  store i32* %0, i32** %4, align 8
  %5 = bitcast %"class.__gnu_cxx::__normal_iterator.0"* %3 to i8*
  %6 = bitcast %"class.__gnu_cxx::__normal_iterator.0"* %2 to i8*
  call void @llvm.memcpy.p0i8.p0i8.i64(i8* %5, i8* %6, i64 8, i32 8, i1 false)
  %7 = getelementptr inbounds %"class.__gnu_cxx::__normal_iterator.0", %"class.__gnu_cxx::__normal_iterator.0"* %3, i32 0, i32 0
  %8 = load i32*, i32** %7, align 8
  %9 = call i32* @_ZNSt10_Iter_baseIN9__gnu_cxx17__normal_iteratorIPKiSt6vectorIiSaIiEEEELb1EE7_S_baseES7_(i32* %8)
  ret i32* %9
}

; Function Attrs: noinline nounwind uwtable
define linkonce_odr zeroext i1 @_ZNSt7__equalILb1EE5equalIiEEbPKT_S4_S4_(i32*, i32*, i32*) #4 comdat align 2 {
  %4 = alloca i1, align 1
  %5 = alloca i32*, align 8
  %6 = alloca i32*, align 8
  %7 = alloca i32*, align 8
  %8 = alloca i64, align 8
  store i32* %0, i32** %5, align 8
  store i32* %1, i32** %6, align 8
  store i32* %2, i32** %7, align 8
  %9 = load i32*, i32** %6, align 8
  %10 = load i32*, i32** %5, align 8
  %11 = ptrtoint i32* %9 to i64
  %12 = ptrtoint i32* %10 to i64
  %13 = sub i64 %11, 5411215408544769846
  %14 = sub i64 %13, %12
  %15 = add i64 %14, 5411215408544769846
  %16 = sub i64 %11, %12
  %17 = sdiv exact i64 %15, 4
  store i64 %17, i64* %8, align 8
  %18 = load i64, i64* %8, align 8
  %19 = icmp ne i64 %18, 0
  br i1 %19, label %20, label %40

; <label>:20:                                     ; preds = %3
  %21 = load i32*, i32** %5, align 8
  %22 = bitcast i32* %21 to i8*
  %23 = load i32*, i32** %7, align 8
  %24 = bitcast i32* %23 to i8*
  %25 = load i64, i64* %8, align 8
  %26 = mul i64 4, %25
  %27 = call i32 @memcmp(i8* %22, i8* %24, i64 %26) #3
  %28 = icmp ne i32 %27, 0
  %29 = xor i1 %28, true
  %30 = and i1 true, %29
  %31 = xor i1 true, true
  %32 = and i1 %28, %31
  %33 = xor i1 true, true
  %34 = and i1 %33, true
  %35 = and i1 true, %31
  %36 = or i1 %30, %32
  %37 = or i1 %34, %35
  %38 = xor i1 %36, %37
  %39 = xor i1 %28, true
  store i1 %38, i1* %4, align 1
  br label %41

; <label>:40:                                     ; preds = %3
  store i1 true, i1* %4, align 1
  br label %41

; <label>:41:                                     ; preds = %40, %20
  %42 = load i1, i1* %4, align 1
  ret i1 %42
}

; Function Attrs: nounwind
declare i32 @memcmp(i8*, i8*, i64) #2

; Function Attrs: noinline nounwind uwtable
define linkonce_odr i32* @_ZNSt10_Iter_baseIN9__gnu_cxx17__normal_iteratorIPKiSt6vectorIiSaIiEEEELb1EE7_S_baseES7_(i32*) #4 comdat align 2 {
  %2 = alloca %"class.__gnu_cxx::__normal_iterator.0", align 8
  %3 = getelementptr inbounds %"class.__gnu_cxx::__normal_iterator.0", %"class.__gnu_cxx::__normal_iterator.0"* %2, i32 0, i32 0
  store i32* %0, i32** %3, align 8
  %4 = call dereferenceable(8) i32** @_ZNK9__gnu_cxx17__normal_iteratorIPKiSt6vectorIiSaIiEEE4baseEv(%"class.__gnu_cxx::__normal_iterator.0"* %2) #3
  %5 = load i32*, i32** %4, align 8
  ret i32* %5
}

; Function Attrs: noinline nounwind uwtable
define linkonce_odr dereferenceable(8) i32** @_ZNK9__gnu_cxx17__normal_iteratorIPKiSt6vectorIiSaIiEEE4baseEv(%"class.__gnu_cxx::__normal_iterator.0"*) #4 comdat align 2 {
  %2 = alloca %"class.__gnu_cxx::__normal_iterator.0"*, align 8
  store %"class.__gnu_cxx::__normal_iterator.0"* %0, %"class.__gnu_cxx::__normal_iterator.0"** %2, align 8
  %3 = load %"class.__gnu_cxx::__normal_iterator.0"*, %"class.__gnu_cxx::__normal_iterator.0"** %2, align 8
  %4 = getelementptr inbounds %"class.__gnu_cxx::__normal_iterator.0", %"class.__gnu_cxx::__normal_iterator.0"* %3, i32 0, i32 0
  ret i32** %4
}

; Function Attrs: noinline nounwind uwtable
define linkonce_odr void @_ZN9__gnu_cxx17__normal_iteratorIPKiSt6vectorIiSaIiEEEC2ERKS2_(%"class.__gnu_cxx::__normal_iterator.0"*, i32** dereferenceable(8)) unnamed_addr #4 comdat align 2 {
  %3 = alloca %"class.__gnu_cxx::__normal_iterator.0"*, align 8
  %4 = alloca i32**, align 8
  store %"class.__gnu_cxx::__normal_iterator.0"* %0, %"class.__gnu_cxx::__normal_iterator.0"** %3, align 8
  store i32** %1, i32*** %4, align 8
  %5 = load %"class.__gnu_cxx::__normal_iterator.0"*, %"class.__gnu_cxx::__normal_iterator.0"** %3, align 8
  %6 = getelementptr inbounds %"class.__gnu_cxx::__normal_iterator.0", %"class.__gnu_cxx::__normal_iterator.0"* %5, i32 0, i32 0
  %7 = load i32**, i32*** %4, align 8
  %8 = load i32*, i32** %7, align 8
  store i32* %8, i32** %6, align 8
  ret void
}

; Function Attrs: noinline nounwind uwtable
define linkonce_odr i64 @_ZNKSt6vectorIiSaIiEE8capacityEv(%"class.std::vector"*) #4 comdat align 2 {
  %2 = alloca %"class.std::vector"*, align 8
  store %"class.std::vector"* %0, %"class.std::vector"** %2, align 8
  %3 = load %"class.std::vector"*, %"class.std::vector"** %2, align 8
  %4 = bitcast %"class.std::vector"* %3 to %"struct.std::_Vector_base"*
  %5 = getelementptr inbounds %"struct.std::_Vector_base", %"struct.std::_Vector_base"* %4, i32 0, i32 0
  %6 = getelementptr inbounds %"struct.std::_Vector_base<int, std::allocator<int> >::_Vector_impl", %"struct.std::_Vector_base<int, std::allocator<int> >::_Vector_impl"* %5, i32 0, i32 2
  %7 = load i32*, i32** %6, align 8
  %8 = bitcast %"class.std::vector"* %3 to %"struct.std::_Vector_base"*
  %9 = getelementptr inbounds %"struct.std::_Vector_base", %"struct.std::_Vector_base"* %8, i32 0, i32 0
  %10 = getelementptr inbounds %"struct.std::_Vector_base<int, std::allocator<int> >::_Vector_impl", %"struct.std::_Vector_base<int, std::allocator<int> >::_Vector_impl"* %9, i32 0, i32 0
  %11 = load i32*, i32** %10, align 8
  %12 = ptrtoint i32* %7 to i64
  %13 = ptrtoint i32* %11 to i64
  %14 = sub i64 %12, -5117277264928951172
  %15 = sub i64 %14, %13
  %16 = add i64 %15, -5117277264928951172
  %17 = sub i64 %12, %13
  %18 = sdiv exact i64 %16, 4
  ret i64 %18
}

; Function Attrs: noinline uwtable
define linkonce_odr i32* @_ZNSt6vectorIiSaIiEE20_M_allocate_and_copyIN9__gnu_cxx17__normal_iteratorIPKiS1_EEEEPimT_S9_(%"class.std::vector"*, i64, i32*, i32*) #0 comdat align 2 personality i8* bitcast (i32 (...)* @__gxx_personality_v0 to i8*) {
  %5 = alloca %"class.__gnu_cxx::__normal_iterator.0", align 8
  %6 = alloca %"class.__gnu_cxx::__normal_iterator.0", align 8
  %7 = alloca %"class.std::vector"*, align 8
  %8 = alloca i64, align 8
  %9 = alloca i32*, align 8
  %10 = alloca %"class.__gnu_cxx::__normal_iterator.0", align 8
  %11 = alloca %"class.__gnu_cxx::__normal_iterator.0", align 8
  %12 = alloca i8*
  %13 = alloca i32
  %14 = getelementptr inbounds %"class.__gnu_cxx::__normal_iterator.0", %"class.__gnu_cxx::__normal_iterator.0"* %5, i32 0, i32 0
  store i32* %2, i32** %14, align 8
  %15 = getelementptr inbounds %"class.__gnu_cxx::__normal_iterator.0", %"class.__gnu_cxx::__normal_iterator.0"* %6, i32 0, i32 0
  store i32* %3, i32** %15, align 8
  store %"class.std::vector"* %0, %"class.std::vector"** %7, align 8
  store i64 %1, i64* %8, align 8
  %16 = load %"class.std::vector"*, %"class.std::vector"** %7, align 8
  %17 = bitcast %"class.std::vector"* %16 to %"struct.std::_Vector_base"*
  %18 = load i64, i64* %8, align 8
  %19 = call i32* @_ZNSt12_Vector_baseIiSaIiEE11_M_allocateEm(%"struct.std::_Vector_base"* %17, i64 %18)
  store i32* %19, i32** %9, align 8
  %20 = bitcast %"class.__gnu_cxx::__normal_iterator.0"* %10 to i8*
  %21 = bitcast %"class.__gnu_cxx::__normal_iterator.0"* %5 to i8*
  call void @llvm.memcpy.p0i8.p0i8.i64(i8* %20, i8* %21, i64 8, i32 8, i1 false)
  %22 = bitcast %"class.__gnu_cxx::__normal_iterator.0"* %11 to i8*
  %23 = bitcast %"class.__gnu_cxx::__normal_iterator.0"* %6 to i8*
  call void @llvm.memcpy.p0i8.p0i8.i64(i8* %22, i8* %23, i64 8, i32 8, i1 false)
  %24 = load i32*, i32** %9, align 8
  %25 = bitcast %"class.std::vector"* %16 to %"struct.std::_Vector_base"*
  %26 = call dereferenceable(1) %"class.std::allocator"* @_ZNSt12_Vector_baseIiSaIiEE19_M_get_Tp_allocatorEv(%"struct.std::_Vector_base"* %25) #3
  %27 = getelementptr inbounds %"class.__gnu_cxx::__normal_iterator.0", %"class.__gnu_cxx::__normal_iterator.0"* %10, i32 0, i32 0
  %28 = load i32*, i32** %27, align 8
  %29 = getelementptr inbounds %"class.__gnu_cxx::__normal_iterator.0", %"class.__gnu_cxx::__normal_iterator.0"* %11, i32 0, i32 0
  %30 = load i32*, i32** %29, align 8
  %31 = invoke i32* @_ZSt22__uninitialized_copy_aIN9__gnu_cxx17__normal_iteratorIPKiSt6vectorIiSaIiEEEEPiiET0_T_SA_S9_RSaIT1_E(i32* %28, i32* %30, i32* %24, %"class.std::allocator"* dereferenceable(1) %26)
          to label %32 unwind label %34

; <label>:32:                                     ; preds = %4
  %33 = load i32*, i32** %9, align 8
  ret i32* %33

; <label>:34:                                     ; preds = %4
  %35 = landingpad { i8*, i32 }
          catch i8* null
  %36 = extractvalue { i8*, i32 } %35, 0
  store i8* %36, i8** %12, align 8
  %37 = extractvalue { i8*, i32 } %35, 1
  store i32 %37, i32* %13, align 4
  br label %38

; <label>:38:                                     ; preds = %34
  %39 = load i8*, i8** %12, align 8
  %40 = call i8* @__cxa_begin_catch(i8* %39) #3
  %41 = bitcast %"class.std::vector"* %16 to %"struct.std::_Vector_base"*
  %42 = load i32*, i32** %9, align 8
  %43 = load i64, i64* %8, align 8
  invoke void @_ZNSt12_Vector_baseIiSaIiEE13_M_deallocateEPim(%"struct.std::_Vector_base"* %41, i32* %42, i64 %43)
          to label %44 unwind label %45

; <label>:44:                                     ; preds = %38
  invoke void @__cxa_rethrow() #12
          to label %59 unwind label %45

; <label>:45:                                     ; preds = %44, %38
  %46 = landingpad { i8*, i32 }
          cleanup
  %47 = extractvalue { i8*, i32 } %46, 0
  store i8* %47, i8** %12, align 8
  %48 = extractvalue { i8*, i32 } %46, 1
  store i32 %48, i32* %13, align 4
  invoke void @__cxa_end_catch()
          to label %49 unwind label %56

; <label>:49:                                     ; preds = %45
  br label %51
                                                  ; No predecessors!
  call void @llvm.trap()
  unreachable

; <label>:51:                                     ; preds = %49
  %52 = load i8*, i8** %12, align 8
  %53 = load i32, i32* %13, align 4
  %54 = insertvalue { i8*, i32 } undef, i8* %52, 0
  %55 = insertvalue { i8*, i32 } %54, i32 %53, 1
  resume { i8*, i32 } %55

; <label>:56:                                     ; preds = %45
  %57 = landingpad { i8*, i32 }
          catch i8* null
  %58 = extractvalue { i8*, i32 } %57, 0
  call void @__clang_call_terminate(i8* %58) #11
  unreachable

; <label>:59:                                     ; preds = %44
  unreachable
}

; Function Attrs: noinline uwtable
define linkonce_odr void @_ZSt8_DestroyIN9__gnu_cxx17__normal_iteratorIPiSt6vectorIiSaIiEEEEiEvT_S7_RSaIT0_E(i32*, i32*, %"class.std::allocator"* dereferenceable(1)) #0 comdat {
  %4 = alloca %"class.__gnu_cxx::__normal_iterator", align 8
  %5 = alloca %"class.__gnu_cxx::__normal_iterator", align 8
  %6 = alloca %"class.std::allocator"*, align 8
  %7 = alloca %"class.__gnu_cxx::__normal_iterator", align 8
  %8 = alloca %"class.__gnu_cxx::__normal_iterator", align 8
  %9 = getelementptr inbounds %"class.__gnu_cxx::__normal_iterator", %"class.__gnu_cxx::__normal_iterator"* %4, i32 0, i32 0
  store i32* %0, i32** %9, align 8
  %10 = getelementptr inbounds %"class.__gnu_cxx::__normal_iterator", %"class.__gnu_cxx::__normal_iterator"* %5, i32 0, i32 0
  store i32* %1, i32** %10, align 8
  store %"class.std::allocator"* %2, %"class.std::allocator"** %6, align 8
  %11 = bitcast %"class.__gnu_cxx::__normal_iterator"* %7 to i8*
  %12 = bitcast %"class.__gnu_cxx::__normal_iterator"* %4 to i8*
  call void @llvm.memcpy.p0i8.p0i8.i64(i8* %11, i8* %12, i64 8, i32 8, i1 false)
  %13 = bitcast %"class.__gnu_cxx::__normal_iterator"* %8 to i8*
  %14 = bitcast %"class.__gnu_cxx::__normal_iterator"* %5 to i8*
  call void @llvm.memcpy.p0i8.p0i8.i64(i8* %13, i8* %14, i64 8, i32 8, i1 false)
  %15 = getelementptr inbounds %"class.__gnu_cxx::__normal_iterator", %"class.__gnu_cxx::__normal_iterator"* %7, i32 0, i32 0
  %16 = load i32*, i32** %15, align 8
  %17 = getelementptr inbounds %"class.__gnu_cxx::__normal_iterator", %"class.__gnu_cxx::__normal_iterator"* %8, i32 0, i32 0
  %18 = load i32*, i32** %17, align 8
  call void @_ZSt8_DestroyIN9__gnu_cxx17__normal_iteratorIPiSt6vectorIiSaIiEEEEEvT_S7_(i32* %16, i32* %18)
  ret void
}

; Function Attrs: noinline uwtable
define linkonce_odr i32* @_ZSt4copyIN9__gnu_cxx17__normal_iteratorIPKiSt6vectorIiSaIiEEEENS1_IPiS6_EEET0_T_SB_SA_(i32*, i32*, i32*) #0 comdat {
  %4 = alloca %"class.__gnu_cxx::__normal_iterator", align 8
  %5 = alloca %"class.__gnu_cxx::__normal_iterator.0", align 8
  %6 = alloca %"class.__gnu_cxx::__normal_iterator.0", align 8
  %7 = alloca %"class.__gnu_cxx::__normal_iterator", align 8
  %8 = alloca %"class.__gnu_cxx::__normal_iterator.0", align 8
  %9 = alloca %"class.__gnu_cxx::__normal_iterator.0", align 8
  %10 = alloca %"class.__gnu_cxx::__normal_iterator.0", align 8
  %11 = alloca %"class.__gnu_cxx::__normal_iterator.0", align 8
  %12 = alloca %"class.__gnu_cxx::__normal_iterator", align 8
  %13 = getelementptr inbounds %"class.__gnu_cxx::__normal_iterator.0", %"class.__gnu_cxx::__normal_iterator.0"* %5, i32 0, i32 0
  store i32* %0, i32** %13, align 8
  %14 = getelementptr inbounds %"class.__gnu_cxx::__normal_iterator.0", %"class.__gnu_cxx::__normal_iterator.0"* %6, i32 0, i32 0
  store i32* %1, i32** %14, align 8
  %15 = getelementptr inbounds %"class.__gnu_cxx::__normal_iterator", %"class.__gnu_cxx::__normal_iterator"* %7, i32 0, i32 0
  store i32* %2, i32** %15, align 8
  %16 = bitcast %"class.__gnu_cxx::__normal_iterator.0"* %9 to i8*
  %17 = bitcast %"class.__gnu_cxx::__normal_iterator.0"* %5 to i8*
  call void @llvm.memcpy.p0i8.p0i8.i64(i8* %16, i8* %17, i64 8, i32 8, i1 false)
  %18 = getelementptr inbounds %"class.__gnu_cxx::__normal_iterator.0", %"class.__gnu_cxx::__normal_iterator.0"* %9, i32 0, i32 0
  %19 = load i32*, i32** %18, align 8
  %20 = call i32* @_ZSt12__miter_baseIN9__gnu_cxx17__normal_iteratorIPKiSt6vectorIiSaIiEEEEENSt11_Miter_baseIT_E13iterator_typeES9_(i32* %19)
  %21 = getelementptr inbounds %"class.__gnu_cxx::__normal_iterator.0", %"class.__gnu_cxx::__normal_iterator.0"* %8, i32 0, i32 0
  store i32* %20, i32** %21, align 8
  %22 = bitcast %"class.__gnu_cxx::__normal_iterator.0"* %11 to i8*
  %23 = bitcast %"class.__gnu_cxx::__normal_iterator.0"* %6 to i8*
  call void @llvm.memcpy.p0i8.p0i8.i64(i8* %22, i8* %23, i64 8, i32 8, i1 false)
  %24 = getelementptr inbounds %"class.__gnu_cxx::__normal_iterator.0", %"class.__gnu_cxx::__normal_iterator.0"* %11, i32 0, i32 0
  %25 = load i32*, i32** %24, align 8
  %26 = call i32* @_ZSt12__miter_baseIN9__gnu_cxx17__normal_iteratorIPKiSt6vectorIiSaIiEEEEENSt11_Miter_baseIT_E13iterator_typeES9_(i32* %25)
  %27 = getelementptr inbounds %"class.__gnu_cxx::__normal_iterator.0", %"class.__gnu_cxx::__normal_iterator.0"* %10, i32 0, i32 0
  store i32* %26, i32** %27, align 8
  %28 = bitcast %"class.__gnu_cxx::__normal_iterator"* %12 to i8*
  %29 = bitcast %"class.__gnu_cxx::__normal_iterator"* %7 to i8*
  call void @llvm.memcpy.p0i8.p0i8.i64(i8* %28, i8* %29, i64 8, i32 8, i1 false)
  %30 = getelementptr inbounds %"class.__gnu_cxx::__normal_iterator.0", %"class.__gnu_cxx::__normal_iterator.0"* %8, i32 0, i32 0
  %31 = load i32*, i32** %30, align 8
  %32 = getelementptr inbounds %"class.__gnu_cxx::__normal_iterator.0", %"class.__gnu_cxx::__normal_iterator.0"* %10, i32 0, i32 0
  %33 = load i32*, i32** %32, align 8
  %34 = getelementptr inbounds %"class.__gnu_cxx::__normal_iterator", %"class.__gnu_cxx::__normal_iterator"* %12, i32 0, i32 0
  %35 = load i32*, i32** %34, align 8
  %36 = call i32* @_ZSt14__copy_move_a2ILb0EN9__gnu_cxx17__normal_iteratorIPKiSt6vectorIiSaIiEEEENS1_IPiS6_EEET1_T0_SB_SA_(i32* %31, i32* %33, i32* %35)
  %37 = getelementptr inbounds %"class.__gnu_cxx::__normal_iterator", %"class.__gnu_cxx::__normal_iterator"* %4, i32 0, i32 0
  store i32* %36, i32** %37, align 8
  %38 = getelementptr inbounds %"class.__gnu_cxx::__normal_iterator", %"class.__gnu_cxx::__normal_iterator"* %4, i32 0, i32 0
  %39 = load i32*, i32** %38, align 8
  ret i32* %39
}

; Function Attrs: noinline uwtable
define linkonce_odr i32* @_ZSt4copyIPiS0_ET0_T_S2_S1_(i32*, i32*, i32*) #0 comdat {
  %4 = alloca i32*, align 8
  %5 = alloca i32*, align 8
  %6 = alloca i32*, align 8
  store i32* %0, i32** %4, align 8
  store i32* %1, i32** %5, align 8
  store i32* %2, i32** %6, align 8
  %7 = load i32*, i32** %4, align 8
  %8 = call i32* @_ZSt12__miter_baseIPiENSt11_Miter_baseIT_E13iterator_typeES2_(i32* %7)
  %9 = load i32*, i32** %5, align 8
  %10 = call i32* @_ZSt12__miter_baseIPiENSt11_Miter_baseIT_E13iterator_typeES2_(i32* %9)
  %11 = load i32*, i32** %6, align 8
  %12 = call i32* @_ZSt14__copy_move_a2ILb0EPiS0_ET1_T0_S2_S1_(i32* %8, i32* %10, i32* %11)
  ret i32* %12
}

; Function Attrs: noinline uwtable
define linkonce_odr i32* @_ZSt22__uninitialized_copy_aIPiS0_iET0_T_S2_S1_RSaIT1_E(i32*, i32*, i32*, %"class.std::allocator"* dereferenceable(1)) #0 comdat {
  %5 = alloca i32*, align 8
  %6 = alloca i32*, align 8
  %7 = alloca i32*, align 8
  %8 = alloca %"class.std::allocator"*, align 8
  store i32* %0, i32** %5, align 8
  store i32* %1, i32** %6, align 8
  store i32* %2, i32** %7, align 8
  store %"class.std::allocator"* %3, %"class.std::allocator"** %8, align 8
  %9 = load i32*, i32** %5, align 8
  %10 = load i32*, i32** %6, align 8
  %11 = load i32*, i32** %7, align 8
  %12 = call i32* @_ZSt18uninitialized_copyIPiS0_ET0_T_S2_S1_(i32* %9, i32* %10, i32* %11)
  ret i32* %12
}

; Function Attrs: noinline uwtable
define linkonce_odr i32* @_ZSt22__uninitialized_copy_aIN9__gnu_cxx17__normal_iteratorIPKiSt6vectorIiSaIiEEEEPiiET0_T_SA_S9_RSaIT1_E(i32*, i32*, i32*, %"class.std::allocator"* dereferenceable(1)) #0 comdat {
  %5 = alloca %"class.__gnu_cxx::__normal_iterator.0", align 8
  %6 = alloca %"class.__gnu_cxx::__normal_iterator.0", align 8
  %7 = alloca i32*, align 8
  %8 = alloca %"class.std::allocator"*, align 8
  %9 = alloca %"class.__gnu_cxx::__normal_iterator.0", align 8
  %10 = alloca %"class.__gnu_cxx::__normal_iterator.0", align 8
  %11 = getelementptr inbounds %"class.__gnu_cxx::__normal_iterator.0", %"class.__gnu_cxx::__normal_iterator.0"* %5, i32 0, i32 0
  store i32* %0, i32** %11, align 8
  %12 = getelementptr inbounds %"class.__gnu_cxx::__normal_iterator.0", %"class.__gnu_cxx::__normal_iterator.0"* %6, i32 0, i32 0
  store i32* %1, i32** %12, align 8
  store i32* %2, i32** %7, align 8
  store %"class.std::allocator"* %3, %"class.std::allocator"** %8, align 8
  %13 = bitcast %"class.__gnu_cxx::__normal_iterator.0"* %9 to i8*
  %14 = bitcast %"class.__gnu_cxx::__normal_iterator.0"* %5 to i8*
  call void @llvm.memcpy.p0i8.p0i8.i64(i8* %13, i8* %14, i64 8, i32 8, i1 false)
  %15 = bitcast %"class.__gnu_cxx::__normal_iterator.0"* %10 to i8*
  %16 = bitcast %"class.__gnu_cxx::__normal_iterator.0"* %6 to i8*
  call void @llvm.memcpy.p0i8.p0i8.i64(i8* %15, i8* %16, i64 8, i32 8, i1 false)
  %17 = load i32*, i32** %7, align 8
  %18 = getelementptr inbounds %"class.__gnu_cxx::__normal_iterator.0", %"class.__gnu_cxx::__normal_iterator.0"* %9, i32 0, i32 0
  %19 = load i32*, i32** %18, align 8
  %20 = getelementptr inbounds %"class.__gnu_cxx::__normal_iterator.0", %"class.__gnu_cxx::__normal_iterator.0"* %10, i32 0, i32 0
  %21 = load i32*, i32** %20, align 8
  %22 = call i32* @_ZSt18uninitialized_copyIN9__gnu_cxx17__normal_iteratorIPKiSt6vectorIiSaIiEEEEPiET0_T_SA_S9_(i32* %19, i32* %21, i32* %17)
  ret i32* %22
}

; Function Attrs: noreturn nounwind
declare void @llvm.trap() #11

; Function Attrs: noinline uwtable
define linkonce_odr i32* @_ZSt18uninitialized_copyIN9__gnu_cxx17__normal_iteratorIPKiSt6vectorIiSaIiEEEEPiET0_T_SA_S9_(i32*, i32*, i32*) #0 comdat {
  %4 = alloca %"class.__gnu_cxx::__normal_iterator.0", align 8
  %5 = alloca %"class.__gnu_cxx::__normal_iterator.0", align 8
  %6 = alloca i32*, align 8
  %7 = alloca i8, align 1
  %8 = alloca %"class.__gnu_cxx::__normal_iterator.0", align 8
  %9 = alloca %"class.__gnu_cxx::__normal_iterator.0", align 8
  %10 = getelementptr inbounds %"class.__gnu_cxx::__normal_iterator.0", %"class.__gnu_cxx::__normal_iterator.0"* %4, i32 0, i32 0
  store i32* %0, i32** %10, align 8
  %11 = getelementptr inbounds %"class.__gnu_cxx::__normal_iterator.0", %"class.__gnu_cxx::__normal_iterator.0"* %5, i32 0, i32 0
  store i32* %1, i32** %11, align 8
  store i32* %2, i32** %6, align 8
  store i8 1, i8* %7, align 1
  %12 = bitcast %"class.__gnu_cxx::__normal_iterator.0"* %8 to i8*
  %13 = bitcast %"class.__gnu_cxx::__normal_iterator.0"* %4 to i8*
  call void @llvm.memcpy.p0i8.p0i8.i64(i8* %12, i8* %13, i64 8, i32 8, i1 false)
  %14 = bitcast %"class.__gnu_cxx::__normal_iterator.0"* %9 to i8*
  %15 = bitcast %"class.__gnu_cxx::__normal_iterator.0"* %5 to i8*
  call void @llvm.memcpy.p0i8.p0i8.i64(i8* %14, i8* %15, i64 8, i32 8, i1 false)
  %16 = load i32*, i32** %6, align 8
  %17 = getelementptr inbounds %"class.__gnu_cxx::__normal_iterator.0", %"class.__gnu_cxx::__normal_iterator.0"* %8, i32 0, i32 0
  %18 = load i32*, i32** %17, align 8
  %19 = getelementptr inbounds %"class.__gnu_cxx::__normal_iterator.0", %"class.__gnu_cxx::__normal_iterator.0"* %9, i32 0, i32 0
  %20 = load i32*, i32** %19, align 8
  %21 = call i32* @_ZNSt20__uninitialized_copyILb1EE13__uninit_copyIN9__gnu_cxx17__normal_iteratorIPKiSt6vectorIiSaIiEEEEPiEET0_T_SC_SB_(i32* %18, i32* %20, i32* %16)
  ret i32* %21
}

; Function Attrs: noinline uwtable
define linkonce_odr i32* @_ZNSt20__uninitialized_copyILb1EE13__uninit_copyIN9__gnu_cxx17__normal_iteratorIPKiSt6vectorIiSaIiEEEEPiEET0_T_SC_SB_(i32*, i32*, i32*) #0 comdat align 2 {
  %4 = alloca %"class.__gnu_cxx::__normal_iterator.0", align 8
  %5 = alloca %"class.__gnu_cxx::__normal_iterator.0", align 8
  %6 = alloca i32*, align 8
  %7 = alloca %"class.__gnu_cxx::__normal_iterator.0", align 8
  %8 = alloca %"class.__gnu_cxx::__normal_iterator.0", align 8
  %9 = getelementptr inbounds %"class.__gnu_cxx::__normal_iterator.0", %"class.__gnu_cxx::__normal_iterator.0"* %4, i32 0, i32 0
  store i32* %0, i32** %9, align 8
  %10 = getelementptr inbounds %"class.__gnu_cxx::__normal_iterator.0", %"class.__gnu_cxx::__normal_iterator.0"* %5, i32 0, i32 0
  store i32* %1, i32** %10, align 8
  store i32* %2, i32** %6, align 8
  %11 = bitcast %"class.__gnu_cxx::__normal_iterator.0"* %7 to i8*
  %12 = bitcast %"class.__gnu_cxx::__normal_iterator.0"* %4 to i8*
  call void @llvm.memcpy.p0i8.p0i8.i64(i8* %11, i8* %12, i64 8, i32 8, i1 false)
  %13 = bitcast %"class.__gnu_cxx::__normal_iterator.0"* %8 to i8*
  %14 = bitcast %"class.__gnu_cxx::__normal_iterator.0"* %5 to i8*
  call void @llvm.memcpy.p0i8.p0i8.i64(i8* %13, i8* %14, i64 8, i32 8, i1 false)
  %15 = load i32*, i32** %6, align 8
  %16 = getelementptr inbounds %"class.__gnu_cxx::__normal_iterator.0", %"class.__gnu_cxx::__normal_iterator.0"* %7, i32 0, i32 0
  %17 = load i32*, i32** %16, align 8
  %18 = getelementptr inbounds %"class.__gnu_cxx::__normal_iterator.0", %"class.__gnu_cxx::__normal_iterator.0"* %8, i32 0, i32 0
  %19 = load i32*, i32** %18, align 8
  %20 = call i32* @_ZSt4copyIN9__gnu_cxx17__normal_iteratorIPKiSt6vectorIiSaIiEEEEPiET0_T_SA_S9_(i32* %17, i32* %19, i32* %15)
  ret i32* %20
}

; Function Attrs: noinline uwtable
define linkonce_odr i32* @_ZSt4copyIN9__gnu_cxx17__normal_iteratorIPKiSt6vectorIiSaIiEEEEPiET0_T_SA_S9_(i32*, i32*, i32*) #0 comdat {
  %4 = alloca %"class.__gnu_cxx::__normal_iterator.0", align 8
  %5 = alloca %"class.__gnu_cxx::__normal_iterator.0", align 8
  %6 = alloca i32*, align 8
  %7 = alloca %"class.__gnu_cxx::__normal_iterator.0", align 8
  %8 = alloca %"class.__gnu_cxx::__normal_iterator.0", align 8
  %9 = alloca %"class.__gnu_cxx::__normal_iterator.0", align 8
  %10 = alloca %"class.__gnu_cxx::__normal_iterator.0", align 8
  %11 = getelementptr inbounds %"class.__gnu_cxx::__normal_iterator.0", %"class.__gnu_cxx::__normal_iterator.0"* %4, i32 0, i32 0
  store i32* %0, i32** %11, align 8
  %12 = getelementptr inbounds %"class.__gnu_cxx::__normal_iterator.0", %"class.__gnu_cxx::__normal_iterator.0"* %5, i32 0, i32 0
  store i32* %1, i32** %12, align 8
  store i32* %2, i32** %6, align 8
  %13 = bitcast %"class.__gnu_cxx::__normal_iterator.0"* %8 to i8*
  %14 = bitcast %"class.__gnu_cxx::__normal_iterator.0"* %4 to i8*
  call void @llvm.memcpy.p0i8.p0i8.i64(i8* %13, i8* %14, i64 8, i32 8, i1 false)
  %15 = getelementptr inbounds %"class.__gnu_cxx::__normal_iterator.0", %"class.__gnu_cxx::__normal_iterator.0"* %8, i32 0, i32 0
  %16 = load i32*, i32** %15, align 8
  %17 = call i32* @_ZSt12__miter_baseIN9__gnu_cxx17__normal_iteratorIPKiSt6vectorIiSaIiEEEEENSt11_Miter_baseIT_E13iterator_typeES9_(i32* %16)
  %18 = getelementptr inbounds %"class.__gnu_cxx::__normal_iterator.0", %"class.__gnu_cxx::__normal_iterator.0"* %7, i32 0, i32 0
  store i32* %17, i32** %18, align 8
  %19 = bitcast %"class.__gnu_cxx::__normal_iterator.0"* %10 to i8*
  %20 = bitcast %"class.__gnu_cxx::__normal_iterator.0"* %5 to i8*
  call void @llvm.memcpy.p0i8.p0i8.i64(i8* %19, i8* %20, i64 8, i32 8, i1 false)
  %21 = getelementptr inbounds %"class.__gnu_cxx::__normal_iterator.0", %"class.__gnu_cxx::__normal_iterator.0"* %10, i32 0, i32 0
  %22 = load i32*, i32** %21, align 8
  %23 = call i32* @_ZSt12__miter_baseIN9__gnu_cxx17__normal_iteratorIPKiSt6vectorIiSaIiEEEEENSt11_Miter_baseIT_E13iterator_typeES9_(i32* %22)
  %24 = getelementptr inbounds %"class.__gnu_cxx::__normal_iterator.0", %"class.__gnu_cxx::__normal_iterator.0"* %9, i32 0, i32 0
  store i32* %23, i32** %24, align 8
  %25 = load i32*, i32** %6, align 8
  %26 = getelementptr inbounds %"class.__gnu_cxx::__normal_iterator.0", %"class.__gnu_cxx::__normal_iterator.0"* %7, i32 0, i32 0
  %27 = load i32*, i32** %26, align 8
  %28 = getelementptr inbounds %"class.__gnu_cxx::__normal_iterator.0", %"class.__gnu_cxx::__normal_iterator.0"* %9, i32 0, i32 0
  %29 = load i32*, i32** %28, align 8
  %30 = call i32* @_ZSt14__copy_move_a2ILb0EN9__gnu_cxx17__normal_iteratorIPKiSt6vectorIiSaIiEEEEPiET1_T0_SA_S9_(i32* %27, i32* %29, i32* %25)
  ret i32* %30
}

; Function Attrs: noinline uwtable
define linkonce_odr i32* @_ZSt14__copy_move_a2ILb0EN9__gnu_cxx17__normal_iteratorIPKiSt6vectorIiSaIiEEEEPiET1_T0_SA_S9_(i32*, i32*, i32*) #0 comdat {
  %4 = alloca %"class.__gnu_cxx::__normal_iterator.0", align 8
  %5 = alloca %"class.__gnu_cxx::__normal_iterator.0", align 8
  %6 = alloca i32*, align 8
  %7 = alloca %"class.__gnu_cxx::__normal_iterator.0", align 8
  %8 = alloca %"class.__gnu_cxx::__normal_iterator.0", align 8
  %9 = getelementptr inbounds %"class.__gnu_cxx::__normal_iterator.0", %"class.__gnu_cxx::__normal_iterator.0"* %4, i32 0, i32 0
  store i32* %0, i32** %9, align 8
  %10 = getelementptr inbounds %"class.__gnu_cxx::__normal_iterator.0", %"class.__gnu_cxx::__normal_iterator.0"* %5, i32 0, i32 0
  store i32* %1, i32** %10, align 8
  store i32* %2, i32** %6, align 8
  %11 = bitcast %"class.__gnu_cxx::__normal_iterator.0"* %7 to i8*
  %12 = bitcast %"class.__gnu_cxx::__normal_iterator.0"* %4 to i8*
  call void @llvm.memcpy.p0i8.p0i8.i64(i8* %11, i8* %12, i64 8, i32 8, i1 false)
  %13 = getelementptr inbounds %"class.__gnu_cxx::__normal_iterator.0", %"class.__gnu_cxx::__normal_iterator.0"* %7, i32 0, i32 0
  %14 = load i32*, i32** %13, align 8
  %15 = call i32* @_ZSt12__niter_baseIN9__gnu_cxx17__normal_iteratorIPKiSt6vectorIiSaIiEEEEENSt11_Niter_baseIT_E13iterator_typeES9_(i32* %14)
  %16 = bitcast %"class.__gnu_cxx::__normal_iterator.0"* %8 to i8*
  %17 = bitcast %"class.__gnu_cxx::__normal_iterator.0"* %5 to i8*
  call void @llvm.memcpy.p0i8.p0i8.i64(i8* %16, i8* %17, i64 8, i32 8, i1 false)
  %18 = getelementptr inbounds %"class.__gnu_cxx::__normal_iterator.0", %"class.__gnu_cxx::__normal_iterator.0"* %8, i32 0, i32 0
  %19 = load i32*, i32** %18, align 8
  %20 = call i32* @_ZSt12__niter_baseIN9__gnu_cxx17__normal_iteratorIPKiSt6vectorIiSaIiEEEEENSt11_Niter_baseIT_E13iterator_typeES9_(i32* %19)
  %21 = load i32*, i32** %6, align 8
  %22 = call i32* @_ZSt12__niter_baseIPiENSt11_Niter_baseIT_E13iterator_typeES2_(i32* %21)
  %23 = call i32* @_ZSt13__copy_move_aILb0EPKiPiET1_T0_S4_S3_(i32* %15, i32* %20, i32* %22)
  ret i32* %23
}

; Function Attrs: noinline uwtable
define linkonce_odr i32* @_ZSt12__miter_baseIN9__gnu_cxx17__normal_iteratorIPKiSt6vectorIiSaIiEEEEENSt11_Miter_baseIT_E13iterator_typeES9_(i32*) #0 comdat {
  %2 = alloca %"class.__gnu_cxx::__normal_iterator.0", align 8
  %3 = alloca %"class.__gnu_cxx::__normal_iterator.0", align 8
  %4 = alloca %"class.__gnu_cxx::__normal_iterator.0", align 8
  %5 = getelementptr inbounds %"class.__gnu_cxx::__normal_iterator.0", %"class.__gnu_cxx::__normal_iterator.0"* %3, i32 0, i32 0
  store i32* %0, i32** %5, align 8
  %6 = bitcast %"class.__gnu_cxx::__normal_iterator.0"* %4 to i8*
  %7 = bitcast %"class.__gnu_cxx::__normal_iterator.0"* %3 to i8*
  call void @llvm.memcpy.p0i8.p0i8.i64(i8* %6, i8* %7, i64 8, i32 8, i1 false)
  %8 = getelementptr inbounds %"class.__gnu_cxx::__normal_iterator.0", %"class.__gnu_cxx::__normal_iterator.0"* %4, i32 0, i32 0
  %9 = load i32*, i32** %8, align 8
  %10 = call i32* @_ZNSt10_Iter_baseIN9__gnu_cxx17__normal_iteratorIPKiSt6vectorIiSaIiEEEELb0EE7_S_baseES7_(i32* %9)
  %11 = getelementptr inbounds %"class.__gnu_cxx::__normal_iterator.0", %"class.__gnu_cxx::__normal_iterator.0"* %2, i32 0, i32 0
  store i32* %10, i32** %11, align 8
  %12 = getelementptr inbounds %"class.__gnu_cxx::__normal_iterator.0", %"class.__gnu_cxx::__normal_iterator.0"* %2, i32 0, i32 0
  %13 = load i32*, i32** %12, align 8
  ret i32* %13
}

; Function Attrs: noinline uwtable
define linkonce_odr i32* @_ZSt13__copy_move_aILb0EPKiPiET1_T0_S4_S3_(i32*, i32*, i32*) #0 comdat {
  %4 = alloca i32*, align 8
  %5 = alloca i32*, align 8
  %6 = alloca i32*, align 8
  %7 = alloca i8, align 1
  store i32* %0, i32** %4, align 8
  store i32* %1, i32** %5, align 8
  store i32* %2, i32** %6, align 8
  store i8 1, i8* %7, align 1
  %8 = load i32*, i32** %4, align 8
  %9 = load i32*, i32** %5, align 8
  %10 = load i32*, i32** %6, align 8
  %11 = call i32* @_ZNSt11__copy_moveILb0ELb1ESt26random_access_iterator_tagE8__copy_mIiEEPT_PKS3_S6_S4_(i32* %8, i32* %9, i32* %10)
  ret i32* %11
}

; Function Attrs: noinline nounwind uwtable
define linkonce_odr i32* @_ZNSt11__copy_moveILb0ELb1ESt26random_access_iterator_tagE8__copy_mIiEEPT_PKS3_S6_S4_(i32*, i32*, i32*) #4 comdat align 2 {
  %4 = alloca i32*, align 8
  %5 = alloca i32*, align 8
  %6 = alloca i32*, align 8
  %7 = alloca i64, align 8
  store i32* %0, i32** %4, align 8
  store i32* %1, i32** %5, align 8
  store i32* %2, i32** %6, align 8
  %8 = load i32*, i32** %5, align 8
  %9 = load i32*, i32** %4, align 8
  %10 = ptrtoint i32* %8 to i64
  %11 = ptrtoint i32* %9 to i64
  %12 = sub i64 0, %11
  %13 = add i64 %10, %12
  %14 = sub i64 %10, %11
  %15 = sdiv exact i64 %13, 4
  store i64 %15, i64* %7, align 8
  %16 = load i64, i64* %7, align 8
  %17 = icmp ne i64 %16, 0
  br i1 %17, label %18, label %25

; <label>:18:                                     ; preds = %3
  %19 = load i32*, i32** %6, align 8
  %20 = bitcast i32* %19 to i8*
  %21 = load i32*, i32** %4, align 8
  %22 = bitcast i32* %21 to i8*
  %23 = load i64, i64* %7, align 8
  %24 = mul i64 4, %23
  call void @llvm.memmove.p0i8.p0i8.i64(i8* %20, i8* %22, i64 %24, i32 4, i1 false)
  br label %25

; <label>:25:                                     ; preds = %18, %3
  %26 = load i32*, i32** %6, align 8
  %27 = load i64, i64* %7, align 8
  %28 = getelementptr inbounds i32, i32* %26, i64 %27
  ret i32* %28
}

; Function Attrs: noinline nounwind uwtable
define linkonce_odr i32* @_ZNSt10_Iter_baseIN9__gnu_cxx17__normal_iteratorIPKiSt6vectorIiSaIiEEEELb0EE7_S_baseES7_(i32*) #4 comdat align 2 {
  %2 = alloca %"class.__gnu_cxx::__normal_iterator.0", align 8
  %3 = alloca %"class.__gnu_cxx::__normal_iterator.0", align 8
  %4 = getelementptr inbounds %"class.__gnu_cxx::__normal_iterator.0", %"class.__gnu_cxx::__normal_iterator.0"* %3, i32 0, i32 0
  store i32* %0, i32** %4, align 8
  %5 = bitcast %"class.__gnu_cxx::__normal_iterator.0"* %2 to i8*
  %6 = bitcast %"class.__gnu_cxx::__normal_iterator.0"* %3 to i8*
  call void @llvm.memcpy.p0i8.p0i8.i64(i8* %5, i8* %6, i64 8, i32 8, i1 false)
  %7 = getelementptr inbounds %"class.__gnu_cxx::__normal_iterator.0", %"class.__gnu_cxx::__normal_iterator.0"* %2, i32 0, i32 0
  %8 = load i32*, i32** %7, align 8
  ret i32* %8
}

; Function Attrs: noinline uwtable
define linkonce_odr void @_ZSt8_DestroyIN9__gnu_cxx17__normal_iteratorIPiSt6vectorIiSaIiEEEEEvT_S7_(i32*, i32*) #0 comdat {
  %3 = alloca %"class.__gnu_cxx::__normal_iterator", align 8
  %4 = alloca %"class.__gnu_cxx::__normal_iterator", align 8
  %5 = alloca %"class.__gnu_cxx::__normal_iterator", align 8
  %6 = alloca %"class.__gnu_cxx::__normal_iterator", align 8
  %7 = getelementptr inbounds %"class.__gnu_cxx::__normal_iterator", %"class.__gnu_cxx::__normal_iterator"* %3, i32 0, i32 0
  store i32* %0, i32** %7, align 8
  %8 = getelementptr inbounds %"class.__gnu_cxx::__normal_iterator", %"class.__gnu_cxx::__normal_iterator"* %4, i32 0, i32 0
  store i32* %1, i32** %8, align 8
  %9 = bitcast %"class.__gnu_cxx::__normal_iterator"* %5 to i8*
  %10 = bitcast %"class.__gnu_cxx::__normal_iterator"* %3 to i8*
  call void @llvm.memcpy.p0i8.p0i8.i64(i8* %9, i8* %10, i64 8, i32 8, i1 false)
  %11 = bitcast %"class.__gnu_cxx::__normal_iterator"* %6 to i8*
  %12 = bitcast %"class.__gnu_cxx::__normal_iterator"* %4 to i8*
  call void @llvm.memcpy.p0i8.p0i8.i64(i8* %11, i8* %12, i64 8, i32 8, i1 false)
  %13 = getelementptr inbounds %"class.__gnu_cxx::__normal_iterator", %"class.__gnu_cxx::__normal_iterator"* %5, i32 0, i32 0
  %14 = load i32*, i32** %13, align 8
  %15 = getelementptr inbounds %"class.__gnu_cxx::__normal_iterator", %"class.__gnu_cxx::__normal_iterator"* %6, i32 0, i32 0
  %16 = load i32*, i32** %15, align 8
  call void @_ZNSt12_Destroy_auxILb1EE9__destroyIN9__gnu_cxx17__normal_iteratorIPiSt6vectorIiSaIiEEEEEEvT_S9_(i32* %14, i32* %16)
  ret void
}

; Function Attrs: noinline nounwind uwtable
define linkonce_odr void @_ZNSt12_Destroy_auxILb1EE9__destroyIN9__gnu_cxx17__normal_iteratorIPiSt6vectorIiSaIiEEEEEEvT_S9_(i32*, i32*) #4 comdat align 2 {
  %3 = alloca %"class.__gnu_cxx::__normal_iterator", align 8
  %4 = alloca %"class.__gnu_cxx::__normal_iterator", align 8
  %5 = getelementptr inbounds %"class.__gnu_cxx::__normal_iterator", %"class.__gnu_cxx::__normal_iterator"* %3, i32 0, i32 0
  store i32* %0, i32** %5, align 8
  %6 = getelementptr inbounds %"class.__gnu_cxx::__normal_iterator", %"class.__gnu_cxx::__normal_iterator"* %4, i32 0, i32 0
  store i32* %1, i32** %6, align 8
  ret void
}

; Function Attrs: noinline uwtable
define linkonce_odr i32* @_ZSt14__copy_move_a2ILb0EN9__gnu_cxx17__normal_iteratorIPKiSt6vectorIiSaIiEEEENS1_IPiS6_EEET1_T0_SB_SA_(i32*, i32*, i32*) #0 comdat {
  %4 = alloca %"class.__gnu_cxx::__normal_iterator", align 8
  %5 = alloca %"class.__gnu_cxx::__normal_iterator.0", align 8
  %6 = alloca %"class.__gnu_cxx::__normal_iterator.0", align 8
  %7 = alloca %"class.__gnu_cxx::__normal_iterator", align 8
  %8 = alloca i32*, align 8
  %9 = alloca %"class.__gnu_cxx::__normal_iterator.0", align 8
  %10 = alloca %"class.__gnu_cxx::__normal_iterator.0", align 8
  %11 = alloca %"class.__gnu_cxx::__normal_iterator", align 8
  %12 = getelementptr inbounds %"class.__gnu_cxx::__normal_iterator.0", %"class.__gnu_cxx::__normal_iterator.0"* %5, i32 0, i32 0
  store i32* %0, i32** %12, align 8
  %13 = getelementptr inbounds %"class.__gnu_cxx::__normal_iterator.0", %"class.__gnu_cxx::__normal_iterator.0"* %6, i32 0, i32 0
  store i32* %1, i32** %13, align 8
  %14 = getelementptr inbounds %"class.__gnu_cxx::__normal_iterator", %"class.__gnu_cxx::__normal_iterator"* %7, i32 0, i32 0
  store i32* %2, i32** %14, align 8
  %15 = bitcast %"class.__gnu_cxx::__normal_iterator.0"* %9 to i8*
  %16 = bitcast %"class.__gnu_cxx::__normal_iterator.0"* %5 to i8*
  call void @llvm.memcpy.p0i8.p0i8.i64(i8* %15, i8* %16, i64 8, i32 8, i1 false)
  %17 = getelementptr inbounds %"class.__gnu_cxx::__normal_iterator.0", %"class.__gnu_cxx::__normal_iterator.0"* %9, i32 0, i32 0
  %18 = load i32*, i32** %17, align 8
  %19 = call i32* @_ZSt12__niter_baseIN9__gnu_cxx17__normal_iteratorIPKiSt6vectorIiSaIiEEEEENSt11_Niter_baseIT_E13iterator_typeES9_(i32* %18)
  %20 = bitcast %"class.__gnu_cxx::__normal_iterator.0"* %10 to i8*
  %21 = bitcast %"class.__gnu_cxx::__normal_iterator.0"* %6 to i8*
  call void @llvm.memcpy.p0i8.p0i8.i64(i8* %20, i8* %21, i64 8, i32 8, i1 false)
  %22 = getelementptr inbounds %"class.__gnu_cxx::__normal_iterator.0", %"class.__gnu_cxx::__normal_iterator.0"* %10, i32 0, i32 0
  %23 = load i32*, i32** %22, align 8
  %24 = call i32* @_ZSt12__niter_baseIN9__gnu_cxx17__normal_iteratorIPKiSt6vectorIiSaIiEEEEENSt11_Niter_baseIT_E13iterator_typeES9_(i32* %23)
  %25 = bitcast %"class.__gnu_cxx::__normal_iterator"* %11 to i8*
  %26 = bitcast %"class.__gnu_cxx::__normal_iterator"* %7 to i8*
  call void @llvm.memcpy.p0i8.p0i8.i64(i8* %25, i8* %26, i64 8, i32 8, i1 false)
  %27 = getelementptr inbounds %"class.__gnu_cxx::__normal_iterator", %"class.__gnu_cxx::__normal_iterator"* %11, i32 0, i32 0
  %28 = load i32*, i32** %27, align 8
  %29 = call i32* @_ZSt12__niter_baseIN9__gnu_cxx17__normal_iteratorIPiSt6vectorIiSaIiEEEEENSt11_Niter_baseIT_E13iterator_typeES8_(i32* %28)
  %30 = call i32* @_ZSt13__copy_move_aILb0EPKiPiET1_T0_S4_S3_(i32* %19, i32* %24, i32* %29)
  store i32* %30, i32** %8, align 8
  call void @_ZN9__gnu_cxx17__normal_iteratorIPiSt6vectorIiSaIiEEEC2ERKS1_(%"class.__gnu_cxx::__normal_iterator"* %4, i32** dereferenceable(8) %8) #3
  %31 = getelementptr inbounds %"class.__gnu_cxx::__normal_iterator", %"class.__gnu_cxx::__normal_iterator"* %4, i32 0, i32 0
  %32 = load i32*, i32** %31, align 8
  ret i32* %32
}

; Function Attrs: noinline uwtable
define linkonce_odr i32* @_ZSt12__niter_baseIN9__gnu_cxx17__normal_iteratorIPiSt6vectorIiSaIiEEEEENSt11_Niter_baseIT_E13iterator_typeES8_(i32*) #0 comdat {
  %2 = alloca %"class.__gnu_cxx::__normal_iterator", align 8
  %3 = alloca %"class.__gnu_cxx::__normal_iterator", align 8
  %4 = getelementptr inbounds %"class.__gnu_cxx::__normal_iterator", %"class.__gnu_cxx::__normal_iterator"* %2, i32 0, i32 0
  store i32* %0, i32** %4, align 8
  %5 = bitcast %"class.__gnu_cxx::__normal_iterator"* %3 to i8*
  %6 = bitcast %"class.__gnu_cxx::__normal_iterator"* %2 to i8*
  call void @llvm.memcpy.p0i8.p0i8.i64(i8* %5, i8* %6, i64 8, i32 8, i1 false)
  %7 = getelementptr inbounds %"class.__gnu_cxx::__normal_iterator", %"class.__gnu_cxx::__normal_iterator"* %3, i32 0, i32 0
  %8 = load i32*, i32** %7, align 8
  %9 = call i32* @_ZNSt10_Iter_baseIN9__gnu_cxx17__normal_iteratorIPiSt6vectorIiSaIiEEEELb1EE7_S_baseES6_(i32* %8)
  ret i32* %9
}

; Function Attrs: noinline nounwind uwtable
define linkonce_odr i32* @_ZNSt10_Iter_baseIN9__gnu_cxx17__normal_iteratorIPiSt6vectorIiSaIiEEEELb1EE7_S_baseES6_(i32*) #4 comdat align 2 {
  %2 = alloca %"class.__gnu_cxx::__normal_iterator", align 8
  %3 = getelementptr inbounds %"class.__gnu_cxx::__normal_iterator", %"class.__gnu_cxx::__normal_iterator"* %2, i32 0, i32 0
  store i32* %0, i32** %3, align 8
  %4 = call dereferenceable(8) i32** @_ZNK9__gnu_cxx17__normal_iteratorIPiSt6vectorIiSaIiEEE4baseEv(%"class.__gnu_cxx::__normal_iterator"* %2) #3
  %5 = load i32*, i32** %4, align 8
  ret i32* %5
}

; Function Attrs: noinline uwtable
define linkonce_odr i32* @_ZSt14__copy_move_a2ILb0EPiS0_ET1_T0_S2_S1_(i32*, i32*, i32*) #0 comdat {
  %4 = alloca i32*, align 8
  %5 = alloca i32*, align 8
  %6 = alloca i32*, align 8
  store i32* %0, i32** %4, align 8
  store i32* %1, i32** %5, align 8
  store i32* %2, i32** %6, align 8
  %7 = load i32*, i32** %4, align 8
  %8 = call i32* @_ZSt12__niter_baseIPiENSt11_Niter_baseIT_E13iterator_typeES2_(i32* %7)
  %9 = load i32*, i32** %5, align 8
  %10 = call i32* @_ZSt12__niter_baseIPiENSt11_Niter_baseIT_E13iterator_typeES2_(i32* %9)
  %11 = load i32*, i32** %6, align 8
  %12 = call i32* @_ZSt12__niter_baseIPiENSt11_Niter_baseIT_E13iterator_typeES2_(i32* %11)
  %13 = call i32* @_ZSt13__copy_move_aILb0EPiS0_ET1_T0_S2_S1_(i32* %8, i32* %10, i32* %12)
  ret i32* %13
}

; Function Attrs: noinline nounwind uwtable
define linkonce_odr i32* @_ZSt12__miter_baseIPiENSt11_Miter_baseIT_E13iterator_typeES2_(i32*) #4 comdat {
  %2 = alloca i32*, align 8
  store i32* %0, i32** %2, align 8
  %3 = load i32*, i32** %2, align 8
  %4 = call i32* @_ZNSt10_Iter_baseIPiLb0EE7_S_baseES0_(i32* %3)
  ret i32* %4
}

; Function Attrs: noinline nounwind uwtable
define linkonce_odr i32* @_ZSt13__copy_move_aILb0EPiS0_ET1_T0_S2_S1_(i32*, i32*, i32*) #4 comdat {
  %4 = alloca i32*, align 8
  %5 = alloca i32*, align 8
  %6 = alloca i32*, align 8
  %7 = alloca i8, align 1
  store i32* %0, i32** %4, align 8
  store i32* %1, i32** %5, align 8
  store i32* %2, i32** %6, align 8
  store i8 1, i8* %7, align 1
  %8 = load i32*, i32** %4, align 8
  %9 = load i32*, i32** %5, align 8
  %10 = load i32*, i32** %6, align 8
  %11 = call i32* @_ZNSt11__copy_moveILb0ELb1ESt26random_access_iterator_tagE8__copy_mIiEEPT_PKS3_S6_S4_(i32* %8, i32* %9, i32* %10)
  ret i32* %11
}

; Function Attrs: noinline uwtable
define linkonce_odr i32* @_ZSt18uninitialized_copyIPiS0_ET0_T_S2_S1_(i32*, i32*, i32*) #0 comdat {
  %4 = alloca i32*, align 8
  %5 = alloca i32*, align 8
  %6 = alloca i32*, align 8
  %7 = alloca i8, align 1
  store i32* %0, i32** %4, align 8
  store i32* %1, i32** %5, align 8
  store i32* %2, i32** %6, align 8
  store i8 1, i8* %7, align 1
  %8 = load i32*, i32** %4, align 8
  %9 = load i32*, i32** %5, align 8
  %10 = load i32*, i32** %6, align 8
  %11 = call i32* @_ZNSt20__uninitialized_copyILb1EE13__uninit_copyIPiS2_EET0_T_S4_S3_(i32* %8, i32* %9, i32* %10)
  ret i32* %11
}

; Function Attrs: noinline uwtable
define linkonce_odr i32* @_ZNSt20__uninitialized_copyILb1EE13__uninit_copyIPiS2_EET0_T_S4_S3_(i32*, i32*, i32*) #0 comdat align 2 {
  %4 = alloca i32*, align 8
  %5 = alloca i32*, align 8
  %6 = alloca i32*, align 8
  store i32* %0, i32** %4, align 8
  store i32* %1, i32** %5, align 8
  store i32* %2, i32** %6, align 8
  %7 = load i32*, i32** %4, align 8
  %8 = load i32*, i32** %5, align 8
  %9 = load i32*, i32** %6, align 8
  %10 = call i32* @_ZSt4copyIPiS0_ET0_T_S2_S1_(i32* %7, i32* %8, i32* %9)
  ret i32* %10
}

; Function Attrs: noinline nounwind uwtable
define linkonce_odr dereferenceable(24) %"class.std::vector"* @_ZSt4moveIRSt6vectorIiSaIiEEEONSt16remove_referenceIT_E4typeEOS5_(%"class.std::vector"* dereferenceable(24)) #4 comdat {
  %2 = alloca %"class.std::vector"*, align 8
  store %"class.std::vector"* %0, %"class.std::vector"** %2, align 8
  %3 = load %"class.std::vector"*, %"class.std::vector"** %2, align 8
  ret %"class.std::vector"* %3
}

; Function Attrs: noinline nounwind uwtable
define linkonce_odr void @_ZNSt12_Vector_baseIiSaIiEEC2EOS1_(%"struct.std::_Vector_base"*, %"struct.std::_Vector_base"* dereferenceable(24)) unnamed_addr #4 comdat align 2 {
  %3 = alloca %"struct.std::_Vector_base"*, align 8
  %4 = alloca %"struct.std::_Vector_base"*, align 8
  store %"struct.std::_Vector_base"* %0, %"struct.std::_Vector_base"** %3, align 8
  store %"struct.std::_Vector_base"* %1, %"struct.std::_Vector_base"** %4, align 8
  %5 = load %"struct.std::_Vector_base"*, %"struct.std::_Vector_base"** %3, align 8
  %6 = getelementptr inbounds %"struct.std::_Vector_base", %"struct.std::_Vector_base"* %5, i32 0, i32 0
  %7 = load %"struct.std::_Vector_base"*, %"struct.std::_Vector_base"** %4, align 8
  %8 = call dereferenceable(1) %"class.std::allocator"* @_ZNSt12_Vector_baseIiSaIiEE19_M_get_Tp_allocatorEv(%"struct.std::_Vector_base"* %7) #3
  %9 = call dereferenceable(1) %"class.std::allocator"* @_ZSt4moveIRSaIiEEONSt16remove_referenceIT_E4typeEOS3_(%"class.std::allocator"* dereferenceable(1) %8) #3
  call void @_ZNSt12_Vector_baseIiSaIiEE12_Vector_implC2EOS0_(%"struct.std::_Vector_base<int, std::allocator<int> >::_Vector_impl"* %6, %"class.std::allocator"* dereferenceable(1) %9) #3
  %10 = getelementptr inbounds %"struct.std::_Vector_base", %"struct.std::_Vector_base"* %5, i32 0, i32 0
  %11 = load %"struct.std::_Vector_base"*, %"struct.std::_Vector_base"** %4, align 8
  %12 = getelementptr inbounds %"struct.std::_Vector_base", %"struct.std::_Vector_base"* %11, i32 0, i32 0
  call void @_ZNSt12_Vector_baseIiSaIiEE12_Vector_impl12_M_swap_dataERS2_(%"struct.std::_Vector_base<int, std::allocator<int> >::_Vector_impl"* %10, %"struct.std::_Vector_base<int, std::allocator<int> >::_Vector_impl"* dereferenceable(24) %12) #3
  ret void
}

; Function Attrs: noinline nounwind uwtable
define linkonce_odr dereferenceable(1) %"class.std::allocator"* @_ZSt4moveIRSaIiEEONSt16remove_referenceIT_E4typeEOS3_(%"class.std::allocator"* dereferenceable(1)) #4 comdat {
  %2 = alloca %"class.std::allocator"*, align 8
  store %"class.std::allocator"* %0, %"class.std::allocator"** %2, align 8
  %3 = load %"class.std::allocator"*, %"class.std::allocator"** %2, align 8
  ret %"class.std::allocator"* %3
}

; Function Attrs: noinline nounwind uwtable
define linkonce_odr void @_ZNSt12_Vector_baseIiSaIiEE12_Vector_implC2EOS0_(%"struct.std::_Vector_base<int, std::allocator<int> >::_Vector_impl"*, %"class.std::allocator"* dereferenceable(1)) unnamed_addr #4 comdat align 2 {
  %3 = alloca %"struct.std::_Vector_base<int, std::allocator<int> >::_Vector_impl"*, align 8
  %4 = alloca %"class.std::allocator"*, align 8
  store %"struct.std::_Vector_base<int, std::allocator<int> >::_Vector_impl"* %0, %"struct.std::_Vector_base<int, std::allocator<int> >::_Vector_impl"** %3, align 8
  store %"class.std::allocator"* %1, %"class.std::allocator"** %4, align 8
  %5 = load %"struct.std::_Vector_base<int, std::allocator<int> >::_Vector_impl"*, %"struct.std::_Vector_base<int, std::allocator<int> >::_Vector_impl"** %3, align 8
  %6 = bitcast %"struct.std::_Vector_base<int, std::allocator<int> >::_Vector_impl"* %5 to %"class.std::allocator"*
  %7 = load %"class.std::allocator"*, %"class.std::allocator"** %4, align 8
  %8 = call dereferenceable(1) %"class.std::allocator"* @_ZSt4moveIRSaIiEEONSt16remove_referenceIT_E4typeEOS3_(%"class.std::allocator"* dereferenceable(1) %7) #3
  call void @_ZNSaIiEC2ERKS_(%"class.std::allocator"* %6, %"class.std::allocator"* dereferenceable(1) %8) #3
  %9 = getelementptr inbounds %"struct.std::_Vector_base<int, std::allocator<int> >::_Vector_impl", %"struct.std::_Vector_base<int, std::allocator<int> >::_Vector_impl"* %5, i32 0, i32 0
  store i32* null, i32** %9, align 8
  %10 = getelementptr inbounds %"struct.std::_Vector_base<int, std::allocator<int> >::_Vector_impl", %"struct.std::_Vector_base<int, std::allocator<int> >::_Vector_impl"* %5, i32 0, i32 1
  store i32* null, i32** %10, align 8
  %11 = getelementptr inbounds %"struct.std::_Vector_base<int, std::allocator<int> >::_Vector_impl", %"struct.std::_Vector_base<int, std::allocator<int> >::_Vector_impl"* %5, i32 0, i32 2
  store i32* null, i32** %11, align 8
  ret void
}

; Function Attrs: noinline nounwind uwtable
define linkonce_odr void @_ZNSt12_Vector_baseIiSaIiEE12_Vector_impl12_M_swap_dataERS2_(%"struct.std::_Vector_base<int, std::allocator<int> >::_Vector_impl"*, %"struct.std::_Vector_base<int, std::allocator<int> >::_Vector_impl"* dereferenceable(24)) #4 comdat align 2 {
  %3 = alloca %"struct.std::_Vector_base<int, std::allocator<int> >::_Vector_impl"*, align 8
  %4 = alloca %"struct.std::_Vector_base<int, std::allocator<int> >::_Vector_impl"*, align 8
  store %"struct.std::_Vector_base<int, std::allocator<int> >::_Vector_impl"* %0, %"struct.std::_Vector_base<int, std::allocator<int> >::_Vector_impl"** %3, align 8
  store %"struct.std::_Vector_base<int, std::allocator<int> >::_Vector_impl"* %1, %"struct.std::_Vector_base<int, std::allocator<int> >::_Vector_impl"** %4, align 8
  %5 = load %"struct.std::_Vector_base<int, std::allocator<int> >::_Vector_impl"*, %"struct.std::_Vector_base<int, std::allocator<int> >::_Vector_impl"** %3, align 8
  %6 = getelementptr inbounds %"struct.std::_Vector_base<int, std::allocator<int> >::_Vector_impl", %"struct.std::_Vector_base<int, std::allocator<int> >::_Vector_impl"* %5, i32 0, i32 0
  %7 = load %"struct.std::_Vector_base<int, std::allocator<int> >::_Vector_impl"*, %"struct.std::_Vector_base<int, std::allocator<int> >::_Vector_impl"** %4, align 8
  %8 = getelementptr inbounds %"struct.std::_Vector_base<int, std::allocator<int> >::_Vector_impl", %"struct.std::_Vector_base<int, std::allocator<int> >::_Vector_impl"* %7, i32 0, i32 0
  call void @_ZSt4swapIPiEvRT_S2_(i32** dereferenceable(8) %6, i32** dereferenceable(8) %8) #3
  %9 = getelementptr inbounds %"struct.std::_Vector_base<int, std::allocator<int> >::_Vector_impl", %"struct.std::_Vector_base<int, std::allocator<int> >::_Vector_impl"* %5, i32 0, i32 1
  %10 = load %"struct.std::_Vector_base<int, std::allocator<int> >::_Vector_impl"*, %"struct.std::_Vector_base<int, std::allocator<int> >::_Vector_impl"** %4, align 8
  %11 = getelementptr inbounds %"struct.std::_Vector_base<int, std::allocator<int> >::_Vector_impl", %"struct.std::_Vector_base<int, std::allocator<int> >::_Vector_impl"* %10, i32 0, i32 1
  call void @_ZSt4swapIPiEvRT_S2_(i32** dereferenceable(8) %9, i32** dereferenceable(8) %11) #3
  %12 = getelementptr inbounds %"struct.std::_Vector_base<int, std::allocator<int> >::_Vector_impl", %"struct.std::_Vector_base<int, std::allocator<int> >::_Vector_impl"* %5, i32 0, i32 2
  %13 = load %"struct.std::_Vector_base<int, std::allocator<int> >::_Vector_impl"*, %"struct.std::_Vector_base<int, std::allocator<int> >::_Vector_impl"** %4, align 8
  %14 = getelementptr inbounds %"struct.std::_Vector_base<int, std::allocator<int> >::_Vector_impl", %"struct.std::_Vector_base<int, std::allocator<int> >::_Vector_impl"* %13, i32 0, i32 2
  call void @_ZSt4swapIPiEvRT_S2_(i32** dereferenceable(8) %12, i32** dereferenceable(8) %14) #3
  ret void
}

; Function Attrs: noinline nounwind uwtable
define linkonce_odr void @_ZNSaIiEC2ERKS_(%"class.std::allocator"*, %"class.std::allocator"* dereferenceable(1)) unnamed_addr #4 comdat align 2 {
  %3 = alloca %"class.std::allocator"*, align 8
  %4 = alloca %"class.std::allocator"*, align 8
  store %"class.std::allocator"* %0, %"class.std::allocator"** %3, align 8
  store %"class.std::allocator"* %1, %"class.std::allocator"** %4, align 8
  %5 = load %"class.std::allocator"*, %"class.std::allocator"** %3, align 8
  %6 = bitcast %"class.std::allocator"* %5 to %"class.__gnu_cxx::new_allocator"*
  %7 = load %"class.std::allocator"*, %"class.std::allocator"** %4, align 8
  %8 = bitcast %"class.std::allocator"* %7 to %"class.__gnu_cxx::new_allocator"*
  call void @_ZN9__gnu_cxx13new_allocatorIiEC2ERKS1_(%"class.__gnu_cxx::new_allocator"* %6, %"class.__gnu_cxx::new_allocator"* dereferenceable(1) %8) #3
  ret void
}

; Function Attrs: noinline nounwind uwtable
define linkonce_odr void @_ZN9__gnu_cxx13new_allocatorIiEC2ERKS1_(%"class.__gnu_cxx::new_allocator"*, %"class.__gnu_cxx::new_allocator"* dereferenceable(1)) unnamed_addr #4 comdat align 2 {
  %3 = alloca %"class.__gnu_cxx::new_allocator"*, align 8
  %4 = alloca %"class.__gnu_cxx::new_allocator"*, align 8
  store %"class.__gnu_cxx::new_allocator"* %0, %"class.__gnu_cxx::new_allocator"** %3, align 8
  store %"class.__gnu_cxx::new_allocator"* %1, %"class.__gnu_cxx::new_allocator"** %4, align 8
  %5 = load %"class.__gnu_cxx::new_allocator"*, %"class.__gnu_cxx::new_allocator"** %3, align 8
  ret void
}

; Function Attrs: noinline nounwind uwtable
define linkonce_odr void @_ZSt4swapIPiEvRT_S2_(i32** dereferenceable(8), i32** dereferenceable(8)) #4 comdat {
  %3 = alloca i32**, align 8
  %4 = alloca i32**, align 8
  %5 = alloca i32*, align 8
  store i32** %0, i32*** %3, align 8
  store i32** %1, i32*** %4, align 8
  %6 = load i32**, i32*** %3, align 8
  %7 = call dereferenceable(8) i32** @_ZSt4moveIRPiEONSt16remove_referenceIT_E4typeEOS3_(i32** dereferenceable(8) %6) #3
  %8 = load i32*, i32** %7, align 8
  store i32* %8, i32** %5, align 8
  %9 = load i32**, i32*** %4, align 8
  %10 = call dereferenceable(8) i32** @_ZSt4moveIRPiEONSt16remove_referenceIT_E4typeEOS3_(i32** dereferenceable(8) %9) #3
  %11 = load i32*, i32** %10, align 8
  %12 = load i32**, i32*** %3, align 8
  store i32* %11, i32** %12, align 8
  %13 = call dereferenceable(8) i32** @_ZSt4moveIRPiEONSt16remove_referenceIT_E4typeEOS3_(i32** dereferenceable(8) %5) #3
  %14 = load i32*, i32** %13, align 8
  %15 = load i32**, i32*** %4, align 8
  store i32* %14, i32** %15, align 8
  ret void
}

; Function Attrs: noinline nounwind uwtable
define linkonce_odr dereferenceable(8) i32** @_ZSt4moveIRPiEONSt16remove_referenceIT_E4typeEOS3_(i32** dereferenceable(8)) #4 comdat {
  %2 = alloca i32**, align 8
  store i32** %0, i32*** %2, align 8
  %3 = load i32**, i32*** %2, align 8
  ret i32** %3
}

; Function Attrs: noinline uwtable
define internal void @_GLOBAL__sub_I_s247684034.cpp() #0 section ".text.startup" {
  call void @__cxx_global_var_init()
  ret void
}

attributes #0 = { noinline uwtable "correctly-rounded-divide-sqrt-fp-math"="false" "disable-tail-calls"="false" "less-precise-fpmad"="false" "no-frame-pointer-elim"="true" "no-frame-pointer-elim-non-leaf" "no-infs-fp-math"="false" "no-jump-tables"="false" "no-nans-fp-math"="false" "no-signed-zeros-fp-math"="false" "no-trapping-math"="false" "stack-protector-buffer-size"="8" "target-cpu"="x86-64" "target-features"="+fxsr,+mmx,+sse,+sse2,+x87" "unsafe-fp-math"="false" "use-soft-float"="false" }
attributes #1 = { "correctly-rounded-divide-sqrt-fp-math"="false" "disable-tail-calls"="false" "less-precise-fpmad"="false" "no-frame-pointer-elim"="true" "no-frame-pointer-elim-non-leaf" "no-infs-fp-math"="false" "no-nans-fp-math"="false" "no-signed-zeros-fp-math"="false" "no-trapping-math"="false" "stack-protector-buffer-size"="8" "target-cpu"="x86-64" "target-features"="+fxsr,+mmx,+sse,+sse2,+x87" "unsafe-fp-math"="false" "use-soft-float"="false" }
attributes #2 = { nounwind "correctly-rounded-divide-sqrt-fp-math"="false" "disable-tail-calls"="false" "less-precise-fpmad"="false" "no-frame-pointer-elim"="true" "no-frame-pointer-elim-non-leaf" "no-infs-fp-math"="false" "no-nans-fp-math"="false" "no-signed-zeros-fp-math"="false" "no-trapping-math"="false" "stack-protector-buffer-size"="8" "target-cpu"="x86-64" "target-features"="+fxsr,+mmx,+sse,+sse2,+x87" "unsafe-fp-math"="false" "use-soft-float"="false" }
attributes #3 = { nounwind }
attributes #4 = { noinline nounwind uwtable "correctly-rounded-divide-sqrt-fp-math"="false" "disable-tail-calls"="false" "less-precise-fpmad"="false" "no-frame-pointer-elim"="true" "no-frame-pointer-elim-non-leaf" "no-infs-fp-math"="false" "no-jump-tables"="false" "no-nans-fp-math"="false" "no-signed-zeros-fp-math"="false" "no-trapping-math"="false" "stack-protector-buffer-size"="8" "target-cpu"="x86-64" "target-features"="+fxsr,+mmx,+sse,+sse2,+x87" "unsafe-fp-math"="false" "use-soft-float"="false" }
attributes #5 = { noinline norecurse uwtable "correctly-rounded-divide-sqrt-fp-math"="false" "disable-tail-calls"="false" "less-precise-fpmad"="false" "no-frame-pointer-elim"="true" "no-frame-pointer-elim-non-leaf" "no-infs-fp-math"="false" "no-jump-tables"="false" "no-nans-fp-math"="false" "no-signed-zeros-fp-math"="false" "no-trapping-math"="false" "stack-protector-buffer-size"="8" "target-cpu"="x86-64" "target-features"="+fxsr,+mmx,+sse,+sse2,+x87" "unsafe-fp-math"="false" "use-soft-float"="false" }
attributes #6 = { noinline noreturn nounwind }
attributes #7 = { noreturn "correctly-rounded-divide-sqrt-fp-math"="false" "disable-tail-calls"="false" "less-precise-fpmad"="false" "no-frame-pointer-elim"="true" "no-frame-pointer-elim-non-leaf" "no-infs-fp-math"="false" "no-nans-fp-math"="false" "no-signed-zeros-fp-math"="false" "no-trapping-math"="false" "stack-protector-buffer-size"="8" "target-cpu"="x86-64" "target-features"="+fxsr,+mmx,+sse,+sse2,+x87" "unsafe-fp-math"="false" "use-soft-float"="false" }
attributes #8 = { nobuiltin "correctly-rounded-divide-sqrt-fp-math"="false" "disable-tail-calls"="false" "less-precise-fpmad"="false" "no-frame-pointer-elim"="true" "no-frame-pointer-elim-non-leaf" "no-infs-fp-math"="false" "no-nans-fp-math"="false" "no-signed-zeros-fp-math"="false" "no-trapping-math"="false" "stack-protector-buffer-size"="8" "target-cpu"="x86-64" "target-features"="+fxsr,+mmx,+sse,+sse2,+x87" "unsafe-fp-math"="false" "use-soft-float"="false" }
attributes #9 = { argmemonly nounwind }
attributes #10 = { nobuiltin nounwind "correctly-rounded-divide-sqrt-fp-math"="false" "disable-tail-calls"="false" "less-precise-fpmad"="false" "no-frame-pointer-elim"="true" "no-frame-pointer-elim-non-leaf" "no-infs-fp-math"="false" "no-nans-fp-math"="false" "no-signed-zeros-fp-math"="false" "no-trapping-math"="false" "stack-protector-buffer-size"="8" "target-cpu"="x86-64" "target-features"="+fxsr,+mmx,+sse,+sse2,+x87" "unsafe-fp-math"="false" "use-soft-float"="false" }
attributes #11 = { noreturn nounwind }
attributes #12 = { noreturn }

!llvm.ident = !{!0}

!0 = !{!"Obfuscator-LLVM clang version 4.0.1  (based on Obfuscator-LLVM 4.0.1)"}
