; ModuleID = 'Project_CodeNet_C++1400/p00747/s428336636.cpp'
source_filename = "Project_CodeNet_C++1400/p00747/s428336636.cpp"
target datalayout = "e-m:e-p270:32:32-p271:32:32-p272:64:64-i64:64-f80:128-n8:16:32:64-S128"
target triple = "x86_64-pc-linux-gnu"

%"class.std::ios_base::Init" = type { i8 }
%"class.std::basic_istream" = type { i32 (...)**, i64, %"class.std::basic_ios" }
%"class.std::basic_ios" = type { %"class.std::ios_base", %"class.std::basic_ostream"*, i8, i8, %"class.std::basic_streambuf"*, %"class.std::ctype"*, %"class.std::num_put"*, %"class.std::num_get"* }
%"class.std::ios_base" = type { i32 (...)**, i64, i64, i32, i32, i32, %"struct.std::ios_base::_Callback_list"*, %"struct.std::ios_base::_Words", [8 x %"struct.std::ios_base::_Words"], i32, %"struct.std::ios_base::_Words"*, %"class.std::locale" }
%"struct.std::ios_base::_Callback_list" = type { %"struct.std::ios_base::_Callback_list"*, void (i32, %"class.std::ios_base"*, i32)*, i32, i32 }
%"struct.std::ios_base::_Words" = type { i8*, i64 }
%"class.std::locale" = type { %"class.std::locale::_Impl"* }
%"class.std::locale::_Impl" = type { i32, %"class.std::locale::facet"**, i64, %"class.std::locale::facet"**, i8** }
%"class.std::locale::facet" = type <{ i32 (...)**, i32, [4 x i8] }>
%"class.std::basic_ostream" = type { i32 (...)**, %"class.std::basic_ios" }
%"class.std::basic_streambuf" = type { i32 (...)**, i8*, i8*, i8*, i8*, i8*, i8*, %"class.std::locale" }
%"class.std::ctype" = type <{ %"class.std::locale::facet.base", [4 x i8], %struct.__locale_struct*, i8, [7 x i8], i32*, i32*, i16*, i8, [256 x i8], [256 x i8], i8, [6 x i8] }>
%"class.std::locale::facet.base" = type <{ i32 (...)**, i32 }>
%struct.__locale_struct = type { [13 x %struct.__locale_data*], i16*, i32*, i32*, [13 x i8*] }
%struct.__locale_data = type opaque
%"class.std::num_put" = type { %"class.std::locale::facet.base", [4 x i8] }
%"class.std::num_get" = type { %"class.std::locale::facet.base", [4 x i8] }
%"class.std::set" = type { %"class.std::_Rb_tree" }
%"class.std::_Rb_tree" = type { %"struct.std::_Rb_tree<std::pair<std::pair<int, int>, std::pair<int, int>>, std::pair<std::pair<int, int>, std::pair<int, int>>, std::_Identity<std::pair<std::pair<int, int>, std::pair<int, int>>>, std::less<std::pair<std::pair<int, int>, std::pair<int, int>>>>::_Rb_tree_impl" }
%"struct.std::_Rb_tree<std::pair<std::pair<int, int>, std::pair<int, int>>, std::pair<std::pair<int, int>, std::pair<int, int>>, std::_Identity<std::pair<std::pair<int, int>, std::pair<int, int>>>, std::less<std::pair<std::pair<int, int>, std::pair<int, int>>>>::_Rb_tree_impl" = type { %"struct.std::_Rb_tree_key_compare", %"struct.std::_Rb_tree_header" }
%"struct.std::_Rb_tree_key_compare" = type { %"struct.std::less" }
%"struct.std::less" = type { i8 }
%"struct.std::_Rb_tree_header" = type { %"struct.std::_Rb_tree_node_base", i64 }
%"struct.std::_Rb_tree_node_base" = type { i32, %"struct.std::_Rb_tree_node_base"*, %"struct.std::_Rb_tree_node_base"*, %"struct.std::_Rb_tree_node_base"* }
%"struct.std::pair.0" = type { %"struct.std::pair.3", %"struct.std::pair.3" }
%"struct.std::pair.3" = type { i32, i32 }
%"class.std::queue" = type { %"class.std::deque" }
%"class.std::deque" = type { %"class.std::_Deque_base" }
%"class.std::_Deque_base" = type { %"struct.std::_Deque_base<std::pair<int, std::pair<int, int>>, std::allocator<std::pair<int, std::pair<int, int>>>>::_Deque_impl" }
%"struct.std::_Deque_base<std::pair<int, std::pair<int, int>>, std::allocator<std::pair<int, std::pair<int, int>>>>::_Deque_impl" = type { %"struct.std::_Deque_base<std::pair<int, std::pair<int, int>>, std::allocator<std::pair<int, std::pair<int, int>>>>::_Deque_impl_data" }
%"struct.std::_Deque_base<std::pair<int, std::pair<int, int>>, std::allocator<std::pair<int, std::pair<int, int>>>>::_Deque_impl_data" = type { %"struct.std::pair.9"**, i64, %"struct.std::_Deque_iterator", %"struct.std::_Deque_iterator" }
%"struct.std::pair.9" = type { i32, %"struct.std::pair.3" }
%"struct.std::_Deque_iterator" = type { %"struct.std::pair.9"*, %"struct.std::pair.9"*, %"struct.std::pair.9"*, %"struct.std::pair.9"** }
%"struct.std::_Rb_tree_node" = type { %"struct.std::_Rb_tree_node_base", %"struct.__gnu_cxx::__aligned_membuf" }
%"struct.__gnu_cxx::__aligned_membuf" = type { [16 x i8] }
%"struct.std::_Rb_tree<std::pair<std::pair<int, int>, std::pair<int, int>>, std::pair<std::pair<int, int>, std::pair<int, int>>, std::_Identity<std::pair<std::pair<int, int>, std::pair<int, int>>>, std::less<std::pair<std::pair<int, int>, std::pair<int, int>>>>::_Alloc_node" = type { %"class.std::_Rb_tree"* }
%"class.std::allocator" = type { i8 }
%"class.__gnu_cxx::new_allocator" = type { i8 }
%"class.std::allocator.12" = type { i8 }
%"class.__gnu_cxx::new_allocator.13" = type { i8 }
%"class.std::allocator.6" = type { i8 }
%"class.__gnu_cxx::new_allocator.7" = type { i8 }

$_ZNSt5queueISt4pairIiS0_IiiEESt5dequeIS2_SaIS2_EEEC2IS5_vEEv = comdat any

$__clang_call_terminate = comdat any

$_ZNSt11_Deque_baseISt4pairIiS0_IiiEESaIS2_EED2Ev = comdat any

$_ZNSt11_Deque_baseISt4pairIiS0_IiiEESaIS2_EE16_M_destroy_nodesEPPS2_S6_ = comdat any

$_ZNSt8_Rb_treeISt4pairIS0_IiiES1_ES2_St9_IdentityIS2_ESt4lessIS2_ESaIS2_EED2Ev = comdat any

$_ZNSt8_Rb_treeISt4pairIS0_IiiES1_ES2_St9_IdentityIS2_ESt4lessIS2_ESaIS2_EE8_M_eraseEPSt13_Rb_tree_nodeIS2_E = comdat any

$_ZNSt8_Rb_treeISt4pairIS0_IiiES1_ES2_St9_IdentityIS2_ESt4lessIS2_ESaIS2_EE16_M_insert_uniqueIS2_EES0_ISt17_Rb_tree_iteratorIS2_EbEOT_ = comdat any

$_ZNSt8_Rb_treeISt4pairIS0_IiiES1_ES2_St9_IdentityIS2_ESt4lessIS2_ESaIS2_EE24_M_get_insert_unique_posERKS2_ = comdat any

$_ZNSt8_Rb_treeISt4pairIS0_IiiES1_ES2_St9_IdentityIS2_ESt4lessIS2_ESaIS2_EE10_M_insert_IS2_NS8_11_Alloc_nodeEEESt17_Rb_tree_iteratorIS2_EPSt18_Rb_tree_node_baseSE_OT_RT0_ = comdat any

$_ZStltISt4pairIiiES1_EbRKS0_IT_T0_ES6_ = comdat any

$_ZStltIiiEbRKSt4pairIT_T0_ES5_ = comdat any

$_ZNKSt8_Rb_treeISt4pairIS0_IiiES1_ES2_St9_IdentityIS2_ESt4lessIS2_ESaIS2_EE11_Alloc_nodeclIS2_EEPSt13_Rb_tree_nodeIS2_EOT_ = comdat any

$_ZNSt8_Rb_treeISt4pairIS0_IiiES1_ES2_St9_IdentityIS2_ESt4lessIS2_ESaIS2_EE11_M_get_nodeEv = comdat any

$_ZNSt16allocator_traitsISaISt13_Rb_tree_nodeISt4pairIS1_IiiES2_EEEE8allocateERS5_m = comdat any

$_ZN9__gnu_cxx13new_allocatorISt13_Rb_tree_nodeISt4pairIS2_IiiES3_EEE8allocateEmPKv = comdat any

$_ZNSt11_Deque_baseISt4pairIiS0_IiiEESaIS2_EEC2Ev = comdat any

$_ZNSt11_Deque_baseISt4pairIiS0_IiiEESaIS2_EE17_M_initialize_mapEm = comdat any

$_ZNSt11_Deque_baseISt4pairIiS0_IiiEESaIS2_EE15_M_allocate_mapEm = comdat any

$_ZNSt11_Deque_baseISt4pairIiS0_IiiEESaIS2_EE15_M_create_nodesEPPS2_S6_ = comdat any

$_ZNSt16allocator_traitsISaIPSt4pairIiS0_IiiEEEE8allocateERS4_m = comdat any

$_ZN9__gnu_cxx13new_allocatorIPSt4pairIiS1_IiiEEE8allocateEmPKv = comdat any

$_ZNSt11_Deque_baseISt4pairIiS0_IiiEESaIS2_EE16_M_allocate_nodeEv = comdat any

$_ZNSt16allocator_traitsISaISt4pairIiS0_IiiEEEE8allocateERS3_m = comdat any

$_ZN9__gnu_cxx13new_allocatorISt4pairIiS1_IiiEEE8allocateEmPKv = comdat any

$_ZNSt5dequeISt4pairIiS0_IiiEESaIS2_EE12emplace_backIJS2_EEEvDpOT_ = comdat any

$_ZNSt5dequeISt4pairIiS0_IiiEESaIS2_EE16_M_push_back_auxIJS2_EEEvDpOT_ = comdat any

$_ZNKSt5dequeISt4pairIiS0_IiiEESaIS2_EE4sizeEv = comdat any

$_ZNSt5dequeISt4pairIiS0_IiiEESaIS2_EE22_M_reserve_map_at_backEm = comdat any

$_ZStmiRKSt15_Deque_iteratorISt4pairIiS0_IiiEERS2_PS2_ES7_ = comdat any

$_ZNSt5dequeISt4pairIiS0_IiiEESaIS2_EE17_M_reallocate_mapEmb = comdat any

$_ZNSt5dequeISt4pairIiS0_IiiEESaIS2_EE9pop_frontEv = comdat any

$_ZNSt5dequeISt4pairIiS0_IiiEESaIS2_EE16_M_pop_front_auxEv = comdat any

$_ZNSt8_Rb_treeISt4pairIS0_IiiES1_ES2_St9_IdentityIS2_ESt4lessIS2_ESaIS2_EE4findERKS2_ = comdat any

$_ZNSt8_Rb_treeISt4pairIS0_IiiES1_ES2_St9_IdentityIS2_ESt4lessIS2_ESaIS2_EE14_M_lower_boundEPSt13_Rb_tree_nodeIS2_EPSt18_Rb_tree_node_baseRKS2_ = comdat any

@_ZStL8__ioinit = internal global %"class.std::ios_base::Init" zeroinitializer, align 1
@__dso_handle = external hidden global i8
@_ZSt3cin = external global %"class.std::basic_istream", align 8
@_ZL2dy = internal unnamed_addr constant [4 x i32] [i32 -1, i32 0, i32 1, i32 0], align 16
@_ZL2dx = internal unnamed_addr constant [4 x i32] [i32 0, i32 -1, i32 0, i32 1], align 16
@_ZSt4cout = external global %"class.std::basic_ostream", align 8
@.str = private unnamed_addr constant [48 x i8] c"cannot create std::deque larger than max_size()\00", align 1
@llvm.global_ctors = appending global [1 x { i32, void ()*, i8* }] [{ i32, void ()*, i8* } { i32 65535, void ()* @_GLOBAL__sub_I_s428336636.cpp, i8* null }]

; Function Attrs: minsize optsize
declare void @_ZNSt8ios_base4InitC1Ev(%"class.std::ios_base::Init"* nonnull align 1 dereferenceable(1)) unnamed_addr #0

; Function Attrs: minsize nounwind optsize
declare void @_ZNSt8ios_base4InitD1Ev(%"class.std::ios_base::Init"* nonnull align 1 dereferenceable(1)) unnamed_addr #1

; Function Attrs: nofree nounwind
declare i32 @__cxa_atexit(void (i8*)*, i8*, i8*) local_unnamed_addr #2

; Function Attrs: minsize norecurse optsize sspstrong uwtable
define dso_local i32 @main() local_unnamed_addr #3 personality i8* bitcast (i32 (...)* @__gxx_personality_v0 to i8*) {
  %1 = alloca i32, align 4
  %2 = alloca i32, align 4
  %3 = alloca %"class.std::set", align 8
  %4 = alloca i32, align 4
  %5 = alloca %"struct.std::pair.0", align 8
  %6 = alloca %"struct.std::pair.0", align 8
  %7 = alloca [64 x [64 x i32]], align 16
  %8 = alloca %"class.std::queue", align 8
  %9 = alloca %"struct.std::pair.9", align 4
  %10 = alloca %"struct.std::pair.0", align 8
  %11 = alloca %"struct.std::pair.9", align 4
  %12 = bitcast i32* %1 to i8*
  call void @llvm.lifetime.start.p0i8(i64 4, i8* nonnull %12) #18
  %13 = bitcast i32* %2 to i8*
  call void @llvm.lifetime.start.p0i8(i64 4, i8* nonnull %13) #18
  %14 = getelementptr inbounds %"class.std::set", %"class.std::set"* %3, i64 0, i32 0, i32 0, i32 0, i32 0, i32 0
  %15 = getelementptr inbounds i8, i8* %14, i64 8
  %16 = bitcast i8* %15 to i32*
  %17 = getelementptr inbounds i8, i8* %14, i64 16
  %18 = bitcast i8* %17 to %"struct.std::_Rb_tree_node_base"**
  %19 = getelementptr inbounds i8, i8* %14, i64 24
  %20 = bitcast i8* %19 to i8**
  %21 = getelementptr inbounds i8, i8* %14, i64 32
  %22 = bitcast i8* %21 to i8**
  %23 = getelementptr inbounds i8, i8* %14, i64 40
  %24 = bitcast i8* %23 to i64*
  %25 = bitcast i32* %4 to i8*
  %26 = bitcast %"struct.std::pair.0"* %5 to i8*
  %27 = bitcast %"struct.std::pair.0"* %5 to i64*
  %28 = getelementptr inbounds %"struct.std::pair.0", %"struct.std::pair.0"* %5, i64 0, i32 1
  %29 = bitcast %"struct.std::pair.3"* %28 to i64*
  %30 = getelementptr inbounds %"class.std::set", %"class.std::set"* %3, i64 0, i32 0
  %31 = bitcast %"struct.std::pair.0"* %6 to i8*
  %32 = bitcast %"struct.std::pair.0"* %6 to i64*
  %33 = getelementptr inbounds %"struct.std::pair.0", %"struct.std::pair.0"* %6, i64 0, i32 1
  %34 = bitcast %"struct.std::pair.3"* %33 to i64*
  %35 = bitcast [64 x [64 x i32]]* %7 to i8*
  %36 = getelementptr inbounds [64 x [64 x i32]], [64 x [64 x i32]]* %7, i64 0, i64 0, i64 0
  %37 = getelementptr inbounds [64 x [64 x i32]], [64 x [64 x i32]]* %7, i64 0, i64 0, i64 4096
  %38 = bitcast %"class.std::queue"* %8 to i8*
  %39 = bitcast %"struct.std::pair.9"* %9 to i8*
  %40 = getelementptr inbounds %"struct.std::pair.9", %"struct.std::pair.9"* %9, i64 0, i32 0
  %41 = getelementptr inbounds %"struct.std::pair.9", %"struct.std::pair.9"* %9, i64 0, i32 1
  %42 = bitcast %"struct.std::pair.3"* %41 to i64*
  %43 = getelementptr inbounds %"class.std::queue", %"class.std::queue"* %8, i64 0, i32 0
  %44 = getelementptr inbounds %"class.std::queue", %"class.std::queue"* %8, i64 0, i32 0, i32 0, i32 0, i32 0, i32 2, i32 0
  %45 = bitcast %"struct.std::pair.0"* %10 to i8*
  %46 = bitcast %"struct.std::pair.0"* %10 to i64*
  %47 = getelementptr inbounds %"struct.std::pair.0", %"struct.std::pair.0"* %10, i64 0, i32 1
  %48 = bitcast %"struct.std::pair.3"* %47 to i64*
  %49 = bitcast i8* %15 to %"struct.std::_Rb_tree_node_base"*
  %50 = bitcast %"struct.std::pair.9"* %11 to i8*
  %51 = getelementptr inbounds %"struct.std::pair.9", %"struct.std::pair.9"* %11, i64 0, i32 0
  %52 = getelementptr inbounds %"struct.std::pair.9", %"struct.std::pair.9"* %11, i64 0, i32 1
  %53 = bitcast %"struct.std::pair.3"* %52 to i64*
  %54 = getelementptr inbounds %"class.std::queue", %"class.std::queue"* %8, i64 0, i32 0, i32 0
  br label %55

55:                                               ; preds = %206, %0
  %56 = call nonnull align 8 dereferenceable(16) %"class.std::basic_istream"* @_ZNSirsERi(%"class.std::basic_istream"* nonnull align 8 dereferenceable(16) @_ZSt3cin, i32* nonnull align 4 dereferenceable(4) %1) #19
  %57 = call nonnull align 8 dereferenceable(16) %"class.std::basic_istream"* @_ZNSirsERi(%"class.std::basic_istream"* nonnull align 8 dereferenceable(16) %56, i32* nonnull align 4 dereferenceable(4) %2) #19
  %58 = load i32, i32* %1, align 4, !tbaa !5
  %59 = icmp ne i32 %58, 0
  %60 = load i32, i32* %2, align 4
  %61 = icmp ne i32 %60, 0
  %62 = select i1 %59, i1 true, i1 %61
  br i1 %62, label %63, label %213

63:                                               ; preds = %55
  call void @llvm.lifetime.start.p0i8(i64 48, i8* nonnull %14) #18
  store i32 0, i32* %16, align 8, !tbaa !9
  store %"struct.std::_Rb_tree_node_base"* null, %"struct.std::_Rb_tree_node_base"** %18, align 8, !tbaa !15
  store i8* %15, i8** %20, align 8, !tbaa !16
  store i8* %15, i8** %22, align 8, !tbaa !17
  store i64 0, i64* %24, align 8, !tbaa !18
  br label %64

64:                                               ; preds = %92, %63
  %65 = phi i32 [ %58, %63 ], [ %87, %92 ]
  %66 = phi i32 [ %60, %63 ], [ %94, %92 ]
  %67 = phi i32 [ 0, %63 ], [ %93, %92 ]
  %68 = shl nsw i32 %66, 1
  %69 = add nsw i32 %68, -1
  %70 = icmp slt i32 %67, %69
  br i1 %70, label %71, label %80

71:                                               ; preds = %64
  %72 = and i32 %67, 1
  %73 = add nsw i32 %72, -1
  %74 = lshr i32 %67, 1
  %75 = xor i32 %72, 1
  %76 = add nuw nsw i32 %74, %72
  %77 = zext i32 %74 to i64
  %78 = zext i32 %76 to i64
  %79 = zext i32 %75 to i64
  br label %86

80:                                               ; preds = %64
  call void @llvm.lifetime.start.p0i8(i64 16384, i8* nonnull %35) #18
  br label %81

81:                                               ; preds = %84, %80
  %82 = phi i32* [ %36, %80 ], [ %85, %84 ]
  %83 = icmp eq i32* %82, %37
  br i1 %83, label %121, label %84

84:                                               ; preds = %81
  store i32 1000000007, i32* %82, align 4, !tbaa !5
  %85 = getelementptr inbounds i32, i32* %82, i64 1
  br label %81, !llvm.loop !19

86:                                               ; preds = %71, %112
  %87 = phi i32 [ %65, %71 ], [ %114, %112 ]
  %88 = phi i64 [ 0, %71 ], [ %113, %112 ]
  %89 = add i32 %73, %87
  %90 = sext i32 %89 to i64
  %91 = icmp slt i64 %88, %90
  br i1 %91, label %95, label %92

92:                                               ; preds = %86
  %93 = add nuw nsw i32 %67, 1
  %94 = load i32, i32* %2, align 4, !tbaa !5
  br label %64, !llvm.loop !21

95:                                               ; preds = %86
  call void @llvm.lifetime.start.p0i8(i64 4, i8* nonnull %25) #18
  %96 = invoke nonnull align 8 dereferenceable(16) %"class.std::basic_istream"* @_ZNSirsERi(%"class.std::basic_istream"* nonnull align 8 dereferenceable(16) @_ZSt3cin, i32* nonnull align 4 dereferenceable(4) %4) #19
          to label %97 unwind label %100

97:                                               ; preds = %95
  %98 = load i32, i32* %4, align 4, !tbaa !5
  %99 = icmp eq i32 %98, 0
  br i1 %99, label %112, label %102

100:                                              ; preds = %95
  %101 = landingpad { i8*, i32 }
          cleanup
  br label %119

102:                                              ; preds = %97
  %103 = add nuw nsw i64 %88, %79
  call void @llvm.lifetime.start.p0i8(i64 16, i8* nonnull %26) #18
  %104 = shl nuw nsw i64 %88, 32
  %105 = or i64 %104, %77
  store i64 %105, i64* %27, align 8
  %106 = shl nuw nsw i64 %103, 32
  %107 = or i64 %106, %78
  store i64 %107, i64* %29, align 8
  %108 = invoke { %"struct.std::_Rb_tree_node_base"*, i8 } @_ZNSt8_Rb_treeISt4pairIS0_IiiES1_ES2_St9_IdentityIS2_ESt4lessIS2_ESaIS2_EE16_M_insert_uniqueIS2_EES0_ISt17_Rb_tree_iteratorIS2_EbEOT_(%"class.std::_Rb_tree"* nonnull align 8 dereferenceable(48) %30, %"struct.std::pair.0"* nonnull align 4 dereferenceable(16) %5) #19
          to label %109 unwind label %115

109:                                              ; preds = %102
  call void @llvm.lifetime.end.p0i8(i64 16, i8* nonnull %26) #18
  call void @llvm.lifetime.start.p0i8(i64 16, i8* nonnull %31) #18
  store i64 %107, i64* %32, align 8
  store i64 %105, i64* %34, align 8
  %110 = invoke { %"struct.std::_Rb_tree_node_base"*, i8 } @_ZNSt8_Rb_treeISt4pairIS0_IiiES1_ES2_St9_IdentityIS2_ESt4lessIS2_ESaIS2_EE16_M_insert_uniqueIS2_EES0_ISt17_Rb_tree_iteratorIS2_EbEOT_(%"class.std::_Rb_tree"* nonnull align 8 dereferenceable(48) %30, %"struct.std::pair.0"* nonnull align 4 dereferenceable(16) %6) #19
          to label %111 unwind label %117

111:                                              ; preds = %109
  call void @llvm.lifetime.end.p0i8(i64 16, i8* nonnull %31) #18
  br label %112

112:                                              ; preds = %97, %111
  call void @llvm.lifetime.end.p0i8(i64 4, i8* nonnull %25) #18
  %113 = add nuw nsw i64 %88, 1
  %114 = load i32, i32* %1, align 4, !tbaa !5
  br label %86, !llvm.loop !22

115:                                              ; preds = %102
  %116 = landingpad { i8*, i32 }
          cleanup
  call void @llvm.lifetime.end.p0i8(i64 16, i8* nonnull %26) #18
  br label %119

117:                                              ; preds = %109
  %118 = landingpad { i8*, i32 }
          cleanup
  call void @llvm.lifetime.end.p0i8(i64 16, i8* nonnull %31) #18
  br label %119

119:                                              ; preds = %115, %117, %100
  %120 = phi { i8*, i32 } [ %101, %100 ], [ %118, %117 ], [ %116, %115 ]
  call void @llvm.lifetime.end.p0i8(i64 4, i8* nonnull %25) #18
  br label %211

121:                                              ; preds = %81
  call void @llvm.lifetime.start.p0i8(i64 80, i8* nonnull %38) #18
  invoke void @_ZNSt5queueISt4pairIiS0_IiiEESt5dequeIS2_SaIS2_EEEC2IS5_vEEv(%"class.std::queue"* nonnull align 8 dereferenceable(80) %8) #19
          to label %122 unwind label %144

122:                                              ; preds = %121
  call void @llvm.lifetime.start.p0i8(i64 12, i8* nonnull %39) #18
  store i32 0, i32* %40, align 4, !tbaa !23
  store i64 0, i64* %42, align 4
  invoke void @_ZNSt5dequeISt4pairIiS0_IiiEESaIS2_EE12emplace_backIJS2_EEEvDpOT_(%"class.std::deque"* nonnull align 8 dereferenceable(80) %43, %"struct.std::pair.9"* nonnull align 4 dereferenceable(12) %9) #19
          to label %123 unwind label %146

123:                                              ; preds = %122
  call void @llvm.lifetime.end.p0i8(i64 12, i8* nonnull %39) #18
  br label %124

124:                                              ; preds = %156, %123
  %125 = call i64 @_ZNKSt5dequeISt4pairIiS0_IiiEESaIS2_EE4sizeEv(%"class.std::deque"* nonnull align 8 dereferenceable(80) %43) #20
  %126 = icmp eq i64 %125, 0
  br i1 %126, label %187, label %127

127:                                              ; preds = %124
  %128 = load %"struct.std::pair.9"*, %"struct.std::pair.9"** %44, align 8, !tbaa !26, !noalias !28
  %129 = getelementptr inbounds %"struct.std::pair.9", %"struct.std::pair.9"* %128, i64 0, i32 0
  %130 = load i32, i32* %129, align 4
  %131 = getelementptr inbounds %"struct.std::pair.9", %"struct.std::pair.9"* %128, i64 0, i32 1, i32 0
  %132 = load i32, i32* %131, align 4
  %133 = getelementptr inbounds %"struct.std::pair.9", %"struct.std::pair.9"* %128, i64 0, i32 1, i32 1
  %134 = load i32, i32* %133, align 4
  call void @_ZNSt5dequeISt4pairIiS0_IiiEESaIS2_EE9pop_frontEv(%"class.std::deque"* nonnull align 8 dereferenceable(80) %43) #20
  %135 = icmp slt i32 %132, 0
  br i1 %135, label %156, label %136

136:                                              ; preds = %127
  %137 = load i32, i32* %2, align 4, !tbaa !5
  %138 = icmp slt i32 %132, %137
  %139 = icmp sgt i32 %134, -1
  %140 = select i1 %138, i1 %139, i1 false
  %141 = load i32, i32* %1, align 4
  %142 = icmp slt i32 %134, %141
  %143 = select i1 %140, i1 %142, i1 false
  br i1 %143, label %150, label %156

144:                                              ; preds = %121
  %145 = landingpad { i8*, i32 }
          cleanup
  br label %209

146:                                              ; preds = %122
  %147 = landingpad { i8*, i32 }
          cleanup
  call void @llvm.lifetime.end.p0i8(i64 12, i8* nonnull %39) #18
  br label %207

148:                                              ; preds = %204, %199, %201, %197
  %149 = landingpad { i8*, i32 }
          cleanup
  br label %207

150:                                              ; preds = %136
  %151 = zext i32 %132 to i64
  %152 = zext i32 %134 to i64
  %153 = getelementptr inbounds [64 x [64 x i32]], [64 x [64 x i32]]* %7, i64 0, i64 %151, i64 %152
  %154 = load i32, i32* %153, align 4, !tbaa !5
  %155 = icmp eq i32 %154, 1000000007
  br i1 %155, label %157, label %156

156:                                              ; preds = %162, %150, %127, %136
  br label %124, !llvm.loop !31

157:                                              ; preds = %150
  store i32 %130, i32* %153, align 4, !tbaa !5
  %158 = zext i32 %134 to i64
  %159 = shl nuw nsw i64 %158, 32
  %160 = or i64 %159, %151
  %161 = add nsw i32 %130, 1
  br label %162

162:                                              ; preds = %183, %157
  %163 = phi i64 [ %184, %183 ], [ 0, %157 ]
  %164 = icmp eq i64 %163, 4
  br i1 %164, label %156, label %165, !llvm.loop !31

165:                                              ; preds = %162
  call void @llvm.lifetime.start.p0i8(i64 16, i8* nonnull %45) #18
  %166 = getelementptr inbounds [4 x i32], [4 x i32]* @_ZL2dy, i64 0, i64 %163
  %167 = load i32, i32* %166, align 4, !tbaa !5
  %168 = add nsw i32 %167, %132
  %169 = getelementptr inbounds [4 x i32], [4 x i32]* @_ZL2dx, i64 0, i64 %163
  %170 = load i32, i32* %169, align 4, !tbaa !5
  %171 = add nsw i32 %170, %134
  store i64 %160, i64* %46, align 8
  %172 = zext i32 %171 to i64
  %173 = shl nuw i64 %172, 32
  %174 = zext i32 %168 to i64
  %175 = or i64 %173, %174
  store i64 %175, i64* %48, align 8
  %176 = invoke %"struct.std::_Rb_tree_node_base"* @_ZNSt8_Rb_treeISt4pairIS0_IiiES1_ES2_St9_IdentityIS2_ESt4lessIS2_ESaIS2_EE4findERKS2_(%"class.std::_Rb_tree"* nonnull align 8 dereferenceable(48) %30, %"struct.std::pair.0"* nonnull align 4 dereferenceable(16) %10) #19
          to label %177 unwind label %179

177:                                              ; preds = %165
  %178 = icmp eq %"struct.std::_Rb_tree_node_base"* %176, %49
  call void @llvm.lifetime.end.p0i8(i64 16, i8* nonnull %45) #18
  br i1 %178, label %181, label %183

179:                                              ; preds = %165
  %180 = landingpad { i8*, i32 }
          cleanup
  call void @llvm.lifetime.end.p0i8(i64 16, i8* nonnull %45) #18
  br label %207

181:                                              ; preds = %177
  call void @llvm.lifetime.start.p0i8(i64 12, i8* nonnull %50) #18
  store i32 %161, i32* %51, align 4, !tbaa !23
  store i64 %175, i64* %53, align 4
  invoke void @_ZNSt5dequeISt4pairIiS0_IiiEESaIS2_EE12emplace_backIJS2_EEEvDpOT_(%"class.std::deque"* nonnull align 8 dereferenceable(80) %43, %"struct.std::pair.9"* nonnull align 4 dereferenceable(12) %11) #19
          to label %182 unwind label %185

182:                                              ; preds = %181
  call void @llvm.lifetime.end.p0i8(i64 12, i8* nonnull %50) #18
  br label %183

183:                                              ; preds = %177, %182
  %184 = add nuw nsw i64 %163, 1
  br label %162, !llvm.loop !32

185:                                              ; preds = %181
  %186 = landingpad { i8*, i32 }
          cleanup
  call void @llvm.lifetime.end.p0i8(i64 12, i8* nonnull %50) #18
  br label %207

187:                                              ; preds = %124
  %188 = load i32, i32* %2, align 4, !tbaa !5
  %189 = add nsw i32 %188, -1
  %190 = sext i32 %189 to i64
  %191 = load i32, i32* %1, align 4, !tbaa !5
  %192 = add nsw i32 %191, -1
  %193 = sext i32 %192 to i64
  %194 = getelementptr inbounds [64 x [64 x i32]], [64 x [64 x i32]]* %7, i64 0, i64 %190, i64 %193
  %195 = load i32, i32* %194, align 4, !tbaa !5
  %196 = icmp eq i32 %195, 1000000007
  br i1 %196, label %197, label %201

197:                                              ; preds = %187
  %198 = invoke nonnull align 8 dereferenceable(8) %"class.std::basic_ostream"* @_ZNSolsEi(%"class.std::basic_ostream"* nonnull align 8 dereferenceable(8) @_ZSt4cout, i32 0) #19
          to label %199 unwind label %148

199:                                              ; preds = %197
  %200 = invoke nonnull align 8 dereferenceable(8) %"class.std::basic_ostream"* @_ZSt4endlIcSt11char_traitsIcEERSt13basic_ostreamIT_T0_ES6_(%"class.std::basic_ostream"* nonnull align 8 dereferenceable(8) %198) #19
          to label %206 unwind label %148

201:                                              ; preds = %187
  %202 = add nsw i32 %195, 1
  %203 = invoke nonnull align 8 dereferenceable(8) %"class.std::basic_ostream"* @_ZNSolsEi(%"class.std::basic_ostream"* nonnull align 8 dereferenceable(8) @_ZSt4cout, i32 %202) #19
          to label %204 unwind label %148

204:                                              ; preds = %201
  %205 = invoke nonnull align 8 dereferenceable(8) %"class.std::basic_ostream"* @_ZSt4endlIcSt11char_traitsIcEERSt13basic_ostreamIT_T0_ES6_(%"class.std::basic_ostream"* nonnull align 8 dereferenceable(8) %203) #19
          to label %206 unwind label %148

206:                                              ; preds = %204, %199
  call void @_ZNSt11_Deque_baseISt4pairIiS0_IiiEESaIS2_EED2Ev(%"class.std::_Deque_base"* nonnull align 8 dereferenceable(80) %54) #20
  call void @llvm.lifetime.end.p0i8(i64 80, i8* nonnull %38) #18
  call void @llvm.lifetime.end.p0i8(i64 16384, i8* nonnull %35) #18
  call void @_ZNSt8_Rb_treeISt4pairIS0_IiiES1_ES2_St9_IdentityIS2_ESt4lessIS2_ESaIS2_EED2Ev(%"class.std::_Rb_tree"* nonnull align 8 dereferenceable(48) %30) #20
  call void @llvm.lifetime.end.p0i8(i64 48, i8* nonnull %14) #18
  br label %55, !llvm.loop !33

207:                                              ; preds = %179, %185, %148, %146
  %208 = phi { i8*, i32 } [ %149, %148 ], [ %147, %146 ], [ %186, %185 ], [ %180, %179 ]
  call void @_ZNSt11_Deque_baseISt4pairIiS0_IiiEESaIS2_EED2Ev(%"class.std::_Deque_base"* nonnull align 8 dereferenceable(80) %54) #20
  br label %209

209:                                              ; preds = %207, %144
  %210 = phi { i8*, i32 } [ %208, %207 ], [ %145, %144 ]
  call void @llvm.lifetime.end.p0i8(i64 80, i8* nonnull %38) #18
  call void @llvm.lifetime.end.p0i8(i64 16384, i8* nonnull %35) #18
  br label %211

211:                                              ; preds = %209, %119
  %212 = phi { i8*, i32 } [ %120, %119 ], [ %210, %209 ]
  call void @_ZNSt8_Rb_treeISt4pairIS0_IiiES1_ES2_St9_IdentityIS2_ESt4lessIS2_ESaIS2_EED2Ev(%"class.std::_Rb_tree"* nonnull align 8 dereferenceable(48) %30) #20
  call void @llvm.lifetime.end.p0i8(i64 48, i8* nonnull %14) #18
  call void @llvm.lifetime.end.p0i8(i64 4, i8* nonnull %13) #18
  call void @llvm.lifetime.end.p0i8(i64 4, i8* nonnull %12) #18
  resume { i8*, i32 } %212

213:                                              ; preds = %55
  call void @llvm.lifetime.end.p0i8(i64 4, i8* nonnull %13) #18
  call void @llvm.lifetime.end.p0i8(i64 4, i8* nonnull %12) #18
  ret i32 0
}

; Function Attrs: argmemonly mustprogress nofree nosync nounwind willreturn
declare void @llvm.lifetime.start.p0i8(i64 immarg, i8* nocapture) #4

; Function Attrs: minsize optsize
declare nonnull align 8 dereferenceable(16) %"class.std::basic_istream"* @_ZNSirsERi(%"class.std::basic_istream"* nonnull align 8 dereferenceable(16), i32* nonnull align 4 dereferenceable(4)) local_unnamed_addr #0

declare i32 @__gxx_personality_v0(...)

; Function Attrs: argmemonly mustprogress nofree nosync nounwind willreturn
declare void @llvm.lifetime.end.p0i8(i64 immarg, i8* nocapture) #4

; Function Attrs: minsize optsize sspstrong uwtable
define linkonce_odr dso_local void @_ZNSt5queueISt4pairIiS0_IiiEESt5dequeIS2_SaIS2_EEEC2IS5_vEEv(%"class.std::queue"* nonnull align 8 dereferenceable(80) %0) unnamed_addr #5 comdat align 2 {
  %2 = bitcast %"class.std::queue"* %0 to i8*
  tail call void @llvm.memset.p0i8.i64(i8* noundef nonnull align 8 dereferenceable(80) %2, i8 0, i64 80, i1 false)
  %3 = getelementptr inbounds %"class.std::queue", %"class.std::queue"* %0, i64 0, i32 0, i32 0
  tail call void @_ZNSt11_Deque_baseISt4pairIiS0_IiiEESaIS2_EEC2Ev(%"class.std::_Deque_base"* nonnull align 8 dereferenceable(80) %3) #19
  ret void
}

; Function Attrs: argmemonly mustprogress nofree nounwind willreturn
declare void @llvm.memcpy.p0i8.p0i8.i64(i8* noalias nocapture writeonly, i8* noalias nocapture readonly, i64, i1 immarg) #6

; Function Attrs: minsize optsize
declare nonnull align 8 dereferenceable(8) %"class.std::basic_ostream"* @_ZNSolsEi(%"class.std::basic_ostream"* nonnull align 8 dereferenceable(8), i32) local_unnamed_addr #0

; Function Attrs: inlinehint minsize mustprogress optsize sspstrong uwtable
declare nonnull align 8 dereferenceable(8) %"class.std::basic_ostream"* @_ZSt4endlIcSt11char_traitsIcEERSt13basic_ostreamIT_T0_ES6_(%"class.std::basic_ostream"* nonnull align 8 dereferenceable(8)) local_unnamed_addr #7

; Function Attrs: noinline noreturn nounwind
define linkonce_odr hidden void @__clang_call_terminate(i8* %0) local_unnamed_addr #8 comdat {
  %2 = tail call i8* @__cxa_begin_catch(i8* %0) #18
  tail call void @_ZSt9terminatev() #21
  unreachable
}

declare i8* @__cxa_begin_catch(i8*) local_unnamed_addr

declare void @_ZSt9terminatev() local_unnamed_addr

; Function Attrs: minsize nounwind optsize sspstrong uwtable
define linkonce_odr dso_local void @_ZNSt11_Deque_baseISt4pairIiS0_IiiEESaIS2_EED2Ev(%"class.std::_Deque_base"* nonnull align 8 dereferenceable(80) %0) unnamed_addr #9 comdat align 2 personality i32 (...)* @__gxx_personality_v0 {
  %2 = getelementptr inbounds %"class.std::_Deque_base", %"class.std::_Deque_base"* %0, i64 0, i32 0, i32 0, i32 0
  %3 = load %"struct.std::pair.9"**, %"struct.std::pair.9"*** %2, align 8, !tbaa !34
  %4 = icmp eq %"struct.std::pair.9"** %3, null
  br i1 %4, label %13, label %5

5:                                                ; preds = %1
  %6 = getelementptr inbounds %"class.std::_Deque_base", %"class.std::_Deque_base"* %0, i64 0, i32 0, i32 0, i32 2, i32 3
  %7 = load %"struct.std::pair.9"**, %"struct.std::pair.9"*** %6, align 8, !tbaa !36
  %8 = getelementptr inbounds %"class.std::_Deque_base", %"class.std::_Deque_base"* %0, i64 0, i32 0, i32 0, i32 3, i32 3
  %9 = load %"struct.std::pair.9"**, %"struct.std::pair.9"*** %8, align 8, !tbaa !37
  %10 = getelementptr inbounds %"struct.std::pair.9"*, %"struct.std::pair.9"** %9, i64 1
  tail call void @_ZNSt11_Deque_baseISt4pairIiS0_IiiEESaIS2_EE16_M_destroy_nodesEPPS2_S6_(%"class.std::_Deque_base"* nonnull align 8 dereferenceable(80) %0, %"struct.std::pair.9"** %7, %"struct.std::pair.9"** nonnull %10) #20
  %11 = bitcast %"class.std::_Deque_base"* %0 to i8**
  %12 = load i8*, i8** %11, align 8, !tbaa !34
  tail call void @_ZdlPv(i8* %12) #20
  br label %13

13:                                               ; preds = %5, %1
  ret void
}

; Function Attrs: minsize mustprogress nounwind optsize sspstrong uwtable
define linkonce_odr dso_local void @_ZNSt11_Deque_baseISt4pairIiS0_IiiEESaIS2_EE16_M_destroy_nodesEPPS2_S6_(%"class.std::_Deque_base"* nonnull align 8 dereferenceable(80) %0, %"struct.std::pair.9"** %1, %"struct.std::pair.9"** %2) local_unnamed_addr #10 comdat align 2 personality i32 (...)* @__gxx_personality_v0 {
  br label %4

4:                                                ; preds = %8, %3
  %5 = phi %"struct.std::pair.9"** [ %1, %3 ], [ %11, %8 ]
  %6 = icmp ult %"struct.std::pair.9"** %5, %2
  br i1 %6, label %8, label %7

7:                                                ; preds = %4
  ret void

8:                                                ; preds = %4
  %9 = bitcast %"struct.std::pair.9"** %5 to i8**
  %10 = load i8*, i8** %9, align 8, !tbaa !38
  tail call void @_ZdlPv(i8* %10) #20
  %11 = getelementptr inbounds %"struct.std::pair.9"*, %"struct.std::pair.9"** %5, i64 1
  br label %4, !llvm.loop !39
}

; Function Attrs: minsize nobuiltin nounwind optsize
declare void @_ZdlPv(i8*) local_unnamed_addr #11

; Function Attrs: minsize nounwind optsize sspstrong uwtable
define linkonce_odr dso_local void @_ZNSt8_Rb_treeISt4pairIS0_IiiES1_ES2_St9_IdentityIS2_ESt4lessIS2_ESaIS2_EED2Ev(%"class.std::_Rb_tree"* nonnull align 8 dereferenceable(48) %0) unnamed_addr #9 comdat align 2 personality i8* bitcast (i32 (...)* @__gxx_personality_v0 to i8*) {
  %2 = getelementptr inbounds %"class.std::_Rb_tree", %"class.std::_Rb_tree"* %0, i64 0, i32 0, i32 0, i32 0, i32 0
  %3 = getelementptr inbounds i8, i8* %2, i64 16
  %4 = bitcast i8* %3 to %"struct.std::_Rb_tree_node"**
  %5 = load %"struct.std::_Rb_tree_node"*, %"struct.std::_Rb_tree_node"** %4, align 8, !tbaa !15
  invoke void @_ZNSt8_Rb_treeISt4pairIS0_IiiES1_ES2_St9_IdentityIS2_ESt4lessIS2_ESaIS2_EE8_M_eraseEPSt13_Rb_tree_nodeIS2_E(%"class.std::_Rb_tree"* nonnull align 8 dereferenceable(48) %0, %"struct.std::_Rb_tree_node"* %5) #19
          to label %6 unwind label %7

6:                                                ; preds = %1
  ret void

7:                                                ; preds = %1
  %8 = landingpad { i8*, i32 }
          catch i8* null
  %9 = extractvalue { i8*, i32 } %8, 0
  tail call void @__clang_call_terminate(i8* %9) #21
  unreachable
}

; Function Attrs: minsize mustprogress optsize sspstrong uwtable
define linkonce_odr dso_local void @_ZNSt8_Rb_treeISt4pairIS0_IiiES1_ES2_St9_IdentityIS2_ESt4lessIS2_ESaIS2_EE8_M_eraseEPSt13_Rb_tree_nodeIS2_E(%"class.std::_Rb_tree"* nonnull align 8 dereferenceable(48) %0, %"struct.std::_Rb_tree_node"* %1) local_unnamed_addr #12 comdat align 2 personality i32 (...)* @__gxx_personality_v0 {
  br label %3

3:                                                ; preds = %6, %2
  %4 = phi %"struct.std::_Rb_tree_node"* [ %1, %2 ], [ %12, %6 ]
  %5 = icmp eq %"struct.std::_Rb_tree_node"* %4, null
  br i1 %5, label %14, label %6

6:                                                ; preds = %3
  %7 = getelementptr inbounds %"struct.std::_Rb_tree_node", %"struct.std::_Rb_tree_node"* %4, i64 0, i32 0, i32 3
  %8 = bitcast %"struct.std::_Rb_tree_node_base"** %7 to %"struct.std::_Rb_tree_node"**
  %9 = load %"struct.std::_Rb_tree_node"*, %"struct.std::_Rb_tree_node"** %8, align 8, !tbaa !40
  tail call void @_ZNSt8_Rb_treeISt4pairIS0_IiiES1_ES2_St9_IdentityIS2_ESt4lessIS2_ESaIS2_EE8_M_eraseEPSt13_Rb_tree_nodeIS2_E(%"class.std::_Rb_tree"* nonnull align 8 dereferenceable(48) %0, %"struct.std::_Rb_tree_node"* %9) #19
  %10 = getelementptr inbounds %"struct.std::_Rb_tree_node", %"struct.std::_Rb_tree_node"* %4, i64 0, i32 0, i32 2
  %11 = bitcast %"struct.std::_Rb_tree_node_base"** %10 to %"struct.std::_Rb_tree_node"**
  %12 = load %"struct.std::_Rb_tree_node"*, %"struct.std::_Rb_tree_node"** %11, align 8, !tbaa !41
  %13 = bitcast %"struct.std::_Rb_tree_node"* %4 to i8*
  tail call void @_ZdlPv(i8* nonnull %13) #20
  br label %3, !llvm.loop !42

14:                                               ; preds = %3
  ret void
}

; Function Attrs: minsize optsize sspstrong uwtable
define linkonce_odr dso_local { %"struct.std::_Rb_tree_node_base"*, i8 } @_ZNSt8_Rb_treeISt4pairIS0_IiiES1_ES2_St9_IdentityIS2_ESt4lessIS2_ESaIS2_EE16_M_insert_uniqueIS2_EES0_ISt17_Rb_tree_iteratorIS2_EbEOT_(%"class.std::_Rb_tree"* nonnull align 8 dereferenceable(48) %0, %"struct.std::pair.0"* nonnull align 4 dereferenceable(16) %1) local_unnamed_addr #5 comdat align 2 {
  %3 = alloca %"struct.std::_Rb_tree<std::pair<std::pair<int, int>, std::pair<int, int>>, std::pair<std::pair<int, int>, std::pair<int, int>>, std::_Identity<std::pair<std::pair<int, int>, std::pair<int, int>>>, std::less<std::pair<std::pair<int, int>, std::pair<int, int>>>>::_Alloc_node", align 8
  %4 = tail call { %"struct.std::_Rb_tree_node_base"*, %"struct.std::_Rb_tree_node_base"* } @_ZNSt8_Rb_treeISt4pairIS0_IiiES1_ES2_St9_IdentityIS2_ESt4lessIS2_ESaIS2_EE24_M_get_insert_unique_posERKS2_(%"class.std::_Rb_tree"* nonnull align 8 dereferenceable(48) %0, %"struct.std::pair.0"* nonnull align 4 dereferenceable(16) %1) #19
  %5 = extractvalue { %"struct.std::_Rb_tree_node_base"*, %"struct.std::_Rb_tree_node_base"* } %4, 0
  %6 = extractvalue { %"struct.std::_Rb_tree_node_base"*, %"struct.std::_Rb_tree_node_base"* } %4, 1
  %7 = icmp eq %"struct.std::_Rb_tree_node_base"* %6, null
  br i1 %7, label %12, label %8

8:                                                ; preds = %2
  %9 = bitcast %"struct.std::_Rb_tree<std::pair<std::pair<int, int>, std::pair<int, int>>, std::pair<std::pair<int, int>, std::pair<int, int>>, std::_Identity<std::pair<std::pair<int, int>, std::pair<int, int>>>, std::less<std::pair<std::pair<int, int>, std::pair<int, int>>>>::_Alloc_node"* %3 to i8*
  call void @llvm.lifetime.start.p0i8(i64 8, i8* nonnull %9) #18
  %10 = getelementptr inbounds %"struct.std::_Rb_tree<std::pair<std::pair<int, int>, std::pair<int, int>>, std::pair<std::pair<int, int>, std::pair<int, int>>, std::_Identity<std::pair<std::pair<int, int>, std::pair<int, int>>>, std::less<std::pair<std::pair<int, int>, std::pair<int, int>>>>::_Alloc_node", %"struct.std::_Rb_tree<std::pair<std::pair<int, int>, std::pair<int, int>>, std::pair<std::pair<int, int>, std::pair<int, int>>, std::_Identity<std::pair<std::pair<int, int>, std::pair<int, int>>>, std::less<std::pair<std::pair<int, int>, std::pair<int, int>>>>::_Alloc_node"* %3, i64 0, i32 0
  store %"class.std::_Rb_tree"* %0, %"class.std::_Rb_tree"** %10, align 8, !tbaa !38
  %11 = call %"struct.std::_Rb_tree_node_base"* @_ZNSt8_Rb_treeISt4pairIS0_IiiES1_ES2_St9_IdentityIS2_ESt4lessIS2_ESaIS2_EE10_M_insert_IS2_NS8_11_Alloc_nodeEEESt17_Rb_tree_iteratorIS2_EPSt18_Rb_tree_node_baseSE_OT_RT0_(%"class.std::_Rb_tree"* nonnull align 8 dereferenceable(48) %0, %"struct.std::_Rb_tree_node_base"* %5, %"struct.std::_Rb_tree_node_base"* nonnull %6, %"struct.std::pair.0"* nonnull align 4 dereferenceable(16) %1, %"struct.std::_Rb_tree<std::pair<std::pair<int, int>, std::pair<int, int>>, std::pair<std::pair<int, int>, std::pair<int, int>>, std::_Identity<std::pair<std::pair<int, int>, std::pair<int, int>>>, std::less<std::pair<std::pair<int, int>, std::pair<int, int>>>>::_Alloc_node"* nonnull align 8 dereferenceable(8) %3) #19
  call void @llvm.lifetime.end.p0i8(i64 8, i8* nonnull %9) #18
  br label %12

12:                                               ; preds = %2, %8
  %13 = phi %"struct.std::_Rb_tree_node_base"* [ %11, %8 ], [ %5, %2 ]
  %14 = phi i8 [ 1, %8 ], [ 0, %2 ]
  %15 = insertvalue { %"struct.std::_Rb_tree_node_base"*, i8 } undef, %"struct.std::_Rb_tree_node_base"* %13, 0
  %16 = insertvalue { %"struct.std::_Rb_tree_node_base"*, i8 } %15, i8 %14, 1
  ret { %"struct.std::_Rb_tree_node_base"*, i8 } %16
}

; Function Attrs: minsize optsize sspstrong uwtable
define linkonce_odr dso_local { %"struct.std::_Rb_tree_node_base"*, %"struct.std::_Rb_tree_node_base"* } @_ZNSt8_Rb_treeISt4pairIS0_IiiES1_ES2_St9_IdentityIS2_ESt4lessIS2_ESaIS2_EE24_M_get_insert_unique_posERKS2_(%"class.std::_Rb_tree"* nonnull align 8 dereferenceable(48) %0, %"struct.std::pair.0"* nonnull align 4 dereferenceable(16) %1) local_unnamed_addr #5 comdat align 2 {
  %3 = getelementptr inbounds %"class.std::_Rb_tree", %"class.std::_Rb_tree"* %0, i64 0, i32 0, i32 0, i32 0, i32 0
  %4 = getelementptr inbounds i8, i8* %3, i64 16
  %5 = bitcast i8* %4 to %"struct.std::_Rb_tree_node"**
  %6 = getelementptr inbounds i8, i8* %3, i64 8
  %7 = bitcast i8* %6 to %"struct.std::_Rb_tree_node_base"*
  br label %8

8:                                                ; preds = %14, %2
  %9 = phi %"struct.std::_Rb_tree_node"** [ %5, %2 ], [ %22, %14 ]
  %10 = phi %"struct.std::_Rb_tree_node_base"* [ %7, %2 ], [ %15, %14 ]
  %11 = phi i1 [ true, %2 ], [ %18, %14 ]
  %12 = load %"struct.std::_Rb_tree_node"*, %"struct.std::_Rb_tree_node"** %9, align 8, !tbaa !38
  %13 = icmp eq %"struct.std::_Rb_tree_node"* %12, null
  br i1 %13, label %23, label %14

14:                                               ; preds = %8
  %15 = getelementptr %"struct.std::_Rb_tree_node", %"struct.std::_Rb_tree_node"* %12, i64 0, i32 0
  %16 = getelementptr inbounds %"struct.std::_Rb_tree_node", %"struct.std::_Rb_tree_node"* %12, i64 0, i32 1
  %17 = bitcast %"struct.__gnu_cxx::__aligned_membuf"* %16 to %"struct.std::pair.0"*
  %18 = tail call zeroext i1 @_ZStltISt4pairIiiES1_EbRKS0_IT_T0_ES6_(%"struct.std::pair.0"* nonnull align 4 dereferenceable(16) %1, %"struct.std::pair.0"* nonnull align 4 dereferenceable(16) %17) #19
  %19 = getelementptr inbounds %"struct.std::_Rb_tree_node", %"struct.std::_Rb_tree_node"* %12, i64 0, i32 0, i32 2
  %20 = getelementptr inbounds %"struct.std::_Rb_tree_node", %"struct.std::_Rb_tree_node"* %12, i64 0, i32 0, i32 3
  %21 = select i1 %18, %"struct.std::_Rb_tree_node_base"** %19, %"struct.std::_Rb_tree_node_base"** %20
  %22 = bitcast %"struct.std::_Rb_tree_node_base"** %21 to %"struct.std::_Rb_tree_node"**
  br label %8, !llvm.loop !43

23:                                               ; preds = %8
  br i1 %11, label %24, label %31

24:                                               ; preds = %23
  %25 = getelementptr inbounds i8, i8* %3, i64 24
  %26 = bitcast i8* %25 to %"struct.std::_Rb_tree_node_base"**
  %27 = load %"struct.std::_Rb_tree_node_base"*, %"struct.std::_Rb_tree_node_base"** %26, align 8, !tbaa !16
  %28 = icmp eq %"struct.std::_Rb_tree_node_base"* %10, %27
  br i1 %28, label %38, label %29

29:                                               ; preds = %24
  %30 = tail call %"struct.std::_Rb_tree_node_base"* @_ZSt18_Rb_tree_decrementPSt18_Rb_tree_node_base(%"struct.std::_Rb_tree_node_base"* %10) #22
  br label %31

31:                                               ; preds = %29, %23
  %32 = phi %"struct.std::_Rb_tree_node_base"* [ %30, %29 ], [ %10, %23 ]
  %33 = getelementptr inbounds %"struct.std::_Rb_tree_node_base", %"struct.std::_Rb_tree_node_base"* %32, i64 1
  %34 = bitcast %"struct.std::_Rb_tree_node_base"* %33 to %"struct.std::pair.0"*
  %35 = tail call zeroext i1 @_ZStltISt4pairIiiES1_EbRKS0_IT_T0_ES6_(%"struct.std::pair.0"* nonnull align 4 dereferenceable(16) %34, %"struct.std::pair.0"* nonnull align 4 dereferenceable(16) %1) #19
  %36 = select i1 %35, %"struct.std::_Rb_tree_node_base"* null, %"struct.std::_Rb_tree_node_base"* %32
  %37 = select i1 %35, %"struct.std::_Rb_tree_node_base"* %10, %"struct.std::_Rb_tree_node_base"* null
  br label %38

38:                                               ; preds = %24, %31
  %39 = phi %"struct.std::_Rb_tree_node_base"* [ %36, %31 ], [ null, %24 ]
  %40 = phi %"struct.std::_Rb_tree_node_base"* [ %37, %31 ], [ %10, %24 ]
  %41 = insertvalue { %"struct.std::_Rb_tree_node_base"*, %"struct.std::_Rb_tree_node_base"* } undef, %"struct.std::_Rb_tree_node_base"* %39, 0
  %42 = insertvalue { %"struct.std::_Rb_tree_node_base"*, %"struct.std::_Rb_tree_node_base"* } %41, %"struct.std::_Rb_tree_node_base"* %40, 1
  ret { %"struct.std::_Rb_tree_node_base"*, %"struct.std::_Rb_tree_node_base"* } %42
}

; Function Attrs: minsize optsize sspstrong uwtable
define linkonce_odr dso_local %"struct.std::_Rb_tree_node_base"* @_ZNSt8_Rb_treeISt4pairIS0_IiiES1_ES2_St9_IdentityIS2_ESt4lessIS2_ESaIS2_EE10_M_insert_IS2_NS8_11_Alloc_nodeEEESt17_Rb_tree_iteratorIS2_EPSt18_Rb_tree_node_baseSE_OT_RT0_(%"class.std::_Rb_tree"* nonnull align 8 dereferenceable(48) %0, %"struct.std::_Rb_tree_node_base"* %1, %"struct.std::_Rb_tree_node_base"* %2, %"struct.std::pair.0"* nonnull align 4 dereferenceable(16) %3, %"struct.std::_Rb_tree<std::pair<std::pair<int, int>, std::pair<int, int>>, std::pair<std::pair<int, int>, std::pair<int, int>>, std::_Identity<std::pair<std::pair<int, int>, std::pair<int, int>>>, std::less<std::pair<std::pair<int, int>, std::pair<int, int>>>>::_Alloc_node"* nonnull align 8 dereferenceable(8) %4) local_unnamed_addr #5 comdat align 2 {
  %6 = icmp eq %"struct.std::_Rb_tree_node_base"* %1, null
  br i1 %6, label %7, label %16

7:                                                ; preds = %5
  %8 = getelementptr inbounds %"class.std::_Rb_tree", %"class.std::_Rb_tree"* %0, i64 0, i32 0, i32 0, i32 0, i32 0
  %9 = getelementptr inbounds i8, i8* %8, i64 8
  %10 = bitcast i8* %9 to %"struct.std::_Rb_tree_node_base"*
  %11 = icmp eq %"struct.std::_Rb_tree_node_base"* %10, %2
  br i1 %11, label %16, label %12

12:                                               ; preds = %7
  %13 = getelementptr inbounds %"struct.std::_Rb_tree_node_base", %"struct.std::_Rb_tree_node_base"* %2, i64 1
  %14 = bitcast %"struct.std::_Rb_tree_node_base"* %13 to %"struct.std::pair.0"*
  %15 = tail call zeroext i1 @_ZStltISt4pairIiiES1_EbRKS0_IT_T0_ES6_(%"struct.std::pair.0"* nonnull align 4 dereferenceable(16) %3, %"struct.std::pair.0"* nonnull align 4 dereferenceable(16) %14) #19
  br label %16

16:                                               ; preds = %5, %12, %7
  %17 = phi i1 [ true, %7 ], [ %15, %12 ], [ true, %5 ]
  %18 = tail call %"struct.std::_Rb_tree_node"* @_ZNKSt8_Rb_treeISt4pairIS0_IiiES1_ES2_St9_IdentityIS2_ESt4lessIS2_ESaIS2_EE11_Alloc_nodeclIS2_EEPSt13_Rb_tree_nodeIS2_EOT_(%"struct.std::_Rb_tree<std::pair<std::pair<int, int>, std::pair<int, int>>, std::pair<std::pair<int, int>, std::pair<int, int>>, std::_Identity<std::pair<std::pair<int, int>, std::pair<int, int>>>, std::less<std::pair<std::pair<int, int>, std::pair<int, int>>>>::_Alloc_node"* nonnull align 8 dereferenceable(8) %4, %"struct.std::pair.0"* nonnull align 4 dereferenceable(16) %3) #19
  %19 = getelementptr %"struct.std::_Rb_tree_node", %"struct.std::_Rb_tree_node"* %18, i64 0, i32 0
  %20 = getelementptr inbounds %"class.std::_Rb_tree", %"class.std::_Rb_tree"* %0, i64 0, i32 0, i32 0, i32 0, i32 0
  %21 = getelementptr inbounds i8, i8* %20, i64 8
  %22 = bitcast i8* %21 to %"struct.std::_Rb_tree_node_base"*
  tail call void @_ZSt29_Rb_tree_insert_and_rebalancebPSt18_Rb_tree_node_baseS0_RS_(i1 zeroext %17, %"struct.std::_Rb_tree_node_base"* %19, %"struct.std::_Rb_tree_node_base"* %2, %"struct.std::_Rb_tree_node_base"* nonnull align 8 dereferenceable(32) %22) #20
  %23 = getelementptr inbounds i8, i8* %20, i64 40
  %24 = bitcast i8* %23 to i64*
  %25 = load i64, i64* %24, align 8, !tbaa !18
  %26 = add i64 %25, 1
  store i64 %26, i64* %24, align 8, !tbaa !18
  ret %"struct.std::_Rb_tree_node_base"* %19
}

; Function Attrs: inlinehint minsize mustprogress optsize sspstrong uwtable
define linkonce_odr dso_local zeroext i1 @_ZStltISt4pairIiiES1_EbRKS0_IT_T0_ES6_(%"struct.std::pair.0"* nonnull align 4 dereferenceable(16) %0, %"struct.std::pair.0"* nonnull align 4 dereferenceable(16) %1) local_unnamed_addr #7 comdat {
  %3 = getelementptr inbounds %"struct.std::pair.0", %"struct.std::pair.0"* %0, i64 0, i32 0
  %4 = getelementptr inbounds %"struct.std::pair.0", %"struct.std::pair.0"* %1, i64 0, i32 0
  %5 = tail call zeroext i1 @_ZStltIiiEbRKSt4pairIT_T0_ES5_(%"struct.std::pair.3"* nonnull align 4 dereferenceable(8) %3, %"struct.std::pair.3"* nonnull align 4 dereferenceable(8) %4) #19
  br i1 %5, label %12, label %6

6:                                                ; preds = %2
  %7 = tail call zeroext i1 @_ZStltIiiEbRKSt4pairIT_T0_ES5_(%"struct.std::pair.3"* nonnull align 4 dereferenceable(8) %4, %"struct.std::pair.3"* nonnull align 4 dereferenceable(8) %3) #19
  br i1 %7, label %12, label %8

8:                                                ; preds = %6
  %9 = getelementptr inbounds %"struct.std::pair.0", %"struct.std::pair.0"* %0, i64 0, i32 1
  %10 = getelementptr inbounds %"struct.std::pair.0", %"struct.std::pair.0"* %1, i64 0, i32 1
  %11 = tail call zeroext i1 @_ZStltIiiEbRKSt4pairIT_T0_ES5_(%"struct.std::pair.3"* nonnull align 4 dereferenceable(8) %9, %"struct.std::pair.3"* nonnull align 4 dereferenceable(8) %10) #19
  br label %12

12:                                               ; preds = %6, %8, %2
  %13 = phi i1 [ true, %2 ], [ false, %6 ], [ %11, %8 ]
  ret i1 %13
}

; Function Attrs: inlinehint minsize mustprogress nounwind optsize sspstrong uwtable
define linkonce_odr dso_local zeroext i1 @_ZStltIiiEbRKSt4pairIT_T0_ES5_(%"struct.std::pair.3"* nonnull align 4 dereferenceable(8) %0, %"struct.std::pair.3"* nonnull align 4 dereferenceable(8) %1) local_unnamed_addr #13 comdat {
  %3 = getelementptr inbounds %"struct.std::pair.3", %"struct.std::pair.3"* %0, i64 0, i32 0
  %4 = load i32, i32* %3, align 4, !tbaa !44
  %5 = getelementptr inbounds %"struct.std::pair.3", %"struct.std::pair.3"* %1, i64 0, i32 0
  %6 = load i32, i32* %5, align 4, !tbaa !44
  %7 = icmp slt i32 %4, %6
  br i1 %7, label %16, label %8

8:                                                ; preds = %2
  %9 = icmp slt i32 %6, %4
  br i1 %9, label %16, label %10

10:                                               ; preds = %8
  %11 = getelementptr inbounds %"struct.std::pair.3", %"struct.std::pair.3"* %0, i64 0, i32 1
  %12 = load i32, i32* %11, align 4, !tbaa !45
  %13 = getelementptr inbounds %"struct.std::pair.3", %"struct.std::pair.3"* %1, i64 0, i32 1
  %14 = load i32, i32* %13, align 4, !tbaa !45
  %15 = icmp slt i32 %12, %14
  br label %16

16:                                               ; preds = %8, %10, %2
  %17 = phi i1 [ true, %2 ], [ false, %8 ], [ %15, %10 ]
  ret i1 %17
}

; Function Attrs: minsize mustprogress nofree nounwind optsize readonly willreturn
declare %"struct.std::_Rb_tree_node_base"* @_ZSt18_Rb_tree_decrementPSt18_Rb_tree_node_base(%"struct.std::_Rb_tree_node_base"*) local_unnamed_addr #14

; Function Attrs: minsize mustprogress optsize sspstrong uwtable
define linkonce_odr dso_local %"struct.std::_Rb_tree_node"* @_ZNKSt8_Rb_treeISt4pairIS0_IiiES1_ES2_St9_IdentityIS2_ESt4lessIS2_ESaIS2_EE11_Alloc_nodeclIS2_EEPSt13_Rb_tree_nodeIS2_EOT_(%"struct.std::_Rb_tree<std::pair<std::pair<int, int>, std::pair<int, int>>, std::pair<std::pair<int, int>, std::pair<int, int>>, std::_Identity<std::pair<std::pair<int, int>, std::pair<int, int>>>, std::less<std::pair<std::pair<int, int>, std::pair<int, int>>>>::_Alloc_node"* nonnull align 8 dereferenceable(8) %0, %"struct.std::pair.0"* nonnull align 4 dereferenceable(16) %1) local_unnamed_addr #12 comdat align 2 {
  %3 = getelementptr inbounds %"struct.std::_Rb_tree<std::pair<std::pair<int, int>, std::pair<int, int>>, std::pair<std::pair<int, int>, std::pair<int, int>>, std::_Identity<std::pair<std::pair<int, int>, std::pair<int, int>>>, std::less<std::pair<std::pair<int, int>, std::pair<int, int>>>>::_Alloc_node", %"struct.std::_Rb_tree<std::pair<std::pair<int, int>, std::pair<int, int>>, std::pair<std::pair<int, int>, std::pair<int, int>>, std::_Identity<std::pair<std::pair<int, int>, std::pair<int, int>>>, std::less<std::pair<std::pair<int, int>, std::pair<int, int>>>>::_Alloc_node"* %0, i64 0, i32 0
  %4 = load %"class.std::_Rb_tree"*, %"class.std::_Rb_tree"** %3, align 8, !tbaa !46
  %5 = tail call %"struct.std::_Rb_tree_node"* @_ZNSt8_Rb_treeISt4pairIS0_IiiES1_ES2_St9_IdentityIS2_ESt4lessIS2_ESaIS2_EE11_M_get_nodeEv(%"class.std::_Rb_tree"* nonnull align 8 dereferenceable(48) %4) #19
  %6 = getelementptr inbounds %"struct.std::_Rb_tree_node", %"struct.std::_Rb_tree_node"* %5, i64 0, i32 1, i32 0, i64 0
  %7 = bitcast %"struct.std::pair.0"* %1 to i8*
  tail call void @llvm.memcpy.p0i8.p0i8.i64(i8* noundef nonnull align 4 dereferenceable(16) %6, i8* noundef nonnull align 4 dereferenceable(16) %7, i64 16, i1 false) #18
  ret %"struct.std::_Rb_tree_node"* %5
}

; Function Attrs: minsize nounwind optsize
declare void @_ZSt29_Rb_tree_insert_and_rebalancebPSt18_Rb_tree_node_baseS0_RS_(i1 zeroext, %"struct.std::_Rb_tree_node_base"*, %"struct.std::_Rb_tree_node_base"*, %"struct.std::_Rb_tree_node_base"* nonnull align 8 dereferenceable(32)) local_unnamed_addr #1

; Function Attrs: minsize mustprogress optsize sspstrong uwtable
define linkonce_odr dso_local %"struct.std::_Rb_tree_node"* @_ZNSt8_Rb_treeISt4pairIS0_IiiES1_ES2_St9_IdentityIS2_ESt4lessIS2_ESaIS2_EE11_M_get_nodeEv(%"class.std::_Rb_tree"* nonnull align 8 dereferenceable(48) %0) local_unnamed_addr #12 comdat align 2 {
  %2 = bitcast %"class.std::_Rb_tree"* %0 to %"class.std::allocator"*
  %3 = tail call %"struct.std::_Rb_tree_node"* @_ZNSt16allocator_traitsISaISt13_Rb_tree_nodeISt4pairIS1_IiiES2_EEEE8allocateERS5_m(%"class.std::allocator"* nonnull align 1 dereferenceable(1) %2, i64 1) #19
  ret %"struct.std::_Rb_tree_node"* %3
}

; Function Attrs: minsize mustprogress optsize sspstrong uwtable
define linkonce_odr dso_local %"struct.std::_Rb_tree_node"* @_ZNSt16allocator_traitsISaISt13_Rb_tree_nodeISt4pairIS1_IiiES2_EEEE8allocateERS5_m(%"class.std::allocator"* nonnull align 1 dereferenceable(1) %0, i64 %1) local_unnamed_addr #12 comdat align 2 {
  %3 = bitcast %"class.std::allocator"* %0 to %"class.__gnu_cxx::new_allocator"*
  %4 = tail call %"struct.std::_Rb_tree_node"* @_ZN9__gnu_cxx13new_allocatorISt13_Rb_tree_nodeISt4pairIS2_IiiES3_EEE8allocateEmPKv(%"class.__gnu_cxx::new_allocator"* nonnull align 1 dereferenceable(1) %3, i64 %1, i8* null) #19
  ret %"struct.std::_Rb_tree_node"* %4
}

; Function Attrs: minsize mustprogress optsize sspstrong uwtable
define linkonce_odr dso_local %"struct.std::_Rb_tree_node"* @_ZN9__gnu_cxx13new_allocatorISt13_Rb_tree_nodeISt4pairIS2_IiiES3_EEE8allocateEmPKv(%"class.__gnu_cxx::new_allocator"* nonnull align 1 dereferenceable(1) %0, i64 %1, i8* %2) local_unnamed_addr #12 comdat align 2 {
  %4 = icmp ugt i64 %1, 192153584101141162
  br i1 %4, label %5, label %9, !prof !48

5:                                                ; preds = %3
  %6 = icmp ugt i64 %1, 384307168202282325
  br i1 %6, label %7, label %8

7:                                                ; preds = %5
  tail call void @_ZSt28__throw_bad_array_new_lengthv() #23
  unreachable

8:                                                ; preds = %5
  tail call void @_ZSt17__throw_bad_allocv() #23
  unreachable

9:                                                ; preds = %3
  %10 = mul nuw nsw i64 %1, 48
  %11 = tail call noalias nonnull i8* @_Znwm(i64 %10) #24
  %12 = bitcast i8* %11 to %"struct.std::_Rb_tree_node"*
  ret %"struct.std::_Rb_tree_node"* %12
}

; Function Attrs: minsize noreturn optsize
declare void @_ZSt28__throw_bad_array_new_lengthv() local_unnamed_addr #15

; Function Attrs: minsize noreturn optsize
declare void @_ZSt17__throw_bad_allocv() local_unnamed_addr #15

; Function Attrs: minsize nobuiltin optsize allocsize(0)
declare nonnull i8* @_Znwm(i64) local_unnamed_addr #16

; Function Attrs: argmemonly mustprogress nofree nounwind willreturn writeonly
declare void @llvm.memset.p0i8.i64(i8* nocapture writeonly, i8, i64, i1 immarg) #17

; Function Attrs: minsize optsize sspstrong uwtable
define linkonce_odr dso_local void @_ZNSt11_Deque_baseISt4pairIiS0_IiiEESaIS2_EEC2Ev(%"class.std::_Deque_base"* nonnull align 8 dereferenceable(80) %0) unnamed_addr #5 comdat align 2 personality i8* bitcast (i32 (...)* @__gxx_personality_v0 to i8*) {
  %2 = bitcast %"class.std::_Deque_base"* %0 to i8*
  tail call void @llvm.memset.p0i8.i64(i8* noundef nonnull align 8 dereferenceable(80) %2, i8 0, i64 80, i1 false) #18
  tail call void @_ZNSt11_Deque_baseISt4pairIiS0_IiiEESaIS2_EE17_M_initialize_mapEm(%"class.std::_Deque_base"* nonnull align 8 dereferenceable(80) %0, i64 0) #19
  ret void
}

; Function Attrs: minsize optsize sspstrong uwtable
define linkonce_odr dso_local void @_ZNSt11_Deque_baseISt4pairIiS0_IiiEESaIS2_EE17_M_initialize_mapEm(%"class.std::_Deque_base"* nonnull align 8 dereferenceable(80) %0, i64 %1) local_unnamed_addr #5 comdat align 2 personality i8* bitcast (i32 (...)* @__gxx_personality_v0 to i8*) {
  %3 = udiv i64 %1, 42
  %4 = urem i64 %1, 42
  %5 = add nuw nsw i64 %3, 1
  %6 = icmp ugt i64 %3, 5
  %7 = select i1 %6, i64 %3, i64 5
  %8 = add nuw nsw i64 %7, 3
  %9 = getelementptr inbounds %"class.std::_Deque_base", %"class.std::_Deque_base"* %0, i64 0, i32 0, i32 0, i32 1
  store i64 %8, i64* %9, align 8, !tbaa !49
  %10 = tail call %"struct.std::pair.9"** @_ZNSt11_Deque_baseISt4pairIiS0_IiiEESaIS2_EE15_M_allocate_mapEm(%"class.std::_Deque_base"* nonnull align 8 dereferenceable(80) %0, i64 %8) #19
  %11 = getelementptr inbounds %"class.std::_Deque_base", %"class.std::_Deque_base"* %0, i64 0, i32 0, i32 0, i32 0
  store %"struct.std::pair.9"** %10, %"struct.std::pair.9"*** %11, align 8, !tbaa !34
  %12 = load i64, i64* %9, align 8, !tbaa !49
  %13 = sub i64 %12, %5
  %14 = lshr i64 %13, 1
  %15 = getelementptr inbounds %"struct.std::pair.9"*, %"struct.std::pair.9"** %10, i64 %14
  %16 = getelementptr inbounds %"struct.std::pair.9"*, %"struct.std::pair.9"** %15, i64 %5
  invoke void @_ZNSt11_Deque_baseISt4pairIiS0_IiiEESaIS2_EE15_M_create_nodesEPPS2_S6_(%"class.std::_Deque_base"* nonnull align 8 dereferenceable(80) %0, %"struct.std::pair.9"** %15, %"struct.std::pair.9"** nonnull %16) #19
          to label %27 unwind label %17

17:                                               ; preds = %2
  %18 = landingpad { i8*, i32 }
          catch i8* null
  %19 = extractvalue { i8*, i32 } %18, 0
  %20 = tail call i8* @__cxa_begin_catch(i8* %19) #18
  %21 = bitcast %"class.std::_Deque_base"* %0 to i8**
  %22 = load i8*, i8** %21, align 8, !tbaa !34
  tail call void @_ZdlPv(i8* %22) #20
  %23 = bitcast %"class.std::_Deque_base"* %0 to i8*
  call void @llvm.memset.p0i8.i64(i8* noundef nonnull align 8 dereferenceable(16) %23, i8 0, i64 16, i1 false)
  invoke void @__cxa_rethrow() #25
          to label %45 unwind label %24

24:                                               ; preds = %17
  %25 = landingpad { i8*, i32 }
          cleanup
  invoke void @__cxa_end_catch()
          to label %26 unwind label %42

26:                                               ; preds = %24
  resume { i8*, i32 } %25

27:                                               ; preds = %2
  %28 = getelementptr inbounds %"class.std::_Deque_base", %"class.std::_Deque_base"* %0, i64 0, i32 0, i32 0, i32 2, i32 3
  store %"struct.std::pair.9"** %15, %"struct.std::pair.9"*** %28, align 8, !tbaa !50
  %29 = load %"struct.std::pair.9"*, %"struct.std::pair.9"** %15, align 8, !tbaa !38
  %30 = getelementptr inbounds %"class.std::_Deque_base", %"class.std::_Deque_base"* %0, i64 0, i32 0, i32 0, i32 2, i32 1
  store %"struct.std::pair.9"* %29, %"struct.std::pair.9"** %30, align 8, !tbaa !51
  %31 = getelementptr inbounds %"struct.std::pair.9", %"struct.std::pair.9"* %29, i64 42
  %32 = getelementptr inbounds %"class.std::_Deque_base", %"class.std::_Deque_base"* %0, i64 0, i32 0, i32 0, i32 2, i32 2
  store %"struct.std::pair.9"* %31, %"struct.std::pair.9"** %32, align 8, !tbaa !52
  %33 = getelementptr inbounds %"struct.std::pair.9"*, %"struct.std::pair.9"** %16, i64 -1
  %34 = getelementptr inbounds %"class.std::_Deque_base", %"class.std::_Deque_base"* %0, i64 0, i32 0, i32 0, i32 3, i32 3
  store %"struct.std::pair.9"** %33, %"struct.std::pair.9"*** %34, align 8, !tbaa !50
  %35 = load %"struct.std::pair.9"*, %"struct.std::pair.9"** %33, align 8, !tbaa !38
  %36 = getelementptr inbounds %"class.std::_Deque_base", %"class.std::_Deque_base"* %0, i64 0, i32 0, i32 0, i32 3, i32 1
  store %"struct.std::pair.9"* %35, %"struct.std::pair.9"** %36, align 8, !tbaa !51
  %37 = getelementptr inbounds %"struct.std::pair.9", %"struct.std::pair.9"* %35, i64 42
  %38 = getelementptr inbounds %"class.std::_Deque_base", %"class.std::_Deque_base"* %0, i64 0, i32 0, i32 0, i32 3, i32 2
  store %"struct.std::pair.9"* %37, %"struct.std::pair.9"** %38, align 8, !tbaa !52
  %39 = getelementptr inbounds %"class.std::_Deque_base", %"class.std::_Deque_base"* %0, i64 0, i32 0, i32 0, i32 2, i32 0
  store %"struct.std::pair.9"* %29, %"struct.std::pair.9"** %39, align 8, !tbaa !53
  %40 = getelementptr inbounds %"struct.std::pair.9", %"struct.std::pair.9"* %35, i64 %4
  %41 = getelementptr inbounds %"class.std::_Deque_base", %"class.std::_Deque_base"* %0, i64 0, i32 0, i32 0, i32 3, i32 0
  store %"struct.std::pair.9"* %40, %"struct.std::pair.9"** %41, align 8, !tbaa !54
  ret void

42:                                               ; preds = %24
  %43 = landingpad { i8*, i32 }
          catch i8* null
  %44 = extractvalue { i8*, i32 } %43, 0
  tail call void @__clang_call_terminate(i8* %44) #21
  unreachable

45:                                               ; preds = %17
  unreachable
}

; Function Attrs: minsize optsize sspstrong uwtable
define linkonce_odr dso_local %"struct.std::pair.9"** @_ZNSt11_Deque_baseISt4pairIiS0_IiiEESaIS2_EE15_M_allocate_mapEm(%"class.std::_Deque_base"* nonnull align 8 dereferenceable(80) %0, i64 %1) local_unnamed_addr #5 comdat align 2 personality i8* bitcast (i32 (...)* @__gxx_personality_v0 to i8*) {
  %3 = alloca %"class.std::allocator.12", align 1
  %4 = getelementptr inbounds %"class.std::allocator.12", %"class.std::allocator.12"* %3, i64 0, i32 0
  call void @llvm.lifetime.start.p0i8(i64 1, i8* nonnull %4) #18
  %5 = call %"struct.std::pair.9"** @_ZNSt16allocator_traitsISaIPSt4pairIiS0_IiiEEEE8allocateERS4_m(%"class.std::allocator.12"* nonnull align 1 dereferenceable(1) %3, i64 %1) #19
  call void @llvm.lifetime.end.p0i8(i64 1, i8* nonnull %4) #18
  ret %"struct.std::pair.9"** %5
}

; Function Attrs: minsize mustprogress optsize sspstrong uwtable
define linkonce_odr dso_local void @_ZNSt11_Deque_baseISt4pairIiS0_IiiEESaIS2_EE15_M_create_nodesEPPS2_S6_(%"class.std::_Deque_base"* nonnull align 8 dereferenceable(80) %0, %"struct.std::pair.9"** %1, %"struct.std::pair.9"** %2) local_unnamed_addr #12 comdat align 2 personality i8* bitcast (i32 (...)* @__gxx_personality_v0 to i8*) {
  br label %4

4:                                                ; preds = %9, %3
  %5 = phi %"struct.std::pair.9"** [ %1, %3 ], [ %10, %9 ]
  %6 = icmp ult %"struct.std::pair.9"** %5, %2
  br i1 %6, label %7, label %18

7:                                                ; preds = %4
  %8 = invoke %"struct.std::pair.9"* @_ZNSt11_Deque_baseISt4pairIiS0_IiiEESaIS2_EE16_M_allocate_nodeEv(%"class.std::_Deque_base"* nonnull align 8 dereferenceable(80) %0) #19
          to label %9 unwind label %11

9:                                                ; preds = %7
  store %"struct.std::pair.9"* %8, %"struct.std::pair.9"** %5, align 8, !tbaa !38
  %10 = getelementptr inbounds %"struct.std::pair.9"*, %"struct.std::pair.9"** %5, i64 1
  br label %4, !llvm.loop !55

11:                                               ; preds = %7
  %12 = landingpad { i8*, i32 }
          catch i8* null
  %13 = extractvalue { i8*, i32 } %12, 0
  %14 = tail call i8* @__cxa_begin_catch(i8* %13) #18
  tail call void @_ZNSt11_Deque_baseISt4pairIiS0_IiiEESaIS2_EE16_M_destroy_nodesEPPS2_S6_(%"class.std::_Deque_base"* nonnull align 8 dereferenceable(80) %0, %"struct.std::pair.9"** %1, %"struct.std::pair.9"** %5) #20
  invoke void @__cxa_rethrow() #25
          to label %22 unwind label %15

15:                                               ; preds = %11
  %16 = landingpad { i8*, i32 }
          cleanup
  invoke void @__cxa_end_catch()
          to label %17 unwind label %19

17:                                               ; preds = %15
  resume { i8*, i32 } %16

18:                                               ; preds = %4
  ret void

19:                                               ; preds = %15
  %20 = landingpad { i8*, i32 }
          catch i8* null
  %21 = extractvalue { i8*, i32 } %20, 0
  tail call void @__clang_call_terminate(i8* %21) #21
  unreachable

22:                                               ; preds = %11
  unreachable
}

declare void @__cxa_rethrow() local_unnamed_addr

declare void @__cxa_end_catch() local_unnamed_addr

; Function Attrs: minsize mustprogress optsize sspstrong uwtable
define linkonce_odr dso_local %"struct.std::pair.9"** @_ZNSt16allocator_traitsISaIPSt4pairIiS0_IiiEEEE8allocateERS4_m(%"class.std::allocator.12"* nonnull align 1 dereferenceable(1) %0, i64 %1) local_unnamed_addr #12 comdat align 2 {
  %3 = bitcast %"class.std::allocator.12"* %0 to %"class.__gnu_cxx::new_allocator.13"*
  %4 = tail call %"struct.std::pair.9"** @_ZN9__gnu_cxx13new_allocatorIPSt4pairIiS1_IiiEEE8allocateEmPKv(%"class.__gnu_cxx::new_allocator.13"* nonnull align 1 dereferenceable(1) %3, i64 %1, i8* null) #19
  ret %"struct.std::pair.9"** %4
}

; Function Attrs: minsize mustprogress optsize sspstrong uwtable
define linkonce_odr dso_local %"struct.std::pair.9"** @_ZN9__gnu_cxx13new_allocatorIPSt4pairIiS1_IiiEEE8allocateEmPKv(%"class.__gnu_cxx::new_allocator.13"* nonnull align 1 dereferenceable(1) %0, i64 %1, i8* %2) local_unnamed_addr #12 comdat align 2 {
  %4 = icmp ugt i64 %1, 1152921504606846975
  br i1 %4, label %5, label %9, !prof !48

5:                                                ; preds = %3
  %6 = icmp ugt i64 %1, 2305843009213693951
  br i1 %6, label %7, label %8

7:                                                ; preds = %5
  tail call void @_ZSt28__throw_bad_array_new_lengthv() #23
  unreachable

8:                                                ; preds = %5
  tail call void @_ZSt17__throw_bad_allocv() #23
  unreachable

9:                                                ; preds = %3
  %10 = shl nuw nsw i64 %1, 3
  %11 = tail call noalias nonnull i8* @_Znwm(i64 %10) #24
  %12 = bitcast i8* %11 to %"struct.std::pair.9"**
  ret %"struct.std::pair.9"** %12
}

; Function Attrs: minsize mustprogress optsize sspstrong uwtable
define linkonce_odr dso_local %"struct.std::pair.9"* @_ZNSt11_Deque_baseISt4pairIiS0_IiiEESaIS2_EE16_M_allocate_nodeEv(%"class.std::_Deque_base"* nonnull align 8 dereferenceable(80) %0) local_unnamed_addr #12 comdat align 2 {
  %2 = bitcast %"class.std::_Deque_base"* %0 to %"class.std::allocator.6"*
  %3 = tail call %"struct.std::pair.9"* @_ZNSt16allocator_traitsISaISt4pairIiS0_IiiEEEE8allocateERS3_m(%"class.std::allocator.6"* nonnull align 1 dereferenceable(1) %2, i64 42) #19
  ret %"struct.std::pair.9"* %3
}

; Function Attrs: minsize mustprogress optsize sspstrong uwtable
define linkonce_odr dso_local %"struct.std::pair.9"* @_ZNSt16allocator_traitsISaISt4pairIiS0_IiiEEEE8allocateERS3_m(%"class.std::allocator.6"* nonnull align 1 dereferenceable(1) %0, i64 %1) local_unnamed_addr #12 comdat align 2 {
  %3 = bitcast %"class.std::allocator.6"* %0 to %"class.__gnu_cxx::new_allocator.7"*
  %4 = tail call %"struct.std::pair.9"* @_ZN9__gnu_cxx13new_allocatorISt4pairIiS1_IiiEEE8allocateEmPKv(%"class.__gnu_cxx::new_allocator.7"* nonnull align 1 dereferenceable(1) %3, i64 %1, i8* null) #19
  ret %"struct.std::pair.9"* %4
}

; Function Attrs: minsize mustprogress optsize sspstrong uwtable
define linkonce_odr dso_local %"struct.std::pair.9"* @_ZN9__gnu_cxx13new_allocatorISt4pairIiS1_IiiEEE8allocateEmPKv(%"class.__gnu_cxx::new_allocator.7"* nonnull align 1 dereferenceable(1) %0, i64 %1, i8* %2) local_unnamed_addr #12 comdat align 2 {
  %4 = icmp ugt i64 %1, 768614336404564650
  br i1 %4, label %5, label %9, !prof !48

5:                                                ; preds = %3
  %6 = icmp ugt i64 %1, 1537228672809129301
  br i1 %6, label %7, label %8

7:                                                ; preds = %5
  tail call void @_ZSt28__throw_bad_array_new_lengthv() #23
  unreachable

8:                                                ; preds = %5
  tail call void @_ZSt17__throw_bad_allocv() #23
  unreachable

9:                                                ; preds = %3
  %10 = mul nuw nsw i64 %1, 12
  %11 = tail call noalias nonnull i8* @_Znwm(i64 %10) #24
  %12 = bitcast i8* %11 to %"struct.std::pair.9"*
  ret %"struct.std::pair.9"* %12
}

; Function Attrs: minsize mustprogress optsize sspstrong uwtable
define linkonce_odr dso_local void @_ZNSt5dequeISt4pairIiS0_IiiEESaIS2_EE12emplace_backIJS2_EEEvDpOT_(%"class.std::deque"* nonnull align 8 dereferenceable(80) %0, %"struct.std::pair.9"* nonnull align 4 dereferenceable(12) %1) local_unnamed_addr #12 comdat align 2 {
  %3 = getelementptr inbounds %"class.std::deque", %"class.std::deque"* %0, i64 0, i32 0, i32 0, i32 0, i32 3, i32 0
  %4 = load %"struct.std::pair.9"*, %"struct.std::pair.9"** %3, align 8, !tbaa !54
  %5 = getelementptr inbounds %"class.std::deque", %"class.std::deque"* %0, i64 0, i32 0, i32 0, i32 0, i32 3, i32 2
  %6 = load %"struct.std::pair.9"*, %"struct.std::pair.9"** %5, align 8, !tbaa !56
  %7 = getelementptr inbounds %"struct.std::pair.9", %"struct.std::pair.9"* %6, i64 -1
  %8 = icmp eq %"struct.std::pair.9"* %4, %7
  br i1 %8, label %14, label %9

9:                                                ; preds = %2
  %10 = bitcast %"struct.std::pair.9"* %4 to i8*
  %11 = bitcast %"struct.std::pair.9"* %1 to i8*
  tail call void @llvm.memcpy.p0i8.p0i8.i64(i8* noundef nonnull align 4 dereferenceable(12) %10, i8* noundef nonnull align 4 dereferenceable(12) %11, i64 12, i1 false) #18
  %12 = load %"struct.std::pair.9"*, %"struct.std::pair.9"** %3, align 8, !tbaa !54
  %13 = getelementptr inbounds %"struct.std::pair.9", %"struct.std::pair.9"* %12, i64 1
  store %"struct.std::pair.9"* %13, %"struct.std::pair.9"** %3, align 8, !tbaa !54
  br label %15

14:                                               ; preds = %2
  tail call void @_ZNSt5dequeISt4pairIiS0_IiiEESaIS2_EE16_M_push_back_auxIJS2_EEEvDpOT_(%"class.std::deque"* nonnull align 8 dereferenceable(80) %0, %"struct.std::pair.9"* nonnull align 4 dereferenceable(12) %1) #19
  br label %15

15:                                               ; preds = %14, %9
  ret void
}

; Function Attrs: minsize mustprogress optsize sspstrong uwtable
define linkonce_odr dso_local void @_ZNSt5dequeISt4pairIiS0_IiiEESaIS2_EE16_M_push_back_auxIJS2_EEEvDpOT_(%"class.std::deque"* nonnull align 8 dereferenceable(80) %0, %"struct.std::pair.9"* nonnull align 4 dereferenceable(12) %1) local_unnamed_addr #12 comdat align 2 personality i32 (...)* @__gxx_personality_v0 {
  %3 = tail call i64 @_ZNKSt5dequeISt4pairIiS0_IiiEESaIS2_EE4sizeEv(%"class.std::deque"* nonnull align 8 dereferenceable(80) %0) #20
  %4 = icmp eq i64 %3, 768614336404564650
  br i1 %4, label %5, label %6

5:                                                ; preds = %2
  tail call void @_ZSt20__throw_length_errorPKc(i8* getelementptr inbounds ([48 x i8], [48 x i8]* @.str, i64 0, i64 0)) #23
  unreachable

6:                                                ; preds = %2
  tail call void @_ZNSt5dequeISt4pairIiS0_IiiEESaIS2_EE22_M_reserve_map_at_backEm(%"class.std::deque"* nonnull align 8 dereferenceable(80) %0, i64 1) #19
  %7 = getelementptr inbounds %"class.std::deque", %"class.std::deque"* %0, i64 0, i32 0
  %8 = tail call %"struct.std::pair.9"* @_ZNSt11_Deque_baseISt4pairIiS0_IiiEESaIS2_EE16_M_allocate_nodeEv(%"class.std::_Deque_base"* nonnull align 8 dereferenceable(80) %7) #19
  %9 = getelementptr inbounds %"class.std::deque", %"class.std::deque"* %0, i64 0, i32 0, i32 0, i32 0, i32 3
  %10 = getelementptr inbounds %"class.std::deque", %"class.std::deque"* %0, i64 0, i32 0, i32 0, i32 0, i32 3, i32 3
  %11 = load %"struct.std::pair.9"**, %"struct.std::pair.9"*** %10, align 8, !tbaa !37
  %12 = getelementptr inbounds %"struct.std::pair.9"*, %"struct.std::pair.9"** %11, i64 1
  store %"struct.std::pair.9"* %8, %"struct.std::pair.9"** %12, align 8, !tbaa !38
  %13 = getelementptr inbounds %"struct.std::_Deque_iterator", %"struct.std::_Deque_iterator"* %9, i64 0, i32 0
  %14 = bitcast %"struct.std::_Deque_iterator"* %9 to i8**
  %15 = load i8*, i8** %14, align 8, !tbaa !54
  %16 = bitcast %"struct.std::pair.9"* %1 to i8*
  tail call void @llvm.memcpy.p0i8.p0i8.i64(i8* noundef nonnull align 4 dereferenceable(12) %15, i8* noundef nonnull align 4 dereferenceable(12) %16, i64 12, i1 false) #18
  %17 = load %"struct.std::pair.9"**, %"struct.std::pair.9"*** %10, align 8, !tbaa !37
  %18 = getelementptr inbounds %"struct.std::pair.9"*, %"struct.std::pair.9"** %17, i64 1
  store %"struct.std::pair.9"** %18, %"struct.std::pair.9"*** %10, align 8, !tbaa !50
  %19 = load %"struct.std::pair.9"*, %"struct.std::pair.9"** %18, align 8, !tbaa !38
  %20 = getelementptr inbounds %"class.std::deque", %"class.std::deque"* %0, i64 0, i32 0, i32 0, i32 0, i32 3, i32 1
  store %"struct.std::pair.9"* %19, %"struct.std::pair.9"** %20, align 8, !tbaa !51
  %21 = getelementptr inbounds %"struct.std::pair.9", %"struct.std::pair.9"* %19, i64 42
  %22 = getelementptr inbounds %"class.std::deque", %"class.std::deque"* %0, i64 0, i32 0, i32 0, i32 0, i32 3, i32 2
  store %"struct.std::pair.9"* %21, %"struct.std::pair.9"** %22, align 8, !tbaa !52
  store %"struct.std::pair.9"* %19, %"struct.std::pair.9"** %13, align 8, !tbaa !54
  ret void
}

; Function Attrs: minsize mustprogress nounwind optsize sspstrong uwtable
define linkonce_odr dso_local i64 @_ZNKSt5dequeISt4pairIiS0_IiiEESaIS2_EE4sizeEv(%"class.std::deque"* nonnull align 8 dereferenceable(80) %0) local_unnamed_addr #10 comdat align 2 {
  %2 = getelementptr inbounds %"class.std::deque", %"class.std::deque"* %0, i64 0, i32 0, i32 0, i32 0, i32 3
  %3 = getelementptr inbounds %"class.std::deque", %"class.std::deque"* %0, i64 0, i32 0, i32 0, i32 0, i32 2
  %4 = tail call i64 @_ZStmiRKSt15_Deque_iteratorISt4pairIiS0_IiiEERS2_PS2_ES7_(%"struct.std::_Deque_iterator"* nonnull align 8 dereferenceable(32) %2, %"struct.std::_Deque_iterator"* nonnull align 8 dereferenceable(32) %3) #20
  ret i64 %4
}

; Function Attrs: minsize noreturn optsize
declare void @_ZSt20__throw_length_errorPKc(i8*) local_unnamed_addr #15

; Function Attrs: minsize mustprogress optsize sspstrong uwtable
define linkonce_odr dso_local void @_ZNSt5dequeISt4pairIiS0_IiiEESaIS2_EE22_M_reserve_map_at_backEm(%"class.std::deque"* nonnull align 8 dereferenceable(80) %0, i64 %1) local_unnamed_addr #12 comdat align 2 {
  %3 = add i64 %1, 1
  %4 = getelementptr inbounds %"class.std::deque", %"class.std::deque"* %0, i64 0, i32 0, i32 0, i32 0, i32 1
  %5 = load i64, i64* %4, align 8, !tbaa !49
  %6 = getelementptr inbounds %"class.std::deque", %"class.std::deque"* %0, i64 0, i32 0, i32 0, i32 0, i32 3, i32 3
  %7 = load %"struct.std::pair.9"**, %"struct.std::pair.9"*** %6, align 8, !tbaa !37
  %8 = getelementptr inbounds %"class.std::deque", %"class.std::deque"* %0, i64 0, i32 0, i32 0, i32 0, i32 0
  %9 = load %"struct.std::pair.9"**, %"struct.std::pair.9"*** %8, align 8, !tbaa !34
  %10 = ptrtoint %"struct.std::pair.9"** %7 to i64
  %11 = ptrtoint %"struct.std::pair.9"** %9 to i64
  %12 = sub i64 %10, %11
  %13 = ashr exact i64 %12, 3
  %14 = sub i64 %5, %13
  %15 = icmp ugt i64 %3, %14
  br i1 %15, label %16, label %17

16:                                               ; preds = %2
  tail call void @_ZNSt5dequeISt4pairIiS0_IiiEESaIS2_EE17_M_reallocate_mapEmb(%"class.std::deque"* nonnull align 8 dereferenceable(80) %0, i64 %1, i1 zeroext false) #19
  br label %17

17:                                               ; preds = %16, %2
  ret void
}

; Function Attrs: minsize mustprogress nounwind optsize sspstrong uwtable
define linkonce_odr dso_local i64 @_ZStmiRKSt15_Deque_iteratorISt4pairIiS0_IiiEERS2_PS2_ES7_(%"struct.std::_Deque_iterator"* nonnull align 8 dereferenceable(32) %0, %"struct.std::_Deque_iterator"* nonnull align 8 dereferenceable(32) %1) local_unnamed_addr #10 comdat {
  %3 = getelementptr inbounds %"struct.std::_Deque_iterator", %"struct.std::_Deque_iterator"* %0, i64 0, i32 3
  %4 = load %"struct.std::pair.9"**, %"struct.std::pair.9"*** %3, align 8, !tbaa !50
  %5 = getelementptr inbounds %"struct.std::_Deque_iterator", %"struct.std::_Deque_iterator"* %1, i64 0, i32 3
  %6 = load %"struct.std::pair.9"**, %"struct.std::pair.9"*** %5, align 8, !tbaa !50
  %7 = ptrtoint %"struct.std::pair.9"** %4 to i64
  %8 = ptrtoint %"struct.std::pair.9"** %6 to i64
  %9 = sub i64 %7, %8
  %10 = ashr exact i64 %9, 3
  %11 = icmp ne %"struct.std::pair.9"** %4, null
  %12 = sext i1 %11 to i64
  %13 = add nsw i64 %10, %12
  %14 = mul nsw i64 %13, 42
  %15 = getelementptr inbounds %"struct.std::_Deque_iterator", %"struct.std::_Deque_iterator"* %0, i64 0, i32 0
  %16 = load %"struct.std::pair.9"*, %"struct.std::pair.9"** %15, align 8, !tbaa !26
  %17 = getelementptr inbounds %"struct.std::_Deque_iterator", %"struct.std::_Deque_iterator"* %0, i64 0, i32 1
  %18 = load %"struct.std::pair.9"*, %"struct.std::pair.9"** %17, align 8, !tbaa !51
  %19 = ptrtoint %"struct.std::pair.9"* %16 to i64
  %20 = ptrtoint %"struct.std::pair.9"* %18 to i64
  %21 = sub i64 %19, %20
  %22 = sdiv exact i64 %21, 12
  %23 = add nsw i64 %14, %22
  %24 = getelementptr inbounds %"struct.std::_Deque_iterator", %"struct.std::_Deque_iterator"* %1, i64 0, i32 2
  %25 = load %"struct.std::pair.9"*, %"struct.std::pair.9"** %24, align 8, !tbaa !52
  %26 = getelementptr inbounds %"struct.std::_Deque_iterator", %"struct.std::_Deque_iterator"* %1, i64 0, i32 0
  %27 = load %"struct.std::pair.9"*, %"struct.std::pair.9"** %26, align 8, !tbaa !26
  %28 = ptrtoint %"struct.std::pair.9"* %25 to i64
  %29 = ptrtoint %"struct.std::pair.9"* %27 to i64
  %30 = sub i64 %28, %29
  %31 = sdiv exact i64 %30, 12
  %32 = add nsw i64 %23, %31
  ret i64 %32
}

; Function Attrs: minsize optsize sspstrong uwtable
define linkonce_odr dso_local void @_ZNSt5dequeISt4pairIiS0_IiiEESaIS2_EE17_M_reallocate_mapEmb(%"class.std::deque"* nonnull align 8 dereferenceable(80) %0, i64 %1, i1 zeroext %2) local_unnamed_addr #5 comdat align 2 personality i32 (...)* @__gxx_personality_v0 {
  %4 = getelementptr inbounds %"class.std::deque", %"class.std::deque"* %0, i64 0, i32 0, i32 0, i32 0, i32 3, i32 3
  %5 = load %"struct.std::pair.9"**, %"struct.std::pair.9"*** %4, align 8, !tbaa !37
  %6 = getelementptr inbounds %"class.std::deque", %"class.std::deque"* %0, i64 0, i32 0, i32 0, i32 0, i32 2, i32 3
  %7 = load %"struct.std::pair.9"**, %"struct.std::pair.9"*** %6, align 8, !tbaa !36
  %8 = ptrtoint %"struct.std::pair.9"** %5 to i64
  %9 = ptrtoint %"struct.std::pair.9"** %7 to i64
  %10 = sub i64 %8, %9
  %11 = ashr exact i64 %10, 3
  %12 = add nsw i64 %11, 1
  %13 = add i64 %12, %1
  %14 = getelementptr inbounds %"class.std::deque", %"class.std::deque"* %0, i64 0, i32 0, i32 0, i32 0, i32 1
  %15 = load i64, i64* %14, align 8, !tbaa !49
  %16 = shl i64 %13, 1
  %17 = icmp ugt i64 %15, %16
  br i1 %17, label %18, label %42

18:                                               ; preds = %3
  %19 = getelementptr inbounds %"class.std::deque", %"class.std::deque"* %0, i64 0, i32 0, i32 0, i32 0, i32 0
  %20 = load %"struct.std::pair.9"**, %"struct.std::pair.9"*** %19, align 8, !tbaa !34
  %21 = sub i64 %15, %13
  %22 = lshr i64 %21, 1
  %23 = select i1 %2, i64 %1, i64 0
  %24 = add nsw i64 %22, %23
  %25 = getelementptr inbounds %"struct.std::pair.9"*, %"struct.std::pair.9"** %20, i64 %24
  %26 = icmp ult %"struct.std::pair.9"** %25, %7
  %27 = getelementptr inbounds %"struct.std::pair.9"*, %"struct.std::pair.9"** %5, i64 1
  %28 = ptrtoint %"struct.std::pair.9"** %27 to i64
  %29 = sub i64 %28, %9
  %30 = icmp eq i64 %29, 0
  br i1 %26, label %31, label %35

31:                                               ; preds = %18
  br i1 %30, label %68, label %32

32:                                               ; preds = %31
  %33 = bitcast %"struct.std::pair.9"** %25 to i8*
  %34 = bitcast %"struct.std::pair.9"** %7 to i8*
  tail call void @llvm.memmove.p0i8.p0i8.i64(i8* align 8 %33, i8* nonnull align 8 %34, i64 %29, i1 false) #18
  br label %68

35:                                               ; preds = %18
  br i1 %30, label %68, label %36

36:                                               ; preds = %35
  %37 = ashr exact i64 %29, 3
  %38 = sub nsw i64 %12, %37
  %39 = getelementptr inbounds %"struct.std::pair.9"*, %"struct.std::pair.9"** %25, i64 %38
  %40 = bitcast %"struct.std::pair.9"** %39 to i8*
  %41 = bitcast %"struct.std::pair.9"** %7 to i8*
  tail call void @llvm.memmove.p0i8.p0i8.i64(i8* align 8 %40, i8* align 8 %41, i64 %29, i1 false) #18
  br label %68

42:                                               ; preds = %3
  %43 = getelementptr inbounds %"class.std::deque", %"class.std::deque"* %0, i64 0, i32 0
  %44 = icmp ult i64 %15, %1
  %45 = select i1 %44, i64 %1, i64 %15
  %46 = add i64 %15, 2
  %47 = add i64 %46, %45
  %48 = tail call %"struct.std::pair.9"** @_ZNSt11_Deque_baseISt4pairIiS0_IiiEESaIS2_EE15_M_allocate_mapEm(%"class.std::_Deque_base"* nonnull align 8 dereferenceable(80) %43, i64 %47) #19
  %49 = sub i64 %47, %13
  %50 = lshr i64 %49, 1
  %51 = select i1 %2, i64 %1, i64 0
  %52 = add nsw i64 %50, %51
  %53 = getelementptr inbounds %"struct.std::pair.9"*, %"struct.std::pair.9"** %48, i64 %52
  %54 = load %"struct.std::pair.9"**, %"struct.std::pair.9"*** %6, align 8, !tbaa !36
  %55 = load %"struct.std::pair.9"**, %"struct.std::pair.9"*** %4, align 8, !tbaa !37
  %56 = getelementptr inbounds %"struct.std::pair.9"*, %"struct.std::pair.9"** %55, i64 1
  %57 = ptrtoint %"struct.std::pair.9"** %56 to i64
  %58 = ptrtoint %"struct.std::pair.9"** %54 to i64
  %59 = sub i64 %57, %58
  %60 = icmp eq i64 %59, 0
  br i1 %60, label %64, label %61

61:                                               ; preds = %42
  %62 = bitcast %"struct.std::pair.9"** %53 to i8*
  %63 = bitcast %"struct.std::pair.9"** %54 to i8*
  tail call void @llvm.memmove.p0i8.p0i8.i64(i8* align 8 %62, i8* align 8 %63, i64 %59, i1 false) #18
  br label %64

64:                                               ; preds = %42, %61
  %65 = getelementptr inbounds %"class.std::deque", %"class.std::deque"* %0, i64 0, i32 0, i32 0, i32 0, i32 0
  %66 = bitcast %"class.std::deque"* %0 to i8**
  %67 = load i8*, i8** %66, align 8, !tbaa !34
  tail call void @_ZdlPv(i8* %67) #20
  store %"struct.std::pair.9"** %48, %"struct.std::pair.9"*** %65, align 8, !tbaa !34
  store i64 %47, i64* %14, align 8, !tbaa !49
  br label %68

68:                                               ; preds = %32, %31, %36, %35, %64
  %69 = phi %"struct.std::pair.9"** [ %53, %64 ], [ %25, %35 ], [ %25, %36 ], [ %25, %31 ], [ %25, %32 ]
  store %"struct.std::pair.9"** %69, %"struct.std::pair.9"*** %6, align 8, !tbaa !50
  %70 = load %"struct.std::pair.9"*, %"struct.std::pair.9"** %69, align 8, !tbaa !38
  %71 = getelementptr inbounds %"class.std::deque", %"class.std::deque"* %0, i64 0, i32 0, i32 0, i32 0, i32 2, i32 1
  store %"struct.std::pair.9"* %70, %"struct.std::pair.9"** %71, align 8, !tbaa !51
  %72 = getelementptr inbounds %"struct.std::pair.9", %"struct.std::pair.9"* %70, i64 42
  %73 = getelementptr inbounds %"class.std::deque", %"class.std::deque"* %0, i64 0, i32 0, i32 0, i32 0, i32 2, i32 2
  store %"struct.std::pair.9"* %72, %"struct.std::pair.9"** %73, align 8, !tbaa !52
  %74 = getelementptr inbounds %"struct.std::pair.9"*, %"struct.std::pair.9"** %69, i64 %11
  store %"struct.std::pair.9"** %74, %"struct.std::pair.9"*** %4, align 8, !tbaa !50
  %75 = load %"struct.std::pair.9"*, %"struct.std::pair.9"** %74, align 8, !tbaa !38
  %76 = getelementptr inbounds %"class.std::deque", %"class.std::deque"* %0, i64 0, i32 0, i32 0, i32 0, i32 3, i32 1
  store %"struct.std::pair.9"* %75, %"struct.std::pair.9"** %76, align 8, !tbaa !51
  %77 = getelementptr inbounds %"struct.std::pair.9", %"struct.std::pair.9"* %75, i64 42
  %78 = getelementptr inbounds %"class.std::deque", %"class.std::deque"* %0, i64 0, i32 0, i32 0, i32 0, i32 3, i32 2
  store %"struct.std::pair.9"* %77, %"struct.std::pair.9"** %78, align 8, !tbaa !52
  ret void
}

; Function Attrs: argmemonly mustprogress nofree nounwind willreturn
declare void @llvm.memmove.p0i8.p0i8.i64(i8* nocapture writeonly, i8* nocapture readonly, i64, i1 immarg) #6

; Function Attrs: minsize mustprogress nounwind optsize sspstrong uwtable
define linkonce_odr dso_local void @_ZNSt5dequeISt4pairIiS0_IiiEESaIS2_EE9pop_frontEv(%"class.std::deque"* nonnull align 8 dereferenceable(80) %0) local_unnamed_addr #10 comdat align 2 personality i8* bitcast (i32 (...)* @__gxx_personality_v0 to i8*) {
  %2 = getelementptr inbounds %"class.std::deque", %"class.std::deque"* %0, i64 0, i32 0, i32 0, i32 0, i32 2, i32 0
  %3 = load %"struct.std::pair.9"*, %"struct.std::pair.9"** %2, align 8, !tbaa !53
  %4 = getelementptr inbounds %"class.std::deque", %"class.std::deque"* %0, i64 0, i32 0, i32 0, i32 0, i32 2, i32 2
  %5 = load %"struct.std::pair.9"*, %"struct.std::pair.9"** %4, align 8, !tbaa !57
  %6 = getelementptr inbounds %"struct.std::pair.9", %"struct.std::pair.9"* %5, i64 -1
  %7 = icmp eq %"struct.std::pair.9"* %3, %6
  br i1 %7, label %10, label %8

8:                                                ; preds = %1
  %9 = getelementptr inbounds %"struct.std::pair.9", %"struct.std::pair.9"* %3, i64 1
  store %"struct.std::pair.9"* %9, %"struct.std::pair.9"** %2, align 8, !tbaa !53
  br label %11

10:                                               ; preds = %1
  tail call void @_ZNSt5dequeISt4pairIiS0_IiiEESaIS2_EE16_M_pop_front_auxEv(%"class.std::deque"* nonnull align 8 dereferenceable(80) %0) #19
  br label %11

11:                                               ; preds = %10, %8
  ret void
}

; Function Attrs: minsize mustprogress nounwind optsize sspstrong uwtable
define linkonce_odr dso_local void @_ZNSt5dequeISt4pairIiS0_IiiEESaIS2_EE16_M_pop_front_auxEv(%"class.std::deque"* nonnull align 8 dereferenceable(80) %0) local_unnamed_addr #10 comdat align 2 personality i32 (...)* @__gxx_personality_v0 {
  %2 = getelementptr inbounds %"class.std::deque", %"class.std::deque"* %0, i64 0, i32 0, i32 0, i32 0, i32 2, i32 0
  %3 = getelementptr inbounds %"class.std::deque", %"class.std::deque"* %0, i64 0, i32 0, i32 0, i32 0, i32 2, i32 1
  %4 = bitcast %"struct.std::pair.9"** %3 to i8**
  %5 = load i8*, i8** %4, align 8, !tbaa !58
  tail call void @_ZdlPv(i8* %5) #20
  %6 = getelementptr inbounds %"class.std::deque", %"class.std::deque"* %0, i64 0, i32 0, i32 0, i32 0, i32 2, i32 3
  %7 = load %"struct.std::pair.9"**, %"struct.std::pair.9"*** %6, align 8, !tbaa !36
  %8 = getelementptr inbounds %"struct.std::pair.9"*, %"struct.std::pair.9"** %7, i64 1
  store %"struct.std::pair.9"** %8, %"struct.std::pair.9"*** %6, align 8, !tbaa !50
  %9 = load %"struct.std::pair.9"*, %"struct.std::pair.9"** %8, align 8, !tbaa !38
  store %"struct.std::pair.9"* %9, %"struct.std::pair.9"** %3, align 8, !tbaa !51
  %10 = getelementptr inbounds %"struct.std::pair.9", %"struct.std::pair.9"* %9, i64 42
  %11 = getelementptr inbounds %"class.std::deque", %"class.std::deque"* %0, i64 0, i32 0, i32 0, i32 0, i32 2, i32 2
  store %"struct.std::pair.9"* %10, %"struct.std::pair.9"** %11, align 8, !tbaa !52
  store %"struct.std::pair.9"* %9, %"struct.std::pair.9"** %2, align 8, !tbaa !53
  ret void
}

; Function Attrs: minsize optsize sspstrong uwtable
define linkonce_odr dso_local %"struct.std::_Rb_tree_node_base"* @_ZNSt8_Rb_treeISt4pairIS0_IiiES1_ES2_St9_IdentityIS2_ESt4lessIS2_ESaIS2_EE4findERKS2_(%"class.std::_Rb_tree"* nonnull align 8 dereferenceable(48) %0, %"struct.std::pair.0"* nonnull align 4 dereferenceable(16) %1) local_unnamed_addr #5 comdat align 2 {
  %3 = getelementptr inbounds %"class.std::_Rb_tree", %"class.std::_Rb_tree"* %0, i64 0, i32 0, i32 0, i32 0, i32 0
  %4 = getelementptr inbounds i8, i8* %3, i64 16
  %5 = bitcast i8* %4 to %"struct.std::_Rb_tree_node"**
  %6 = load %"struct.std::_Rb_tree_node"*, %"struct.std::_Rb_tree_node"** %5, align 8, !tbaa !15
  %7 = getelementptr inbounds i8, i8* %3, i64 8
  %8 = bitcast i8* %7 to %"struct.std::_Rb_tree_node_base"*
  %9 = tail call %"struct.std::_Rb_tree_node_base"* @_ZNSt8_Rb_treeISt4pairIS0_IiiES1_ES2_St9_IdentityIS2_ESt4lessIS2_ESaIS2_EE14_M_lower_boundEPSt13_Rb_tree_nodeIS2_EPSt18_Rb_tree_node_baseRKS2_(%"class.std::_Rb_tree"* nonnull align 8 dereferenceable(48) %0, %"struct.std::_Rb_tree_node"* %6, %"struct.std::_Rb_tree_node_base"* nonnull %8, %"struct.std::pair.0"* nonnull align 4 dereferenceable(16) %1) #19
  %10 = icmp eq %"struct.std::_Rb_tree_node_base"* %9, %8
  br i1 %10, label %16, label %11

11:                                               ; preds = %2
  %12 = getelementptr inbounds %"struct.std::_Rb_tree_node_base", %"struct.std::_Rb_tree_node_base"* %9, i64 1
  %13 = bitcast %"struct.std::_Rb_tree_node_base"* %12 to %"struct.std::pair.0"*
  %14 = tail call zeroext i1 @_ZStltISt4pairIiiES1_EbRKS0_IT_T0_ES6_(%"struct.std::pair.0"* nonnull align 4 dereferenceable(16) %1, %"struct.std::pair.0"* nonnull align 4 dereferenceable(16) %13) #19
  %15 = select i1 %14, %"struct.std::_Rb_tree_node_base"* %8, %"struct.std::_Rb_tree_node_base"* %9
  br label %16

16:                                               ; preds = %11, %2
  %17 = phi %"struct.std::_Rb_tree_node_base"* [ %8, %2 ], [ %15, %11 ]
  ret %"struct.std::_Rb_tree_node_base"* %17
}

; Function Attrs: minsize optsize sspstrong uwtable
define linkonce_odr dso_local %"struct.std::_Rb_tree_node_base"* @_ZNSt8_Rb_treeISt4pairIS0_IiiES1_ES2_St9_IdentityIS2_ESt4lessIS2_ESaIS2_EE14_M_lower_boundEPSt13_Rb_tree_nodeIS2_EPSt18_Rb_tree_node_baseRKS2_(%"class.std::_Rb_tree"* nonnull align 8 dereferenceable(48) %0, %"struct.std::_Rb_tree_node"* %1, %"struct.std::_Rb_tree_node_base"* %2, %"struct.std::pair.0"* nonnull align 4 dereferenceable(16) %3) local_unnamed_addr #5 comdat align 2 {
  br label %5

5:                                                ; preds = %9, %4
  %6 = phi %"struct.std::_Rb_tree_node_base"* [ %2, %4 ], [ %16, %9 ]
  %7 = phi %"struct.std::_Rb_tree_node"* [ %1, %4 ], [ %19, %9 ]
  %8 = icmp eq %"struct.std::_Rb_tree_node"* %7, null
  br i1 %8, label %20, label %9

9:                                                ; preds = %5
  %10 = getelementptr inbounds %"struct.std::_Rb_tree_node", %"struct.std::_Rb_tree_node"* %7, i64 0, i32 1
  %11 = bitcast %"struct.__gnu_cxx::__aligned_membuf"* %10 to %"struct.std::pair.0"*
  %12 = tail call zeroext i1 @_ZStltISt4pairIiiES1_EbRKS0_IT_T0_ES6_(%"struct.std::pair.0"* nonnull align 4 dereferenceable(16) %11, %"struct.std::pair.0"* nonnull align 4 dereferenceable(16) %3) #19
  %13 = getelementptr inbounds %"struct.std::_Rb_tree_node", %"struct.std::_Rb_tree_node"* %7, i64 0, i32 0, i32 3
  %14 = getelementptr %"struct.std::_Rb_tree_node", %"struct.std::_Rb_tree_node"* %7, i64 0, i32 0
  %15 = getelementptr inbounds %"struct.std::_Rb_tree_node", %"struct.std::_Rb_tree_node"* %7, i64 0, i32 0, i32 2
  %16 = select i1 %12, %"struct.std::_Rb_tree_node_base"* %6, %"struct.std::_Rb_tree_node_base"* %14
  %17 = select i1 %12, %"struct.std::_Rb_tree_node_base"** %13, %"struct.std::_Rb_tree_node_base"** %15
  %18 = bitcast %"struct.std::_Rb_tree_node_base"** %17 to %"struct.std::_Rb_tree_node"**
  %19 = load %"struct.std::_Rb_tree_node"*, %"struct.std::_Rb_tree_node"** %18, align 8, !tbaa !38
  br label %5, !llvm.loop !59

20:                                               ; preds = %5
  ret %"struct.std::_Rb_tree_node_base"* %6
}

; Function Attrs: minsize optsize sspstrong uwtable
define internal void @_GLOBAL__sub_I_s428336636.cpp() #5 section ".text.startup" {
  tail call void @_ZNSt8ios_base4InitC1Ev(%"class.std::ios_base::Init"* nonnull align 1 dereferenceable(1) @_ZStL8__ioinit) #19
  %1 = tail call i32 @__cxa_atexit(void (i8*)* bitcast (void (%"class.std::ios_base::Init"*)* @_ZNSt8ios_base4InitD1Ev to void (i8*)*), i8* getelementptr inbounds (%"class.std::ios_base::Init", %"class.std::ios_base::Init"* @_ZStL8__ioinit, i64 0, i32 0), i8* nonnull @__dso_handle) #18
  ret void
}

attributes #0 = { minsize optsize "frame-pointer"="none" "no-trapping-math"="true" "stack-protector-buffer-size"="8" "target-cpu"="x86-64" "target-features"="+cx8,+fxsr,+mmx,+sse,+sse2,+x87" "tune-cpu"="generic" }
attributes #1 = { minsize nounwind optsize "frame-pointer"="none" "no-trapping-math"="true" "stack-protector-buffer-size"="8" "target-cpu"="x86-64" "target-features"="+cx8,+fxsr,+mmx,+sse,+sse2,+x87" "tune-cpu"="generic" }
attributes #2 = { nofree nounwind }
attributes #3 = { minsize norecurse optsize sspstrong uwtable "frame-pointer"="none" "min-legal-vector-width"="0" "no-trapping-math"="true" "stack-protector-buffer-size"="8" "target-cpu"="x86-64" "target-features"="+cx8,+fxsr,+mmx,+sse,+sse2,+x87" "tune-cpu"="generic" }
attributes #4 = { argmemonly mustprogress nofree nosync nounwind willreturn }
attributes #5 = { minsize optsize sspstrong uwtable "frame-pointer"="none" "min-legal-vector-width"="0" "no-trapping-math"="true" "stack-protector-buffer-size"="8" "target-cpu"="x86-64" "target-features"="+cx8,+fxsr,+mmx,+sse,+sse2,+x87" "tune-cpu"="generic" }
attributes #6 = { argmemonly mustprogress nofree nounwind willreturn }
attributes #7 = { inlinehint minsize mustprogress optsize sspstrong uwtable "frame-pointer"="none" "min-legal-vector-width"="0" "no-trapping-math"="true" "stack-protector-buffer-size"="8" "target-cpu"="x86-64" "target-features"="+cx8,+fxsr,+mmx,+sse,+sse2,+x87" "tune-cpu"="generic" }
attributes #8 = { noinline noreturn nounwind }
attributes #9 = { minsize nounwind optsize sspstrong uwtable "frame-pointer"="none" "min-legal-vector-width"="0" "no-trapping-math"="true" "stack-protector-buffer-size"="8" "target-cpu"="x86-64" "target-features"="+cx8,+fxsr,+mmx,+sse,+sse2,+x87" "tune-cpu"="generic" }
attributes #10 = { minsize mustprogress nounwind optsize sspstrong uwtable "frame-pointer"="none" "min-legal-vector-width"="0" "no-trapping-math"="true" "stack-protector-buffer-size"="8" "target-cpu"="x86-64" "target-features"="+cx8,+fxsr,+mmx,+sse,+sse2,+x87" "tune-cpu"="generic" }
attributes #11 = { minsize nobuiltin nounwind optsize "frame-pointer"="none" "no-trapping-math"="true" "stack-protector-buffer-size"="8" "target-cpu"="x86-64" "target-features"="+cx8,+fxsr,+mmx,+sse,+sse2,+x87" "tune-cpu"="generic" }
attributes #12 = { minsize mustprogress optsize sspstrong uwtable "frame-pointer"="none" "min-legal-vector-width"="0" "no-trapping-math"="true" "stack-protector-buffer-size"="8" "target-cpu"="x86-64" "target-features"="+cx8,+fxsr,+mmx,+sse,+sse2,+x87" "tune-cpu"="generic" }
attributes #13 = { inlinehint minsize mustprogress nounwind optsize sspstrong uwtable "frame-pointer"="none" "min-legal-vector-width"="0" "no-trapping-math"="true" "stack-protector-buffer-size"="8" "target-cpu"="x86-64" "target-features"="+cx8,+fxsr,+mmx,+sse,+sse2,+x87" "tune-cpu"="generic" }
attributes #14 = { minsize mustprogress nofree nounwind optsize readonly willreturn "frame-pointer"="none" "no-trapping-math"="true" "stack-protector-buffer-size"="8" "target-cpu"="x86-64" "target-features"="+cx8,+fxsr,+mmx,+sse,+sse2,+x87" "tune-cpu"="generic" }
attributes #15 = { minsize noreturn optsize "frame-pointer"="none" "no-trapping-math"="true" "stack-protector-buffer-size"="8" "target-cpu"="x86-64" "target-features"="+cx8,+fxsr,+mmx,+sse,+sse2,+x87" "tune-cpu"="generic" }
attributes #16 = { minsize nobuiltin optsize allocsize(0) "frame-pointer"="none" "no-trapping-math"="true" "stack-protector-buffer-size"="8" "target-cpu"="x86-64" "target-features"="+cx8,+fxsr,+mmx,+sse,+sse2,+x87" "tune-cpu"="generic" }
attributes #17 = { argmemonly mustprogress nofree nounwind willreturn writeonly }
attributes #18 = { nounwind }
attributes #19 = { minsize optsize }
attributes #20 = { minsize nounwind optsize }
attributes #21 = { noreturn nounwind }
attributes #22 = { minsize nounwind optsize readonly willreturn }
attributes #23 = { minsize noreturn optsize }
attributes #24 = { minsize optsize allocsize(0) }
attributes #25 = { noreturn }

!llvm.module.flags = !{!0, !1, !2, !3}
!llvm.ident = !{!4}

!0 = !{i32 1, !"wchar_size", i32 4}
!1 = !{i32 7, !"PIC Level", i32 2}
!2 = !{i32 7, !"PIE Level", i32 2}
!3 = !{i32 7, !"uwtable", i32 1}
!4 = !{!"clang version 13.0.0"}
!5 = !{!6, !6, i64 0}
!6 = !{!"int", !7, i64 0}
!7 = !{!"omnipotent char", !8, i64 0}
!8 = !{!"Simple C++ TBAA"}
!9 = !{!10, !12, i64 0}
!10 = !{!"_ZTSSt15_Rb_tree_header", !11, i64 0, !14, i64 32}
!11 = !{!"_ZTSSt18_Rb_tree_node_base", !12, i64 0, !13, i64 8, !13, i64 16, !13, i64 24}
!12 = !{!"_ZTSSt14_Rb_tree_color", !7, i64 0}
!13 = !{!"any pointer", !7, i64 0}
!14 = !{!"long", !7, i64 0}
!15 = !{!10, !13, i64 8}
!16 = !{!10, !13, i64 16}
!17 = !{!10, !13, i64 24}
!18 = !{!10, !14, i64 32}
!19 = distinct !{!19, !20}
!20 = !{!"llvm.loop.mustprogress"}
!21 = distinct !{!21, !20}
!22 = distinct !{!22, !20}
!23 = !{!24, !6, i64 0}
!24 = !{!"_ZTSSt4pairIiS_IiiEE", !6, i64 0, !25, i64 4}
!25 = !{!"_ZTSSt4pairIiiE", !6, i64 0, !6, i64 4}
!26 = !{!27, !13, i64 0}
!27 = !{!"_ZTSSt15_Deque_iteratorISt4pairIiS0_IiiEERS2_PS2_E", !13, i64 0, !13, i64 8, !13, i64 16, !13, i64 24}
!28 = !{!29}
!29 = distinct !{!29, !30, !"_ZNSt5dequeISt4pairIiS0_IiiEESaIS2_EE5beginEv: argument 0"}
!30 = distinct !{!30, !"_ZNSt5dequeISt4pairIiS0_IiiEESaIS2_EE5beginEv"}
!31 = distinct !{!31, !20}
!32 = distinct !{!32, !20}
!33 = distinct !{!33, !20}
!34 = !{!35, !13, i64 0}
!35 = !{!"_ZTSNSt11_Deque_baseISt4pairIiS0_IiiEESaIS2_EE16_Deque_impl_dataE", !13, i64 0, !14, i64 8, !27, i64 16, !27, i64 48}
!36 = !{!35, !13, i64 40}
!37 = !{!35, !13, i64 72}
!38 = !{!13, !13, i64 0}
!39 = distinct !{!39, !20}
!40 = !{!11, !13, i64 24}
!41 = !{!11, !13, i64 16}
!42 = distinct !{!42, !20}
!43 = distinct !{!43, !20}
!44 = !{!25, !6, i64 0}
!45 = !{!25, !6, i64 4}
!46 = !{!47, !13, i64 0}
!47 = !{!"_ZTSNSt8_Rb_treeISt4pairIS0_IiiES1_ES2_St9_IdentityIS2_ESt4lessIS2_ESaIS2_EE11_Alloc_nodeE", !13, i64 0}
!48 = !{!"branch_weights", i32 1, i32 2000}
!49 = !{!35, !14, i64 8}
!50 = !{!27, !13, i64 24}
!51 = !{!27, !13, i64 8}
!52 = !{!27, !13, i64 16}
!53 = !{!35, !13, i64 16}
!54 = !{!35, !13, i64 48}
!55 = distinct !{!55, !20}
!56 = !{!35, !13, i64 64}
!57 = !{!35, !13, i64 32}
!58 = !{!35, !13, i64 24}
!59 = distinct !{!59, !20}
