; ModuleID = 'Project_CodeNet_C++1400/p03805/s553685810.cpp'
source_filename = "Project_CodeNet_C++1400/p03805/s553685810.cpp"
target datalayout = "e-m:e-i64:64-f80:128-n8:16:32:64-S128"
target triple = "x86_64-unknown-linux-gnu"

%"class.std::ios_base::Init" = type { i8 }
%"class.std::basic_istream" = type { i32 (...)**, i64, %"class.std::basic_ios" }
%"class.std::basic_ios" = type { %"class.std::ios_base", %"class.std::basic_ostream"*, i8, i8, %"class.std::basic_streambuf"*, %"class.std::ctype"*, %"class.std::num_put"*, %"class.std::num_get"* }
%"class.std::ios_base" = type { i32 (...)**, i64, i64, i32, i32, i32, %"struct.std::ios_base::_Callback_list"*, %"struct.std::ios_base::_Words", [8 x %"struct.std::ios_base::_Words"], i32, %"struct.std::ios_base::_Words"*, %"class.std::locale" }
%"struct.std::ios_base::_Callback_list" = type { %"struct.std::ios_base::_Callback_list"*, void (i32, %"class.std::ios_base"*, i32)*, i32, i32 }
%"struct.std::ios_base::_Words" = type { i8*, i64 }
%"class.std::locale" = type { %"class.std::locale::_Impl"* }
%"class.std::locale::_Impl" = type { i32, %"class.std::locale::facet"**, i64, %"class.std::locale::facet"**, i8** }
%"class.std::locale::facet" = type <{ i32 (...)**, i32, [4 x i8] }>
%"class.std::basic_ostream" = type { i32 (...)**, %"class.std::basic_ios" }
%"class.std::basic_streambuf" = type { i32 (...)**, i8*, i8*, i8*, i8*, i8*, i8*, %"class.std::locale" }
%"class.std::ctype" = type <{ %"class.std::locale::facet.base", [4 x i8], %struct.__locale_struct*, i8, [7 x i8], i32*, i32*, i16*, i8, [256 x i8], [256 x i8], i8, [6 x i8] }>
%"class.std::locale::facet.base" = type <{ i32 (...)**, i32 }>
%struct.__locale_struct = type { [13 x %struct.__locale_data*], i16*, i32*, i32*, [13 x i8*] }
%struct.__locale_data = type opaque
%"class.std::num_put" = type { %"class.std::locale::facet.base", [4 x i8] }
%"class.std::num_get" = type { %"class.std::locale::facet.base", [4 x i8] }

@_ZStL8__ioinit = internal global %"class.std::ios_base::Init" zeroinitializer, align 1
@__dso_handle = external global i8
@graph = global [8 x [8 x i32]] zeroinitializer, align 16
@_ZSt3cin = external global %"class.std::basic_istream", align 8
@_ZSt4cout = external global %"class.std::basic_ostream", align 8
@llvm.global_ctors = appending global [1 x { i32, void ()*, i8* }] [{ i32, void ()*, i8* } { i32 65535, void ()* @_GLOBAL__sub_I_s553685810.cpp, i8* null }]
@x = common global i32 0
@y = common global i32 0
@x.1 = common global i32 0
@y.2 = common global i32 0
@x.3 = common global i32 0
@y.4 = common global i32 0
@x.5 = common global i32 0
@y.6 = common global i32 0
@x.7 = common global i32 0
@y.8 = common global i32 0
@x.9 = common global i32 0
@y.10 = common global i32 0

; Function Attrs: noinline uwtable
define internal void @__cxx_global_var_init() #0 section ".text.startup" {
  call void @_ZNSt8ios_base4InitC1Ev(%"class.std::ios_base::Init"* @_ZStL8__ioinit)
  %1 = call i32 @__cxa_atexit(void (i8*)* bitcast (void (%"class.std::ios_base::Init"*)* @_ZNSt8ios_base4InitD1Ev to void (i8*)*), i8* getelementptr inbounds (%"class.std::ios_base::Init", %"class.std::ios_base::Init"* @_ZStL8__ioinit, i32 0, i32 0), i8* @__dso_handle) #3
  ret void
}

declare void @_ZNSt8ios_base4InitC1Ev(%"class.std::ios_base::Init"*) unnamed_addr #1

; Function Attrs: nounwind
declare void @_ZNSt8ios_base4InitD1Ev(%"class.std::ios_base::Init"*) unnamed_addr #2

; Function Attrs: nounwind
declare i32 @__cxa_atexit(void (i8*)*, i8*, i8*) #3

; Function Attrs: noinline nounwind uwtable
define zeroext i1 @_Z2PNi(i32) #4 {
  %2 = load i32, i32* @x.1
  %3 = load i32, i32* @y.2
  %4 = sub i32 %2, 1
  %5 = mul i32 %2, %4
  %6 = urem i32 %5, 2
  %7 = icmp eq i32 %6, 0
  %8 = icmp slt i32 %3, 10
  %9 = or i1 %7, %8
  br i1 %9, label %10, label %142

; <label>:10:                                     ; preds = %1, %142
  %11 = alloca i1, align 1
  %12 = alloca i32, align 4
  %13 = alloca i32, align 4
  store i32 %0, i32* %12, align 4
  %14 = load i32, i32* %12, align 4
  %15 = icmp sle i32 %14, 1
  %16 = load i32, i32* @x.1
  %17 = load i32, i32* @y.2
  %18 = sub i32 %16, 1
  %19 = mul i32 %16, %18
  %20 = urem i32 %19, 2
  %21 = icmp eq i32 %20, 0
  %22 = icmp slt i32 %17, 10
  %23 = or i1 %21, %22
  br i1 %23, label %24, label %142

; <label>:24:                                     ; preds = %10
  br i1 %15, label %25, label %26

; <label>:25:                                     ; preds = %24
  store i1 false, i1* %11, align 1
  br label %140

; <label>:26:                                     ; preds = %24
  %27 = load i32, i32* @x.1
  %28 = load i32, i32* @y.2
  %29 = sub i32 %27, 1
  %30 = mul i32 %27, %29
  %31 = urem i32 %30, 2
  %32 = icmp eq i32 %31, 0
  %33 = icmp slt i32 %28, 10
  %34 = or i1 %32, %33
  br i1 %34, label %35, label %148

; <label>:35:                                     ; preds = %26, %148
  %36 = load i32, i32* %12, align 4
  %37 = icmp eq i32 %36, 2
  %38 = load i32, i32* @x.1
  %39 = load i32, i32* @y.2
  %40 = sub i32 %38, 1
  %41 = mul i32 %38, %40
  %42 = urem i32 %41, 2
  %43 = icmp eq i32 %42, 0
  %44 = icmp slt i32 %39, 10
  %45 = or i1 %43, %44
  br i1 %45, label %46, label %148

; <label>:46:                                     ; preds = %35
  br i1 %37, label %47, label %66

; <label>:47:                                     ; preds = %46
  %48 = load i32, i32* @x.1
  %49 = load i32, i32* @y.2
  %50 = sub i32 %48, 1
  %51 = mul i32 %48, %50
  %52 = urem i32 %51, 2
  %53 = icmp eq i32 %52, 0
  %54 = icmp slt i32 %49, 10
  %55 = or i1 %53, %54
  br i1 %55, label %56, label %151

; <label>:56:                                     ; preds = %47, %151
  store i1 true, i1* %11, align 1
  %57 = load i32, i32* @x.1
  %58 = load i32, i32* @y.2
  %59 = sub i32 %57, 1
  %60 = mul i32 %57, %59
  %61 = urem i32 %60, 2
  %62 = icmp eq i32 %61, 0
  %63 = icmp slt i32 %58, 10
  %64 = or i1 %62, %63
  br i1 %64, label %65, label %151

; <label>:65:                                     ; preds = %56
  br label %140

; <label>:66:                                     ; preds = %46
  store i32 2, i32* %13, align 4
  br label %67

; <label>:67:                                     ; preds = %120, %66
  %68 = load i32, i32* %13, align 4
  %69 = sitofp i32 %68 to double
  %70 = load i32, i32* %12, align 4
  %71 = sitofp i32 %70 to double
  %72 = call double @sqrt(double %71) #3
  %73 = fadd double %72, 1.000000e+00
  %74 = fcmp olt double %69, %73
  br i1 %74, label %75, label %121

; <label>:75:                                     ; preds = %67
  %76 = load i32, i32* %12, align 4
  %77 = load i32, i32* %13, align 4
  %78 = srem i32 %76, %77
  %79 = icmp eq i32 %78, 0
  br i1 %79, label %80, label %81

; <label>:80:                                     ; preds = %75
  store i1 false, i1* %11, align 1
  br label %140

; <label>:81:                                     ; preds = %75
  %82 = load i32, i32* @x.1
  %83 = load i32, i32* @y.2
  %84 = sub i32 %82, 1
  %85 = mul i32 %82, %84
  %86 = urem i32 %85, 2
  %87 = icmp eq i32 %86, 0
  %88 = icmp slt i32 %83, 10
  %89 = or i1 %87, %88
  br i1 %89, label %90, label %152

; <label>:90:                                     ; preds = %81, %152
  %91 = load i32, i32* @x.1
  %92 = load i32, i32* @y.2
  %93 = sub i32 %91, 1
  %94 = mul i32 %91, %93
  %95 = urem i32 %94, 2
  %96 = icmp eq i32 %95, 0
  %97 = icmp slt i32 %92, 10
  %98 = or i1 %96, %97
  br i1 %98, label %99, label %152

; <label>:99:                                     ; preds = %90
  br label %100

; <label>:100:                                    ; preds = %99
  %101 = load i32, i32* @x.1
  %102 = load i32, i32* @y.2
  %103 = sub i32 %101, 1
  %104 = mul i32 %101, %103
  %105 = urem i32 %104, 2
  %106 = icmp eq i32 %105, 0
  %107 = icmp slt i32 %102, 10
  %108 = or i1 %106, %107
  br i1 %108, label %109, label %153

; <label>:109:                                    ; preds = %100, %153
  %110 = load i32, i32* %13, align 4
  %111 = add nsw i32 %110, 1
  store i32 %111, i32* %13, align 4
  %112 = load i32, i32* @x.1
  %113 = load i32, i32* @y.2
  %114 = sub i32 %112, 1
  %115 = mul i32 %112, %114
  %116 = urem i32 %115, 2
  %117 = icmp eq i32 %116, 0
  %118 = icmp slt i32 %113, 10
  %119 = or i1 %117, %118
  br i1 %119, label %120, label %153

; <label>:120:                                    ; preds = %109
  br label %67

; <label>:121:                                    ; preds = %67
  %122 = load i32, i32* @x.1
  %123 = load i32, i32* @y.2
  %124 = sub i32 %122, 1
  %125 = mul i32 %122, %124
  %126 = urem i32 %125, 2
  %127 = icmp eq i32 %126, 0
  %128 = icmp slt i32 %123, 10
  %129 = or i1 %127, %128
  br i1 %129, label %130, label %167

; <label>:130:                                    ; preds = %121, %167
  store i1 true, i1* %11, align 1
  %131 = load i32, i32* @x.1
  %132 = load i32, i32* @y.2
  %133 = sub i32 %131, 1
  %134 = mul i32 %131, %133
  %135 = urem i32 %134, 2
  %136 = icmp eq i32 %135, 0
  %137 = icmp slt i32 %132, 10
  %138 = or i1 %136, %137
  br i1 %138, label %139, label %167

; <label>:139:                                    ; preds = %130
  br label %140

; <label>:140:                                    ; preds = %139, %80, %65, %25
  %141 = load i1, i1* %11, align 1
  ret i1 %141

; <label>:142:                                    ; preds = %10, %1
  %143 = alloca i1, align 1
  %144 = alloca i32, align 4
  %145 = alloca i32, align 4
  store i32 %0, i32* %144, align 4
  %146 = load i32, i32* %144, align 4
  %147 = icmp sle i32 %146, 1
  br label %10

; <label>:148:                                    ; preds = %35, %26
  %149 = load i32, i32* %12, align 4
  %150 = icmp eq i32 %149, 2
  br label %35

; <label>:151:                                    ; preds = %56, %47
  store i1 true, i1* %11, align 1
  br label %56

; <label>:152:                                    ; preds = %90, %81
  br label %90

; <label>:153:                                    ; preds = %109, %100
  %154 = load i32, i32* %13, align 4
  %155 = shl i32 %154, 1
  %156 = sub i32 %154, 1
  %157 = mul i32 %156, 1
  %158 = shl i32 %154, 1
  %159 = sub i32 %154, 1
  %160 = mul i32 %159, 1
  %161 = sub i32 0, %154
  %162 = add i32 %161, 1
  %163 = shl i32 %154, 1
  %164 = sub i32 0, %154
  %165 = add i32 %164, 1
  %166 = add nsw i32 %154, 1
  store i32 %166, i32* %13, align 4
  br label %109

; <label>:167:                                    ; preds = %130, %121
  store i1 true, i1* %11, align 1
  br label %130
}

; Function Attrs: nounwind
declare double @sqrt(double) #2

; Function Attrs: noinline uwtable
define i32 @_Z3dfsiiPb(i32, i32, i8*) #0 {
  %4 = alloca i32, align 4
  %5 = alloca i32, align 4
  %6 = alloca i32, align 4
  %7 = alloca i8*, align 8
  %8 = alloca i8, align 1
  %9 = alloca i32, align 4
  %10 = alloca i32, align 4
  %11 = alloca i32, align 4
  store i32 %0, i32* %5, align 4
  store i32 %1, i32* %6, align 4
  store i8* %2, i8** %7, align 8
  store i8 1, i8* %8, align 1
  store i32 0, i32* %9, align 4
  br label %12

; <label>:12:                                     ; preds = %45, %3
  %13 = load i32, i32* %9, align 4
  %14 = load i32, i32* %6, align 4
  %15 = icmp slt i32 %13, %14
  br i1 %15, label %16, label %48

; <label>:16:                                     ; preds = %12
  %17 = load i8*, i8** %7, align 8
  %18 = load i32, i32* %9, align 4
  %19 = sext i32 %18 to i64
  %20 = getelementptr inbounds i8, i8* %17, i64 %19
  %21 = load i8, i8* %20, align 1
  %22 = trunc i8 %21 to i1
  %23 = zext i1 %22 to i32
  %24 = icmp eq i32 %23, 0
  br i1 %24, label %25, label %44

; <label>:25:                                     ; preds = %16
  %26 = load i32, i32* @x.3
  %27 = load i32, i32* @y.4
  %28 = sub i32 %26, 1
  %29 = mul i32 %26, %28
  %30 = urem i32 %29, 2
  %31 = icmp eq i32 %30, 0
  %32 = icmp slt i32 %27, 10
  %33 = or i1 %31, %32
  br i1 %33, label %34, label %133

; <label>:34:                                     ; preds = %25, %133
  store i8 0, i8* %8, align 1
  %35 = load i32, i32* @x.3
  %36 = load i32, i32* @y.4
  %37 = sub i32 %35, 1
  %38 = mul i32 %35, %37
  %39 = urem i32 %38, 2
  %40 = icmp eq i32 %39, 0
  %41 = icmp slt i32 %36, 10
  %42 = or i1 %40, %41
  br i1 %42, label %43, label %133

; <label>:43:                                     ; preds = %34
  br label %44

; <label>:44:                                     ; preds = %43, %16
  br label %45

; <label>:45:                                     ; preds = %44
  %46 = load i32, i32* %9, align 4
  %47 = add nsw i32 %46, 1
  store i32 %47, i32* %9, align 4
  br label %12

; <label>:48:                                     ; preds = %12
  %49 = load i32, i32* @x.3
  %50 = load i32, i32* @y.4
  %51 = sub i32 %49, 1
  %52 = mul i32 %49, %51
  %53 = urem i32 %52, 2
  %54 = icmp eq i32 %53, 0
  %55 = icmp slt i32 %50, 10
  %56 = or i1 %54, %55
  br i1 %56, label %57, label %134

; <label>:57:                                     ; preds = %48, %134
  %58 = load i8, i8* %8, align 1
  %59 = trunc i8 %58 to i1
  %60 = load i32, i32* @x.3
  %61 = load i32, i32* @y.4
  %62 = sub i32 %60, 1
  %63 = mul i32 %60, %62
  %64 = urem i32 %63, 2
  %65 = icmp eq i32 %64, 0
  %66 = icmp slt i32 %61, 10
  %67 = or i1 %65, %66
  br i1 %67, label %68, label %134

; <label>:68:                                     ; preds = %57
  br i1 %59, label %69, label %70

; <label>:69:                                     ; preds = %68
  store i32 1, i32* %4, align 4
  br label %131

; <label>:70:                                     ; preds = %68
  store i32 0, i32* %10, align 4
  store i32 0, i32* %11, align 4
  br label %71

; <label>:71:                                     ; preds = %126, %70
  %72 = load i32, i32* %11, align 4
  %73 = load i32, i32* %6, align 4
  %74 = icmp slt i32 %72, %73
  br i1 %74, label %75, label %129

; <label>:75:                                     ; preds = %71
  %76 = load i32, i32* @x.3
  %77 = load i32, i32* @y.4
  %78 = sub i32 %76, 1
  %79 = mul i32 %76, %78
  %80 = urem i32 %79, 2
  %81 = icmp eq i32 %80, 0
  %82 = icmp slt i32 %77, 10
  %83 = or i1 %81, %82
  br i1 %83, label %84, label %137

; <label>:84:                                     ; preds = %75, %137
  %85 = load i32, i32* %5, align 4
  %86 = sext i32 %85 to i64
  %87 = getelementptr inbounds [8 x [8 x i32]], [8 x [8 x i32]]* @graph, i64 0, i64 %86
  %88 = load i32, i32* %11, align 4
  %89 = sext i32 %88 to i64
  %90 = getelementptr inbounds [8 x i32], [8 x i32]* %87, i64 0, i64 %89
  %91 = load i32, i32* %90, align 4
  %92 = icmp ne i32 %91, 1
  %93 = load i32, i32* @x.3
  %94 = load i32, i32* @y.4
  %95 = sub i32 %93, 1
  %96 = mul i32 %93, %95
  %97 = urem i32 %96, 2
  %98 = icmp eq i32 %97, 0
  %99 = icmp slt i32 %94, 10
  %100 = or i1 %98, %99
  br i1 %100, label %101, label %137

; <label>:101:                                    ; preds = %84
  br i1 %92, label %102, label %103

; <label>:102:                                    ; preds = %101
  br label %126

; <label>:103:                                    ; preds = %101
  %104 = load i8*, i8** %7, align 8
  %105 = load i32, i32* %11, align 4
  %106 = sext i32 %105 to i64
  %107 = getelementptr inbounds i8, i8* %104, i64 %106
  %108 = load i8, i8* %107, align 1
  %109 = trunc i8 %108 to i1
  br i1 %109, label %110, label %111

; <label>:110:                                    ; preds = %103
  br label %126

; <label>:111:                                    ; preds = %103
  %112 = load i8*, i8** %7, align 8
  %113 = load i32, i32* %11, align 4
  %114 = sext i32 %113 to i64
  %115 = getelementptr inbounds i8, i8* %112, i64 %114
  store i8 1, i8* %115, align 1
  %116 = load i32, i32* %11, align 4
  %117 = load i32, i32* %6, align 4
  %118 = load i8*, i8** %7, align 8
  %119 = call i32 @_Z3dfsiiPb(i32 %116, i32 %117, i8* %118)
  %120 = load i32, i32* %10, align 4
  %121 = add nsw i32 %120, %119
  store i32 %121, i32* %10, align 4
  %122 = load i8*, i8** %7, align 8
  %123 = load i32, i32* %11, align 4
  %124 = sext i32 %123 to i64
  %125 = getelementptr inbounds i8, i8* %122, i64 %124
  store i8 0, i8* %125, align 1
  br label %126

; <label>:126:                                    ; preds = %111, %110, %102
  %127 = load i32, i32* %11, align 4
  %128 = add nsw i32 %127, 1
  store i32 %128, i32* %11, align 4
  br label %71

; <label>:129:                                    ; preds = %71
  %130 = load i32, i32* %10, align 4
  store i32 %130, i32* %4, align 4
  br label %131

; <label>:131:                                    ; preds = %129, %69
  %132 = load i32, i32* %4, align 4
  ret i32 %132

; <label>:133:                                    ; preds = %34, %25
  store i8 0, i8* %8, align 1
  br label %34

; <label>:134:                                    ; preds = %57, %48
  %135 = load i8, i8* %8, align 1
  %136 = trunc i8 %135 to i1
  br label %57

; <label>:137:                                    ; preds = %84, %75
  %138 = load i32, i32* %5, align 4
  %139 = sext i32 %138 to i64
  %140 = getelementptr inbounds [8 x [8 x i32]], [8 x [8 x i32]]* @graph, i64 0, i64 %139
  %141 = load i32, i32* %11, align 4
  %142 = sext i32 %141 to i64
  %143 = getelementptr inbounds [8 x i32], [8 x i32]* %140, i64 0, i64 %142
  %144 = load i32, i32* %143, align 4
  %145 = icmp ne i32 %144, 1
  br label %84
}

; Function Attrs: noinline uwtable
define void @_Z5solvev() #0 {
  %1 = alloca i32, align 4
  %2 = alloca i32, align 4
  %3 = alloca i32, align 4
  %4 = alloca i32, align 4
  %5 = alloca i32, align 4
  %6 = alloca [8 x i8], align 1
  %7 = alloca i32, align 4
  %8 = call dereferenceable(280) %"class.std::basic_istream"* @_ZNSirsERi(%"class.std::basic_istream"* @_ZSt3cin, i32* dereferenceable(4) %1)
  %9 = call dereferenceable(280) %"class.std::basic_istream"* @_ZNSirsERi(%"class.std::basic_istream"* %8, i32* dereferenceable(4) %2)
  store i32 0, i32* %3, align 4
  br label %10

; <label>:10:                                     ; preds = %51, %0
  %11 = load i32, i32* %3, align 4
  %12 = load i32, i32* %2, align 4
  %13 = icmp slt i32 %11, %12
  br i1 %13, label %14, label %54

; <label>:14:                                     ; preds = %10
  %15 = load i32, i32* @x.5
  %16 = load i32, i32* @y.6
  %17 = sub i32 %15, 1
  %18 = mul i32 %15, %17
  %19 = urem i32 %18, 2
  %20 = icmp eq i32 %19, 0
  %21 = icmp slt i32 %16, 10
  %22 = or i1 %20, %21
  br i1 %22, label %23, label %91

; <label>:23:                                     ; preds = %14, %91
  %24 = call dereferenceable(280) %"class.std::basic_istream"* @_ZNSirsERi(%"class.std::basic_istream"* @_ZSt3cin, i32* dereferenceable(4) %4)
  %25 = call dereferenceable(280) %"class.std::basic_istream"* @_ZNSirsERi(%"class.std::basic_istream"* %24, i32* dereferenceable(4) %5)
  %26 = load i32, i32* %5, align 4
  %27 = sub nsw i32 %26, 1
  %28 = sext i32 %27 to i64
  %29 = getelementptr inbounds [8 x [8 x i32]], [8 x [8 x i32]]* @graph, i64 0, i64 %28
  %30 = load i32, i32* %4, align 4
  %31 = sub nsw i32 %30, 1
  %32 = sext i32 %31 to i64
  %33 = getelementptr inbounds [8 x i32], [8 x i32]* %29, i64 0, i64 %32
  store i32 1, i32* %33, align 4
  %34 = load i32, i32* %4, align 4
  %35 = sub nsw i32 %34, 1
  %36 = sext i32 %35 to i64
  %37 = getelementptr inbounds [8 x [8 x i32]], [8 x [8 x i32]]* @graph, i64 0, i64 %36
  %38 = load i32, i32* %5, align 4
  %39 = sub nsw i32 %38, 1
  %40 = sext i32 %39 to i64
  %41 = getelementptr inbounds [8 x i32], [8 x i32]* %37, i64 0, i64 %40
  store i32 1, i32* %41, align 4
  %42 = load i32, i32* @x.5
  %43 = load i32, i32* @y.6
  %44 = sub i32 %42, 1
  %45 = mul i32 %42, %44
  %46 = urem i32 %45, 2
  %47 = icmp eq i32 %46, 0
  %48 = icmp slt i32 %43, 10
  %49 = or i1 %47, %48
  br i1 %49, label %50, label %91

; <label>:50:                                     ; preds = %23
  br label %51

; <label>:51:                                     ; preds = %50
  %52 = load i32, i32* %3, align 4
  %53 = add nsw i32 %52, 1
  store i32 %53, i32* %3, align 4
  br label %10

; <label>:54:                                     ; preds = %10
  %55 = load i32, i32* @x.5
  %56 = load i32, i32* @y.6
  %57 = sub i32 %55, 1
  %58 = mul i32 %55, %57
  %59 = urem i32 %58, 2
  %60 = icmp eq i32 %59, 0
  %61 = icmp slt i32 %56, 10
  %62 = or i1 %60, %61
  br i1 %62, label %63, label %135

; <label>:63:                                     ; preds = %54, %135
  store i32 0, i32* %7, align 4
  %64 = load i32, i32* @x.5
  %65 = load i32, i32* @y.6
  %66 = sub i32 %64, 1
  %67 = mul i32 %64, %66
  %68 = urem i32 %67, 2
  %69 = icmp eq i32 %68, 0
  %70 = icmp slt i32 %65, 10
  %71 = or i1 %69, %70
  br i1 %71, label %72, label %135

; <label>:72:                                     ; preds = %63
  br label %73

; <label>:73:                                     ; preds = %81, %72
  %74 = load i32, i32* %7, align 4
  %75 = load i32, i32* %1, align 4
  %76 = icmp slt i32 %74, %75
  br i1 %76, label %77, label %84

; <label>:77:                                     ; preds = %73
  %78 = load i32, i32* %7, align 4
  %79 = sext i32 %78 to i64
  %80 = getelementptr inbounds [8 x i8], [8 x i8]* %6, i64 0, i64 %79
  store i8 0, i8* %80, align 1
  br label %81

; <label>:81:                                     ; preds = %77
  %82 = load i32, i32* %7, align 4
  %83 = add nsw i32 %82, 1
  store i32 %83, i32* %7, align 4
  br label %73

; <label>:84:                                     ; preds = %73
  %85 = getelementptr inbounds [8 x i8], [8 x i8]* %6, i64 0, i64 0
  store i8 1, i8* %85, align 1
  %86 = load i32, i32* %1, align 4
  %87 = getelementptr inbounds [8 x i8], [8 x i8]* %6, i32 0, i32 0
  %88 = call i32 @_Z3dfsiiPb(i32 0, i32 %86, i8* %87)
  %89 = call dereferenceable(272) %"class.std::basic_ostream"* @_ZNSolsEi(%"class.std::basic_ostream"* @_ZSt4cout, i32 %88)
  %90 = call dereferenceable(272) %"class.std::basic_ostream"* @_ZNSolsEPFRSoS_E(%"class.std::basic_ostream"* %89, %"class.std::basic_ostream"* (%"class.std::basic_ostream"*)* @_ZSt4endlIcSt11char_traitsIcEERSt13basic_ostreamIT_T0_ES6_)
  ret void

; <label>:91:                                     ; preds = %23, %14
  %92 = call dereferenceable(280) %"class.std::basic_istream"* @_ZNSirsERi(%"class.std::basic_istream"* @_ZSt3cin, i32* dereferenceable(4) %4)
  %93 = call dereferenceable(280) %"class.std::basic_istream"* @_ZNSirsERi(%"class.std::basic_istream"* %92, i32* dereferenceable(4) %5)
  %94 = load i32, i32* %5, align 4
  %95 = shl i32 %94, 1
  %96 = shl i32 %94, 1
  %97 = sub nsw i32 %94, 1
  %98 = sext i32 %97 to i64
  %99 = getelementptr inbounds [8 x [8 x i32]], [8 x [8 x i32]]* @graph, i64 0, i64 %98
  %100 = load i32, i32* %4, align 4
  %101 = shl i32 %100, 1
  %102 = shl i32 %100, 1
  %103 = sub i32 0, %100
  %104 = add i32 %103, 1
  %105 = sub i32 0, %100
  %106 = add i32 %105, 1
  %107 = sub i32 0, %100
  %108 = add i32 %107, 1
  %109 = sub nsw i32 %100, 1
  %110 = sext i32 %109 to i64
  %111 = getelementptr inbounds [8 x i32], [8 x i32]* %99, i64 0, i64 %110
  store i32 1, i32* %111, align 4
  %112 = load i32, i32* %4, align 4
  %113 = sub i32 0, %112
  %114 = add i32 %113, 1
  %115 = sub i32 %112, 1
  %116 = mul i32 %115, 1
  %117 = shl i32 %112, 1
  %118 = sub i32 0, %112
  %119 = add i32 %118, 1
  %120 = shl i32 %112, 1
  %121 = sub nsw i32 %112, 1
  %122 = sext i32 %121 to i64
  %123 = getelementptr inbounds [8 x [8 x i32]], [8 x [8 x i32]]* @graph, i64 0, i64 %122
  %124 = load i32, i32* %5, align 4
  %125 = shl i32 %124, 1
  %126 = sub i32 0, %124
  %127 = add i32 %126, 1
  %128 = sub i32 %124, 1
  %129 = mul i32 %128, 1
  %130 = sub i32 0, %124
  %131 = add i32 %130, 1
  %132 = sub nsw i32 %124, 1
  %133 = sext i32 %132 to i64
  %134 = getelementptr inbounds [8 x i32], [8 x i32]* %123, i64 0, i64 %133
  store i32 1, i32* %134, align 4
  br label %23

; <label>:135:                                    ; preds = %63, %54
  store i32 0, i32* %7, align 4
  br label %63
}

declare dereferenceable(280) %"class.std::basic_istream"* @_ZNSirsERi(%"class.std::basic_istream"*, i32* dereferenceable(4)) #1

declare dereferenceable(272) %"class.std::basic_ostream"* @_ZNSolsEi(%"class.std::basic_ostream"*, i32) #1

declare dereferenceable(272) %"class.std::basic_ostream"* @_ZNSolsEPFRSoS_E(%"class.std::basic_ostream"*, %"class.std::basic_ostream"* (%"class.std::basic_ostream"*)*) #1

declare dereferenceable(272) %"class.std::basic_ostream"* @_ZSt4endlIcSt11char_traitsIcEERSt13basic_ostreamIT_T0_ES6_(%"class.std::basic_ostream"* dereferenceable(272)) #1

; Function Attrs: noinline norecurse uwtable
define i32 @main() #5 {
  %1 = alloca i32, align 4
  store i32 0, i32* %1, align 4
  call void @_Z5solvev()
  ret i32 0
}

; Function Attrs: noinline uwtable
define internal void @_GLOBAL__sub_I_s553685810.cpp() #0 section ".text.startup" {
  %1 = load i32, i32* @x.9
  %2 = load i32, i32* @y.10
  %3 = sub i32 %1, 1
  %4 = mul i32 %1, %3
  %5 = urem i32 %4, 2
  %6 = icmp eq i32 %5, 0
  %7 = icmp slt i32 %2, 10
  %8 = or i1 %6, %7
  br i1 %8, label %9, label %19

; <label>:9:                                      ; preds = %0, %19
  call void @__cxx_global_var_init()
  %10 = load i32, i32* @x.9
  %11 = load i32, i32* @y.10
  %12 = sub i32 %10, 1
  %13 = mul i32 %10, %12
  %14 = urem i32 %13, 2
  %15 = icmp eq i32 %14, 0
  %16 = icmp slt i32 %11, 10
  %17 = or i1 %15, %16
  br i1 %17, label %18, label %19

; <label>:18:                                     ; preds = %9
  ret void

; <label>:19:                                     ; preds = %9, %0
  call void @__cxx_global_var_init()
  br label %9
}

attributes #0 = { noinline uwtable "correctly-rounded-divide-sqrt-fp-math"="false" "disable-tail-calls"="false" "less-precise-fpmad"="false" "no-frame-pointer-elim"="true" "no-frame-pointer-elim-non-leaf" "no-infs-fp-math"="false" "no-jump-tables"="false" "no-nans-fp-math"="false" "no-signed-zeros-fp-math"="false" "no-trapping-math"="false" "stack-protector-buffer-size"="8" "target-cpu"="x86-64" "target-features"="+fxsr,+mmx,+sse,+sse2,+x87" "unsafe-fp-math"="false" "use-soft-float"="false" }
attributes #1 = { "correctly-rounded-divide-sqrt-fp-math"="false" "disable-tail-calls"="false" "less-precise-fpmad"="false" "no-frame-pointer-elim"="true" "no-frame-pointer-elim-non-leaf" "no-infs-fp-math"="false" "no-nans-fp-math"="false" "no-signed-zeros-fp-math"="false" "no-trapping-math"="false" "stack-protector-buffer-size"="8" "target-cpu"="x86-64" "target-features"="+fxsr,+mmx,+sse,+sse2,+x87" "unsafe-fp-math"="false" "use-soft-float"="false" }
attributes #2 = { nounwind "correctly-rounded-divide-sqrt-fp-math"="false" "disable-tail-calls"="false" "less-precise-fpmad"="false" "no-frame-pointer-elim"="true" "no-frame-pointer-elim-non-leaf" "no-infs-fp-math"="false" "no-nans-fp-math"="false" "no-signed-zeros-fp-math"="false" "no-trapping-math"="false" "stack-protector-buffer-size"="8" "target-cpu"="x86-64" "target-features"="+fxsr,+mmx,+sse,+sse2,+x87" "unsafe-fp-math"="false" "use-soft-float"="false" }
attributes #3 = { nounwind }
attributes #4 = { noinline nounwind uwtable "correctly-rounded-divide-sqrt-fp-math"="false" "disable-tail-calls"="false" "less-precise-fpmad"="false" "no-frame-pointer-elim"="true" "no-frame-pointer-elim-non-leaf" "no-infs-fp-math"="false" "no-jump-tables"="false" "no-nans-fp-math"="false" "no-signed-zeros-fp-math"="false" "no-trapping-math"="false" "stack-protector-buffer-size"="8" "target-cpu"="x86-64" "target-features"="+fxsr,+mmx,+sse,+sse2,+x87" "unsafe-fp-math"="false" "use-soft-float"="false" }
attributes #5 = { noinline norecurse uwtable "correctly-rounded-divide-sqrt-fp-math"="false" "disable-tail-calls"="false" "less-precise-fpmad"="false" "no-frame-pointer-elim"="true" "no-frame-pointer-elim-non-leaf" "no-infs-fp-math"="false" "no-jump-tables"="false" "no-nans-fp-math"="false" "no-signed-zeros-fp-math"="false" "no-trapping-math"="false" "stack-protector-buffer-size"="8" "target-cpu"="x86-64" "target-features"="+fxsr,+mmx,+sse,+sse2,+x87" "unsafe-fp-math"="false" "use-soft-float"="false" }

!llvm.ident = !{!0}

!0 = !{!"Obfuscator-LLVM clang version 4.0.1  (based on Obfuscator-LLVM 4.0.1)"}
