; ModuleID = 'Project_CodeNet_C++1400/p03391/s412741575.cpp'
source_filename = "Project_CodeNet_C++1400/p03391/s412741575.cpp"
target datalayout = "e-m:e-i64:64-f80:128-n8:16:32:64-S128"
target triple = "x86_64-unknown-linux-gnu"

%"class.std::ios_base::Init" = type { i8 }
%"class.std::basic_istream" = type { i32 (...)**, i64, %"class.std::basic_ios" }
%"class.std::basic_ios" = type { %"class.std::ios_base", %"class.std::basic_ostream"*, i8, i8, %"class.std::basic_streambuf"*, %"class.std::ctype"*, %"class.std::num_put"*, %"class.std::num_get"* }
%"class.std::ios_base" = type { i32 (...)**, i64, i64, i32, i32, i32, %"struct.std::ios_base::_Callback_list"*, %"struct.std::ios_base::_Words", [8 x %"struct.std::ios_base::_Words"], i32, %"struct.std::ios_base::_Words"*, %"class.std::locale" }
%"struct.std::ios_base::_Callback_list" = type { %"struct.std::ios_base::_Callback_list"*, void (i32, %"class.std::ios_base"*, i32)*, i32, i32 }
%"struct.std::ios_base::_Words" = type { i8*, i64 }
%"class.std::locale" = type { %"class.std::locale::_Impl"* }
%"class.std::locale::_Impl" = type { i32, %"class.std::locale::facet"**, i64, %"class.std::locale::facet"**, i8** }
%"class.std::locale::facet" = type <{ i32 (...)**, i32, [4 x i8] }>
%"class.std::basic_ostream" = type { i32 (...)**, %"class.std::basic_ios" }
%"class.std::basic_streambuf" = type { i32 (...)**, i8*, i8*, i8*, i8*, i8*, i8*, %"class.std::locale" }
%"class.std::ctype" = type <{ %"class.std::locale::facet.base", [4 x i8], %struct.__locale_struct*, i8, [7 x i8], i32*, i32*, i16*, i8, [256 x i8], [256 x i8], i8, [6 x i8] }>
%"class.std::locale::facet.base" = type <{ i32 (...)**, i32 }>
%struct.__locale_struct = type { [13 x %struct.__locale_data*], i16*, i32*, i32*, [13 x i8*] }
%struct.__locale_data = type opaque
%"class.std::num_put" = type { %"class.std::locale::facet.base", [4 x i8] }
%"class.std::num_get" = type { %"class.std::locale::facet.base", [4 x i8] }
%"class.std::vector" = type { %"struct.std::_Vector_base" }
%"struct.std::_Vector_base" = type { %"struct.std::_Vector_base<long long, std::allocator<long long> >::_Vector_impl" }
%"struct.std::_Vector_base<long long, std::allocator<long long> >::_Vector_impl" = type { i64*, i64*, i64* }
%"class.std::allocator" = type { i8 }
%"class.__gnu_cxx::new_allocator" = type { i8 }

$_ZNSaIxEC2Ev = comdat any

$_ZNSt6vectorIxSaIxEEC2EmRKS0_ = comdat any

$_ZNSaIxED2Ev = comdat any

$_ZNSt6vectorIxSaIxEE2atEm = comdat any

$_ZNSt6vectorIxSaIxEED2Ev = comdat any

$_ZN9__gnu_cxx13new_allocatorIxEC2Ev = comdat any

$_ZN9__gnu_cxx13new_allocatorIxED2Ev = comdat any

$_ZNSt12_Vector_baseIxSaIxEEC2EmRKS0_ = comdat any

$_ZNSt6vectorIxSaIxEE21_M_default_initializeEm = comdat any

$_ZNSt12_Vector_baseIxSaIxEED2Ev = comdat any

$_ZNSt12_Vector_baseIxSaIxEE12_Vector_implC2ERKS0_ = comdat any

$_ZNSt12_Vector_baseIxSaIxEE17_M_create_storageEm = comdat any

$_ZNSt12_Vector_baseIxSaIxEE12_Vector_implD2Ev = comdat any

$_ZNSaIxEC2ERKS_ = comdat any

$_ZN9__gnu_cxx13new_allocatorIxEC2ERKS1_ = comdat any

$_ZNSt12_Vector_baseIxSaIxEE11_M_allocateEm = comdat any

$_ZNSt16allocator_traitsISaIxEE8allocateERS0_m = comdat any

$_ZN9__gnu_cxx13new_allocatorIxE8allocateEmPKv = comdat any

$_ZNK9__gnu_cxx13new_allocatorIxE8max_sizeEv = comdat any

$_ZSt27__uninitialized_default_n_aIPxmxET_S1_T0_RSaIT1_E = comdat any

$_ZNSt12_Vector_baseIxSaIxEE19_M_get_Tp_allocatorEv = comdat any

$_ZSt25__uninitialized_default_nIPxmET_S1_T0_ = comdat any

$_ZNSt27__uninitialized_default_n_1ILb1EE18__uninit_default_nIPxmEET_S3_T0_ = comdat any

$_ZSt6fill_nIPxmxET_S1_T0_RKT1_ = comdat any

$_ZSt10__fill_n_aIPxmxEN9__gnu_cxx11__enable_ifIXsr11__is_scalarIT1_EE7__valueET_E6__typeES4_T0_RKS3_ = comdat any

$_ZSt12__niter_baseIPxENSt11_Niter_baseIT_E13iterator_typeES2_ = comdat any

$_ZNSt10_Iter_baseIPxLb0EE7_S_baseES0_ = comdat any

$_ZNSt12_Vector_baseIxSaIxEE13_M_deallocateEPxm = comdat any

$__clang_call_terminate = comdat any

$_ZNSt16allocator_traitsISaIxEE10deallocateERS0_Pxm = comdat any

$_ZN9__gnu_cxx13new_allocatorIxE10deallocateEPxm = comdat any

$_ZSt8_DestroyIPxxEvT_S1_RSaIT0_E = comdat any

$_ZSt8_DestroyIPxEvT_S1_ = comdat any

$_ZNSt12_Destroy_auxILb1EE9__destroyIPxEEvT_S3_ = comdat any

$_ZNKSt6vectorIxSaIxEE14_M_range_checkEm = comdat any

$_ZNSt6vectorIxSaIxEEixEm = comdat any

$_ZNKSt6vectorIxSaIxEE4sizeEv = comdat any

@_ZStL8__ioinit = internal global %"class.std::ios_base::Init" zeroinitializer, align 1
@__dso_handle = external global i8
@_ZSt3cin = external global %"class.std::basic_istream", align 8
@_ZSt4cout = external global %"class.std::basic_ostream", align 8
@.str = private unnamed_addr constant [74 x i8] c"vector::_M_range_check: __n (which is %zu) >= this->size() (which is %zu)\00", align 1
@llvm.global_ctors = appending global [1 x { i32, void ()*, i8* }] [{ i32, void ()*, i8* } { i32 65535, void ()* @_GLOBAL__sub_I_s412741575.cpp, i8* null }]
@x = common global i32 0
@y = common global i32 0
@x.1 = common global i32 0
@y.2 = common global i32 0
@x.3 = common global i32 0
@y.4 = common global i32 0
@x.5 = common global i32 0
@y.6 = common global i32 0
@x.7 = common global i32 0
@y.8 = common global i32 0
@x.9 = common global i32 0
@y.10 = common global i32 0
@x.11 = common global i32 0
@y.12 = common global i32 0
@x.13 = common global i32 0
@y.14 = common global i32 0
@x.15 = common global i32 0
@y.16 = common global i32 0
@x.17 = common global i32 0
@y.18 = common global i32 0
@x.19 = common global i32 0
@y.20 = common global i32 0
@x.21 = common global i32 0
@y.22 = common global i32 0
@x.23 = common global i32 0
@y.24 = common global i32 0
@x.25 = common global i32 0
@y.26 = common global i32 0
@x.27 = common global i32 0
@y.28 = common global i32 0
@x.29 = common global i32 0
@y.30 = common global i32 0
@x.31 = common global i32 0
@y.32 = common global i32 0
@x.33 = common global i32 0
@y.34 = common global i32 0
@x.35 = common global i32 0
@y.36 = common global i32 0
@x.37 = common global i32 0
@y.38 = common global i32 0
@x.39 = common global i32 0
@y.40 = common global i32 0
@x.41 = common global i32 0
@y.42 = common global i32 0
@x.43 = common global i32 0
@y.44 = common global i32 0
@x.45 = common global i32 0
@y.46 = common global i32 0
@x.47 = common global i32 0
@y.48 = common global i32 0
@x.49 = common global i32 0
@y.50 = common global i32 0
@x.51 = common global i32 0
@y.52 = common global i32 0
@x.53 = common global i32 0
@y.54 = common global i32 0
@x.55 = common global i32 0
@y.56 = common global i32 0
@x.57 = common global i32 0
@y.58 = common global i32 0
@x.59 = common global i32 0
@y.60 = common global i32 0
@x.61 = common global i32 0
@y.62 = common global i32 0
@x.63 = common global i32 0
@y.64 = common global i32 0
@x.65 = common global i32 0
@y.66 = common global i32 0
@x.67 = common global i32 0
@y.68 = common global i32 0
@x.69 = common global i32 0
@y.70 = common global i32 0
@x.71 = common global i32 0
@y.72 = common global i32 0
@x.73 = common global i32 0
@y.74 = common global i32 0
@x.75 = common global i32 0
@y.76 = common global i32 0
@x.77 = common global i32 0
@y.78 = common global i32 0

; Function Attrs: noinline uwtable
define internal void @__cxx_global_var_init() #0 section ".text.startup" {
  %1 = load i32, i32* @x
  %2 = load i32, i32* @y
  %3 = sub i32 %1, 1
  %4 = mul i32 %1, %3
  %5 = urem i32 %4, 2
  %6 = icmp eq i32 %5, 0
  %7 = icmp slt i32 %2, 10
  %8 = or i1 %6, %7
  br i1 %8, label %9, label %20

; <label>:9:                                      ; preds = %0, %20
  call void @_ZNSt8ios_base4InitC1Ev(%"class.std::ios_base::Init"* @_ZStL8__ioinit)
  %10 = call i32 @__cxa_atexit(void (i8*)* bitcast (void (%"class.std::ios_base::Init"*)* @_ZNSt8ios_base4InitD1Ev to void (i8*)*), i8* getelementptr inbounds (%"class.std::ios_base::Init", %"class.std::ios_base::Init"* @_ZStL8__ioinit, i32 0, i32 0), i8* @__dso_handle) #3
  %11 = load i32, i32* @x
  %12 = load i32, i32* @y
  %13 = sub i32 %11, 1
  %14 = mul i32 %11, %13
  %15 = urem i32 %14, 2
  %16 = icmp eq i32 %15, 0
  %17 = icmp slt i32 %12, 10
  %18 = or i1 %16, %17
  br i1 %18, label %19, label %20

; <label>:19:                                     ; preds = %9
  ret void

; <label>:20:                                     ; preds = %9, %0
  call void @_ZNSt8ios_base4InitC1Ev(%"class.std::ios_base::Init"* @_ZStL8__ioinit)
  %21 = call i32 @__cxa_atexit(void (i8*)* bitcast (void (%"class.std::ios_base::Init"*)* @_ZNSt8ios_base4InitD1Ev to void (i8*)*), i8* getelementptr inbounds (%"class.std::ios_base::Init", %"class.std::ios_base::Init"* @_ZStL8__ioinit, i32 0, i32 0), i8* @__dso_handle) #3
  br label %9
}

declare void @_ZNSt8ios_base4InitC1Ev(%"class.std::ios_base::Init"*) unnamed_addr #1

; Function Attrs: nounwind
declare void @_ZNSt8ios_base4InitD1Ev(%"class.std::ios_base::Init"*) unnamed_addr #2

; Function Attrs: nounwind
declare i32 @__cxa_atexit(void (i8*)*, i8*, i8*) #3

; Function Attrs: noinline norecurse uwtable
define i32 @main() #4 personality i8* bitcast (i32 (...)* @__gxx_personality_v0 to i8*) {
  %1 = alloca i32, align 4
  %2 = alloca i32, align 4
  %3 = alloca %"class.std::vector", align 8
  %4 = alloca %"class.std::allocator", align 1
  %5 = alloca i8*
  %6 = alloca i32
  %7 = alloca %"class.std::vector", align 8
  %8 = alloca %"class.std::allocator", align 1
  %9 = alloca i64, align 8
  %10 = alloca i32, align 4
  %11 = alloca i8, align 1
  %12 = alloca i32, align 4
  store i32 0, i32* %1, align 4
  %13 = call dereferenceable(280) %"class.std::basic_istream"* @_ZNSirsERi(%"class.std::basic_istream"* @_ZSt3cin, i32* dereferenceable(4) %2)
  %14 = load i32, i32* %2, align 4
  %15 = sext i32 %14 to i64
  call void @_ZNSaIxEC2Ev(%"class.std::allocator"* %4) #3
  invoke void @_ZNSt6vectorIxSaIxEEC2EmRKS0_(%"class.std::vector"* %3, i64 %15, %"class.std::allocator"* dereferenceable(1) %4)
          to label %16 unwind label %162

; <label>:16:                                     ; preds = %0
  call void @_ZNSaIxED2Ev(%"class.std::allocator"* %4) #3
  %17 = load i32, i32* %2, align 4
  %18 = sext i32 %17 to i64
  call void @_ZNSaIxEC2Ev(%"class.std::allocator"* %8) #3
  invoke void @_ZNSt6vectorIxSaIxEEC2EmRKS0_(%"class.std::vector"* %7, i64 %18, %"class.std::allocator"* dereferenceable(1) %8)
          to label %19 unwind label %166

; <label>:19:                                     ; preds = %16
  call void @_ZNSaIxED2Ev(%"class.std::allocator"* %8) #3
  store i64 0, i64* %9, align 8
  store i8 0, i8* %11, align 1
  store i32 0, i32* %12, align 4
  br label %20

; <label>:20:                                     ; preds = %251, %19
  %21 = load i32, i32* %12, align 4
  %22 = load i32, i32* %2, align 4
  %23 = icmp slt i32 %21, %22
  br i1 %23, label %24, label %254

; <label>:24:                                     ; preds = %20
  %25 = load i32, i32* %12, align 4
  %26 = sext i32 %25 to i64
  %27 = invoke dereferenceable(8) i64* @_ZNSt6vectorIxSaIxEE2atEm(%"class.std::vector"* %3, i64 %26)
          to label %28 unwind label %170

; <label>:28:                                     ; preds = %24
  %29 = load i32, i32* @x.1
  %30 = load i32, i32* @y.2
  %31 = sub i32 %29, 1
  %32 = mul i32 %29, %31
  %33 = urem i32 %32, 2
  %34 = icmp eq i32 %33, 0
  %35 = icmp slt i32 %30, 10
  %36 = or i1 %34, %35
  br i1 %36, label %37, label %354

; <label>:37:                                     ; preds = %28, %354
  %38 = load i32, i32* @x.1
  %39 = load i32, i32* @y.2
  %40 = sub i32 %38, 1
  %41 = mul i32 %38, %40
  %42 = urem i32 %41, 2
  %43 = icmp eq i32 %42, 0
  %44 = icmp slt i32 %39, 10
  %45 = or i1 %43, %44
  br i1 %45, label %46, label %354

; <label>:46:                                     ; preds = %37
  %47 = invoke dereferenceable(280) %"class.std::basic_istream"* @_ZNSirsERx(%"class.std::basic_istream"* @_ZSt3cin, i64* dereferenceable(8) %27)
          to label %48 unwind label %170

; <label>:48:                                     ; preds = %46
  %49 = load i32, i32* @x.1
  %50 = load i32, i32* @y.2
  %51 = sub i32 %49, 1
  %52 = mul i32 %49, %51
  %53 = urem i32 %52, 2
  %54 = icmp eq i32 %53, 0
  %55 = icmp slt i32 %50, 10
  %56 = or i1 %54, %55
  br i1 %56, label %57, label %355

; <label>:57:                                     ; preds = %48, %355
  %58 = load i32, i32* %12, align 4
  %59 = sext i32 %58 to i64
  %60 = load i32, i32* @x.1
  %61 = load i32, i32* @y.2
  %62 = sub i32 %60, 1
  %63 = mul i32 %60, %62
  %64 = urem i32 %63, 2
  %65 = icmp eq i32 %64, 0
  %66 = icmp slt i32 %61, 10
  %67 = or i1 %65, %66
  br i1 %67, label %68, label %355

; <label>:68:                                     ; preds = %57
  %69 = invoke dereferenceable(8) i64* @_ZNSt6vectorIxSaIxEE2atEm(%"class.std::vector"* %7, i64 %59)
          to label %70 unwind label %170

; <label>:70:                                     ; preds = %68
  %71 = load i32, i32* @x.1
  %72 = load i32, i32* @y.2
  %73 = sub i32 %71, 1
  %74 = mul i32 %71, %73
  %75 = urem i32 %74, 2
  %76 = icmp eq i32 %75, 0
  %77 = icmp slt i32 %72, 10
  %78 = or i1 %76, %77
  br i1 %78, label %79, label %358

; <label>:79:                                     ; preds = %70, %358
  %80 = load i32, i32* @x.1
  %81 = load i32, i32* @y.2
  %82 = sub i32 %80, 1
  %83 = mul i32 %80, %82
  %84 = urem i32 %83, 2
  %85 = icmp eq i32 %84, 0
  %86 = icmp slt i32 %81, 10
  %87 = or i1 %85, %86
  br i1 %87, label %88, label %358

; <label>:88:                                     ; preds = %79
  %89 = invoke dereferenceable(280) %"class.std::basic_istream"* @_ZNSirsERx(%"class.std::basic_istream"* %47, i64* dereferenceable(8) %69)
          to label %90 unwind label %170

; <label>:90:                                     ; preds = %88
  %91 = load i32, i32* %12, align 4
  %92 = sext i32 %91 to i64
  %93 = invoke dereferenceable(8) i64* @_ZNSt6vectorIxSaIxEE2atEm(%"class.std::vector"* %3, i64 %92)
          to label %94 unwind label %170

; <label>:94:                                     ; preds = %90
  %95 = load i64, i64* %93, align 8
  %96 = load i64, i64* %9, align 8
  %97 = add nsw i64 %96, %95
  store i64 %97, i64* %9, align 8
  %98 = load i32, i32* %12, align 4
  %99 = sext i32 %98 to i64
  %100 = invoke dereferenceable(8) i64* @_ZNSt6vectorIxSaIxEE2atEm(%"class.std::vector"* %3, i64 %99)
          to label %101 unwind label %170

; <label>:101:                                    ; preds = %94
  %102 = load i32, i32* @x.1
  %103 = load i32, i32* @y.2
  %104 = sub i32 %102, 1
  %105 = mul i32 %102, %104
  %106 = urem i32 %105, 2
  %107 = icmp eq i32 %106, 0
  %108 = icmp slt i32 %103, 10
  %109 = or i1 %107, %108
  br i1 %109, label %110, label %359

; <label>:110:                                    ; preds = %101, %359
  %111 = load i64, i64* %100, align 8
  %112 = load i32, i32* %12, align 4
  %113 = sext i32 %112 to i64
  %114 = load i32, i32* @x.1
  %115 = load i32, i32* @y.2
  %116 = sub i32 %114, 1
  %117 = mul i32 %114, %116
  %118 = urem i32 %117, 2
  %119 = icmp eq i32 %118, 0
  %120 = icmp slt i32 %115, 10
  %121 = or i1 %119, %120
  br i1 %121, label %122, label %359

; <label>:122:                                    ; preds = %110
  %123 = invoke dereferenceable(8) i64* @_ZNSt6vectorIxSaIxEE2atEm(%"class.std::vector"* %7, i64 %113)
          to label %124 unwind label %170

; <label>:124:                                    ; preds = %122
  %125 = load i32, i32* @x.1
  %126 = load i32, i32* @y.2
  %127 = sub i32 %125, 1
  %128 = mul i32 %125, %127
  %129 = urem i32 %128, 2
  %130 = icmp eq i32 %129, 0
  %131 = icmp slt i32 %126, 10
  %132 = or i1 %130, %131
  br i1 %132, label %133, label %363

; <label>:133:                                    ; preds = %124, %363
  %134 = load i64, i64* %123, align 8
  %135 = icmp sgt i64 %111, %134
  %136 = load i32, i32* @x.1
  %137 = load i32, i32* @y.2
  %138 = sub i32 %136, 1
  %139 = mul i32 %136, %138
  %140 = urem i32 %139, 2
  %141 = icmp eq i32 %140, 0
  %142 = icmp slt i32 %137, 10
  %143 = or i1 %141, %142
  br i1 %143, label %144, label %363

; <label>:144:                                    ; preds = %133
  br i1 %135, label %145, label %232

; <label>:145:                                    ; preds = %144
  %146 = load i8, i8* %11, align 1
  %147 = trunc i8 %146 to i1
  br i1 %147, label %148, label %211

; <label>:148:                                    ; preds = %145
  %149 = load i32, i32* %12, align 4
  %150 = sext i32 %149 to i64
  %151 = invoke dereferenceable(8) i64* @_ZNSt6vectorIxSaIxEE2atEm(%"class.std::vector"* %7, i64 %150)
          to label %152 unwind label %170

; <label>:152:                                    ; preds = %148
  %153 = load i64, i64* %151, align 8
  %154 = load i32, i32* %10, align 4
  %155 = sext i32 %154 to i64
  %156 = invoke dereferenceable(8) i64* @_ZNSt6vectorIxSaIxEE2atEm(%"class.std::vector"* %7, i64 %155)
          to label %157 unwind label %170

; <label>:157:                                    ; preds = %152
  %158 = load i64, i64* %156, align 8
  %159 = icmp slt i64 %153, %158
  br i1 %159, label %160, label %192

; <label>:160:                                    ; preds = %157
  %161 = load i32, i32* %12, align 4
  store i32 %161, i32* %10, align 4
  br label %192

; <label>:162:                                    ; preds = %0
  %163 = landingpad { i8*, i32 }
          cleanup
  %164 = extractvalue { i8*, i32 } %163, 0
  store i8* %164, i8** %5, align 8
  %165 = extractvalue { i8*, i32 } %163, 1
  store i32 %165, i32* %6, align 4
  call void @_ZNSaIxED2Ev(%"class.std::allocator"* %4) #3
  br label %349

; <label>:166:                                    ; preds = %16
  %167 = landingpad { i8*, i32 }
          cleanup
  %168 = extractvalue { i8*, i32 } %167, 0
  store i8* %168, i8** %5, align 8
  %169 = extractvalue { i8*, i32 } %167, 1
  store i32 %169, i32* %6, align 4
  call void @_ZNSaIxED2Ev(%"class.std::allocator"* %8) #3
  br label %348

; <label>:170:                                    ; preds = %325, %323, %320, %298, %296, %152, %148, %122, %94, %90, %88, %68, %46, %24
  %171 = load i32, i32* @x.1
  %172 = load i32, i32* @y.2
  %173 = sub i32 %171, 1
  %174 = mul i32 %171, %173
  %175 = urem i32 %174, 2
  %176 = icmp eq i32 %175, 0
  %177 = icmp slt i32 %172, 10
  %178 = or i1 %176, %177
  br i1 %178, label %179, label %366

; <label>:179:                                    ; preds = %170, %366
  %180 = landingpad { i8*, i32 }
          cleanup
  %181 = extractvalue { i8*, i32 } %180, 0
  store i8* %181, i8** %5, align 8
  %182 = extractvalue { i8*, i32 } %180, 1
  store i32 %182, i32* %6, align 4
  call void @_ZNSt6vectorIxSaIxEED2Ev(%"class.std::vector"* %7) #3
  %183 = load i32, i32* @x.1
  %184 = load i32, i32* @y.2
  %185 = sub i32 %183, 1
  %186 = mul i32 %183, %185
  %187 = urem i32 %186, 2
  %188 = icmp eq i32 %187, 0
  %189 = icmp slt i32 %184, 10
  %190 = or i1 %188, %189
  br i1 %190, label %191, label %366

; <label>:191:                                    ; preds = %179
  br label %348

; <label>:192:                                    ; preds = %160, %157
  %193 = load i32, i32* @x.1
  %194 = load i32, i32* @y.2
  %195 = sub i32 %193, 1
  %196 = mul i32 %193, %195
  %197 = urem i32 %196, 2
  %198 = icmp eq i32 %197, 0
  %199 = icmp slt i32 %194, 10
  %200 = or i1 %198, %199
  br i1 %200, label %201, label %370

; <label>:201:                                    ; preds = %192, %370
  %202 = load i32, i32* @x.1
  %203 = load i32, i32* @y.2
  %204 = sub i32 %202, 1
  %205 = mul i32 %202, %204
  %206 = urem i32 %205, 2
  %207 = icmp eq i32 %206, 0
  %208 = icmp slt i32 %203, 10
  %209 = or i1 %207, %208
  br i1 %209, label %210, label %370

; <label>:210:                                    ; preds = %201
  br label %213

; <label>:211:                                    ; preds = %145
  %212 = load i32, i32* %12, align 4
  store i32 %212, i32* %10, align 4
  store i8 1, i8* %11, align 1
  br label %213

; <label>:213:                                    ; preds = %211, %210
  %214 = load i32, i32* @x.1
  %215 = load i32, i32* @y.2
  %216 = sub i32 %214, 1
  %217 = mul i32 %214, %216
  %218 = urem i32 %217, 2
  %219 = icmp eq i32 %218, 0
  %220 = icmp slt i32 %215, 10
  %221 = or i1 %219, %220
  br i1 %221, label %222, label %371

; <label>:222:                                    ; preds = %213, %371
  %223 = load i32, i32* @x.1
  %224 = load i32, i32* @y.2
  %225 = sub i32 %223, 1
  %226 = mul i32 %223, %225
  %227 = urem i32 %226, 2
  %228 = icmp eq i32 %227, 0
  %229 = icmp slt i32 %224, 10
  %230 = or i1 %228, %229
  br i1 %230, label %231, label %371

; <label>:231:                                    ; preds = %222
  br label %232

; <label>:232:                                    ; preds = %231, %144
  %233 = load i32, i32* @x.1
  %234 = load i32, i32* @y.2
  %235 = sub i32 %233, 1
  %236 = mul i32 %233, %235
  %237 = urem i32 %236, 2
  %238 = icmp eq i32 %237, 0
  %239 = icmp slt i32 %234, 10
  %240 = or i1 %238, %239
  br i1 %240, label %241, label %372

; <label>:241:                                    ; preds = %232, %372
  %242 = load i32, i32* @x.1
  %243 = load i32, i32* @y.2
  %244 = sub i32 %242, 1
  %245 = mul i32 %242, %244
  %246 = urem i32 %245, 2
  %247 = icmp eq i32 %246, 0
  %248 = icmp slt i32 %243, 10
  %249 = or i1 %247, %248
  br i1 %249, label %250, label %372

; <label>:250:                                    ; preds = %241
  br label %251

; <label>:251:                                    ; preds = %250
  %252 = load i32, i32* %12, align 4
  %253 = add nsw i32 %252, 1
  store i32 %253, i32* %12, align 4
  br label %20

; <label>:254:                                    ; preds = %20
  %255 = load i32, i32* @x.1
  %256 = load i32, i32* @y.2
  %257 = sub i32 %255, 1
  %258 = mul i32 %255, %257
  %259 = urem i32 %258, 2
  %260 = icmp eq i32 %259, 0
  %261 = icmp slt i32 %256, 10
  %262 = or i1 %260, %261
  br i1 %262, label %263, label %373

; <label>:263:                                    ; preds = %254, %373
  %264 = load i8, i8* %11, align 1
  %265 = trunc i8 %264 to i1
  %266 = load i32, i32* @x.1
  %267 = load i32, i32* @y.2
  %268 = sub i32 %266, 1
  %269 = mul i32 %266, %268
  %270 = urem i32 %269, 2
  %271 = icmp eq i32 %270, 0
  %272 = icmp slt i32 %267, 10
  %273 = or i1 %271, %272
  br i1 %273, label %274, label %373

; <label>:274:                                    ; preds = %263
  br i1 %265, label %275, label %323

; <label>:275:                                    ; preds = %274
  %276 = load i32, i32* @x.1
  %277 = load i32, i32* @y.2
  %278 = sub i32 %276, 1
  %279 = mul i32 %276, %278
  %280 = urem i32 %279, 2
  %281 = icmp eq i32 %280, 0
  %282 = icmp slt i32 %277, 10
  %283 = or i1 %281, %282
  br i1 %283, label %284, label %376

; <label>:284:                                    ; preds = %275, %376
  %285 = load i64, i64* %9, align 8
  %286 = load i32, i32* %10, align 4
  %287 = sext i32 %286 to i64
  %288 = load i32, i32* @x.1
  %289 = load i32, i32* @y.2
  %290 = sub i32 %288, 1
  %291 = mul i32 %288, %290
  %292 = urem i32 %291, 2
  %293 = icmp eq i32 %292, 0
  %294 = icmp slt i32 %289, 10
  %295 = or i1 %293, %294
  br i1 %295, label %296, label %376

; <label>:296:                                    ; preds = %284
  %297 = invoke dereferenceable(8) i64* @_ZNSt6vectorIxSaIxEE2atEm(%"class.std::vector"* %7, i64 %287)
          to label %298 unwind label %170

; <label>:298:                                    ; preds = %296
  %299 = load i64, i64* %297, align 8
  %300 = sub nsw i64 %285, %299
  %301 = invoke dereferenceable(272) %"class.std::basic_ostream"* @_ZNSolsEx(%"class.std::basic_ostream"* @_ZSt4cout, i64 %300)
          to label %302 unwind label %170

; <label>:302:                                    ; preds = %298
  %303 = load i32, i32* @x.1
  %304 = load i32, i32* @y.2
  %305 = sub i32 %303, 1
  %306 = mul i32 %303, %305
  %307 = urem i32 %306, 2
  %308 = icmp eq i32 %307, 0
  %309 = icmp slt i32 %304, 10
  %310 = or i1 %308, %309
  br i1 %310, label %311, label %380

; <label>:311:                                    ; preds = %302, %380
  %312 = load i32, i32* @x.1
  %313 = load i32, i32* @y.2
  %314 = sub i32 %312, 1
  %315 = mul i32 %312, %314
  %316 = urem i32 %315, 2
  %317 = icmp eq i32 %316, 0
  %318 = icmp slt i32 %313, 10
  %319 = or i1 %317, %318
  br i1 %319, label %320, label %380

; <label>:320:                                    ; preds = %311
  %321 = invoke dereferenceable(272) %"class.std::basic_ostream"* @_ZNSolsEPFRSoS_E(%"class.std::basic_ostream"* %301, %"class.std::basic_ostream"* (%"class.std::basic_ostream"*)* @_ZSt4endlIcSt11char_traitsIcEERSt13basic_ostreamIT_T0_ES6_)
          to label %322 unwind label %170

; <label>:322:                                    ; preds = %320
  br label %328

; <label>:323:                                    ; preds = %274
  %324 = invoke dereferenceable(272) %"class.std::basic_ostream"* @_ZNSolsEi(%"class.std::basic_ostream"* @_ZSt4cout, i32 0)
          to label %325 unwind label %170

; <label>:325:                                    ; preds = %323
  %326 = invoke dereferenceable(272) %"class.std::basic_ostream"* @_ZNSolsEPFRSoS_E(%"class.std::basic_ostream"* %324, %"class.std::basic_ostream"* (%"class.std::basic_ostream"*)* @_ZSt4endlIcSt11char_traitsIcEERSt13basic_ostreamIT_T0_ES6_)
          to label %327 unwind label %170

; <label>:327:                                    ; preds = %325
  br label %328

; <label>:328:                                    ; preds = %327, %322
  %329 = load i32, i32* @x.1
  %330 = load i32, i32* @y.2
  %331 = sub i32 %329, 1
  %332 = mul i32 %329, %331
  %333 = urem i32 %332, 2
  %334 = icmp eq i32 %333, 0
  %335 = icmp slt i32 %330, 10
  %336 = or i1 %334, %335
  br i1 %336, label %337, label %381

; <label>:337:                                    ; preds = %328, %381
  call void @_ZNSt6vectorIxSaIxEED2Ev(%"class.std::vector"* %7) #3
  call void @_ZNSt6vectorIxSaIxEED2Ev(%"class.std::vector"* %3) #3
  %338 = load i32, i32* %1, align 4
  %339 = load i32, i32* @x.1
  %340 = load i32, i32* @y.2
  %341 = sub i32 %339, 1
  %342 = mul i32 %339, %341
  %343 = urem i32 %342, 2
  %344 = icmp eq i32 %343, 0
  %345 = icmp slt i32 %340, 10
  %346 = or i1 %344, %345
  br i1 %346, label %347, label %381

; <label>:347:                                    ; preds = %337
  ret i32 %338

; <label>:348:                                    ; preds = %191, %166
  call void @_ZNSt6vectorIxSaIxEED2Ev(%"class.std::vector"* %3) #3
  br label %349

; <label>:349:                                    ; preds = %348, %162
  %350 = load i8*, i8** %5, align 8
  %351 = load i32, i32* %6, align 4
  %352 = insertvalue { i8*, i32 } undef, i8* %350, 0
  %353 = insertvalue { i8*, i32 } %352, i32 %351, 1
  resume { i8*, i32 } %353

; <label>:354:                                    ; preds = %37, %28
  br label %37

; <label>:355:                                    ; preds = %57, %48
  %356 = load i32, i32* %12, align 4
  %357 = sext i32 %356 to i64
  br label %57

; <label>:358:                                    ; preds = %79, %70
  br label %79

; <label>:359:                                    ; preds = %110, %101
  %360 = load i64, i64* %100, align 8
  %361 = load i32, i32* %12, align 4
  %362 = sext i32 %361 to i64
  br label %110

; <label>:363:                                    ; preds = %133, %124
  %364 = load i64, i64* %123, align 8
  %365 = icmp sgt i64 %111, %364
  br label %133

; <label>:366:                                    ; preds = %179, %170
  %367 = landingpad { i8*, i32 }
          cleanup
  %368 = extractvalue { i8*, i32 } %367, 0
  store i8* %368, i8** %5, align 8
  %369 = extractvalue { i8*, i32 } %367, 1
  store i32 %369, i32* %6, align 4
  call void @_ZNSt6vectorIxSaIxEED2Ev(%"class.std::vector"* %7) #3
  br label %179

; <label>:370:                                    ; preds = %201, %192
  br label %201

; <label>:371:                                    ; preds = %222, %213
  br label %222

; <label>:372:                                    ; preds = %241, %232
  br label %241

; <label>:373:                                    ; preds = %263, %254
  %374 = load i8, i8* %11, align 1
  %375 = trunc i8 %374 to i1
  br label %263

; <label>:376:                                    ; preds = %284, %275
  %377 = load i64, i64* %9, align 8
  %378 = load i32, i32* %10, align 4
  %379 = sext i32 %378 to i64
  br label %284

; <label>:380:                                    ; preds = %311, %302
  br label %311

; <label>:381:                                    ; preds = %337, %328
  call void @_ZNSt6vectorIxSaIxEED2Ev(%"class.std::vector"* %7) #3
  call void @_ZNSt6vectorIxSaIxEED2Ev(%"class.std::vector"* %3) #3
  %382 = load i32, i32* %1, align 4
  br label %337
}

declare dereferenceable(280) %"class.std::basic_istream"* @_ZNSirsERi(%"class.std::basic_istream"*, i32* dereferenceable(4)) #1

; Function Attrs: noinline nounwind uwtable
define linkonce_odr void @_ZNSaIxEC2Ev(%"class.std::allocator"*) unnamed_addr #5 comdat align 2 {
  %2 = alloca %"class.std::allocator"*, align 8
  store %"class.std::allocator"* %0, %"class.std::allocator"** %2, align 8
  %3 = load %"class.std::allocator"*, %"class.std::allocator"** %2, align 8
  %4 = bitcast %"class.std::allocator"* %3 to %"class.__gnu_cxx::new_allocator"*
  call void @_ZN9__gnu_cxx13new_allocatorIxEC2Ev(%"class.__gnu_cxx::new_allocator"* %4) #3
  ret void
}

; Function Attrs: noinline uwtable
define linkonce_odr void @_ZNSt6vectorIxSaIxEEC2EmRKS0_(%"class.std::vector"*, i64, %"class.std::allocator"* dereferenceable(1)) unnamed_addr #0 comdat align 2 personality i8* bitcast (i32 (...)* @__gxx_personality_v0 to i8*) {
  %4 = alloca %"class.std::vector"*, align 8
  %5 = alloca i64, align 8
  %6 = alloca %"class.std::allocator"*, align 8
  %7 = alloca i8*
  %8 = alloca i32
  store %"class.std::vector"* %0, %"class.std::vector"** %4, align 8
  store i64 %1, i64* %5, align 8
  store %"class.std::allocator"* %2, %"class.std::allocator"** %6, align 8
  %9 = load %"class.std::vector"*, %"class.std::vector"** %4, align 8
  %10 = bitcast %"class.std::vector"* %9 to %"struct.std::_Vector_base"*
  %11 = load i64, i64* %5, align 8
  %12 = load %"class.std::allocator"*, %"class.std::allocator"** %6, align 8
  call void @_ZNSt12_Vector_baseIxSaIxEEC2EmRKS0_(%"struct.std::_Vector_base"* %10, i64 %11, %"class.std::allocator"* dereferenceable(1) %12)
  %13 = load i64, i64* %5, align 8
  invoke void @_ZNSt6vectorIxSaIxEE21_M_default_initializeEm(%"class.std::vector"* %9, i64 %13)
          to label %14 unwind label %33

; <label>:14:                                     ; preds = %3
  %15 = load i32, i32* @x.5
  %16 = load i32, i32* @y.6
  %17 = sub i32 %15, 1
  %18 = mul i32 %15, %17
  %19 = urem i32 %18, 2
  %20 = icmp eq i32 %19, 0
  %21 = icmp slt i32 %16, 10
  %22 = or i1 %20, %21
  br i1 %22, label %23, label %61

; <label>:23:                                     ; preds = %14, %61
  %24 = load i32, i32* @x.5
  %25 = load i32, i32* @y.6
  %26 = sub i32 %24, 1
  %27 = mul i32 %24, %26
  %28 = urem i32 %27, 2
  %29 = icmp eq i32 %28, 0
  %30 = icmp slt i32 %25, 10
  %31 = or i1 %29, %30
  br i1 %31, label %32, label %61

; <label>:32:                                     ; preds = %23
  ret void

; <label>:33:                                     ; preds = %3
  %34 = load i32, i32* @x.5
  %35 = load i32, i32* @y.6
  %36 = sub i32 %34, 1
  %37 = mul i32 %34, %36
  %38 = urem i32 %37, 2
  %39 = icmp eq i32 %38, 0
  %40 = icmp slt i32 %35, 10
  %41 = or i1 %39, %40
  br i1 %41, label %42, label %62

; <label>:42:                                     ; preds = %33, %62
  %43 = landingpad { i8*, i32 }
          cleanup
  %44 = extractvalue { i8*, i32 } %43, 0
  store i8* %44, i8** %7, align 8
  %45 = extractvalue { i8*, i32 } %43, 1
  store i32 %45, i32* %8, align 4
  %46 = bitcast %"class.std::vector"* %9 to %"struct.std::_Vector_base"*
  call void @_ZNSt12_Vector_baseIxSaIxEED2Ev(%"struct.std::_Vector_base"* %46) #3
  %47 = load i32, i32* @x.5
  %48 = load i32, i32* @y.6
  %49 = sub i32 %47, 1
  %50 = mul i32 %47, %49
  %51 = urem i32 %50, 2
  %52 = icmp eq i32 %51, 0
  %53 = icmp slt i32 %48, 10
  %54 = or i1 %52, %53
  br i1 %54, label %55, label %62

; <label>:55:                                     ; preds = %42
  br label %56

; <label>:56:                                     ; preds = %55
  %57 = load i8*, i8** %7, align 8
  %58 = load i32, i32* %8, align 4
  %59 = insertvalue { i8*, i32 } undef, i8* %57, 0
  %60 = insertvalue { i8*, i32 } %59, i32 %58, 1
  resume { i8*, i32 } %60

; <label>:61:                                     ; preds = %23, %14
  br label %23

; <label>:62:                                     ; preds = %42, %33
  %63 = landingpad { i8*, i32 }
          cleanup
  %64 = extractvalue { i8*, i32 } %63, 0
  store i8* %64, i8** %7, align 8
  %65 = extractvalue { i8*, i32 } %63, 1
  store i32 %65, i32* %8, align 4
  %66 = bitcast %"class.std::vector"* %9 to %"struct.std::_Vector_base"*
  call void @_ZNSt12_Vector_baseIxSaIxEED2Ev(%"struct.std::_Vector_base"* %66) #3
  br label %42
}

declare i32 @__gxx_personality_v0(...)

; Function Attrs: noinline nounwind uwtable
define linkonce_odr void @_ZNSaIxED2Ev(%"class.std::allocator"*) unnamed_addr #5 comdat align 2 {
  %2 = load i32, i32* @x.7
  %3 = load i32, i32* @y.8
  %4 = sub i32 %2, 1
  %5 = mul i32 %2, %4
  %6 = urem i32 %5, 2
  %7 = icmp eq i32 %6, 0
  %8 = icmp slt i32 %3, 10
  %9 = or i1 %7, %8
  br i1 %9, label %10, label %23

; <label>:10:                                     ; preds = %1, %23
  %11 = alloca %"class.std::allocator"*, align 8
  store %"class.std::allocator"* %0, %"class.std::allocator"** %11, align 8
  %12 = load %"class.std::allocator"*, %"class.std::allocator"** %11, align 8
  %13 = bitcast %"class.std::allocator"* %12 to %"class.__gnu_cxx::new_allocator"*
  call void @_ZN9__gnu_cxx13new_allocatorIxED2Ev(%"class.__gnu_cxx::new_allocator"* %13) #3
  %14 = load i32, i32* @x.7
  %15 = load i32, i32* @y.8
  %16 = sub i32 %14, 1
  %17 = mul i32 %14, %16
  %18 = urem i32 %17, 2
  %19 = icmp eq i32 %18, 0
  %20 = icmp slt i32 %15, 10
  %21 = or i1 %19, %20
  br i1 %21, label %22, label %23

; <label>:22:                                     ; preds = %10
  ret void

; <label>:23:                                     ; preds = %10, %1
  %24 = alloca %"class.std::allocator"*, align 8
  store %"class.std::allocator"* %0, %"class.std::allocator"** %24, align 8
  %25 = load %"class.std::allocator"*, %"class.std::allocator"** %24, align 8
  %26 = bitcast %"class.std::allocator"* %25 to %"class.__gnu_cxx::new_allocator"*
  call void @_ZN9__gnu_cxx13new_allocatorIxED2Ev(%"class.__gnu_cxx::new_allocator"* %26) #3
  br label %10
}

declare dereferenceable(280) %"class.std::basic_istream"* @_ZNSirsERx(%"class.std::basic_istream"*, i64* dereferenceable(8)) #1

; Function Attrs: noinline uwtable
define linkonce_odr dereferenceable(8) i64* @_ZNSt6vectorIxSaIxEE2atEm(%"class.std::vector"*, i64) #0 comdat align 2 {
  %3 = load i32, i32* @x.9
  %4 = load i32, i32* @y.10
  %5 = sub i32 %3, 1
  %6 = mul i32 %3, %5
  %7 = urem i32 %6, 2
  %8 = icmp eq i32 %7, 0
  %9 = icmp slt i32 %4, 10
  %10 = or i1 %8, %9
  br i1 %10, label %11, label %27

; <label>:11:                                     ; preds = %2, %27
  %12 = alloca %"class.std::vector"*, align 8
  %13 = alloca i64, align 8
  store %"class.std::vector"* %0, %"class.std::vector"** %12, align 8
  store i64 %1, i64* %13, align 8
  %14 = load %"class.std::vector"*, %"class.std::vector"** %12, align 8
  %15 = load i64, i64* %13, align 8
  call void @_ZNKSt6vectorIxSaIxEE14_M_range_checkEm(%"class.std::vector"* %14, i64 %15)
  %16 = load i64, i64* %13, align 8
  %17 = call dereferenceable(8) i64* @_ZNSt6vectorIxSaIxEEixEm(%"class.std::vector"* %14, i64 %16) #3
  %18 = load i32, i32* @x.9
  %19 = load i32, i32* @y.10
  %20 = sub i32 %18, 1
  %21 = mul i32 %18, %20
  %22 = urem i32 %21, 2
  %23 = icmp eq i32 %22, 0
  %24 = icmp slt i32 %19, 10
  %25 = or i1 %23, %24
  br i1 %25, label %26, label %27

; <label>:26:                                     ; preds = %11
  ret i64* %17

; <label>:27:                                     ; preds = %11, %2
  %28 = alloca %"class.std::vector"*, align 8
  %29 = alloca i64, align 8
  store %"class.std::vector"* %0, %"class.std::vector"** %28, align 8
  store i64 %1, i64* %29, align 8
  %30 = load %"class.std::vector"*, %"class.std::vector"** %28, align 8
  %31 = load i64, i64* %29, align 8
  call void @_ZNKSt6vectorIxSaIxEE14_M_range_checkEm(%"class.std::vector"* %30, i64 %31)
  %32 = load i64, i64* %29, align 8
  %33 = call dereferenceable(8) i64* @_ZNSt6vectorIxSaIxEEixEm(%"class.std::vector"* %30, i64 %32) #3
  br label %11
}

declare dereferenceable(272) %"class.std::basic_ostream"* @_ZNSolsEx(%"class.std::basic_ostream"*, i64) #1

declare dereferenceable(272) %"class.std::basic_ostream"* @_ZNSolsEPFRSoS_E(%"class.std::basic_ostream"*, %"class.std::basic_ostream"* (%"class.std::basic_ostream"*)*) #1

declare dereferenceable(272) %"class.std::basic_ostream"* @_ZSt4endlIcSt11char_traitsIcEERSt13basic_ostreamIT_T0_ES6_(%"class.std::basic_ostream"* dereferenceable(272)) #1

declare dereferenceable(272) %"class.std::basic_ostream"* @_ZNSolsEi(%"class.std::basic_ostream"*, i32) #1

; Function Attrs: noinline nounwind uwtable
define linkonce_odr void @_ZNSt6vectorIxSaIxEED2Ev(%"class.std::vector"*) unnamed_addr #5 comdat align 2 personality i8* bitcast (i32 (...)* @__gxx_personality_v0 to i8*) {
  %2 = alloca %"class.std::vector"*, align 8
  %3 = alloca i8*
  %4 = alloca i32
  store %"class.std::vector"* %0, %"class.std::vector"** %2, align 8
  %5 = load %"class.std::vector"*, %"class.std::vector"** %2, align 8
  %6 = bitcast %"class.std::vector"* %5 to %"struct.std::_Vector_base"*
  %7 = getelementptr inbounds %"struct.std::_Vector_base", %"struct.std::_Vector_base"* %6, i32 0, i32 0
  %8 = getelementptr inbounds %"struct.std::_Vector_base<long long, std::allocator<long long> >::_Vector_impl", %"struct.std::_Vector_base<long long, std::allocator<long long> >::_Vector_impl"* %7, i32 0, i32 0
  %9 = load i64*, i64** %8, align 8
  %10 = bitcast %"class.std::vector"* %5 to %"struct.std::_Vector_base"*
  %11 = getelementptr inbounds %"struct.std::_Vector_base", %"struct.std::_Vector_base"* %10, i32 0, i32 0
  %12 = getelementptr inbounds %"struct.std::_Vector_base<long long, std::allocator<long long> >::_Vector_impl", %"struct.std::_Vector_base<long long, std::allocator<long long> >::_Vector_impl"* %11, i32 0, i32 1
  %13 = load i64*, i64** %12, align 8
  %14 = bitcast %"class.std::vector"* %5 to %"struct.std::_Vector_base"*
  %15 = call dereferenceable(1) %"class.std::allocator"* @_ZNSt12_Vector_baseIxSaIxEE19_M_get_Tp_allocatorEv(%"struct.std::_Vector_base"* %14) #3
  invoke void @_ZSt8_DestroyIPxxEvT_S1_RSaIT0_E(i64* %9, i64* %13, %"class.std::allocator"* dereferenceable(1) %15)
          to label %16 unwind label %18

; <label>:16:                                     ; preds = %1
  %17 = bitcast %"class.std::vector"* %5 to %"struct.std::_Vector_base"*
  call void @_ZNSt12_Vector_baseIxSaIxEED2Ev(%"struct.std::_Vector_base"* %17) #3
  ret void

; <label>:18:                                     ; preds = %1
  %19 = landingpad { i8*, i32 }
          catch i8* null
  %20 = extractvalue { i8*, i32 } %19, 0
  store i8* %20, i8** %3, align 8
  %21 = extractvalue { i8*, i32 } %19, 1
  store i32 %21, i32* %4, align 4
  %22 = bitcast %"class.std::vector"* %5 to %"struct.std::_Vector_base"*
  call void @_ZNSt12_Vector_baseIxSaIxEED2Ev(%"struct.std::_Vector_base"* %22) #3
  br label %23

; <label>:23:                                     ; preds = %18
  %24 = load i8*, i8** %3, align 8
  call void @__clang_call_terminate(i8* %24) #10
  unreachable
}

; Function Attrs: noinline nounwind uwtable
define linkonce_odr void @_ZN9__gnu_cxx13new_allocatorIxEC2Ev(%"class.__gnu_cxx::new_allocator"*) unnamed_addr #5 comdat align 2 {
  %2 = alloca %"class.__gnu_cxx::new_allocator"*, align 8
  store %"class.__gnu_cxx::new_allocator"* %0, %"class.__gnu_cxx::new_allocator"** %2, align 8
  %3 = load %"class.__gnu_cxx::new_allocator"*, %"class.__gnu_cxx::new_allocator"** %2, align 8
  ret void
}

; Function Attrs: noinline nounwind uwtable
define linkonce_odr void @_ZN9__gnu_cxx13new_allocatorIxED2Ev(%"class.__gnu_cxx::new_allocator"*) unnamed_addr #5 comdat align 2 {
  %2 = alloca %"class.__gnu_cxx::new_allocator"*, align 8
  store %"class.__gnu_cxx::new_allocator"* %0, %"class.__gnu_cxx::new_allocator"** %2, align 8
  %3 = load %"class.__gnu_cxx::new_allocator"*, %"class.__gnu_cxx::new_allocator"** %2, align 8
  ret void
}

; Function Attrs: noinline uwtable
define linkonce_odr void @_ZNSt12_Vector_baseIxSaIxEEC2EmRKS0_(%"struct.std::_Vector_base"*, i64, %"class.std::allocator"* dereferenceable(1)) unnamed_addr #0 comdat align 2 personality i8* bitcast (i32 (...)* @__gxx_personality_v0 to i8*) {
  %4 = alloca %"struct.std::_Vector_base"*, align 8
  %5 = alloca i64, align 8
  %6 = alloca %"class.std::allocator"*, align 8
  %7 = alloca i8*
  %8 = alloca i32
  store %"struct.std::_Vector_base"* %0, %"struct.std::_Vector_base"** %4, align 8
  store i64 %1, i64* %5, align 8
  store %"class.std::allocator"* %2, %"class.std::allocator"** %6, align 8
  %9 = load %"struct.std::_Vector_base"*, %"struct.std::_Vector_base"** %4, align 8
  %10 = getelementptr inbounds %"struct.std::_Vector_base", %"struct.std::_Vector_base"* %9, i32 0, i32 0
  %11 = load %"class.std::allocator"*, %"class.std::allocator"** %6, align 8
  call void @_ZNSt12_Vector_baseIxSaIxEE12_Vector_implC2ERKS0_(%"struct.std::_Vector_base<long long, std::allocator<long long> >::_Vector_impl"* %10, %"class.std::allocator"* dereferenceable(1) %11) #3
  %12 = load i64, i64* %5, align 8
  invoke void @_ZNSt12_Vector_baseIxSaIxEE17_M_create_storageEm(%"struct.std::_Vector_base"* %9, i64 %12)
          to label %13 unwind label %14

; <label>:13:                                     ; preds = %3
  ret void

; <label>:14:                                     ; preds = %3
  %15 = landingpad { i8*, i32 }
          cleanup
  %16 = extractvalue { i8*, i32 } %15, 0
  store i8* %16, i8** %7, align 8
  %17 = extractvalue { i8*, i32 } %15, 1
  store i32 %17, i32* %8, align 4
  call void @_ZNSt12_Vector_baseIxSaIxEE12_Vector_implD2Ev(%"struct.std::_Vector_base<long long, std::allocator<long long> >::_Vector_impl"* %10) #3
  br label %18

; <label>:18:                                     ; preds = %14
  %19 = load i8*, i8** %7, align 8
  %20 = load i32, i32* %8, align 4
  %21 = insertvalue { i8*, i32 } undef, i8* %19, 0
  %22 = insertvalue { i8*, i32 } %21, i32 %20, 1
  resume { i8*, i32 } %22
}

; Function Attrs: noinline uwtable
define linkonce_odr void @_ZNSt6vectorIxSaIxEE21_M_default_initializeEm(%"class.std::vector"*, i64) #0 comdat align 2 {
  %3 = load i32, i32* @x.19
  %4 = load i32, i32* @y.20
  %5 = sub i32 %3, 1
  %6 = mul i32 %3, %5
  %7 = urem i32 %6, 2
  %8 = icmp eq i32 %7, 0
  %9 = icmp slt i32 %4, 10
  %10 = or i1 %8, %9
  br i1 %10, label %11, label %35

; <label>:11:                                     ; preds = %2, %35
  %12 = alloca %"class.std::vector"*, align 8
  %13 = alloca i64, align 8
  store %"class.std::vector"* %0, %"class.std::vector"** %12, align 8
  store i64 %1, i64* %13, align 8
  %14 = load %"class.std::vector"*, %"class.std::vector"** %12, align 8
  %15 = bitcast %"class.std::vector"* %14 to %"struct.std::_Vector_base"*
  %16 = getelementptr inbounds %"struct.std::_Vector_base", %"struct.std::_Vector_base"* %15, i32 0, i32 0
  %17 = getelementptr inbounds %"struct.std::_Vector_base<long long, std::allocator<long long> >::_Vector_impl", %"struct.std::_Vector_base<long long, std::allocator<long long> >::_Vector_impl"* %16, i32 0, i32 0
  %18 = load i64*, i64** %17, align 8
  %19 = load i64, i64* %13, align 8
  %20 = bitcast %"class.std::vector"* %14 to %"struct.std::_Vector_base"*
  %21 = call dereferenceable(1) %"class.std::allocator"* @_ZNSt12_Vector_baseIxSaIxEE19_M_get_Tp_allocatorEv(%"struct.std::_Vector_base"* %20) #3
  %22 = call i64* @_ZSt27__uninitialized_default_n_aIPxmxET_S1_T0_RSaIT1_E(i64* %18, i64 %19, %"class.std::allocator"* dereferenceable(1) %21)
  %23 = bitcast %"class.std::vector"* %14 to %"struct.std::_Vector_base"*
  %24 = getelementptr inbounds %"struct.std::_Vector_base", %"struct.std::_Vector_base"* %23, i32 0, i32 0
  %25 = getelementptr inbounds %"struct.std::_Vector_base<long long, std::allocator<long long> >::_Vector_impl", %"struct.std::_Vector_base<long long, std::allocator<long long> >::_Vector_impl"* %24, i32 0, i32 1
  store i64* %22, i64** %25, align 8
  %26 = load i32, i32* @x.19
  %27 = load i32, i32* @y.20
  %28 = sub i32 %26, 1
  %29 = mul i32 %26, %28
  %30 = urem i32 %29, 2
  %31 = icmp eq i32 %30, 0
  %32 = icmp slt i32 %27, 10
  %33 = or i1 %31, %32
  br i1 %33, label %34, label %35

; <label>:34:                                     ; preds = %11
  ret void

; <label>:35:                                     ; preds = %11, %2
  %36 = alloca %"class.std::vector"*, align 8
  %37 = alloca i64, align 8
  store %"class.std::vector"* %0, %"class.std::vector"** %36, align 8
  store i64 %1, i64* %37, align 8
  %38 = load %"class.std::vector"*, %"class.std::vector"** %36, align 8
  %39 = bitcast %"class.std::vector"* %38 to %"struct.std::_Vector_base"*
  %40 = getelementptr inbounds %"struct.std::_Vector_base", %"struct.std::_Vector_base"* %39, i32 0, i32 0
  %41 = getelementptr inbounds %"struct.std::_Vector_base<long long, std::allocator<long long> >::_Vector_impl", %"struct.std::_Vector_base<long long, std::allocator<long long> >::_Vector_impl"* %40, i32 0, i32 0
  %42 = load i64*, i64** %41, align 8
  %43 = load i64, i64* %37, align 8
  %44 = bitcast %"class.std::vector"* %38 to %"struct.std::_Vector_base"*
  %45 = call dereferenceable(1) %"class.std::allocator"* @_ZNSt12_Vector_baseIxSaIxEE19_M_get_Tp_allocatorEv(%"struct.std::_Vector_base"* %44) #3
  %46 = call i64* @_ZSt27__uninitialized_default_n_aIPxmxET_S1_T0_RSaIT1_E(i64* %42, i64 %43, %"class.std::allocator"* dereferenceable(1) %45)
  %47 = bitcast %"class.std::vector"* %38 to %"struct.std::_Vector_base"*
  %48 = getelementptr inbounds %"struct.std::_Vector_base", %"struct.std::_Vector_base"* %47, i32 0, i32 0
  %49 = getelementptr inbounds %"struct.std::_Vector_base<long long, std::allocator<long long> >::_Vector_impl", %"struct.std::_Vector_base<long long, std::allocator<long long> >::_Vector_impl"* %48, i32 0, i32 1
  store i64* %46, i64** %49, align 8
  br label %11
}

; Function Attrs: noinline nounwind uwtable
define linkonce_odr void @_ZNSt12_Vector_baseIxSaIxEED2Ev(%"struct.std::_Vector_base"*) unnamed_addr #5 comdat align 2 personality i8* bitcast (i32 (...)* @__gxx_personality_v0 to i8*) {
  %2 = alloca %"struct.std::_Vector_base"*, align 8
  %3 = alloca i8*
  %4 = alloca i32
  store %"struct.std::_Vector_base"* %0, %"struct.std::_Vector_base"** %2, align 8
  %5 = load %"struct.std::_Vector_base"*, %"struct.std::_Vector_base"** %2, align 8
  %6 = getelementptr inbounds %"struct.std::_Vector_base", %"struct.std::_Vector_base"* %5, i32 0, i32 0
  %7 = getelementptr inbounds %"struct.std::_Vector_base<long long, std::allocator<long long> >::_Vector_impl", %"struct.std::_Vector_base<long long, std::allocator<long long> >::_Vector_impl"* %6, i32 0, i32 0
  %8 = load i64*, i64** %7, align 8
  %9 = getelementptr inbounds %"struct.std::_Vector_base", %"struct.std::_Vector_base"* %5, i32 0, i32 0
  %10 = getelementptr inbounds %"struct.std::_Vector_base<long long, std::allocator<long long> >::_Vector_impl", %"struct.std::_Vector_base<long long, std::allocator<long long> >::_Vector_impl"* %9, i32 0, i32 2
  %11 = load i64*, i64** %10, align 8
  %12 = getelementptr inbounds %"struct.std::_Vector_base", %"struct.std::_Vector_base"* %5, i32 0, i32 0
  %13 = getelementptr inbounds %"struct.std::_Vector_base<long long, std::allocator<long long> >::_Vector_impl", %"struct.std::_Vector_base<long long, std::allocator<long long> >::_Vector_impl"* %12, i32 0, i32 0
  %14 = load i64*, i64** %13, align 8
  %15 = ptrtoint i64* %11 to i64
  %16 = ptrtoint i64* %14 to i64
  %17 = sub i64 %15, %16
  %18 = sdiv exact i64 %17, 8
  invoke void @_ZNSt12_Vector_baseIxSaIxEE13_M_deallocateEPxm(%"struct.std::_Vector_base"* %5, i64* %8, i64 %18)
          to label %19 unwind label %21

; <label>:19:                                     ; preds = %1
  %20 = getelementptr inbounds %"struct.std::_Vector_base", %"struct.std::_Vector_base"* %5, i32 0, i32 0
  call void @_ZNSt12_Vector_baseIxSaIxEE12_Vector_implD2Ev(%"struct.std::_Vector_base<long long, std::allocator<long long> >::_Vector_impl"* %20) #3
  ret void

; <label>:21:                                     ; preds = %1
  %22 = load i32, i32* @x.21
  %23 = load i32, i32* @y.22
  %24 = sub i32 %22, 1
  %25 = mul i32 %22, %24
  %26 = urem i32 %25, 2
  %27 = icmp eq i32 %26, 0
  %28 = icmp slt i32 %23, 10
  %29 = or i1 %27, %28
  br i1 %29, label %30, label %46

; <label>:30:                                     ; preds = %21, %46
  %31 = landingpad { i8*, i32 }
          catch i8* null
  %32 = extractvalue { i8*, i32 } %31, 0
  store i8* %32, i8** %3, align 8
  %33 = extractvalue { i8*, i32 } %31, 1
  store i32 %33, i32* %4, align 4
  %34 = getelementptr inbounds %"struct.std::_Vector_base", %"struct.std::_Vector_base"* %5, i32 0, i32 0
  call void @_ZNSt12_Vector_baseIxSaIxEE12_Vector_implD2Ev(%"struct.std::_Vector_base<long long, std::allocator<long long> >::_Vector_impl"* %34) #3
  %35 = load i32, i32* @x.21
  %36 = load i32, i32* @y.22
  %37 = sub i32 %35, 1
  %38 = mul i32 %35, %37
  %39 = urem i32 %38, 2
  %40 = icmp eq i32 %39, 0
  %41 = icmp slt i32 %36, 10
  %42 = or i1 %40, %41
  br i1 %42, label %43, label %46

; <label>:43:                                     ; preds = %30
  br label %44

; <label>:44:                                     ; preds = %43
  %45 = load i8*, i8** %3, align 8
  call void @__clang_call_terminate(i8* %45) #10
  unreachable

; <label>:46:                                     ; preds = %30, %21
  %47 = landingpad { i8*, i32 }
          catch i8* null
  %48 = extractvalue { i8*, i32 } %47, 0
  store i8* %48, i8** %3, align 8
  %49 = extractvalue { i8*, i32 } %47, 1
  store i32 %49, i32* %4, align 4
  %50 = getelementptr inbounds %"struct.std::_Vector_base", %"struct.std::_Vector_base"* %5, i32 0, i32 0
  call void @_ZNSt12_Vector_baseIxSaIxEE12_Vector_implD2Ev(%"struct.std::_Vector_base<long long, std::allocator<long long> >::_Vector_impl"* %50) #3
  br label %30
}

; Function Attrs: noinline nounwind uwtable
define linkonce_odr void @_ZNSt12_Vector_baseIxSaIxEE12_Vector_implC2ERKS0_(%"struct.std::_Vector_base<long long, std::allocator<long long> >::_Vector_impl"*, %"class.std::allocator"* dereferenceable(1)) unnamed_addr #5 comdat align 2 {
  %3 = alloca %"struct.std::_Vector_base<long long, std::allocator<long long> >::_Vector_impl"*, align 8
  %4 = alloca %"class.std::allocator"*, align 8
  store %"struct.std::_Vector_base<long long, std::allocator<long long> >::_Vector_impl"* %0, %"struct.std::_Vector_base<long long, std::allocator<long long> >::_Vector_impl"** %3, align 8
  store %"class.std::allocator"* %1, %"class.std::allocator"** %4, align 8
  %5 = load %"struct.std::_Vector_base<long long, std::allocator<long long> >::_Vector_impl"*, %"struct.std::_Vector_base<long long, std::allocator<long long> >::_Vector_impl"** %3, align 8
  %6 = bitcast %"struct.std::_Vector_base<long long, std::allocator<long long> >::_Vector_impl"* %5 to %"class.std::allocator"*
  %7 = load %"class.std::allocator"*, %"class.std::allocator"** %4, align 8
  call void @_ZNSaIxEC2ERKS_(%"class.std::allocator"* %6, %"class.std::allocator"* dereferenceable(1) %7) #3
  %8 = getelementptr inbounds %"struct.std::_Vector_base<long long, std::allocator<long long> >::_Vector_impl", %"struct.std::_Vector_base<long long, std::allocator<long long> >::_Vector_impl"* %5, i32 0, i32 0
  store i64* null, i64** %8, align 8
  %9 = getelementptr inbounds %"struct.std::_Vector_base<long long, std::allocator<long long> >::_Vector_impl", %"struct.std::_Vector_base<long long, std::allocator<long long> >::_Vector_impl"* %5, i32 0, i32 1
  store i64* null, i64** %9, align 8
  %10 = getelementptr inbounds %"struct.std::_Vector_base<long long, std::allocator<long long> >::_Vector_impl", %"struct.std::_Vector_base<long long, std::allocator<long long> >::_Vector_impl"* %5, i32 0, i32 2
  store i64* null, i64** %10, align 8
  ret void
}

; Function Attrs: noinline uwtable
define linkonce_odr void @_ZNSt12_Vector_baseIxSaIxEE17_M_create_storageEm(%"struct.std::_Vector_base"*, i64) #0 comdat align 2 {
  %3 = load i32, i32* @x.25
  %4 = load i32, i32* @y.26
  %5 = sub i32 %3, 1
  %6 = mul i32 %3, %5
  %7 = urem i32 %6, 2
  %8 = icmp eq i32 %7, 0
  %9 = icmp slt i32 %4, 10
  %10 = or i1 %8, %9
  br i1 %10, label %11, label %40

; <label>:11:                                     ; preds = %2, %40
  %12 = alloca %"struct.std::_Vector_base"*, align 8
  %13 = alloca i64, align 8
  store %"struct.std::_Vector_base"* %0, %"struct.std::_Vector_base"** %12, align 8
  store i64 %1, i64* %13, align 8
  %14 = load %"struct.std::_Vector_base"*, %"struct.std::_Vector_base"** %12, align 8
  %15 = load i64, i64* %13, align 8
  %16 = call i64* @_ZNSt12_Vector_baseIxSaIxEE11_M_allocateEm(%"struct.std::_Vector_base"* %14, i64 %15)
  %17 = getelementptr inbounds %"struct.std::_Vector_base", %"struct.std::_Vector_base"* %14, i32 0, i32 0
  %18 = getelementptr inbounds %"struct.std::_Vector_base<long long, std::allocator<long long> >::_Vector_impl", %"struct.std::_Vector_base<long long, std::allocator<long long> >::_Vector_impl"* %17, i32 0, i32 0
  store i64* %16, i64** %18, align 8
  %19 = getelementptr inbounds %"struct.std::_Vector_base", %"struct.std::_Vector_base"* %14, i32 0, i32 0
  %20 = getelementptr inbounds %"struct.std::_Vector_base<long long, std::allocator<long long> >::_Vector_impl", %"struct.std::_Vector_base<long long, std::allocator<long long> >::_Vector_impl"* %19, i32 0, i32 0
  %21 = load i64*, i64** %20, align 8
  %22 = getelementptr inbounds %"struct.std::_Vector_base", %"struct.std::_Vector_base"* %14, i32 0, i32 0
  %23 = getelementptr inbounds %"struct.std::_Vector_base<long long, std::allocator<long long> >::_Vector_impl", %"struct.std::_Vector_base<long long, std::allocator<long long> >::_Vector_impl"* %22, i32 0, i32 1
  store i64* %21, i64** %23, align 8
  %24 = getelementptr inbounds %"struct.std::_Vector_base", %"struct.std::_Vector_base"* %14, i32 0, i32 0
  %25 = getelementptr inbounds %"struct.std::_Vector_base<long long, std::allocator<long long> >::_Vector_impl", %"struct.std::_Vector_base<long long, std::allocator<long long> >::_Vector_impl"* %24, i32 0, i32 0
  %26 = load i64*, i64** %25, align 8
  %27 = load i64, i64* %13, align 8
  %28 = getelementptr inbounds i64, i64* %26, i64 %27
  %29 = getelementptr inbounds %"struct.std::_Vector_base", %"struct.std::_Vector_base"* %14, i32 0, i32 0
  %30 = getelementptr inbounds %"struct.std::_Vector_base<long long, std::allocator<long long> >::_Vector_impl", %"struct.std::_Vector_base<long long, std::allocator<long long> >::_Vector_impl"* %29, i32 0, i32 2
  store i64* %28, i64** %30, align 8
  %31 = load i32, i32* @x.25
  %32 = load i32, i32* @y.26
  %33 = sub i32 %31, 1
  %34 = mul i32 %31, %33
  %35 = urem i32 %34, 2
  %36 = icmp eq i32 %35, 0
  %37 = icmp slt i32 %32, 10
  %38 = or i1 %36, %37
  br i1 %38, label %39, label %40

; <label>:39:                                     ; preds = %11
  ret void

; <label>:40:                                     ; preds = %11, %2
  %41 = alloca %"struct.std::_Vector_base"*, align 8
  %42 = alloca i64, align 8
  store %"struct.std::_Vector_base"* %0, %"struct.std::_Vector_base"** %41, align 8
  store i64 %1, i64* %42, align 8
  %43 = load %"struct.std::_Vector_base"*, %"struct.std::_Vector_base"** %41, align 8
  %44 = load i64, i64* %42, align 8
  %45 = call i64* @_ZNSt12_Vector_baseIxSaIxEE11_M_allocateEm(%"struct.std::_Vector_base"* %43, i64 %44)
  %46 = getelementptr inbounds %"struct.std::_Vector_base", %"struct.std::_Vector_base"* %43, i32 0, i32 0
  %47 = getelementptr inbounds %"struct.std::_Vector_base<long long, std::allocator<long long> >::_Vector_impl", %"struct.std::_Vector_base<long long, std::allocator<long long> >::_Vector_impl"* %46, i32 0, i32 0
  store i64* %45, i64** %47, align 8
  %48 = getelementptr inbounds %"struct.std::_Vector_base", %"struct.std::_Vector_base"* %43, i32 0, i32 0
  %49 = getelementptr inbounds %"struct.std::_Vector_base<long long, std::allocator<long long> >::_Vector_impl", %"struct.std::_Vector_base<long long, std::allocator<long long> >::_Vector_impl"* %48, i32 0, i32 0
  %50 = load i64*, i64** %49, align 8
  %51 = getelementptr inbounds %"struct.std::_Vector_base", %"struct.std::_Vector_base"* %43, i32 0, i32 0
  %52 = getelementptr inbounds %"struct.std::_Vector_base<long long, std::allocator<long long> >::_Vector_impl", %"struct.std::_Vector_base<long long, std::allocator<long long> >::_Vector_impl"* %51, i32 0, i32 1
  store i64* %50, i64** %52, align 8
  %53 = getelementptr inbounds %"struct.std::_Vector_base", %"struct.std::_Vector_base"* %43, i32 0, i32 0
  %54 = getelementptr inbounds %"struct.std::_Vector_base<long long, std::allocator<long long> >::_Vector_impl", %"struct.std::_Vector_base<long long, std::allocator<long long> >::_Vector_impl"* %53, i32 0, i32 0
  %55 = load i64*, i64** %54, align 8
  %56 = load i64, i64* %42, align 8
  %57 = getelementptr inbounds i64, i64* %55, i64 %56
  %58 = getelementptr inbounds %"struct.std::_Vector_base", %"struct.std::_Vector_base"* %43, i32 0, i32 0
  %59 = getelementptr inbounds %"struct.std::_Vector_base<long long, std::allocator<long long> >::_Vector_impl", %"struct.std::_Vector_base<long long, std::allocator<long long> >::_Vector_impl"* %58, i32 0, i32 2
  store i64* %57, i64** %59, align 8
  br label %11
}

; Function Attrs: noinline nounwind uwtable
define linkonce_odr void @_ZNSt12_Vector_baseIxSaIxEE12_Vector_implD2Ev(%"struct.std::_Vector_base<long long, std::allocator<long long> >::_Vector_impl"*) unnamed_addr #5 comdat align 2 {
  %2 = alloca %"struct.std::_Vector_base<long long, std::allocator<long long> >::_Vector_impl"*, align 8
  store %"struct.std::_Vector_base<long long, std::allocator<long long> >::_Vector_impl"* %0, %"struct.std::_Vector_base<long long, std::allocator<long long> >::_Vector_impl"** %2, align 8
  %3 = load %"struct.std::_Vector_base<long long, std::allocator<long long> >::_Vector_impl"*, %"struct.std::_Vector_base<long long, std::allocator<long long> >::_Vector_impl"** %2, align 8
  %4 = bitcast %"struct.std::_Vector_base<long long, std::allocator<long long> >::_Vector_impl"* %3 to %"class.std::allocator"*
  call void @_ZNSaIxED2Ev(%"class.std::allocator"* %4) #3
  ret void
}

; Function Attrs: noinline nounwind uwtable
define linkonce_odr void @_ZNSaIxEC2ERKS_(%"class.std::allocator"*, %"class.std::allocator"* dereferenceable(1)) unnamed_addr #5 comdat align 2 {
  %3 = alloca %"class.std::allocator"*, align 8
  %4 = alloca %"class.std::allocator"*, align 8
  store %"class.std::allocator"* %0, %"class.std::allocator"** %3, align 8
  store %"class.std::allocator"* %1, %"class.std::allocator"** %4, align 8
  %5 = load %"class.std::allocator"*, %"class.std::allocator"** %3, align 8
  %6 = bitcast %"class.std::allocator"* %5 to %"class.__gnu_cxx::new_allocator"*
  %7 = load %"class.std::allocator"*, %"class.std::allocator"** %4, align 8
  %8 = bitcast %"class.std::allocator"* %7 to %"class.__gnu_cxx::new_allocator"*
  call void @_ZN9__gnu_cxx13new_allocatorIxEC2ERKS1_(%"class.__gnu_cxx::new_allocator"* %6, %"class.__gnu_cxx::new_allocator"* dereferenceable(1) %8) #3
  ret void
}

; Function Attrs: noinline nounwind uwtable
define linkonce_odr void @_ZN9__gnu_cxx13new_allocatorIxEC2ERKS1_(%"class.__gnu_cxx::new_allocator"*, %"class.__gnu_cxx::new_allocator"* dereferenceable(1)) unnamed_addr #5 comdat align 2 {
  %3 = alloca %"class.__gnu_cxx::new_allocator"*, align 8
  %4 = alloca %"class.__gnu_cxx::new_allocator"*, align 8
  store %"class.__gnu_cxx::new_allocator"* %0, %"class.__gnu_cxx::new_allocator"** %3, align 8
  store %"class.__gnu_cxx::new_allocator"* %1, %"class.__gnu_cxx::new_allocator"** %4, align 8
  %5 = load %"class.__gnu_cxx::new_allocator"*, %"class.__gnu_cxx::new_allocator"** %3, align 8
  ret void
}

; Function Attrs: noinline uwtable
define linkonce_odr i64* @_ZNSt12_Vector_baseIxSaIxEE11_M_allocateEm(%"struct.std::_Vector_base"*, i64) #0 comdat align 2 {
  %3 = alloca %"struct.std::_Vector_base"*, align 8
  %4 = alloca i64, align 8
  store %"struct.std::_Vector_base"* %0, %"struct.std::_Vector_base"** %3, align 8
  store i64 %1, i64* %4, align 8
  %5 = load %"struct.std::_Vector_base"*, %"struct.std::_Vector_base"** %3, align 8
  %6 = load i64, i64* %4, align 8
  %7 = icmp ne i64 %6, 0
  br i1 %7, label %8, label %13

; <label>:8:                                      ; preds = %2
  %9 = getelementptr inbounds %"struct.std::_Vector_base", %"struct.std::_Vector_base"* %5, i32 0, i32 0
  %10 = bitcast %"struct.std::_Vector_base<long long, std::allocator<long long> >::_Vector_impl"* %9 to %"class.std::allocator"*
  %11 = load i64, i64* %4, align 8
  %12 = call i64* @_ZNSt16allocator_traitsISaIxEE8allocateERS0_m(%"class.std::allocator"* dereferenceable(1) %10, i64 %11)
  br label %14

; <label>:13:                                     ; preds = %2
  br label %14

; <label>:14:                                     ; preds = %13, %8
  %15 = phi i64* [ %12, %8 ], [ null, %13 ]
  ret i64* %15
}

; Function Attrs: noinline uwtable
define linkonce_odr i64* @_ZNSt16allocator_traitsISaIxEE8allocateERS0_m(%"class.std::allocator"* dereferenceable(1), i64) #0 comdat align 2 {
  %3 = alloca %"class.std::allocator"*, align 8
  %4 = alloca i64, align 8
  store %"class.std::allocator"* %0, %"class.std::allocator"** %3, align 8
  store i64 %1, i64* %4, align 8
  %5 = load %"class.std::allocator"*, %"class.std::allocator"** %3, align 8
  %6 = bitcast %"class.std::allocator"* %5 to %"class.__gnu_cxx::new_allocator"*
  %7 = load i64, i64* %4, align 8
  %8 = call i64* @_ZN9__gnu_cxx13new_allocatorIxE8allocateEmPKv(%"class.__gnu_cxx::new_allocator"* %6, i64 %7, i8* null)
  ret i64* %8
}

; Function Attrs: noinline uwtable
define linkonce_odr i64* @_ZN9__gnu_cxx13new_allocatorIxE8allocateEmPKv(%"class.__gnu_cxx::new_allocator"*, i64, i8*) #0 comdat align 2 {
  %4 = load i32, i32* @x.37
  %5 = load i32, i32* @y.38
  %6 = sub i32 %4, 1
  %7 = mul i32 %4, %6
  %8 = urem i32 %7, 2
  %9 = icmp eq i32 %8, 0
  %10 = icmp slt i32 %5, 10
  %11 = or i1 %9, %10
  br i1 %11, label %12, label %53

; <label>:12:                                     ; preds = %3, %53
  %13 = alloca %"class.__gnu_cxx::new_allocator"*, align 8
  %14 = alloca i64, align 8
  %15 = alloca i8*, align 8
  store %"class.__gnu_cxx::new_allocator"* %0, %"class.__gnu_cxx::new_allocator"** %13, align 8
  store i64 %1, i64* %14, align 8
  store i8* %2, i8** %15, align 8
  %16 = load %"class.__gnu_cxx::new_allocator"*, %"class.__gnu_cxx::new_allocator"** %13, align 8
  %17 = load i64, i64* %14, align 8
  %18 = call i64 @_ZNK9__gnu_cxx13new_allocatorIxE8max_sizeEv(%"class.__gnu_cxx::new_allocator"* %16) #3
  %19 = icmp ugt i64 %17, %18
  %20 = load i32, i32* @x.37
  %21 = load i32, i32* @y.38
  %22 = sub i32 %20, 1
  %23 = mul i32 %20, %22
  %24 = urem i32 %23, 2
  %25 = icmp eq i32 %24, 0
  %26 = icmp slt i32 %21, 10
  %27 = or i1 %25, %26
  br i1 %27, label %28, label %53

; <label>:28:                                     ; preds = %12
  br i1 %19, label %29, label %30

; <label>:29:                                     ; preds = %28
  call void @_ZSt17__throw_bad_allocv() #11
  unreachable

; <label>:30:                                     ; preds = %28
  %31 = load i32, i32* @x.37
  %32 = load i32, i32* @y.38
  %33 = sub i32 %31, 1
  %34 = mul i32 %31, %33
  %35 = urem i32 %34, 2
  %36 = icmp eq i32 %35, 0
  %37 = icmp slt i32 %32, 10
  %38 = or i1 %36, %37
  br i1 %38, label %39, label %61

; <label>:39:                                     ; preds = %30, %61
  %40 = load i64, i64* %14, align 8
  %41 = mul i64 %40, 8
  %42 = call i8* @_Znwm(i64 %41)
  %43 = bitcast i8* %42 to i64*
  %44 = load i32, i32* @x.37
  %45 = load i32, i32* @y.38
  %46 = sub i32 %44, 1
  %47 = mul i32 %44, %46
  %48 = urem i32 %47, 2
  %49 = icmp eq i32 %48, 0
  %50 = icmp slt i32 %45, 10
  %51 = or i1 %49, %50
  br i1 %51, label %52, label %61

; <label>:52:                                     ; preds = %39
  ret i64* %43

; <label>:53:                                     ; preds = %12, %3
  %54 = alloca %"class.__gnu_cxx::new_allocator"*, align 8
  %55 = alloca i64, align 8
  %56 = alloca i8*, align 8
  store %"class.__gnu_cxx::new_allocator"* %0, %"class.__gnu_cxx::new_allocator"** %54, align 8
  store i64 %1, i64* %55, align 8
  store i8* %2, i8** %56, align 8
  %57 = load %"class.__gnu_cxx::new_allocator"*, %"class.__gnu_cxx::new_allocator"** %54, align 8
  %58 = load i64, i64* %55, align 8
  %59 = call i64 @_ZNK9__gnu_cxx13new_allocatorIxE8max_sizeEv(%"class.__gnu_cxx::new_allocator"* %57) #3
  %60 = icmp ugt i64 %58, %59
  br label %12

; <label>:61:                                     ; preds = %39, %30
  %62 = load i64, i64* %14, align 8
  %63 = mul i64 %62, 8
  %64 = call i8* @_Znwm(i64 %63)
  %65 = bitcast i8* %64 to i64*
  br label %39
}

; Function Attrs: noinline nounwind uwtable
define linkonce_odr i64 @_ZNK9__gnu_cxx13new_allocatorIxE8max_sizeEv(%"class.__gnu_cxx::new_allocator"*) #5 comdat align 2 {
  %2 = load i32, i32* @x.39
  %3 = load i32, i32* @y.40
  %4 = sub i32 %2, 1
  %5 = mul i32 %2, %4
  %6 = urem i32 %5, 2
  %7 = icmp eq i32 %6, 0
  %8 = icmp slt i32 %3, 10
  %9 = or i1 %7, %8
  br i1 %9, label %10, label %22

; <label>:10:                                     ; preds = %1, %22
  %11 = alloca %"class.__gnu_cxx::new_allocator"*, align 8
  store %"class.__gnu_cxx::new_allocator"* %0, %"class.__gnu_cxx::new_allocator"** %11, align 8
  %12 = load %"class.__gnu_cxx::new_allocator"*, %"class.__gnu_cxx::new_allocator"** %11, align 8
  %13 = load i32, i32* @x.39
  %14 = load i32, i32* @y.40
  %15 = sub i32 %13, 1
  %16 = mul i32 %13, %15
  %17 = urem i32 %16, 2
  %18 = icmp eq i32 %17, 0
  %19 = icmp slt i32 %14, 10
  %20 = or i1 %18, %19
  br i1 %20, label %21, label %22

; <label>:21:                                     ; preds = %10
  ret i64 2305843009213693951

; <label>:22:                                     ; preds = %10, %1
  %23 = alloca %"class.__gnu_cxx::new_allocator"*, align 8
  store %"class.__gnu_cxx::new_allocator"* %0, %"class.__gnu_cxx::new_allocator"** %23, align 8
  %24 = load %"class.__gnu_cxx::new_allocator"*, %"class.__gnu_cxx::new_allocator"** %23, align 8
  br label %10
}

; Function Attrs: noreturn
declare void @_ZSt17__throw_bad_allocv() #6

; Function Attrs: nobuiltin
declare noalias i8* @_Znwm(i64) #7

; Function Attrs: noinline uwtable
define linkonce_odr i64* @_ZSt27__uninitialized_default_n_aIPxmxET_S1_T0_RSaIT1_E(i64*, i64, %"class.std::allocator"* dereferenceable(1)) #0 comdat {
  %4 = alloca i64*, align 8
  %5 = alloca i64, align 8
  %6 = alloca %"class.std::allocator"*, align 8
  store i64* %0, i64** %4, align 8
  store i64 %1, i64* %5, align 8
  store %"class.std::allocator"* %2, %"class.std::allocator"** %6, align 8
  %7 = load i64*, i64** %4, align 8
  %8 = load i64, i64* %5, align 8
  %9 = call i64* @_ZSt25__uninitialized_default_nIPxmET_S1_T0_(i64* %7, i64 %8)
  ret i64* %9
}

; Function Attrs: noinline nounwind uwtable
define linkonce_odr dereferenceable(1) %"class.std::allocator"* @_ZNSt12_Vector_baseIxSaIxEE19_M_get_Tp_allocatorEv(%"struct.std::_Vector_base"*) #5 comdat align 2 {
  %2 = alloca %"struct.std::_Vector_base"*, align 8
  store %"struct.std::_Vector_base"* %0, %"struct.std::_Vector_base"** %2, align 8
  %3 = load %"struct.std::_Vector_base"*, %"struct.std::_Vector_base"** %2, align 8
  %4 = getelementptr inbounds %"struct.std::_Vector_base", %"struct.std::_Vector_base"* %3, i32 0, i32 0
  %5 = bitcast %"struct.std::_Vector_base<long long, std::allocator<long long> >::_Vector_impl"* %4 to %"class.std::allocator"*
  ret %"class.std::allocator"* %5
}

; Function Attrs: noinline uwtable
define linkonce_odr i64* @_ZSt25__uninitialized_default_nIPxmET_S1_T0_(i64*, i64) #0 comdat {
  %3 = alloca i64*, align 8
  %4 = alloca i64, align 8
  %5 = alloca i8, align 1
  store i64* %0, i64** %3, align 8
  store i64 %1, i64* %4, align 8
  store i8 1, i8* %5, align 1
  %6 = load i64*, i64** %3, align 8
  %7 = load i64, i64* %4, align 8
  %8 = call i64* @_ZNSt27__uninitialized_default_n_1ILb1EE18__uninit_default_nIPxmEET_S3_T0_(i64* %6, i64 %7)
  ret i64* %8
}

; Function Attrs: noinline uwtable
define linkonce_odr i64* @_ZNSt27__uninitialized_default_n_1ILb1EE18__uninit_default_nIPxmEET_S3_T0_(i64*, i64) #0 comdat align 2 {
  %3 = alloca i64*, align 8
  %4 = alloca i64, align 8
  %5 = alloca i64, align 8
  store i64* %0, i64** %3, align 8
  store i64 %1, i64* %4, align 8
  %6 = load i64*, i64** %3, align 8
  %7 = load i64, i64* %4, align 8
  store i64 0, i64* %5, align 8
  %8 = call i64* @_ZSt6fill_nIPxmxET_S1_T0_RKT1_(i64* %6, i64 %7, i64* dereferenceable(8) %5)
  ret i64* %8
}

; Function Attrs: noinline uwtable
define linkonce_odr i64* @_ZSt6fill_nIPxmxET_S1_T0_RKT1_(i64*, i64, i64* dereferenceable(8)) #0 comdat {
  %4 = alloca i64*, align 8
  %5 = alloca i64, align 8
  %6 = alloca i64*, align 8
  store i64* %0, i64** %4, align 8
  store i64 %1, i64* %5, align 8
  store i64* %2, i64** %6, align 8
  %7 = load i64*, i64** %4, align 8
  %8 = call i64* @_ZSt12__niter_baseIPxENSt11_Niter_baseIT_E13iterator_typeES2_(i64* %7)
  %9 = load i64, i64* %5, align 8
  %10 = load i64*, i64** %6, align 8
  %11 = call i64* @_ZSt10__fill_n_aIPxmxEN9__gnu_cxx11__enable_ifIXsr11__is_scalarIT1_EE7__valueET_E6__typeES4_T0_RKS3_(i64* %8, i64 %9, i64* dereferenceable(8) %10)
  ret i64* %11
}

; Function Attrs: noinline nounwind uwtable
define linkonce_odr i64* @_ZSt10__fill_n_aIPxmxEN9__gnu_cxx11__enable_ifIXsr11__is_scalarIT1_EE7__valueET_E6__typeES4_T0_RKS3_(i64*, i64, i64* dereferenceable(8)) #5 comdat {
  %4 = alloca i64*, align 8
  %5 = alloca i64, align 8
  %6 = alloca i64*, align 8
  %7 = alloca i64, align 8
  %8 = alloca i64, align 8
  store i64* %0, i64** %4, align 8
  store i64 %1, i64* %5, align 8
  store i64* %2, i64** %6, align 8
  %9 = load i64*, i64** %6, align 8
  %10 = load i64, i64* %9, align 8
  store i64 %10, i64* %7, align 8
  %11 = load i64, i64* %5, align 8
  store i64 %11, i64* %8, align 8
  br label %12

; <label>:12:                                     ; preds = %36, %3
  %13 = load i64, i64* %8, align 8
  %14 = icmp ugt i64 %13, 0
  br i1 %14, label %15, label %41

; <label>:15:                                     ; preds = %12
  %16 = load i32, i32* @x.51
  %17 = load i32, i32* @y.52
  %18 = sub i32 %16, 1
  %19 = mul i32 %16, %18
  %20 = urem i32 %19, 2
  %21 = icmp eq i32 %20, 0
  %22 = icmp slt i32 %17, 10
  %23 = or i1 %21, %22
  br i1 %23, label %24, label %43

; <label>:24:                                     ; preds = %15, %43
  %25 = load i64, i64* %7, align 8
  %26 = load i64*, i64** %4, align 8
  store i64 %25, i64* %26, align 8
  %27 = load i32, i32* @x.51
  %28 = load i32, i32* @y.52
  %29 = sub i32 %27, 1
  %30 = mul i32 %27, %29
  %31 = urem i32 %30, 2
  %32 = icmp eq i32 %31, 0
  %33 = icmp slt i32 %28, 10
  %34 = or i1 %32, %33
  br i1 %34, label %35, label %43

; <label>:35:                                     ; preds = %24
  br label %36

; <label>:36:                                     ; preds = %35
  %37 = load i64, i64* %8, align 8
  %38 = add i64 %37, -1
  store i64 %38, i64* %8, align 8
  %39 = load i64*, i64** %4, align 8
  %40 = getelementptr inbounds i64, i64* %39, i32 1
  store i64* %40, i64** %4, align 8
  br label %12

; <label>:41:                                     ; preds = %12
  %42 = load i64*, i64** %4, align 8
  ret i64* %42

; <label>:43:                                     ; preds = %24, %15
  %44 = load i64, i64* %7, align 8
  %45 = load i64*, i64** %4, align 8
  store i64 %44, i64* %45, align 8
  br label %24
}

; Function Attrs: noinline uwtable
define linkonce_odr i64* @_ZSt12__niter_baseIPxENSt11_Niter_baseIT_E13iterator_typeES2_(i64*) #0 comdat {
  %2 = alloca i64*, align 8
  store i64* %0, i64** %2, align 8
  %3 = load i64*, i64** %2, align 8
  %4 = call i64* @_ZNSt10_Iter_baseIPxLb0EE7_S_baseES0_(i64* %3)
  ret i64* %4
}

; Function Attrs: noinline nounwind uwtable
define linkonce_odr i64* @_ZNSt10_Iter_baseIPxLb0EE7_S_baseES0_(i64*) #5 comdat align 2 {
  %2 = load i32, i32* @x.55
  %3 = load i32, i32* @y.56
  %4 = sub i32 %2, 1
  %5 = mul i32 %2, %4
  %6 = urem i32 %5, 2
  %7 = icmp eq i32 %6, 0
  %8 = icmp slt i32 %3, 10
  %9 = or i1 %7, %8
  br i1 %9, label %10, label %22

; <label>:10:                                     ; preds = %1, %22
  %11 = alloca i64*, align 8
  store i64* %0, i64** %11, align 8
  %12 = load i64*, i64** %11, align 8
  %13 = load i32, i32* @x.55
  %14 = load i32, i32* @y.56
  %15 = sub i32 %13, 1
  %16 = mul i32 %13, %15
  %17 = urem i32 %16, 2
  %18 = icmp eq i32 %17, 0
  %19 = icmp slt i32 %14, 10
  %20 = or i1 %18, %19
  br i1 %20, label %21, label %22

; <label>:21:                                     ; preds = %10
  ret i64* %12

; <label>:22:                                     ; preds = %10, %1
  %23 = alloca i64*, align 8
  store i64* %0, i64** %23, align 8
  %24 = load i64*, i64** %23, align 8
  br label %10
}

; Function Attrs: noinline uwtable
define linkonce_odr void @_ZNSt12_Vector_baseIxSaIxEE13_M_deallocateEPxm(%"struct.std::_Vector_base"*, i64*, i64) #0 comdat align 2 {
  %4 = alloca %"struct.std::_Vector_base"*, align 8
  %5 = alloca i64*, align 8
  %6 = alloca i64, align 8
  store %"struct.std::_Vector_base"* %0, %"struct.std::_Vector_base"** %4, align 8
  store i64* %1, i64** %5, align 8
  store i64 %2, i64* %6, align 8
  %7 = load %"struct.std::_Vector_base"*, %"struct.std::_Vector_base"** %4, align 8
  %8 = load i64*, i64** %5, align 8
  %9 = icmp ne i64* %8, null
  br i1 %9, label %10, label %15

; <label>:10:                                     ; preds = %3
  %11 = getelementptr inbounds %"struct.std::_Vector_base", %"struct.std::_Vector_base"* %7, i32 0, i32 0
  %12 = bitcast %"struct.std::_Vector_base<long long, std::allocator<long long> >::_Vector_impl"* %11 to %"class.std::allocator"*
  %13 = load i64*, i64** %5, align 8
  %14 = load i64, i64* %6, align 8
  call void @_ZNSt16allocator_traitsISaIxEE10deallocateERS0_Pxm(%"class.std::allocator"* dereferenceable(1) %12, i64* %13, i64 %14)
  br label %15

; <label>:15:                                     ; preds = %10, %3
  ret void
}

; Function Attrs: noinline noreturn nounwind
define linkonce_odr hidden void @__clang_call_terminate(i8*) #8 comdat {
  %2 = load i32, i32* @x.59
  %3 = load i32, i32* @y.60
  %4 = sub i32 %2, 1
  %5 = mul i32 %2, %4
  %6 = urem i32 %5, 2
  %7 = icmp eq i32 %6, 0
  %8 = icmp slt i32 %3, 10
  %9 = or i1 %7, %8
  br i1 %9, label %10, label %21

; <label>:10:                                     ; preds = %1, %21
  %11 = call i8* @__cxa_begin_catch(i8* %0) #3
  call void @_ZSt9terminatev() #10
  %12 = load i32, i32* @x.59
  %13 = load i32, i32* @y.60
  %14 = sub i32 %12, 1
  %15 = mul i32 %12, %14
  %16 = urem i32 %15, 2
  %17 = icmp eq i32 %16, 0
  %18 = icmp slt i32 %13, 10
  %19 = or i1 %17, %18
  br i1 %19, label %20, label %21

; <label>:20:                                     ; preds = %10
  unreachable

; <label>:21:                                     ; preds = %10, %1
  %22 = call i8* @__cxa_begin_catch(i8* %0) #3
  call void @_ZSt9terminatev() #10
  br label %10
}

declare i8* @__cxa_begin_catch(i8*)

declare void @_ZSt9terminatev()

; Function Attrs: noinline uwtable
define linkonce_odr void @_ZNSt16allocator_traitsISaIxEE10deallocateERS0_Pxm(%"class.std::allocator"* dereferenceable(1), i64*, i64) #0 comdat align 2 {
  %4 = load i32, i32* @x.61
  %5 = load i32, i32* @y.62
  %6 = sub i32 %4, 1
  %7 = mul i32 %4, %6
  %8 = urem i32 %7, 2
  %9 = icmp eq i32 %8, 0
  %10 = icmp slt i32 %5, 10
  %11 = or i1 %9, %10
  br i1 %11, label %12, label %29

; <label>:12:                                     ; preds = %3, %29
  %13 = alloca %"class.std::allocator"*, align 8
  %14 = alloca i64*, align 8
  %15 = alloca i64, align 8
  store %"class.std::allocator"* %0, %"class.std::allocator"** %13, align 8
  store i64* %1, i64** %14, align 8
  store i64 %2, i64* %15, align 8
  %16 = load %"class.std::allocator"*, %"class.std::allocator"** %13, align 8
  %17 = bitcast %"class.std::allocator"* %16 to %"class.__gnu_cxx::new_allocator"*
  %18 = load i64*, i64** %14, align 8
  %19 = load i64, i64* %15, align 8
  call void @_ZN9__gnu_cxx13new_allocatorIxE10deallocateEPxm(%"class.__gnu_cxx::new_allocator"* %17, i64* %18, i64 %19)
  %20 = load i32, i32* @x.61
  %21 = load i32, i32* @y.62
  %22 = sub i32 %20, 1
  %23 = mul i32 %20, %22
  %24 = urem i32 %23, 2
  %25 = icmp eq i32 %24, 0
  %26 = icmp slt i32 %21, 10
  %27 = or i1 %25, %26
  br i1 %27, label %28, label %29

; <label>:28:                                     ; preds = %12
  ret void

; <label>:29:                                     ; preds = %12, %3
  %30 = alloca %"class.std::allocator"*, align 8
  %31 = alloca i64*, align 8
  %32 = alloca i64, align 8
  store %"class.std::allocator"* %0, %"class.std::allocator"** %30, align 8
  store i64* %1, i64** %31, align 8
  store i64 %2, i64* %32, align 8
  %33 = load %"class.std::allocator"*, %"class.std::allocator"** %30, align 8
  %34 = bitcast %"class.std::allocator"* %33 to %"class.__gnu_cxx::new_allocator"*
  %35 = load i64*, i64** %31, align 8
  %36 = load i64, i64* %32, align 8
  call void @_ZN9__gnu_cxx13new_allocatorIxE10deallocateEPxm(%"class.__gnu_cxx::new_allocator"* %34, i64* %35, i64 %36)
  br label %12
}

; Function Attrs: noinline nounwind uwtable
define linkonce_odr void @_ZN9__gnu_cxx13new_allocatorIxE10deallocateEPxm(%"class.__gnu_cxx::new_allocator"*, i64*, i64) #5 comdat align 2 {
  %4 = alloca %"class.__gnu_cxx::new_allocator"*, align 8
  %5 = alloca i64*, align 8
  %6 = alloca i64, align 8
  store %"class.__gnu_cxx::new_allocator"* %0, %"class.__gnu_cxx::new_allocator"** %4, align 8
  store i64* %1, i64** %5, align 8
  store i64 %2, i64* %6, align 8
  %7 = load %"class.__gnu_cxx::new_allocator"*, %"class.__gnu_cxx::new_allocator"** %4, align 8
  %8 = load i64*, i64** %5, align 8
  %9 = bitcast i64* %8 to i8*
  call void @_ZdlPv(i8* %9) #3
  ret void
}

; Function Attrs: nobuiltin nounwind
declare void @_ZdlPv(i8*) #9

; Function Attrs: noinline uwtable
define linkonce_odr void @_ZSt8_DestroyIPxxEvT_S1_RSaIT0_E(i64*, i64*, %"class.std::allocator"* dereferenceable(1)) #0 comdat {
  %4 = load i32, i32* @x.65
  %5 = load i32, i32* @y.66
  %6 = sub i32 %4, 1
  %7 = mul i32 %4, %6
  %8 = urem i32 %7, 2
  %9 = icmp eq i32 %8, 0
  %10 = icmp slt i32 %5, 10
  %11 = or i1 %9, %10
  br i1 %11, label %12, label %27

; <label>:12:                                     ; preds = %3, %27
  %13 = alloca i64*, align 8
  %14 = alloca i64*, align 8
  %15 = alloca %"class.std::allocator"*, align 8
  store i64* %0, i64** %13, align 8
  store i64* %1, i64** %14, align 8
  store %"class.std::allocator"* %2, %"class.std::allocator"** %15, align 8
  %16 = load i64*, i64** %13, align 8
  %17 = load i64*, i64** %14, align 8
  call void @_ZSt8_DestroyIPxEvT_S1_(i64* %16, i64* %17)
  %18 = load i32, i32* @x.65
  %19 = load i32, i32* @y.66
  %20 = sub i32 %18, 1
  %21 = mul i32 %18, %20
  %22 = urem i32 %21, 2
  %23 = icmp eq i32 %22, 0
  %24 = icmp slt i32 %19, 10
  %25 = or i1 %23, %24
  br i1 %25, label %26, label %27

; <label>:26:                                     ; preds = %12
  ret void

; <label>:27:                                     ; preds = %12, %3
  %28 = alloca i64*, align 8
  %29 = alloca i64*, align 8
  %30 = alloca %"class.std::allocator"*, align 8
  store i64* %0, i64** %28, align 8
  store i64* %1, i64** %29, align 8
  store %"class.std::allocator"* %2, %"class.std::allocator"** %30, align 8
  %31 = load i64*, i64** %28, align 8
  %32 = load i64*, i64** %29, align 8
  call void @_ZSt8_DestroyIPxEvT_S1_(i64* %31, i64* %32)
  br label %12
}

; Function Attrs: noinline uwtable
define linkonce_odr void @_ZSt8_DestroyIPxEvT_S1_(i64*, i64*) #0 comdat {
  %3 = load i32, i32* @x.67
  %4 = load i32, i32* @y.68
  %5 = sub i32 %3, 1
  %6 = mul i32 %3, %5
  %7 = urem i32 %6, 2
  %8 = icmp eq i32 %7, 0
  %9 = icmp slt i32 %4, 10
  %10 = or i1 %8, %9
  br i1 %10, label %11, label %25

; <label>:11:                                     ; preds = %2, %25
  %12 = alloca i64*, align 8
  %13 = alloca i64*, align 8
  store i64* %0, i64** %12, align 8
  store i64* %1, i64** %13, align 8
  %14 = load i64*, i64** %12, align 8
  %15 = load i64*, i64** %13, align 8
  call void @_ZNSt12_Destroy_auxILb1EE9__destroyIPxEEvT_S3_(i64* %14, i64* %15)
  %16 = load i32, i32* @x.67
  %17 = load i32, i32* @y.68
  %18 = sub i32 %16, 1
  %19 = mul i32 %16, %18
  %20 = urem i32 %19, 2
  %21 = icmp eq i32 %20, 0
  %22 = icmp slt i32 %17, 10
  %23 = or i1 %21, %22
  br i1 %23, label %24, label %25

; <label>:24:                                     ; preds = %11
  ret void

; <label>:25:                                     ; preds = %11, %2
  %26 = alloca i64*, align 8
  %27 = alloca i64*, align 8
  store i64* %0, i64** %26, align 8
  store i64* %1, i64** %27, align 8
  %28 = load i64*, i64** %26, align 8
  %29 = load i64*, i64** %27, align 8
  call void @_ZNSt12_Destroy_auxILb1EE9__destroyIPxEEvT_S3_(i64* %28, i64* %29)
  br label %11
}

; Function Attrs: noinline nounwind uwtable
define linkonce_odr void @_ZNSt12_Destroy_auxILb1EE9__destroyIPxEEvT_S3_(i64*, i64*) #5 comdat align 2 {
  %3 = alloca i64*, align 8
  %4 = alloca i64*, align 8
  store i64* %0, i64** %3, align 8
  store i64* %1, i64** %4, align 8
  ret void
}

; Function Attrs: noinline uwtable
define linkonce_odr void @_ZNKSt6vectorIxSaIxEE14_M_range_checkEm(%"class.std::vector"*, i64) #0 comdat align 2 {
  %3 = alloca %"class.std::vector"*, align 8
  %4 = alloca i64, align 8
  store %"class.std::vector"* %0, %"class.std::vector"** %3, align 8
  store i64 %1, i64* %4, align 8
  %5 = load %"class.std::vector"*, %"class.std::vector"** %3, align 8
  %6 = load i64, i64* %4, align 8
  %7 = call i64 @_ZNKSt6vectorIxSaIxEE4sizeEv(%"class.std::vector"* %5) #3
  %8 = icmp uge i64 %6, %7
  br i1 %8, label %9, label %12

; <label>:9:                                      ; preds = %2
  %10 = load i64, i64* %4, align 8
  %11 = call i64 @_ZNKSt6vectorIxSaIxEE4sizeEv(%"class.std::vector"* %5) #3
  call void (i8*, ...) @_ZSt24__throw_out_of_range_fmtPKcz(i8* getelementptr inbounds ([74 x i8], [74 x i8]* @.str, i32 0, i32 0), i64 %10, i64 %11) #11
  unreachable

; <label>:12:                                     ; preds = %2
  ret void
}

; Function Attrs: noinline nounwind uwtable
define linkonce_odr dereferenceable(8) i64* @_ZNSt6vectorIxSaIxEEixEm(%"class.std::vector"*, i64) #5 comdat align 2 {
  %3 = load i32, i32* @x.73
  %4 = load i32, i32* @y.74
  %5 = sub i32 %3, 1
  %6 = mul i32 %3, %5
  %7 = urem i32 %6, 2
  %8 = icmp eq i32 %7, 0
  %9 = icmp slt i32 %4, 10
  %10 = or i1 %8, %9
  br i1 %10, label %11, label %30

; <label>:11:                                     ; preds = %2, %30
  %12 = alloca %"class.std::vector"*, align 8
  %13 = alloca i64, align 8
  store %"class.std::vector"* %0, %"class.std::vector"** %12, align 8
  store i64 %1, i64* %13, align 8
  %14 = load %"class.std::vector"*, %"class.std::vector"** %12, align 8
  %15 = bitcast %"class.std::vector"* %14 to %"struct.std::_Vector_base"*
  %16 = getelementptr inbounds %"struct.std::_Vector_base", %"struct.std::_Vector_base"* %15, i32 0, i32 0
  %17 = getelementptr inbounds %"struct.std::_Vector_base<long long, std::allocator<long long> >::_Vector_impl", %"struct.std::_Vector_base<long long, std::allocator<long long> >::_Vector_impl"* %16, i32 0, i32 0
  %18 = load i64*, i64** %17, align 8
  %19 = load i64, i64* %13, align 8
  %20 = getelementptr inbounds i64, i64* %18, i64 %19
  %21 = load i32, i32* @x.73
  %22 = load i32, i32* @y.74
  %23 = sub i32 %21, 1
  %24 = mul i32 %21, %23
  %25 = urem i32 %24, 2
  %26 = icmp eq i32 %25, 0
  %27 = icmp slt i32 %22, 10
  %28 = or i1 %26, %27
  br i1 %28, label %29, label %30

; <label>:29:                                     ; preds = %11
  ret i64* %20

; <label>:30:                                     ; preds = %11, %2
  %31 = alloca %"class.std::vector"*, align 8
  %32 = alloca i64, align 8
  store %"class.std::vector"* %0, %"class.std::vector"** %31, align 8
  store i64 %1, i64* %32, align 8
  %33 = load %"class.std::vector"*, %"class.std::vector"** %31, align 8
  %34 = bitcast %"class.std::vector"* %33 to %"struct.std::_Vector_base"*
  %35 = getelementptr inbounds %"struct.std::_Vector_base", %"struct.std::_Vector_base"* %34, i32 0, i32 0
  %36 = getelementptr inbounds %"struct.std::_Vector_base<long long, std::allocator<long long> >::_Vector_impl", %"struct.std::_Vector_base<long long, std::allocator<long long> >::_Vector_impl"* %35, i32 0, i32 0
  %37 = load i64*, i64** %36, align 8
  %38 = load i64, i64* %32, align 8
  %39 = getelementptr inbounds i64, i64* %37, i64 %38
  br label %11
}

; Function Attrs: noinline nounwind uwtable
define linkonce_odr i64 @_ZNKSt6vectorIxSaIxEE4sizeEv(%"class.std::vector"*) #5 comdat align 2 {
  %2 = alloca %"class.std::vector"*, align 8
  store %"class.std::vector"* %0, %"class.std::vector"** %2, align 8
  %3 = load %"class.std::vector"*, %"class.std::vector"** %2, align 8
  %4 = bitcast %"class.std::vector"* %3 to %"struct.std::_Vector_base"*
  %5 = getelementptr inbounds %"struct.std::_Vector_base", %"struct.std::_Vector_base"* %4, i32 0, i32 0
  %6 = getelementptr inbounds %"struct.std::_Vector_base<long long, std::allocator<long long> >::_Vector_impl", %"struct.std::_Vector_base<long long, std::allocator<long long> >::_Vector_impl"* %5, i32 0, i32 1
  %7 = load i64*, i64** %6, align 8
  %8 = bitcast %"class.std::vector"* %3 to %"struct.std::_Vector_base"*
  %9 = getelementptr inbounds %"struct.std::_Vector_base", %"struct.std::_Vector_base"* %8, i32 0, i32 0
  %10 = getelementptr inbounds %"struct.std::_Vector_base<long long, std::allocator<long long> >::_Vector_impl", %"struct.std::_Vector_base<long long, std::allocator<long long> >::_Vector_impl"* %9, i32 0, i32 0
  %11 = load i64*, i64** %10, align 8
  %12 = ptrtoint i64* %7 to i64
  %13 = ptrtoint i64* %11 to i64
  %14 = sub i64 %12, %13
  %15 = sdiv exact i64 %14, 8
  ret i64 %15
}

; Function Attrs: noreturn
declare void @_ZSt24__throw_out_of_range_fmtPKcz(i8*, ...) #6

; Function Attrs: noinline uwtable
define internal void @_GLOBAL__sub_I_s412741575.cpp() #0 section ".text.startup" {
  call void @__cxx_global_var_init()
  ret void
}

attributes #0 = { noinline uwtable "correctly-rounded-divide-sqrt-fp-math"="false" "disable-tail-calls"="false" "less-precise-fpmad"="false" "no-frame-pointer-elim"="true" "no-frame-pointer-elim-non-leaf" "no-infs-fp-math"="false" "no-jump-tables"="false" "no-nans-fp-math"="false" "no-signed-zeros-fp-math"="false" "no-trapping-math"="false" "stack-protector-buffer-size"="8" "target-cpu"="x86-64" "target-features"="+fxsr,+mmx,+sse,+sse2,+x87" "unsafe-fp-math"="false" "use-soft-float"="false" }
attributes #1 = { "correctly-rounded-divide-sqrt-fp-math"="false" "disable-tail-calls"="false" "less-precise-fpmad"="false" "no-frame-pointer-elim"="true" "no-frame-pointer-elim-non-leaf" "no-infs-fp-math"="false" "no-nans-fp-math"="false" "no-signed-zeros-fp-math"="false" "no-trapping-math"="false" "stack-protector-buffer-size"="8" "target-cpu"="x86-64" "target-features"="+fxsr,+mmx,+sse,+sse2,+x87" "unsafe-fp-math"="false" "use-soft-float"="false" }
attributes #2 = { nounwind "correctly-rounded-divide-sqrt-fp-math"="false" "disable-tail-calls"="false" "less-precise-fpmad"="false" "no-frame-pointer-elim"="true" "no-frame-pointer-elim-non-leaf" "no-infs-fp-math"="false" "no-nans-fp-math"="false" "no-signed-zeros-fp-math"="false" "no-trapping-math"="false" "stack-protector-buffer-size"="8" "target-cpu"="x86-64" "target-features"="+fxsr,+mmx,+sse,+sse2,+x87" "unsafe-fp-math"="false" "use-soft-float"="false" }
attributes #3 = { nounwind }
attributes #4 = { noinline norecurse uwtable "correctly-rounded-divide-sqrt-fp-math"="false" "disable-tail-calls"="false" "less-precise-fpmad"="false" "no-frame-pointer-elim"="true" "no-frame-pointer-elim-non-leaf" "no-infs-fp-math"="false" "no-jump-tables"="false" "no-nans-fp-math"="false" "no-signed-zeros-fp-math"="false" "no-trapping-math"="false" "stack-protector-buffer-size"="8" "target-cpu"="x86-64" "target-features"="+fxsr,+mmx,+sse,+sse2,+x87" "unsafe-fp-math"="false" "use-soft-float"="false" }
attributes #5 = { noinline nounwind uwtable "correctly-rounded-divide-sqrt-fp-math"="false" "disable-tail-calls"="false" "less-precise-fpmad"="false" "no-frame-pointer-elim"="true" "no-frame-pointer-elim-non-leaf" "no-infs-fp-math"="false" "no-jump-tables"="false" "no-nans-fp-math"="false" "no-signed-zeros-fp-math"="false" "no-trapping-math"="false" "stack-protector-buffer-size"="8" "target-cpu"="x86-64" "target-features"="+fxsr,+mmx,+sse,+sse2,+x87" "unsafe-fp-math"="false" "use-soft-float"="false" }
attributes #6 = { noreturn "correctly-rounded-divide-sqrt-fp-math"="false" "disable-tail-calls"="false" "less-precise-fpmad"="false" "no-frame-pointer-elim"="true" "no-frame-pointer-elim-non-leaf" "no-infs-fp-math"="false" "no-nans-fp-math"="false" "no-signed-zeros-fp-math"="false" "no-trapping-math"="false" "stack-protector-buffer-size"="8" "target-cpu"="x86-64" "target-features"="+fxsr,+mmx,+sse,+sse2,+x87" "unsafe-fp-math"="false" "use-soft-float"="false" }
attributes #7 = { nobuiltin "correctly-rounded-divide-sqrt-fp-math"="false" "disable-tail-calls"="false" "less-precise-fpmad"="false" "no-frame-pointer-elim"="true" "no-frame-pointer-elim-non-leaf" "no-infs-fp-math"="false" "no-nans-fp-math"="false" "no-signed-zeros-fp-math"="false" "no-trapping-math"="false" "stack-protector-buffer-size"="8" "target-cpu"="x86-64" "target-features"="+fxsr,+mmx,+sse,+sse2,+x87" "unsafe-fp-math"="false" "use-soft-float"="false" }
attributes #8 = { noinline noreturn nounwind }
attributes #9 = { nobuiltin nounwind "correctly-rounded-divide-sqrt-fp-math"="false" "disable-tail-calls"="false" "less-precise-fpmad"="false" "no-frame-pointer-elim"="true" "no-frame-pointer-elim-non-leaf" "no-infs-fp-math"="false" "no-nans-fp-math"="false" "no-signed-zeros-fp-math"="false" "no-trapping-math"="false" "stack-protector-buffer-size"="8" "target-cpu"="x86-64" "target-features"="+fxsr,+mmx,+sse,+sse2,+x87" "unsafe-fp-math"="false" "use-soft-float"="false" }
attributes #10 = { noreturn nounwind }
attributes #11 = { noreturn }

!llvm.ident = !{!0}

!0 = !{!"Obfuscator-LLVM clang version 4.0.1  (based on Obfuscator-LLVM 4.0.1)"}
