; ModuleID = 'Project_CodeNet_C++1400/p03354/s596957618.cpp'
source_filename = "Project_CodeNet_C++1400/p03354/s596957618.cpp"
target datalayout = "e-m:e-i64:64-f80:128-n8:16:32:64-S128"
target triple = "x86_64-unknown-linux-gnu"

%"class.std::ios_base::Init" = type { i8 }
%"class.std::basic_ostream" = type { i32 (...)**, %"class.std::basic_ios" }
%"class.std::basic_ios" = type { %"class.std::ios_base", %"class.std::basic_ostream"*, i8, i8, %"class.std::basic_streambuf"*, %"class.std::ctype"*, %"class.std::num_put"*, %"class.std::num_get"* }
%"class.std::ios_base" = type { i32 (...)**, i64, i64, i32, i32, i32, %"struct.std::ios_base::_Callback_list"*, %"struct.std::ios_base::_Words", [8 x %"struct.std::ios_base::_Words"], i32, %"struct.std::ios_base::_Words"*, %"class.std::locale" }
%"struct.std::ios_base::_Callback_list" = type { %"struct.std::ios_base::_Callback_list"*, void (i32, %"class.std::ios_base"*, i32)*, i32, i32 }
%"struct.std::ios_base::_Words" = type { i8*, i64 }
%"class.std::locale" = type { %"class.std::locale::_Impl"* }
%"class.std::locale::_Impl" = type { i32, %"class.std::locale::facet"**, i64, %"class.std::locale::facet"**, i8** }
%"class.std::locale::facet" = type <{ i32 (...)**, i32, [4 x i8] }>
%"class.std::basic_streambuf" = type { i32 (...)**, i8*, i8*, i8*, i8*, i8*, i8*, %"class.std::locale" }
%"class.std::ctype" = type <{ %"class.std::locale::facet.base", [4 x i8], %struct.__locale_struct*, i8, [7 x i8], i32*, i32*, i16*, i8, [256 x i8], [256 x i8], i8, [6 x i8] }>
%"class.std::locale::facet.base" = type <{ i32 (...)**, i32 }>
%struct.__locale_struct = type { [13 x %struct.__locale_data*], i16*, i32*, i32*, [13 x i8*] }
%struct.__locale_data = type opaque
%"class.std::num_put" = type { %"class.std::locale::facet.base", [4 x i8] }
%"class.std::num_get" = type { %"class.std::locale::facet.base", [4 x i8] }
%"class.std::basic_istream" = type { i32 (...)**, i64, %"class.std::basic_ios" }
%"class.std::__cxx11::basic_string" = type { %"struct.std::__cxx11::basic_string<char, std::char_traits<char>, std::allocator<char> >::_Alloc_hider", i64, %union.anon }
%"struct.std::__cxx11::basic_string<char, std::char_traits<char>, std::allocator<char> >::_Alloc_hider" = type { i8* }
%union.anon = type { i64, [8 x i8] }
%"class.std::allocator" = type { i8 }
%"class.std::__debug::vector" = type { %"class.__gnu_debug::_Safe_container.base", %"class.std::__cxx1998::vector", %"class.__gnu_debug::_Safe_vector" }
%"class.__gnu_debug::_Safe_container.base" = type { %"class.__gnu_debug::_Safe_sequence.base" }
%"class.__gnu_debug::_Safe_sequence.base" = type { %"class.__gnu_debug::_Safe_sequence_base.base" }
%"class.__gnu_debug::_Safe_sequence_base.base" = type <{ %"class.__gnu_debug::_Safe_iterator_base"*, %"class.__gnu_debug::_Safe_iterator_base"*, i32 }>
%"class.__gnu_debug::_Safe_iterator_base" = type { %"class.__gnu_debug::_Safe_sequence_base"*, i32, %"class.__gnu_debug::_Safe_iterator_base"*, %"class.__gnu_debug::_Safe_iterator_base"* }
%"class.__gnu_debug::_Safe_sequence_base" = type <{ %"class.__gnu_debug::_Safe_iterator_base"*, %"class.__gnu_debug::_Safe_iterator_base"*, i32, [4 x i8] }>
%"class.std::__cxx1998::vector" = type { %"struct.std::__cxx1998::_Vector_base" }
%"struct.std::__cxx1998::_Vector_base" = type { %"struct.std::__cxx1998::_Vector_base<int, std::allocator<int> >::_Vector_impl" }
%"struct.std::__cxx1998::_Vector_base<int, std::allocator<int> >::_Vector_impl" = type { i32*, i32*, i32* }
%"class.__gnu_debug::_Safe_vector" = type { i64 }
%"class.std::allocator.0" = type { i8 }
%class.Unionfind = type <{ i32, [4 x i8], %"class.std::__debug::vector", %"class.std::__debug::vector", %"class.std::__debug::vector", i32, [4 x i8] }>
%"class.std::__debug::vector.3" = type { %"class.__gnu_debug::_Safe_container.base.7", %"class.std::__cxx1998::vector.8", %"class.__gnu_debug::_Safe_vector.13" }
%"class.__gnu_debug::_Safe_container.base.7" = type { %"class.__gnu_debug::_Safe_sequence.base.6" }
%"class.__gnu_debug::_Safe_sequence.base.6" = type { %"class.__gnu_debug::_Safe_sequence_base.base" }
%"class.std::__cxx1998::vector.8" = type { %"struct.std::__cxx1998::_Vector_base.9" }
%"struct.std::__cxx1998::_Vector_base.9" = type { %"struct.std::__cxx1998::_Vector_base<std::__debug::vector<int, std::allocator<int> >, std::allocator<std::__debug::vector<int, std::allocator<int> > > >::_Vector_impl" }
%"struct.std::__cxx1998::_Vector_base<std::__debug::vector<int, std::allocator<int> >, std::allocator<std::__debug::vector<int, std::allocator<int> > > >::_Vector_impl" = type { %"class.std::__debug::vector"*, %"class.std::__debug::vector"*, %"class.std::__debug::vector"* }
%"class.__gnu_debug::_Safe_vector.13" = type { i64 }
%"class.__gnu_debug::_Safe_iterator" = type { %"class.__gnu_cxx::__normal_iterator", %"class.__gnu_debug::_Safe_iterator_base" }
%"class.__gnu_cxx::__normal_iterator" = type { %"class.std::__debug::vector"* }
%"class.std::__debug::set" = type { %"class.__gnu_debug::_Safe_container.base.17", %"class.std::__cxx1998::set" }
%"class.__gnu_debug::_Safe_container.base.17" = type { %"class.__gnu_debug::_Safe_node_sequence.base" }
%"class.__gnu_debug::_Safe_node_sequence.base" = type { %"class.__gnu_debug::_Safe_sequence.base.16" }
%"class.__gnu_debug::_Safe_sequence.base.16" = type { %"class.__gnu_debug::_Safe_sequence_base.base" }
%"class.std::__cxx1998::set" = type { %"class.std::_Rb_tree" }
%"class.std::_Rb_tree" = type { %"struct.std::_Rb_tree<int, int, std::_Identity<int>, std::less<int>, std::allocator<int> >::_Rb_tree_impl" }
%"struct.std::_Rb_tree<int, int, std::_Identity<int>, std::less<int>, std::allocator<int> >::_Rb_tree_impl" = type { %"struct.std::less", %"struct.std::_Rb_tree_node_base", i64 }
%"struct.std::less" = type { i8 }
%"struct.std::_Rb_tree_node_base" = type { i32, %"struct.std::_Rb_tree_node_base"*, %"struct.std::_Rb_tree_node_base"*, %"struct.std::_Rb_tree_node_base"* }
%"class.__gnu_debug::_Safe_iterator.21" = type { %"class.__gnu_cxx::__normal_iterator.22", %"class.__gnu_debug::_Safe_iterator_base" }
%"class.__gnu_cxx::__normal_iterator.22" = type { i32* }
%"struct.std::pair" = type <{ %"class.__gnu_debug::_Safe_iterator.23", i8, [7 x i8] }>
%"class.__gnu_debug::_Safe_iterator.23" = type { %"struct.std::_Rb_tree_const_iterator", %"class.__gnu_debug::_Safe_iterator_base" }
%"struct.std::_Rb_tree_const_iterator" = type { %"struct.std::_Rb_tree_node_base"* }
%"class.__gnu_cxx::new_allocator.1" = type { i8 }
%"class.__gnu_debug::_Safe_container" = type { %"class.__gnu_debug::_Safe_sequence.base", [4 x i8] }
%"class.__gnu_debug::_Error_formatter" = type <{ i8*, i64, [9 x %"struct.__gnu_debug::_Error_formatter::_Parameter"], i64, i8*, i64, i64, i8, i8, [6 x i8] }>
%"struct.__gnu_debug::_Error_formatter::_Parameter" = type { i32, %union.anon.24 }
%union.anon.24 = type { %struct.anon }
%struct.anon = type { i8*, i8*, %"class.std::type_info"*, i32, i32, i8*, %"class.std::type_info"* }
%"class.std::type_info" = type { i32 (...)**, i8* }
%"class.std::allocator.10" = type { i8 }
%"class.__gnu_debug::_Safe_container.14" = type { %"class.__gnu_debug::_Safe_node_sequence.base", [4 x i8] }
%"struct.std::pair.30" = type <{ %"struct.std::_Rb_tree_const_iterator", i8, [7 x i8] }>
%"class.__gnu_cxx::__scoped_lock" = type { %"class.__gnu_cxx::__mutex"* }
%"class.__gnu_cxx::__mutex" = type { %union.pthread_mutex_t }
%union.pthread_mutex_t = type { %"struct.(anonymous union)::__pthread_mutex_s" }
%"struct.(anonymous union)::__pthread_mutex_s" = type { i32, i32, i32, i32, i32, i16, i16, %struct.__pthread_internal_list }
%struct.__pthread_internal_list = type { %struct.__pthread_internal_list*, %struct.__pthread_internal_list* }
%"class.__gnu_debug::_Safe_container.4" = type { %"class.__gnu_debug::_Safe_sequence.base.6", [4 x i8] }
%"class.__gnu_debug::_Safe_sequence" = type { %"class.__gnu_debug::_Safe_sequence_base.base", [4 x i8] }
%"class.__gnu_cxx::new_allocator.11" = type { i8 }
%"class.__gnu_cxx::__normal_iterator.28" = type { i32* }
%"class.__gnu_debug::_Safe_sequence.5" = type { %"class.__gnu_debug::_Safe_sequence_base.base", [4 x i8] }
%"struct.__gnu_debug::_Error_formatter::_Is_sequence" = type { i8 }
%struct.anon.25 = type { i8*, i8*, %"class.std::type_info"* }
%struct.anon.26 = type { i8*, i64 }
%"class.std::move_iterator" = type { i32* }
%"struct.std::__false_type" = type { i8 }
%"struct.__gnu_debug::_Error_formatter::_Is_iterator" = type { i8 }
%"struct.std::random_access_iterator_tag" = type { i8 }
%"class.std::move_iterator.29" = type { %"class.std::__debug::vector"* }
%"class.__gnu_debug::_Safe_node_sequence" = type { %"class.__gnu_debug::_Safe_sequence.base.16", [4 x i8] }
%"class.__gnu_debug::_Safe_sequence.15" = type { %"class.__gnu_debug::_Safe_sequence_base.base", [4 x i8] }
%"class.std::allocator.18" = type { i8 }
%"class.__gnu_cxx::new_allocator.19" = type { i8 }
%"struct.std::_Rb_tree_node" = type <{ %"struct.std::_Rb_tree_node_base", %"struct.__gnu_cxx::__aligned_membuf", [4 x i8] }>
%"struct.__gnu_cxx::__aligned_membuf" = type { [4 x i8] }
%"class.__gnu_cxx::new_allocator" = type { i8 }
%"struct.std::forward_iterator_tag" = type { i8 }
%"class.__gnu_cxx::__concurrence_lock_error" = type { %"class.std::exception" }
%"class.std::exception" = type { i32 (...)** }
%"class.__gnu_cxx::__concurrence_unlock_error" = type { %"class.std::exception" }
%"struct.std::pair.32" = type <{ %"struct.std::_Rb_tree_iterator", i8, [7 x i8] }>
%"struct.std::_Rb_tree_iterator" = type { %"struct.std::_Rb_tree_node_base"* }
%"struct.std::pair.34" = type { %"struct.std::_Rb_tree_node_base"*, %"struct.std::_Rb_tree_node_base"* }
%"struct.std::_Identity" = type { i8 }
%"struct.std::_Rb_tree<int, int, std::_Identity<int>, std::less<int>, std::allocator<int> >::_Alloc_node" = type { %"class.std::_Rb_tree"* }

$_ZStplIcSt11char_traitsIcESaIcEENSt7__cxx1112basic_stringIT_T0_T1_EEOS8_S5_ = comdat any

$_ZStplIcSt11char_traitsIcESaIcEENSt7__cxx1112basic_stringIT_T0_T1_EES5_RKS8_ = comdat any

$_ZNSt7__cxx1112basic_stringIcSt11char_traitsIcESaIcEED2Ev = comdat any

$_ZNSt7__cxx1112basic_stringIcSt11char_traitsIcESaIcEEC2EPKcRKS3_ = comdat any

$_ZNSaIiEC2Ev = comdat any

$_ZNSt7__debug6vectorIiSaIiEEC2EmRKS1_ = comdat any

$_ZNSaIiED2Ev = comdat any

$_ZN9UnionfindC2Ei = comdat any

$_ZNSt7__debug6vectorIiSaIiEEixEm = comdat any

$_ZN9Unionfind5uniteEii = comdat any

$_ZN9Unionfind5groupEv = comdat any

$_ZNSt7__debug6vectorINS0_IiSaIiEEESaIS2_EE5beginEv = comdat any

$_ZNSt7__debug6vectorINS0_IiSaIiEEESaIS2_EE3endEv = comdat any

$_ZN11__gnu_debugneIN9__gnu_cxx17__normal_iteratorIPNSt7__debug6vectorIiSaIiEEENSt9__cxx19986vectorIS6_SaIS6_EEEEENS4_IS6_SA_EEEEbRKNS_14_Safe_iteratorIT_T0_EESJ_ = comdat any

$_ZNK11__gnu_debug14_Safe_iteratorIN9__gnu_cxx17__normal_iteratorIPNSt7__debug6vectorIiSaIiEEENSt9__cxx19986vectorIS6_SaIS6_EEEEENS4_IS6_SA_EEEdeEv = comdat any

$_ZNSt7__debug6vectorIiSaIiEEC2ERKS2_ = comdat any

$_ZNSt7__debug3setIiSt4lessIiESaIiEEC2Ev = comdat any

$_ZNSt7__debug6vectorIiSaIiEE5beginEv = comdat any

$_ZNSt7__debug6vectorIiSaIiEE3endEv = comdat any

$_ZN11__gnu_debugneIN9__gnu_cxx17__normal_iteratorIPiNSt9__cxx19986vectorIiSaIiEEEEENSt7__debug6vectorIiS6_EEEEbRKNS_14_Safe_iteratorIT_T0_EESH_ = comdat any

$_ZNK11__gnu_debug14_Safe_iteratorIN9__gnu_cxx17__normal_iteratorIPiNSt9__cxx19986vectorIiSaIiEEEEENSt7__debug6vectorIiS6_EEEdeEv = comdat any

$_ZNSt7__debug3setIiSt4lessIiESaIiEE6insertERKi = comdat any

$_ZNSt4pairIN11__gnu_debug14_Safe_iteratorISt23_Rb_tree_const_iteratorIiENSt7__debug3setIiSt4lessIiESaIiEEEEEbED2Ev = comdat any

$_ZN11__gnu_debug14_Safe_iteratorIN9__gnu_cxx17__normal_iteratorIPiNSt9__cxx19986vectorIiSaIiEEEEENSt7__debug6vectorIiS6_EEEppEv = comdat any

$_ZN11__gnu_debug14_Safe_iteratorIN9__gnu_cxx17__normal_iteratorIPiNSt9__cxx19986vectorIiSaIiEEEEENSt7__debug6vectorIiS6_EEED2Ev = comdat any

$_ZN11__gnu_debugneISt23_Rb_tree_const_iteratorIiENSt7__debug3setIiSt4lessIiESaIiEEEEEbRKNS_14_Safe_iteratorIT_T0_EESE_ = comdat any

$_ZNSt7__debug3setIiSt4lessIiESaIiEE4findERKi = comdat any

$_ZNSt7__debug3setIiSt4lessIiESaIiEE3endEv = comdat any

$_ZN11__gnu_debug14_Safe_iteratorISt23_Rb_tree_const_iteratorIiENSt7__debug3setIiSt4lessIiESaIiEEEED2Ev = comdat any

$_ZNSt7__debug3setIiSt4lessIiESaIiEED2Ev = comdat any

$_ZNSt7__debug6vectorIiSaIiEED2Ev = comdat any

$_ZN11__gnu_debug14_Safe_iteratorIN9__gnu_cxx17__normal_iteratorIPNSt7__debug6vectorIiSaIiEEENSt9__cxx19986vectorIS6_SaIS6_EEEEENS4_IS6_SA_EEEppEv = comdat any

$_ZN11__gnu_debug14_Safe_iteratorIN9__gnu_cxx17__normal_iteratorIPNSt7__debug6vectorIiSaIiEEENSt9__cxx19986vectorIS6_SaIS6_EEEEENS4_IS6_SA_EEED2Ev = comdat any

$_ZNSt7__debug6vectorINS0_IiSaIiEEESaIS2_EED2Ev = comdat any

$_ZN9UnionfindD2Ev = comdat any

$_ZNSt7__debug6vectorIiSaIiEEC2EmRKiRKS1_ = comdat any

$_ZN11__gnu_debug15_Safe_containerINSt7__debug6vectorIiSaIiEEES3_NS_14_Safe_sequenceELb1EEC2Ev = comdat any

$_ZNSt9__cxx19986vectorIiSaIiEEC2EmRKiRKS1_ = comdat any

$_ZN11__gnu_debug12_Safe_vectorINSt7__debug6vectorIiSaIiEEENSt9__cxx19986vectorIiS3_EEEC2Ev = comdat any

$_ZN11__gnu_debug15_Safe_containerINSt7__debug6vectorIiSaIiEEES3_NS_14_Safe_sequenceELb1EED2Ev = comdat any

$_ZN11__gnu_debug14_Safe_sequenceINSt7__debug6vectorIiSaIiEEEEC2Ev = comdat any

$_ZN11__gnu_debug19_Safe_sequence_baseC2Ev = comdat any

$_ZNSt9__cxx199812_Vector_baseIiSaIiEEC2EmRKS1_ = comdat any

$_ZNSt9__cxx19986vectorIiSaIiEE18_M_fill_initializeEmRKi = comdat any

$_ZNSt9__cxx199812_Vector_baseIiSaIiEED2Ev = comdat any

$_ZNSt9__cxx199812_Vector_baseIiSaIiEE12_Vector_implC2ERKS1_ = comdat any

$_ZNSt9__cxx199812_Vector_baseIiSaIiEE17_M_create_storageEm = comdat any

$_ZNSt9__cxx199812_Vector_baseIiSaIiEE12_Vector_implD2Ev = comdat any

$_ZN9__gnu_cxx13new_allocatorIiEC2ERKS1_ = comdat any

$_ZNSt9__cxx199812_Vector_baseIiSaIiEE11_M_allocateEm = comdat any

$_ZNSt16allocator_traitsISaIiEE8allocateERS0_m = comdat any

$_ZN9__gnu_cxx13new_allocatorIiE8allocateEmPKv = comdat any

$_ZNK9__gnu_cxx13new_allocatorIiE8max_sizeEv = comdat any

$_ZN9__gnu_cxx13new_allocatorIiED2Ev = comdat any

$_ZSt24__uninitialized_fill_n_aIPimiiET_S1_T0_RKT1_RSaIT2_E = comdat any

$_ZNSt9__cxx199812_Vector_baseIiSaIiEE19_M_get_Tp_allocatorEv = comdat any

$_ZSt20uninitialized_fill_nIPimiET_S1_T0_RKT1_ = comdat any

$_ZNSt22__uninitialized_fill_nILb1EE15__uninit_fill_nIPimiEET_S3_T0_RKT1_ = comdat any

$_ZSt6fill_nIPimiET_S1_T0_RKT1_ = comdat any

$_ZSt10__fill_n_aIPimiEN9__gnu_cxx11__enable_ifIXsr11__is_scalarIT1_EE7__valueET_E6__typeES4_T0_RKS3_ = comdat any

$_ZSt12__niter_baseIPiENSt11_Niter_baseIT_E13iterator_typeES2_ = comdat any

$_ZNSt10_Iter_baseIPiLb0EE7_S_baseES0_ = comdat any

$_ZNSt9__cxx199812_Vector_baseIiSaIiEE13_M_deallocateEPim = comdat any

$__clang_call_terminate = comdat any

$_ZNSt16allocator_traitsISaIiEE10deallocateERS0_Pim = comdat any

$_ZN9__gnu_cxx13new_allocatorIiE10deallocateEPim = comdat any

$_ZN11__gnu_debug12_Safe_vectorINSt7__debug6vectorIiSaIiEEENSt9__cxx19986vectorIiS3_EEE29_M_update_guaranteed_capacityEv = comdat any

$_ZNK11__gnu_debug12_Safe_vectorINSt7__debug6vectorIiSaIiEEENSt9__cxx19986vectorIiS3_EEE6_M_seqEv = comdat any

$_ZNKSt9__cxx19986vectorIiSaIiEE4sizeEv = comdat any

$_ZN11__gnu_debug14_Safe_sequenceINSt7__debug6vectorIiSaIiEEEED2Ev = comdat any

$_ZN11__gnu_debug19_Safe_sequence_baseD2Ev = comdat any

$_ZN9Unionfind4rootEi = comdat any

$_ZNSt7__debug6vectorINS0_IiSaIiEEESaIS2_EEC2Ev = comdat any

$_ZNSaINSt7__debug6vectorIiSaIiEEEEC2Ev = comdat any

$_ZNSt7__debug6vectorINS0_IiSaIiEEESaIS2_EEC2EmRKS3_ = comdat any

$_ZNSaINSt7__debug6vectorIiSaIiEEEED2Ev = comdat any

$_ZNSt7__debug6vectorINS0_IiSaIiEEESaIS2_EEixEm = comdat any

$_ZNSt7__debug6vectorIiSaIiEE9push_backERKi = comdat any

$_ZNKSt9__cxx19986vectorIiSaIiEE5emptyEv = comdat any

$_ZNSt7__debug6vectorINS0_IiSaIiEEESaIS2_EE9push_backERKS2_ = comdat any

$_ZN11__gnu_debug15_Safe_containerINSt7__debug6vectorINS2_IiSaIiEEESaIS4_EEES5_NS_14_Safe_sequenceELb1EEC2Ev = comdat any

$_ZNSt9__cxx19986vectorINSt7__debug6vectorIiSaIiEEESaIS4_EEC2Ev = comdat any

$_ZN11__gnu_debug12_Safe_vectorINSt7__debug6vectorINS2_IiSaIiEEESaIS4_EEENSt9__cxx19986vectorIS4_S5_EEEC2Ev = comdat any

$_ZN11__gnu_debug14_Safe_sequenceINSt7__debug6vectorINS2_IiSaIiEEESaIS4_EEEEC2Ev = comdat any

$_ZNSt9__cxx199812_Vector_baseINSt7__debug6vectorIiSaIiEEESaIS4_EEC2Ev = comdat any

$_ZNSt9__cxx199812_Vector_baseINSt7__debug6vectorIiSaIiEEESaIS4_EE12_Vector_implC2Ev = comdat any

$_ZN9__gnu_cxx13new_allocatorINSt7__debug6vectorIiSaIiEEEEC2Ev = comdat any

$_ZN11__gnu_debug12_Safe_vectorINSt7__debug6vectorINS2_IiSaIiEEESaIS4_EEENSt9__cxx19986vectorIS4_S5_EEE29_M_update_guaranteed_capacityEv = comdat any

$_ZNK11__gnu_debug12_Safe_vectorINSt7__debug6vectorINS2_IiSaIiEEESaIS4_EEENSt9__cxx19986vectorIS4_S5_EEE6_M_seqEv = comdat any

$_ZNKSt9__cxx19986vectorINSt7__debug6vectorIiSaIiEEESaIS4_EE4sizeEv = comdat any

$_ZNSt9__cxx19986vectorINSt7__debug6vectorIiSaIiEEESaIS4_EEC2EmRKS5_ = comdat any

$_ZN11__gnu_debug12_Safe_vectorINSt7__debug6vectorINS2_IiSaIiEEESaIS4_EEENSt9__cxx19986vectorIS4_S5_EEEC2Em = comdat any

$_ZN11__gnu_debug15_Safe_containerINSt7__debug6vectorINS2_IiSaIiEEESaIS4_EEES5_NS_14_Safe_sequenceELb1EED2Ev = comdat any

$_ZNSt9__cxx199812_Vector_baseINSt7__debug6vectorIiSaIiEEESaIS4_EEC2EmRKS5_ = comdat any

$_ZNSt9__cxx19986vectorINSt7__debug6vectorIiSaIiEEESaIS4_EE21_M_default_initializeEm = comdat any

$_ZNSt9__cxx199812_Vector_baseINSt7__debug6vectorIiSaIiEEESaIS4_EED2Ev = comdat any

$_ZNSt9__cxx199812_Vector_baseINSt7__debug6vectorIiSaIiEEESaIS4_EE12_Vector_implC2ERKS5_ = comdat any

$_ZNSt9__cxx199812_Vector_baseINSt7__debug6vectorIiSaIiEEESaIS4_EE17_M_create_storageEm = comdat any

$_ZNSt9__cxx199812_Vector_baseINSt7__debug6vectorIiSaIiEEESaIS4_EE12_Vector_implD2Ev = comdat any

$_ZNSaINSt7__debug6vectorIiSaIiEEEEC2ERKS3_ = comdat any

$_ZN9__gnu_cxx13new_allocatorINSt7__debug6vectorIiSaIiEEEEC2ERKS5_ = comdat any

$_ZNSt9__cxx199812_Vector_baseINSt7__debug6vectorIiSaIiEEESaIS4_EE11_M_allocateEm = comdat any

$_ZNSt16allocator_traitsISaINSt7__debug6vectorIiSaIiEEEEE8allocateERS4_m = comdat any

$_ZN9__gnu_cxx13new_allocatorINSt7__debug6vectorIiSaIiEEEE8allocateEmPKv = comdat any

$_ZNK9__gnu_cxx13new_allocatorINSt7__debug6vectorIiSaIiEEEE8max_sizeEv = comdat any

$_ZN9__gnu_cxx13new_allocatorINSt7__debug6vectorIiSaIiEEEED2Ev = comdat any

$_ZSt27__uninitialized_default_n_aIPNSt7__debug6vectorIiSaIiEEEmS3_ET_S5_T0_RSaIT1_E = comdat any

$_ZNSt9__cxx199812_Vector_baseINSt7__debug6vectorIiSaIiEEESaIS4_EE19_M_get_Tp_allocatorEv = comdat any

$_ZSt25__uninitialized_default_nIPNSt7__debug6vectorIiSaIiEEEmET_S5_T0_ = comdat any

$_ZNSt27__uninitialized_default_n_1ILb0EE18__uninit_default_nIPNSt7__debug6vectorIiSaIiEEEmEET_S7_T0_ = comdat any

$_ZSt10_ConstructINSt7__debug6vectorIiSaIiEEEJEEvPT_DpOT0_ = comdat any

$_ZSt11__addressofINSt7__debug6vectorIiSaIiEEEEPT_RS4_ = comdat any

$_ZSt8_DestroyIPNSt7__debug6vectorIiSaIiEEEEvT_S5_ = comdat any

$_ZNSt7__debug6vectorIiSaIiEEC2Ev = comdat any

$_ZNSt9__cxx19986vectorIiSaIiEEC2Ev = comdat any

$_ZNSt9__cxx199812_Vector_baseIiSaIiEEC2Ev = comdat any

$_ZNSt9__cxx199812_Vector_baseIiSaIiEE12_Vector_implC2Ev = comdat any

$_ZN9__gnu_cxx13new_allocatorIiEC2Ev = comdat any

$_ZNSt12_Destroy_auxILb0EE9__destroyIPNSt7__debug6vectorIiSaIiEEEEEvT_S7_ = comdat any

$_ZSt8_DestroyINSt7__debug6vectorIiSaIiEEEEvPT_ = comdat any

$_ZNSt9__cxx199812_Vector_baseINSt7__debug6vectorIiSaIiEEESaIS4_EE13_M_deallocateEPS4_m = comdat any

$_ZNSt16allocator_traitsISaINSt7__debug6vectorIiSaIiEEEEE10deallocateERS4_PS3_m = comdat any

$_ZN9__gnu_cxx13new_allocatorINSt7__debug6vectorIiSaIiEEEE10deallocateEPS4_m = comdat any

$_ZN11__gnu_debug14_Safe_sequenceINSt7__debug6vectorINS2_IiSaIiEEESaIS4_EEEED2Ev = comdat any

$_ZN11__gnu_debug16_Error_formatter5_M_atEPKcm = comdat any

$_ZNK11__gnu_debug16_Error_formatter11_M_sequenceINSt7__debug6vectorINS3_IiSaIiEEESaIS5_EEEEERKS0_RKT_PKc = comdat any

$_ZNK11__gnu_debug16_Error_formatter10_M_integerElPKc = comdat any

$_ZNSt7__debug6vectorINS0_IiSaIiEEESaIS2_EE7_M_baseEv = comdat any

$_ZNSt9__cxx19986vectorINSt7__debug6vectorIiSaIiEEESaIS4_EEixEm = comdat any

$_ZN11__gnu_debug16_Error_formatterC2EPKcm = comdat any

$_ZN11__gnu_debug16_Error_formatter10_ParameterC2Ev = comdat any

$_ZN11__gnu_debug16_Error_formatter10_ParameterC2INSt7__debug6vectorINS4_IiSaIiEEESaIS6_EEEEERKT_PKcNS0_12_Is_sequenceE = comdat any

$_ZN11__gnu_debug16_Error_formatter10_ParameterC2ElPKc = comdat any

$_ZNK11__gnu_debug12_Safe_vectorINSt7__debug6vectorIiSaIiEEENSt9__cxx19986vectorIiS3_EEE24_M_requires_reallocationEm = comdat any

$_ZNSt9__cxx19986vectorIiSaIiEE9push_backERKi = comdat any

$_ZNK11__gnu_debug19_Safe_sequence_base17_M_invalidate_allEv = comdat any

$_ZNKSt7__debug6vectorIiSaIiEE8capacityEv = comdat any

$_ZNKSt9__cxx19986vectorIiSaIiEE8capacityEv = comdat any

$_ZNSt16allocator_traitsISaIiEE9constructIiJRKiEEEvRS0_PT_DpOT0_ = comdat any

$_ZNSt9__cxx19986vectorIiSaIiEE19_M_emplace_back_auxIJRKiEEEvDpOT_ = comdat any

$_ZN9__gnu_cxx13new_allocatorIiE9constructIiJRKiEEEvPT_DpOT0_ = comdat any

$_ZSt7forwardIRKiEOT_RNSt16remove_referenceIS2_E4typeE = comdat any

$_ZNKSt9__cxx19986vectorIiSaIiEE12_M_check_lenEmPKc = comdat any

$_ZSt34__uninitialized_move_if_noexcept_aIPiS0_SaIiEET0_T_S3_S2_RT1_ = comdat any

$_ZNSt16allocator_traitsISaIiEE7destroyIiEEvRS0_PT_ = comdat any

$_ZSt8_DestroyIPiiEvT_S1_RSaIT0_E = comdat any

$_ZNKSt9__cxx19986vectorIiSaIiEE8max_sizeEv = comdat any

$_ZSt3maxImERKT_S2_S2_ = comdat any

$_ZNSt16allocator_traitsISaIiEE8max_sizeERKS0_ = comdat any

$_ZNKSt9__cxx199812_Vector_baseIiSaIiEE19_M_get_Tp_allocatorEv = comdat any

$_ZSt22__uninitialized_copy_aISt13move_iteratorIPiES1_iET0_T_S4_S3_RSaIT1_E = comdat any

$_ZSt32__make_move_if_noexcept_iteratorIPiSt13move_iteratorIS0_EET0_T_ = comdat any

$_ZSt18uninitialized_copyISt13move_iteratorIPiES1_ET0_T_S4_S3_ = comdat any

$_ZNSt20__uninitialized_copyILb1EE13__uninit_copyISt13move_iteratorIPiES3_EET0_T_S6_S5_ = comdat any

$_ZSt4copyISt13move_iteratorIPiES1_ET0_T_S4_S3_ = comdat any

$_ZN11__gnu_debug13__valid_rangeISt13move_iteratorIPiEEEbRKT_S6_ = comdat any

$_ZNK11__gnu_debug16_Error_formatter11_M_iteratorISt13move_iteratorIPiEEERKS0_RKT_PKc = comdat any

$_ZSt14__copy_move_a2ILb1EPiS0_ET1_T0_S2_S1_ = comdat any

$_ZSt12__miter_baseISt13move_iteratorIPiEENSt11_Miter_baseIT_E13iterator_typeES4_ = comdat any

$_ZN11__gnu_debug17__valid_range_auxISt13move_iteratorIPiEEEbRKT_S6_St12__false_type = comdat any

$_ZN11__gnu_debug18__valid_range_aux2ISt13move_iteratorIPiEEEbRKT_S6_St26random_access_iterator_tag = comdat any

$_ZSt19__iterator_categoryISt13move_iteratorIPiEENSt15iterator_traitsIT_E17iterator_categoryERKS4_ = comdat any

$_ZStmiIPiEDTmicldtfp_4baseEcldtfp0_4baseEERKSt13move_iteratorIT_ES6_ = comdat any

$_ZNKSt13move_iteratorIPiE4baseEv = comdat any

$_ZN11__gnu_debug16_Error_formatter10_ParameterC2ISt13move_iteratorIPiEEERKT_PKcNS0_12_Is_iteratorE = comdat any

$_ZN11__gnu_debug16__check_singularISt13move_iteratorIPiEEEbRKT_ = comdat any

$_ZN11__gnu_debug20__check_singular_auxEPKv = comdat any

$_ZSt13__copy_move_aILb1EPiS0_ET1_T0_S2_S1_ = comdat any

$_ZNSt11__copy_moveILb1ELb1ESt26random_access_iterator_tagE8__copy_mIiEEPT_PKS3_S6_S4_ = comdat any

$_ZNSt10_Iter_baseISt13move_iteratorIPiELb1EE7_S_baseES2_ = comdat any

$_ZNSt13move_iteratorIPiEC2ES0_ = comdat any

$_ZN9__gnu_cxx13new_allocatorIiE7destroyIiEEvPT_ = comdat any

$_ZSt8_DestroyIPiEvT_S1_ = comdat any

$_ZNSt12_Destroy_auxILb1EE9__destroyIPiEEvT_S3_ = comdat any

$_ZN9__gnu_cxxeqIPKiNSt9__cxx19986vectorIiSaIiEEEEEbRKNS_17__normal_iteratorIT_T0_EESC_ = comdat any

$_ZNKSt9__cxx19986vectorIiSaIiEE5beginEv = comdat any

$_ZNKSt9__cxx19986vectorIiSaIiEE3endEv = comdat any

$_ZNK9__gnu_cxx17__normal_iteratorIPKiNSt9__cxx19986vectorIiSaIiEEEE4baseEv = comdat any

$_ZN9__gnu_cxx17__normal_iteratorIPKiNSt9__cxx19986vectorIiSaIiEEEEC2ERKS2_ = comdat any

$_ZNK11__gnu_debug12_Safe_vectorINSt7__debug6vectorINS2_IiSaIiEEESaIS4_EEENSt9__cxx19986vectorIS4_S5_EEE24_M_requires_reallocationEm = comdat any

$_ZNSt9__cxx19986vectorINSt7__debug6vectorIiSaIiEEESaIS4_EE9push_backERKS4_ = comdat any

$_ZNKSt7__debug6vectorINS0_IiSaIiEEESaIS2_EE8capacityEv = comdat any

$_ZNKSt9__cxx19986vectorINSt7__debug6vectorIiSaIiEEESaIS4_EE8capacityEv = comdat any

$_ZNSt16allocator_traitsISaINSt7__debug6vectorIiSaIiEEEEE9constructIS3_JRKS3_EEEvRS4_PT_DpOT0_ = comdat any

$_ZNSt9__cxx19986vectorINSt7__debug6vectorIiSaIiEEESaIS4_EE19_M_emplace_back_auxIJRKS4_EEEvDpOT_ = comdat any

$_ZN9__gnu_cxx13new_allocatorINSt7__debug6vectorIiSaIiEEEE9constructIS4_JRKS4_EEEvPT_DpOT0_ = comdat any

$_ZSt7forwardIRKNSt7__debug6vectorIiSaIiEEEEOT_RNSt16remove_referenceIS6_E4typeE = comdat any

$_ZNKSt9__cxx19986vectorINSt7__debug6vectorIiSaIiEEESaIS4_EE12_M_check_lenEmPKc = comdat any

$_ZSt34__uninitialized_move_if_noexcept_aIPNSt7__debug6vectorIiSaIiEEES4_SaIS3_EET0_T_S7_S6_RT1_ = comdat any

$_ZNSt16allocator_traitsISaINSt7__debug6vectorIiSaIiEEEEE7destroyIS3_EEvRS4_PT_ = comdat any

$_ZSt8_DestroyIPNSt7__debug6vectorIiSaIiEEES3_EvT_S5_RSaIT0_E = comdat any

$_ZNKSt9__cxx19986vectorINSt7__debug6vectorIiSaIiEEESaIS4_EE8max_sizeEv = comdat any

$_ZNSt16allocator_traitsISaINSt7__debug6vectorIiSaIiEEEEE8max_sizeERKS4_ = comdat any

$_ZNKSt9__cxx199812_Vector_baseINSt7__debug6vectorIiSaIiEEESaIS4_EE19_M_get_Tp_allocatorEv = comdat any

$_ZSt22__uninitialized_copy_aISt13move_iteratorIPNSt7__debug6vectorIiSaIiEEEES5_S4_ET0_T_S8_S7_RSaIT1_E = comdat any

$_ZSt32__make_move_if_noexcept_iteratorIPNSt7__debug6vectorIiSaIiEEESt13move_iteratorIS4_EET0_T_ = comdat any

$_ZSt18uninitialized_copyISt13move_iteratorIPNSt7__debug6vectorIiSaIiEEEES5_ET0_T_S8_S7_ = comdat any

$_ZNSt20__uninitialized_copyILb0EE13__uninit_copyISt13move_iteratorIPNSt7__debug6vectorIiSaIiEEEES7_EET0_T_SA_S9_ = comdat any

$_ZStneIPNSt7__debug6vectorIiSaIiEEEEbRKSt13move_iteratorIT_ES9_ = comdat any

$_ZSt10_ConstructINSt7__debug6vectorIiSaIiEEEJS3_EEvPT_DpOT0_ = comdat any

$_ZNKSt13move_iteratorIPNSt7__debug6vectorIiSaIiEEEEdeEv = comdat any

$_ZNSt13move_iteratorIPNSt7__debug6vectorIiSaIiEEEEppEv = comdat any

$_ZSteqIPNSt7__debug6vectorIiSaIiEEEEbRKSt13move_iteratorIT_ES9_ = comdat any

$_ZNKSt13move_iteratorIPNSt7__debug6vectorIiSaIiEEEE4baseEv = comdat any

$_ZSt7forwardINSt7__debug6vectorIiSaIiEEEEOT_RNSt16remove_referenceIS4_E4typeE = comdat any

$_ZNSt7__debug6vectorIiSaIiEEC2EOS2_ = comdat any

$_ZN11__gnu_debug15_Safe_containerINSt7__debug6vectorIiSaIiEEES3_NS_14_Safe_sequenceELb1EEC2EOS6_ = comdat any

$_ZNSt9__cxx19986vectorIiSaIiEEC2EOS2_ = comdat any

$_ZN11__gnu_debug12_Safe_vectorINSt7__debug6vectorIiSaIiEEENSt9__cxx19986vectorIiS3_EEEC2EOS8_ = comdat any

$_ZSt4moveIRNSt9__cxx19986vectorIiSaIiEEEEONSt16remove_referenceIT_E4typeEOS6_ = comdat any

$_ZNSt9__cxx199812_Vector_baseIiSaIiEEC2EOS2_ = comdat any

$_ZSt4moveIRSaIiEEONSt16remove_referenceIT_E4typeEOS3_ = comdat any

$_ZNSt9__cxx199812_Vector_baseIiSaIiEE12_Vector_implC2EOS1_ = comdat any

$_ZNSt9__cxx199812_Vector_baseIiSaIiEE12_Vector_impl12_M_swap_dataERS3_ = comdat any

$_ZSt4swapIPiEvRT_S2_ = comdat any

$_ZSt4moveIRPiEONSt16remove_referenceIT_E4typeEOS3_ = comdat any

$_ZNSt13move_iteratorIPNSt7__debug6vectorIiSaIiEEEEC2ES4_ = comdat any

$_ZN9__gnu_cxx13new_allocatorINSt7__debug6vectorIiSaIiEEEE7destroyIS4_EEvPT_ = comdat any

$_ZN11__gnu_debug15_Safe_containerINSt7__debug6vectorIiSaIiEEES3_NS_14_Safe_sequenceELb1EEC2ERKS6_ = comdat any

$_ZNSt9__cxx19986vectorIiSaIiEEC2ERKS2_ = comdat any

$_ZN11__gnu_debug12_Safe_vectorINSt7__debug6vectorIiSaIiEEENSt9__cxx19986vectorIiS3_EEEC2ERKS8_ = comdat any

$_ZN11__gnu_debug14_Safe_sequenceINSt7__debug6vectorIiSaIiEEEEC2ERKS5_ = comdat any

$_ZN11__gnu_debug19_Safe_sequence_baseC2ERKS0_ = comdat any

$_ZN9__gnu_cxx14__alloc_traitsISaIiEE17_S_select_on_copyERKS1_ = comdat any

$_ZSt22__uninitialized_copy_aIN9__gnu_cxx17__normal_iteratorIPKiNSt9__cxx19986vectorIiSaIiEEEEEPiiET0_T_SB_SA_RSaIT1_E = comdat any

$_ZNSt16allocator_traitsISaIiEE37select_on_container_copy_constructionERKS0_ = comdat any

$_ZNSaIiEC2ERKS_ = comdat any

$_ZSt18uninitialized_copyIN9__gnu_cxx17__normal_iteratorIPKiNSt9__cxx19986vectorIiSaIiEEEEEPiET0_T_SB_SA_ = comdat any

$_ZNSt20__uninitialized_copyILb1EE13__uninit_copyIN9__gnu_cxx17__normal_iteratorIPKiNSt9__cxx19986vectorIiSaIiEEEEEPiEET0_T_SD_SC_ = comdat any

$_ZSt4copyIN9__gnu_cxx17__normal_iteratorIPKiNSt9__cxx19986vectorIiSaIiEEEEEPiET0_T_SB_SA_ = comdat any

$_ZN11__gnu_debug13__valid_rangeIN9__gnu_cxx17__normal_iteratorIPKiNSt9__cxx19986vectorIiSaIiEEEEEEEbRKT_SC_ = comdat any

$_ZNK11__gnu_debug16_Error_formatter11_M_iteratorIN9__gnu_cxx17__normal_iteratorIPKiNSt9__cxx19986vectorIiSaIiEEEEEEERKS0_RKT_PKc = comdat any

$_ZSt14__copy_move_a2ILb0EN9__gnu_cxx17__normal_iteratorIPKiNSt9__cxx19986vectorIiSaIiEEEEEPiET1_T0_SB_SA_ = comdat any

$_ZSt12__miter_baseIN9__gnu_cxx17__normal_iteratorIPKiNSt9__cxx19986vectorIiSaIiEEEEEENSt11_Miter_baseIT_E13iterator_typeESA_ = comdat any

$_ZN11__gnu_debug17__valid_range_auxIN9__gnu_cxx17__normal_iteratorIPKiNSt9__cxx19986vectorIiSaIiEEEEEEEbRKT_SC_St12__false_type = comdat any

$_ZN11__gnu_debug18__valid_range_aux2IN9__gnu_cxx17__normal_iteratorIPKiNSt9__cxx19986vectorIiSaIiEEEEEEEbRKT_SC_St26random_access_iterator_tag = comdat any

$_ZSt19__iterator_categoryIN9__gnu_cxx17__normal_iteratorIPKiNSt9__cxx19986vectorIiSaIiEEEEEENSt15iterator_traitsIT_E17iterator_categoryERKSA_ = comdat any

$_ZN9__gnu_cxxmiIPKiNSt9__cxx19986vectorIiSaIiEEEEENS_17__normal_iteratorIT_T0_E15difference_typeERKSA_SD_ = comdat any

$_ZN11__gnu_debug16_Error_formatter10_ParameterC2IN9__gnu_cxx17__normal_iteratorIPKiNSt9__cxx19986vectorIiSaIiEEEEEEERKT_PKcNS0_12_Is_iteratorE = comdat any

$_ZN11__gnu_debug16__check_singularIN9__gnu_cxx17__normal_iteratorIPKiNSt9__cxx19986vectorIiSaIiEEEEEEEbRKT_ = comdat any

$_ZSt13__copy_move_aILb0EPKiPiET1_T0_S4_S3_ = comdat any

$_ZSt12__niter_baseIN9__gnu_cxx17__normal_iteratorIPKiNSt9__cxx19986vectorIiSaIiEEEEEENSt11_Niter_baseIT_E13iterator_typeESA_ = comdat any

$_ZNSt11__copy_moveILb0ELb1ESt26random_access_iterator_tagE8__copy_mIiEEPT_PKS3_S6_S4_ = comdat any

$_ZNSt10_Iter_baseIN9__gnu_cxx17__normal_iteratorIPKiNSt9__cxx19986vectorIiSaIiEEEEELb1EE7_S_baseES8_ = comdat any

$_ZNSt10_Iter_baseIN9__gnu_cxx17__normal_iteratorIPKiNSt9__cxx19986vectorIiSaIiEEEEELb0EE7_S_baseES8_ = comdat any

$_ZN11__gnu_debug15_Safe_containerINSt7__debug3setIiSt4lessIiESaIiEEES5_NS_19_Safe_node_sequenceELb1EEC2Ev = comdat any

$_ZNSt9__cxx19983setIiSt4lessIiESaIiEEC2Ev = comdat any

$_ZN11__gnu_debug19_Safe_node_sequenceINSt7__debug3setIiSt4lessIiESaIiEEEEC2Ev = comdat any

$_ZN11__gnu_debug14_Safe_sequenceINSt7__debug3setIiSt4lessIiESaIiEEEEC2Ev = comdat any

$_ZNSt8_Rb_treeIiiSt9_IdentityIiESt4lessIiESaIiEEC2Ev = comdat any

$_ZNSt8_Rb_treeIiiSt9_IdentityIiESt4lessIiESaIiEE13_Rb_tree_implIS3_Lb1EEC2Ev = comdat any

$_ZNSaISt13_Rb_tree_nodeIiEEC2Ev = comdat any

$_ZNSt8_Rb_treeIiiSt9_IdentityIiESt4lessIiESaIiEE13_Rb_tree_implIS3_Lb1EE13_M_initializeEv = comdat any

$_ZNSaISt13_Rb_tree_nodeIiEED2Ev = comdat any

$_ZN9__gnu_cxx13new_allocatorISt13_Rb_tree_nodeIiEEC2Ev = comdat any

$_ZN9__gnu_cxx13new_allocatorISt13_Rb_tree_nodeIiEED2Ev = comdat any

$_ZN11__gnu_debug19_Safe_iterator_baseD2Ev = comdat any

$_ZNSt9__cxx19983setIiSt4lessIiESaIiEED2Ev = comdat any

$_ZN11__gnu_debug15_Safe_containerINSt7__debug3setIiSt4lessIiESaIiEEES5_NS_19_Safe_node_sequenceELb1EED2Ev = comdat any

$_ZNSt8_Rb_treeIiiSt9_IdentityIiESt4lessIiESaIiEED2Ev = comdat any

$_ZNSt8_Rb_treeIiiSt9_IdentityIiESt4lessIiESaIiEE8_M_eraseEPSt13_Rb_tree_nodeIiE = comdat any

$_ZNSt8_Rb_treeIiiSt9_IdentityIiESt4lessIiESaIiEE8_M_beginEv = comdat any

$_ZNSt8_Rb_treeIiiSt9_IdentityIiESt4lessIiESaIiEE13_Rb_tree_implIS3_Lb1EED2Ev = comdat any

$_ZNSt8_Rb_treeIiiSt9_IdentityIiESt4lessIiESaIiEE8_S_rightEPSt18_Rb_tree_node_base = comdat any

$_ZNSt8_Rb_treeIiiSt9_IdentityIiESt4lessIiESaIiEE7_S_leftEPSt18_Rb_tree_node_base = comdat any

$_ZNSt8_Rb_treeIiiSt9_IdentityIiESt4lessIiESaIiEE12_M_drop_nodeEPSt13_Rb_tree_nodeIiE = comdat any

$_ZNSt8_Rb_treeIiiSt9_IdentityIiESt4lessIiESaIiEE15_M_destroy_nodeEPSt13_Rb_tree_nodeIiE = comdat any

$_ZNSt8_Rb_treeIiiSt9_IdentityIiESt4lessIiESaIiEE11_M_put_nodeEPSt13_Rb_tree_nodeIiE = comdat any

$_ZNSt16allocator_traitsISaISt13_Rb_tree_nodeIiEEE7destroyIiEEvRS2_PT_ = comdat any

$_ZNSt8_Rb_treeIiiSt9_IdentityIiESt4lessIiESaIiEE21_M_get_Node_allocatorEv = comdat any

$_ZNSt13_Rb_tree_nodeIiE9_M_valptrEv = comdat any

$_ZN9__gnu_cxx13new_allocatorISt13_Rb_tree_nodeIiEE7destroyIiEEvPT_ = comdat any

$_ZN9__gnu_cxx16__aligned_membufIiE6_M_ptrEv = comdat any

$_ZN9__gnu_cxx16__aligned_membufIiE7_M_addrEv = comdat any

$_ZNSt16allocator_traitsISaISt13_Rb_tree_nodeIiEEE10deallocateERS2_PS1_m = comdat any

$_ZN9__gnu_cxx13new_allocatorISt13_Rb_tree_nodeIiEE10deallocateEPS2_m = comdat any

$_ZN11__gnu_debug19_Safe_node_sequenceINSt7__debug3setIiSt4lessIiESaIiEEEED2Ev = comdat any

$_ZN11__gnu_debug14_Safe_sequenceINSt7__debug3setIiSt4lessIiESaIiEEEED2Ev = comdat any

$_ZNSt9__cxx19986vectorIiSaIiEED2Ev = comdat any

$_ZNSt9__cxx19986vectorINSt7__debug6vectorIiSaIiEEESaIS4_EED2Ev = comdat any

$_ZNSt7__cxx1112basic_stringIcSt11char_traitsIcESaIcEE10_M_disposeEv = comdat any

$_ZNSt7__cxx1112basic_stringIcSt11char_traitsIcESaIcEE12_Alloc_hiderD2Ev = comdat any

$_ZNKSt7__cxx1112basic_stringIcSt11char_traitsIcESaIcEE11_M_is_localEv = comdat any

$_ZNSt7__cxx1112basic_stringIcSt11char_traitsIcESaIcEE10_M_destroyEm = comdat any

$_ZNKSt7__cxx1112basic_stringIcSt11char_traitsIcESaIcEE7_M_dataEv = comdat any

$_ZNKSt7__cxx1112basic_stringIcSt11char_traitsIcESaIcEE13_M_local_dataEv = comdat any

$_ZNSt14pointer_traitsIPKcE10pointer_toERS0_ = comdat any

$_ZSt9addressofIKcEPT_RS1_ = comdat any

$_ZSt11__addressofIKcEPT_RS1_ = comdat any

$_ZNSt16allocator_traitsISaIcEE10deallocateERS0_Pcm = comdat any

$_ZNSt7__cxx1112basic_stringIcSt11char_traitsIcESaIcEE16_M_get_allocatorEv = comdat any

$_ZN9__gnu_cxx13new_allocatorIcE10deallocateEPcm = comdat any

$_ZNSt7__cxx1112basic_stringIcSt11char_traitsIcESaIcEEC2Ev = comdat any

$_ZNKSt7__cxx1112basic_stringIcSt11char_traitsIcESaIcEE4sizeEv = comdat any

$_ZNSt7__cxx1112basic_stringIcSt11char_traitsIcESaIcEE7reserveEm = comdat any

$_ZNSt7__cxx1112basic_stringIcSt11char_traitsIcESaIcEE6appendEmc = comdat any

$_ZNSt7__cxx1112basic_stringIcSt11char_traitsIcESaIcEE6appendERKS4_ = comdat any

$_ZNSt7__cxx1112basic_stringIcSt11char_traitsIcESaIcEE13_M_local_dataEv = comdat any

$_ZNSt7__cxx1112basic_stringIcSt11char_traitsIcESaIcEE12_Alloc_hiderC2EPcRKS3_ = comdat any

$_ZNSt7__cxx1112basic_stringIcSt11char_traitsIcESaIcEE13_M_set_lengthEm = comdat any

$_ZNSt14pointer_traitsIPcE10pointer_toERc = comdat any

$_ZSt9addressofIcEPT_RS0_ = comdat any

$_ZSt11__addressofIcEPT_RS0_ = comdat any

$_ZNSt7__cxx1112basic_stringIcSt11char_traitsIcESaIcEE9_M_lengthEm = comdat any

$_ZNSt11char_traitsIcE6assignERcRKc = comdat any

$_ZNKSt7__cxx1112basic_stringIcSt11char_traitsIcESaIcEE6lengthEv = comdat any

$_ZNKSt7__cxx1112basic_stringIcSt11char_traitsIcESaIcEE8capacityEv = comdat any

$_ZNSt7__cxx1112basic_stringIcSt11char_traitsIcESaIcEE9_M_createERmm = comdat any

$_ZNSt7__cxx1112basic_stringIcSt11char_traitsIcESaIcEE7_S_copyEPcPKcm = comdat any

$_ZNSt7__cxx1112basic_stringIcSt11char_traitsIcESaIcEE7_M_dataEPc = comdat any

$_ZNSt7__cxx1112basic_stringIcSt11char_traitsIcESaIcEE11_M_capacityEm = comdat any

$_ZNKSt7__cxx1112basic_stringIcSt11char_traitsIcESaIcEE8max_sizeEv = comdat any

$_ZNSt16allocator_traitsISaIcEE8allocateERS0_m = comdat any

$_ZNSt16allocator_traitsISaIcEE8max_sizeERKS0_ = comdat any

$_ZNKSt7__cxx1112basic_stringIcSt11char_traitsIcESaIcEE16_M_get_allocatorEv = comdat any

$_ZNK9__gnu_cxx13new_allocatorIcE8max_sizeEv = comdat any

$_ZN9__gnu_cxx13new_allocatorIcE8allocateEmPKv = comdat any

$_ZNSt11char_traitsIcE4copyEPcPKcm = comdat any

$_ZNSt7__cxx1112basic_stringIcSt11char_traitsIcESaIcEE14_M_replace_auxEmmmc = comdat any

$_ZNKSt7__cxx1112basic_stringIcSt11char_traitsIcESaIcEE15_M_check_lengthEmmPKc = comdat any

$_ZNSt7__cxx1112basic_stringIcSt11char_traitsIcESaIcEE7_S_moveEPcPKcm = comdat any

$_ZNSt7__cxx1112basic_stringIcSt11char_traitsIcESaIcEE9_M_mutateEmmPKcm = comdat any

$_ZNSt7__cxx1112basic_stringIcSt11char_traitsIcESaIcEE9_S_assignEPcmc = comdat any

$_ZNSt11char_traitsIcE4moveEPcPKcm = comdat any

$_ZNSt11char_traitsIcE6assignEPcmc = comdat any

$_ZNSt7__cxx1112basic_stringIcSt11char_traitsIcESaIcEE9_M_appendEPKcm = comdat any

$_ZSt4moveIRNSt7__cxx1112basic_stringIcSt11char_traitsIcESaIcEEEEONSt16remove_referenceIT_E4typeEOS8_ = comdat any

$_ZNSt7__cxx1112basic_stringIcSt11char_traitsIcESaIcEEC2EOS4_ = comdat any

$_ZSt4moveIRSaIcEEONSt16remove_referenceIT_E4typeEOS3_ = comdat any

$_ZNSt7__cxx1112basic_stringIcSt11char_traitsIcESaIcEE12_M_constructIPKcEEvT_S8_ = comdat any

$_ZNSt11char_traitsIcE6lengthEPKc = comdat any

$_ZNSt7__cxx1112basic_stringIcSt11char_traitsIcESaIcEE16_M_construct_auxIPKcEEvT_S8_St12__false_type = comdat any

$_ZNSt7__cxx1112basic_stringIcSt11char_traitsIcESaIcEE12_M_constructIPKcEEvT_S8_St20forward_iterator_tag = comdat any

$_ZN9__gnu_cxx17__is_null_pointerIKcEEbPT_ = comdat any

$_ZSt8distanceIPKcENSt15iterator_traitsIT_E15difference_typeES3_S3_ = comdat any

$_ZNSt7__cxx1112basic_stringIcSt11char_traitsIcESaIcEE13_S_copy_charsEPcPKcS7_ = comdat any

$_ZSt10__distanceIPKcENSt15iterator_traitsIT_E15difference_typeES3_S3_St26random_access_iterator_tag = comdat any

$_ZSt19__iterator_categoryIPKcENSt15iterator_traitsIT_E17iterator_categoryERKS3_ = comdat any

$_ZNSt9__cxx19986vectorIiSaIiEEC2EmRKS1_ = comdat any

$_ZN11__gnu_debug12_Safe_vectorINSt7__debug6vectorIiSaIiEEENSt9__cxx19986vectorIiS3_EEEC2Em = comdat any

$_ZNSt9__cxx19986vectorIiSaIiEE21_M_default_initializeEm = comdat any

$_ZSt27__uninitialized_default_n_aIPimiET_S1_T0_RSaIT1_E = comdat any

$_ZSt25__uninitialized_default_nIPimET_S1_T0_ = comdat any

$_ZNSt27__uninitialized_default_n_1ILb1EE18__uninit_default_nIPimEET_S3_T0_ = comdat any

$_ZNK11__gnu_debug16_Error_formatter11_M_sequenceINSt7__debug6vectorIiSaIiEEEEERKS0_RKT_PKc = comdat any

$_ZNSt7__debug6vectorIiSaIiEE7_M_baseEv = comdat any

$_ZNSt9__cxx19986vectorIiSaIiEEixEm = comdat any

$_ZN11__gnu_debug16_Error_formatter10_ParameterC2INSt7__debug6vectorIiSaIiEEEEERKT_PKcNS0_12_Is_sequenceE = comdat any

$_ZNSt9__cxx19986vectorINSt7__debug6vectorIiSaIiEEESaIS4_EE5beginEv = comdat any

$_ZN11__gnu_debug14_Safe_iteratorIN9__gnu_cxx17__normal_iteratorIPNSt7__debug6vectorIiSaIiEEENSt9__cxx19986vectorIS6_SaIS6_EEEEENS4_IS6_SA_EEEC2ERKSC_PKNS_19_Safe_sequence_baseE = comdat any

$_ZN9__gnu_cxx17__normal_iteratorIPNSt7__debug6vectorIiSaIiEEENSt9__cxx19986vectorIS4_SaIS4_EEEEC2ERKS5_ = comdat any

$_ZNK11__gnu_debug14_Safe_iteratorIN9__gnu_cxx17__normal_iteratorIPNSt7__debug6vectorIiSaIiEEENSt9__cxx19986vectorIS6_SaIS6_EEEEENS4_IS6_SA_EEE11_M_constantEv = comdat any

$_ZN11__gnu_debug19_Safe_iterator_baseC2EPKNS_19_Safe_sequence_baseEb = comdat any

$_ZNK11__gnu_debug16_Error_formatter11_M_iteratorINS_14_Safe_iteratorIN9__gnu_cxx17__normal_iteratorIPNSt7__debug6vectorIiSaIiEEENSt9__cxx19986vectorIS8_SaIS8_EEEEENS6_IS8_SC_EEEEEERKS0_RKT_PKc = comdat any

$_ZN11__gnu_debug16_Error_formatter10_ParameterC2IN9__gnu_cxx17__normal_iteratorIPNSt7__debug6vectorIiSaIiEEENSt9__cxx19986vectorIS8_SaIS8_EEEEENS6_IS8_SC_EEEERKNS_14_Safe_iteratorIT_T0_EEPKcNS0_12_Is_iteratorE = comdat any

$_ZNK11__gnu_debug14_Safe_iteratorIN9__gnu_cxx17__normal_iteratorIPNSt7__debug6vectorIiSaIiEEENSt9__cxx19986vectorIS6_SaIS6_EEEEENS4_IS6_SA_EEE15_M_get_sequenceEv = comdat any

$_ZNK11__gnu_debug14_Safe_iteratorIN9__gnu_cxx17__normal_iteratorIPNSt7__debug6vectorIiSaIiEEENSt9__cxx19986vectorIS6_SaIS6_EEEEENS4_IS6_SA_EEE18_M_is_before_beginEv = comdat any

$_ZNK11__gnu_debug14_Safe_iteratorIN9__gnu_cxx17__normal_iteratorIPNSt7__debug6vectorIiSaIiEEENSt9__cxx19986vectorIS6_SaIS6_EEEEENS4_IS6_SA_EEE9_M_is_endEv = comdat any

$_ZNK11__gnu_debug14_Safe_iteratorIN9__gnu_cxx17__normal_iteratorIPNSt7__debug6vectorIiSaIiEEENSt9__cxx19986vectorIS6_SaIS6_EEEEENS4_IS6_SA_EEE11_M_is_beginEv = comdat any

$_ZN11__gnu_debug18_BeforeBeginHelperINSt7__debug6vectorINS2_IiSaIiEEESaIS4_EEEE5_S_IsIN9__gnu_cxx17__normal_iteratorIPS4_NSt9__cxx19986vectorIS4_S5_EEEEEEbRKNS_14_Safe_iteratorIT_S6_EE = comdat any

$_ZN9__gnu_cxxeqIPNSt7__debug6vectorIiSaIiEEENSt9__cxx19986vectorIS4_SaIS4_EEEEEbRKNS_17__normal_iteratorIT_T0_EESF_ = comdat any

$_ZNK11__gnu_debug14_Safe_iteratorIN9__gnu_cxx17__normal_iteratorIPNSt7__debug6vectorIiSaIiEEENSt9__cxx19986vectorIS6_SaIS6_EEEEENS4_IS6_SA_EEE4baseEv = comdat any

$_ZNSt9__cxx19986vectorINSt7__debug6vectorIiSaIiEEESaIS4_EE3endEv = comdat any

$_ZNK9__gnu_cxx17__normal_iteratorIPNSt7__debug6vectorIiSaIiEEENSt9__cxx19986vectorIS4_SaIS4_EEEE4baseEv = comdat any

$_ZN9__gnu_cxxneIPNSt7__debug6vectorIiSaIiEEENSt9__cxx19986vectorIS4_SaIS4_EEEEEbRKNS_17__normal_iteratorIT_T0_EESF_ = comdat any

$_ZNK11__gnu_debug14_Safe_iteratorIN9__gnu_cxx17__normal_iteratorIPNSt7__debug6vectorIiSaIiEEENSt9__cxx19986vectorIS6_SaIS6_EEEEENS4_IS6_SA_EEE16_M_incrementableEv = comdat any

$_ZN9__gnu_cxx13__scoped_lockC2ERNS_7__mutexE = comdat any

$_ZN9__gnu_cxx13__scoped_lockD2Ev = comdat any

$_ZN11__gnu_debug14_Safe_iteratorIN9__gnu_cxx17__normal_iteratorIPNSt7__debug6vectorIiSaIiEEENSt9__cxx19986vectorIS6_SaIS6_EEEEENS4_IS6_SA_EEE4baseEv = comdat any

$_ZN9__gnu_cxx17__normal_iteratorIPNSt7__debug6vectorIiSaIiEEENSt9__cxx19986vectorIS4_SaIS4_EEEEppEv = comdat any

$_ZN9__gnu_cxx7__mutex4lockEv = comdat any

$_ZN9__gnu_cxx30__throw_concurrence_lock_errorEv = comdat any

$_ZN9__gnu_cxx24__concurrence_lock_errorC2Ev = comdat any

$_ZN9__gnu_cxx24__concurrence_lock_errorD2Ev = comdat any

$_ZNSt9exceptionC2Ev = comdat any

$_ZN9__gnu_cxx24__concurrence_lock_errorD0Ev = comdat any

$_ZNK9__gnu_cxx24__concurrence_lock_error4whatEv = comdat any

$_ZN9__gnu_cxx7__mutex6unlockEv = comdat any

$_ZN9__gnu_cxx32__throw_concurrence_unlock_errorEv = comdat any

$_ZN9__gnu_cxx26__concurrence_unlock_errorC2Ev = comdat any

$_ZN9__gnu_cxx26__concurrence_unlock_errorD2Ev = comdat any

$_ZN9__gnu_cxx26__concurrence_unlock_errorD0Ev = comdat any

$_ZNK9__gnu_cxx26__concurrence_unlock_error4whatEv = comdat any

$_ZNK11__gnu_debug14_Safe_iteratorIN9__gnu_cxx17__normal_iteratorIPNSt7__debug6vectorIiSaIiEEENSt9__cxx19986vectorIS6_SaIS6_EEEEENS4_IS6_SA_EEE18_M_dereferenceableEv = comdat any

$_ZNK9__gnu_cxx17__normal_iteratorIPNSt7__debug6vectorIiSaIiEEENSt9__cxx19986vectorIS4_SaIS4_EEEEdeEv = comdat any

$_ZNSt9__cxx19986vectorIiSaIiEE5beginEv = comdat any

$_ZN11__gnu_debug14_Safe_iteratorIN9__gnu_cxx17__normal_iteratorIPiNSt9__cxx19986vectorIiSaIiEEEEENSt7__debug6vectorIiS6_EEEC2ERKS8_PKNS_19_Safe_sequence_baseE = comdat any

$_ZN9__gnu_cxx17__normal_iteratorIPiNSt9__cxx19986vectorIiSaIiEEEEC2ERKS1_ = comdat any

$_ZNK11__gnu_debug14_Safe_iteratorIN9__gnu_cxx17__normal_iteratorIPiNSt9__cxx19986vectorIiSaIiEEEEENSt7__debug6vectorIiS6_EEE11_M_constantEv = comdat any

$_ZNK11__gnu_debug16_Error_formatter11_M_iteratorINS_14_Safe_iteratorIN9__gnu_cxx17__normal_iteratorIPiNSt9__cxx19986vectorIiSaIiEEEEENSt7__debug6vectorIiS8_EEEEEERKS0_RKT_PKc = comdat any

$_ZN11__gnu_debug16_Error_formatter10_ParameterC2IN9__gnu_cxx17__normal_iteratorIPiNSt9__cxx19986vectorIiSaIiEEEEENSt7__debug6vectorIiS8_EEEERKNS_14_Safe_iteratorIT_T0_EEPKcNS0_12_Is_iteratorE = comdat any

$_ZNK11__gnu_debug14_Safe_iteratorIN9__gnu_cxx17__normal_iteratorIPiNSt9__cxx19986vectorIiSaIiEEEEENSt7__debug6vectorIiS6_EEE15_M_get_sequenceEv = comdat any

$_ZNK11__gnu_debug14_Safe_iteratorIN9__gnu_cxx17__normal_iteratorIPiNSt9__cxx19986vectorIiSaIiEEEEENSt7__debug6vectorIiS6_EEE18_M_is_before_beginEv = comdat any

$_ZNK11__gnu_debug14_Safe_iteratorIN9__gnu_cxx17__normal_iteratorIPiNSt9__cxx19986vectorIiSaIiEEEEENSt7__debug6vectorIiS6_EEE9_M_is_endEv = comdat any

$_ZNK11__gnu_debug14_Safe_iteratorIN9__gnu_cxx17__normal_iteratorIPiNSt9__cxx19986vectorIiSaIiEEEEENSt7__debug6vectorIiS6_EEE11_M_is_beginEv = comdat any

$_ZN11__gnu_debug18_BeforeBeginHelperINSt7__debug6vectorIiSaIiEEEE5_S_IsIN9__gnu_cxx17__normal_iteratorIPiNSt9__cxx19986vectorIiS3_EEEEEEbRKNS_14_Safe_iteratorIT_S4_EE = comdat any

$_ZN9__gnu_cxxeqIPiNSt9__cxx19986vectorIiSaIiEEEEEbRKNS_17__normal_iteratorIT_T0_EESB_ = comdat any

$_ZNK11__gnu_debug14_Safe_iteratorIN9__gnu_cxx17__normal_iteratorIPiNSt9__cxx19986vectorIiSaIiEEEEENSt7__debug6vectorIiS6_EEE4baseEv = comdat any

$_ZNSt9__cxx19986vectorIiSaIiEE3endEv = comdat any

$_ZNK9__gnu_cxx17__normal_iteratorIPiNSt9__cxx19986vectorIiSaIiEEEE4baseEv = comdat any

$_ZN9__gnu_cxxneIPiNSt9__cxx19986vectorIiSaIiEEEEEbRKNS_17__normal_iteratorIT_T0_EESB_ = comdat any

$_ZNK11__gnu_debug14_Safe_iteratorIN9__gnu_cxx17__normal_iteratorIPiNSt9__cxx19986vectorIiSaIiEEEEENSt7__debug6vectorIiS6_EEE16_M_incrementableEv = comdat any

$_ZN11__gnu_debug14_Safe_iteratorIN9__gnu_cxx17__normal_iteratorIPiNSt9__cxx19986vectorIiSaIiEEEEENSt7__debug6vectorIiS6_EEE4baseEv = comdat any

$_ZN9__gnu_cxx17__normal_iteratorIPiNSt9__cxx19986vectorIiSaIiEEEEppEv = comdat any

$_ZNK11__gnu_debug14_Safe_iteratorIN9__gnu_cxx17__normal_iteratorIPiNSt9__cxx19986vectorIiSaIiEEEEENSt7__debug6vectorIiS6_EEE18_M_dereferenceableEv = comdat any

$_ZNK9__gnu_cxx17__normal_iteratorIPiNSt9__cxx19986vectorIiSaIiEEEEdeEv = comdat any

$_ZNSt9__cxx19983setIiSt4lessIiESaIiEE6insertERKi = comdat any

$_ZN11__gnu_debug14_Safe_iteratorISt23_Rb_tree_const_iteratorIiENSt7__debug3setIiSt4lessIiESaIiEEEEC2ERKS2_PKNS_19_Safe_sequence_baseE = comdat any

$_ZNSt4pairIN11__gnu_debug14_Safe_iteratorISt23_Rb_tree_const_iteratorIiENSt7__debug3setIiSt4lessIiESaIiEEEEEbEC2ISA_RbvEEOT_OT0_ = comdat any

$_ZNSt8_Rb_treeIiiSt9_IdentityIiESt4lessIiESaIiEE16_M_insert_uniqueIRKiEESt4pairISt17_Rb_tree_iteratorIiEbEOT_ = comdat any

$_ZNSt4pairISt23_Rb_tree_const_iteratorIiEbEC2IRSt17_Rb_tree_iteratorIiERbvEEOT_OT0_ = comdat any

$_ZNSt8_Rb_treeIiiSt9_IdentityIiESt4lessIiESaIiEE24_M_get_insert_unique_posERKi = comdat any

$_ZNKSt9_IdentityIiEclERKi = comdat any

$_ZNSt8_Rb_treeIiiSt9_IdentityIiESt4lessIiESaIiEE11_Alloc_nodeC2ERS5_ = comdat any

$_ZNSt8_Rb_treeIiiSt9_IdentityIiESt4lessIiESaIiEE10_M_insert_IRKiNS5_11_Alloc_nodeEEESt17_Rb_tree_iteratorIiEPSt18_Rb_tree_node_baseSD_OT_RT0_ = comdat any

$_ZNSt4pairISt17_Rb_tree_iteratorIiEbEC2IS1_bvEEOT_OT0_ = comdat any

$_ZNSt17_Rb_tree_iteratorIiEC2EPSt18_Rb_tree_node_base = comdat any

$_ZNSt8_Rb_treeIiiSt9_IdentityIiESt4lessIiESaIiEE6_M_endEv = comdat any

$_ZNKSt4lessIiEclERKiS2_ = comdat any

$_ZNSt8_Rb_treeIiiSt9_IdentityIiESt4lessIiESaIiEE6_S_keyEPKSt13_Rb_tree_nodeIiE = comdat any

$_ZNKSt17_Rb_tree_iteratorIiEeqERKS0_ = comdat any

$_ZNSt8_Rb_treeIiiSt9_IdentityIiESt4lessIiESaIiEE5beginEv = comdat any

$_ZNSt4pairIPSt18_Rb_tree_node_baseS1_EC2IRPSt13_Rb_tree_nodeIiES7_vEEOT_OT0_ = comdat any

$_ZNSt17_Rb_tree_iteratorIiEmmEv = comdat any

$_ZNSt8_Rb_treeIiiSt9_IdentityIiESt4lessIiESaIiEE6_S_keyEPKSt18_Rb_tree_node_base = comdat any

$_ZNSt4pairIPSt18_Rb_tree_node_baseS1_EC2IRS1_vEEOT_RKS1_ = comdat any

$_ZNSt8_Rb_treeIiiSt9_IdentityIiESt4lessIiESaIiEE8_S_valueEPKSt13_Rb_tree_nodeIiE = comdat any

$_ZNKSt13_Rb_tree_nodeIiE9_M_valptrEv = comdat any

$_ZNK9__gnu_cxx16__aligned_membufIiE6_M_ptrEv = comdat any

$_ZNK9__gnu_cxx16__aligned_membufIiE7_M_addrEv = comdat any

$_ZSt7forwardIRPSt13_Rb_tree_nodeIiEEOT_RNSt16remove_referenceIS4_E4typeE = comdat any

$_ZNSt8_Rb_treeIiiSt9_IdentityIiESt4lessIiESaIiEE8_S_valueEPKSt18_Rb_tree_node_base = comdat any

$_ZSt7forwardIRPSt18_Rb_tree_node_baseEOT_RNSt16remove_referenceIS3_E4typeE = comdat any

$_ZNKSt8_Rb_treeIiiSt9_IdentityIiESt4lessIiESaIiEE11_Alloc_nodeclIRKiEEPSt13_Rb_tree_nodeIiEOT_ = comdat any

$_ZNSt8_Rb_treeIiiSt9_IdentityIiESt4lessIiESaIiEE14_M_create_nodeIJRKiEEEPSt13_Rb_tree_nodeIiEDpOT_ = comdat any

$_ZNSt8_Rb_treeIiiSt9_IdentityIiESt4lessIiESaIiEE11_M_get_nodeEv = comdat any

$_ZNSt8_Rb_treeIiiSt9_IdentityIiESt4lessIiESaIiEE17_M_construct_nodeIJRKiEEEvPSt13_Rb_tree_nodeIiEDpOT_ = comdat any

$_ZNSt16allocator_traitsISaISt13_Rb_tree_nodeIiEEE8allocateERS2_m = comdat any

$_ZN9__gnu_cxx13new_allocatorISt13_Rb_tree_nodeIiEE8allocateEmPKv = comdat any

$_ZNK9__gnu_cxx13new_allocatorISt13_Rb_tree_nodeIiEE8max_sizeEv = comdat any

$_ZNSt16allocator_traitsISaISt13_Rb_tree_nodeIiEEE9constructIiJRKiEEEvRS2_PT_DpOT0_ = comdat any

$_ZN9__gnu_cxx13new_allocatorISt13_Rb_tree_nodeIiEE9constructIiJRKiEEEvPT_DpOT0_ = comdat any

$_ZSt7forwardISt17_Rb_tree_iteratorIiEEOT_RNSt16remove_referenceIS2_E4typeE = comdat any

$_ZSt7forwardIbEOT_RNSt16remove_referenceIS0_E4typeE = comdat any

$_ZSt7forwardIRSt17_Rb_tree_iteratorIiEEOT_RNSt16remove_referenceIS3_E4typeE = comdat any

$_ZNSt23_Rb_tree_const_iteratorIiEC2ERKSt17_Rb_tree_iteratorIiE = comdat any

$_ZSt7forwardIRbEOT_RNSt16remove_referenceIS1_E4typeE = comdat any

$_ZNK11__gnu_debug14_Safe_iteratorISt23_Rb_tree_const_iteratorIiENSt7__debug3setIiSt4lessIiESaIiEEEE11_M_constantEv = comdat any

$_ZNK11__gnu_debug16_Error_formatter11_M_iteratorINS_14_Safe_iteratorISt23_Rb_tree_const_iteratorIiENSt7__debug3setIiSt4lessIiESaIiEEEEEEERKS0_RKT_PKc = comdat any

$_ZN11__gnu_debug16_Error_formatter10_ParameterC2ISt23_Rb_tree_const_iteratorIiENSt7__debug3setIiSt4lessIiESaIiEEEEERKNS_14_Safe_iteratorIT_T0_EEPKcNS0_12_Is_iteratorE = comdat any

$_ZNK11__gnu_debug14_Safe_iteratorISt23_Rb_tree_const_iteratorIiENSt7__debug3setIiSt4lessIiESaIiEEEE15_M_get_sequenceEv = comdat any

$_ZNK11__gnu_debug14_Safe_iteratorISt23_Rb_tree_const_iteratorIiENSt7__debug3setIiSt4lessIiESaIiEEEE18_M_is_before_beginEv = comdat any

$_ZNK11__gnu_debug14_Safe_iteratorISt23_Rb_tree_const_iteratorIiENSt7__debug3setIiSt4lessIiESaIiEEEE9_M_is_endEv = comdat any

$_ZNK11__gnu_debug14_Safe_iteratorISt23_Rb_tree_const_iteratorIiENSt7__debug3setIiSt4lessIiESaIiEEEE11_M_is_beginEv = comdat any

$_ZN11__gnu_debug18_BeforeBeginHelperINSt7__debug3setIiSt4lessIiESaIiEEEE5_S_IsISt23_Rb_tree_const_iteratorIiEEEbRKNS_14_Safe_iteratorIT_S6_EE = comdat any

$_ZNK11__gnu_debug14_Safe_iteratorISt23_Rb_tree_const_iteratorIiENSt7__debug3setIiSt4lessIiESaIiEEEE4baseEv = comdat any

$_ZNKSt23_Rb_tree_const_iteratorIiEeqERKS0_ = comdat any

$_ZNKSt7__debug3setIiSt4lessIiESaIiEE7_M_baseEv = comdat any

$_ZNKSt9__cxx19983setIiSt4lessIiESaIiEE3endEv = comdat any

$_ZNKSt8_Rb_treeIiiSt9_IdentityIiESt4lessIiESaIiEE3endEv = comdat any

$_ZNSt23_Rb_tree_const_iteratorIiEC2EPKSt18_Rb_tree_node_base = comdat any

$_ZNKSt9__cxx19983setIiSt4lessIiESaIiEE5beginEv = comdat any

$_ZNKSt8_Rb_treeIiiSt9_IdentityIiESt4lessIiESaIiEE5beginEv = comdat any

$_ZSt7forwardIN11__gnu_debug14_Safe_iteratorISt23_Rb_tree_const_iteratorIiENSt7__debug3setIiSt4lessIiESaIiEEEEEEOT_RNSt16remove_referenceISB_E4typeE = comdat any

$_ZN11__gnu_debug14_Safe_iteratorISt23_Rb_tree_const_iteratorIiENSt7__debug3setIiSt4lessIiESaIiEEEEC2EOS9_ = comdat any

$_ZN11__gnu_debug19_Safe_iterator_baseC2Ev = comdat any

$_ZN11__gnu_debug14_Safe_iteratorISt23_Rb_tree_const_iteratorIiENSt7__debug3setIiSt4lessIiESaIiEEEE4baseEv = comdat any

$_ZNSt23_Rb_tree_const_iteratorIiEC2Ev = comdat any

$_ZSt4swapISt23_Rb_tree_const_iteratorIiEEvRT_S3_ = comdat any

$_ZN11__gnu_debug14_Safe_iteratorISt23_Rb_tree_const_iteratorIiENSt7__debug3setIiSt4lessIiESaIiEEEE9_M_attachEPNS_19_Safe_sequence_baseE = comdat any

$_ZSt4moveIRSt23_Rb_tree_const_iteratorIiEEONSt16remove_referenceIT_E4typeEOS4_ = comdat any

$_ZNSt9__cxx19983setIiSt4lessIiESaIiEE4findERKi = comdat any

$_ZNSt8_Rb_treeIiiSt9_IdentityIiESt4lessIiESaIiEE4findERKi = comdat any

$_ZNSt8_Rb_treeIiiSt9_IdentityIiESt4lessIiESaIiEE14_M_lower_boundEPSt13_Rb_tree_nodeIiES8_RKi = comdat any

$_ZNSt8_Rb_treeIiiSt9_IdentityIiESt4lessIiESaIiEE3endEv = comdat any

$_ZNKSt23_Rb_tree_const_iteratorIiEneERKS0_ = comdat any

$_ZTSNSt7__debug6vectorINS0_IiSaIiEEESaIS2_EEE = comdat any

$_ZTSN11__gnu_debug15_Safe_containerINSt7__debug6vectorINS2_IiSaIiEEESaIS4_EEES5_NS_14_Safe_sequenceELb1EEE = comdat any

$_ZTSN11__gnu_debug14_Safe_sequenceINSt7__debug6vectorINS2_IiSaIiEEESaIS4_EEEEE = comdat any

$_ZTSN11__gnu_debug19_Safe_sequence_baseE = comdat any

$_ZTIN11__gnu_debug19_Safe_sequence_baseE = comdat any

$_ZTIN11__gnu_debug14_Safe_sequenceINSt7__debug6vectorINS2_IiSaIiEEESaIS4_EEEEE = comdat any

$_ZTIN11__gnu_debug15_Safe_containerINSt7__debug6vectorINS2_IiSaIiEEESaIS4_EEES5_NS_14_Safe_sequenceELb1EEE = comdat any

$_ZTSNSt9__cxx19986vectorINSt7__debug6vectorIiSaIiEEESaIS4_EEE = comdat any

$_ZTSNSt9__cxx199812_Vector_baseINSt7__debug6vectorIiSaIiEEESaIS4_EEE = comdat any

$_ZTINSt9__cxx199812_Vector_baseINSt7__debug6vectorIiSaIiEEESaIS4_EEE = comdat any

$_ZTINSt9__cxx19986vectorINSt7__debug6vectorIiSaIiEEESaIS4_EEE = comdat any

$_ZTSN11__gnu_debug12_Safe_vectorINSt7__debug6vectorINS2_IiSaIiEEESaIS4_EEENSt9__cxx19986vectorIS4_S5_EEEE = comdat any

$_ZTIN11__gnu_debug12_Safe_vectorINSt7__debug6vectorINS2_IiSaIiEEESaIS4_EEENSt9__cxx19986vectorIS4_S5_EEEE = comdat any

$_ZTINSt7__debug6vectorINS0_IiSaIiEEESaIS2_EEE = comdat any

$_ZTSSt13move_iteratorIPiE = comdat any

$_ZTISt13move_iteratorIPiE = comdat any

$_ZTSN9__gnu_cxx17__normal_iteratorIPKiNSt9__cxx19986vectorIiSaIiEEEEE = comdat any

$_ZTIN9__gnu_cxx17__normal_iteratorIPKiNSt9__cxx19986vectorIiSaIiEEEEE = comdat any

$_ZTSNSt7__debug6vectorIiSaIiEEE = comdat any

$_ZTSN11__gnu_debug15_Safe_containerINSt7__debug6vectorIiSaIiEEES3_NS_14_Safe_sequenceELb1EEE = comdat any

$_ZTSN11__gnu_debug14_Safe_sequenceINSt7__debug6vectorIiSaIiEEEEE = comdat any

$_ZTIN11__gnu_debug14_Safe_sequenceINSt7__debug6vectorIiSaIiEEEEE = comdat any

$_ZTIN11__gnu_debug15_Safe_containerINSt7__debug6vectorIiSaIiEEES3_NS_14_Safe_sequenceELb1EEE = comdat any

$_ZTSNSt9__cxx19986vectorIiSaIiEEE = comdat any

$_ZTSNSt9__cxx199812_Vector_baseIiSaIiEEE = comdat any

$_ZTINSt9__cxx199812_Vector_baseIiSaIiEEE = comdat any

$_ZTINSt9__cxx19986vectorIiSaIiEEE = comdat any

$_ZTSN11__gnu_debug12_Safe_vectorINSt7__debug6vectorIiSaIiEEENSt9__cxx19986vectorIiS3_EEEE = comdat any

$_ZTIN11__gnu_debug12_Safe_vectorINSt7__debug6vectorIiSaIiEEENSt9__cxx19986vectorIiS3_EEEE = comdat any

$_ZTINSt7__debug6vectorIiSaIiEEE = comdat any

$_ZTSN11__gnu_debug14_Safe_iteratorIN9__gnu_cxx17__normal_iteratorIPNSt7__debug6vectorIiSaIiEEENSt9__cxx19986vectorIS6_SaIS6_EEEEENS4_IS6_SA_EEEE = comdat any

$_ZTSN9__gnu_cxx17__normal_iteratorIPNSt7__debug6vectorIiSaIiEEENSt9__cxx19986vectorIS4_SaIS4_EEEEE = comdat any

$_ZTIN9__gnu_cxx17__normal_iteratorIPNSt7__debug6vectorIiSaIiEEENSt9__cxx19986vectorIS4_SaIS4_EEEEE = comdat any

$_ZTSN11__gnu_debug19_Safe_iterator_baseE = comdat any

$_ZTIN11__gnu_debug19_Safe_iterator_baseE = comdat any

$_ZTIN11__gnu_debug14_Safe_iteratorIN9__gnu_cxx17__normal_iteratorIPNSt7__debug6vectorIiSaIiEEENSt9__cxx19986vectorIS6_SaIS6_EEEEENS4_IS6_SA_EEEE = comdat any

$_ZTSN9__gnu_cxx24__concurrence_lock_errorE = comdat any

$_ZTIN9__gnu_cxx24__concurrence_lock_errorE = comdat any

$_ZTVN9__gnu_cxx24__concurrence_lock_errorE = comdat any

$_ZTSN9__gnu_cxx26__concurrence_unlock_errorE = comdat any

$_ZTIN9__gnu_cxx26__concurrence_unlock_errorE = comdat any

$_ZTVN9__gnu_cxx26__concurrence_unlock_errorE = comdat any

$_ZTSN11__gnu_debug14_Safe_iteratorIN9__gnu_cxx17__normal_iteratorIPiNSt9__cxx19986vectorIiSaIiEEEEENSt7__debug6vectorIiS6_EEEE = comdat any

$_ZTSN9__gnu_cxx17__normal_iteratorIPiNSt9__cxx19986vectorIiSaIiEEEEE = comdat any

$_ZTIN9__gnu_cxx17__normal_iteratorIPiNSt9__cxx19986vectorIiSaIiEEEEE = comdat any

$_ZTIN11__gnu_debug14_Safe_iteratorIN9__gnu_cxx17__normal_iteratorIPiNSt9__cxx19986vectorIiSaIiEEEEENSt7__debug6vectorIiS6_EEEE = comdat any

$_ZTSN11__gnu_debug14_Safe_iteratorISt23_Rb_tree_const_iteratorIiENSt7__debug3setIiSt4lessIiESaIiEEEEE = comdat any

$_ZTSSt23_Rb_tree_const_iteratorIiE = comdat any

$_ZTISt23_Rb_tree_const_iteratorIiE = comdat any

$_ZTIN11__gnu_debug14_Safe_iteratorISt23_Rb_tree_const_iteratorIiENSt7__debug3setIiSt4lessIiESaIiEEEEE = comdat any

$_ZTSNSt7__debug3setIiSt4lessIiESaIiEEE = comdat any

$_ZTSN11__gnu_debug15_Safe_containerINSt7__debug3setIiSt4lessIiESaIiEEES5_NS_19_Safe_node_sequenceELb1EEE = comdat any

$_ZTSN11__gnu_debug19_Safe_node_sequenceINSt7__debug3setIiSt4lessIiESaIiEEEEE = comdat any

$_ZTSN11__gnu_debug14_Safe_sequenceINSt7__debug3setIiSt4lessIiESaIiEEEEE = comdat any

$_ZTIN11__gnu_debug14_Safe_sequenceINSt7__debug3setIiSt4lessIiESaIiEEEEE = comdat any

$_ZTIN11__gnu_debug19_Safe_node_sequenceINSt7__debug3setIiSt4lessIiESaIiEEEEE = comdat any

$_ZTIN11__gnu_debug15_Safe_containerINSt7__debug3setIiSt4lessIiESaIiEEES5_NS_19_Safe_node_sequenceELb1EEE = comdat any

$_ZTSNSt9__cxx19983setIiSt4lessIiESaIiEEE = comdat any

$_ZTINSt9__cxx19983setIiSt4lessIiESaIiEEE = comdat any

$_ZTINSt7__debug3setIiSt4lessIiESaIiEEE = comdat any

@_ZStL8__ioinit = internal global %"class.std::ios_base::Init" zeroinitializer, align 1
@__dso_handle = external global i8
@.str = private unnamed_addr constant [5 x i8] c"true\00", align 1
@.str.1 = private unnamed_addr constant [6 x i8] c"false\00", align 1
@_ZSt4cerr = external global %"class.std::basic_ostream", align 8
@.str.2 = private unnamed_addr constant [2 x i8] c"\0A\00", align 1
@_ZSt4cout = external global %"class.std::basic_ostream", align 8
@_ZSt3cin = external global %"class.std::basic_istream", align 8
@.str.3 = private unnamed_addr constant [79 x i8] c"/usr/lib/gcc/x86_64-linux-gnu/5.4.0/../../../../include/c++/5.4.0/debug/vector\00", align 1
@.str.4 = private unnamed_addr constant [5 x i8] c"this\00", align 1
@.str.5 = private unnamed_addr constant [4 x i8] c"__n\00", align 1
@.str.6 = private unnamed_addr constant [5 x i8] c"size\00", align 1
@_ZTVN10__cxxabiv121__vmi_class_type_infoE = external global i8*
@_ZTSNSt7__debug6vectorINS0_IiSaIiEEESaIS2_EEE = linkonce_odr constant [42 x i8] c"NSt7__debug6vectorINS0_IiSaIiEEESaIS2_EEE\00", comdat
@_ZTVN10__cxxabiv120__si_class_type_infoE = external global i8*
@_ZTSN11__gnu_debug15_Safe_containerINSt7__debug6vectorINS2_IiSaIiEEESaIS4_EEES5_NS_14_Safe_sequenceELb1EEE = linkonce_odr constant [103 x i8] c"N11__gnu_debug15_Safe_containerINSt7__debug6vectorINS2_IiSaIiEEESaIS4_EEES5_NS_14_Safe_sequenceELb1EEE\00", comdat
@_ZTSN11__gnu_debug14_Safe_sequenceINSt7__debug6vectorINS2_IiSaIiEEESaIS4_EEEEE = linkonce_odr constant [75 x i8] c"N11__gnu_debug14_Safe_sequenceINSt7__debug6vectorINS2_IiSaIiEEESaIS4_EEEEE\00", comdat
@_ZTVN10__cxxabiv117__class_type_infoE = external global i8*
@_ZTSN11__gnu_debug19_Safe_sequence_baseE = linkonce_odr constant [37 x i8] c"N11__gnu_debug19_Safe_sequence_baseE\00", comdat
@_ZTIN11__gnu_debug19_Safe_sequence_baseE = linkonce_odr constant { i8*, i8* } { i8* bitcast (i8** getelementptr inbounds (i8*, i8** @_ZTVN10__cxxabiv117__class_type_infoE, i64 2) to i8*), i8* getelementptr inbounds ([37 x i8], [37 x i8]* @_ZTSN11__gnu_debug19_Safe_sequence_baseE, i32 0, i32 0) }, comdat
@_ZTIN11__gnu_debug14_Safe_sequenceINSt7__debug6vectorINS2_IiSaIiEEESaIS4_EEEEE = linkonce_odr constant { i8*, i8*, i8* } { i8* bitcast (i8** getelementptr inbounds (i8*, i8** @_ZTVN10__cxxabiv120__si_class_type_infoE, i64 2) to i8*), i8* getelementptr inbounds ([75 x i8], [75 x i8]* @_ZTSN11__gnu_debug14_Safe_sequenceINSt7__debug6vectorINS2_IiSaIiEEESaIS4_EEEEE, i32 0, i32 0), i8* bitcast ({ i8*, i8* }* @_ZTIN11__gnu_debug19_Safe_sequence_baseE to i8*) }, comdat
@_ZTIN11__gnu_debug15_Safe_containerINSt7__debug6vectorINS2_IiSaIiEEESaIS4_EEES5_NS_14_Safe_sequenceELb1EEE = linkonce_odr constant { i8*, i8*, i8* } { i8* bitcast (i8** getelementptr inbounds (i8*, i8** @_ZTVN10__cxxabiv120__si_class_type_infoE, i64 2) to i8*), i8* getelementptr inbounds ([103 x i8], [103 x i8]* @_ZTSN11__gnu_debug15_Safe_containerINSt7__debug6vectorINS2_IiSaIiEEESaIS4_EEES5_NS_14_Safe_sequenceELb1EEE, i32 0, i32 0), i8* bitcast ({ i8*, i8*, i8* }* @_ZTIN11__gnu_debug14_Safe_sequenceINSt7__debug6vectorINS2_IiSaIiEEESaIS4_EEEEE to i8*) }, comdat
@_ZTSNSt9__cxx19986vectorINSt7__debug6vectorIiSaIiEEESaIS4_EEE = linkonce_odr constant [58 x i8] c"NSt9__cxx19986vectorINSt7__debug6vectorIiSaIiEEESaIS4_EEE\00", comdat
@_ZTSNSt9__cxx199812_Vector_baseINSt7__debug6vectorIiSaIiEEESaIS4_EEE = linkonce_odr constant [65 x i8] c"NSt9__cxx199812_Vector_baseINSt7__debug6vectorIiSaIiEEESaIS4_EEE\00", comdat
@_ZTINSt9__cxx199812_Vector_baseINSt7__debug6vectorIiSaIiEEESaIS4_EEE = linkonce_odr constant { i8*, i8* } { i8* bitcast (i8** getelementptr inbounds (i8*, i8** @_ZTVN10__cxxabiv117__class_type_infoE, i64 2) to i8*), i8* getelementptr inbounds ([65 x i8], [65 x i8]* @_ZTSNSt9__cxx199812_Vector_baseINSt7__debug6vectorIiSaIiEEESaIS4_EEE, i32 0, i32 0) }, comdat
@_ZTINSt9__cxx19986vectorINSt7__debug6vectorIiSaIiEEESaIS4_EEE = linkonce_odr constant { i8*, i8*, i32, i32, i8*, i64 } { i8* bitcast (i8** getelementptr inbounds (i8*, i8** @_ZTVN10__cxxabiv121__vmi_class_type_infoE, i64 2) to i8*), i8* getelementptr inbounds ([58 x i8], [58 x i8]* @_ZTSNSt9__cxx19986vectorINSt7__debug6vectorIiSaIiEEESaIS4_EEE, i32 0, i32 0), i32 0, i32 1, i8* bitcast ({ i8*, i8* }* @_ZTINSt9__cxx199812_Vector_baseINSt7__debug6vectorIiSaIiEEESaIS4_EEE to i8*), i64 0 }, comdat
@_ZTSN11__gnu_debug12_Safe_vectorINSt7__debug6vectorINS2_IiSaIiEEESaIS4_EEENSt9__cxx19986vectorIS4_S5_EEEE = linkonce_odr constant [102 x i8] c"N11__gnu_debug12_Safe_vectorINSt7__debug6vectorINS2_IiSaIiEEESaIS4_EEENSt9__cxx19986vectorIS4_S5_EEEE\00", comdat
@_ZTIN11__gnu_debug12_Safe_vectorINSt7__debug6vectorINS2_IiSaIiEEESaIS4_EEENSt9__cxx19986vectorIS4_S5_EEEE = linkonce_odr constant { i8*, i8* } { i8* bitcast (i8** getelementptr inbounds (i8*, i8** @_ZTVN10__cxxabiv117__class_type_infoE, i64 2) to i8*), i8* getelementptr inbounds ([102 x i8], [102 x i8]* @_ZTSN11__gnu_debug12_Safe_vectorINSt7__debug6vectorINS2_IiSaIiEEESaIS4_EEENSt9__cxx19986vectorIS4_S5_EEEE, i32 0, i32 0) }, comdat
@_ZTINSt7__debug6vectorINS0_IiSaIiEEESaIS2_EEE = linkonce_odr constant { i8*, i8*, i32, i32, i8*, i64, i8*, i64, i8*, i64 } { i8* bitcast (i8** getelementptr inbounds (i8*, i8** @_ZTVN10__cxxabiv121__vmi_class_type_infoE, i64 2) to i8*), i8* getelementptr inbounds ([42 x i8], [42 x i8]* @_ZTSNSt7__debug6vectorINS0_IiSaIiEEESaIS2_EEE, i32 0, i32 0), i32 0, i32 3, i8* bitcast ({ i8*, i8*, i8* }* @_ZTIN11__gnu_debug15_Safe_containerINSt7__debug6vectorINS2_IiSaIiEEESaIS4_EEES5_NS_14_Safe_sequenceELb1EEE to i8*), i64 2, i8* bitcast ({ i8*, i8*, i32, i32, i8*, i64 }* @_ZTINSt9__cxx19986vectorINSt7__debug6vectorIiSaIiEEESaIS4_EEE to i8*), i64 6146, i8* bitcast ({ i8*, i8* }* @_ZTIN11__gnu_debug12_Safe_vectorINSt7__debug6vectorINS2_IiSaIiEEESaIS4_EEENSt9__cxx19986vectorIS4_S5_EEEE to i8*), i64 12290 }, comdat
@.str.7 = private unnamed_addr constant [28 x i8] c"vector::_M_emplace_back_aux\00", align 1
@.str.8 = private unnamed_addr constant [86 x i8] c"/usr/lib/gcc/x86_64-linux-gnu/5.4.0/../../../../include/c++/5.4.0/bits/stl_algobase.h\00", align 1
@.str.9 = private unnamed_addr constant [8 x i8] c"__first\00", align 1
@.str.10 = private unnamed_addr constant [7 x i8] c"__last\00", align 1
@_ZTSSt13move_iteratorIPiE = linkonce_odr constant [22 x i8] c"St13move_iteratorIPiE\00", comdat
@_ZTISt13move_iteratorIPiE = linkonce_odr constant { i8*, i8* } { i8* bitcast (i8** getelementptr inbounds (i8*, i8** @_ZTVN10__cxxabiv117__class_type_infoE, i64 2) to i8*), i8* getelementptr inbounds ([22 x i8], [22 x i8]* @_ZTSSt13move_iteratorIPiE, i32 0, i32 0) }, comdat
@_ZTSN9__gnu_cxx17__normal_iteratorIPKiNSt9__cxx19986vectorIiSaIiEEEEE = linkonce_odr constant [66 x i8] c"N9__gnu_cxx17__normal_iteratorIPKiNSt9__cxx19986vectorIiSaIiEEEEE\00", comdat
@_ZTIN9__gnu_cxx17__normal_iteratorIPKiNSt9__cxx19986vectorIiSaIiEEEEE = linkonce_odr constant { i8*, i8* } { i8* bitcast (i8** getelementptr inbounds (i8*, i8** @_ZTVN10__cxxabiv117__class_type_infoE, i64 2) to i8*), i8* getelementptr inbounds ([66 x i8], [66 x i8]* @_ZTSN9__gnu_cxx17__normal_iteratorIPKiNSt9__cxx19986vectorIiSaIiEEEEE, i32 0, i32 0) }, comdat
@.str.11 = private unnamed_addr constant [24 x i8] c"basic_string::_M_create\00", align 1
@.str.12 = private unnamed_addr constant [29 x i8] c"basic_string::_M_replace_aux\00", align 1
@.str.13 = private unnamed_addr constant [42 x i8] c"basic_string::_M_construct null not valid\00", align 1
@_ZTSNSt7__debug6vectorIiSaIiEEE = linkonce_odr constant [28 x i8] c"NSt7__debug6vectorIiSaIiEEE\00", comdat
@_ZTSN11__gnu_debug15_Safe_containerINSt7__debug6vectorIiSaIiEEES3_NS_14_Safe_sequenceELb1EEE = linkonce_odr constant [89 x i8] c"N11__gnu_debug15_Safe_containerINSt7__debug6vectorIiSaIiEEES3_NS_14_Safe_sequenceELb1EEE\00", comdat
@_ZTSN11__gnu_debug14_Safe_sequenceINSt7__debug6vectorIiSaIiEEEEE = linkonce_odr constant [61 x i8] c"N11__gnu_debug14_Safe_sequenceINSt7__debug6vectorIiSaIiEEEEE\00", comdat
@_ZTIN11__gnu_debug14_Safe_sequenceINSt7__debug6vectorIiSaIiEEEEE = linkonce_odr constant { i8*, i8*, i8* } { i8* bitcast (i8** getelementptr inbounds (i8*, i8** @_ZTVN10__cxxabiv120__si_class_type_infoE, i64 2) to i8*), i8* getelementptr inbounds ([61 x i8], [61 x i8]* @_ZTSN11__gnu_debug14_Safe_sequenceINSt7__debug6vectorIiSaIiEEEEE, i32 0, i32 0), i8* bitcast ({ i8*, i8* }* @_ZTIN11__gnu_debug19_Safe_sequence_baseE to i8*) }, comdat
@_ZTIN11__gnu_debug15_Safe_containerINSt7__debug6vectorIiSaIiEEES3_NS_14_Safe_sequenceELb1EEE = linkonce_odr constant { i8*, i8*, i8* } { i8* bitcast (i8** getelementptr inbounds (i8*, i8** @_ZTVN10__cxxabiv120__si_class_type_infoE, i64 2) to i8*), i8* getelementptr inbounds ([89 x i8], [89 x i8]* @_ZTSN11__gnu_debug15_Safe_containerINSt7__debug6vectorIiSaIiEEES3_NS_14_Safe_sequenceELb1EEE, i32 0, i32 0), i8* bitcast ({ i8*, i8*, i8* }* @_ZTIN11__gnu_debug14_Safe_sequenceINSt7__debug6vectorIiSaIiEEEEE to i8*) }, comdat
@_ZTSNSt9__cxx19986vectorIiSaIiEEE = linkonce_odr constant [30 x i8] c"NSt9__cxx19986vectorIiSaIiEEE\00", comdat
@_ZTSNSt9__cxx199812_Vector_baseIiSaIiEEE = linkonce_odr constant [37 x i8] c"NSt9__cxx199812_Vector_baseIiSaIiEEE\00", comdat
@_ZTINSt9__cxx199812_Vector_baseIiSaIiEEE = linkonce_odr constant { i8*, i8* } { i8* bitcast (i8** getelementptr inbounds (i8*, i8** @_ZTVN10__cxxabiv117__class_type_infoE, i64 2) to i8*), i8* getelementptr inbounds ([37 x i8], [37 x i8]* @_ZTSNSt9__cxx199812_Vector_baseIiSaIiEEE, i32 0, i32 0) }, comdat
@_ZTINSt9__cxx19986vectorIiSaIiEEE = linkonce_odr constant { i8*, i8*, i32, i32, i8*, i64 } { i8* bitcast (i8** getelementptr inbounds (i8*, i8** @_ZTVN10__cxxabiv121__vmi_class_type_infoE, i64 2) to i8*), i8* getelementptr inbounds ([30 x i8], [30 x i8]* @_ZTSNSt9__cxx19986vectorIiSaIiEEE, i32 0, i32 0), i32 0, i32 1, i8* bitcast ({ i8*, i8* }* @_ZTINSt9__cxx199812_Vector_baseIiSaIiEEE to i8*), i64 0 }, comdat
@_ZTSN11__gnu_debug12_Safe_vectorINSt7__debug6vectorIiSaIiEEENSt9__cxx19986vectorIiS3_EEEE = linkonce_odr constant [86 x i8] c"N11__gnu_debug12_Safe_vectorINSt7__debug6vectorIiSaIiEEENSt9__cxx19986vectorIiS3_EEEE\00", comdat
@_ZTIN11__gnu_debug12_Safe_vectorINSt7__debug6vectorIiSaIiEEENSt9__cxx19986vectorIiS3_EEEE = linkonce_odr constant { i8*, i8* } { i8* bitcast (i8** getelementptr inbounds (i8*, i8** @_ZTVN10__cxxabiv117__class_type_infoE, i64 2) to i8*), i8* getelementptr inbounds ([86 x i8], [86 x i8]* @_ZTSN11__gnu_debug12_Safe_vectorINSt7__debug6vectorIiSaIiEEENSt9__cxx19986vectorIiS3_EEEE, i32 0, i32 0) }, comdat
@_ZTINSt7__debug6vectorIiSaIiEEE = linkonce_odr constant { i8*, i8*, i32, i32, i8*, i64, i8*, i64, i8*, i64 } { i8* bitcast (i8** getelementptr inbounds (i8*, i8** @_ZTVN10__cxxabiv121__vmi_class_type_infoE, i64 2) to i8*), i8* getelementptr inbounds ([28 x i8], [28 x i8]* @_ZTSNSt7__debug6vectorIiSaIiEEE, i32 0, i32 0), i32 0, i32 3, i8* bitcast ({ i8*, i8*, i8* }* @_ZTIN11__gnu_debug15_Safe_containerINSt7__debug6vectorIiSaIiEEES3_NS_14_Safe_sequenceELb1EEE to i8*), i64 2, i8* bitcast ({ i8*, i8*, i32, i32, i8*, i64 }* @_ZTINSt9__cxx19986vectorIiSaIiEEE to i8*), i64 6146, i8* bitcast ({ i8*, i8* }* @_ZTIN11__gnu_debug12_Safe_vectorINSt7__debug6vectorIiSaIiEEENSt9__cxx19986vectorIiS3_EEEE to i8*), i64 12290 }, comdat
@.str.14 = private unnamed_addr constant [88 x i8] c"/usr/lib/gcc/x86_64-linux-gnu/5.4.0/../../../../include/c++/5.4.0/debug/safe_iterator.h\00", align 1
@_ZTSN11__gnu_debug14_Safe_iteratorIN9__gnu_cxx17__normal_iteratorIPNSt7__debug6vectorIiSaIiEEENSt9__cxx19986vectorIS6_SaIS6_EEEEENS4_IS6_SA_EEEE = linkonce_odr constant [141 x i8] c"N11__gnu_debug14_Safe_iteratorIN9__gnu_cxx17__normal_iteratorIPNSt7__debug6vectorIiSaIiEEENSt9__cxx19986vectorIS6_SaIS6_EEEEENS4_IS6_SA_EEEE\00", comdat
@_ZTSN9__gnu_cxx17__normal_iteratorIPNSt7__debug6vectorIiSaIiEEENSt9__cxx19986vectorIS4_SaIS4_EEEEE = linkonce_odr constant [95 x i8] c"N9__gnu_cxx17__normal_iteratorIPNSt7__debug6vectorIiSaIiEEENSt9__cxx19986vectorIS4_SaIS4_EEEEE\00", comdat
@_ZTIN9__gnu_cxx17__normal_iteratorIPNSt7__debug6vectorIiSaIiEEENSt9__cxx19986vectorIS4_SaIS4_EEEEE = linkonce_odr constant { i8*, i8* } { i8* bitcast (i8** getelementptr inbounds (i8*, i8** @_ZTVN10__cxxabiv117__class_type_infoE, i64 2) to i8*), i8* getelementptr inbounds ([95 x i8], [95 x i8]* @_ZTSN9__gnu_cxx17__normal_iteratorIPNSt7__debug6vectorIiSaIiEEENSt9__cxx19986vectorIS4_SaIS4_EEEEE, i32 0, i32 0) }, comdat
@_ZTSN11__gnu_debug19_Safe_iterator_baseE = linkonce_odr constant [37 x i8] c"N11__gnu_debug19_Safe_iterator_baseE\00", comdat
@_ZTIN11__gnu_debug19_Safe_iterator_baseE = linkonce_odr constant { i8*, i8* } { i8* bitcast (i8** getelementptr inbounds (i8*, i8** @_ZTVN10__cxxabiv117__class_type_infoE, i64 2) to i8*), i8* getelementptr inbounds ([37 x i8], [37 x i8]* @_ZTSN11__gnu_debug19_Safe_iterator_baseE, i32 0, i32 0) }, comdat
@_ZTIN11__gnu_debug14_Safe_iteratorIN9__gnu_cxx17__normal_iteratorIPNSt7__debug6vectorIiSaIiEEENSt9__cxx19986vectorIS6_SaIS6_EEEEENS4_IS6_SA_EEEE = linkonce_odr constant { i8*, i8*, i32, i32, i8*, i64, i8*, i64 } { i8* bitcast (i8** getelementptr inbounds (i8*, i8** @_ZTVN10__cxxabiv121__vmi_class_type_infoE, i64 2) to i8*), i8* getelementptr inbounds ([141 x i8], [141 x i8]* @_ZTSN11__gnu_debug14_Safe_iteratorIN9__gnu_cxx17__normal_iteratorIPNSt7__debug6vectorIiSaIiEEENSt9__cxx19986vectorIS6_SaIS6_EEEEENS4_IS6_SA_EEEE, i32 0, i32 0), i32 0, i32 2, i8* bitcast ({ i8*, i8* }* @_ZTIN9__gnu_cxx17__normal_iteratorIPNSt7__debug6vectorIiSaIiEEENSt9__cxx19986vectorIS4_SaIS4_EEEEE to i8*), i64 0, i8* bitcast ({ i8*, i8* }* @_ZTIN11__gnu_debug19_Safe_iterator_baseE to i8*), i64 2050 }, comdat
@.str.15 = private unnamed_addr constant [4 x i8] c"lhs\00", align 1
@.str.16 = private unnamed_addr constant [4 x i8] c"rhs\00", align 1
@_ZZL18__gthread_active_pvE20__gthread_active_ptr = internal constant i8* bitcast (i32 (i32*, void (i8*)*)* @__pthread_key_create to i8*), align 8
@_ZTSN9__gnu_cxx24__concurrence_lock_errorE = linkonce_odr constant [39 x i8] c"N9__gnu_cxx24__concurrence_lock_errorE\00", comdat
@_ZTISt9exception = external constant i8*
@_ZTIN9__gnu_cxx24__concurrence_lock_errorE = linkonce_odr constant { i8*, i8*, i8* } { i8* bitcast (i8** getelementptr inbounds (i8*, i8** @_ZTVN10__cxxabiv120__si_class_type_infoE, i64 2) to i8*), i8* getelementptr inbounds ([39 x i8], [39 x i8]* @_ZTSN9__gnu_cxx24__concurrence_lock_errorE, i32 0, i32 0), i8* bitcast (i8** @_ZTISt9exception to i8*) }, comdat
@_ZTVN9__gnu_cxx24__concurrence_lock_errorE = linkonce_odr unnamed_addr constant { [5 x i8*] } { [5 x i8*] [i8* null, i8* bitcast ({ i8*, i8*, i8* }* @_ZTIN9__gnu_cxx24__concurrence_lock_errorE to i8*), i8* bitcast (void (%"class.__gnu_cxx::__concurrence_lock_error"*)* @_ZN9__gnu_cxx24__concurrence_lock_errorD2Ev to i8*), i8* bitcast (void (%"class.__gnu_cxx::__concurrence_lock_error"*)* @_ZN9__gnu_cxx24__concurrence_lock_errorD0Ev to i8*), i8* bitcast (i8* (%"class.__gnu_cxx::__concurrence_lock_error"*)* @_ZNK9__gnu_cxx24__concurrence_lock_error4whatEv to i8*)] }, comdat, align 8
@_ZTVSt9exception = external unnamed_addr constant { [5 x i8*] }
@.str.17 = private unnamed_addr constant [36 x i8] c"__gnu_cxx::__concurrence_lock_error\00", align 1
@_ZTSN9__gnu_cxx26__concurrence_unlock_errorE = linkonce_odr constant [41 x i8] c"N9__gnu_cxx26__concurrence_unlock_errorE\00", comdat
@_ZTIN9__gnu_cxx26__concurrence_unlock_errorE = linkonce_odr constant { i8*, i8*, i8* } { i8* bitcast (i8** getelementptr inbounds (i8*, i8** @_ZTVN10__cxxabiv120__si_class_type_infoE, i64 2) to i8*), i8* getelementptr inbounds ([41 x i8], [41 x i8]* @_ZTSN9__gnu_cxx26__concurrence_unlock_errorE, i32 0, i32 0), i8* bitcast (i8** @_ZTISt9exception to i8*) }, comdat
@_ZTVN9__gnu_cxx26__concurrence_unlock_errorE = linkonce_odr unnamed_addr constant { [5 x i8*] } { [5 x i8*] [i8* null, i8* bitcast ({ i8*, i8*, i8* }* @_ZTIN9__gnu_cxx26__concurrence_unlock_errorE to i8*), i8* bitcast (void (%"class.__gnu_cxx::__concurrence_unlock_error"*)* @_ZN9__gnu_cxx26__concurrence_unlock_errorD2Ev to i8*), i8* bitcast (void (%"class.__gnu_cxx::__concurrence_unlock_error"*)* @_ZN9__gnu_cxx26__concurrence_unlock_errorD0Ev to i8*), i8* bitcast (i8* (%"class.__gnu_cxx::__concurrence_unlock_error"*)* @_ZNK9__gnu_cxx26__concurrence_unlock_error4whatEv to i8*)] }, comdat, align 8
@.str.18 = private unnamed_addr constant [38 x i8] c"__gnu_cxx::__concurrence_unlock_error\00", align 1
@_ZTSN11__gnu_debug14_Safe_iteratorIN9__gnu_cxx17__normal_iteratorIPiNSt9__cxx19986vectorIiSaIiEEEEENSt7__debug6vectorIiS6_EEEE = linkonce_odr constant [123 x i8] c"N11__gnu_debug14_Safe_iteratorIN9__gnu_cxx17__normal_iteratorIPiNSt9__cxx19986vectorIiSaIiEEEEENSt7__debug6vectorIiS6_EEEE\00", comdat
@_ZTSN9__gnu_cxx17__normal_iteratorIPiNSt9__cxx19986vectorIiSaIiEEEEE = linkonce_odr constant [65 x i8] c"N9__gnu_cxx17__normal_iteratorIPiNSt9__cxx19986vectorIiSaIiEEEEE\00", comdat
@_ZTIN9__gnu_cxx17__normal_iteratorIPiNSt9__cxx19986vectorIiSaIiEEEEE = linkonce_odr constant { i8*, i8* } { i8* bitcast (i8** getelementptr inbounds (i8*, i8** @_ZTVN10__cxxabiv117__class_type_infoE, i64 2) to i8*), i8* getelementptr inbounds ([65 x i8], [65 x i8]* @_ZTSN9__gnu_cxx17__normal_iteratorIPiNSt9__cxx19986vectorIiSaIiEEEEE, i32 0, i32 0) }, comdat
@_ZTIN11__gnu_debug14_Safe_iteratorIN9__gnu_cxx17__normal_iteratorIPiNSt9__cxx19986vectorIiSaIiEEEEENSt7__debug6vectorIiS6_EEEE = linkonce_odr constant { i8*, i8*, i32, i32, i8*, i64, i8*, i64 } { i8* bitcast (i8** getelementptr inbounds (i8*, i8** @_ZTVN10__cxxabiv121__vmi_class_type_infoE, i64 2) to i8*), i8* getelementptr inbounds ([123 x i8], [123 x i8]* @_ZTSN11__gnu_debug14_Safe_iteratorIN9__gnu_cxx17__normal_iteratorIPiNSt9__cxx19986vectorIiSaIiEEEEENSt7__debug6vectorIiS6_EEEE, i32 0, i32 0), i32 0, i32 2, i8* bitcast ({ i8*, i8* }* @_ZTIN9__gnu_cxx17__normal_iteratorIPiNSt9__cxx19986vectorIiSaIiEEEEE to i8*), i64 0, i8* bitcast ({ i8*, i8* }* @_ZTIN11__gnu_debug19_Safe_iterator_baseE to i8*), i64 2050 }, comdat
@_ZTSN11__gnu_debug14_Safe_iteratorISt23_Rb_tree_const_iteratorIiENSt7__debug3setIiSt4lessIiESaIiEEEEE = linkonce_odr constant [98 x i8] c"N11__gnu_debug14_Safe_iteratorISt23_Rb_tree_const_iteratorIiENSt7__debug3setIiSt4lessIiESaIiEEEEE\00", comdat
@_ZTSSt23_Rb_tree_const_iteratorIiE = linkonce_odr constant [31 x i8] c"St23_Rb_tree_const_iteratorIiE\00", comdat
@_ZTISt23_Rb_tree_const_iteratorIiE = linkonce_odr constant { i8*, i8* } { i8* bitcast (i8** getelementptr inbounds (i8*, i8** @_ZTVN10__cxxabiv117__class_type_infoE, i64 2) to i8*), i8* getelementptr inbounds ([31 x i8], [31 x i8]* @_ZTSSt23_Rb_tree_const_iteratorIiE, i32 0, i32 0) }, comdat
@_ZTIN11__gnu_debug14_Safe_iteratorISt23_Rb_tree_const_iteratorIiENSt7__debug3setIiSt4lessIiESaIiEEEEE = linkonce_odr constant { i8*, i8*, i32, i32, i8*, i64, i8*, i64 } { i8* bitcast (i8** getelementptr inbounds (i8*, i8** @_ZTVN10__cxxabiv121__vmi_class_type_infoE, i64 2) to i8*), i8* getelementptr inbounds ([98 x i8], [98 x i8]* @_ZTSN11__gnu_debug14_Safe_iteratorISt23_Rb_tree_const_iteratorIiENSt7__debug3setIiSt4lessIiESaIiEEEEE, i32 0, i32 0), i32 0, i32 2, i8* bitcast ({ i8*, i8* }* @_ZTISt23_Rb_tree_const_iteratorIiE to i8*), i64 0, i8* bitcast ({ i8*, i8* }* @_ZTIN11__gnu_debug19_Safe_iterator_baseE to i8*), i64 2050 }, comdat
@_ZTSNSt7__debug3setIiSt4lessIiESaIiEEE = linkonce_odr constant [35 x i8] c"NSt7__debug3setIiSt4lessIiESaIiEEE\00", comdat
@_ZTSN11__gnu_debug15_Safe_containerINSt7__debug3setIiSt4lessIiESaIiEEES5_NS_19_Safe_node_sequenceELb1EEE = linkonce_odr constant [101 x i8] c"N11__gnu_debug15_Safe_containerINSt7__debug3setIiSt4lessIiESaIiEEES5_NS_19_Safe_node_sequenceELb1EEE\00", comdat
@_ZTSN11__gnu_debug19_Safe_node_sequenceINSt7__debug3setIiSt4lessIiESaIiEEEEE = linkonce_odr constant [73 x i8] c"N11__gnu_debug19_Safe_node_sequenceINSt7__debug3setIiSt4lessIiESaIiEEEEE\00", comdat
@_ZTSN11__gnu_debug14_Safe_sequenceINSt7__debug3setIiSt4lessIiESaIiEEEEE = linkonce_odr constant [68 x i8] c"N11__gnu_debug14_Safe_sequenceINSt7__debug3setIiSt4lessIiESaIiEEEEE\00", comdat
@_ZTIN11__gnu_debug14_Safe_sequenceINSt7__debug3setIiSt4lessIiESaIiEEEEE = linkonce_odr constant { i8*, i8*, i8* } { i8* bitcast (i8** getelementptr inbounds (i8*, i8** @_ZTVN10__cxxabiv120__si_class_type_infoE, i64 2) to i8*), i8* getelementptr inbounds ([68 x i8], [68 x i8]* @_ZTSN11__gnu_debug14_Safe_sequenceINSt7__debug3setIiSt4lessIiESaIiEEEEE, i32 0, i32 0), i8* bitcast ({ i8*, i8* }* @_ZTIN11__gnu_debug19_Safe_sequence_baseE to i8*) }, comdat
@_ZTIN11__gnu_debug19_Safe_node_sequenceINSt7__debug3setIiSt4lessIiESaIiEEEEE = linkonce_odr constant { i8*, i8*, i8* } { i8* bitcast (i8** getelementptr inbounds (i8*, i8** @_ZTVN10__cxxabiv120__si_class_type_infoE, i64 2) to i8*), i8* getelementptr inbounds ([73 x i8], [73 x i8]* @_ZTSN11__gnu_debug19_Safe_node_sequenceINSt7__debug3setIiSt4lessIiESaIiEEEEE, i32 0, i32 0), i8* bitcast ({ i8*, i8*, i8* }* @_ZTIN11__gnu_debug14_Safe_sequenceINSt7__debug3setIiSt4lessIiESaIiEEEEE to i8*) }, comdat
@_ZTIN11__gnu_debug15_Safe_containerINSt7__debug3setIiSt4lessIiESaIiEEES5_NS_19_Safe_node_sequenceELb1EEE = linkonce_odr constant { i8*, i8*, i8* } { i8* bitcast (i8** getelementptr inbounds (i8*, i8** @_ZTVN10__cxxabiv120__si_class_type_infoE, i64 2) to i8*), i8* getelementptr inbounds ([101 x i8], [101 x i8]* @_ZTSN11__gnu_debug15_Safe_containerINSt7__debug3setIiSt4lessIiESaIiEEES5_NS_19_Safe_node_sequenceELb1EEE, i32 0, i32 0), i8* bitcast ({ i8*, i8*, i8* }* @_ZTIN11__gnu_debug19_Safe_node_sequenceINSt7__debug3setIiSt4lessIiESaIiEEEEE to i8*) }, comdat
@_ZTSNSt9__cxx19983setIiSt4lessIiESaIiEEE = linkonce_odr constant [37 x i8] c"NSt9__cxx19983setIiSt4lessIiESaIiEEE\00", comdat
@_ZTINSt9__cxx19983setIiSt4lessIiESaIiEEE = linkonce_odr constant { i8*, i8* } { i8* bitcast (i8** getelementptr inbounds (i8*, i8** @_ZTVN10__cxxabiv117__class_type_infoE, i64 2) to i8*), i8* getelementptr inbounds ([37 x i8], [37 x i8]* @_ZTSNSt9__cxx19983setIiSt4lessIiESaIiEEE, i32 0, i32 0) }, comdat
@_ZTINSt7__debug3setIiSt4lessIiESaIiEEE = linkonce_odr constant { i8*, i8*, i32, i32, i8*, i64, i8*, i64 } { i8* bitcast (i8** getelementptr inbounds (i8*, i8** @_ZTVN10__cxxabiv121__vmi_class_type_infoE, i64 2) to i8*), i8* getelementptr inbounds ([35 x i8], [35 x i8]* @_ZTSNSt7__debug3setIiSt4lessIiESaIiEEE, i32 0, i32 0), i32 0, i32 2, i8* bitcast ({ i8*, i8*, i8* }* @_ZTIN11__gnu_debug15_Safe_containerINSt7__debug3setIiSt4lessIiESaIiEEES5_NS_19_Safe_node_sequenceELb1EEE to i8*), i64 2, i8* bitcast ({ i8*, i8* }* @_ZTINSt9__cxx19983setIiSt4lessIiESaIiEEE to i8*), i64 6146 }, comdat
@.str.19 = private unnamed_addr constant [6 x i8] c"other\00", align 1
@llvm.global_ctors = appending global [1 x { i32, void ()*, i8* }] [{ i32, void ()*, i8* } { i32 65535, void ()* @_GLOBAL__sub_I_s596957618.cpp, i8* null }]
@x = common global i32 0
@y = common global i32 0
@x.20 = common global i32 0
@y.21 = common global i32 0
@x.22 = common global i32 0
@y.23 = common global i32 0
@x.24 = common global i32 0
@y.25 = common global i32 0
@x.26 = common global i32 0
@y.27 = common global i32 0
@x.28 = common global i32 0
@y.29 = common global i32 0
@x.30 = common global i32 0
@y.31 = common global i32 0
@x.32 = common global i32 0
@y.33 = common global i32 0
@x.34 = common global i32 0
@y.35 = common global i32 0
@x.36 = common global i32 0
@y.37 = common global i32 0
@x.38 = common global i32 0
@y.39 = common global i32 0
@x.40 = common global i32 0
@y.41 = common global i32 0
@x.42 = common global i32 0
@y.43 = common global i32 0
@x.44 = common global i32 0
@y.45 = common global i32 0
@x.46 = common global i32 0
@y.47 = common global i32 0
@x.48 = common global i32 0
@y.49 = common global i32 0
@x.50 = common global i32 0
@y.51 = common global i32 0
@x.52 = common global i32 0
@y.53 = common global i32 0
@x.54 = common global i32 0
@y.55 = common global i32 0
@x.56 = common global i32 0
@y.57 = common global i32 0
@x.58 = common global i32 0
@y.59 = common global i32 0
@x.60 = common global i32 0
@y.61 = common global i32 0
@x.62 = common global i32 0
@y.63 = common global i32 0
@x.64 = common global i32 0
@y.65 = common global i32 0
@x.66 = common global i32 0
@y.67 = common global i32 0
@x.68 = common global i32 0
@y.69 = common global i32 0
@x.70 = common global i32 0
@y.71 = common global i32 0
@x.72 = common global i32 0
@y.73 = common global i32 0
@x.74 = common global i32 0
@y.75 = common global i32 0
@x.76 = common global i32 0
@y.77 = common global i32 0
@x.78 = common global i32 0
@y.79 = common global i32 0
@x.80 = common global i32 0
@y.81 = common global i32 0
@x.82 = common global i32 0
@y.83 = common global i32 0
@x.84 = common global i32 0
@y.85 = common global i32 0
@x.86 = common global i32 0
@y.87 = common global i32 0
@x.88 = common global i32 0
@y.89 = common global i32 0
@x.90 = common global i32 0
@y.91 = common global i32 0
@x.92 = common global i32 0
@y.93 = common global i32 0
@x.94 = common global i32 0
@y.95 = common global i32 0
@x.96 = common global i32 0
@y.97 = common global i32 0
@x.98 = common global i32 0
@y.99 = common global i32 0
@x.100 = common global i32 0
@y.101 = common global i32 0
@x.102 = common global i32 0
@y.103 = common global i32 0
@x.104 = common global i32 0
@y.105 = common global i32 0
@x.106 = common global i32 0
@y.107 = common global i32 0
@x.108 = common global i32 0
@y.109 = common global i32 0
@x.110 = common global i32 0
@y.111 = common global i32 0
@x.112 = common global i32 0
@y.113 = common global i32 0
@x.114 = common global i32 0
@y.115 = common global i32 0
@x.116 = common global i32 0
@y.117 = common global i32 0
@x.118 = common global i32 0
@y.119 = common global i32 0
@x.120 = common global i32 0
@y.121 = common global i32 0
@x.122 = common global i32 0
@y.123 = common global i32 0
@x.124 = common global i32 0
@y.125 = common global i32 0
@x.126 = common global i32 0
@y.127 = common global i32 0
@x.128 = common global i32 0
@y.129 = common global i32 0
@x.130 = common global i32 0
@y.131 = common global i32 0
@x.132 = common global i32 0
@y.133 = common global i32 0
@x.134 = common global i32 0
@y.135 = common global i32 0
@x.136 = common global i32 0
@y.137 = common global i32 0
@x.138 = common global i32 0
@y.139 = common global i32 0
@x.140 = common global i32 0
@y.141 = common global i32 0
@x.142 = common global i32 0
@y.143 = common global i32 0
@x.144 = common global i32 0
@y.145 = common global i32 0
@x.146 = common global i32 0
@y.147 = common global i32 0
@x.148 = common global i32 0
@y.149 = common global i32 0
@x.150 = common global i32 0
@y.151 = common global i32 0
@x.152 = common global i32 0
@y.153 = common global i32 0
@x.154 = common global i32 0
@y.155 = common global i32 0
@x.156 = common global i32 0
@y.157 = common global i32 0
@x.158 = common global i32 0
@y.159 = common global i32 0
@x.160 = common global i32 0
@y.161 = common global i32 0
@x.162 = common global i32 0
@y.163 = common global i32 0
@x.164 = common global i32 0
@y.165 = common global i32 0
@x.166 = common global i32 0
@y.167 = common global i32 0
@x.168 = common global i32 0
@y.169 = common global i32 0
@x.170 = common global i32 0
@y.171 = common global i32 0
@x.172 = common global i32 0
@y.173 = common global i32 0
@x.174 = common global i32 0
@y.175 = common global i32 0
@x.176 = common global i32 0
@y.177 = common global i32 0
@x.178 = common global i32 0
@y.179 = common global i32 0
@x.180 = common global i32 0
@y.181 = common global i32 0
@x.182 = common global i32 0
@y.183 = common global i32 0
@x.184 = common global i32 0
@y.185 = common global i32 0
@x.186 = common global i32 0
@y.187 = common global i32 0
@x.188 = common global i32 0
@y.189 = common global i32 0
@x.190 = common global i32 0
@y.191 = common global i32 0
@x.192 = common global i32 0
@y.193 = common global i32 0
@x.194 = common global i32 0
@y.195 = common global i32 0
@x.196 = common global i32 0
@y.197 = common global i32 0
@x.198 = common global i32 0
@y.199 = common global i32 0
@x.200 = common global i32 0
@y.201 = common global i32 0
@x.202 = common global i32 0
@y.203 = common global i32 0
@x.204 = common global i32 0
@y.205 = common global i32 0
@x.206 = common global i32 0
@y.207 = common global i32 0
@x.208 = common global i32 0
@y.209 = common global i32 0
@x.210 = common global i32 0
@y.211 = common global i32 0
@x.212 = common global i32 0
@y.213 = common global i32 0
@x.214 = common global i32 0
@y.215 = common global i32 0
@x.216 = common global i32 0
@y.217 = common global i32 0
@x.218 = common global i32 0
@y.219 = common global i32 0
@x.220 = common global i32 0
@y.221 = common global i32 0
@x.222 = common global i32 0
@y.223 = common global i32 0
@x.224 = common global i32 0
@y.225 = common global i32 0
@x.226 = common global i32 0
@y.227 = common global i32 0
@x.228 = common global i32 0
@y.229 = common global i32 0
@x.230 = common global i32 0
@y.231 = common global i32 0
@x.232 = common global i32 0
@y.233 = common global i32 0
@x.234 = common global i32 0
@y.235 = common global i32 0
@x.236 = common global i32 0
@y.237 = common global i32 0
@x.238 = common global i32 0
@y.239 = common global i32 0
@x.240 = common global i32 0
@y.241 = common global i32 0
@x.242 = common global i32 0
@y.243 = common global i32 0
@x.244 = common global i32 0
@y.245 = common global i32 0
@x.246 = common global i32 0
@y.247 = common global i32 0
@x.248 = common global i32 0
@y.249 = common global i32 0
@x.250 = common global i32 0
@y.251 = common global i32 0
@x.252 = common global i32 0
@y.253 = common global i32 0
@x.254 = common global i32 0
@y.255 = common global i32 0
@x.256 = common global i32 0
@y.257 = common global i32 0
@x.258 = common global i32 0
@y.259 = common global i32 0
@x.260 = common global i32 0
@y.261 = common global i32 0
@x.262 = common global i32 0
@y.263 = common global i32 0
@x.264 = common global i32 0
@y.265 = common global i32 0
@x.266 = common global i32 0
@y.267 = common global i32 0
@x.268 = common global i32 0
@y.269 = common global i32 0
@x.270 = common global i32 0
@y.271 = common global i32 0
@x.272 = common global i32 0
@y.273 = common global i32 0
@x.274 = common global i32 0
@y.275 = common global i32 0
@x.276 = common global i32 0
@y.277 = common global i32 0
@x.278 = common global i32 0
@y.279 = common global i32 0
@x.280 = common global i32 0
@y.281 = common global i32 0
@x.282 = common global i32 0
@y.283 = common global i32 0
@x.284 = common global i32 0
@y.285 = common global i32 0
@x.286 = common global i32 0
@y.287 = common global i32 0
@x.288 = common global i32 0
@y.289 = common global i32 0
@x.290 = common global i32 0
@y.291 = common global i32 0
@x.292 = common global i32 0
@y.293 = common global i32 0
@x.294 = common global i32 0
@y.295 = common global i32 0
@x.296 = common global i32 0
@y.297 = common global i32 0
@x.298 = common global i32 0
@y.299 = common global i32 0
@x.300 = common global i32 0
@y.301 = common global i32 0
@x.302 = common global i32 0
@y.303 = common global i32 0
@x.304 = common global i32 0
@y.305 = common global i32 0
@x.306 = common global i32 0
@y.307 = common global i32 0
@x.308 = common global i32 0
@y.309 = common global i32 0
@x.310 = common global i32 0
@y.311 = common global i32 0
@x.312 = common global i32 0
@y.313 = common global i32 0
@x.314 = common global i32 0
@y.315 = common global i32 0
@x.316 = common global i32 0
@y.317 = common global i32 0
@x.318 = common global i32 0
@y.319 = common global i32 0
@x.320 = common global i32 0
@y.321 = common global i32 0
@x.322 = common global i32 0
@y.323 = common global i32 0
@x.324 = common global i32 0
@y.325 = common global i32 0
@x.326 = common global i32 0
@y.327 = common global i32 0
@x.328 = common global i32 0
@y.329 = common global i32 0
@x.330 = common global i32 0
@y.331 = common global i32 0
@x.332 = common global i32 0
@y.333 = common global i32 0
@x.334 = common global i32 0
@y.335 = common global i32 0
@x.336 = common global i32 0
@y.337 = common global i32 0
@x.338 = common global i32 0
@y.339 = common global i32 0
@x.340 = common global i32 0
@y.341 = common global i32 0
@x.342 = common global i32 0
@y.343 = common global i32 0
@x.344 = common global i32 0
@y.345 = common global i32 0
@x.346 = common global i32 0
@y.347 = common global i32 0
@x.348 = common global i32 0
@y.349 = common global i32 0
@x.350 = common global i32 0
@y.351 = common global i32 0
@x.352 = common global i32 0
@y.353 = common global i32 0
@x.354 = common global i32 0
@y.355 = common global i32 0
@x.356 = common global i32 0
@y.357 = common global i32 0
@x.358 = common global i32 0
@y.359 = common global i32 0
@x.360 = common global i32 0
@y.361 = common global i32 0
@x.362 = common global i32 0
@y.363 = common global i32 0
@x.364 = common global i32 0
@y.365 = common global i32 0
@x.366 = common global i32 0
@y.367 = common global i32 0
@x.368 = common global i32 0
@y.369 = common global i32 0
@x.370 = common global i32 0
@y.371 = common global i32 0
@x.372 = common global i32 0
@y.373 = common global i32 0
@x.374 = common global i32 0
@y.375 = common global i32 0
@x.376 = common global i32 0
@y.377 = common global i32 0
@x.378 = common global i32 0
@y.379 = common global i32 0
@x.380 = common global i32 0
@y.381 = common global i32 0
@x.382 = common global i32 0
@y.383 = common global i32 0
@x.384 = common global i32 0
@y.385 = common global i32 0
@x.386 = common global i32 0
@y.387 = common global i32 0
@x.388 = common global i32 0
@y.389 = common global i32 0
@x.390 = common global i32 0
@y.391 = common global i32 0
@x.392 = common global i32 0
@y.393 = common global i32 0
@x.394 = common global i32 0
@y.395 = common global i32 0
@x.396 = common global i32 0
@y.397 = common global i32 0
@x.398 = common global i32 0
@y.399 = common global i32 0
@x.400 = common global i32 0
@y.401 = common global i32 0
@x.402 = common global i32 0
@y.403 = common global i32 0
@x.404 = common global i32 0
@y.405 = common global i32 0
@x.406 = common global i32 0
@y.407 = common global i32 0
@x.408 = common global i32 0
@y.409 = common global i32 0
@x.410 = common global i32 0
@y.411 = common global i32 0
@x.412 = common global i32 0
@y.413 = common global i32 0
@x.414 = common global i32 0
@y.415 = common global i32 0
@x.416 = common global i32 0
@y.417 = common global i32 0
@x.418 = common global i32 0
@y.419 = common global i32 0
@x.420 = common global i32 0
@y.421 = common global i32 0
@x.422 = common global i32 0
@y.423 = common global i32 0
@x.424 = common global i32 0
@y.425 = common global i32 0
@x.426 = common global i32 0
@y.427 = common global i32 0
@x.428 = common global i32 0
@y.429 = common global i32 0
@x.430 = common global i32 0
@y.431 = common global i32 0
@x.432 = common global i32 0
@y.433 = common global i32 0
@x.434 = common global i32 0
@y.435 = common global i32 0
@x.436 = common global i32 0
@y.437 = common global i32 0
@x.438 = common global i32 0
@y.439 = common global i32 0
@x.440 = common global i32 0
@y.441 = common global i32 0
@x.442 = common global i32 0
@y.443 = common global i32 0
@x.444 = common global i32 0
@y.445 = common global i32 0
@x.446 = common global i32 0
@y.447 = common global i32 0
@x.448 = common global i32 0
@y.449 = common global i32 0
@x.450 = common global i32 0
@y.451 = common global i32 0
@x.452 = common global i32 0
@y.453 = common global i32 0
@x.454 = common global i32 0
@y.455 = common global i32 0
@x.456 = common global i32 0
@y.457 = common global i32 0
@x.458 = common global i32 0
@y.459 = common global i32 0
@x.460 = common global i32 0
@y.461 = common global i32 0
@x.462 = common global i32 0
@y.463 = common global i32 0
@x.464 = common global i32 0
@y.465 = common global i32 0
@x.466 = common global i32 0
@y.467 = common global i32 0
@x.468 = common global i32 0
@y.469 = common global i32 0
@x.470 = common global i32 0
@y.471 = common global i32 0
@x.472 = common global i32 0
@y.473 = common global i32 0
@x.474 = common global i32 0
@y.475 = common global i32 0
@x.476 = common global i32 0
@y.477 = common global i32 0
@x.478 = common global i32 0
@y.479 = common global i32 0
@x.480 = common global i32 0
@y.481 = common global i32 0
@x.482 = common global i32 0
@y.483 = common global i32 0
@x.484 = common global i32 0
@y.485 = common global i32 0
@x.486 = common global i32 0
@y.487 = common global i32 0
@x.488 = common global i32 0
@y.489 = common global i32 0
@x.490 = common global i32 0
@y.491 = common global i32 0
@x.492 = common global i32 0
@y.493 = common global i32 0
@x.494 = common global i32 0
@y.495 = common global i32 0
@x.496 = common global i32 0
@y.497 = common global i32 0
@x.498 = common global i32 0
@y.499 = common global i32 0
@x.500 = common global i32 0
@y.501 = common global i32 0
@x.502 = common global i32 0
@y.503 = common global i32 0
@x.504 = common global i32 0
@y.505 = common global i32 0
@x.506 = common global i32 0
@y.507 = common global i32 0
@x.508 = common global i32 0
@y.509 = common global i32 0
@x.510 = common global i32 0
@y.511 = common global i32 0
@x.512 = common global i32 0
@y.513 = common global i32 0
@x.514 = common global i32 0
@y.515 = common global i32 0
@x.516 = common global i32 0
@y.517 = common global i32 0
@x.518 = common global i32 0
@y.519 = common global i32 0
@x.520 = common global i32 0
@y.521 = common global i32 0
@x.522 = common global i32 0
@y.523 = common global i32 0
@x.524 = common global i32 0
@y.525 = common global i32 0
@x.526 = common global i32 0
@y.527 = common global i32 0
@x.528 = common global i32 0
@y.529 = common global i32 0
@x.530 = common global i32 0
@y.531 = common global i32 0
@x.532 = common global i32 0
@y.533 = common global i32 0
@x.534 = common global i32 0
@y.535 = common global i32 0
@x.536 = common global i32 0
@y.537 = common global i32 0
@x.538 = common global i32 0
@y.539 = common global i32 0
@x.540 = common global i32 0
@y.541 = common global i32 0
@x.542 = common global i32 0
@y.543 = common global i32 0
@x.544 = common global i32 0
@y.545 = common global i32 0
@x.546 = common global i32 0
@y.547 = common global i32 0
@x.548 = common global i32 0
@y.549 = common global i32 0
@x.550 = common global i32 0
@y.551 = common global i32 0
@x.552 = common global i32 0
@y.553 = common global i32 0
@x.554 = common global i32 0
@y.555 = common global i32 0
@x.556 = common global i32 0
@y.557 = common global i32 0
@x.558 = common global i32 0
@y.559 = common global i32 0
@x.560 = common global i32 0
@y.561 = common global i32 0
@x.562 = common global i32 0
@y.563 = common global i32 0
@x.564 = common global i32 0
@y.565 = common global i32 0
@x.566 = common global i32 0
@y.567 = common global i32 0
@x.568 = common global i32 0
@y.569 = common global i32 0
@x.570 = common global i32 0
@y.571 = common global i32 0
@x.572 = common global i32 0
@y.573 = common global i32 0
@x.574 = common global i32 0
@y.575 = common global i32 0
@x.576 = common global i32 0
@y.577 = common global i32 0
@x.578 = common global i32 0
@y.579 = common global i32 0
@x.580 = common global i32 0
@y.581 = common global i32 0
@x.582 = common global i32 0
@y.583 = common global i32 0
@x.584 = common global i32 0
@y.585 = common global i32 0
@x.586 = common global i32 0
@y.587 = common global i32 0
@x.588 = common global i32 0
@y.589 = common global i32 0
@x.590 = common global i32 0
@y.591 = common global i32 0
@x.592 = common global i32 0
@y.593 = common global i32 0
@x.594 = common global i32 0
@y.595 = common global i32 0
@x.596 = common global i32 0
@y.597 = common global i32 0
@x.598 = common global i32 0
@y.599 = common global i32 0
@x.600 = common global i32 0
@y.601 = common global i32 0
@x.602 = common global i32 0
@y.603 = common global i32 0
@x.604 = common global i32 0
@y.605 = common global i32 0
@x.606 = common global i32 0
@y.607 = common global i32 0
@x.608 = common global i32 0
@y.609 = common global i32 0
@x.610 = common global i32 0
@y.611 = common global i32 0
@x.612 = common global i32 0
@y.613 = common global i32 0
@x.614 = common global i32 0
@y.615 = common global i32 0
@x.616 = common global i32 0
@y.617 = common global i32 0
@x.618 = common global i32 0
@y.619 = common global i32 0
@x.620 = common global i32 0
@y.621 = common global i32 0
@x.622 = common global i32 0
@y.623 = common global i32 0
@x.624 = common global i32 0
@y.625 = common global i32 0
@x.626 = common global i32 0
@y.627 = common global i32 0
@x.628 = common global i32 0
@y.629 = common global i32 0
@x.630 = common global i32 0
@y.631 = common global i32 0
@x.632 = common global i32 0
@y.633 = common global i32 0
@x.634 = common global i32 0
@y.635 = common global i32 0
@x.636 = common global i32 0
@y.637 = common global i32 0
@x.638 = common global i32 0
@y.639 = common global i32 0
@x.640 = common global i32 0
@y.641 = common global i32 0
@x.642 = common global i32 0
@y.643 = common global i32 0
@x.644 = common global i32 0
@y.645 = common global i32 0
@x.646 = common global i32 0
@y.647 = common global i32 0
@x.648 = common global i32 0
@y.649 = common global i32 0
@x.650 = common global i32 0
@y.651 = common global i32 0
@x.652 = common global i32 0
@y.653 = common global i32 0
@x.654 = common global i32 0
@y.655 = common global i32 0
@x.656 = common global i32 0
@y.657 = common global i32 0
@x.658 = common global i32 0
@y.659 = common global i32 0
@x.660 = common global i32 0
@y.661 = common global i32 0
@x.662 = common global i32 0
@y.663 = common global i32 0
@x.664 = common global i32 0
@y.665 = common global i32 0
@x.666 = common global i32 0
@y.667 = common global i32 0
@x.668 = common global i32 0
@y.669 = common global i32 0
@x.670 = common global i32 0
@y.671 = common global i32 0
@x.672 = common global i32 0
@y.673 = common global i32 0
@x.674 = common global i32 0
@y.675 = common global i32 0
@x.676 = common global i32 0
@y.677 = common global i32 0
@x.678 = common global i32 0
@y.679 = common global i32 0
@x.680 = common global i32 0
@y.681 = common global i32 0
@x.682 = common global i32 0
@y.683 = common global i32 0
@x.684 = common global i32 0
@y.685 = common global i32 0
@x.686 = common global i32 0
@y.687 = common global i32 0
@x.688 = common global i32 0
@y.689 = common global i32 0
@x.690 = common global i32 0
@y.691 = common global i32 0
@x.692 = common global i32 0
@y.693 = common global i32 0
@x.694 = common global i32 0
@y.695 = common global i32 0
@x.696 = common global i32 0
@y.697 = common global i32 0
@x.698 = common global i32 0
@y.699 = common global i32 0
@x.700 = common global i32 0
@y.701 = common global i32 0
@x.702 = common global i32 0
@y.703 = common global i32 0
@x.704 = common global i32 0
@y.705 = common global i32 0
@x.706 = common global i32 0
@y.707 = common global i32 0
@x.708 = common global i32 0
@y.709 = common global i32 0
@x.710 = common global i32 0
@y.711 = common global i32 0
@x.712 = common global i32 0
@y.713 = common global i32 0
@x.714 = common global i32 0
@y.715 = common global i32 0
@x.716 = common global i32 0
@y.717 = common global i32 0
@x.718 = common global i32 0
@y.719 = common global i32 0
@x.720 = common global i32 0
@y.721 = common global i32 0
@x.722 = common global i32 0
@y.723 = common global i32 0
@x.724 = common global i32 0
@y.725 = common global i32 0
@x.726 = common global i32 0
@y.727 = common global i32 0
@x.728 = common global i32 0
@y.729 = common global i32 0
@x.730 = common global i32 0
@y.731 = common global i32 0
@x.732 = common global i32 0
@y.733 = common global i32 0
@x.734 = common global i32 0
@y.735 = common global i32 0
@x.736 = common global i32 0
@y.737 = common global i32 0
@x.738 = common global i32 0
@y.739 = common global i32 0
@x.740 = common global i32 0
@y.741 = common global i32 0
@x.742 = common global i32 0
@y.743 = common global i32 0
@x.744 = common global i32 0
@y.745 = common global i32 0
@x.746 = common global i32 0
@y.747 = common global i32 0
@x.748 = common global i32 0
@y.749 = common global i32 0
@x.750 = common global i32 0
@y.751 = common global i32 0
@x.752 = common global i32 0
@y.753 = common global i32 0
@x.754 = common global i32 0
@y.755 = common global i32 0
@x.756 = common global i32 0
@y.757 = common global i32 0
@x.758 = common global i32 0
@y.759 = common global i32 0
@x.760 = common global i32 0
@y.761 = common global i32 0
@x.762 = common global i32 0
@y.763 = common global i32 0
@x.764 = common global i32 0
@y.765 = common global i32 0
@x.766 = common global i32 0
@y.767 = common global i32 0
@x.768 = common global i32 0
@y.769 = common global i32 0
@x.770 = common global i32 0
@y.771 = common global i32 0
@x.772 = common global i32 0
@y.773 = common global i32 0
@x.774 = common global i32 0
@y.775 = common global i32 0
@x.776 = common global i32 0
@y.777 = common global i32 0
@x.778 = common global i32 0
@y.779 = common global i32 0
@x.780 = common global i32 0
@y.781 = common global i32 0
@x.782 = common global i32 0
@y.783 = common global i32 0
@x.784 = common global i32 0
@y.785 = common global i32 0
@x.786 = common global i32 0
@y.787 = common global i32 0
@x.788 = common global i32 0
@y.789 = common global i32 0
@x.790 = common global i32 0
@y.791 = common global i32 0
@x.792 = common global i32 0
@y.793 = common global i32 0
@x.794 = common global i32 0
@y.795 = common global i32 0
@x.796 = common global i32 0
@y.797 = common global i32 0
@x.798 = common global i32 0
@y.799 = common global i32 0
@x.800 = common global i32 0
@y.801 = common global i32 0
@x.802 = common global i32 0
@y.803 = common global i32 0
@x.804 = common global i32 0
@y.805 = common global i32 0
@x.806 = common global i32 0
@y.807 = common global i32 0
@x.808 = common global i32 0
@y.809 = common global i32 0
@x.810 = common global i32 0
@y.811 = common global i32 0
@x.812 = common global i32 0
@y.813 = common global i32 0
@x.814 = common global i32 0
@y.815 = common global i32 0
@x.816 = common global i32 0
@y.817 = common global i32 0
@x.818 = common global i32 0
@y.819 = common global i32 0
@x.820 = common global i32 0
@y.821 = common global i32 0
@x.822 = common global i32 0
@y.823 = common global i32 0
@x.824 = common global i32 0
@y.825 = common global i32 0
@x.826 = common global i32 0
@y.827 = common global i32 0
@x.828 = common global i32 0
@y.829 = common global i32 0
@x.830 = common global i32 0
@y.831 = common global i32 0
@x.832 = common global i32 0
@y.833 = common global i32 0
@x.834 = common global i32 0
@y.835 = common global i32 0
@x.836 = common global i32 0
@y.837 = common global i32 0
@x.838 = common global i32 0
@y.839 = common global i32 0
@x.840 = common global i32 0
@y.841 = common global i32 0
@x.842 = common global i32 0
@y.843 = common global i32 0
@x.844 = common global i32 0
@y.845 = common global i32 0
@x.846 = common global i32 0
@y.847 = common global i32 0
@x.848 = common global i32 0
@y.849 = common global i32 0
@x.850 = common global i32 0
@y.851 = common global i32 0
@x.852 = common global i32 0
@y.853 = common global i32 0
@x.854 = common global i32 0
@y.855 = common global i32 0
@x.856 = common global i32 0
@y.857 = common global i32 0
@x.858 = common global i32 0
@y.859 = common global i32 0
@x.860 = common global i32 0
@y.861 = common global i32 0
@x.862 = common global i32 0
@y.863 = common global i32 0
@x.864 = common global i32 0
@y.865 = common global i32 0
@x.866 = common global i32 0
@y.867 = common global i32 0
@x.868 = common global i32 0
@y.869 = common global i32 0
@x.870 = common global i32 0
@y.871 = common global i32 0
@x.872 = common global i32 0
@y.873 = common global i32 0
@x.874 = common global i32 0
@y.875 = common global i32 0
@x.876 = common global i32 0
@y.877 = common global i32 0
@x.878 = common global i32 0
@y.879 = common global i32 0
@x.880 = common global i32 0
@y.881 = common global i32 0
@x.882 = common global i32 0
@y.883 = common global i32 0
@x.884 = common global i32 0
@y.885 = common global i32 0
@x.886 = common global i32 0
@y.887 = common global i32 0
@x.888 = common global i32 0
@y.889 = common global i32 0
@x.890 = common global i32 0
@y.891 = common global i32 0
@x.892 = common global i32 0
@y.893 = common global i32 0
@x.894 = common global i32 0
@y.895 = common global i32 0
@x.896 = common global i32 0
@y.897 = common global i32 0
@x.898 = common global i32 0
@y.899 = common global i32 0
@x.900 = common global i32 0
@y.901 = common global i32 0
@x.902 = common global i32 0
@y.903 = common global i32 0
@x.904 = common global i32 0
@y.905 = common global i32 0
@x.906 = common global i32 0
@y.907 = common global i32 0
@x.908 = common global i32 0
@y.909 = common global i32 0
@x.910 = common global i32 0
@y.911 = common global i32 0
@x.912 = common global i32 0
@y.913 = common global i32 0
@x.914 = common global i32 0
@y.915 = common global i32 0
@x.916 = common global i32 0
@y.917 = common global i32 0
@x.918 = common global i32 0
@y.919 = common global i32 0
@x.920 = common global i32 0
@y.921 = common global i32 0
@x.922 = common global i32 0
@y.923 = common global i32 0
@x.924 = common global i32 0
@y.925 = common global i32 0
@x.926 = common global i32 0
@y.927 = common global i32 0
@x.928 = common global i32 0
@y.929 = common global i32 0
@x.930 = common global i32 0
@y.931 = common global i32 0
@x.932 = common global i32 0
@y.933 = common global i32 0
@x.934 = common global i32 0
@y.935 = common global i32 0
@x.936 = common global i32 0
@y.937 = common global i32 0
@x.938 = common global i32 0
@y.939 = common global i32 0
@x.940 = common global i32 0
@y.941 = common global i32 0
@x.942 = common global i32 0
@y.943 = common global i32 0
@x.944 = common global i32 0
@y.945 = common global i32 0
@x.946 = common global i32 0
@y.947 = common global i32 0
@x.948 = common global i32 0
@y.949 = common global i32 0
@x.950 = common global i32 0
@y.951 = common global i32 0
@x.952 = common global i32 0
@y.953 = common global i32 0
@x.954 = common global i32 0
@y.955 = common global i32 0
@x.956 = common global i32 0
@y.957 = common global i32 0
@x.958 = common global i32 0
@y.959 = common global i32 0
@x.960 = common global i32 0
@y.961 = common global i32 0
@x.962 = common global i32 0
@y.963 = common global i32 0
@x.964 = common global i32 0
@y.965 = common global i32 0
@x.966 = common global i32 0
@y.967 = common global i32 0
@x.968 = common global i32 0
@y.969 = common global i32 0
@x.970 = common global i32 0
@y.971 = common global i32 0
@x.972 = common global i32 0
@y.973 = common global i32 0
@x.974 = common global i32 0
@y.975 = common global i32 0
@x.976 = common global i32 0
@y.977 = common global i32 0
@x.978 = common global i32 0
@y.979 = common global i32 0
@x.980 = common global i32 0
@y.981 = common global i32 0
@x.982 = common global i32 0
@y.983 = common global i32 0
@x.984 = common global i32 0
@y.985 = common global i32 0
@x.986 = common global i32 0
@y.987 = common global i32 0
@x.988 = common global i32 0
@y.989 = common global i32 0
@x.990 = common global i32 0
@y.991 = common global i32 0

; Function Attrs: noinline uwtable
define internal void @__cxx_global_var_init() #0 section ".text.startup" {
  call void @_ZNSt8ios_base4InitC1Ev(%"class.std::ios_base::Init"* @_ZStL8__ioinit)
  %1 = call i32 @__cxa_atexit(void (i8*)* bitcast (void (%"class.std::ios_base::Init"*)* @_ZNSt8ios_base4InitD1Ev to void (i8*)*), i8* getelementptr inbounds (%"class.std::ios_base::Init", %"class.std::ios_base::Init"* @_ZStL8__ioinit, i32 0, i32 0), i8* @__dso_handle) #3
  ret void
}

declare void @_ZNSt8ios_base4InitC1Ev(%"class.std::ios_base::Init"*) unnamed_addr #1

; Function Attrs: nounwind
declare void @_ZNSt8ios_base4InitD1Ev(%"class.std::ios_base::Init"*) unnamed_addr #2

; Function Attrs: nounwind
declare i32 @__cxa_atexit(void (i8*)*, i8*, i8*) #3

; Function Attrs: noinline uwtable
define void @_Z9to_stringRKNSt7__cxx1112basic_stringIcSt11char_traitsIcESaIcEEE(%"class.std::__cxx11::basic_string"* noalias sret, %"class.std::__cxx11::basic_string"* dereferenceable(32)) #0 personality i8* bitcast (i32 (...)* @__gxx_personality_v0 to i8*) {
  %3 = alloca %"class.std::__cxx11::basic_string"*, align 8
  %4 = alloca %"class.std::__cxx11::basic_string", align 8
  %5 = alloca i8*
  %6 = alloca i32
  store %"class.std::__cxx11::basic_string"* %1, %"class.std::__cxx11::basic_string"** %3, align 8
  %7 = load %"class.std::__cxx11::basic_string"*, %"class.std::__cxx11::basic_string"** %3, align 8
  call void @_ZStplIcSt11char_traitsIcESaIcEENSt7__cxx1112basic_stringIT_T0_T1_EES5_RKS8_(%"class.std::__cxx11::basic_string"* sret %4, i8 signext 34, %"class.std::__cxx11::basic_string"* dereferenceable(32) %7)
  invoke void @_ZStplIcSt11char_traitsIcESaIcEENSt7__cxx1112basic_stringIT_T0_T1_EEOS8_S5_(%"class.std::__cxx11::basic_string"* sret %0, %"class.std::__cxx11::basic_string"* dereferenceable(32) %4, i8 signext 34)
          to label %8 unwind label %9

; <label>:8:                                      ; preds = %2
  call void @_ZNSt7__cxx1112basic_stringIcSt11char_traitsIcESaIcEED2Ev(%"class.std::__cxx11::basic_string"* %4) #3
  ret void

; <label>:9:                                      ; preds = %2
  %10 = load i32, i32* @x.20
  %11 = load i32, i32* @y.21
  %12 = sub i32 %10, 1
  %13 = mul i32 %10, %12
  %14 = urem i32 %13, 2
  %15 = icmp eq i32 %14, 0
  %16 = icmp slt i32 %11, 10
  %17 = or i1 %15, %16
  br i1 %17, label %18, label %36

; <label>:18:                                     ; preds = %9, %36
  %19 = landingpad { i8*, i32 }
          cleanup
  %20 = extractvalue { i8*, i32 } %19, 0
  store i8* %20, i8** %5, align 8
  %21 = extractvalue { i8*, i32 } %19, 1
  store i32 %21, i32* %6, align 4
  call void @_ZNSt7__cxx1112basic_stringIcSt11char_traitsIcESaIcEED2Ev(%"class.std::__cxx11::basic_string"* %4) #3
  %22 = load i32, i32* @x.20
  %23 = load i32, i32* @y.21
  %24 = sub i32 %22, 1
  %25 = mul i32 %22, %24
  %26 = urem i32 %25, 2
  %27 = icmp eq i32 %26, 0
  %28 = icmp slt i32 %23, 10
  %29 = or i1 %27, %28
  br i1 %29, label %30, label %36

; <label>:30:                                     ; preds = %18
  br label %31

; <label>:31:                                     ; preds = %30
  %32 = load i8*, i8** %5, align 8
  %33 = load i32, i32* %6, align 4
  %34 = insertvalue { i8*, i32 } undef, i8* %32, 0
  %35 = insertvalue { i8*, i32 } %34, i32 %33, 1
  resume { i8*, i32 } %35

; <label>:36:                                     ; preds = %18, %9
  %37 = landingpad { i8*, i32 }
          cleanup
  %38 = extractvalue { i8*, i32 } %37, 0
  store i8* %38, i8** %5, align 8
  %39 = extractvalue { i8*, i32 } %37, 1
  store i32 %39, i32* %6, align 4
  call void @_ZNSt7__cxx1112basic_stringIcSt11char_traitsIcESaIcEED2Ev(%"class.std::__cxx11::basic_string"* %4) #3
  br label %18
}

; Function Attrs: noinline uwtable
define linkonce_odr void @_ZStplIcSt11char_traitsIcESaIcEENSt7__cxx1112basic_stringIT_T0_T1_EEOS8_S5_(%"class.std::__cxx11::basic_string"* noalias sret, %"class.std::__cxx11::basic_string"* dereferenceable(32), i8 signext) #0 comdat {
  %4 = alloca %"class.std::__cxx11::basic_string"*, align 8
  %5 = alloca i8, align 1
  store %"class.std::__cxx11::basic_string"* %1, %"class.std::__cxx11::basic_string"** %4, align 8
  store i8 %2, i8* %5, align 1
  %6 = load %"class.std::__cxx11::basic_string"*, %"class.std::__cxx11::basic_string"** %4, align 8
  %7 = load i8, i8* %5, align 1
  %8 = call dereferenceable(32) %"class.std::__cxx11::basic_string"* @_ZNSt7__cxx1112basic_stringIcSt11char_traitsIcESaIcEE6appendEmc(%"class.std::__cxx11::basic_string"* %6, i64 1, i8 signext %7)
  %9 = call dereferenceable(32) %"class.std::__cxx11::basic_string"* @_ZSt4moveIRNSt7__cxx1112basic_stringIcSt11char_traitsIcESaIcEEEEONSt16remove_referenceIT_E4typeEOS8_(%"class.std::__cxx11::basic_string"* dereferenceable(32) %8) #3
  call void @_ZNSt7__cxx1112basic_stringIcSt11char_traitsIcESaIcEEC2EOS4_(%"class.std::__cxx11::basic_string"* %0, %"class.std::__cxx11::basic_string"* dereferenceable(32) %9) #3
  ret void
}

; Function Attrs: noinline uwtable
define linkonce_odr void @_ZStplIcSt11char_traitsIcESaIcEENSt7__cxx1112basic_stringIT_T0_T1_EES5_RKS8_(%"class.std::__cxx11::basic_string"* noalias sret, i8 signext, %"class.std::__cxx11::basic_string"* dereferenceable(32)) #0 comdat personality i8* bitcast (i32 (...)* @__gxx_personality_v0 to i8*) {
  %4 = alloca i8, align 1
  %5 = alloca %"class.std::__cxx11::basic_string"*, align 8
  %6 = alloca i1, align 1
  %7 = alloca i64, align 8
  %8 = alloca i8*
  %9 = alloca i32
  store i8 %1, i8* %4, align 1
  store %"class.std::__cxx11::basic_string"* %2, %"class.std::__cxx11::basic_string"** %5, align 8
  store i1 false, i1* %6, align 1
  call void @_ZNSt7__cxx1112basic_stringIcSt11char_traitsIcESaIcEEC2Ev(%"class.std::__cxx11::basic_string"* %0) #3
  %10 = load %"class.std::__cxx11::basic_string"*, %"class.std::__cxx11::basic_string"** %5, align 8
  %11 = call i64 @_ZNKSt7__cxx1112basic_stringIcSt11char_traitsIcESaIcEE4sizeEv(%"class.std::__cxx11::basic_string"* %10) #3
  store i64 %11, i64* %7, align 8
  %12 = load i64, i64* %7, align 8
  %13 = add i64 %12, 1
  invoke void @_ZNSt7__cxx1112basic_stringIcSt11char_traitsIcESaIcEE7reserveEm(%"class.std::__cxx11::basic_string"* %0, i64 %13)
          to label %14 unwind label %22

; <label>:14:                                     ; preds = %3
  %15 = load i8, i8* %4, align 1
  %16 = invoke dereferenceable(32) %"class.std::__cxx11::basic_string"* @_ZNSt7__cxx1112basic_stringIcSt11char_traitsIcESaIcEE6appendEmc(%"class.std::__cxx11::basic_string"* %0, i64 1, i8 signext %15)
          to label %17 unwind label %22

; <label>:17:                                     ; preds = %14
  %18 = load %"class.std::__cxx11::basic_string"*, %"class.std::__cxx11::basic_string"** %5, align 8
  %19 = invoke dereferenceable(32) %"class.std::__cxx11::basic_string"* @_ZNSt7__cxx1112basic_stringIcSt11char_traitsIcESaIcEE6appendERKS4_(%"class.std::__cxx11::basic_string"* %0, %"class.std::__cxx11::basic_string"* dereferenceable(32) %18)
          to label %20 unwind label %22

; <label>:20:                                     ; preds = %17
  store i1 true, i1* %6, align 1
  %21 = load i1, i1* %6, align 1
  br i1 %21, label %45, label %26

; <label>:22:                                     ; preds = %17, %14, %3
  %23 = landingpad { i8*, i32 }
          cleanup
  %24 = extractvalue { i8*, i32 } %23, 0
  store i8* %24, i8** %8, align 8
  %25 = extractvalue { i8*, i32 } %23, 1
  store i32 %25, i32* %9, align 4
  call void @_ZNSt7__cxx1112basic_stringIcSt11char_traitsIcESaIcEED2Ev(%"class.std::__cxx11::basic_string"* %0) #3
  br label %46

; <label>:26:                                     ; preds = %20
  %27 = load i32, i32* @x.24
  %28 = load i32, i32* @y.25
  %29 = sub i32 %27, 1
  %30 = mul i32 %27, %29
  %31 = urem i32 %30, 2
  %32 = icmp eq i32 %31, 0
  %33 = icmp slt i32 %28, 10
  %34 = or i1 %32, %33
  br i1 %34, label %35, label %69

; <label>:35:                                     ; preds = %26, %69
  call void @_ZNSt7__cxx1112basic_stringIcSt11char_traitsIcESaIcEED2Ev(%"class.std::__cxx11::basic_string"* %0) #3
  %36 = load i32, i32* @x.24
  %37 = load i32, i32* @y.25
  %38 = sub i32 %36, 1
  %39 = mul i32 %36, %38
  %40 = urem i32 %39, 2
  %41 = icmp eq i32 %40, 0
  %42 = icmp slt i32 %37, 10
  %43 = or i1 %41, %42
  br i1 %43, label %44, label %69

; <label>:44:                                     ; preds = %35
  br label %45

; <label>:45:                                     ; preds = %44, %20
  ret void

; <label>:46:                                     ; preds = %22
  %47 = load i32, i32* @x.24
  %48 = load i32, i32* @y.25
  %49 = sub i32 %47, 1
  %50 = mul i32 %47, %49
  %51 = urem i32 %50, 2
  %52 = icmp eq i32 %51, 0
  %53 = icmp slt i32 %48, 10
  %54 = or i1 %52, %53
  br i1 %54, label %55, label %70

; <label>:55:                                     ; preds = %46, %70
  %56 = load i8*, i8** %8, align 8
  %57 = load i32, i32* %9, align 4
  %58 = insertvalue { i8*, i32 } undef, i8* %56, 0
  %59 = insertvalue { i8*, i32 } %58, i32 %57, 1
  %60 = load i32, i32* @x.24
  %61 = load i32, i32* @y.25
  %62 = sub i32 %60, 1
  %63 = mul i32 %60, %62
  %64 = urem i32 %63, 2
  %65 = icmp eq i32 %64, 0
  %66 = icmp slt i32 %61, 10
  %67 = or i1 %65, %66
  br i1 %67, label %68, label %70

; <label>:68:                                     ; preds = %55
  resume { i8*, i32 } %59

; <label>:69:                                     ; preds = %35, %26
  call void @_ZNSt7__cxx1112basic_stringIcSt11char_traitsIcESaIcEED2Ev(%"class.std::__cxx11::basic_string"* %0) #3
  br label %35

; <label>:70:                                     ; preds = %55, %46
  %71 = load i8*, i8** %8, align 8
  %72 = load i32, i32* %9, align 4
  %73 = insertvalue { i8*, i32 } undef, i8* %71, 0
  %74 = insertvalue { i8*, i32 } %73, i32 %72, 1
  br label %55
}

declare i32 @__gxx_personality_v0(...)

; Function Attrs: noinline nounwind uwtable
define linkonce_odr void @_ZNSt7__cxx1112basic_stringIcSt11char_traitsIcESaIcEED2Ev(%"class.std::__cxx11::basic_string"*) unnamed_addr #4 comdat align 2 personality i8* bitcast (i32 (...)* @__gxx_personality_v0 to i8*) {
  %2 = alloca %"class.std::__cxx11::basic_string"*, align 8
  %3 = alloca i8*
  %4 = alloca i32
  store %"class.std::__cxx11::basic_string"* %0, %"class.std::__cxx11::basic_string"** %2, align 8
  %5 = load %"class.std::__cxx11::basic_string"*, %"class.std::__cxx11::basic_string"** %2, align 8
  invoke void @_ZNSt7__cxx1112basic_stringIcSt11char_traitsIcESaIcEE10_M_disposeEv(%"class.std::__cxx11::basic_string"* %5)
          to label %6 unwind label %8

; <label>:6:                                      ; preds = %1
  %7 = getelementptr inbounds %"class.std::__cxx11::basic_string", %"class.std::__cxx11::basic_string"* %5, i32 0, i32 0
  call void @_ZNSt7__cxx1112basic_stringIcSt11char_traitsIcESaIcEE12_Alloc_hiderD2Ev(%"struct.std::__cxx11::basic_string<char, std::char_traits<char>, std::allocator<char> >::_Alloc_hider"* %7) #3
  ret void

; <label>:8:                                      ; preds = %1
  %9 = landingpad { i8*, i32 }
          cleanup
          filter [0 x i8*] zeroinitializer
  %10 = extractvalue { i8*, i32 } %9, 0
  store i8* %10, i8** %3, align 8
  %11 = extractvalue { i8*, i32 } %9, 1
  store i32 %11, i32* %4, align 4
  %12 = getelementptr inbounds %"class.std::__cxx11::basic_string", %"class.std::__cxx11::basic_string"* %5, i32 0, i32 0
  call void @_ZNSt7__cxx1112basic_stringIcSt11char_traitsIcESaIcEE12_Alloc_hiderD2Ev(%"struct.std::__cxx11::basic_string<char, std::char_traits<char>, std::allocator<char> >::_Alloc_hider"* %12) #3
  br label %13

; <label>:13:                                     ; preds = %8
  %14 = load i8*, i8** %3, align 8
  call void @__cxa_call_unexpected(i8* %14) #13
  unreachable
}

; Function Attrs: noinline uwtable
define void @_Z9to_stringB5cxx11c(%"class.std::__cxx11::basic_string"* noalias sret, i8 signext) #0 personality i8* bitcast (i32 (...)* @__gxx_personality_v0 to i8*) {
  %3 = load i32, i32* @x.28
  %4 = load i32, i32* @y.29
  %5 = sub i32 %3, 1
  %6 = mul i32 %3, %5
  %7 = urem i32 %6, 2
  %8 = icmp eq i32 %7, 0
  %9 = icmp slt i32 %4, 10
  %10 = or i1 %8, %9
  br i1 %10, label %11, label %78

; <label>:11:                                     ; preds = %2, %78
  %12 = alloca i8, align 1
  %13 = alloca %"class.std::__cxx11::basic_string", align 8
  %14 = alloca %"class.std::allocator", align 1
  %15 = alloca i8*
  %16 = alloca i32
  store i8 %1, i8* %12, align 1
  call void @_ZNSaIcEC1Ev(%"class.std::allocator"* %14) #3
  %17 = load i32, i32* @x.28
  %18 = load i32, i32* @y.29
  %19 = sub i32 %17, 1
  %20 = mul i32 %17, %19
  %21 = urem i32 %20, 2
  %22 = icmp eq i32 %21, 0
  %23 = icmp slt i32 %18, 10
  %24 = or i1 %22, %23
  br i1 %24, label %25, label %78

; <label>:25:                                     ; preds = %11
  invoke void @_ZNSt7__cxx1112basic_stringIcSt11char_traitsIcESaIcEEC2EPKcRKS3_(%"class.std::__cxx11::basic_string"* %13, i8* %12, %"class.std::allocator"* dereferenceable(1) %14)
          to label %26 unwind label %46

; <label>:26:                                     ; preds = %25
  %27 = load i32, i32* @x.28
  %28 = load i32, i32* @y.29
  %29 = sub i32 %27, 1
  %30 = mul i32 %27, %29
  %31 = urem i32 %30, 2
  %32 = icmp eq i32 %31, 0
  %33 = icmp slt i32 %28, 10
  %34 = or i1 %32, %33
  br i1 %34, label %35, label %84

; <label>:35:                                     ; preds = %26, %84
  %36 = load i32, i32* @x.28
  %37 = load i32, i32* @y.29
  %38 = sub i32 %36, 1
  %39 = mul i32 %36, %38
  %40 = urem i32 %39, 2
  %41 = icmp eq i32 %40, 0
  %42 = icmp slt i32 %37, 10
  %43 = or i1 %41, %42
  br i1 %43, label %44, label %84

; <label>:44:                                     ; preds = %35
  invoke void @_Z9to_stringRKNSt7__cxx1112basic_stringIcSt11char_traitsIcESaIcEEE(%"class.std::__cxx11::basic_string"* sret %0, %"class.std::__cxx11::basic_string"* dereferenceable(32) %13)
          to label %45 unwind label %68

; <label>:45:                                     ; preds = %44
  call void @_ZNSt7__cxx1112basic_stringIcSt11char_traitsIcESaIcEED2Ev(%"class.std::__cxx11::basic_string"* %13) #3
  call void @_ZNSaIcED1Ev(%"class.std::allocator"* %14) #3
  ret void

; <label>:46:                                     ; preds = %25
  %47 = load i32, i32* @x.28
  %48 = load i32, i32* @y.29
  %49 = sub i32 %47, 1
  %50 = mul i32 %47, %49
  %51 = urem i32 %50, 2
  %52 = icmp eq i32 %51, 0
  %53 = icmp slt i32 %48, 10
  %54 = or i1 %52, %53
  br i1 %54, label %55, label %85

; <label>:55:                                     ; preds = %46, %85
  %56 = landingpad { i8*, i32 }
          cleanup
  %57 = extractvalue { i8*, i32 } %56, 0
  store i8* %57, i8** %15, align 8
  %58 = extractvalue { i8*, i32 } %56, 1
  store i32 %58, i32* %16, align 4
  %59 = load i32, i32* @x.28
  %60 = load i32, i32* @y.29
  %61 = sub i32 %59, 1
  %62 = mul i32 %59, %61
  %63 = urem i32 %62, 2
  %64 = icmp eq i32 %63, 0
  %65 = icmp slt i32 %60, 10
  %66 = or i1 %64, %65
  br i1 %66, label %67, label %85

; <label>:67:                                     ; preds = %55
  br label %72

; <label>:68:                                     ; preds = %44
  %69 = landingpad { i8*, i32 }
          cleanup
  %70 = extractvalue { i8*, i32 } %69, 0
  store i8* %70, i8** %15, align 8
  %71 = extractvalue { i8*, i32 } %69, 1
  store i32 %71, i32* %16, align 4
  call void @_ZNSt7__cxx1112basic_stringIcSt11char_traitsIcESaIcEED2Ev(%"class.std::__cxx11::basic_string"* %13) #3
  br label %72

; <label>:72:                                     ; preds = %68, %67
  call void @_ZNSaIcED1Ev(%"class.std::allocator"* %14) #3
  br label %73

; <label>:73:                                     ; preds = %72
  %74 = load i8*, i8** %15, align 8
  %75 = load i32, i32* %16, align 4
  %76 = insertvalue { i8*, i32 } undef, i8* %74, 0
  %77 = insertvalue { i8*, i32 } %76, i32 %75, 1
  resume { i8*, i32 } %77

; <label>:78:                                     ; preds = %11, %2
  %79 = alloca i8, align 1
  %80 = alloca %"class.std::__cxx11::basic_string", align 8
  %81 = alloca %"class.std::allocator", align 1
  %82 = alloca i8*
  %83 = alloca i32
  store i8 %1, i8* %79, align 1
  call void @_ZNSaIcEC1Ev(%"class.std::allocator"* %81) #3
  br label %11

; <label>:84:                                     ; preds = %35, %26
  br label %35

; <label>:85:                                     ; preds = %55, %46
  %86 = landingpad { i8*, i32 }
          cleanup
  %87 = extractvalue { i8*, i32 } %86, 0
  store i8* %87, i8** %15, align 8
  %88 = extractvalue { i8*, i32 } %86, 1
  store i32 %88, i32* %16, align 4
  br label %55
}

; Function Attrs: nounwind
declare void @_ZNSaIcEC1Ev(%"class.std::allocator"*) unnamed_addr #2

; Function Attrs: noinline uwtable
define linkonce_odr void @_ZNSt7__cxx1112basic_stringIcSt11char_traitsIcESaIcEEC2EPKcRKS3_(%"class.std::__cxx11::basic_string"*, i8*, %"class.std::allocator"* dereferenceable(1)) unnamed_addr #0 comdat align 2 personality i8* bitcast (i32 (...)* @__gxx_personality_v0 to i8*) {
  %4 = load i32, i32* @x.30
  %5 = load i32, i32* @y.31
  %6 = sub i32 %4, 1
  %7 = mul i32 %4, %6
  %8 = urem i32 %7, 2
  %9 = icmp eq i32 %8, 0
  %10 = icmp slt i32 %5, 10
  %11 = or i1 %9, %10
  br i1 %11, label %12, label %91

; <label>:12:                                     ; preds = %3, %91
  %13 = alloca %"class.std::__cxx11::basic_string"*, align 8
  %14 = alloca i8*, align 8
  %15 = alloca %"class.std::allocator"*, align 8
  %16 = alloca i8*
  %17 = alloca i32
  store %"class.std::__cxx11::basic_string"* %0, %"class.std::__cxx11::basic_string"** %13, align 8
  store i8* %1, i8** %14, align 8
  store %"class.std::allocator"* %2, %"class.std::allocator"** %15, align 8
  %18 = load %"class.std::__cxx11::basic_string"*, %"class.std::__cxx11::basic_string"** %13, align 8
  %19 = getelementptr inbounds %"class.std::__cxx11::basic_string", %"class.std::__cxx11::basic_string"* %18, i32 0, i32 0
  %20 = call i8* @_ZNSt7__cxx1112basic_stringIcSt11char_traitsIcESaIcEE13_M_local_dataEv(%"class.std::__cxx11::basic_string"* %18)
  %21 = load %"class.std::allocator"*, %"class.std::allocator"** %15, align 8
  call void @_ZNSt7__cxx1112basic_stringIcSt11char_traitsIcESaIcEE12_Alloc_hiderC2EPcRKS3_(%"struct.std::__cxx11::basic_string<char, std::char_traits<char>, std::allocator<char> >::_Alloc_hider"* %19, i8* %20, %"class.std::allocator"* dereferenceable(1) %21)
  %22 = load i8*, i8** %14, align 8
  %23 = load i8*, i8** %14, align 8
  %24 = icmp ne i8* %23, null
  %25 = load i32, i32* @x.30
  %26 = load i32, i32* @y.31
  %27 = sub i32 %25, 1
  %28 = mul i32 %25, %27
  %29 = urem i32 %28, 2
  %30 = icmp eq i32 %29, 0
  %31 = icmp slt i32 %26, 10
  %32 = or i1 %30, %31
  br i1 %32, label %33, label %91

; <label>:33:                                     ; preds = %12
  br i1 %24, label %34, label %40

; <label>:34:                                     ; preds = %33
  %35 = load i8*, i8** %14, align 8
  %36 = load i8*, i8** %14, align 8
  %37 = invoke i64 @_ZNSt11char_traitsIcE6lengthEPKc(i8* %36)
          to label %38 unwind label %64

; <label>:38:                                     ; preds = %34
  %39 = getelementptr inbounds i8, i8* %35, i64 %37
  br label %43

; <label>:40:                                     ; preds = %33
  %41 = load i8*, i8** %14, align 8
  %42 = getelementptr inbounds i8, i8* %41, i64 -1
  br label %43

; <label>:43:                                     ; preds = %40, %38
  %44 = phi i8* [ %39, %38 ], [ %42, %40 ]
  %45 = load i32, i32* @x.30
  %46 = load i32, i32* @y.31
  %47 = sub i32 %45, 1
  %48 = mul i32 %45, %47
  %49 = urem i32 %48, 2
  %50 = icmp eq i32 %49, 0
  %51 = icmp slt i32 %46, 10
  %52 = or i1 %50, %51
  br i1 %52, label %53, label %104

; <label>:53:                                     ; preds = %43, %104
  %54 = load i32, i32* @x.30
  %55 = load i32, i32* @y.31
  %56 = sub i32 %54, 1
  %57 = mul i32 %54, %56
  %58 = urem i32 %57, 2
  %59 = icmp eq i32 %58, 0
  %60 = icmp slt i32 %55, 10
  %61 = or i1 %59, %60
  br i1 %61, label %62, label %104

; <label>:62:                                     ; preds = %53
  invoke void @_ZNSt7__cxx1112basic_stringIcSt11char_traitsIcESaIcEE12_M_constructIPKcEEvT_S8_(%"class.std::__cxx11::basic_string"* %18, i8* %22, i8* %44)
          to label %63 unwind label %64

; <label>:63:                                     ; preds = %62
  ret void

; <label>:64:                                     ; preds = %62, %34
  %65 = load i32, i32* @x.30
  %66 = load i32, i32* @y.31
  %67 = sub i32 %65, 1
  %68 = mul i32 %65, %67
  %69 = urem i32 %68, 2
  %70 = icmp eq i32 %69, 0
  %71 = icmp slt i32 %66, 10
  %72 = or i1 %70, %71
  br i1 %72, label %73, label %105

; <label>:73:                                     ; preds = %64, %105
  %74 = landingpad { i8*, i32 }
          cleanup
  %75 = extractvalue { i8*, i32 } %74, 0
  store i8* %75, i8** %16, align 8
  %76 = extractvalue { i8*, i32 } %74, 1
  store i32 %76, i32* %17, align 4
  call void @_ZNSt7__cxx1112basic_stringIcSt11char_traitsIcESaIcEE12_Alloc_hiderD2Ev(%"struct.std::__cxx11::basic_string<char, std::char_traits<char>, std::allocator<char> >::_Alloc_hider"* %19) #3
  %77 = load i32, i32* @x.30
  %78 = load i32, i32* @y.31
  %79 = sub i32 %77, 1
  %80 = mul i32 %77, %79
  %81 = urem i32 %80, 2
  %82 = icmp eq i32 %81, 0
  %83 = icmp slt i32 %78, 10
  %84 = or i1 %82, %83
  br i1 %84, label %85, label %105

; <label>:85:                                     ; preds = %73
  br label %86

; <label>:86:                                     ; preds = %85
  %87 = load i8*, i8** %16, align 8
  %88 = load i32, i32* %17, align 4
  %89 = insertvalue { i8*, i32 } undef, i8* %87, 0
  %90 = insertvalue { i8*, i32 } %89, i32 %88, 1
  resume { i8*, i32 } %90

; <label>:91:                                     ; preds = %12, %3
  %92 = alloca %"class.std::__cxx11::basic_string"*, align 8
  %93 = alloca i8*, align 8
  %94 = alloca %"class.std::allocator"*, align 8
  %95 = alloca i8*
  %96 = alloca i32
  store %"class.std::__cxx11::basic_string"* %0, %"class.std::__cxx11::basic_string"** %92, align 8
  store i8* %1, i8** %93, align 8
  store %"class.std::allocator"* %2, %"class.std::allocator"** %94, align 8
  %97 = load %"class.std::__cxx11::basic_string"*, %"class.std::__cxx11::basic_string"** %92, align 8
  %98 = getelementptr inbounds %"class.std::__cxx11::basic_string", %"class.std::__cxx11::basic_string"* %97, i32 0, i32 0
  %99 = call i8* @_ZNSt7__cxx1112basic_stringIcSt11char_traitsIcESaIcEE13_M_local_dataEv(%"class.std::__cxx11::basic_string"* %97)
  %100 = load %"class.std::allocator"*, %"class.std::allocator"** %94, align 8
  call void @_ZNSt7__cxx1112basic_stringIcSt11char_traitsIcESaIcEE12_Alloc_hiderC2EPcRKS3_(%"struct.std::__cxx11::basic_string<char, std::char_traits<char>, std::allocator<char> >::_Alloc_hider"* %98, i8* %99, %"class.std::allocator"* dereferenceable(1) %100)
  %101 = load i8*, i8** %93, align 8
  %102 = load i8*, i8** %93, align 8
  %103 = icmp ne i8* %102, null
  br label %12

; <label>:104:                                    ; preds = %53, %43
  br label %53

; <label>:105:                                    ; preds = %73, %64
  %106 = landingpad { i8*, i32 }
          cleanup
  %107 = extractvalue { i8*, i32 } %106, 0
  store i8* %107, i8** %16, align 8
  %108 = extractvalue { i8*, i32 } %106, 1
  store i32 %108, i32* %17, align 4
  call void @_ZNSt7__cxx1112basic_stringIcSt11char_traitsIcESaIcEE12_Alloc_hiderD2Ev(%"struct.std::__cxx11::basic_string<char, std::char_traits<char>, std::allocator<char> >::_Alloc_hider"* %19) #3
  br label %73
}

; Function Attrs: nounwind
declare void @_ZNSaIcED1Ev(%"class.std::allocator"*) unnamed_addr #2

; Function Attrs: noinline uwtable
define void @_Z9to_stringB5cxx11b(%"class.std::__cxx11::basic_string"* noalias sret, i1 zeroext) #0 personality i8* bitcast (i32 (...)* @__gxx_personality_v0 to i8*) {
  %3 = alloca i8, align 1
  %4 = alloca %"class.std::allocator", align 1
  %5 = alloca i8*
  %6 = alloca i32
  %7 = zext i1 %1 to i8
  store i8 %7, i8* %3, align 1
  %8 = load i8, i8* %3, align 1
  %9 = trunc i8 %8 to i1
  %10 = select i1 %9, i8* getelementptr inbounds ([5 x i8], [5 x i8]* @.str, i32 0, i32 0), i8* getelementptr inbounds ([6 x i8], [6 x i8]* @.str.1, i32 0, i32 0)
  call void @_ZNSaIcEC1Ev(%"class.std::allocator"* %4) #3
  invoke void @_ZNSt7__cxx1112basic_stringIcSt11char_traitsIcESaIcEEC2EPKcRKS3_(%"class.std::__cxx11::basic_string"* %0, i8* %10, %"class.std::allocator"* dereferenceable(1) %4)
          to label %11 unwind label %30

; <label>:11:                                     ; preds = %2
  %12 = load i32, i32* @x.32
  %13 = load i32, i32* @y.33
  %14 = sub i32 %12, 1
  %15 = mul i32 %12, %14
  %16 = urem i32 %15, 2
  %17 = icmp eq i32 %16, 0
  %18 = icmp slt i32 %13, 10
  %19 = or i1 %17, %18
  br i1 %19, label %20, label %57

; <label>:20:                                     ; preds = %11, %57
  call void @_ZNSaIcED1Ev(%"class.std::allocator"* %4) #3
  %21 = load i32, i32* @x.32
  %22 = load i32, i32* @y.33
  %23 = sub i32 %21, 1
  %24 = mul i32 %21, %23
  %25 = urem i32 %24, 2
  %26 = icmp eq i32 %25, 0
  %27 = icmp slt i32 %22, 10
  %28 = or i1 %26, %27
  br i1 %28, label %29, label %57

; <label>:29:                                     ; preds = %20
  ret void

; <label>:30:                                     ; preds = %2
  %31 = load i32, i32* @x.32
  %32 = load i32, i32* @y.33
  %33 = sub i32 %31, 1
  %34 = mul i32 %31, %33
  %35 = urem i32 %34, 2
  %36 = icmp eq i32 %35, 0
  %37 = icmp slt i32 %32, 10
  %38 = or i1 %36, %37
  br i1 %38, label %39, label %58

; <label>:39:                                     ; preds = %30, %58
  %40 = landingpad { i8*, i32 }
          cleanup
  %41 = extractvalue { i8*, i32 } %40, 0
  store i8* %41, i8** %5, align 8
  %42 = extractvalue { i8*, i32 } %40, 1
  store i32 %42, i32* %6, align 4
  call void @_ZNSaIcED1Ev(%"class.std::allocator"* %4) #3
  %43 = load i32, i32* @x.32
  %44 = load i32, i32* @y.33
  %45 = sub i32 %43, 1
  %46 = mul i32 %43, %45
  %47 = urem i32 %46, 2
  %48 = icmp eq i32 %47, 0
  %49 = icmp slt i32 %44, 10
  %50 = or i1 %48, %49
  br i1 %50, label %51, label %58

; <label>:51:                                     ; preds = %39
  br label %52

; <label>:52:                                     ; preds = %51
  %53 = load i8*, i8** %5, align 8
  %54 = load i32, i32* %6, align 4
  %55 = insertvalue { i8*, i32 } undef, i8* %53, 0
  %56 = insertvalue { i8*, i32 } %55, i32 %54, 1
  resume { i8*, i32 } %56

; <label>:57:                                     ; preds = %20, %11
  call void @_ZNSaIcED1Ev(%"class.std::allocator"* %4) #3
  br label %20

; <label>:58:                                     ; preds = %39, %30
  %59 = landingpad { i8*, i32 }
          cleanup
  %60 = extractvalue { i8*, i32 } %59, 0
  store i8* %60, i8** %5, align 8
  %61 = extractvalue { i8*, i32 } %59, 1
  store i32 %61, i32* %6, align 4
  call void @_ZNSaIcED1Ev(%"class.std::allocator"* %4) #3
  br label %39
}

; Function Attrs: noinline uwtable
define void @_Z9debug_outv() #0 {
  %1 = call dereferenceable(272) %"class.std::basic_ostream"* @_ZStlsISt11char_traitsIcEERSt13basic_ostreamIcT_ES5_PKc(%"class.std::basic_ostream"* dereferenceable(272) @_ZSt4cerr, i8* getelementptr inbounds ([2 x i8], [2 x i8]* @.str.2, i32 0, i32 0))
  ret void
}

declare dereferenceable(272) %"class.std::basic_ostream"* @_ZStlsISt11char_traitsIcEERSt13basic_ostreamIcT_ES5_PKc(%"class.std::basic_ostream"* dereferenceable(272), i8*) #1

; Function Attrs: noinline uwtable
define void @_Z5Printv() #0 {
  %1 = call dereferenceable(272) %"class.std::basic_ostream"* @_ZStlsISt11char_traitsIcEERSt13basic_ostreamIcT_ES5_PKc(%"class.std::basic_ostream"* dereferenceable(272) @_ZSt4cout, i8* getelementptr inbounds ([2 x i8], [2 x i8]* @.str.2, i32 0, i32 0))
  ret void
}

; Function Attrs: noinline norecurse uwtable
define i32 @main() #5 personality i8* bitcast (i32 (...)* @__gxx_personality_v0 to i8*) {
  %1 = load i32, i32* @x.38
  %2 = load i32, i32* @y.39
  %3 = sub i32 %1, 1
  %4 = mul i32 %1, %3
  %5 = urem i32 %4, 2
  %6 = icmp eq i32 %5, 0
  %7 = icmp slt i32 %2, 10
  %8 = or i1 %6, %7
  br i1 %8, label %9, label %465

; <label>:9:                                      ; preds = %0, %465
  %10 = alloca i32, align 4
  %11 = alloca i32, align 4
  %12 = alloca i32, align 4
  %13 = alloca %"class.std::__debug::vector", align 8
  %14 = alloca %"class.std::allocator.0", align 1
  %15 = alloca i8*
  %16 = alloca i32
  %17 = alloca %"class.std::__debug::vector", align 8
  %18 = alloca %"class.std::allocator.0", align 1
  %19 = alloca %class.Unionfind, align 8
  %20 = alloca i32, align 4
  %21 = alloca i32, align 4
  %22 = alloca i32, align 4
  %23 = alloca i32, align 4
  %24 = alloca %"class.std::__debug::vector.3", align 8
  %25 = alloca i32, align 4
  %26 = alloca %"class.std::__debug::vector.3"*, align 8
  %27 = alloca %"class.__gnu_debug::_Safe_iterator", align 8
  %28 = alloca %"class.__gnu_debug::_Safe_iterator", align 8
  %29 = alloca i32
  %30 = alloca %"class.std::__debug::vector", align 8
  %31 = alloca %"class.std::__debug::set", align 8
  %32 = alloca %"class.std::__debug::vector"*, align 8
  %33 = alloca %"class.__gnu_debug::_Safe_iterator.21", align 8
  %34 = alloca %"class.__gnu_debug::_Safe_iterator.21", align 8
  %35 = alloca i32, align 4
  %36 = alloca %"struct.std::pair", align 8
  %37 = alloca %"class.std::__debug::vector"*, align 8
  %38 = alloca %"class.__gnu_debug::_Safe_iterator.21", align 8
  %39 = alloca %"class.__gnu_debug::_Safe_iterator.21", align 8
  %40 = alloca i32, align 4
  %41 = alloca %"class.__gnu_debug::_Safe_iterator.23", align 8
  %42 = alloca %"class.__gnu_debug::_Safe_iterator.23", align 8
  store i32 0, i32* %10, align 4
  %43 = call zeroext i1 @_ZNSt8ios_base15sync_with_stdioEb(i1 zeroext false)
  %44 = load i8*, i8** bitcast (%"class.std::basic_istream"* @_ZSt3cin to i8**), align 8
  %45 = getelementptr i8, i8* %44, i64 -24
  %46 = bitcast i8* %45 to i64*
  %47 = load i64, i64* %46, align 8
  %48 = getelementptr inbounds i8, i8* bitcast (%"class.std::basic_istream"* @_ZSt3cin to i8*), i64 %47
  %49 = bitcast i8* %48 to %"class.std::basic_ios"*
  %50 = call %"class.std::basic_ostream"* @_ZNSt9basic_iosIcSt11char_traitsIcEE3tieEPSo(%"class.std::basic_ios"* %49, %"class.std::basic_ostream"* null)
  %51 = call dereferenceable(280) %"class.std::basic_istream"* @_ZNSirsERi(%"class.std::basic_istream"* @_ZSt3cin, i32* dereferenceable(4) %11)
  %52 = call dereferenceable(280) %"class.std::basic_istream"* @_ZNSirsERi(%"class.std::basic_istream"* %51, i32* dereferenceable(4) %12)
  %53 = load i32, i32* %11, align 4
  %54 = sext i32 %53 to i64
  call void @_ZNSaIiEC2Ev(%"class.std::allocator.0"* %14) #3
  %55 = load i32, i32* @x.38
  %56 = load i32, i32* @y.39
  %57 = sub i32 %55, 1
  %58 = mul i32 %55, %57
  %59 = urem i32 %58, 2
  %60 = icmp eq i32 %59, 0
  %61 = icmp slt i32 %56, 10
  %62 = or i1 %60, %61
  br i1 %62, label %63, label %465

; <label>:63:                                     ; preds = %9
  invoke void @_ZNSt7__debug6vectorIiSaIiEEC2EmRKS1_(%"class.std::__debug::vector"* %13, i64 %54, %"class.std::allocator.0"* dereferenceable(1) %14)
          to label %64 unwind label %115

; <label>:64:                                     ; preds = %63
  call void @_ZNSaIiED2Ev(%"class.std::allocator.0"* %14) #3
  %65 = load i32, i32* %11, align 4
  %66 = sext i32 %65 to i64
  call void @_ZNSaIiEC2Ev(%"class.std::allocator.0"* %18) #3
  invoke void @_ZNSt7__debug6vectorIiSaIiEEC2EmRKS1_(%"class.std::__debug::vector"* %17, i64 %66, %"class.std::allocator.0"* dereferenceable(1) %18)
          to label %67 unwind label %119

; <label>:67:                                     ; preds = %64
  call void @_ZNSaIiED2Ev(%"class.std::allocator.0"* %18) #3
  %68 = load i32, i32* %11, align 4
  invoke void @_ZN9UnionfindC2Ei(%class.Unionfind* %19, i32 %68)
          to label %69 unwind label %123

; <label>:69:                                     ; preds = %67
  store i32 0, i32* %20, align 4
  br label %70

; <label>:70:                                     ; preds = %114, %69
  %71 = load i32, i32* %20, align 4
  %72 = sext i32 %71 to i64
  %73 = load i32, i32* %11, align 4
  %74 = sext i32 %73 to i64
  %75 = icmp slt i64 %72, %74
  br i1 %75, label %76, label %149

; <label>:76:                                     ; preds = %70
  %77 = load i32, i32* %20, align 4
  %78 = sext i32 %77 to i64
  %79 = call dereferenceable(4) i32* @_ZNSt7__debug6vectorIiSaIiEEixEm(%"class.std::__debug::vector"* %13, i64 %78) #3
  %80 = invoke dereferenceable(280) %"class.std::basic_istream"* @_ZNSirsERi(%"class.std::basic_istream"* @_ZSt3cin, i32* dereferenceable(4) %79)
          to label %81 unwind label %127

; <label>:81:                                     ; preds = %76
  %82 = load i32, i32* %20, align 4
  %83 = sext i32 %82 to i64
  %84 = call dereferenceable(4) i32* @_ZNSt7__debug6vectorIiSaIiEEixEm(%"class.std::__debug::vector"* %13, i64 %83) #3
  %85 = load i32, i32* %84, align 4
  %86 = add nsw i32 %85, -1
  store i32 %86, i32* %84, align 4
  %87 = load i32, i32* %20, align 4
  %88 = load i32, i32* %20, align 4
  %89 = sext i32 %88 to i64
  %90 = call dereferenceable(4) i32* @_ZNSt7__debug6vectorIiSaIiEEixEm(%"class.std::__debug::vector"* %13, i64 %89) #3
  %91 = load i32, i32* %90, align 4
  %92 = sext i32 %91 to i64
  %93 = call dereferenceable(4) i32* @_ZNSt7__debug6vectorIiSaIiEEixEm(%"class.std::__debug::vector"* %17, i64 %92) #3
  store i32 %87, i32* %93, align 4
  br label %94

; <label>:94:                                     ; preds = %81
  %95 = load i32, i32* @x.38
  %96 = load i32, i32* @y.39
  %97 = sub i32 %95, 1
  %98 = mul i32 %95, %97
  %99 = urem i32 %98, 2
  %100 = icmp eq i32 %99, 0
  %101 = icmp slt i32 %96, 10
  %102 = or i1 %100, %101
  br i1 %102, label %103, label %511

; <label>:103:                                    ; preds = %94, %511
  %104 = load i32, i32* %20, align 4
  %105 = add nsw i32 %104, 1
  store i32 %105, i32* %20, align 4
  %106 = load i32, i32* @x.38
  %107 = load i32, i32* @y.39
  %108 = sub i32 %106, 1
  %109 = mul i32 %106, %108
  %110 = urem i32 %109, 2
  %111 = icmp eq i32 %110, 0
  %112 = icmp slt i32 %107, 10
  %113 = or i1 %111, %112
  br i1 %113, label %114, label %511

; <label>:114:                                    ; preds = %103
  br label %70

; <label>:115:                                    ; preds = %63
  %116 = landingpad { i8*, i32 }
          cleanup
  %117 = extractvalue { i8*, i32 } %116, 0
  store i8* %117, i8** %15, align 8
  %118 = extractvalue { i8*, i32 } %116, 1
  store i32 %118, i32* %16, align 4
  call void @_ZNSaIiED2Ev(%"class.std::allocator.0"* %14) #3
  br label %460

; <label>:119:                                    ; preds = %64
  %120 = landingpad { i8*, i32 }
          cleanup
  %121 = extractvalue { i8*, i32 } %120, 0
  store i8* %121, i8** %15, align 8
  %122 = extractvalue { i8*, i32 } %120, 1
  store i32 %122, i32* %16, align 4
  call void @_ZNSaIiED2Ev(%"class.std::allocator.0"* %18) #3
  br label %459

; <label>:123:                                    ; preds = %67
  %124 = landingpad { i8*, i32 }
          cleanup
  %125 = extractvalue { i8*, i32 } %124, 0
  store i8* %125, i8** %15, align 8
  %126 = extractvalue { i8*, i32 } %124, 1
  store i32 %126, i32* %16, align 4
  br label %458

; <label>:127:                                    ; preds = %225, %196, %194, %174, %76
  %128 = load i32, i32* @x.38
  %129 = load i32, i32* @y.39
  %130 = sub i32 %128, 1
  %131 = mul i32 %128, %130
  %132 = urem i32 %131, 2
  %133 = icmp eq i32 %132, 0
  %134 = icmp slt i32 %129, 10
  %135 = or i1 %133, %134
  br i1 %135, label %136, label %516

; <label>:136:                                    ; preds = %127, %516
  %137 = landingpad { i8*, i32 }
          cleanup
  %138 = extractvalue { i8*, i32 } %137, 0
  store i8* %138, i8** %15, align 8
  %139 = extractvalue { i8*, i32 } %137, 1
  store i32 %139, i32* %16, align 4
  %140 = load i32, i32* @x.38
  %141 = load i32, i32* @y.39
  %142 = sub i32 %140, 1
  %143 = mul i32 %140, %142
  %144 = urem i32 %143, 2
  %145 = icmp eq i32 %144, 0
  %146 = icmp slt i32 %141, 10
  %147 = or i1 %145, %146
  br i1 %147, label %148, label %516

; <label>:148:                                    ; preds = %136
  br label %457

; <label>:149:                                    ; preds = %70
  store i32 0, i32* %21, align 4
  br label %150

; <label>:150:                                    ; preds = %222, %149
  %151 = load i32, i32* %21, align 4
  %152 = sext i32 %151 to i64
  %153 = load i32, i32* %12, align 4
  %154 = sext i32 %153 to i64
  %155 = icmp slt i64 %152, %154
  br i1 %155, label %156, label %225

; <label>:156:                                    ; preds = %150
  %157 = load i32, i32* @x.38
  %158 = load i32, i32* @y.39
  %159 = sub i32 %157, 1
  %160 = mul i32 %157, %159
  %161 = urem i32 %160, 2
  %162 = icmp eq i32 %161, 0
  %163 = icmp slt i32 %158, 10
  %164 = or i1 %162, %163
  br i1 %164, label %165, label %520

; <label>:165:                                    ; preds = %156, %520
  %166 = load i32, i32* @x.38
  %167 = load i32, i32* @y.39
  %168 = sub i32 %166, 1
  %169 = mul i32 %166, %168
  %170 = urem i32 %169, 2
  %171 = icmp eq i32 %170, 0
  %172 = icmp slt i32 %167, 10
  %173 = or i1 %171, %172
  br i1 %173, label %174, label %520

; <label>:174:                                    ; preds = %165
  %175 = invoke dereferenceable(280) %"class.std::basic_istream"* @_ZNSirsERi(%"class.std::basic_istream"* @_ZSt3cin, i32* dereferenceable(4) %22)
          to label %176 unwind label %127

; <label>:176:                                    ; preds = %174
  %177 = load i32, i32* @x.38
  %178 = load i32, i32* @y.39
  %179 = sub i32 %177, 1
  %180 = mul i32 %177, %179
  %181 = urem i32 %180, 2
  %182 = icmp eq i32 %181, 0
  %183 = icmp slt i32 %178, 10
  %184 = or i1 %182, %183
  br i1 %184, label %185, label %521

; <label>:185:                                    ; preds = %176, %521
  %186 = load i32, i32* @x.38
  %187 = load i32, i32* @y.39
  %188 = sub i32 %186, 1
  %189 = mul i32 %186, %188
  %190 = urem i32 %189, 2
  %191 = icmp eq i32 %190, 0
  %192 = icmp slt i32 %187, 10
  %193 = or i1 %191, %192
  br i1 %193, label %194, label %521

; <label>:194:                                    ; preds = %185
  %195 = invoke dereferenceable(280) %"class.std::basic_istream"* @_ZNSirsERi(%"class.std::basic_istream"* %175, i32* dereferenceable(4) %23)
          to label %196 unwind label %127

; <label>:196:                                    ; preds = %194
  %197 = load i32, i32* %22, align 4
  %198 = add nsw i32 %197, -1
  store i32 %198, i32* %22, align 4
  %199 = load i32, i32* %23, align 4
  %200 = add nsw i32 %199, -1
  store i32 %200, i32* %23, align 4
  %201 = load i32, i32* %22, align 4
  %202 = load i32, i32* %23, align 4
  invoke void @_ZN9Unionfind5uniteEii(%class.Unionfind* %19, i32 %201, i32 %202)
          to label %203 unwind label %127

; <label>:203:                                    ; preds = %196
  %204 = load i32, i32* @x.38
  %205 = load i32, i32* @y.39
  %206 = sub i32 %204, 1
  %207 = mul i32 %204, %206
  %208 = urem i32 %207, 2
  %209 = icmp eq i32 %208, 0
  %210 = icmp slt i32 %205, 10
  %211 = or i1 %209, %210
  br i1 %211, label %212, label %522

; <label>:212:                                    ; preds = %203, %522
  %213 = load i32, i32* @x.38
  %214 = load i32, i32* @y.39
  %215 = sub i32 %213, 1
  %216 = mul i32 %213, %215
  %217 = urem i32 %216, 2
  %218 = icmp eq i32 %217, 0
  %219 = icmp slt i32 %214, 10
  %220 = or i1 %218, %219
  br i1 %220, label %221, label %522

; <label>:221:                                    ; preds = %212
  br label %222

; <label>:222:                                    ; preds = %221
  %223 = load i32, i32* %21, align 4
  %224 = add nsw i32 %223, 1
  store i32 %224, i32* %21, align 4
  br label %150

; <label>:225:                                    ; preds = %150
  invoke void @_ZN9Unionfind5groupEv(%"class.std::__debug::vector.3"* sret %24, %class.Unionfind* %19)
          to label %226 unwind label %127

; <label>:226:                                    ; preds = %225
  %227 = load i32, i32* @x.38
  %228 = load i32, i32* @y.39
  %229 = sub i32 %227, 1
  %230 = mul i32 %227, %229
  %231 = urem i32 %230, 2
  %232 = icmp eq i32 %231, 0
  %233 = icmp slt i32 %228, 10
  %234 = or i1 %232, %233
  br i1 %234, label %235, label %523

; <label>:235:                                    ; preds = %226, %523
  store i32 0, i32* %25, align 4
  store %"class.std::__debug::vector.3"* %24, %"class.std::__debug::vector.3"** %26, align 8
  %236 = load %"class.std::__debug::vector.3"*, %"class.std::__debug::vector.3"** %26, align 8
  call void @_ZNSt7__debug6vectorINS0_IiSaIiEEESaIS2_EE5beginEv(%"class.__gnu_debug::_Safe_iterator"* sret %27, %"class.std::__debug::vector.3"* %236) #3
  %237 = load %"class.std::__debug::vector.3"*, %"class.std::__debug::vector.3"** %26, align 8
  call void @_ZNSt7__debug6vectorINS0_IiSaIiEEESaIS2_EE3endEv(%"class.__gnu_debug::_Safe_iterator"* sret %28, %"class.std::__debug::vector.3"* %237) #3
  %238 = load i32, i32* @x.38
  %239 = load i32, i32* @y.39
  %240 = sub i32 %238, 1
  %241 = mul i32 %238, %240
  %242 = urem i32 %241, 2
  %243 = icmp eq i32 %242, 0
  %244 = icmp slt i32 %239, 10
  %245 = or i1 %243, %244
  br i1 %245, label %246, label %523

; <label>:246:                                    ; preds = %235
  br label %247

; <label>:247:                                    ; preds = %405, %246
  %248 = load i32, i32* @x.38
  %249 = load i32, i32* @y.39
  %250 = sub i32 %248, 1
  %251 = mul i32 %248, %250
  %252 = urem i32 %251, 2
  %253 = icmp eq i32 %252, 0
  %254 = icmp slt i32 %249, 10
  %255 = or i1 %253, %254
  br i1 %255, label %256, label %526

; <label>:256:                                    ; preds = %247, %526
  %257 = call zeroext i1 @_ZN11__gnu_debugneIN9__gnu_cxx17__normal_iteratorIPNSt7__debug6vectorIiSaIiEEENSt9__cxx19986vectorIS6_SaIS6_EEEEENS4_IS6_SA_EEEEbRKNS_14_Safe_iteratorIT_T0_EESJ_(%"class.__gnu_debug::_Safe_iterator"* dereferenceable(40) %27, %"class.__gnu_debug::_Safe_iterator"* dereferenceable(40) %28) #3
  %258 = load i32, i32* @x.38
  %259 = load i32, i32* @y.39
  %260 = sub i32 %258, 1
  %261 = mul i32 %258, %260
  %262 = urem i32 %261, 2
  %263 = icmp eq i32 %262, 0
  %264 = icmp slt i32 %259, 10
  %265 = or i1 %263, %264
  br i1 %265, label %266, label %526

; <label>:266:                                    ; preds = %256
  br i1 %257, label %268, label %267

; <label>:267:                                    ; preds = %266
  store i32 8, i32* %29, align 4
  call void @_ZN11__gnu_debug14_Safe_iteratorIN9__gnu_cxx17__normal_iteratorIPNSt7__debug6vectorIiSaIiEEENSt9__cxx19986vectorIS6_SaIS6_EEEEENS4_IS6_SA_EEED2Ev(%"class.__gnu_debug::_Safe_iterator"* %28) #3
  call void @_ZN11__gnu_debug14_Safe_iteratorIN9__gnu_cxx17__normal_iteratorIPNSt7__debug6vectorIiSaIiEEENSt9__cxx19986vectorIS6_SaIS6_EEEEENS4_IS6_SA_EEED2Ev(%"class.__gnu_debug::_Safe_iterator"* %27) #3
  br label %409

; <label>:268:                                    ; preds = %266
  %269 = load i32, i32* @x.38
  %270 = load i32, i32* @y.39
  %271 = sub i32 %269, 1
  %272 = mul i32 %269, %271
  %273 = urem i32 %272, 2
  %274 = icmp eq i32 %273, 0
  %275 = icmp slt i32 %270, 10
  %276 = or i1 %274, %275
  br i1 %276, label %277, label %528

; <label>:277:                                    ; preds = %268, %528
  %278 = call dereferenceable(56) %"class.std::__debug::vector"* @_ZNK11__gnu_debug14_Safe_iteratorIN9__gnu_cxx17__normal_iteratorIPNSt7__debug6vectorIiSaIiEEENSt9__cxx19986vectorIS6_SaIS6_EEEEENS4_IS6_SA_EEEdeEv(%"class.__gnu_debug::_Safe_iterator"* %27) #3
  %279 = load i32, i32* @x.38
  %280 = load i32, i32* @y.39
  %281 = sub i32 %279, 1
  %282 = mul i32 %279, %281
  %283 = urem i32 %282, 2
  %284 = icmp eq i32 %283, 0
  %285 = icmp slt i32 %280, 10
  %286 = or i1 %284, %285
  br i1 %286, label %287, label %528

; <label>:287:                                    ; preds = %277
  invoke void @_ZNSt7__debug6vectorIiSaIiEEC2ERKS2_(%"class.std::__debug::vector"* %30, %"class.std::__debug::vector"* dereferenceable(56) %278)
          to label %288 unwind label %294

; <label>:288:                                    ; preds = %287
  call void @_ZNSt7__debug3setIiSt4lessIiESaIiEEC2Ev(%"class.std::__debug::set"* %31) #3
  store %"class.std::__debug::vector"* %30, %"class.std::__debug::vector"** %32, align 8
  %289 = load %"class.std::__debug::vector"*, %"class.std::__debug::vector"** %32, align 8
  call void @_ZNSt7__debug6vectorIiSaIiEE5beginEv(%"class.__gnu_debug::_Safe_iterator.21"* sret %33, %"class.std::__debug::vector"* %289) #3
  %290 = load %"class.std::__debug::vector"*, %"class.std::__debug::vector"** %32, align 8
  call void @_ZNSt7__debug6vectorIiSaIiEE3endEv(%"class.__gnu_debug::_Safe_iterator.21"* sret %34, %"class.std::__debug::vector"* %290) #3
  br label %291

; <label>:291:                                    ; preds = %321, %288
  %292 = call zeroext i1 @_ZN11__gnu_debugneIN9__gnu_cxx17__normal_iteratorIPiNSt9__cxx19986vectorIiSaIiEEEEENSt7__debug6vectorIiS6_EEEEbRKNS_14_Safe_iteratorIT_T0_EESH_(%"class.__gnu_debug::_Safe_iterator.21"* dereferenceable(40) %33, %"class.__gnu_debug::_Safe_iterator.21"* dereferenceable(40) %34) #3
  br i1 %292, label %298, label %293

; <label>:293:                                    ; preds = %291
  store i32 10, i32* %29, align 4
  call void @_ZN11__gnu_debug14_Safe_iteratorIN9__gnu_cxx17__normal_iteratorIPiNSt9__cxx19986vectorIiSaIiEEEEENSt7__debug6vectorIiS6_EEED2Ev(%"class.__gnu_debug::_Safe_iterator.21"* %34) #3
  call void @_ZN11__gnu_debug14_Safe_iteratorIN9__gnu_cxx17__normal_iteratorIPiNSt9__cxx19986vectorIiSaIiEEEEENSt7__debug6vectorIiS6_EEED2Ev(%"class.__gnu_debug::_Safe_iterator.21"* %33) #3
  br label %344

; <label>:294:                                    ; preds = %287
  %295 = landingpad { i8*, i32 }
          cleanup
  %296 = extractvalue { i8*, i32 } %295, 0
  store i8* %296, i8** %15, align 8
  %297 = extractvalue { i8*, i32 } %295, 1
  store i32 %297, i32* %16, align 4
  br label %408

; <label>:298:                                    ; preds = %291
  %299 = call dereferenceable(4) i32* @_ZNK11__gnu_debug14_Safe_iteratorIN9__gnu_cxx17__normal_iteratorIPiNSt9__cxx19986vectorIiSaIiEEEEENSt7__debug6vectorIiS6_EEEdeEv(%"class.__gnu_debug::_Safe_iterator.21"* %33) #3
  %300 = load i32, i32* %299, align 4
  store i32 %300, i32* %35, align 4
  invoke void @_ZNSt7__debug3setIiSt4lessIiESaIiEE6insertERKi(%"struct.std::pair"* sret %36, %"class.std::__debug::set"* %31, i32* dereferenceable(4) %35)
          to label %301 unwind label %322

; <label>:301:                                    ; preds = %298
  call void @_ZNSt4pairIN11__gnu_debug14_Safe_iteratorISt23_Rb_tree_const_iteratorIiENSt7__debug3setIiSt4lessIiESaIiEEEEEbED2Ev(%"struct.std::pair"* %36) #3
  br label %302

; <label>:302:                                    ; preds = %301
  %303 = load i32, i32* @x.38
  %304 = load i32, i32* @y.39
  %305 = sub i32 %303, 1
  %306 = mul i32 %303, %305
  %307 = urem i32 %306, 2
  %308 = icmp eq i32 %307, 0
  %309 = icmp slt i32 %304, 10
  %310 = or i1 %308, %309
  br i1 %310, label %311, label %530

; <label>:311:                                    ; preds = %302, %530
  %312 = call dereferenceable(40) %"class.__gnu_debug::_Safe_iterator.21"* @_ZN11__gnu_debug14_Safe_iteratorIN9__gnu_cxx17__normal_iteratorIPiNSt9__cxx19986vectorIiSaIiEEEEENSt7__debug6vectorIiS6_EEEppEv(%"class.__gnu_debug::_Safe_iterator.21"* %33) #3
  %313 = load i32, i32* @x.38
  %314 = load i32, i32* @y.39
  %315 = sub i32 %313, 1
  %316 = mul i32 %313, %315
  %317 = urem i32 %316, 2
  %318 = icmp eq i32 %317, 0
  %319 = icmp slt i32 %314, 10
  %320 = or i1 %318, %319
  br i1 %320, label %321, label %530

; <label>:321:                                    ; preds = %311
  br label %291

; <label>:322:                                    ; preds = %298
  %323 = load i32, i32* @x.38
  %324 = load i32, i32* @y.39
  %325 = sub i32 %323, 1
  %326 = mul i32 %323, %325
  %327 = urem i32 %326, 2
  %328 = icmp eq i32 %327, 0
  %329 = icmp slt i32 %324, 10
  %330 = or i1 %328, %329
  br i1 %330, label %331, label %532

; <label>:331:                                    ; preds = %322, %532
  %332 = landingpad { i8*, i32 }
          cleanup
  %333 = extractvalue { i8*, i32 } %332, 0
  store i8* %333, i8** %15, align 8
  %334 = extractvalue { i8*, i32 } %332, 1
  store i32 %334, i32* %16, align 4
  call void @_ZN11__gnu_debug14_Safe_iteratorIN9__gnu_cxx17__normal_iteratorIPiNSt9__cxx19986vectorIiSaIiEEEEENSt7__debug6vectorIiS6_EEED2Ev(%"class.__gnu_debug::_Safe_iterator.21"* %34) #3
  call void @_ZN11__gnu_debug14_Safe_iteratorIN9__gnu_cxx17__normal_iteratorIPiNSt9__cxx19986vectorIiSaIiEEEEENSt7__debug6vectorIiS6_EEED2Ev(%"class.__gnu_debug::_Safe_iterator.21"* %33) #3
  %335 = load i32, i32* @x.38
  %336 = load i32, i32* @y.39
  %337 = sub i32 %335, 1
  %338 = mul i32 %335, %337
  %339 = urem i32 %338, 2
  %340 = icmp eq i32 %339, 0
  %341 = icmp slt i32 %336, 10
  %342 = or i1 %340, %341
  br i1 %342, label %343, label %532

; <label>:343:                                    ; preds = %331
  br label %407

; <label>:344:                                    ; preds = %293
  %345 = load i32, i32* @x.38
  %346 = load i32, i32* @y.39
  %347 = sub i32 %345, 1
  %348 = mul i32 %345, %347
  %349 = urem i32 %348, 2
  %350 = icmp eq i32 %349, 0
  %351 = icmp slt i32 %346, 10
  %352 = or i1 %350, %351
  br i1 %352, label %353, label %536

; <label>:353:                                    ; preds = %344, %536
  store %"class.std::__debug::vector"* %30, %"class.std::__debug::vector"** %37, align 8
  %354 = load %"class.std::__debug::vector"*, %"class.std::__debug::vector"** %37, align 8
  call void @_ZNSt7__debug6vectorIiSaIiEE5beginEv(%"class.__gnu_debug::_Safe_iterator.21"* sret %38, %"class.std::__debug::vector"* %354) #3
  %355 = load %"class.std::__debug::vector"*, %"class.std::__debug::vector"** %37, align 8
  call void @_ZNSt7__debug6vectorIiSaIiEE3endEv(%"class.__gnu_debug::_Safe_iterator.21"* sret %39, %"class.std::__debug::vector"* %355) #3
  %356 = load i32, i32* @x.38
  %357 = load i32, i32* @y.39
  %358 = sub i32 %356, 1
  %359 = mul i32 %356, %358
  %360 = urem i32 %359, 2
  %361 = icmp eq i32 %360, 0
  %362 = icmp slt i32 %357, 10
  %363 = or i1 %361, %362
  br i1 %363, label %364, label %536

; <label>:364:                                    ; preds = %353
  br label %365

; <label>:365:                                    ; preds = %402, %364
  %366 = call zeroext i1 @_ZN11__gnu_debugneIN9__gnu_cxx17__normal_iteratorIPiNSt9__cxx19986vectorIiSaIiEEEEENSt7__debug6vectorIiS6_EEEEbRKNS_14_Safe_iteratorIT_T0_EESH_(%"class.__gnu_debug::_Safe_iterator.21"* dereferenceable(40) %38, %"class.__gnu_debug::_Safe_iterator.21"* dereferenceable(40) %39) #3
  br i1 %366, label %368, label %367

; <label>:367:                                    ; preds = %365
  store i32 12, i32* %29, align 4
  call void @_ZN11__gnu_debug14_Safe_iteratorIN9__gnu_cxx17__normal_iteratorIPiNSt9__cxx19986vectorIiSaIiEEEEENSt7__debug6vectorIiS6_EEED2Ev(%"class.__gnu_debug::_Safe_iterator.21"* %39) #3
  call void @_ZN11__gnu_debug14_Safe_iteratorIN9__gnu_cxx17__normal_iteratorIPiNSt9__cxx19986vectorIiSaIiEEEEENSt7__debug6vectorIiS6_EEED2Ev(%"class.__gnu_debug::_Safe_iterator.21"* %38) #3
  br label %404

; <label>:368:                                    ; preds = %365
  %369 = load i32, i32* @x.38
  %370 = load i32, i32* @y.39
  %371 = sub i32 %369, 1
  %372 = mul i32 %369, %371
  %373 = urem i32 %372, 2
  %374 = icmp eq i32 %373, 0
  %375 = icmp slt i32 %370, 10
  %376 = or i1 %374, %375
  br i1 %376, label %377, label %539

; <label>:377:                                    ; preds = %368, %539
  %378 = call dereferenceable(4) i32* @_ZNK11__gnu_debug14_Safe_iteratorIN9__gnu_cxx17__normal_iteratorIPiNSt9__cxx19986vectorIiSaIiEEEEENSt7__debug6vectorIiS6_EEEdeEv(%"class.__gnu_debug::_Safe_iterator.21"* %38) #3
  %379 = load i32, i32* %378, align 4
  store i32 %379, i32* %40, align 4
  %380 = load i32, i32* %40, align 4
  %381 = sext i32 %380 to i64
  %382 = call dereferenceable(4) i32* @_ZNSt7__debug6vectorIiSaIiEEixEm(%"class.std::__debug::vector"* %13, i64 %381) #3
  %383 = load i32, i32* @x.38
  %384 = load i32, i32* @y.39
  %385 = sub i32 %383, 1
  %386 = mul i32 %383, %385
  %387 = urem i32 %386, 2
  %388 = icmp eq i32 %387, 0
  %389 = icmp slt i32 %384, 10
  %390 = or i1 %388, %389
  br i1 %390, label %391, label %539

; <label>:391:                                    ; preds = %377
  invoke void @_ZNSt7__debug3setIiSt4lessIiESaIiEE4findERKi(%"class.__gnu_debug::_Safe_iterator.23"* sret %41, %"class.std::__debug::set"* %31, i32* dereferenceable(4) %382)
          to label %392 unwind label %397

; <label>:392:                                    ; preds = %391
  call void @_ZNSt7__debug3setIiSt4lessIiESaIiEE3endEv(%"class.__gnu_debug::_Safe_iterator.23"* sret %42, %"class.std::__debug::set"* %31) #3
  %393 = call zeroext i1 @_ZN11__gnu_debugneISt23_Rb_tree_const_iteratorIiENSt7__debug3setIiSt4lessIiESaIiEEEEEbRKNS_14_Safe_iteratorIT_T0_EESE_(%"class.__gnu_debug::_Safe_iterator.23"* dereferenceable(40) %41, %"class.__gnu_debug::_Safe_iterator.23"* dereferenceable(40) %42) #3
  call void @_ZN11__gnu_debug14_Safe_iteratorISt23_Rb_tree_const_iteratorIiENSt7__debug3setIiSt4lessIiESaIiEEEED2Ev(%"class.__gnu_debug::_Safe_iterator.23"* %42) #3
  call void @_ZN11__gnu_debug14_Safe_iteratorISt23_Rb_tree_const_iteratorIiENSt7__debug3setIiSt4lessIiESaIiEEEED2Ev(%"class.__gnu_debug::_Safe_iterator.23"* %41) #3
  br i1 %393, label %394, label %401

; <label>:394:                                    ; preds = %392
  %395 = load i32, i32* %25, align 4
  %396 = add nsw i32 %395, 1
  store i32 %396, i32* %25, align 4
  br label %401

; <label>:397:                                    ; preds = %391
  %398 = landingpad { i8*, i32 }
          cleanup
  %399 = extractvalue { i8*, i32 } %398, 0
  store i8* %399, i8** %15, align 8
  %400 = extractvalue { i8*, i32 } %398, 1
  store i32 %400, i32* %16, align 4
  call void @_ZN11__gnu_debug14_Safe_iteratorIN9__gnu_cxx17__normal_iteratorIPiNSt9__cxx19986vectorIiSaIiEEEEENSt7__debug6vectorIiS6_EEED2Ev(%"class.__gnu_debug::_Safe_iterator.21"* %39) #3
  call void @_ZN11__gnu_debug14_Safe_iteratorIN9__gnu_cxx17__normal_iteratorIPiNSt9__cxx19986vectorIiSaIiEEEEENSt7__debug6vectorIiS6_EEED2Ev(%"class.__gnu_debug::_Safe_iterator.21"* %38) #3
  br label %407

; <label>:401:                                    ; preds = %394, %392
  br label %402

; <label>:402:                                    ; preds = %401
  %403 = call dereferenceable(40) %"class.__gnu_debug::_Safe_iterator.21"* @_ZN11__gnu_debug14_Safe_iteratorIN9__gnu_cxx17__normal_iteratorIPiNSt9__cxx19986vectorIiSaIiEEEEENSt7__debug6vectorIiS6_EEEppEv(%"class.__gnu_debug::_Safe_iterator.21"* %38) #3
  br label %365

; <label>:404:                                    ; preds = %367
  call void @_ZNSt7__debug3setIiSt4lessIiESaIiEED2Ev(%"class.std::__debug::set"* %31) #3
  call void @_ZNSt7__debug6vectorIiSaIiEED2Ev(%"class.std::__debug::vector"* %30) #3
  br label %405

; <label>:405:                                    ; preds = %404
  %406 = call dereferenceable(40) %"class.__gnu_debug::_Safe_iterator"* @_ZN11__gnu_debug14_Safe_iteratorIN9__gnu_cxx17__normal_iteratorIPNSt7__debug6vectorIiSaIiEEENSt9__cxx19986vectorIS6_SaIS6_EEEEENS4_IS6_SA_EEEppEv(%"class.__gnu_debug::_Safe_iterator"* %27) #3
  br label %247

; <label>:407:                                    ; preds = %397, %343
  call void @_ZNSt7__debug3setIiSt4lessIiESaIiEED2Ev(%"class.std::__debug::set"* %31) #3
  call void @_ZNSt7__debug6vectorIiSaIiEED2Ev(%"class.std::__debug::vector"* %30) #3
  br label %408

; <label>:408:                                    ; preds = %407, %294
  call void @_ZN11__gnu_debug14_Safe_iteratorIN9__gnu_cxx17__normal_iteratorIPNSt7__debug6vectorIiSaIiEEENSt9__cxx19986vectorIS6_SaIS6_EEEEENS4_IS6_SA_EEED2Ev(%"class.__gnu_debug::_Safe_iterator"* %28) #3
  call void @_ZN11__gnu_debug14_Safe_iteratorIN9__gnu_cxx17__normal_iteratorIPNSt7__debug6vectorIiSaIiEEENSt9__cxx19986vectorIS6_SaIS6_EEEEENS4_IS6_SA_EEED2Ev(%"class.__gnu_debug::_Safe_iterator"* %27) #3
  br label %438

; <label>:409:                                    ; preds = %267
  %410 = load i32, i32* %25, align 4
  %411 = invoke dereferenceable(272) %"class.std::basic_ostream"* @_ZNSolsEi(%"class.std::basic_ostream"* @_ZSt4cout, i32 %410)
          to label %412 unwind label %434

; <label>:412:                                    ; preds = %409
  %413 = load i32, i32* @x.38
  %414 = load i32, i32* @y.39
  %415 = sub i32 %413, 1
  %416 = mul i32 %413, %415
  %417 = urem i32 %416, 2
  %418 = icmp eq i32 %417, 0
  %419 = icmp slt i32 %414, 10
  %420 = or i1 %418, %419
  br i1 %420, label %421, label %545

; <label>:421:                                    ; preds = %412, %545
  %422 = load i32, i32* @x.38
  %423 = load i32, i32* @y.39
  %424 = sub i32 %422, 1
  %425 = mul i32 %422, %424
  %426 = urem i32 %425, 2
  %427 = icmp eq i32 %426, 0
  %428 = icmp slt i32 %423, 10
  %429 = or i1 %427, %428
  br i1 %429, label %430, label %545

; <label>:430:                                    ; preds = %421
  %431 = invoke dereferenceable(272) %"class.std::basic_ostream"* @_ZStlsISt11char_traitsIcEERSt13basic_ostreamIcT_ES5_PKc(%"class.std::basic_ostream"* dereferenceable(272) %411, i8* getelementptr inbounds ([2 x i8], [2 x i8]* @.str.2, i32 0, i32 0))
          to label %432 unwind label %434

; <label>:432:                                    ; preds = %430
  store i32 0, i32* %10, align 4
  store i32 1, i32* %29, align 4
  call void @_ZNSt7__debug6vectorINS0_IiSaIiEEESaIS2_EED2Ev(%"class.std::__debug::vector.3"* %24) #3
  call void @_ZN9UnionfindD2Ev(%class.Unionfind* %19) #3
  call void @_ZNSt7__debug6vectorIiSaIiEED2Ev(%"class.std::__debug::vector"* %17) #3
  call void @_ZNSt7__debug6vectorIiSaIiEED2Ev(%"class.std::__debug::vector"* %13) #3
  %433 = load i32, i32* %10, align 4
  ret i32 %433

; <label>:434:                                    ; preds = %430, %409
  %435 = landingpad { i8*, i32 }
          cleanup
  %436 = extractvalue { i8*, i32 } %435, 0
  store i8* %436, i8** %15, align 8
  %437 = extractvalue { i8*, i32 } %435, 1
  store i32 %437, i32* %16, align 4
  br label %438

; <label>:438:                                    ; preds = %434, %408
  %439 = load i32, i32* @x.38
  %440 = load i32, i32* @y.39
  %441 = sub i32 %439, 1
  %442 = mul i32 %439, %441
  %443 = urem i32 %442, 2
  %444 = icmp eq i32 %443, 0
  %445 = icmp slt i32 %440, 10
  %446 = or i1 %444, %445
  br i1 %446, label %447, label %546

; <label>:447:                                    ; preds = %438, %546
  call void @_ZNSt7__debug6vectorINS0_IiSaIiEEESaIS2_EED2Ev(%"class.std::__debug::vector.3"* %24) #3
  %448 = load i32, i32* @x.38
  %449 = load i32, i32* @y.39
  %450 = sub i32 %448, 1
  %451 = mul i32 %448, %450
  %452 = urem i32 %451, 2
  %453 = icmp eq i32 %452, 0
  %454 = icmp slt i32 %449, 10
  %455 = or i1 %453, %454
  br i1 %455, label %456, label %546

; <label>:456:                                    ; preds = %447
  br label %457

; <label>:457:                                    ; preds = %456, %148
  call void @_ZN9UnionfindD2Ev(%class.Unionfind* %19) #3
  br label %458

; <label>:458:                                    ; preds = %457, %123
  call void @_ZNSt7__debug6vectorIiSaIiEED2Ev(%"class.std::__debug::vector"* %17) #3
  br label %459

; <label>:459:                                    ; preds = %458, %119
  call void @_ZNSt7__debug6vectorIiSaIiEED2Ev(%"class.std::__debug::vector"* %13) #3
  br label %460

; <label>:460:                                    ; preds = %459, %115
  %461 = load i8*, i8** %15, align 8
  %462 = load i32, i32* %16, align 4
  %463 = insertvalue { i8*, i32 } undef, i8* %461, 0
  %464 = insertvalue { i8*, i32 } %463, i32 %462, 1
  resume { i8*, i32 } %464

; <label>:465:                                    ; preds = %9, %0
  %466 = alloca i32, align 4
  %467 = alloca i32, align 4
  %468 = alloca i32, align 4
  %469 = alloca %"class.std::__debug::vector", align 8
  %470 = alloca %"class.std::allocator.0", align 1
  %471 = alloca i8*
  %472 = alloca i32
  %473 = alloca %"class.std::__debug::vector", align 8
  %474 = alloca %"class.std::allocator.0", align 1
  %475 = alloca %class.Unionfind, align 8
  %476 = alloca i32, align 4
  %477 = alloca i32, align 4
  %478 = alloca i32, align 4
  %479 = alloca i32, align 4
  %480 = alloca %"class.std::__debug::vector.3", align 8
  %481 = alloca i32, align 4
  %482 = alloca %"class.std::__debug::vector.3"*, align 8
  %483 = alloca %"class.__gnu_debug::_Safe_iterator", align 8
  %484 = alloca %"class.__gnu_debug::_Safe_iterator", align 8
  %485 = alloca i32
  %486 = alloca %"class.std::__debug::vector", align 8
  %487 = alloca %"class.std::__debug::set", align 8
  %488 = alloca %"class.std::__debug::vector"*, align 8
  %489 = alloca %"class.__gnu_debug::_Safe_iterator.21", align 8
  %490 = alloca %"class.__gnu_debug::_Safe_iterator.21", align 8
  %491 = alloca i32, align 4
  %492 = alloca %"struct.std::pair", align 8
  %493 = alloca %"class.std::__debug::vector"*, align 8
  %494 = alloca %"class.__gnu_debug::_Safe_iterator.21", align 8
  %495 = alloca %"class.__gnu_debug::_Safe_iterator.21", align 8
  %496 = alloca i32, align 4
  %497 = alloca %"class.__gnu_debug::_Safe_iterator.23", align 8
  %498 = alloca %"class.__gnu_debug::_Safe_iterator.23", align 8
  store i32 0, i32* %466, align 4
  %499 = call zeroext i1 @_ZNSt8ios_base15sync_with_stdioEb(i1 zeroext false)
  %500 = load i8*, i8** bitcast (%"class.std::basic_istream"* @_ZSt3cin to i8**), align 8
  %501 = getelementptr i8, i8* %500, i64 -24
  %502 = bitcast i8* %501 to i64*
  %503 = load i64, i64* %502, align 8
  %504 = getelementptr inbounds i8, i8* bitcast (%"class.std::basic_istream"* @_ZSt3cin to i8*), i64 %503
  %505 = bitcast i8* %504 to %"class.std::basic_ios"*
  %506 = call %"class.std::basic_ostream"* @_ZNSt9basic_iosIcSt11char_traitsIcEE3tieEPSo(%"class.std::basic_ios"* %505, %"class.std::basic_ostream"* null)
  %507 = call dereferenceable(280) %"class.std::basic_istream"* @_ZNSirsERi(%"class.std::basic_istream"* @_ZSt3cin, i32* dereferenceable(4) %467)
  %508 = call dereferenceable(280) %"class.std::basic_istream"* @_ZNSirsERi(%"class.std::basic_istream"* %507, i32* dereferenceable(4) %468)
  %509 = load i32, i32* %467, align 4
  %510 = sext i32 %509 to i64
  call void @_ZNSaIiEC2Ev(%"class.std::allocator.0"* %470) #3
  br label %9

; <label>:511:                                    ; preds = %103, %94
  %512 = load i32, i32* %20, align 4
  %513 = sub i32 0, %512
  %514 = add i32 %513, 1
  %515 = add nsw i32 %512, 1
  store i32 %515, i32* %20, align 4
  br label %103

; <label>:516:                                    ; preds = %136, %127
  %517 = landingpad { i8*, i32 }
          cleanup
  %518 = extractvalue { i8*, i32 } %517, 0
  store i8* %518, i8** %15, align 8
  %519 = extractvalue { i8*, i32 } %517, 1
  store i32 %519, i32* %16, align 4
  br label %136

; <label>:520:                                    ; preds = %165, %156
  br label %165

; <label>:521:                                    ; preds = %185, %176
  br label %185

; <label>:522:                                    ; preds = %212, %203
  br label %212

; <label>:523:                                    ; preds = %235, %226
  store i32 0, i32* %25, align 4
  store %"class.std::__debug::vector.3"* %24, %"class.std::__debug::vector.3"** %26, align 8
  %524 = load %"class.std::__debug::vector.3"*, %"class.std::__debug::vector.3"** %26, align 8
  call void @_ZNSt7__debug6vectorINS0_IiSaIiEEESaIS2_EE5beginEv(%"class.__gnu_debug::_Safe_iterator"* sret %27, %"class.std::__debug::vector.3"* %524) #3
  %525 = load %"class.std::__debug::vector.3"*, %"class.std::__debug::vector.3"** %26, align 8
  call void @_ZNSt7__debug6vectorINS0_IiSaIiEEESaIS2_EE3endEv(%"class.__gnu_debug::_Safe_iterator"* sret %28, %"class.std::__debug::vector.3"* %525) #3
  br label %235

; <label>:526:                                    ; preds = %256, %247
  %527 = call zeroext i1 @_ZN11__gnu_debugneIN9__gnu_cxx17__normal_iteratorIPNSt7__debug6vectorIiSaIiEEENSt9__cxx19986vectorIS6_SaIS6_EEEEENS4_IS6_SA_EEEEbRKNS_14_Safe_iteratorIT_T0_EESJ_(%"class.__gnu_debug::_Safe_iterator"* dereferenceable(40) %27, %"class.__gnu_debug::_Safe_iterator"* dereferenceable(40) %28) #3
  br label %256

; <label>:528:                                    ; preds = %277, %268
  %529 = call dereferenceable(56) %"class.std::__debug::vector"* @_ZNK11__gnu_debug14_Safe_iteratorIN9__gnu_cxx17__normal_iteratorIPNSt7__debug6vectorIiSaIiEEENSt9__cxx19986vectorIS6_SaIS6_EEEEENS4_IS6_SA_EEEdeEv(%"class.__gnu_debug::_Safe_iterator"* %27) #3
  br label %277

; <label>:530:                                    ; preds = %311, %302
  %531 = call dereferenceable(40) %"class.__gnu_debug::_Safe_iterator.21"* @_ZN11__gnu_debug14_Safe_iteratorIN9__gnu_cxx17__normal_iteratorIPiNSt9__cxx19986vectorIiSaIiEEEEENSt7__debug6vectorIiS6_EEEppEv(%"class.__gnu_debug::_Safe_iterator.21"* %33) #3
  br label %311

; <label>:532:                                    ; preds = %331, %322
  %533 = landingpad { i8*, i32 }
          cleanup
  %534 = extractvalue { i8*, i32 } %533, 0
  store i8* %534, i8** %15, align 8
  %535 = extractvalue { i8*, i32 } %533, 1
  store i32 %535, i32* %16, align 4
  call void @_ZN11__gnu_debug14_Safe_iteratorIN9__gnu_cxx17__normal_iteratorIPiNSt9__cxx19986vectorIiSaIiEEEEENSt7__debug6vectorIiS6_EEED2Ev(%"class.__gnu_debug::_Safe_iterator.21"* %34) #3
  call void @_ZN11__gnu_debug14_Safe_iteratorIN9__gnu_cxx17__normal_iteratorIPiNSt9__cxx19986vectorIiSaIiEEEEENSt7__debug6vectorIiS6_EEED2Ev(%"class.__gnu_debug::_Safe_iterator.21"* %33) #3
  br label %331

; <label>:536:                                    ; preds = %353, %344
  store %"class.std::__debug::vector"* %30, %"class.std::__debug::vector"** %37, align 8
  %537 = load %"class.std::__debug::vector"*, %"class.std::__debug::vector"** %37, align 8
  call void @_ZNSt7__debug6vectorIiSaIiEE5beginEv(%"class.__gnu_debug::_Safe_iterator.21"* sret %38, %"class.std::__debug::vector"* %537) #3
  %538 = load %"class.std::__debug::vector"*, %"class.std::__debug::vector"** %37, align 8
  call void @_ZNSt7__debug6vectorIiSaIiEE3endEv(%"class.__gnu_debug::_Safe_iterator.21"* sret %39, %"class.std::__debug::vector"* %538) #3
  br label %353

; <label>:539:                                    ; preds = %377, %368
  %540 = call dereferenceable(4) i32* @_ZNK11__gnu_debug14_Safe_iteratorIN9__gnu_cxx17__normal_iteratorIPiNSt9__cxx19986vectorIiSaIiEEEEENSt7__debug6vectorIiS6_EEEdeEv(%"class.__gnu_debug::_Safe_iterator.21"* %38) #3
  %541 = load i32, i32* %540, align 4
  store i32 %541, i32* %40, align 4
  %542 = load i32, i32* %40, align 4
  %543 = sext i32 %542 to i64
  %544 = call dereferenceable(4) i32* @_ZNSt7__debug6vectorIiSaIiEEixEm(%"class.std::__debug::vector"* %13, i64 %543) #3
  br label %377

; <label>:545:                                    ; preds = %421, %412
  br label %421

; <label>:546:                                    ; preds = %447, %438
  call void @_ZNSt7__debug6vectorINS0_IiSaIiEEESaIS2_EED2Ev(%"class.std::__debug::vector.3"* %24) #3
  br label %447
}

declare zeroext i1 @_ZNSt8ios_base15sync_with_stdioEb(i1 zeroext) #1

declare %"class.std::basic_ostream"* @_ZNSt9basic_iosIcSt11char_traitsIcEE3tieEPSo(%"class.std::basic_ios"*, %"class.std::basic_ostream"*) #1

declare dereferenceable(280) %"class.std::basic_istream"* @_ZNSirsERi(%"class.std::basic_istream"*, i32* dereferenceable(4)) #1

; Function Attrs: noinline nounwind uwtable
define linkonce_odr void @_ZNSaIiEC2Ev(%"class.std::allocator.0"*) unnamed_addr #4 comdat align 2 {
  %2 = load i32, i32* @x.40
  %3 = load i32, i32* @y.41
  %4 = sub i32 %2, 1
  %5 = mul i32 %2, %4
  %6 = urem i32 %5, 2
  %7 = icmp eq i32 %6, 0
  %8 = icmp slt i32 %3, 10
  %9 = or i1 %7, %8
  br i1 %9, label %10, label %23

; <label>:10:                                     ; preds = %1, %23
  %11 = alloca %"class.std::allocator.0"*, align 8
  store %"class.std::allocator.0"* %0, %"class.std::allocator.0"** %11, align 8
  %12 = load %"class.std::allocator.0"*, %"class.std::allocator.0"** %11, align 8
  %13 = bitcast %"class.std::allocator.0"* %12 to %"class.__gnu_cxx::new_allocator.1"*
  call void @_ZN9__gnu_cxx13new_allocatorIiEC2Ev(%"class.__gnu_cxx::new_allocator.1"* %13) #3
  %14 = load i32, i32* @x.40
  %15 = load i32, i32* @y.41
  %16 = sub i32 %14, 1
  %17 = mul i32 %14, %16
  %18 = urem i32 %17, 2
  %19 = icmp eq i32 %18, 0
  %20 = icmp slt i32 %15, 10
  %21 = or i1 %19, %20
  br i1 %21, label %22, label %23

; <label>:22:                                     ; preds = %10
  ret void

; <label>:23:                                     ; preds = %10, %1
  %24 = alloca %"class.std::allocator.0"*, align 8
  store %"class.std::allocator.0"* %0, %"class.std::allocator.0"** %24, align 8
  %25 = load %"class.std::allocator.0"*, %"class.std::allocator.0"** %24, align 8
  %26 = bitcast %"class.std::allocator.0"* %25 to %"class.__gnu_cxx::new_allocator.1"*
  call void @_ZN9__gnu_cxx13new_allocatorIiEC2Ev(%"class.__gnu_cxx::new_allocator.1"* %26) #3
  br label %10
}

; Function Attrs: noinline uwtable
define linkonce_odr void @_ZNSt7__debug6vectorIiSaIiEEC2EmRKS1_(%"class.std::__debug::vector"*, i64, %"class.std::allocator.0"* dereferenceable(1)) unnamed_addr #0 comdat align 2 personality i8* bitcast (i32 (...)* @__gxx_personality_v0 to i8*) {
  %4 = alloca %"class.std::__debug::vector"*, align 8
  %5 = alloca i64, align 8
  %6 = alloca %"class.std::allocator.0"*, align 8
  %7 = alloca i8*
  %8 = alloca i32
  store %"class.std::__debug::vector"* %0, %"class.std::__debug::vector"** %4, align 8
  store i64 %1, i64* %5, align 8
  store %"class.std::allocator.0"* %2, %"class.std::allocator.0"** %6, align 8
  %9 = load %"class.std::__debug::vector"*, %"class.std::__debug::vector"** %4, align 8
  %10 = bitcast %"class.std::__debug::vector"* %9 to %"class.__gnu_debug::_Safe_container"*
  call void @_ZN11__gnu_debug15_Safe_containerINSt7__debug6vectorIiSaIiEEES3_NS_14_Safe_sequenceELb1EEC2Ev(%"class.__gnu_debug::_Safe_container"* %10) #3
  %11 = bitcast %"class.std::__debug::vector"* %9 to i8*
  %12 = getelementptr inbounds i8, i8* %11, i64 24
  %13 = bitcast i8* %12 to %"class.std::__cxx1998::vector"*
  %14 = load i64, i64* %5, align 8
  %15 = load %"class.std::allocator.0"*, %"class.std::allocator.0"** %6, align 8
  invoke void @_ZNSt9__cxx19986vectorIiSaIiEEC2EmRKS1_(%"class.std::__cxx1998::vector"* %13, i64 %14, %"class.std::allocator.0"* dereferenceable(1) %15)
          to label %16 unwind label %21

; <label>:16:                                     ; preds = %3
  %17 = bitcast %"class.std::__debug::vector"* %9 to i8*
  %18 = getelementptr inbounds i8, i8* %17, i64 48
  %19 = bitcast i8* %18 to %"class.__gnu_debug::_Safe_vector"*
  %20 = load i64, i64* %5, align 8
  call void @_ZN11__gnu_debug12_Safe_vectorINSt7__debug6vectorIiSaIiEEENSt9__cxx19986vectorIiS3_EEEC2Em(%"class.__gnu_debug::_Safe_vector"* %19, i64 %20) #3
  ret void

; <label>:21:                                     ; preds = %3
  %22 = load i32, i32* @x.42
  %23 = load i32, i32* @y.43
  %24 = sub i32 %22, 1
  %25 = mul i32 %22, %24
  %26 = urem i32 %25, 2
  %27 = icmp eq i32 %26, 0
  %28 = icmp slt i32 %23, 10
  %29 = or i1 %27, %28
  br i1 %29, label %30, label %49

; <label>:30:                                     ; preds = %21, %49
  %31 = landingpad { i8*, i32 }
          cleanup
  %32 = extractvalue { i8*, i32 } %31, 0
  store i8* %32, i8** %7, align 8
  %33 = extractvalue { i8*, i32 } %31, 1
  store i32 %33, i32* %8, align 4
  %34 = bitcast %"class.std::__debug::vector"* %9 to %"class.__gnu_debug::_Safe_container"*
  call void @_ZN11__gnu_debug15_Safe_containerINSt7__debug6vectorIiSaIiEEES3_NS_14_Safe_sequenceELb1EED2Ev(%"class.__gnu_debug::_Safe_container"* %34) #3
  %35 = load i32, i32* @x.42
  %36 = load i32, i32* @y.43
  %37 = sub i32 %35, 1
  %38 = mul i32 %35, %37
  %39 = urem i32 %38, 2
  %40 = icmp eq i32 %39, 0
  %41 = icmp slt i32 %36, 10
  %42 = or i1 %40, %41
  br i1 %42, label %43, label %49

; <label>:43:                                     ; preds = %30
  br label %44

; <label>:44:                                     ; preds = %43
  %45 = load i8*, i8** %7, align 8
  %46 = load i32, i32* %8, align 4
  %47 = insertvalue { i8*, i32 } undef, i8* %45, 0
  %48 = insertvalue { i8*, i32 } %47, i32 %46, 1
  resume { i8*, i32 } %48

; <label>:49:                                     ; preds = %30, %21
  %50 = landingpad { i8*, i32 }
          cleanup
  %51 = extractvalue { i8*, i32 } %50, 0
  store i8* %51, i8** %7, align 8
  %52 = extractvalue { i8*, i32 } %50, 1
  store i32 %52, i32* %8, align 4
  %53 = bitcast %"class.std::__debug::vector"* %9 to %"class.__gnu_debug::_Safe_container"*
  call void @_ZN11__gnu_debug15_Safe_containerINSt7__debug6vectorIiSaIiEEES3_NS_14_Safe_sequenceELb1EED2Ev(%"class.__gnu_debug::_Safe_container"* %53) #3
  br label %30
}

; Function Attrs: noinline nounwind uwtable
define linkonce_odr void @_ZNSaIiED2Ev(%"class.std::allocator.0"*) unnamed_addr #4 comdat align 2 {
  %2 = alloca %"class.std::allocator.0"*, align 8
  store %"class.std::allocator.0"* %0, %"class.std::allocator.0"** %2, align 8
  %3 = load %"class.std::allocator.0"*, %"class.std::allocator.0"** %2, align 8
  %4 = bitcast %"class.std::allocator.0"* %3 to %"class.__gnu_cxx::new_allocator.1"*
  call void @_ZN9__gnu_cxx13new_allocatorIiED2Ev(%"class.__gnu_cxx::new_allocator.1"* %4) #3
  ret void
}

; Function Attrs: noinline uwtable
define linkonce_odr void @_ZN9UnionfindC2Ei(%class.Unionfind*, i32) unnamed_addr #0 comdat align 2 personality i8* bitcast (i32 (...)* @__gxx_personality_v0 to i8*) {
  %3 = alloca %class.Unionfind*, align 8
  %4 = alloca i32, align 4
  %5 = alloca %"class.std::allocator.0", align 1
  %6 = alloca i8*
  %7 = alloca i32
  %8 = alloca i32, align 4
  %9 = alloca %"class.std::allocator.0", align 1
  %10 = alloca i32, align 4
  %11 = alloca %"class.std::allocator.0", align 1
  %12 = alloca i32, align 4
  store %class.Unionfind* %0, %class.Unionfind** %3, align 8
  store i32 %1, i32* %4, align 4
  %13 = load %class.Unionfind*, %class.Unionfind** %3, align 8
  %14 = getelementptr inbounds %class.Unionfind, %class.Unionfind* %13, i32 0, i32 0
  %15 = load i32, i32* %4, align 4
  store i32 %15, i32* %14, align 8
  %16 = getelementptr inbounds %class.Unionfind, %class.Unionfind* %13, i32 0, i32 2
  %17 = load i32, i32* %4, align 4
  %18 = sext i32 %17 to i64
  call void @_ZNSaIiEC2Ev(%"class.std::allocator.0"* %5) #3
  invoke void @_ZNSt7__debug6vectorIiSaIiEEC2EmRKS1_(%"class.std::__debug::vector"* %16, i64 %18, %"class.std::allocator.0"* dereferenceable(1) %5)
          to label %19 unwind label %59

; <label>:19:                                     ; preds = %2
  call void @_ZNSaIiED2Ev(%"class.std::allocator.0"* %5) #3
  %20 = getelementptr inbounds %class.Unionfind, %class.Unionfind* %13, i32 0, i32 3
  %21 = load i32, i32* %4, align 4
  %22 = sext i32 %21 to i64
  store i32 0, i32* %8, align 4
  call void @_ZNSaIiEC2Ev(%"class.std::allocator.0"* %9) #3
  invoke void @_ZNSt7__debug6vectorIiSaIiEEC2EmRKiRKS1_(%"class.std::__debug::vector"* %20, i64 %22, i32* dereferenceable(4) %8, %"class.std::allocator.0"* dereferenceable(1) %9)
          to label %23 unwind label %81

; <label>:23:                                     ; preds = %19
  call void @_ZNSaIiED2Ev(%"class.std::allocator.0"* %9) #3
  %24 = getelementptr inbounds %class.Unionfind, %class.Unionfind* %13, i32 0, i32 4
  %25 = load i32, i32* %4, align 4
  %26 = sext i32 %25 to i64
  store i32 1, i32* %10, align 4
  call void @_ZNSaIiEC2Ev(%"class.std::allocator.0"* %11) #3
  invoke void @_ZNSt7__debug6vectorIiSaIiEEC2EmRKiRKS1_(%"class.std::__debug::vector"* %24, i64 %26, i32* dereferenceable(4) %10, %"class.std::allocator.0"* dereferenceable(1) %11)
          to label %27 unwind label %85

; <label>:27:                                     ; preds = %23
  call void @_ZNSaIiED2Ev(%"class.std::allocator.0"* %11) #3
  store i32 0, i32* %12, align 4
  br label %28

; <label>:28:                                     ; preds = %58, %27
  %29 = load i32, i32* %12, align 4
  %30 = load i32, i32* %4, align 4
  %31 = icmp slt i32 %29, %30
  br i1 %31, label %32, label %89

; <label>:32:                                     ; preds = %28
  %33 = load i32, i32* %12, align 4
  %34 = getelementptr inbounds %class.Unionfind, %class.Unionfind* %13, i32 0, i32 2
  %35 = load i32, i32* %12, align 4
  %36 = sext i32 %35 to i64
  %37 = call dereferenceable(4) i32* @_ZNSt7__debug6vectorIiSaIiEEixEm(%"class.std::__debug::vector"* %34, i64 %36) #3
  store i32 %33, i32* %37, align 4
  br label %38

; <label>:38:                                     ; preds = %32
  %39 = load i32, i32* @x.46
  %40 = load i32, i32* @y.47
  %41 = sub i32 %39, 1
  %42 = mul i32 %39, %41
  %43 = urem i32 %42, 2
  %44 = icmp eq i32 %43, 0
  %45 = icmp slt i32 %40, 10
  %46 = or i1 %44, %45
  br i1 %46, label %47, label %98

; <label>:47:                                     ; preds = %38, %98
  %48 = load i32, i32* %12, align 4
  %49 = add nsw i32 %48, 1
  store i32 %49, i32* %12, align 4
  %50 = load i32, i32* @x.46
  %51 = load i32, i32* @y.47
  %52 = sub i32 %50, 1
  %53 = mul i32 %50, %52
  %54 = urem i32 %53, 2
  %55 = icmp eq i32 %54, 0
  %56 = icmp slt i32 %51, 10
  %57 = or i1 %55, %56
  br i1 %57, label %58, label %98

; <label>:58:                                     ; preds = %47
  br label %28

; <label>:59:                                     ; preds = %2
  %60 = load i32, i32* @x.46
  %61 = load i32, i32* @y.47
  %62 = sub i32 %60, 1
  %63 = mul i32 %60, %62
  %64 = urem i32 %63, 2
  %65 = icmp eq i32 %64, 0
  %66 = icmp slt i32 %61, 10
  %67 = or i1 %65, %66
  br i1 %67, label %68, label %108

; <label>:68:                                     ; preds = %59, %108
  %69 = landingpad { i8*, i32 }
          cleanup
  %70 = extractvalue { i8*, i32 } %69, 0
  store i8* %70, i8** %6, align 8
  %71 = extractvalue { i8*, i32 } %69, 1
  store i32 %71, i32* %7, align 4
  call void @_ZNSaIiED2Ev(%"class.std::allocator.0"* %5) #3
  %72 = load i32, i32* @x.46
  %73 = load i32, i32* @y.47
  %74 = sub i32 %72, 1
  %75 = mul i32 %72, %74
  %76 = urem i32 %75, 2
  %77 = icmp eq i32 %76, 0
  %78 = icmp slt i32 %73, 10
  %79 = or i1 %77, %78
  br i1 %79, label %80, label %108

; <label>:80:                                     ; preds = %68
  br label %93

; <label>:81:                                     ; preds = %19
  %82 = landingpad { i8*, i32 }
          cleanup
  %83 = extractvalue { i8*, i32 } %82, 0
  store i8* %83, i8** %6, align 8
  %84 = extractvalue { i8*, i32 } %82, 1
  store i32 %84, i32* %7, align 4
  call void @_ZNSaIiED2Ev(%"class.std::allocator.0"* %9) #3
  br label %92

; <label>:85:                                     ; preds = %23
  %86 = landingpad { i8*, i32 }
          cleanup
  %87 = extractvalue { i8*, i32 } %86, 0
  store i8* %87, i8** %6, align 8
  %88 = extractvalue { i8*, i32 } %86, 1
  store i32 %88, i32* %7, align 4
  call void @_ZNSaIiED2Ev(%"class.std::allocator.0"* %11) #3
  call void @_ZNSt7__debug6vectorIiSaIiEED2Ev(%"class.std::__debug::vector"* %20) #3
  br label %92

; <label>:89:                                     ; preds = %28
  %90 = load i32, i32* %4, align 4
  %91 = getelementptr inbounds %class.Unionfind, %class.Unionfind* %13, i32 0, i32 5
  store i32 %90, i32* %91, align 8
  ret void

; <label>:92:                                     ; preds = %85, %81
  call void @_ZNSt7__debug6vectorIiSaIiEED2Ev(%"class.std::__debug::vector"* %16) #3
  br label %93

; <label>:93:                                     ; preds = %92, %80
  %94 = load i8*, i8** %6, align 8
  %95 = load i32, i32* %7, align 4
  %96 = insertvalue { i8*, i32 } undef, i8* %94, 0
  %97 = insertvalue { i8*, i32 } %96, i32 %95, 1
  resume { i8*, i32 } %97

; <label>:98:                                     ; preds = %47, %38
  %99 = load i32, i32* %12, align 4
  %100 = sub i32 %99, 1
  %101 = mul i32 %100, 1
  %102 = sub i32 %99, 1
  %103 = mul i32 %102, 1
  %104 = shl i32 %99, 1
  %105 = sub i32 %99, 1
  %106 = mul i32 %105, 1
  %107 = add nsw i32 %99, 1
  store i32 %107, i32* %12, align 4
  br label %47

; <label>:108:                                    ; preds = %68, %59
  %109 = landingpad { i8*, i32 }
          cleanup
  %110 = extractvalue { i8*, i32 } %109, 0
  store i8* %110, i8** %6, align 8
  %111 = extractvalue { i8*, i32 } %109, 1
  store i32 %111, i32* %7, align 4
  call void @_ZNSaIiED2Ev(%"class.std::allocator.0"* %5) #3
  br label %68
}

; Function Attrs: noinline nounwind uwtable
define linkonce_odr dereferenceable(4) i32* @_ZNSt7__debug6vectorIiSaIiEEixEm(%"class.std::__debug::vector"*, i64) #4 comdat align 2 personality i8* bitcast (i32 (...)* @__gxx_personality_v0 to i8*) {
  %3 = alloca %"class.std::__debug::vector"*, align 8
  %4 = alloca i64, align 8
  %5 = alloca %"class.__gnu_debug::_Error_formatter", align 8
  store %"class.std::__debug::vector"* %0, %"class.std::__debug::vector"** %3, align 8
  store i64 %1, i64* %4, align 8
  %6 = load %"class.std::__debug::vector"*, %"class.std::__debug::vector"** %3, align 8
  br label %7

; <label>:7:                                      ; preds = %2
  %8 = load i64, i64* %4, align 8
  %9 = bitcast %"class.std::__debug::vector"* %6 to i8*
  %10 = getelementptr inbounds i8, i8* %9, i64 24
  %11 = bitcast i8* %10 to %"class.std::__cxx1998::vector"*
  %12 = call i64 @_ZNKSt9__cxx19986vectorIiSaIiEE4sizeEv(%"class.std::__cxx1998::vector"* %11) #3
  %13 = icmp ult i64 %8, %12
  br i1 %13, label %47, label %14

; <label>:14:                                     ; preds = %7
  invoke void @_ZN11__gnu_debug16_Error_formatter5_M_atEPKcm(%"class.__gnu_debug::_Error_formatter"* sret %5, i8* getelementptr inbounds ([79 x i8], [79 x i8]* @.str.3, i32 0, i32 0), i64 409)
          to label %15 unwind label %71

; <label>:15:                                     ; preds = %14
  %16 = call dereferenceable(560) %"class.__gnu_debug::_Error_formatter"* @_ZNK11__gnu_debug16_Error_formatter10_M_messageENS_13_Debug_msg_idE(%"class.__gnu_debug::_Error_formatter"* %5, i32 5) #3
  %17 = invoke dereferenceable(560) %"class.__gnu_debug::_Error_formatter"* @_ZNK11__gnu_debug16_Error_formatter11_M_sequenceINSt7__debug6vectorIiSaIiEEEEERKS0_RKT_PKc(%"class.__gnu_debug::_Error_formatter"* %16, %"class.std::__debug::vector"* dereferenceable(56) %6, i8* getelementptr inbounds ([5 x i8], [5 x i8]* @.str.4, i32 0, i32 0))
          to label %18 unwind label %71

; <label>:18:                                     ; preds = %15
  %19 = load i64, i64* %4, align 8
  %20 = invoke dereferenceable(560) %"class.__gnu_debug::_Error_formatter"* @_ZNK11__gnu_debug16_Error_formatter10_M_integerElPKc(%"class.__gnu_debug::_Error_formatter"* %17, i64 %19, i8* getelementptr inbounds ([4 x i8], [4 x i8]* @.str.5, i32 0, i32 0))
          to label %21 unwind label %71

; <label>:21:                                     ; preds = %18
  %22 = bitcast %"class.std::__debug::vector"* %6 to i8*
  %23 = getelementptr inbounds i8, i8* %22, i64 24
  %24 = bitcast i8* %23 to %"class.std::__cxx1998::vector"*
  %25 = call i64 @_ZNKSt9__cxx19986vectorIiSaIiEE4sizeEv(%"class.std::__cxx1998::vector"* %24) #3
  %26 = invoke dereferenceable(560) %"class.__gnu_debug::_Error_formatter"* @_ZNK11__gnu_debug16_Error_formatter10_M_integerElPKc(%"class.__gnu_debug::_Error_formatter"* %20, i64 %25, i8* getelementptr inbounds ([5 x i8], [5 x i8]* @.str.6, i32 0, i32 0))
          to label %27 unwind label %71

; <label>:27:                                     ; preds = %21
  %28 = load i32, i32* @x.48
  %29 = load i32, i32* @y.49
  %30 = sub i32 %28, 1
  %31 = mul i32 %28, %30
  %32 = urem i32 %31, 2
  %33 = icmp eq i32 %32, 0
  %34 = icmp slt i32 %29, 10
  %35 = or i1 %33, %34
  br i1 %35, label %36, label %92

; <label>:36:                                     ; preds = %27, %92
  %37 = load i32, i32* @x.48
  %38 = load i32, i32* @y.49
  %39 = sub i32 %37, 1
  %40 = mul i32 %37, %39
  %41 = urem i32 %40, 2
  %42 = icmp eq i32 %41, 0
  %43 = icmp slt i32 %38, 10
  %44 = or i1 %42, %43
  br i1 %44, label %45, label %92

; <label>:45:                                     ; preds = %36
  invoke void @_ZNK11__gnu_debug16_Error_formatter8_M_errorEv(%"class.__gnu_debug::_Error_formatter"* %26) #13
          to label %46 unwind label %71

; <label>:46:                                     ; preds = %45
  unreachable

; <label>:47:                                     ; preds = %7
  br label %48

; <label>:48:                                     ; preds = %47
  br label %49

; <label>:49:                                     ; preds = %48
  %50 = load i32, i32* @x.48
  %51 = load i32, i32* @y.49
  %52 = sub i32 %50, 1
  %53 = mul i32 %50, %52
  %54 = urem i32 %53, 2
  %55 = icmp eq i32 %54, 0
  %56 = icmp slt i32 %51, 10
  %57 = or i1 %55, %56
  br i1 %57, label %58, label %93

; <label>:58:                                     ; preds = %49, %93
  %59 = call dereferenceable(24) %"class.std::__cxx1998::vector"* @_ZNSt7__debug6vectorIiSaIiEE7_M_baseEv(%"class.std::__debug::vector"* %6) #3
  %60 = load i64, i64* %4, align 8
  %61 = call dereferenceable(4) i32* @_ZNSt9__cxx19986vectorIiSaIiEEixEm(%"class.std::__cxx1998::vector"* %59, i64 %60) #3
  %62 = load i32, i32* @x.48
  %63 = load i32, i32* @y.49
  %64 = sub i32 %62, 1
  %65 = mul i32 %62, %64
  %66 = urem i32 %65, 2
  %67 = icmp eq i32 %66, 0
  %68 = icmp slt i32 %63, 10
  %69 = or i1 %67, %68
  br i1 %69, label %70, label %93

; <label>:70:                                     ; preds = %58
  ret i32* %61

; <label>:71:                                     ; preds = %45, %21, %18, %15, %14
  %72 = load i32, i32* @x.48
  %73 = load i32, i32* @y.49
  %74 = sub i32 %72, 1
  %75 = mul i32 %72, %74
  %76 = urem i32 %75, 2
  %77 = icmp eq i32 %76, 0
  %78 = icmp slt i32 %73, 10
  %79 = or i1 %77, %78
  br i1 %79, label %80, label %97

; <label>:80:                                     ; preds = %71, %97
  %81 = landingpad { i8*, i32 }
          catch i8* null
  %82 = extractvalue { i8*, i32 } %81, 0
  call void @__clang_call_terminate(i8* %82) #10
  %83 = load i32, i32* @x.48
  %84 = load i32, i32* @y.49
  %85 = sub i32 %83, 1
  %86 = mul i32 %83, %85
  %87 = urem i32 %86, 2
  %88 = icmp eq i32 %87, 0
  %89 = icmp slt i32 %84, 10
  %90 = or i1 %88, %89
  br i1 %90, label %91, label %97

; <label>:91:                                     ; preds = %80
  unreachable

; <label>:92:                                     ; preds = %36, %27
  br label %36

; <label>:93:                                     ; preds = %58, %49
  %94 = call dereferenceable(24) %"class.std::__cxx1998::vector"* @_ZNSt7__debug6vectorIiSaIiEE7_M_baseEv(%"class.std::__debug::vector"* %6) #3
  %95 = load i64, i64* %4, align 8
  %96 = call dereferenceable(4) i32* @_ZNSt9__cxx19986vectorIiSaIiEEixEm(%"class.std::__cxx1998::vector"* %94, i64 %95) #3
  br label %58

; <label>:97:                                     ; preds = %80, %71
  %98 = landingpad { i8*, i32 }
          catch i8* null
  %99 = extractvalue { i8*, i32 } %98, 0
  call void @__clang_call_terminate(i8* %99) #10
  br label %80
}

; Function Attrs: noinline uwtable
define linkonce_odr void @_ZN9Unionfind5uniteEii(%class.Unionfind*, i32, i32) #0 comdat align 2 {
  %4 = alloca %class.Unionfind*, align 8
  %5 = alloca i32, align 4
  %6 = alloca i32, align 4
  store %class.Unionfind* %0, %class.Unionfind** %4, align 8
  store i32 %1, i32* %5, align 4
  store i32 %2, i32* %6, align 4
  %7 = load %class.Unionfind*, %class.Unionfind** %4, align 8
  %8 = load i32, i32* %5, align 4
  %9 = call i32 @_ZN9Unionfind4rootEi(%class.Unionfind* %7, i32 %8)
  store i32 %9, i32* %5, align 4
  %10 = load i32, i32* %6, align 4
  %11 = call i32 @_ZN9Unionfind4rootEi(%class.Unionfind* %7, i32 %10)
  store i32 %11, i32* %6, align 4
  %12 = load i32, i32* %5, align 4
  %13 = load i32, i32* %6, align 4
  %14 = icmp eq i32 %12, %13
  br i1 %14, label %15, label %34

; <label>:15:                                     ; preds = %3
  %16 = load i32, i32* @x.50
  %17 = load i32, i32* @y.51
  %18 = sub i32 %16, 1
  %19 = mul i32 %16, %18
  %20 = urem i32 %19, 2
  %21 = icmp eq i32 %20, 0
  %22 = icmp slt i32 %17, 10
  %23 = or i1 %21, %22
  br i1 %23, label %24, label %121

; <label>:24:                                     ; preds = %15, %121
  %25 = load i32, i32* @x.50
  %26 = load i32, i32* @y.51
  %27 = sub i32 %25, 1
  %28 = mul i32 %25, %27
  %29 = urem i32 %28, 2
  %30 = icmp eq i32 %29, 0
  %31 = icmp slt i32 %26, 10
  %32 = or i1 %30, %31
  br i1 %32, label %33, label %121

; <label>:33:                                     ; preds = %24
  br label %102

; <label>:34:                                     ; preds = %3
  %35 = getelementptr inbounds %class.Unionfind, %class.Unionfind* %7, i32 0, i32 5
  %36 = load i32, i32* %35, align 8
  %37 = add nsw i32 %36, -1
  store i32 %37, i32* %35, align 8
  %38 = getelementptr inbounds %class.Unionfind, %class.Unionfind* %7, i32 0, i32 3
  %39 = load i32, i32* %5, align 4
  %40 = sext i32 %39 to i64
  %41 = call dereferenceable(4) i32* @_ZNSt7__debug6vectorIiSaIiEEixEm(%"class.std::__debug::vector"* %38, i64 %40) #3
  %42 = load i32, i32* %41, align 4
  %43 = getelementptr inbounds %class.Unionfind, %class.Unionfind* %7, i32 0, i32 3
  %44 = load i32, i32* %6, align 4
  %45 = sext i32 %44 to i64
  %46 = call dereferenceable(4) i32* @_ZNSt7__debug6vectorIiSaIiEEixEm(%"class.std::__debug::vector"* %43, i64 %45) #3
  %47 = load i32, i32* %46, align 4
  %48 = icmp slt i32 %42, %47
  br i1 %48, label %49, label %66

; <label>:49:                                     ; preds = %34
  %50 = load i32, i32* %6, align 4
  %51 = getelementptr inbounds %class.Unionfind, %class.Unionfind* %7, i32 0, i32 2
  %52 = load i32, i32* %5, align 4
  %53 = sext i32 %52 to i64
  %54 = call dereferenceable(4) i32* @_ZNSt7__debug6vectorIiSaIiEEixEm(%"class.std::__debug::vector"* %51, i64 %53) #3
  store i32 %50, i32* %54, align 4
  %55 = getelementptr inbounds %class.Unionfind, %class.Unionfind* %7, i32 0, i32 4
  %56 = load i32, i32* %5, align 4
  %57 = sext i32 %56 to i64
  %58 = call dereferenceable(4) i32* @_ZNSt7__debug6vectorIiSaIiEEixEm(%"class.std::__debug::vector"* %55, i64 %57) #3
  %59 = load i32, i32* %58, align 4
  %60 = getelementptr inbounds %class.Unionfind, %class.Unionfind* %7, i32 0, i32 4
  %61 = load i32, i32* %6, align 4
  %62 = sext i32 %61 to i64
  %63 = call dereferenceable(4) i32* @_ZNSt7__debug6vectorIiSaIiEEixEm(%"class.std::__debug::vector"* %60, i64 %62) #3
  %64 = load i32, i32* %63, align 4
  %65 = add nsw i32 %64, %59
  store i32 %65, i32* %63, align 4
  br label %102

; <label>:66:                                     ; preds = %34
  %67 = load i32, i32* %5, align 4
  %68 = getelementptr inbounds %class.Unionfind, %class.Unionfind* %7, i32 0, i32 2
  %69 = load i32, i32* %6, align 4
  %70 = sext i32 %69 to i64
  %71 = call dereferenceable(4) i32* @_ZNSt7__debug6vectorIiSaIiEEixEm(%"class.std::__debug::vector"* %68, i64 %70) #3
  store i32 %67, i32* %71, align 4
  %72 = getelementptr inbounds %class.Unionfind, %class.Unionfind* %7, i32 0, i32 4
  %73 = load i32, i32* %6, align 4
  %74 = sext i32 %73 to i64
  %75 = call dereferenceable(4) i32* @_ZNSt7__debug6vectorIiSaIiEEixEm(%"class.std::__debug::vector"* %72, i64 %74) #3
  %76 = load i32, i32* %75, align 4
  %77 = getelementptr inbounds %class.Unionfind, %class.Unionfind* %7, i32 0, i32 4
  %78 = load i32, i32* %5, align 4
  %79 = sext i32 %78 to i64
  %80 = call dereferenceable(4) i32* @_ZNSt7__debug6vectorIiSaIiEEixEm(%"class.std::__debug::vector"* %77, i64 %79) #3
  %81 = load i32, i32* %80, align 4
  %82 = add nsw i32 %81, %76
  store i32 %82, i32* %80, align 4
  %83 = getelementptr inbounds %class.Unionfind, %class.Unionfind* %7, i32 0, i32 3
  %84 = load i32, i32* %5, align 4
  %85 = sext i32 %84 to i64
  %86 = call dereferenceable(4) i32* @_ZNSt7__debug6vectorIiSaIiEEixEm(%"class.std::__debug::vector"* %83, i64 %85) #3
  %87 = load i32, i32* %86, align 4
  %88 = getelementptr inbounds %class.Unionfind, %class.Unionfind* %7, i32 0, i32 3
  %89 = load i32, i32* %6, align 4
  %90 = sext i32 %89 to i64
  %91 = call dereferenceable(4) i32* @_ZNSt7__debug6vectorIiSaIiEEixEm(%"class.std::__debug::vector"* %88, i64 %90) #3
  %92 = load i32, i32* %91, align 4
  %93 = icmp eq i32 %87, %92
  br i1 %93, label %94, label %101

; <label>:94:                                     ; preds = %66
  %95 = getelementptr inbounds %class.Unionfind, %class.Unionfind* %7, i32 0, i32 3
  %96 = load i32, i32* %5, align 4
  %97 = sext i32 %96 to i64
  %98 = call dereferenceable(4) i32* @_ZNSt7__debug6vectorIiSaIiEEixEm(%"class.std::__debug::vector"* %95, i64 %97) #3
  %99 = load i32, i32* %98, align 4
  %100 = add nsw i32 %99, 1
  store i32 %100, i32* %98, align 4
  br label %101

; <label>:101:                                    ; preds = %94, %66
  br label %102

; <label>:102:                                    ; preds = %33, %101, %49
  %103 = load i32, i32* @x.50
  %104 = load i32, i32* @y.51
  %105 = sub i32 %103, 1
  %106 = mul i32 %103, %105
  %107 = urem i32 %106, 2
  %108 = icmp eq i32 %107, 0
  %109 = icmp slt i32 %104, 10
  %110 = or i1 %108, %109
  br i1 %110, label %111, label %122

; <label>:111:                                    ; preds = %102, %122
  %112 = load i32, i32* @x.50
  %113 = load i32, i32* @y.51
  %114 = sub i32 %112, 1
  %115 = mul i32 %112, %114
  %116 = urem i32 %115, 2
  %117 = icmp eq i32 %116, 0
  %118 = icmp slt i32 %113, 10
  %119 = or i1 %117, %118
  br i1 %119, label %120, label %122

; <label>:120:                                    ; preds = %111
  ret void

; <label>:121:                                    ; preds = %24, %15
  br label %24

; <label>:122:                                    ; preds = %111, %102
  br label %111
}

; Function Attrs: noinline uwtable
define linkonce_odr void @_ZN9Unionfind5groupEv(%"class.std::__debug::vector.3"* noalias sret, %class.Unionfind*) #0 comdat align 2 personality i8* bitcast (i32 (...)* @__gxx_personality_v0 to i8*) {
  %3 = alloca %class.Unionfind*, align 8
  %4 = alloca i1, align 1
  %5 = alloca %"class.std::__debug::vector.3", align 8
  %6 = alloca %"class.std::allocator.10", align 1
  %7 = alloca i8*
  %8 = alloca i32
  %9 = alloca i32, align 4
  %10 = alloca i32, align 4
  store %class.Unionfind* %1, %class.Unionfind** %3, align 8
  %11 = load %class.Unionfind*, %class.Unionfind** %3, align 8
  store i1 false, i1* %4, align 1
  call void @_ZNSt7__debug6vectorINS0_IiSaIiEEESaIS2_EEC2Ev(%"class.std::__debug::vector.3"* %0) #3
  %12 = getelementptr inbounds %class.Unionfind, %class.Unionfind* %11, i32 0, i32 0
  %13 = load i32, i32* %12, align 8
  %14 = sext i32 %13 to i64
  call void @_ZNSaINSt7__debug6vectorIiSaIiEEEEC2Ev(%"class.std::allocator.10"* %6) #3
  invoke void @_ZNSt7__debug6vectorINS0_IiSaIiEEESaIS2_EEC2EmRKS3_(%"class.std::__debug::vector.3"* %5, i64 %14, %"class.std::allocator.10"* dereferenceable(1) %6)
          to label %15 unwind label %85

; <label>:15:                                     ; preds = %2
  %16 = load i32, i32* @x.52
  %17 = load i32, i32* @y.53
  %18 = sub i32 %16, 1
  %19 = mul i32 %16, %18
  %20 = urem i32 %19, 2
  %21 = icmp eq i32 %20, 0
  %22 = icmp slt i32 %17, 10
  %23 = or i1 %21, %22
  br i1 %23, label %24, label %236

; <label>:24:                                     ; preds = %15, %236
  call void @_ZNSaINSt7__debug6vectorIiSaIiEEEED2Ev(%"class.std::allocator.10"* %6) #3
  store i32 0, i32* %9, align 4
  %25 = load i32, i32* @x.52
  %26 = load i32, i32* @y.53
  %27 = sub i32 %25, 1
  %28 = mul i32 %25, %27
  %29 = urem i32 %28, 2
  %30 = icmp eq i32 %29, 0
  %31 = icmp slt i32 %26, 10
  %32 = or i1 %30, %31
  br i1 %32, label %33, label %236

; <label>:33:                                     ; preds = %24
  br label %34

; <label>:34:                                     ; preds = %82, %33
  %35 = load i32, i32* @x.52
  %36 = load i32, i32* @y.53
  %37 = sub i32 %35, 1
  %38 = mul i32 %35, %37
  %39 = urem i32 %38, 2
  %40 = icmp eq i32 %39, 0
  %41 = icmp slt i32 %36, 10
  %42 = or i1 %40, %41
  br i1 %42, label %43, label %237

; <label>:43:                                     ; preds = %34, %237
  %44 = load i32, i32* %9, align 4
  %45 = getelementptr inbounds %class.Unionfind, %class.Unionfind* %11, i32 0, i32 0
  %46 = load i32, i32* %45, align 8
  %47 = icmp slt i32 %44, %46
  %48 = load i32, i32* @x.52
  %49 = load i32, i32* @y.53
  %50 = sub i32 %48, 1
  %51 = mul i32 %48, %50
  %52 = urem i32 %51, 2
  %53 = icmp eq i32 %52, 0
  %54 = icmp slt i32 %49, 10
  %55 = or i1 %53, %54
  br i1 %55, label %56, label %237

; <label>:56:                                     ; preds = %43
  br i1 %47, label %57, label %93

; <label>:57:                                     ; preds = %56
  %58 = load i32, i32* @x.52
  %59 = load i32, i32* @y.53
  %60 = sub i32 %58, 1
  %61 = mul i32 %58, %60
  %62 = urem i32 %61, 2
  %63 = icmp eq i32 %62, 0
  %64 = icmp slt i32 %59, 10
  %65 = or i1 %63, %64
  br i1 %65, label %66, label %242

; <label>:66:                                     ; preds = %57, %242
  %67 = load i32, i32* %9, align 4
  %68 = load i32, i32* @x.52
  %69 = load i32, i32* @y.53
  %70 = sub i32 %68, 1
  %71 = mul i32 %68, %70
  %72 = urem i32 %71, 2
  %73 = icmp eq i32 %72, 0
  %74 = icmp slt i32 %69, 10
  %75 = or i1 %73, %74
  br i1 %75, label %76, label %242

; <label>:76:                                     ; preds = %66
  %77 = invoke i32 @_ZN9Unionfind4rootEi(%class.Unionfind* %11, i32 %67)
          to label %78 unwind label %89

; <label>:78:                                     ; preds = %76
  %79 = sext i32 %77 to i64
  %80 = call dereferenceable(56) %"class.std::__debug::vector"* @_ZNSt7__debug6vectorINS0_IiSaIiEEESaIS2_EEixEm(%"class.std::__debug::vector.3"* %5, i64 %79) #3
  invoke void @_ZNSt7__debug6vectorIiSaIiEE9push_backERKi(%"class.std::__debug::vector"* %80, i32* dereferenceable(4) %9)
          to label %81 unwind label %89

; <label>:81:                                     ; preds = %78
  br label %82

; <label>:82:                                     ; preds = %81
  %83 = load i32, i32* %9, align 4
  %84 = add nsw i32 %83, 1
  store i32 %84, i32* %9, align 4
  br label %34

; <label>:85:                                     ; preds = %2
  %86 = landingpad { i8*, i32 }
          cleanup
  %87 = extractvalue { i8*, i32 } %86, 0
  store i8* %87, i8** %7, align 8
  %88 = extractvalue { i8*, i32 } %86, 1
  store i32 %88, i32* %8, align 4
  call void @_ZNSaINSt7__debug6vectorIiSaIiEEEED2Ev(%"class.std::allocator.10"* %6) #3
  br label %230

; <label>:89:                                     ; preds = %127, %78, %76
  %90 = landingpad { i8*, i32 }
          cleanup
  %91 = extractvalue { i8*, i32 } %90, 0
  store i8* %91, i8** %7, align 8
  %92 = extractvalue { i8*, i32 } %90, 1
  store i32 %92, i32* %8, align 4
  call void @_ZNSt7__debug6vectorINS0_IiSaIiEEESaIS2_EED2Ev(%"class.std::__debug::vector.3"* %5) #3
  br label %230

; <label>:93:                                     ; preds = %56
  %94 = load i32, i32* @x.52
  %95 = load i32, i32* @y.53
  %96 = sub i32 %94, 1
  %97 = mul i32 %94, %96
  %98 = urem i32 %97, 2
  %99 = icmp eq i32 %98, 0
  %100 = icmp slt i32 %95, 10
  %101 = or i1 %99, %100
  br i1 %101, label %102, label %244

; <label>:102:                                    ; preds = %93, %244
  store i32 0, i32* %10, align 4
  %103 = load i32, i32* @x.52
  %104 = load i32, i32* @y.53
  %105 = sub i32 %103, 1
  %106 = mul i32 %103, %105
  %107 = urem i32 %106, 2
  %108 = icmp eq i32 %107, 0
  %109 = icmp slt i32 %104, 10
  %110 = or i1 %108, %109
  br i1 %110, label %111, label %244

; <label>:111:                                    ; preds = %102
  br label %112

; <label>:112:                                    ; preds = %189, %111
  %113 = load i32, i32* %10, align 4
  %114 = sext i32 %113 to i64
  %115 = getelementptr inbounds %class.Unionfind, %class.Unionfind* %11, i32 0, i32 0
  %116 = load i32, i32* %115, align 8
  %117 = sext i32 %116 to i64
  %118 = icmp slt i64 %114, %117
  br i1 %118, label %119, label %190

; <label>:119:                                    ; preds = %112
  %120 = load i32, i32* %10, align 4
  %121 = sext i32 %120 to i64
  %122 = call dereferenceable(56) %"class.std::__debug::vector"* @_ZNSt7__debug6vectorINS0_IiSaIiEEESaIS2_EEixEm(%"class.std::__debug::vector.3"* %5, i64 %121) #3
  %123 = bitcast %"class.std::__debug::vector"* %122 to i8*
  %124 = getelementptr inbounds i8, i8* %123, i64 24
  %125 = bitcast i8* %124 to %"class.std::__cxx1998::vector"*
  %126 = call zeroext i1 @_ZNKSt9__cxx19986vectorIiSaIiEE5emptyEv(%"class.std::__cxx1998::vector"* %125) #3
  br i1 %126, label %150, label %127

; <label>:127:                                    ; preds = %119
  %128 = load i32, i32* %10, align 4
  %129 = sext i32 %128 to i64
  %130 = call dereferenceable(56) %"class.std::__debug::vector"* @_ZNSt7__debug6vectorINS0_IiSaIiEEESaIS2_EEixEm(%"class.std::__debug::vector.3"* %5, i64 %129) #3
  invoke void @_ZNSt7__debug6vectorINS0_IiSaIiEEESaIS2_EE9push_backERKS2_(%"class.std::__debug::vector.3"* %0, %"class.std::__debug::vector"* dereferenceable(56) %130)
          to label %131 unwind label %89

; <label>:131:                                    ; preds = %127
  %132 = load i32, i32* @x.52
  %133 = load i32, i32* @y.53
  %134 = sub i32 %132, 1
  %135 = mul i32 %132, %134
  %136 = urem i32 %135, 2
  %137 = icmp eq i32 %136, 0
  %138 = icmp slt i32 %133, 10
  %139 = or i1 %137, %138
  br i1 %139, label %140, label %245

; <label>:140:                                    ; preds = %131, %245
  %141 = load i32, i32* @x.52
  %142 = load i32, i32* @y.53
  %143 = sub i32 %141, 1
  %144 = mul i32 %141, %143
  %145 = urem i32 %144, 2
  %146 = icmp eq i32 %145, 0
  %147 = icmp slt i32 %142, 10
  %148 = or i1 %146, %147
  br i1 %148, label %149, label %245

; <label>:149:                                    ; preds = %140
  br label %150

; <label>:150:                                    ; preds = %149, %119
  %151 = load i32, i32* @x.52
  %152 = load i32, i32* @y.53
  %153 = sub i32 %151, 1
  %154 = mul i32 %151, %153
  %155 = urem i32 %154, 2
  %156 = icmp eq i32 %155, 0
  %157 = icmp slt i32 %152, 10
  %158 = or i1 %156, %157
  br i1 %158, label %159, label %246

; <label>:159:                                    ; preds = %150, %246
  %160 = load i32, i32* @x.52
  %161 = load i32, i32* @y.53
  %162 = sub i32 %160, 1
  %163 = mul i32 %160, %162
  %164 = urem i32 %163, 2
  %165 = icmp eq i32 %164, 0
  %166 = icmp slt i32 %161, 10
  %167 = or i1 %165, %166
  br i1 %167, label %168, label %246

; <label>:168:                                    ; preds = %159
  br label %169

; <label>:169:                                    ; preds = %168
  %170 = load i32, i32* @x.52
  %171 = load i32, i32* @y.53
  %172 = sub i32 %170, 1
  %173 = mul i32 %170, %172
  %174 = urem i32 %173, 2
  %175 = icmp eq i32 %174, 0
  %176 = icmp slt i32 %171, 10
  %177 = or i1 %175, %176
  br i1 %177, label %178, label %247

; <label>:178:                                    ; preds = %169, %247
  %179 = load i32, i32* %10, align 4
  %180 = add nsw i32 %179, 1
  store i32 %180, i32* %10, align 4
  %181 = load i32, i32* @x.52
  %182 = load i32, i32* @y.53
  %183 = sub i32 %181, 1
  %184 = mul i32 %181, %183
  %185 = urem i32 %184, 2
  %186 = icmp eq i32 %185, 0
  %187 = icmp slt i32 %182, 10
  %188 = or i1 %186, %187
  br i1 %188, label %189, label %247

; <label>:189:                                    ; preds = %178
  br label %112

; <label>:190:                                    ; preds = %112
  %191 = load i32, i32* @x.52
  %192 = load i32, i32* @y.53
  %193 = sub i32 %191, 1
  %194 = mul i32 %191, %193
  %195 = urem i32 %194, 2
  %196 = icmp eq i32 %195, 0
  %197 = icmp slt i32 %192, 10
  %198 = or i1 %196, %197
  br i1 %198, label %199, label %256

; <label>:199:                                    ; preds = %190, %256
  store i1 true, i1* %4, align 1
  call void @_ZNSt7__debug6vectorINS0_IiSaIiEEESaIS2_EED2Ev(%"class.std::__debug::vector.3"* %5) #3
  %200 = load i1, i1* %4, align 1
  %201 = load i32, i32* @x.52
  %202 = load i32, i32* @y.53
  %203 = sub i32 %201, 1
  %204 = mul i32 %201, %203
  %205 = urem i32 %204, 2
  %206 = icmp eq i32 %205, 0
  %207 = icmp slt i32 %202, 10
  %208 = or i1 %206, %207
  br i1 %208, label %209, label %256

; <label>:209:                                    ; preds = %199
  br i1 %200, label %211, label %210

; <label>:210:                                    ; preds = %209
  call void @_ZNSt7__debug6vectorINS0_IiSaIiEEESaIS2_EED2Ev(%"class.std::__debug::vector.3"* %0) #3
  br label %211

; <label>:211:                                    ; preds = %210, %209
  %212 = load i32, i32* @x.52
  %213 = load i32, i32* @y.53
  %214 = sub i32 %212, 1
  %215 = mul i32 %212, %214
  %216 = urem i32 %215, 2
  %217 = icmp eq i32 %216, 0
  %218 = icmp slt i32 %213, 10
  %219 = or i1 %217, %218
  br i1 %219, label %220, label %258

; <label>:220:                                    ; preds = %211, %258
  %221 = load i32, i32* @x.52
  %222 = load i32, i32* @y.53
  %223 = sub i32 %221, 1
  %224 = mul i32 %221, %223
  %225 = urem i32 %224, 2
  %226 = icmp eq i32 %225, 0
  %227 = icmp slt i32 %222, 10
  %228 = or i1 %226, %227
  br i1 %228, label %229, label %258

; <label>:229:                                    ; preds = %220
  ret void

; <label>:230:                                    ; preds = %89, %85
  call void @_ZNSt7__debug6vectorINS0_IiSaIiEEESaIS2_EED2Ev(%"class.std::__debug::vector.3"* %0) #3
  br label %231

; <label>:231:                                    ; preds = %230
  %232 = load i8*, i8** %7, align 8
  %233 = load i32, i32* %8, align 4
  %234 = insertvalue { i8*, i32 } undef, i8* %232, 0
  %235 = insertvalue { i8*, i32 } %234, i32 %233, 1
  resume { i8*, i32 } %235

; <label>:236:                                    ; preds = %24, %15
  call void @_ZNSaINSt7__debug6vectorIiSaIiEEEED2Ev(%"class.std::allocator.10"* %6) #3
  store i32 0, i32* %9, align 4
  br label %24

; <label>:237:                                    ; preds = %43, %34
  %238 = load i32, i32* %9, align 4
  %239 = getelementptr inbounds %class.Unionfind, %class.Unionfind* %11, i32 0, i32 0
  %240 = load i32, i32* %239, align 8
  %241 = icmp slt i32 %238, %240
  br label %43

; <label>:242:                                    ; preds = %66, %57
  %243 = load i32, i32* %9, align 4
  br label %66

; <label>:244:                                    ; preds = %102, %93
  store i32 0, i32* %10, align 4
  br label %102

; <label>:245:                                    ; preds = %140, %131
  br label %140

; <label>:246:                                    ; preds = %159, %150
  br label %159

; <label>:247:                                    ; preds = %178, %169
  %248 = load i32, i32* %10, align 4
  %249 = sub i32 %248, 1
  %250 = mul i32 %249, 1
  %251 = sub i32 0, %248
  %252 = add i32 %251, 1
  %253 = sub i32 0, %248
  %254 = add i32 %253, 1
  %255 = add nsw i32 %248, 1
  store i32 %255, i32* %10, align 4
  br label %178

; <label>:256:                                    ; preds = %199, %190
  store i1 true, i1* %4, align 1
  call void @_ZNSt7__debug6vectorINS0_IiSaIiEEESaIS2_EED2Ev(%"class.std::__debug::vector.3"* %5) #3
  %257 = load i1, i1* %4, align 1
  br label %199

; <label>:258:                                    ; preds = %220, %211
  br label %220
}

; Function Attrs: noinline nounwind uwtable
define linkonce_odr void @_ZNSt7__debug6vectorINS0_IiSaIiEEESaIS2_EE5beginEv(%"class.__gnu_debug::_Safe_iterator"* noalias sret, %"class.std::__debug::vector.3"*) #4 comdat align 2 {
  %3 = alloca %"class.std::__debug::vector.3"*, align 8
  %4 = alloca %"class.__gnu_cxx::__normal_iterator", align 8
  store %"class.std::__debug::vector.3"* %1, %"class.std::__debug::vector.3"** %3, align 8
  %5 = load %"class.std::__debug::vector.3"*, %"class.std::__debug::vector.3"** %3, align 8
  %6 = bitcast %"class.std::__debug::vector.3"* %5 to i8*
  %7 = getelementptr inbounds i8, i8* %6, i64 24
  %8 = bitcast i8* %7 to %"class.std::__cxx1998::vector.8"*
  %9 = call %"class.std::__debug::vector"* @_ZNSt9__cxx19986vectorINSt7__debug6vectorIiSaIiEEESaIS4_EE5beginEv(%"class.std::__cxx1998::vector.8"* %8) #3
  %10 = getelementptr inbounds %"class.__gnu_cxx::__normal_iterator", %"class.__gnu_cxx::__normal_iterator"* %4, i32 0, i32 0
  store %"class.std::__debug::vector"* %9, %"class.std::__debug::vector"** %10, align 8
  %11 = bitcast %"class.std::__debug::vector.3"* %5 to %"class.__gnu_debug::_Safe_sequence_base"*
  call void @_ZN11__gnu_debug14_Safe_iteratorIN9__gnu_cxx17__normal_iteratorIPNSt7__debug6vectorIiSaIiEEENSt9__cxx19986vectorIS6_SaIS6_EEEEENS4_IS6_SA_EEEC2ERKSC_PKNS_19_Safe_sequence_baseE(%"class.__gnu_debug::_Safe_iterator"* %0, %"class.__gnu_cxx::__normal_iterator"* dereferenceable(8) %4, %"class.__gnu_debug::_Safe_sequence_base"* %11) #3
  ret void
}

; Function Attrs: noinline nounwind uwtable
define linkonce_odr void @_ZNSt7__debug6vectorINS0_IiSaIiEEESaIS2_EE3endEv(%"class.__gnu_debug::_Safe_iterator"* noalias sret, %"class.std::__debug::vector.3"*) #4 comdat align 2 {
  %3 = load i32, i32* @x.56
  %4 = load i32, i32* @y.57
  %5 = sub i32 %3, 1
  %6 = mul i32 %3, %5
  %7 = urem i32 %6, 2
  %8 = icmp eq i32 %7, 0
  %9 = icmp slt i32 %4, 10
  %10 = or i1 %8, %9
  br i1 %10, label %11, label %30

; <label>:11:                                     ; preds = %2, %30
  %12 = alloca %"class.std::__debug::vector.3"*, align 8
  %13 = alloca %"class.__gnu_cxx::__normal_iterator", align 8
  store %"class.std::__debug::vector.3"* %1, %"class.std::__debug::vector.3"** %12, align 8
  %14 = load %"class.std::__debug::vector.3"*, %"class.std::__debug::vector.3"** %12, align 8
  %15 = bitcast %"class.std::__debug::vector.3"* %14 to i8*
  %16 = getelementptr inbounds i8, i8* %15, i64 24
  %17 = bitcast i8* %16 to %"class.std::__cxx1998::vector.8"*
  %18 = call %"class.std::__debug::vector"* @_ZNSt9__cxx19986vectorINSt7__debug6vectorIiSaIiEEESaIS4_EE3endEv(%"class.std::__cxx1998::vector.8"* %17) #3
  %19 = getelementptr inbounds %"class.__gnu_cxx::__normal_iterator", %"class.__gnu_cxx::__normal_iterator"* %13, i32 0, i32 0
  store %"class.std::__debug::vector"* %18, %"class.std::__debug::vector"** %19, align 8
  %20 = bitcast %"class.std::__debug::vector.3"* %14 to %"class.__gnu_debug::_Safe_sequence_base"*
  call void @_ZN11__gnu_debug14_Safe_iteratorIN9__gnu_cxx17__normal_iteratorIPNSt7__debug6vectorIiSaIiEEENSt9__cxx19986vectorIS6_SaIS6_EEEEENS4_IS6_SA_EEEC2ERKSC_PKNS_19_Safe_sequence_baseE(%"class.__gnu_debug::_Safe_iterator"* %0, %"class.__gnu_cxx::__normal_iterator"* dereferenceable(8) %13, %"class.__gnu_debug::_Safe_sequence_base"* %20) #3
  %21 = load i32, i32* @x.56
  %22 = load i32, i32* @y.57
  %23 = sub i32 %21, 1
  %24 = mul i32 %21, %23
  %25 = urem i32 %24, 2
  %26 = icmp eq i32 %25, 0
  %27 = icmp slt i32 %22, 10
  %28 = or i1 %26, %27
  br i1 %28, label %29, label %30

; <label>:29:                                     ; preds = %11
  ret void

; <label>:30:                                     ; preds = %11, %2
  %31 = alloca %"class.std::__debug::vector.3"*, align 8
  %32 = alloca %"class.__gnu_cxx::__normal_iterator", align 8
  store %"class.std::__debug::vector.3"* %1, %"class.std::__debug::vector.3"** %31, align 8
  %33 = load %"class.std::__debug::vector.3"*, %"class.std::__debug::vector.3"** %31, align 8
  %34 = bitcast %"class.std::__debug::vector.3"* %33 to i8*
  %35 = getelementptr inbounds i8, i8* %34, i64 24
  %36 = bitcast i8* %35 to %"class.std::__cxx1998::vector.8"*
  %37 = call %"class.std::__debug::vector"* @_ZNSt9__cxx19986vectorINSt7__debug6vectorIiSaIiEEESaIS4_EE3endEv(%"class.std::__cxx1998::vector.8"* %36) #3
  %38 = getelementptr inbounds %"class.__gnu_cxx::__normal_iterator", %"class.__gnu_cxx::__normal_iterator"* %32, i32 0, i32 0
  store %"class.std::__debug::vector"* %37, %"class.std::__debug::vector"** %38, align 8
  %39 = bitcast %"class.std::__debug::vector.3"* %33 to %"class.__gnu_debug::_Safe_sequence_base"*
  call void @_ZN11__gnu_debug14_Safe_iteratorIN9__gnu_cxx17__normal_iteratorIPNSt7__debug6vectorIiSaIiEEENSt9__cxx19986vectorIS6_SaIS6_EEEEENS4_IS6_SA_EEEC2ERKSC_PKNS_19_Safe_sequence_baseE(%"class.__gnu_debug::_Safe_iterator"* %0, %"class.__gnu_cxx::__normal_iterator"* dereferenceable(8) %32, %"class.__gnu_debug::_Safe_sequence_base"* %39) #3
  br label %11
}

; Function Attrs: noinline nounwind uwtable
define linkonce_odr zeroext i1 @_ZN11__gnu_debugneIN9__gnu_cxx17__normal_iteratorIPNSt7__debug6vectorIiSaIiEEENSt9__cxx19986vectorIS6_SaIS6_EEEEENS4_IS6_SA_EEEEbRKNS_14_Safe_iteratorIT_T0_EESJ_(%"class.__gnu_debug::_Safe_iterator"* dereferenceable(40), %"class.__gnu_debug::_Safe_iterator"* dereferenceable(40)) #4 comdat personality i8* bitcast (i32 (...)* @__gxx_personality_v0 to i8*) {
  %3 = alloca %"class.__gnu_debug::_Safe_iterator"*, align 8
  %4 = alloca %"class.__gnu_debug::_Safe_iterator"*, align 8
  %5 = alloca %"class.__gnu_debug::_Error_formatter", align 8
  %6 = alloca %"class.__gnu_debug::_Error_formatter", align 8
  store %"class.__gnu_debug::_Safe_iterator"* %0, %"class.__gnu_debug::_Safe_iterator"** %3, align 8
  store %"class.__gnu_debug::_Safe_iterator"* %1, %"class.__gnu_debug::_Safe_iterator"** %4, align 8
  br label %7

; <label>:7:                                      ; preds = %2
  %8 = load %"class.__gnu_debug::_Safe_iterator"*, %"class.__gnu_debug::_Safe_iterator"** %3, align 8
  %9 = bitcast %"class.__gnu_debug::_Safe_iterator"* %8 to i8*
  %10 = getelementptr inbounds i8, i8* %9, i64 8
  %11 = bitcast i8* %10 to %"class.__gnu_debug::_Safe_iterator_base"*
  %12 = call zeroext i1 @_ZNK11__gnu_debug19_Safe_iterator_base11_M_singularEv(%"class.__gnu_debug::_Safe_iterator_base"* %11) #14
  br i1 %12, label %19, label %13

; <label>:13:                                     ; preds = %7
  %14 = load %"class.__gnu_debug::_Safe_iterator"*, %"class.__gnu_debug::_Safe_iterator"** %4, align 8
  %15 = bitcast %"class.__gnu_debug::_Safe_iterator"* %14 to i8*
  %16 = getelementptr inbounds i8, i8* %15, i64 8
  %17 = bitcast i8* %16 to %"class.__gnu_debug::_Safe_iterator_base"*
  %18 = call zeroext i1 @_ZNK11__gnu_debug19_Safe_iterator_base11_M_singularEv(%"class.__gnu_debug::_Safe_iterator_base"* %17) #14
  br i1 %18, label %19, label %47

; <label>:19:                                     ; preds = %13, %7
  %20 = load i32, i32* @x.58
  %21 = load i32, i32* @y.59
  %22 = sub i32 %20, 1
  %23 = mul i32 %20, %22
  %24 = urem i32 %23, 2
  %25 = icmp eq i32 %24, 0
  %26 = icmp slt i32 %21, 10
  %27 = or i1 %25, %26
  br i1 %27, label %28, label %171

; <label>:28:                                     ; preds = %19, %171
  %29 = load i32, i32* @x.58
  %30 = load i32, i32* @y.59
  %31 = sub i32 %29, 1
  %32 = mul i32 %29, %31
  %33 = urem i32 %32, 2
  %34 = icmp eq i32 %33, 0
  %35 = icmp slt i32 %30, 10
  %36 = or i1 %34, %35
  br i1 %36, label %37, label %171

; <label>:37:                                     ; preds = %28
  invoke void @_ZN11__gnu_debug16_Error_formatter5_M_atEPKcm(%"class.__gnu_debug::_Error_formatter"* sret %5, i8* getelementptr inbounds ([88 x i8], [88 x i8]* @.str.14, i32 0, i32 0), i64 584)
          to label %38 unwind label %150

; <label>:38:                                     ; preds = %37
  %39 = call dereferenceable(560) %"class.__gnu_debug::_Error_formatter"* @_ZNK11__gnu_debug16_Error_formatter10_M_messageENS_13_Debug_msg_idE(%"class.__gnu_debug::_Error_formatter"* %5, i32 31) #3
  %40 = load %"class.__gnu_debug::_Safe_iterator"*, %"class.__gnu_debug::_Safe_iterator"** %3, align 8
  %41 = invoke dereferenceable(560) %"class.__gnu_debug::_Error_formatter"* @_ZNK11__gnu_debug16_Error_formatter11_M_iteratorINS_14_Safe_iteratorIN9__gnu_cxx17__normal_iteratorIPNSt7__debug6vectorIiSaIiEEENSt9__cxx19986vectorIS8_SaIS8_EEEEENS6_IS8_SC_EEEEEERKS0_RKT_PKc(%"class.__gnu_debug::_Error_formatter"* %39, %"class.__gnu_debug::_Safe_iterator"* dereferenceable(40) %40, i8* getelementptr inbounds ([4 x i8], [4 x i8]* @.str.15, i32 0, i32 0))
          to label %42 unwind label %150

; <label>:42:                                     ; preds = %38
  %43 = load %"class.__gnu_debug::_Safe_iterator"*, %"class.__gnu_debug::_Safe_iterator"** %4, align 8
  %44 = invoke dereferenceable(560) %"class.__gnu_debug::_Error_formatter"* @_ZNK11__gnu_debug16_Error_formatter11_M_iteratorINS_14_Safe_iteratorIN9__gnu_cxx17__normal_iteratorIPNSt7__debug6vectorIiSaIiEEENSt9__cxx19986vectorIS8_SaIS8_EEEEENS6_IS8_SC_EEEEEERKS0_RKT_PKc(%"class.__gnu_debug::_Error_formatter"* %41, %"class.__gnu_debug::_Safe_iterator"* dereferenceable(40) %43, i8* getelementptr inbounds ([4 x i8], [4 x i8]* @.str.16, i32 0, i32 0))
          to label %45 unwind label %150

; <label>:45:                                     ; preds = %42
  invoke void @_ZNK11__gnu_debug16_Error_formatter8_M_errorEv(%"class.__gnu_debug::_Error_formatter"* %44) #13
          to label %46 unwind label %150

; <label>:46:                                     ; preds = %45
  unreachable

; <label>:47:                                     ; preds = %13
  br label %48

; <label>:48:                                     ; preds = %47
  %49 = load i32, i32* @x.58
  %50 = load i32, i32* @y.59
  %51 = sub i32 %49, 1
  %52 = mul i32 %49, %51
  %53 = urem i32 %52, 2
  %54 = icmp eq i32 %53, 0
  %55 = icmp slt i32 %50, 10
  %56 = or i1 %54, %55
  br i1 %56, label %57, label %172

; <label>:57:                                     ; preds = %48, %172
  %58 = load i32, i32* @x.58
  %59 = load i32, i32* @y.59
  %60 = sub i32 %58, 1
  %61 = mul i32 %58, %60
  %62 = urem i32 %61, 2
  %63 = icmp eq i32 %62, 0
  %64 = icmp slt i32 %59, 10
  %65 = or i1 %63, %64
  br i1 %65, label %66, label %172

; <label>:66:                                     ; preds = %57
  br label %67

; <label>:67:                                     ; preds = %66
  br label %68

; <label>:68:                                     ; preds = %67
  %69 = load i32, i32* @x.58
  %70 = load i32, i32* @y.59
  %71 = sub i32 %69, 1
  %72 = mul i32 %69, %71
  %73 = urem i32 %72, 2
  %74 = icmp eq i32 %73, 0
  %75 = icmp slt i32 %70, 10
  %76 = or i1 %74, %75
  br i1 %76, label %77, label %173

; <label>:77:                                     ; preds = %68, %173
  %78 = load %"class.__gnu_debug::_Safe_iterator"*, %"class.__gnu_debug::_Safe_iterator"** %3, align 8
  %79 = bitcast %"class.__gnu_debug::_Safe_iterator"* %78 to i8*
  %80 = getelementptr inbounds i8, i8* %79, i64 8
  %81 = bitcast i8* %80 to %"class.__gnu_debug::_Safe_iterator_base"*
  %82 = load %"class.__gnu_debug::_Safe_iterator"*, %"class.__gnu_debug::_Safe_iterator"** %4, align 8
  %83 = bitcast %"class.__gnu_debug::_Safe_iterator"* %82 to i8*
  %84 = getelementptr inbounds i8, i8* %83, i64 8
  %85 = bitcast i8* %84 to %"class.__gnu_debug::_Safe_iterator_base"*
  %86 = call zeroext i1 @_ZNK11__gnu_debug19_Safe_iterator_base14_M_can_compareERKS0_(%"class.__gnu_debug::_Safe_iterator_base"* %81, %"class.__gnu_debug::_Safe_iterator_base"* dereferenceable(32) %85) #14
  %87 = load i32, i32* @x.58
  %88 = load i32, i32* @y.59
  %89 = sub i32 %87, 1
  %90 = mul i32 %87, %89
  %91 = urem i32 %90, 2
  %92 = icmp eq i32 %91, 0
  %93 = icmp slt i32 %88, 10
  %94 = or i1 %92, %93
  br i1 %94, label %95, label %173

; <label>:95:                                     ; preds = %77
  br i1 %86, label %142, label %96

; <label>:96:                                     ; preds = %95
  invoke void @_ZN11__gnu_debug16_Error_formatter5_M_atEPKcm(%"class.__gnu_debug::_Error_formatter"* sret %6, i8* getelementptr inbounds ([88 x i8], [88 x i8]* @.str.14, i32 0, i32 0), i64 588)
          to label %97 unwind label %150

; <label>:97:                                     ; preds = %96
  %98 = call dereferenceable(560) %"class.__gnu_debug::_Error_formatter"* @_ZNK11__gnu_debug16_Error_formatter10_M_messageENS_13_Debug_msg_idE(%"class.__gnu_debug::_Error_formatter"* %6, i32 32) #3
  %99 = load %"class.__gnu_debug::_Safe_iterator"*, %"class.__gnu_debug::_Safe_iterator"** %3, align 8
  %100 = invoke dereferenceable(560) %"class.__gnu_debug::_Error_formatter"* @_ZNK11__gnu_debug16_Error_formatter11_M_iteratorINS_14_Safe_iteratorIN9__gnu_cxx17__normal_iteratorIPNSt7__debug6vectorIiSaIiEEENSt9__cxx19986vectorIS8_SaIS8_EEEEENS6_IS8_SC_EEEEEERKS0_RKT_PKc(%"class.__gnu_debug::_Error_formatter"* %98, %"class.__gnu_debug::_Safe_iterator"* dereferenceable(40) %99, i8* getelementptr inbounds ([4 x i8], [4 x i8]* @.str.15, i32 0, i32 0))
          to label %101 unwind label %150

; <label>:101:                                    ; preds = %97
  %102 = load i32, i32* @x.58
  %103 = load i32, i32* @y.59
  %104 = sub i32 %102, 1
  %105 = mul i32 %102, %104
  %106 = urem i32 %105, 2
  %107 = icmp eq i32 %106, 0
  %108 = icmp slt i32 %103, 10
  %109 = or i1 %107, %108
  br i1 %109, label %110, label %183

; <label>:110:                                    ; preds = %101, %183
  %111 = load %"class.__gnu_debug::_Safe_iterator"*, %"class.__gnu_debug::_Safe_iterator"** %4, align 8
  %112 = load i32, i32* @x.58
  %113 = load i32, i32* @y.59
  %114 = sub i32 %112, 1
  %115 = mul i32 %112, %114
  %116 = urem i32 %115, 2
  %117 = icmp eq i32 %116, 0
  %118 = icmp slt i32 %113, 10
  %119 = or i1 %117, %118
  br i1 %119, label %120, label %183

; <label>:120:                                    ; preds = %110
  %121 = invoke dereferenceable(560) %"class.__gnu_debug::_Error_formatter"* @_ZNK11__gnu_debug16_Error_formatter11_M_iteratorINS_14_Safe_iteratorIN9__gnu_cxx17__normal_iteratorIPNSt7__debug6vectorIiSaIiEEENSt9__cxx19986vectorIS8_SaIS8_EEEEENS6_IS8_SC_EEEEEERKS0_RKT_PKc(%"class.__gnu_debug::_Error_formatter"* %100, %"class.__gnu_debug::_Safe_iterator"* dereferenceable(40) %111, i8* getelementptr inbounds ([4 x i8], [4 x i8]* @.str.16, i32 0, i32 0))
          to label %122 unwind label %150

; <label>:122:                                    ; preds = %120
  invoke void @_ZNK11__gnu_debug16_Error_formatter8_M_errorEv(%"class.__gnu_debug::_Error_formatter"* %121) #13
          to label %123 unwind label %150

; <label>:123:                                    ; preds = %122
  %124 = load i32, i32* @x.58
  %125 = load i32, i32* @y.59
  %126 = sub i32 %124, 1
  %127 = mul i32 %124, %126
  %128 = urem i32 %127, 2
  %129 = icmp eq i32 %128, 0
  %130 = icmp slt i32 %125, 10
  %131 = or i1 %129, %130
  br i1 %131, label %132, label %185

; <label>:132:                                    ; preds = %123, %185
  %133 = load i32, i32* @x.58
  %134 = load i32, i32* @y.59
  %135 = sub i32 %133, 1
  %136 = mul i32 %133, %135
  %137 = urem i32 %136, 2
  %138 = icmp eq i32 %137, 0
  %139 = icmp slt i32 %134, 10
  %140 = or i1 %138, %139
  br i1 %140, label %141, label %185

; <label>:141:                                    ; preds = %132
  unreachable

; <label>:142:                                    ; preds = %95
  br label %143

; <label>:143:                                    ; preds = %142
  br label %144

; <label>:144:                                    ; preds = %143
  %145 = load %"class.__gnu_debug::_Safe_iterator"*, %"class.__gnu_debug::_Safe_iterator"** %3, align 8
  %146 = call dereferenceable(8) %"class.__gnu_cxx::__normal_iterator"* @_ZNK11__gnu_debug14_Safe_iteratorIN9__gnu_cxx17__normal_iteratorIPNSt7__debug6vectorIiSaIiEEENSt9__cxx19986vectorIS6_SaIS6_EEEEENS4_IS6_SA_EEE4baseEv(%"class.__gnu_debug::_Safe_iterator"* %145) #3
  %147 = load %"class.__gnu_debug::_Safe_iterator"*, %"class.__gnu_debug::_Safe_iterator"** %4, align 8
  %148 = call dereferenceable(8) %"class.__gnu_cxx::__normal_iterator"* @_ZNK11__gnu_debug14_Safe_iteratorIN9__gnu_cxx17__normal_iteratorIPNSt7__debug6vectorIiSaIiEEENSt9__cxx19986vectorIS6_SaIS6_EEEEENS4_IS6_SA_EEE4baseEv(%"class.__gnu_debug::_Safe_iterator"* %147) #3
  %149 = call zeroext i1 @_ZN9__gnu_cxxneIPNSt7__debug6vectorIiSaIiEEENSt9__cxx19986vectorIS4_SaIS4_EEEEEbRKNS_17__normal_iteratorIT_T0_EESF_(%"class.__gnu_cxx::__normal_iterator"* dereferenceable(8) %146, %"class.__gnu_cxx::__normal_iterator"* dereferenceable(8) %148) #3
  ret i1 %149

; <label>:150:                                    ; preds = %122, %120, %97, %96, %45, %42, %38, %37
  %151 = load i32, i32* @x.58
  %152 = load i32, i32* @y.59
  %153 = sub i32 %151, 1
  %154 = mul i32 %151, %153
  %155 = urem i32 %154, 2
  %156 = icmp eq i32 %155, 0
  %157 = icmp slt i32 %152, 10
  %158 = or i1 %156, %157
  br i1 %158, label %159, label %186

; <label>:159:                                    ; preds = %150, %186
  %160 = landingpad { i8*, i32 }
          catch i8* null
  %161 = extractvalue { i8*, i32 } %160, 0
  call void @__clang_call_terminate(i8* %161) #10
  %162 = load i32, i32* @x.58
  %163 = load i32, i32* @y.59
  %164 = sub i32 %162, 1
  %165 = mul i32 %162, %164
  %166 = urem i32 %165, 2
  %167 = icmp eq i32 %166, 0
  %168 = icmp slt i32 %163, 10
  %169 = or i1 %167, %168
  br i1 %169, label %170, label %186

; <label>:170:                                    ; preds = %159
  unreachable

; <label>:171:                                    ; preds = %28, %19
  br label %28

; <label>:172:                                    ; preds = %57, %48
  br label %57

; <label>:173:                                    ; preds = %77, %68
  %174 = load %"class.__gnu_debug::_Safe_iterator"*, %"class.__gnu_debug::_Safe_iterator"** %3, align 8
  %175 = bitcast %"class.__gnu_debug::_Safe_iterator"* %174 to i8*
  %176 = getelementptr inbounds i8, i8* %175, i64 8
  %177 = bitcast i8* %176 to %"class.__gnu_debug::_Safe_iterator_base"*
  %178 = load %"class.__gnu_debug::_Safe_iterator"*, %"class.__gnu_debug::_Safe_iterator"** %4, align 8
  %179 = bitcast %"class.__gnu_debug::_Safe_iterator"* %178 to i8*
  %180 = getelementptr inbounds i8, i8* %179, i64 8
  %181 = bitcast i8* %180 to %"class.__gnu_debug::_Safe_iterator_base"*
  %182 = call zeroext i1 @_ZNK11__gnu_debug19_Safe_iterator_base14_M_can_compareERKS0_(%"class.__gnu_debug::_Safe_iterator_base"* %177, %"class.__gnu_debug::_Safe_iterator_base"* dereferenceable(32) %181) #14
  br label %77

; <label>:183:                                    ; preds = %110, %101
  %184 = load %"class.__gnu_debug::_Safe_iterator"*, %"class.__gnu_debug::_Safe_iterator"** %4, align 8
  br label %110

; <label>:185:                                    ; preds = %132, %123
  br label %132

; <label>:186:                                    ; preds = %159, %150
  %187 = landingpad { i8*, i32 }
          catch i8* null
  %188 = extractvalue { i8*, i32 } %187, 0
  call void @__clang_call_terminate(i8* %188) #10
  br label %159
}

; Function Attrs: noinline nounwind uwtable
define linkonce_odr dereferenceable(56) %"class.std::__debug::vector"* @_ZNK11__gnu_debug14_Safe_iteratorIN9__gnu_cxx17__normal_iteratorIPNSt7__debug6vectorIiSaIiEEENSt9__cxx19986vectorIS6_SaIS6_EEEEENS4_IS6_SA_EEEdeEv(%"class.__gnu_debug::_Safe_iterator"*) #4 comdat align 2 personality i8* bitcast (i32 (...)* @__gxx_personality_v0 to i8*) {
  %2 = alloca %"class.__gnu_debug::_Safe_iterator"*, align 8
  %3 = alloca %"class.__gnu_debug::_Error_formatter", align 8
  store %"class.__gnu_debug::_Safe_iterator"* %0, %"class.__gnu_debug::_Safe_iterator"** %2, align 8
  %4 = load %"class.__gnu_debug::_Safe_iterator"*, %"class.__gnu_debug::_Safe_iterator"** %2, align 8
  br label %5

; <label>:5:                                      ; preds = %1
  %6 = invoke zeroext i1 @_ZNK11__gnu_debug14_Safe_iteratorIN9__gnu_cxx17__normal_iteratorIPNSt7__debug6vectorIiSaIiEEENSt9__cxx19986vectorIS6_SaIS6_EEEEENS4_IS6_SA_EEE18_M_dereferenceableEv(%"class.__gnu_debug::_Safe_iterator"* %4)
          to label %7 unwind label %55

; <label>:7:                                      ; preds = %5
  br i1 %6, label %50, label %8

; <label>:8:                                      ; preds = %7
  %9 = load i32, i32* @x.60
  %10 = load i32, i32* @y.61
  %11 = sub i32 %9, 1
  %12 = mul i32 %9, %11
  %13 = urem i32 %12, 2
  %14 = icmp eq i32 %13, 0
  %15 = icmp slt i32 %10, 10
  %16 = or i1 %14, %15
  br i1 %16, label %17, label %58

; <label>:17:                                     ; preds = %8, %58
  %18 = load i32, i32* @x.60
  %19 = load i32, i32* @y.61
  %20 = sub i32 %18, 1
  %21 = mul i32 %18, %20
  %22 = urem i32 %21, 2
  %23 = icmp eq i32 %22, 0
  %24 = icmp slt i32 %19, 10
  %25 = or i1 %23, %24
  br i1 %25, label %26, label %58

; <label>:26:                                     ; preds = %17
  invoke void @_ZN11__gnu_debug16_Error_formatter5_M_atEPKcm(%"class.__gnu_debug::_Error_formatter"* sret %3, i8* getelementptr inbounds ([88 x i8], [88 x i8]* @.str.14, i32 0, i32 0), i64 303)
          to label %27 unwind label %55

; <label>:27:                                     ; preds = %26
  %28 = call dereferenceable(560) %"class.__gnu_debug::_Error_formatter"* @_ZNK11__gnu_debug16_Error_formatter10_M_messageENS_13_Debug_msg_idE(%"class.__gnu_debug::_Error_formatter"* %3, i32 25) #3
  %29 = invoke dereferenceable(560) %"class.__gnu_debug::_Error_formatter"* @_ZNK11__gnu_debug16_Error_formatter11_M_iteratorINS_14_Safe_iteratorIN9__gnu_cxx17__normal_iteratorIPNSt7__debug6vectorIiSaIiEEENSt9__cxx19986vectorIS8_SaIS8_EEEEENS6_IS8_SC_EEEEEERKS0_RKT_PKc(%"class.__gnu_debug::_Error_formatter"* %28, %"class.__gnu_debug::_Safe_iterator"* dereferenceable(40) %4, i8* getelementptr inbounds ([5 x i8], [5 x i8]* @.str.4, i32 0, i32 0))
          to label %30 unwind label %55

; <label>:30:                                     ; preds = %27
  invoke void @_ZNK11__gnu_debug16_Error_formatter8_M_errorEv(%"class.__gnu_debug::_Error_formatter"* %29) #13
          to label %31 unwind label %55

; <label>:31:                                     ; preds = %30
  %32 = load i32, i32* @x.60
  %33 = load i32, i32* @y.61
  %34 = sub i32 %32, 1
  %35 = mul i32 %32, %34
  %36 = urem i32 %35, 2
  %37 = icmp eq i32 %36, 0
  %38 = icmp slt i32 %33, 10
  %39 = or i1 %37, %38
  br i1 %39, label %40, label %59

; <label>:40:                                     ; preds = %31, %59
  %41 = load i32, i32* @x.60
  %42 = load i32, i32* @y.61
  %43 = sub i32 %41, 1
  %44 = mul i32 %41, %43
  %45 = urem i32 %44, 2
  %46 = icmp eq i32 %45, 0
  %47 = icmp slt i32 %42, 10
  %48 = or i1 %46, %47
  br i1 %48, label %49, label %59

; <label>:49:                                     ; preds = %40
  unreachable

; <label>:50:                                     ; preds = %7
  br label %51

; <label>:51:                                     ; preds = %50
  br label %52

; <label>:52:                                     ; preds = %51
  %53 = call dereferenceable(8) %"class.__gnu_cxx::__normal_iterator"* @_ZNK11__gnu_debug14_Safe_iteratorIN9__gnu_cxx17__normal_iteratorIPNSt7__debug6vectorIiSaIiEEENSt9__cxx19986vectorIS6_SaIS6_EEEEENS4_IS6_SA_EEE4baseEv(%"class.__gnu_debug::_Safe_iterator"* %4) #3
  %54 = call dereferenceable(56) %"class.std::__debug::vector"* @_ZNK9__gnu_cxx17__normal_iteratorIPNSt7__debug6vectorIiSaIiEEENSt9__cxx19986vectorIS4_SaIS4_EEEEdeEv(%"class.__gnu_cxx::__normal_iterator"* %53) #3
  ret %"class.std::__debug::vector"* %54

; <label>:55:                                     ; preds = %30, %27, %26, %5
  %56 = landingpad { i8*, i32 }
          catch i8* null
  %57 = extractvalue { i8*, i32 } %56, 0
  call void @__clang_call_terminate(i8* %57) #10
  unreachable

; <label>:58:                                     ; preds = %17, %8
  br label %17

; <label>:59:                                     ; preds = %40, %31
  br label %40
}

; Function Attrs: noinline uwtable
define linkonce_odr void @_ZNSt7__debug6vectorIiSaIiEEC2ERKS2_(%"class.std::__debug::vector"*, %"class.std::__debug::vector"* dereferenceable(56)) unnamed_addr #0 comdat align 2 personality i8* bitcast (i32 (...)* @__gxx_personality_v0 to i8*) {
  %3 = alloca %"class.std::__debug::vector"*, align 8
  %4 = alloca %"class.std::__debug::vector"*, align 8
  %5 = alloca i8*
  %6 = alloca i32
  store %"class.std::__debug::vector"* %0, %"class.std::__debug::vector"** %3, align 8
  store %"class.std::__debug::vector"* %1, %"class.std::__debug::vector"** %4, align 8
  %7 = load %"class.std::__debug::vector"*, %"class.std::__debug::vector"** %3, align 8
  %8 = bitcast %"class.std::__debug::vector"* %7 to %"class.__gnu_debug::_Safe_container"*
  %9 = load %"class.std::__debug::vector"*, %"class.std::__debug::vector"** %4, align 8
  %10 = bitcast %"class.std::__debug::vector"* %9 to %"class.__gnu_debug::_Safe_container"*
  call void @_ZN11__gnu_debug15_Safe_containerINSt7__debug6vectorIiSaIiEEES3_NS_14_Safe_sequenceELb1EEC2ERKS6_(%"class.__gnu_debug::_Safe_container"* %8, %"class.__gnu_debug::_Safe_container"* dereferenceable(24) %10) #3
  %11 = bitcast %"class.std::__debug::vector"* %7 to i8*
  %12 = getelementptr inbounds i8, i8* %11, i64 24
  %13 = bitcast i8* %12 to %"class.std::__cxx1998::vector"*
  %14 = load %"class.std::__debug::vector"*, %"class.std::__debug::vector"** %4, align 8
  %15 = bitcast %"class.std::__debug::vector"* %14 to i8*
  %16 = getelementptr inbounds i8, i8* %15, i64 24
  %17 = bitcast i8* %16 to %"class.std::__cxx1998::vector"*
  invoke void @_ZNSt9__cxx19986vectorIiSaIiEEC2ERKS2_(%"class.std::__cxx1998::vector"* %13, %"class.std::__cxx1998::vector"* dereferenceable(24) %17)
          to label %18 unwind label %26

; <label>:18:                                     ; preds = %2
  %19 = bitcast %"class.std::__debug::vector"* %7 to i8*
  %20 = getelementptr inbounds i8, i8* %19, i64 48
  %21 = bitcast i8* %20 to %"class.__gnu_debug::_Safe_vector"*
  %22 = load %"class.std::__debug::vector"*, %"class.std::__debug::vector"** %4, align 8
  %23 = bitcast %"class.std::__debug::vector"* %22 to i8*
  %24 = getelementptr inbounds i8, i8* %23, i64 48
  %25 = bitcast i8* %24 to %"class.__gnu_debug::_Safe_vector"*
  call void @_ZN11__gnu_debug12_Safe_vectorINSt7__debug6vectorIiSaIiEEENSt9__cxx19986vectorIiS3_EEEC2ERKS8_(%"class.__gnu_debug::_Safe_vector"* %21, %"class.__gnu_debug::_Safe_vector"* dereferenceable(8) %25) #3
  ret void

; <label>:26:                                     ; preds = %2
  %27 = landingpad { i8*, i32 }
          cleanup
  %28 = extractvalue { i8*, i32 } %27, 0
  store i8* %28, i8** %5, align 8
  %29 = extractvalue { i8*, i32 } %27, 1
  store i32 %29, i32* %6, align 4
  %30 = bitcast %"class.std::__debug::vector"* %7 to %"class.__gnu_debug::_Safe_container"*
  call void @_ZN11__gnu_debug15_Safe_containerINSt7__debug6vectorIiSaIiEEES3_NS_14_Safe_sequenceELb1EED2Ev(%"class.__gnu_debug::_Safe_container"* %30) #3
  br label %31

; <label>:31:                                     ; preds = %26
  %32 = load i8*, i8** %5, align 8
  %33 = load i32, i32* %6, align 4
  %34 = insertvalue { i8*, i32 } undef, i8* %32, 0
  %35 = insertvalue { i8*, i32 } %34, i32 %33, 1
  resume { i8*, i32 } %35
}

; Function Attrs: noinline nounwind uwtable
define linkonce_odr void @_ZNSt7__debug3setIiSt4lessIiESaIiEEC2Ev(%"class.std::__debug::set"*) unnamed_addr #4 comdat align 2 {
  %2 = load i32, i32* @x.64
  %3 = load i32, i32* @y.65
  %4 = sub i32 %2, 1
  %5 = mul i32 %2, %4
  %6 = urem i32 %5, 2
  %7 = icmp eq i32 %6, 0
  %8 = icmp slt i32 %3, 10
  %9 = or i1 %7, %8
  br i1 %9, label %10, label %26

; <label>:10:                                     ; preds = %1, %26
  %11 = alloca %"class.std::__debug::set"*, align 8
  store %"class.std::__debug::set"* %0, %"class.std::__debug::set"** %11, align 8
  %12 = load %"class.std::__debug::set"*, %"class.std::__debug::set"** %11, align 8
  %13 = bitcast %"class.std::__debug::set"* %12 to %"class.__gnu_debug::_Safe_container.14"*
  call void @_ZN11__gnu_debug15_Safe_containerINSt7__debug3setIiSt4lessIiESaIiEEES5_NS_19_Safe_node_sequenceELb1EEC2Ev(%"class.__gnu_debug::_Safe_container.14"* %13) #3
  %14 = bitcast %"class.std::__debug::set"* %12 to i8*
  %15 = getelementptr inbounds i8, i8* %14, i64 24
  %16 = bitcast i8* %15 to %"class.std::__cxx1998::set"*
  call void @_ZNSt9__cxx19983setIiSt4lessIiESaIiEEC2Ev(%"class.std::__cxx1998::set"* %16) #3
  %17 = load i32, i32* @x.64
  %18 = load i32, i32* @y.65
  %19 = sub i32 %17, 1
  %20 = mul i32 %17, %19
  %21 = urem i32 %20, 2
  %22 = icmp eq i32 %21, 0
  %23 = icmp slt i32 %18, 10
  %24 = or i1 %22, %23
  br i1 %24, label %25, label %26

; <label>:25:                                     ; preds = %10
  ret void

; <label>:26:                                     ; preds = %10, %1
  %27 = alloca %"class.std::__debug::set"*, align 8
  store %"class.std::__debug::set"* %0, %"class.std::__debug::set"** %27, align 8
  %28 = load %"class.std::__debug::set"*, %"class.std::__debug::set"** %27, align 8
  %29 = bitcast %"class.std::__debug::set"* %28 to %"class.__gnu_debug::_Safe_container.14"*
  call void @_ZN11__gnu_debug15_Safe_containerINSt7__debug3setIiSt4lessIiESaIiEEES5_NS_19_Safe_node_sequenceELb1EEC2Ev(%"class.__gnu_debug::_Safe_container.14"* %29) #3
  %30 = bitcast %"class.std::__debug::set"* %28 to i8*
  %31 = getelementptr inbounds i8, i8* %30, i64 24
  %32 = bitcast i8* %31 to %"class.std::__cxx1998::set"*
  call void @_ZNSt9__cxx19983setIiSt4lessIiESaIiEEC2Ev(%"class.std::__cxx1998::set"* %32) #3
  br label %10
}

; Function Attrs: noinline nounwind uwtable
define linkonce_odr void @_ZNSt7__debug6vectorIiSaIiEE5beginEv(%"class.__gnu_debug::_Safe_iterator.21"* noalias sret, %"class.std::__debug::vector"*) #4 comdat align 2 {
  %3 = alloca %"class.std::__debug::vector"*, align 8
  %4 = alloca %"class.__gnu_cxx::__normal_iterator.22", align 8
  store %"class.std::__debug::vector"* %1, %"class.std::__debug::vector"** %3, align 8
  %5 = load %"class.std::__debug::vector"*, %"class.std::__debug::vector"** %3, align 8
  %6 = bitcast %"class.std::__debug::vector"* %5 to i8*
  %7 = getelementptr inbounds i8, i8* %6, i64 24
  %8 = bitcast i8* %7 to %"class.std::__cxx1998::vector"*
  %9 = call i32* @_ZNSt9__cxx19986vectorIiSaIiEE5beginEv(%"class.std::__cxx1998::vector"* %8) #3
  %10 = getelementptr inbounds %"class.__gnu_cxx::__normal_iterator.22", %"class.__gnu_cxx::__normal_iterator.22"* %4, i32 0, i32 0
  store i32* %9, i32** %10, align 8
  %11 = bitcast %"class.std::__debug::vector"* %5 to %"class.__gnu_debug::_Safe_sequence_base"*
  call void @_ZN11__gnu_debug14_Safe_iteratorIN9__gnu_cxx17__normal_iteratorIPiNSt9__cxx19986vectorIiSaIiEEEEENSt7__debug6vectorIiS6_EEEC2ERKS8_PKNS_19_Safe_sequence_baseE(%"class.__gnu_debug::_Safe_iterator.21"* %0, %"class.__gnu_cxx::__normal_iterator.22"* dereferenceable(8) %4, %"class.__gnu_debug::_Safe_sequence_base"* %11) #3
  ret void
}

; Function Attrs: noinline nounwind uwtable
define linkonce_odr void @_ZNSt7__debug6vectorIiSaIiEE3endEv(%"class.__gnu_debug::_Safe_iterator.21"* noalias sret, %"class.std::__debug::vector"*) #4 comdat align 2 {
  %3 = alloca %"class.std::__debug::vector"*, align 8
  %4 = alloca %"class.__gnu_cxx::__normal_iterator.22", align 8
  store %"class.std::__debug::vector"* %1, %"class.std::__debug::vector"** %3, align 8
  %5 = load %"class.std::__debug::vector"*, %"class.std::__debug::vector"** %3, align 8
  %6 = bitcast %"class.std::__debug::vector"* %5 to i8*
  %7 = getelementptr inbounds i8, i8* %6, i64 24
  %8 = bitcast i8* %7 to %"class.std::__cxx1998::vector"*
  %9 = call i32* @_ZNSt9__cxx19986vectorIiSaIiEE3endEv(%"class.std::__cxx1998::vector"* %8) #3
  %10 = getelementptr inbounds %"class.__gnu_cxx::__normal_iterator.22", %"class.__gnu_cxx::__normal_iterator.22"* %4, i32 0, i32 0
  store i32* %9, i32** %10, align 8
  %11 = bitcast %"class.std::__debug::vector"* %5 to %"class.__gnu_debug::_Safe_sequence_base"*
  call void @_ZN11__gnu_debug14_Safe_iteratorIN9__gnu_cxx17__normal_iteratorIPiNSt9__cxx19986vectorIiSaIiEEEEENSt7__debug6vectorIiS6_EEEC2ERKS8_PKNS_19_Safe_sequence_baseE(%"class.__gnu_debug::_Safe_iterator.21"* %0, %"class.__gnu_cxx::__normal_iterator.22"* dereferenceable(8) %4, %"class.__gnu_debug::_Safe_sequence_base"* %11) #3
  ret void
}

; Function Attrs: noinline nounwind uwtable
define linkonce_odr zeroext i1 @_ZN11__gnu_debugneIN9__gnu_cxx17__normal_iteratorIPiNSt9__cxx19986vectorIiSaIiEEEEENSt7__debug6vectorIiS6_EEEEbRKNS_14_Safe_iteratorIT_T0_EESH_(%"class.__gnu_debug::_Safe_iterator.21"* dereferenceable(40), %"class.__gnu_debug::_Safe_iterator.21"* dereferenceable(40)) #4 comdat personality i8* bitcast (i32 (...)* @__gxx_personality_v0 to i8*) {
  %3 = alloca %"class.__gnu_debug::_Safe_iterator.21"*, align 8
  %4 = alloca %"class.__gnu_debug::_Safe_iterator.21"*, align 8
  %5 = alloca %"class.__gnu_debug::_Error_formatter", align 8
  %6 = alloca %"class.__gnu_debug::_Error_formatter", align 8
  store %"class.__gnu_debug::_Safe_iterator.21"* %0, %"class.__gnu_debug::_Safe_iterator.21"** %3, align 8
  store %"class.__gnu_debug::_Safe_iterator.21"* %1, %"class.__gnu_debug::_Safe_iterator.21"** %4, align 8
  br label %7

; <label>:7:                                      ; preds = %2
  %8 = load i32, i32* @x.70
  %9 = load i32, i32* @y.71
  %10 = sub i32 %8, 1
  %11 = mul i32 %8, %10
  %12 = urem i32 %11, 2
  %13 = icmp eq i32 %12, 0
  %14 = icmp slt i32 %9, 10
  %15 = or i1 %13, %14
  br i1 %15, label %16, label %171

; <label>:16:                                     ; preds = %7, %171
  %17 = load %"class.__gnu_debug::_Safe_iterator.21"*, %"class.__gnu_debug::_Safe_iterator.21"** %3, align 8
  %18 = bitcast %"class.__gnu_debug::_Safe_iterator.21"* %17 to i8*
  %19 = getelementptr inbounds i8, i8* %18, i64 8
  %20 = bitcast i8* %19 to %"class.__gnu_debug::_Safe_iterator_base"*
  %21 = call zeroext i1 @_ZNK11__gnu_debug19_Safe_iterator_base11_M_singularEv(%"class.__gnu_debug::_Safe_iterator_base"* %20) #14
  %22 = load i32, i32* @x.70
  %23 = load i32, i32* @y.71
  %24 = sub i32 %22, 1
  %25 = mul i32 %22, %24
  %26 = urem i32 %25, 2
  %27 = icmp eq i32 %26, 0
  %28 = icmp slt i32 %23, 10
  %29 = or i1 %27, %28
  br i1 %29, label %30, label %171

; <label>:30:                                     ; preds = %16
  br i1 %21, label %55, label %31

; <label>:31:                                     ; preds = %30
  %32 = load i32, i32* @x.70
  %33 = load i32, i32* @y.71
  %34 = sub i32 %32, 1
  %35 = mul i32 %32, %34
  %36 = urem i32 %35, 2
  %37 = icmp eq i32 %36, 0
  %38 = icmp slt i32 %33, 10
  %39 = or i1 %37, %38
  br i1 %39, label %40, label %177

; <label>:40:                                     ; preds = %31, %177
  %41 = load %"class.__gnu_debug::_Safe_iterator.21"*, %"class.__gnu_debug::_Safe_iterator.21"** %4, align 8
  %42 = bitcast %"class.__gnu_debug::_Safe_iterator.21"* %41 to i8*
  %43 = getelementptr inbounds i8, i8* %42, i64 8
  %44 = bitcast i8* %43 to %"class.__gnu_debug::_Safe_iterator_base"*
  %45 = call zeroext i1 @_ZNK11__gnu_debug19_Safe_iterator_base11_M_singularEv(%"class.__gnu_debug::_Safe_iterator_base"* %44) #14
  %46 = load i32, i32* @x.70
  %47 = load i32, i32* @y.71
  %48 = sub i32 %46, 1
  %49 = mul i32 %46, %48
  %50 = urem i32 %49, 2
  %51 = icmp eq i32 %50, 0
  %52 = icmp slt i32 %47, 10
  %53 = or i1 %51, %52
  br i1 %53, label %54, label %177

; <label>:54:                                     ; preds = %40
  br i1 %45, label %55, label %101

; <label>:55:                                     ; preds = %54, %30
  invoke void @_ZN11__gnu_debug16_Error_formatter5_M_atEPKcm(%"class.__gnu_debug::_Error_formatter"* sret %5, i8* getelementptr inbounds ([88 x i8], [88 x i8]* @.str.14, i32 0, i32 0), i64 584)
          to label %56 unwind label %168

; <label>:56:                                     ; preds = %55
  %57 = load i32, i32* @x.70
  %58 = load i32, i32* @y.71
  %59 = sub i32 %57, 1
  %60 = mul i32 %57, %59
  %61 = urem i32 %60, 2
  %62 = icmp eq i32 %61, 0
  %63 = icmp slt i32 %58, 10
  %64 = or i1 %62, %63
  br i1 %64, label %65, label %183

; <label>:65:                                     ; preds = %56, %183
  %66 = call dereferenceable(560) %"class.__gnu_debug::_Error_formatter"* @_ZNK11__gnu_debug16_Error_formatter10_M_messageENS_13_Debug_msg_idE(%"class.__gnu_debug::_Error_formatter"* %5, i32 31) #3
  %67 = load %"class.__gnu_debug::_Safe_iterator.21"*, %"class.__gnu_debug::_Safe_iterator.21"** %3, align 8
  %68 = load i32, i32* @x.70
  %69 = load i32, i32* @y.71
  %70 = sub i32 %68, 1
  %71 = mul i32 %68, %70
  %72 = urem i32 %71, 2
  %73 = icmp eq i32 %72, 0
  %74 = icmp slt i32 %69, 10
  %75 = or i1 %73, %74
  br i1 %75, label %76, label %183

; <label>:76:                                     ; preds = %65
  %77 = invoke dereferenceable(560) %"class.__gnu_debug::_Error_formatter"* @_ZNK11__gnu_debug16_Error_formatter11_M_iteratorINS_14_Safe_iteratorIN9__gnu_cxx17__normal_iteratorIPiNSt9__cxx19986vectorIiSaIiEEEEENSt7__debug6vectorIiS8_EEEEEERKS0_RKT_PKc(%"class.__gnu_debug::_Error_formatter"* %66, %"class.__gnu_debug::_Safe_iterator.21"* dereferenceable(40) %67, i8* getelementptr inbounds ([4 x i8], [4 x i8]* @.str.15, i32 0, i32 0))
          to label %78 unwind label %168

; <label>:78:                                     ; preds = %76
  %79 = load i32, i32* @x.70
  %80 = load i32, i32* @y.71
  %81 = sub i32 %79, 1
  %82 = mul i32 %79, %81
  %83 = urem i32 %82, 2
  %84 = icmp eq i32 %83, 0
  %85 = icmp slt i32 %80, 10
  %86 = or i1 %84, %85
  br i1 %86, label %87, label %186

; <label>:87:                                     ; preds = %78, %186
  %88 = load %"class.__gnu_debug::_Safe_iterator.21"*, %"class.__gnu_debug::_Safe_iterator.21"** %4, align 8
  %89 = load i32, i32* @x.70
  %90 = load i32, i32* @y.71
  %91 = sub i32 %89, 1
  %92 = mul i32 %89, %91
  %93 = urem i32 %92, 2
  %94 = icmp eq i32 %93, 0
  %95 = icmp slt i32 %90, 10
  %96 = or i1 %94, %95
  br i1 %96, label %97, label %186

; <label>:97:                                     ; preds = %87
  %98 = invoke dereferenceable(560) %"class.__gnu_debug::_Error_formatter"* @_ZNK11__gnu_debug16_Error_formatter11_M_iteratorINS_14_Safe_iteratorIN9__gnu_cxx17__normal_iteratorIPiNSt9__cxx19986vectorIiSaIiEEEEENSt7__debug6vectorIiS8_EEEEEERKS0_RKT_PKc(%"class.__gnu_debug::_Error_formatter"* %77, %"class.__gnu_debug::_Safe_iterator.21"* dereferenceable(40) %88, i8* getelementptr inbounds ([4 x i8], [4 x i8]* @.str.16, i32 0, i32 0))
          to label %99 unwind label %168

; <label>:99:                                     ; preds = %97
  invoke void @_ZNK11__gnu_debug16_Error_formatter8_M_errorEv(%"class.__gnu_debug::_Error_formatter"* %98) #13
          to label %100 unwind label %168

; <label>:100:                                    ; preds = %99
  unreachable

; <label>:101:                                    ; preds = %54
  %102 = load i32, i32* @x.70
  %103 = load i32, i32* @y.71
  %104 = sub i32 %102, 1
  %105 = mul i32 %102, %104
  %106 = urem i32 %105, 2
  %107 = icmp eq i32 %106, 0
  %108 = icmp slt i32 %103, 10
  %109 = or i1 %107, %108
  br i1 %109, label %110, label %188

; <label>:110:                                    ; preds = %101, %188
  %111 = load i32, i32* @x.70
  %112 = load i32, i32* @y.71
  %113 = sub i32 %111, 1
  %114 = mul i32 %111, %113
  %115 = urem i32 %114, 2
  %116 = icmp eq i32 %115, 0
  %117 = icmp slt i32 %112, 10
  %118 = or i1 %116, %117
  br i1 %118, label %119, label %188

; <label>:119:                                    ; preds = %110
  br label %120

; <label>:120:                                    ; preds = %119
  br label %121

; <label>:121:                                    ; preds = %120
  br label %122

; <label>:122:                                    ; preds = %121
  %123 = load %"class.__gnu_debug::_Safe_iterator.21"*, %"class.__gnu_debug::_Safe_iterator.21"** %3, align 8
  %124 = bitcast %"class.__gnu_debug::_Safe_iterator.21"* %123 to i8*
  %125 = getelementptr inbounds i8, i8* %124, i64 8
  %126 = bitcast i8* %125 to %"class.__gnu_debug::_Safe_iterator_base"*
  %127 = load %"class.__gnu_debug::_Safe_iterator.21"*, %"class.__gnu_debug::_Safe_iterator.21"** %4, align 8
  %128 = bitcast %"class.__gnu_debug::_Safe_iterator.21"* %127 to i8*
  %129 = getelementptr inbounds i8, i8* %128, i64 8
  %130 = bitcast i8* %129 to %"class.__gnu_debug::_Safe_iterator_base"*
  %131 = call zeroext i1 @_ZNK11__gnu_debug19_Safe_iterator_base14_M_can_compareERKS0_(%"class.__gnu_debug::_Safe_iterator_base"* %126, %"class.__gnu_debug::_Safe_iterator_base"* dereferenceable(32) %130) #14
  br i1 %131, label %142, label %132

; <label>:132:                                    ; preds = %122
  invoke void @_ZN11__gnu_debug16_Error_formatter5_M_atEPKcm(%"class.__gnu_debug::_Error_formatter"* sret %6, i8* getelementptr inbounds ([88 x i8], [88 x i8]* @.str.14, i32 0, i32 0), i64 588)
          to label %133 unwind label %168

; <label>:133:                                    ; preds = %132
  %134 = call dereferenceable(560) %"class.__gnu_debug::_Error_formatter"* @_ZNK11__gnu_debug16_Error_formatter10_M_messageENS_13_Debug_msg_idE(%"class.__gnu_debug::_Error_formatter"* %6, i32 32) #3
  %135 = load %"class.__gnu_debug::_Safe_iterator.21"*, %"class.__gnu_debug::_Safe_iterator.21"** %3, align 8
  %136 = invoke dereferenceable(560) %"class.__gnu_debug::_Error_formatter"* @_ZNK11__gnu_debug16_Error_formatter11_M_iteratorINS_14_Safe_iteratorIN9__gnu_cxx17__normal_iteratorIPiNSt9__cxx19986vectorIiSaIiEEEEENSt7__debug6vectorIiS8_EEEEEERKS0_RKT_PKc(%"class.__gnu_debug::_Error_formatter"* %134, %"class.__gnu_debug::_Safe_iterator.21"* dereferenceable(40) %135, i8* getelementptr inbounds ([4 x i8], [4 x i8]* @.str.15, i32 0, i32 0))
          to label %137 unwind label %168

; <label>:137:                                    ; preds = %133
  %138 = load %"class.__gnu_debug::_Safe_iterator.21"*, %"class.__gnu_debug::_Safe_iterator.21"** %4, align 8
  %139 = invoke dereferenceable(560) %"class.__gnu_debug::_Error_formatter"* @_ZNK11__gnu_debug16_Error_formatter11_M_iteratorINS_14_Safe_iteratorIN9__gnu_cxx17__normal_iteratorIPiNSt9__cxx19986vectorIiSaIiEEEEENSt7__debug6vectorIiS8_EEEEEERKS0_RKT_PKc(%"class.__gnu_debug::_Error_formatter"* %136, %"class.__gnu_debug::_Safe_iterator.21"* dereferenceable(40) %138, i8* getelementptr inbounds ([4 x i8], [4 x i8]* @.str.16, i32 0, i32 0))
          to label %140 unwind label %168

; <label>:140:                                    ; preds = %137
  invoke void @_ZNK11__gnu_debug16_Error_formatter8_M_errorEv(%"class.__gnu_debug::_Error_formatter"* %139) #13
          to label %141 unwind label %168

; <label>:141:                                    ; preds = %140
  unreachable

; <label>:142:                                    ; preds = %122
  br label %143

; <label>:143:                                    ; preds = %142
  br label %144

; <label>:144:                                    ; preds = %143
  %145 = load i32, i32* @x.70
  %146 = load i32, i32* @y.71
  %147 = sub i32 %145, 1
  %148 = mul i32 %145, %147
  %149 = urem i32 %148, 2
  %150 = icmp eq i32 %149, 0
  %151 = icmp slt i32 %146, 10
  %152 = or i1 %150, %151
  br i1 %152, label %153, label %189

; <label>:153:                                    ; preds = %144, %189
  %154 = load %"class.__gnu_debug::_Safe_iterator.21"*, %"class.__gnu_debug::_Safe_iterator.21"** %3, align 8
  %155 = call dereferenceable(8) %"class.__gnu_cxx::__normal_iterator.22"* @_ZNK11__gnu_debug14_Safe_iteratorIN9__gnu_cxx17__normal_iteratorIPiNSt9__cxx19986vectorIiSaIiEEEEENSt7__debug6vectorIiS6_EEE4baseEv(%"class.__gnu_debug::_Safe_iterator.21"* %154) #3
  %156 = load %"class.__gnu_debug::_Safe_iterator.21"*, %"class.__gnu_debug::_Safe_iterator.21"** %4, align 8
  %157 = call dereferenceable(8) %"class.__gnu_cxx::__normal_iterator.22"* @_ZNK11__gnu_debug14_Safe_iteratorIN9__gnu_cxx17__normal_iteratorIPiNSt9__cxx19986vectorIiSaIiEEEEENSt7__debug6vectorIiS6_EEE4baseEv(%"class.__gnu_debug::_Safe_iterator.21"* %156) #3
  %158 = call zeroext i1 @_ZN9__gnu_cxxneIPiNSt9__cxx19986vectorIiSaIiEEEEEbRKNS_17__normal_iteratorIT_T0_EESB_(%"class.__gnu_cxx::__normal_iterator.22"* dereferenceable(8) %155, %"class.__gnu_cxx::__normal_iterator.22"* dereferenceable(8) %157) #3
  %159 = load i32, i32* @x.70
  %160 = load i32, i32* @y.71
  %161 = sub i32 %159, 1
  %162 = mul i32 %159, %161
  %163 = urem i32 %162, 2
  %164 = icmp eq i32 %163, 0
  %165 = icmp slt i32 %160, 10
  %166 = or i1 %164, %165
  br i1 %166, label %167, label %189

; <label>:167:                                    ; preds = %153
  ret i1 %158

; <label>:168:                                    ; preds = %140, %137, %133, %132, %99, %97, %76, %55
  %169 = landingpad { i8*, i32 }
          catch i8* null
  %170 = extractvalue { i8*, i32 } %169, 0
  call void @__clang_call_terminate(i8* %170) #10
  unreachable

; <label>:171:                                    ; preds = %16, %7
  %172 = load %"class.__gnu_debug::_Safe_iterator.21"*, %"class.__gnu_debug::_Safe_iterator.21"** %3, align 8
  %173 = bitcast %"class.__gnu_debug::_Safe_iterator.21"* %172 to i8*
  %174 = getelementptr inbounds i8, i8* %173, i64 8
  %175 = bitcast i8* %174 to %"class.__gnu_debug::_Safe_iterator_base"*
  %176 = call zeroext i1 @_ZNK11__gnu_debug19_Safe_iterator_base11_M_singularEv(%"class.__gnu_debug::_Safe_iterator_base"* %175) #14
  br label %16

; <label>:177:                                    ; preds = %40, %31
  %178 = load %"class.__gnu_debug::_Safe_iterator.21"*, %"class.__gnu_debug::_Safe_iterator.21"** %4, align 8
  %179 = bitcast %"class.__gnu_debug::_Safe_iterator.21"* %178 to i8*
  %180 = getelementptr inbounds i8, i8* %179, i64 8
  %181 = bitcast i8* %180 to %"class.__gnu_debug::_Safe_iterator_base"*
  %182 = call zeroext i1 @_ZNK11__gnu_debug19_Safe_iterator_base11_M_singularEv(%"class.__gnu_debug::_Safe_iterator_base"* %181) #14
  br label %40

; <label>:183:                                    ; preds = %65, %56
  %184 = call dereferenceable(560) %"class.__gnu_debug::_Error_formatter"* @_ZNK11__gnu_debug16_Error_formatter10_M_messageENS_13_Debug_msg_idE(%"class.__gnu_debug::_Error_formatter"* %5, i32 31) #3
  %185 = load %"class.__gnu_debug::_Safe_iterator.21"*, %"class.__gnu_debug::_Safe_iterator.21"** %3, align 8
  br label %65

; <label>:186:                                    ; preds = %87, %78
  %187 = load %"class.__gnu_debug::_Safe_iterator.21"*, %"class.__gnu_debug::_Safe_iterator.21"** %4, align 8
  br label %87

; <label>:188:                                    ; preds = %110, %101
  br label %110

; <label>:189:                                    ; preds = %153, %144
  %190 = load %"class.__gnu_debug::_Safe_iterator.21"*, %"class.__gnu_debug::_Safe_iterator.21"** %3, align 8
  %191 = call dereferenceable(8) %"class.__gnu_cxx::__normal_iterator.22"* @_ZNK11__gnu_debug14_Safe_iteratorIN9__gnu_cxx17__normal_iteratorIPiNSt9__cxx19986vectorIiSaIiEEEEENSt7__debug6vectorIiS6_EEE4baseEv(%"class.__gnu_debug::_Safe_iterator.21"* %190) #3
  %192 = load %"class.__gnu_debug::_Safe_iterator.21"*, %"class.__gnu_debug::_Safe_iterator.21"** %4, align 8
  %193 = call dereferenceable(8) %"class.__gnu_cxx::__normal_iterator.22"* @_ZNK11__gnu_debug14_Safe_iteratorIN9__gnu_cxx17__normal_iteratorIPiNSt9__cxx19986vectorIiSaIiEEEEENSt7__debug6vectorIiS6_EEE4baseEv(%"class.__gnu_debug::_Safe_iterator.21"* %192) #3
  %194 = call zeroext i1 @_ZN9__gnu_cxxneIPiNSt9__cxx19986vectorIiSaIiEEEEEbRKNS_17__normal_iteratorIT_T0_EESB_(%"class.__gnu_cxx::__normal_iterator.22"* dereferenceable(8) %191, %"class.__gnu_cxx::__normal_iterator.22"* dereferenceable(8) %193) #3
  br label %153
}

; Function Attrs: noinline nounwind uwtable
define linkonce_odr dereferenceable(4) i32* @_ZNK11__gnu_debug14_Safe_iteratorIN9__gnu_cxx17__normal_iteratorIPiNSt9__cxx19986vectorIiSaIiEEEEENSt7__debug6vectorIiS6_EEEdeEv(%"class.__gnu_debug::_Safe_iterator.21"*) #4 comdat align 2 personality i8* bitcast (i32 (...)* @__gxx_personality_v0 to i8*) {
  %2 = alloca %"class.__gnu_debug::_Safe_iterator.21"*, align 8
  %3 = alloca %"class.__gnu_debug::_Error_formatter", align 8
  store %"class.__gnu_debug::_Safe_iterator.21"* %0, %"class.__gnu_debug::_Safe_iterator.21"** %2, align 8
  %4 = load %"class.__gnu_debug::_Safe_iterator.21"*, %"class.__gnu_debug::_Safe_iterator.21"** %2, align 8
  br label %5

; <label>:5:                                      ; preds = %1
  %6 = invoke zeroext i1 @_ZNK11__gnu_debug14_Safe_iteratorIN9__gnu_cxx17__normal_iteratorIPiNSt9__cxx19986vectorIiSaIiEEEEENSt7__debug6vectorIiS6_EEE18_M_dereferenceableEv(%"class.__gnu_debug::_Safe_iterator.21"* %4)
          to label %7 unwind label %55

; <label>:7:                                      ; preds = %5
  %8 = load i32, i32* @x.72
  %9 = load i32, i32* @y.73
  %10 = sub i32 %8, 1
  %11 = mul i32 %8, %10
  %12 = urem i32 %11, 2
  %13 = icmp eq i32 %12, 0
  %14 = icmp slt i32 %9, 10
  %15 = or i1 %13, %14
  br i1 %15, label %16, label %58

; <label>:16:                                     ; preds = %7, %58
  %17 = load i32, i32* @x.72
  %18 = load i32, i32* @y.73
  %19 = sub i32 %17, 1
  %20 = mul i32 %17, %19
  %21 = urem i32 %20, 2
  %22 = icmp eq i32 %21, 0
  %23 = icmp slt i32 %18, 10
  %24 = or i1 %22, %23
  br i1 %24, label %25, label %58

; <label>:25:                                     ; preds = %16
  br i1 %6, label %50, label %26

; <label>:26:                                     ; preds = %25
  invoke void @_ZN11__gnu_debug16_Error_formatter5_M_atEPKcm(%"class.__gnu_debug::_Error_formatter"* sret %3, i8* getelementptr inbounds ([88 x i8], [88 x i8]* @.str.14, i32 0, i32 0), i64 303)
          to label %27 unwind label %55

; <label>:27:                                     ; preds = %26
  %28 = load i32, i32* @x.72
  %29 = load i32, i32* @y.73
  %30 = sub i32 %28, 1
  %31 = mul i32 %28, %30
  %32 = urem i32 %31, 2
  %33 = icmp eq i32 %32, 0
  %34 = icmp slt i32 %29, 10
  %35 = or i1 %33, %34
  br i1 %35, label %36, label %59

; <label>:36:                                     ; preds = %27, %59
  %37 = call dereferenceable(560) %"class.__gnu_debug::_Error_formatter"* @_ZNK11__gnu_debug16_Error_formatter10_M_messageENS_13_Debug_msg_idE(%"class.__gnu_debug::_Error_formatter"* %3, i32 25) #3
  %38 = load i32, i32* @x.72
  %39 = load i32, i32* @y.73
  %40 = sub i32 %38, 1
  %41 = mul i32 %38, %40
  %42 = urem i32 %41, 2
  %43 = icmp eq i32 %42, 0
  %44 = icmp slt i32 %39, 10
  %45 = or i1 %43, %44
  br i1 %45, label %46, label %59

; <label>:46:                                     ; preds = %36
  %47 = invoke dereferenceable(560) %"class.__gnu_debug::_Error_formatter"* @_ZNK11__gnu_debug16_Error_formatter11_M_iteratorINS_14_Safe_iteratorIN9__gnu_cxx17__normal_iteratorIPiNSt9__cxx19986vectorIiSaIiEEEEENSt7__debug6vectorIiS8_EEEEEERKS0_RKT_PKc(%"class.__gnu_debug::_Error_formatter"* %37, %"class.__gnu_debug::_Safe_iterator.21"* dereferenceable(40) %4, i8* getelementptr inbounds ([5 x i8], [5 x i8]* @.str.4, i32 0, i32 0))
          to label %48 unwind label %55

; <label>:48:                                     ; preds = %46
  invoke void @_ZNK11__gnu_debug16_Error_formatter8_M_errorEv(%"class.__gnu_debug::_Error_formatter"* %47) #13
          to label %49 unwind label %55

; <label>:49:                                     ; preds = %48
  unreachable

; <label>:50:                                     ; preds = %25
  br label %51

; <label>:51:                                     ; preds = %50
  br label %52

; <label>:52:                                     ; preds = %51
  %53 = call dereferenceable(8) %"class.__gnu_cxx::__normal_iterator.22"* @_ZNK11__gnu_debug14_Safe_iteratorIN9__gnu_cxx17__normal_iteratorIPiNSt9__cxx19986vectorIiSaIiEEEEENSt7__debug6vectorIiS6_EEE4baseEv(%"class.__gnu_debug::_Safe_iterator.21"* %4) #3
  %54 = call dereferenceable(4) i32* @_ZNK9__gnu_cxx17__normal_iteratorIPiNSt9__cxx19986vectorIiSaIiEEEEdeEv(%"class.__gnu_cxx::__normal_iterator.22"* %53) #3
  ret i32* %54

; <label>:55:                                     ; preds = %48, %46, %26, %5
  %56 = landingpad { i8*, i32 }
          catch i8* null
  %57 = extractvalue { i8*, i32 } %56, 0
  call void @__clang_call_terminate(i8* %57) #10
  unreachable

; <label>:58:                                     ; preds = %16, %7
  br label %16

; <label>:59:                                     ; preds = %36, %27
  %60 = call dereferenceable(560) %"class.__gnu_debug::_Error_formatter"* @_ZNK11__gnu_debug16_Error_formatter10_M_messageENS_13_Debug_msg_idE(%"class.__gnu_debug::_Error_formatter"* %3, i32 25) #3
  br label %36
}

; Function Attrs: noinline uwtable
define linkonce_odr void @_ZNSt7__debug3setIiSt4lessIiESaIiEE6insertERKi(%"struct.std::pair"* noalias sret, %"class.std::__debug::set"*, i32* dereferenceable(4)) #0 comdat align 2 personality i8* bitcast (i32 (...)* @__gxx_personality_v0 to i8*) {
  %4 = alloca %"class.std::__debug::set"*, align 8
  %5 = alloca i32*, align 8
  %6 = alloca %"struct.std::pair.30", align 8
  %7 = alloca %"class.__gnu_debug::_Safe_iterator.23", align 8
  %8 = alloca i8*
  %9 = alloca i32
  store %"class.std::__debug::set"* %1, %"class.std::__debug::set"** %4, align 8
  store i32* %2, i32** %5, align 8
  %10 = load %"class.std::__debug::set"*, %"class.std::__debug::set"** %4, align 8
  %11 = bitcast %"class.std::__debug::set"* %10 to i8*
  %12 = getelementptr inbounds i8, i8* %11, i64 24
  %13 = bitcast i8* %12 to %"class.std::__cxx1998::set"*
  %14 = load i32*, i32** %5, align 8
  %15 = call { %"struct.std::_Rb_tree_node_base"*, i8 } @_ZNSt9__cxx19983setIiSt4lessIiESaIiEE6insertERKi(%"class.std::__cxx1998::set"* %13, i32* dereferenceable(4) %14)
  %16 = bitcast %"struct.std::pair.30"* %6 to { %"struct.std::_Rb_tree_node_base"*, i8 }*
  %17 = getelementptr inbounds { %"struct.std::_Rb_tree_node_base"*, i8 }, { %"struct.std::_Rb_tree_node_base"*, i8 }* %16, i32 0, i32 0
  %18 = extractvalue { %"struct.std::_Rb_tree_node_base"*, i8 } %15, 0
  store %"struct.std::_Rb_tree_node_base"* %18, %"struct.std::_Rb_tree_node_base"** %17, align 8
  %19 = getelementptr inbounds { %"struct.std::_Rb_tree_node_base"*, i8 }, { %"struct.std::_Rb_tree_node_base"*, i8 }* %16, i32 0, i32 1
  %20 = extractvalue { %"struct.std::_Rb_tree_node_base"*, i8 } %15, 1
  store i8 %20, i8* %19, align 8
  %21 = getelementptr inbounds %"struct.std::pair.30", %"struct.std::pair.30"* %6, i32 0, i32 0
  %22 = bitcast %"class.std::__debug::set"* %10 to %"class.__gnu_debug::_Safe_sequence_base"*
  call void @_ZN11__gnu_debug14_Safe_iteratorISt23_Rb_tree_const_iteratorIiENSt7__debug3setIiSt4lessIiESaIiEEEEC2ERKS2_PKNS_19_Safe_sequence_baseE(%"class.__gnu_debug::_Safe_iterator.23"* %7, %"struct.std::_Rb_tree_const_iterator"* dereferenceable(8) %21, %"class.__gnu_debug::_Safe_sequence_base"* %22) #3
  %23 = getelementptr inbounds %"struct.std::pair.30", %"struct.std::pair.30"* %6, i32 0, i32 1
  invoke void @_ZNSt4pairIN11__gnu_debug14_Safe_iteratorISt23_Rb_tree_const_iteratorIiENSt7__debug3setIiSt4lessIiESaIiEEEEEbEC2ISA_RbvEEOT_OT0_(%"struct.std::pair"* %0, %"class.__gnu_debug::_Safe_iterator.23"* dereferenceable(40) %7, i8* dereferenceable(1) %23)
          to label %24 unwind label %43

; <label>:24:                                     ; preds = %3
  %25 = load i32, i32* @x.74
  %26 = load i32, i32* @y.75
  %27 = sub i32 %25, 1
  %28 = mul i32 %25, %27
  %29 = urem i32 %28, 2
  %30 = icmp eq i32 %29, 0
  %31 = icmp slt i32 %26, 10
  %32 = or i1 %30, %31
  br i1 %32, label %33, label %52

; <label>:33:                                     ; preds = %24, %52
  call void @_ZN11__gnu_debug14_Safe_iteratorISt23_Rb_tree_const_iteratorIiENSt7__debug3setIiSt4lessIiESaIiEEEED2Ev(%"class.__gnu_debug::_Safe_iterator.23"* %7) #3
  %34 = load i32, i32* @x.74
  %35 = load i32, i32* @y.75
  %36 = sub i32 %34, 1
  %37 = mul i32 %34, %36
  %38 = urem i32 %37, 2
  %39 = icmp eq i32 %38, 0
  %40 = icmp slt i32 %35, 10
  %41 = or i1 %39, %40
  br i1 %41, label %42, label %52

; <label>:42:                                     ; preds = %33
  ret void

; <label>:43:                                     ; preds = %3
  %44 = landingpad { i8*, i32 }
          cleanup
  %45 = extractvalue { i8*, i32 } %44, 0
  store i8* %45, i8** %8, align 8
  %46 = extractvalue { i8*, i32 } %44, 1
  store i32 %46, i32* %9, align 4
  call void @_ZN11__gnu_debug14_Safe_iteratorISt23_Rb_tree_const_iteratorIiENSt7__debug3setIiSt4lessIiESaIiEEEED2Ev(%"class.__gnu_debug::_Safe_iterator.23"* %7) #3
  br label %47

; <label>:47:                                     ; preds = %43
  %48 = load i8*, i8** %8, align 8
  %49 = load i32, i32* %9, align 4
  %50 = insertvalue { i8*, i32 } undef, i8* %48, 0
  %51 = insertvalue { i8*, i32 } %50, i32 %49, 1
  resume { i8*, i32 } %51

; <label>:52:                                     ; preds = %33, %24
  call void @_ZN11__gnu_debug14_Safe_iteratorISt23_Rb_tree_const_iteratorIiENSt7__debug3setIiSt4lessIiESaIiEEEED2Ev(%"class.__gnu_debug::_Safe_iterator.23"* %7) #3
  br label %33
}

; Function Attrs: noinline nounwind uwtable
define linkonce_odr void @_ZNSt4pairIN11__gnu_debug14_Safe_iteratorISt23_Rb_tree_const_iteratorIiENSt7__debug3setIiSt4lessIiESaIiEEEEEbED2Ev(%"struct.std::pair"*) unnamed_addr #4 comdat align 2 {
  %2 = alloca %"struct.std::pair"*, align 8
  store %"struct.std::pair"* %0, %"struct.std::pair"** %2, align 8
  %3 = load %"struct.std::pair"*, %"struct.std::pair"** %2, align 8
  %4 = getelementptr inbounds %"struct.std::pair", %"struct.std::pair"* %3, i32 0, i32 0
  call void @_ZN11__gnu_debug14_Safe_iteratorISt23_Rb_tree_const_iteratorIiENSt7__debug3setIiSt4lessIiESaIiEEEED2Ev(%"class.__gnu_debug::_Safe_iterator.23"* %4) #3
  ret void
}

; Function Attrs: noinline nounwind uwtable
define linkonce_odr dereferenceable(40) %"class.__gnu_debug::_Safe_iterator.21"* @_ZN11__gnu_debug14_Safe_iteratorIN9__gnu_cxx17__normal_iteratorIPiNSt9__cxx19986vectorIiSaIiEEEEENSt7__debug6vectorIiS6_EEEppEv(%"class.__gnu_debug::_Safe_iterator.21"*) #4 comdat align 2 personality i8* bitcast (i32 (...)* @__gxx_personality_v0 to i8*) {
  %2 = alloca %"class.__gnu_debug::_Safe_iterator.21"*, align 8
  %3 = alloca %"class.__gnu_debug::_Error_formatter", align 8
  %4 = alloca %"class.__gnu_cxx::__scoped_lock", align 8
  store %"class.__gnu_debug::_Safe_iterator.21"* %0, %"class.__gnu_debug::_Safe_iterator.21"** %2, align 8
  %5 = load %"class.__gnu_debug::_Safe_iterator.21"*, %"class.__gnu_debug::_Safe_iterator.21"** %2, align 8
  br label %6

; <label>:6:                                      ; preds = %1
  %7 = invoke zeroext i1 @_ZNK11__gnu_debug14_Safe_iteratorIN9__gnu_cxx17__normal_iteratorIPiNSt9__cxx19986vectorIiSaIiEEEEENSt7__debug6vectorIiS6_EEE16_M_incrementableEv(%"class.__gnu_debug::_Safe_iterator.21"* %5)
          to label %8 unwind label %97

; <label>:8:                                      ; preds = %6
  %9 = load i32, i32* @x.78
  %10 = load i32, i32* @y.79
  %11 = sub i32 %9, 1
  %12 = mul i32 %9, %11
  %13 = urem i32 %12, 2
  %14 = icmp eq i32 %13, 0
  %15 = icmp slt i32 %10, 10
  %16 = or i1 %14, %15
  br i1 %16, label %17, label %100

; <label>:17:                                     ; preds = %8, %100
  %18 = load i32, i32* @x.78
  %19 = load i32, i32* @y.79
  %20 = sub i32 %18, 1
  %21 = mul i32 %18, %20
  %22 = urem i32 %21, 2
  %23 = icmp eq i32 %22, 0
  %24 = icmp slt i32 %19, 10
  %25 = or i1 %23, %24
  br i1 %25, label %26, label %100

; <label>:26:                                     ; preds = %17
  br i1 %7, label %69, label %27

; <label>:27:                                     ; preds = %26
  invoke void @_ZN11__gnu_debug16_Error_formatter5_M_atEPKcm(%"class.__gnu_debug::_Error_formatter"* sret %3, i8* getelementptr inbounds ([88 x i8], [88 x i8]* @.str.14, i32 0, i32 0), i64 331)
          to label %28 unwind label %97

; <label>:28:                                     ; preds = %27
  %29 = load i32, i32* @x.78
  %30 = load i32, i32* @y.79
  %31 = sub i32 %29, 1
  %32 = mul i32 %29, %31
  %33 = urem i32 %32, 2
  %34 = icmp eq i32 %33, 0
  %35 = icmp slt i32 %30, 10
  %36 = or i1 %34, %35
  br i1 %36, label %37, label %101

; <label>:37:                                     ; preds = %28, %101
  %38 = call dereferenceable(560) %"class.__gnu_debug::_Error_formatter"* @_ZNK11__gnu_debug16_Error_formatter10_M_messageENS_13_Debug_msg_idE(%"class.__gnu_debug::_Error_formatter"* %3, i32 26) #3
  %39 = load i32, i32* @x.78
  %40 = load i32, i32* @y.79
  %41 = sub i32 %39, 1
  %42 = mul i32 %39, %41
  %43 = urem i32 %42, 2
  %44 = icmp eq i32 %43, 0
  %45 = icmp slt i32 %40, 10
  %46 = or i1 %44, %45
  br i1 %46, label %47, label %101

; <label>:47:                                     ; preds = %37
  %48 = invoke dereferenceable(560) %"class.__gnu_debug::_Error_formatter"* @_ZNK11__gnu_debug16_Error_formatter11_M_iteratorINS_14_Safe_iteratorIN9__gnu_cxx17__normal_iteratorIPiNSt9__cxx19986vectorIiSaIiEEEEENSt7__debug6vectorIiS8_EEEEEERKS0_RKT_PKc(%"class.__gnu_debug::_Error_formatter"* %38, %"class.__gnu_debug::_Safe_iterator.21"* dereferenceable(40) %5, i8* getelementptr inbounds ([5 x i8], [5 x i8]* @.str.4, i32 0, i32 0))
          to label %49 unwind label %97

; <label>:49:                                     ; preds = %47
  invoke void @_ZNK11__gnu_debug16_Error_formatter8_M_errorEv(%"class.__gnu_debug::_Error_formatter"* %48) #13
          to label %50 unwind label %97

; <label>:50:                                     ; preds = %49
  %51 = load i32, i32* @x.78
  %52 = load i32, i32* @y.79
  %53 = sub i32 %51, 1
  %54 = mul i32 %51, %53
  %55 = urem i32 %54, 2
  %56 = icmp eq i32 %55, 0
  %57 = icmp slt i32 %52, 10
  %58 = or i1 %56, %57
  br i1 %58, label %59, label %103

; <label>:59:                                     ; preds = %50, %103
  %60 = load i32, i32* @x.78
  %61 = load i32, i32* @y.79
  %62 = sub i32 %60, 1
  %63 = mul i32 %60, %62
  %64 = urem i32 %63, 2
  %65 = icmp eq i32 %64, 0
  %66 = icmp slt i32 %61, 10
  %67 = or i1 %65, %66
  br i1 %67, label %68, label %103

; <label>:68:                                     ; preds = %59
  unreachable

; <label>:69:                                     ; preds = %26
  br label %70

; <label>:70:                                     ; preds = %69
  br label %71

; <label>:71:                                     ; preds = %70
  %72 = load i32, i32* @x.78
  %73 = load i32, i32* @y.79
  %74 = sub i32 %72, 1
  %75 = mul i32 %72, %74
  %76 = urem i32 %75, 2
  %77 = icmp eq i32 %76, 0
  %78 = icmp slt i32 %73, 10
  %79 = or i1 %77, %78
  br i1 %79, label %80, label %104

; <label>:80:                                     ; preds = %71, %104
  %81 = bitcast %"class.__gnu_debug::_Safe_iterator.21"* %5 to i8*
  %82 = getelementptr inbounds i8, i8* %81, i64 8
  %83 = bitcast i8* %82 to %"class.__gnu_debug::_Safe_iterator_base"*
  %84 = call dereferenceable(40) %"class.__gnu_cxx::__mutex"* @_ZN11__gnu_debug19_Safe_iterator_base12_M_get_mutexEv(%"class.__gnu_debug::_Safe_iterator_base"* %83) #3
  %85 = load i32, i32* @x.78
  %86 = load i32, i32* @y.79
  %87 = sub i32 %85, 1
  %88 = mul i32 %85, %87
  %89 = urem i32 %88, 2
  %90 = icmp eq i32 %89, 0
  %91 = icmp slt i32 %86, 10
  %92 = or i1 %90, %91
  br i1 %92, label %93, label %104

; <label>:93:                                     ; preds = %80
  invoke void @_ZN9__gnu_cxx13__scoped_lockC2ERNS_7__mutexE(%"class.__gnu_cxx::__scoped_lock"* %4, %"class.__gnu_cxx::__mutex"* dereferenceable(40) %84)
          to label %94 unwind label %97

; <label>:94:                                     ; preds = %93
  call void @_ZN9__gnu_cxx13__scoped_lockD2Ev(%"class.__gnu_cxx::__scoped_lock"* %4) #3
  %95 = call dereferenceable(8) %"class.__gnu_cxx::__normal_iterator.22"* @_ZN11__gnu_debug14_Safe_iteratorIN9__gnu_cxx17__normal_iteratorIPiNSt9__cxx19986vectorIiSaIiEEEEENSt7__debug6vectorIiS6_EEE4baseEv(%"class.__gnu_debug::_Safe_iterator.21"* %5) #3
  %96 = call dereferenceable(8) %"class.__gnu_cxx::__normal_iterator.22"* @_ZN9__gnu_cxx17__normal_iteratorIPiNSt9__cxx19986vectorIiSaIiEEEEppEv(%"class.__gnu_cxx::__normal_iterator.22"* %95) #3
  ret %"class.__gnu_debug::_Safe_iterator.21"* %5

; <label>:97:                                     ; preds = %93, %49, %47, %27, %6
  %98 = landingpad { i8*, i32 }
          catch i8* null
  %99 = extractvalue { i8*, i32 } %98, 0
  call void @__clang_call_terminate(i8* %99) #10
  unreachable

; <label>:100:                                    ; preds = %17, %8
  br label %17

; <label>:101:                                    ; preds = %37, %28
  %102 = call dereferenceable(560) %"class.__gnu_debug::_Error_formatter"* @_ZNK11__gnu_debug16_Error_formatter10_M_messageENS_13_Debug_msg_idE(%"class.__gnu_debug::_Error_formatter"* %3, i32 26) #3
  br label %37

; <label>:103:                                    ; preds = %59, %50
  br label %59

; <label>:104:                                    ; preds = %80, %71
  %105 = bitcast %"class.__gnu_debug::_Safe_iterator.21"* %5 to i8*
  %106 = getelementptr inbounds i8, i8* %105, i64 8
  %107 = bitcast i8* %106 to %"class.__gnu_debug::_Safe_iterator_base"*
  %108 = call dereferenceable(40) %"class.__gnu_cxx::__mutex"* @_ZN11__gnu_debug19_Safe_iterator_base12_M_get_mutexEv(%"class.__gnu_debug::_Safe_iterator_base"* %107) #3
  br label %80
}

; Function Attrs: noinline nounwind uwtable
define linkonce_odr void @_ZN11__gnu_debug14_Safe_iteratorIN9__gnu_cxx17__normal_iteratorIPiNSt9__cxx19986vectorIiSaIiEEEEENSt7__debug6vectorIiS6_EEED2Ev(%"class.__gnu_debug::_Safe_iterator.21"*) unnamed_addr #4 comdat align 2 {
  %2 = alloca %"class.__gnu_debug::_Safe_iterator.21"*, align 8
  store %"class.__gnu_debug::_Safe_iterator.21"* %0, %"class.__gnu_debug::_Safe_iterator.21"** %2, align 8
  %3 = load %"class.__gnu_debug::_Safe_iterator.21"*, %"class.__gnu_debug::_Safe_iterator.21"** %2, align 8
  %4 = bitcast %"class.__gnu_debug::_Safe_iterator.21"* %3 to i8*
  %5 = getelementptr inbounds i8, i8* %4, i64 8
  %6 = bitcast i8* %5 to %"class.__gnu_debug::_Safe_iterator_base"*
  call void @_ZN11__gnu_debug19_Safe_iterator_baseD2Ev(%"class.__gnu_debug::_Safe_iterator_base"* %6) #3
  ret void
}

; Function Attrs: noinline nounwind uwtable
define linkonce_odr zeroext i1 @_ZN11__gnu_debugneISt23_Rb_tree_const_iteratorIiENSt7__debug3setIiSt4lessIiESaIiEEEEEbRKNS_14_Safe_iteratorIT_T0_EESE_(%"class.__gnu_debug::_Safe_iterator.23"* dereferenceable(40), %"class.__gnu_debug::_Safe_iterator.23"* dereferenceable(40)) #4 comdat personality i8* bitcast (i32 (...)* @__gxx_personality_v0 to i8*) {
  %3 = alloca %"class.__gnu_debug::_Safe_iterator.23"*, align 8
  %4 = alloca %"class.__gnu_debug::_Safe_iterator.23"*, align 8
  %5 = alloca %"class.__gnu_debug::_Error_formatter", align 8
  %6 = alloca %"class.__gnu_debug::_Error_formatter", align 8
  store %"class.__gnu_debug::_Safe_iterator.23"* %0, %"class.__gnu_debug::_Safe_iterator.23"** %3, align 8
  store %"class.__gnu_debug::_Safe_iterator.23"* %1, %"class.__gnu_debug::_Safe_iterator.23"** %4, align 8
  br label %7

; <label>:7:                                      ; preds = %2
  %8 = load i32, i32* @x.82
  %9 = load i32, i32* @y.83
  %10 = sub i32 %8, 1
  %11 = mul i32 %8, %10
  %12 = urem i32 %11, 2
  %13 = icmp eq i32 %12, 0
  %14 = icmp slt i32 %9, 10
  %15 = or i1 %13, %14
  br i1 %15, label %16, label %261

; <label>:16:                                     ; preds = %7, %261
  %17 = load %"class.__gnu_debug::_Safe_iterator.23"*, %"class.__gnu_debug::_Safe_iterator.23"** %3, align 8
  %18 = bitcast %"class.__gnu_debug::_Safe_iterator.23"* %17 to i8*
  %19 = getelementptr inbounds i8, i8* %18, i64 8
  %20 = bitcast i8* %19 to %"class.__gnu_debug::_Safe_iterator_base"*
  %21 = call zeroext i1 @_ZNK11__gnu_debug19_Safe_iterator_base11_M_singularEv(%"class.__gnu_debug::_Safe_iterator_base"* %20) #14
  %22 = load i32, i32* @x.82
  %23 = load i32, i32* @y.83
  %24 = sub i32 %22, 1
  %25 = mul i32 %22, %24
  %26 = urem i32 %25, 2
  %27 = icmp eq i32 %26, 0
  %28 = icmp slt i32 %23, 10
  %29 = or i1 %27, %28
  br i1 %29, label %30, label %261

; <label>:30:                                     ; preds = %16
  br i1 %21, label %55, label %31

; <label>:31:                                     ; preds = %30
  %32 = load i32, i32* @x.82
  %33 = load i32, i32* @y.83
  %34 = sub i32 %32, 1
  %35 = mul i32 %32, %34
  %36 = urem i32 %35, 2
  %37 = icmp eq i32 %36, 0
  %38 = icmp slt i32 %33, 10
  %39 = or i1 %37, %38
  br i1 %39, label %40, label %267

; <label>:40:                                     ; preds = %31, %267
  %41 = load %"class.__gnu_debug::_Safe_iterator.23"*, %"class.__gnu_debug::_Safe_iterator.23"** %4, align 8
  %42 = bitcast %"class.__gnu_debug::_Safe_iterator.23"* %41 to i8*
  %43 = getelementptr inbounds i8, i8* %42, i64 8
  %44 = bitcast i8* %43 to %"class.__gnu_debug::_Safe_iterator_base"*
  %45 = call zeroext i1 @_ZNK11__gnu_debug19_Safe_iterator_base11_M_singularEv(%"class.__gnu_debug::_Safe_iterator_base"* %44) #14
  %46 = load i32, i32* @x.82
  %47 = load i32, i32* @y.83
  %48 = sub i32 %46, 1
  %49 = mul i32 %46, %48
  %50 = urem i32 %49, 2
  %51 = icmp eq i32 %50, 0
  %52 = icmp slt i32 %47, 10
  %53 = or i1 %51, %52
  br i1 %53, label %54, label %267

; <label>:54:                                     ; preds = %40
  br i1 %45, label %55, label %101

; <label>:55:                                     ; preds = %54, %30
  invoke void @_ZN11__gnu_debug16_Error_formatter5_M_atEPKcm(%"class.__gnu_debug::_Error_formatter"* sret %5, i8* getelementptr inbounds ([88 x i8], [88 x i8]* @.str.14, i32 0, i32 0), i64 584)
          to label %56 unwind label %258

; <label>:56:                                     ; preds = %55
  %57 = load i32, i32* @x.82
  %58 = load i32, i32* @y.83
  %59 = sub i32 %57, 1
  %60 = mul i32 %57, %59
  %61 = urem i32 %60, 2
  %62 = icmp eq i32 %61, 0
  %63 = icmp slt i32 %58, 10
  %64 = or i1 %62, %63
  br i1 %64, label %65, label %273

; <label>:65:                                     ; preds = %56, %273
  %66 = call dereferenceable(560) %"class.__gnu_debug::_Error_formatter"* @_ZNK11__gnu_debug16_Error_formatter10_M_messageENS_13_Debug_msg_idE(%"class.__gnu_debug::_Error_formatter"* %5, i32 31) #3
  %67 = load %"class.__gnu_debug::_Safe_iterator.23"*, %"class.__gnu_debug::_Safe_iterator.23"** %3, align 8
  %68 = load i32, i32* @x.82
  %69 = load i32, i32* @y.83
  %70 = sub i32 %68, 1
  %71 = mul i32 %68, %70
  %72 = urem i32 %71, 2
  %73 = icmp eq i32 %72, 0
  %74 = icmp slt i32 %69, 10
  %75 = or i1 %73, %74
  br i1 %75, label %76, label %273

; <label>:76:                                     ; preds = %65
  %77 = invoke dereferenceable(560) %"class.__gnu_debug::_Error_formatter"* @_ZNK11__gnu_debug16_Error_formatter11_M_iteratorINS_14_Safe_iteratorISt23_Rb_tree_const_iteratorIiENSt7__debug3setIiSt4lessIiESaIiEEEEEEERKS0_RKT_PKc(%"class.__gnu_debug::_Error_formatter"* %66, %"class.__gnu_debug::_Safe_iterator.23"* dereferenceable(40) %67, i8* getelementptr inbounds ([4 x i8], [4 x i8]* @.str.15, i32 0, i32 0))
          to label %78 unwind label %258

; <label>:78:                                     ; preds = %76
  %79 = load i32, i32* @x.82
  %80 = load i32, i32* @y.83
  %81 = sub i32 %79, 1
  %82 = mul i32 %79, %81
  %83 = urem i32 %82, 2
  %84 = icmp eq i32 %83, 0
  %85 = icmp slt i32 %80, 10
  %86 = or i1 %84, %85
  br i1 %86, label %87, label %276

; <label>:87:                                     ; preds = %78, %276
  %88 = load %"class.__gnu_debug::_Safe_iterator.23"*, %"class.__gnu_debug::_Safe_iterator.23"** %4, align 8
  %89 = load i32, i32* @x.82
  %90 = load i32, i32* @y.83
  %91 = sub i32 %89, 1
  %92 = mul i32 %89, %91
  %93 = urem i32 %92, 2
  %94 = icmp eq i32 %93, 0
  %95 = icmp slt i32 %90, 10
  %96 = or i1 %94, %95
  br i1 %96, label %97, label %276

; <label>:97:                                     ; preds = %87
  %98 = invoke dereferenceable(560) %"class.__gnu_debug::_Error_formatter"* @_ZNK11__gnu_debug16_Error_formatter11_M_iteratorINS_14_Safe_iteratorISt23_Rb_tree_const_iteratorIiENSt7__debug3setIiSt4lessIiESaIiEEEEEEERKS0_RKT_PKc(%"class.__gnu_debug::_Error_formatter"* %77, %"class.__gnu_debug::_Safe_iterator.23"* dereferenceable(40) %88, i8* getelementptr inbounds ([4 x i8], [4 x i8]* @.str.16, i32 0, i32 0))
          to label %99 unwind label %258

; <label>:99:                                     ; preds = %97
  invoke void @_ZNK11__gnu_debug16_Error_formatter8_M_errorEv(%"class.__gnu_debug::_Error_formatter"* %98) #13
          to label %100 unwind label %258

; <label>:100:                                    ; preds = %99
  unreachable

; <label>:101:                                    ; preds = %54
  br label %102

; <label>:102:                                    ; preds = %101
  %103 = load i32, i32* @x.82
  %104 = load i32, i32* @y.83
  %105 = sub i32 %103, 1
  %106 = mul i32 %103, %105
  %107 = urem i32 %106, 2
  %108 = icmp eq i32 %107, 0
  %109 = icmp slt i32 %104, 10
  %110 = or i1 %108, %109
  br i1 %110, label %111, label %278

; <label>:111:                                    ; preds = %102, %278
  %112 = load i32, i32* @x.82
  %113 = load i32, i32* @y.83
  %114 = sub i32 %112, 1
  %115 = mul i32 %112, %114
  %116 = urem i32 %115, 2
  %117 = icmp eq i32 %116, 0
  %118 = icmp slt i32 %113, 10
  %119 = or i1 %117, %118
  br i1 %119, label %120, label %278

; <label>:120:                                    ; preds = %111
  br label %121

; <label>:121:                                    ; preds = %120
  %122 = load i32, i32* @x.82
  %123 = load i32, i32* @y.83
  %124 = sub i32 %122, 1
  %125 = mul i32 %122, %124
  %126 = urem i32 %125, 2
  %127 = icmp eq i32 %126, 0
  %128 = icmp slt i32 %123, 10
  %129 = or i1 %127, %128
  br i1 %129, label %130, label %279

; <label>:130:                                    ; preds = %121, %279
  %131 = load i32, i32* @x.82
  %132 = load i32, i32* @y.83
  %133 = sub i32 %131, 1
  %134 = mul i32 %131, %133
  %135 = urem i32 %134, 2
  %136 = icmp eq i32 %135, 0
  %137 = icmp slt i32 %132, 10
  %138 = or i1 %136, %137
  br i1 %138, label %139, label %279

; <label>:139:                                    ; preds = %130
  br label %140

; <label>:140:                                    ; preds = %139
  %141 = load i32, i32* @x.82
  %142 = load i32, i32* @y.83
  %143 = sub i32 %141, 1
  %144 = mul i32 %141, %143
  %145 = urem i32 %144, 2
  %146 = icmp eq i32 %145, 0
  %147 = icmp slt i32 %142, 10
  %148 = or i1 %146, %147
  br i1 %148, label %149, label %280

; <label>:149:                                    ; preds = %140, %280
  %150 = load %"class.__gnu_debug::_Safe_iterator.23"*, %"class.__gnu_debug::_Safe_iterator.23"** %3, align 8
  %151 = bitcast %"class.__gnu_debug::_Safe_iterator.23"* %150 to i8*
  %152 = getelementptr inbounds i8, i8* %151, i64 8
  %153 = bitcast i8* %152 to %"class.__gnu_debug::_Safe_iterator_base"*
  %154 = load %"class.__gnu_debug::_Safe_iterator.23"*, %"class.__gnu_debug::_Safe_iterator.23"** %4, align 8
  %155 = bitcast %"class.__gnu_debug::_Safe_iterator.23"* %154 to i8*
  %156 = getelementptr inbounds i8, i8* %155, i64 8
  %157 = bitcast i8* %156 to %"class.__gnu_debug::_Safe_iterator_base"*
  %158 = call zeroext i1 @_ZNK11__gnu_debug19_Safe_iterator_base14_M_can_compareERKS0_(%"class.__gnu_debug::_Safe_iterator_base"* %153, %"class.__gnu_debug::_Safe_iterator_base"* dereferenceable(32) %157) #14
  %159 = load i32, i32* @x.82
  %160 = load i32, i32* @y.83
  %161 = sub i32 %159, 1
  %162 = mul i32 %159, %161
  %163 = urem i32 %162, 2
  %164 = icmp eq i32 %163, 0
  %165 = icmp slt i32 %160, 10
  %166 = or i1 %164, %165
  br i1 %166, label %167, label %280

; <label>:167:                                    ; preds = %149
  br i1 %158, label %232, label %168

; <label>:168:                                    ; preds = %167
  invoke void @_ZN11__gnu_debug16_Error_formatter5_M_atEPKcm(%"class.__gnu_debug::_Error_formatter"* sret %6, i8* getelementptr inbounds ([88 x i8], [88 x i8]* @.str.14, i32 0, i32 0), i64 588)
          to label %169 unwind label %258

; <label>:169:                                    ; preds = %168
  %170 = load i32, i32* @x.82
  %171 = load i32, i32* @y.83
  %172 = sub i32 %170, 1
  %173 = mul i32 %170, %172
  %174 = urem i32 %173, 2
  %175 = icmp eq i32 %174, 0
  %176 = icmp slt i32 %171, 10
  %177 = or i1 %175, %176
  br i1 %177, label %178, label %290

; <label>:178:                                    ; preds = %169, %290
  %179 = call dereferenceable(560) %"class.__gnu_debug::_Error_formatter"* @_ZNK11__gnu_debug16_Error_formatter10_M_messageENS_13_Debug_msg_idE(%"class.__gnu_debug::_Error_formatter"* %6, i32 32) #3
  %180 = load %"class.__gnu_debug::_Safe_iterator.23"*, %"class.__gnu_debug::_Safe_iterator.23"** %3, align 8
  %181 = load i32, i32* @x.82
  %182 = load i32, i32* @y.83
  %183 = sub i32 %181, 1
  %184 = mul i32 %181, %183
  %185 = urem i32 %184, 2
  %186 = icmp eq i32 %185, 0
  %187 = icmp slt i32 %182, 10
  %188 = or i1 %186, %187
  br i1 %188, label %189, label %290

; <label>:189:                                    ; preds = %178
  %190 = invoke dereferenceable(560) %"class.__gnu_debug::_Error_formatter"* @_ZNK11__gnu_debug16_Error_formatter11_M_iteratorINS_14_Safe_iteratorISt23_Rb_tree_const_iteratorIiENSt7__debug3setIiSt4lessIiESaIiEEEEEEERKS0_RKT_PKc(%"class.__gnu_debug::_Error_formatter"* %179, %"class.__gnu_debug::_Safe_iterator.23"* dereferenceable(40) %180, i8* getelementptr inbounds ([4 x i8], [4 x i8]* @.str.15, i32 0, i32 0))
          to label %191 unwind label %258

; <label>:191:                                    ; preds = %189
  %192 = load i32, i32* @x.82
  %193 = load i32, i32* @y.83
  %194 = sub i32 %192, 1
  %195 = mul i32 %192, %194
  %196 = urem i32 %195, 2
  %197 = icmp eq i32 %196, 0
  %198 = icmp slt i32 %193, 10
  %199 = or i1 %197, %198
  br i1 %199, label %200, label %293

; <label>:200:                                    ; preds = %191, %293
  %201 = load %"class.__gnu_debug::_Safe_iterator.23"*, %"class.__gnu_debug::_Safe_iterator.23"** %4, align 8
  %202 = load i32, i32* @x.82
  %203 = load i32, i32* @y.83
  %204 = sub i32 %202, 1
  %205 = mul i32 %202, %204
  %206 = urem i32 %205, 2
  %207 = icmp eq i32 %206, 0
  %208 = icmp slt i32 %203, 10
  %209 = or i1 %207, %208
  br i1 %209, label %210, label %293

; <label>:210:                                    ; preds = %200
  %211 = invoke dereferenceable(560) %"class.__gnu_debug::_Error_formatter"* @_ZNK11__gnu_debug16_Error_formatter11_M_iteratorINS_14_Safe_iteratorISt23_Rb_tree_const_iteratorIiENSt7__debug3setIiSt4lessIiESaIiEEEEEEERKS0_RKT_PKc(%"class.__gnu_debug::_Error_formatter"* %190, %"class.__gnu_debug::_Safe_iterator.23"* dereferenceable(40) %201, i8* getelementptr inbounds ([4 x i8], [4 x i8]* @.str.16, i32 0, i32 0))
          to label %212 unwind label %258

; <label>:212:                                    ; preds = %210
  invoke void @_ZNK11__gnu_debug16_Error_formatter8_M_errorEv(%"class.__gnu_debug::_Error_formatter"* %211) #13
          to label %213 unwind label %258

; <label>:213:                                    ; preds = %212
  %214 = load i32, i32* @x.82
  %215 = load i32, i32* @y.83
  %216 = sub i32 %214, 1
  %217 = mul i32 %214, %216
  %218 = urem i32 %217, 2
  %219 = icmp eq i32 %218, 0
  %220 = icmp slt i32 %215, 10
  %221 = or i1 %219, %220
  br i1 %221, label %222, label %295

; <label>:222:                                    ; preds = %213, %295
  %223 = load i32, i32* @x.82
  %224 = load i32, i32* @y.83
  %225 = sub i32 %223, 1
  %226 = mul i32 %223, %225
  %227 = urem i32 %226, 2
  %228 = icmp eq i32 %227, 0
  %229 = icmp slt i32 %224, 10
  %230 = or i1 %228, %229
  br i1 %230, label %231, label %295

; <label>:231:                                    ; preds = %222
  unreachable

; <label>:232:                                    ; preds = %167
  br label %233

; <label>:233:                                    ; preds = %232
  %234 = load i32, i32* @x.82
  %235 = load i32, i32* @y.83
  %236 = sub i32 %234, 1
  %237 = mul i32 %234, %236
  %238 = urem i32 %237, 2
  %239 = icmp eq i32 %238, 0
  %240 = icmp slt i32 %235, 10
  %241 = or i1 %239, %240
  br i1 %241, label %242, label %296

; <label>:242:                                    ; preds = %233, %296
  %243 = load i32, i32* @x.82
  %244 = load i32, i32* @y.83
  %245 = sub i32 %243, 1
  %246 = mul i32 %243, %245
  %247 = urem i32 %246, 2
  %248 = icmp eq i32 %247, 0
  %249 = icmp slt i32 %244, 10
  %250 = or i1 %248, %249
  br i1 %250, label %251, label %296

; <label>:251:                                    ; preds = %242
  br label %252

; <label>:252:                                    ; preds = %251
  %253 = load %"class.__gnu_debug::_Safe_iterator.23"*, %"class.__gnu_debug::_Safe_iterator.23"** %3, align 8
  %254 = call dereferenceable(8) %"struct.std::_Rb_tree_const_iterator"* @_ZNK11__gnu_debug14_Safe_iteratorISt23_Rb_tree_const_iteratorIiENSt7__debug3setIiSt4lessIiESaIiEEEE4baseEv(%"class.__gnu_debug::_Safe_iterator.23"* %253) #3
  %255 = load %"class.__gnu_debug::_Safe_iterator.23"*, %"class.__gnu_debug::_Safe_iterator.23"** %4, align 8
  %256 = call dereferenceable(8) %"struct.std::_Rb_tree_const_iterator"* @_ZNK11__gnu_debug14_Safe_iteratorISt23_Rb_tree_const_iteratorIiENSt7__debug3setIiSt4lessIiESaIiEEEE4baseEv(%"class.__gnu_debug::_Safe_iterator.23"* %255) #3
  %257 = call zeroext i1 @_ZNKSt23_Rb_tree_const_iteratorIiEneERKS0_(%"struct.std::_Rb_tree_const_iterator"* %254, %"struct.std::_Rb_tree_const_iterator"* dereferenceable(8) %256) #3
  ret i1 %257

; <label>:258:                                    ; preds = %212, %210, %189, %168, %99, %97, %76, %55
  %259 = landingpad { i8*, i32 }
          catch i8* null
  %260 = extractvalue { i8*, i32 } %259, 0
  call void @__clang_call_terminate(i8* %260) #10
  unreachable

; <label>:261:                                    ; preds = %16, %7
  %262 = load %"class.__gnu_debug::_Safe_iterator.23"*, %"class.__gnu_debug::_Safe_iterator.23"** %3, align 8
  %263 = bitcast %"class.__gnu_debug::_Safe_iterator.23"* %262 to i8*
  %264 = getelementptr inbounds i8, i8* %263, i64 8
  %265 = bitcast i8* %264 to %"class.__gnu_debug::_Safe_iterator_base"*
  %266 = call zeroext i1 @_ZNK11__gnu_debug19_Safe_iterator_base11_M_singularEv(%"class.__gnu_debug::_Safe_iterator_base"* %265) #14
  br label %16

; <label>:267:                                    ; preds = %40, %31
  %268 = load %"class.__gnu_debug::_Safe_iterator.23"*, %"class.__gnu_debug::_Safe_iterator.23"** %4, align 8
  %269 = bitcast %"class.__gnu_debug::_Safe_iterator.23"* %268 to i8*
  %270 = getelementptr inbounds i8, i8* %269, i64 8
  %271 = bitcast i8* %270 to %"class.__gnu_debug::_Safe_iterator_base"*
  %272 = call zeroext i1 @_ZNK11__gnu_debug19_Safe_iterator_base11_M_singularEv(%"class.__gnu_debug::_Safe_iterator_base"* %271) #14
  br label %40

; <label>:273:                                    ; preds = %65, %56
  %274 = call dereferenceable(560) %"class.__gnu_debug::_Error_formatter"* @_ZNK11__gnu_debug16_Error_formatter10_M_messageENS_13_Debug_msg_idE(%"class.__gnu_debug::_Error_formatter"* %5, i32 31) #3
  %275 = load %"class.__gnu_debug::_Safe_iterator.23"*, %"class.__gnu_debug::_Safe_iterator.23"** %3, align 8
  br label %65

; <label>:276:                                    ; preds = %87, %78
  %277 = load %"class.__gnu_debug::_Safe_iterator.23"*, %"class.__gnu_debug::_Safe_iterator.23"** %4, align 8
  br label %87

; <label>:278:                                    ; preds = %111, %102
  br label %111

; <label>:279:                                    ; preds = %130, %121
  br label %130

; <label>:280:                                    ; preds = %149, %140
  %281 = load %"class.__gnu_debug::_Safe_iterator.23"*, %"class.__gnu_debug::_Safe_iterator.23"** %3, align 8
  %282 = bitcast %"class.__gnu_debug::_Safe_iterator.23"* %281 to i8*
  %283 = getelementptr inbounds i8, i8* %282, i64 8
  %284 = bitcast i8* %283 to %"class.__gnu_debug::_Safe_iterator_base"*
  %285 = load %"class.__gnu_debug::_Safe_iterator.23"*, %"class.__gnu_debug::_Safe_iterator.23"** %4, align 8
  %286 = bitcast %"class.__gnu_debug::_Safe_iterator.23"* %285 to i8*
  %287 = getelementptr inbounds i8, i8* %286, i64 8
  %288 = bitcast i8* %287 to %"class.__gnu_debug::_Safe_iterator_base"*
  %289 = call zeroext i1 @_ZNK11__gnu_debug19_Safe_iterator_base14_M_can_compareERKS0_(%"class.__gnu_debug::_Safe_iterator_base"* %284, %"class.__gnu_debug::_Safe_iterator_base"* dereferenceable(32) %288) #14
  br label %149

; <label>:290:                                    ; preds = %178, %169
  %291 = call dereferenceable(560) %"class.__gnu_debug::_Error_formatter"* @_ZNK11__gnu_debug16_Error_formatter10_M_messageENS_13_Debug_msg_idE(%"class.__gnu_debug::_Error_formatter"* %6, i32 32) #3
  %292 = load %"class.__gnu_debug::_Safe_iterator.23"*, %"class.__gnu_debug::_Safe_iterator.23"** %3, align 8
  br label %178

; <label>:293:                                    ; preds = %200, %191
  %294 = load %"class.__gnu_debug::_Safe_iterator.23"*, %"class.__gnu_debug::_Safe_iterator.23"** %4, align 8
  br label %200

; <label>:295:                                    ; preds = %222, %213
  br label %222

; <label>:296:                                    ; preds = %242, %233
  br label %242
}

; Function Attrs: noinline uwtable
define linkonce_odr void @_ZNSt7__debug3setIiSt4lessIiESaIiEE4findERKi(%"class.__gnu_debug::_Safe_iterator.23"* noalias sret, %"class.std::__debug::set"*, i32* dereferenceable(4)) #0 comdat align 2 {
  %4 = alloca %"class.std::__debug::set"*, align 8
  %5 = alloca i32*, align 8
  %6 = alloca %"struct.std::_Rb_tree_const_iterator", align 8
  store %"class.std::__debug::set"* %1, %"class.std::__debug::set"** %4, align 8
  store i32* %2, i32** %5, align 8
  %7 = load %"class.std::__debug::set"*, %"class.std::__debug::set"** %4, align 8
  %8 = bitcast %"class.std::__debug::set"* %7 to i8*
  %9 = getelementptr inbounds i8, i8* %8, i64 24
  %10 = bitcast i8* %9 to %"class.std::__cxx1998::set"*
  %11 = load i32*, i32** %5, align 8
  %12 = call %"struct.std::_Rb_tree_node_base"* @_ZNSt9__cxx19983setIiSt4lessIiESaIiEE4findERKi(%"class.std::__cxx1998::set"* %10, i32* dereferenceable(4) %11)
  %13 = getelementptr inbounds %"struct.std::_Rb_tree_const_iterator", %"struct.std::_Rb_tree_const_iterator"* %6, i32 0, i32 0
  store %"struct.std::_Rb_tree_node_base"* %12, %"struct.std::_Rb_tree_node_base"** %13, align 8
  %14 = bitcast %"class.std::__debug::set"* %7 to %"class.__gnu_debug::_Safe_sequence_base"*
  call void @_ZN11__gnu_debug14_Safe_iteratorISt23_Rb_tree_const_iteratorIiENSt7__debug3setIiSt4lessIiESaIiEEEEC2ERKS2_PKNS_19_Safe_sequence_baseE(%"class.__gnu_debug::_Safe_iterator.23"* %0, %"struct.std::_Rb_tree_const_iterator"* dereferenceable(8) %6, %"class.__gnu_debug::_Safe_sequence_base"* %14) #3
  ret void
}

; Function Attrs: noinline nounwind uwtable
define linkonce_odr void @_ZNSt7__debug3setIiSt4lessIiESaIiEE3endEv(%"class.__gnu_debug::_Safe_iterator.23"* noalias sret, %"class.std::__debug::set"*) #4 comdat align 2 {
  %3 = alloca %"class.std::__debug::set"*, align 8
  %4 = alloca %"struct.std::_Rb_tree_const_iterator", align 8
  store %"class.std::__debug::set"* %1, %"class.std::__debug::set"** %3, align 8
  %5 = load %"class.std::__debug::set"*, %"class.std::__debug::set"** %3, align 8
  %6 = bitcast %"class.std::__debug::set"* %5 to i8*
  %7 = getelementptr inbounds i8, i8* %6, i64 24
  %8 = bitcast i8* %7 to %"class.std::__cxx1998::set"*
  %9 = call %"struct.std::_Rb_tree_node_base"* @_ZNKSt9__cxx19983setIiSt4lessIiESaIiEE3endEv(%"class.std::__cxx1998::set"* %8) #3
  %10 = getelementptr inbounds %"struct.std::_Rb_tree_const_iterator", %"struct.std::_Rb_tree_const_iterator"* %4, i32 0, i32 0
  store %"struct.std::_Rb_tree_node_base"* %9, %"struct.std::_Rb_tree_node_base"** %10, align 8
  %11 = bitcast %"class.std::__debug::set"* %5 to %"class.__gnu_debug::_Safe_sequence_base"*
  call void @_ZN11__gnu_debug14_Safe_iteratorISt23_Rb_tree_const_iteratorIiENSt7__debug3setIiSt4lessIiESaIiEEEEC2ERKS2_PKNS_19_Safe_sequence_baseE(%"class.__gnu_debug::_Safe_iterator.23"* %0, %"struct.std::_Rb_tree_const_iterator"* dereferenceable(8) %4, %"class.__gnu_debug::_Safe_sequence_base"* %11) #3
  ret void
}

; Function Attrs: noinline nounwind uwtable
define linkonce_odr void @_ZN11__gnu_debug14_Safe_iteratorISt23_Rb_tree_const_iteratorIiENSt7__debug3setIiSt4lessIiESaIiEEEED2Ev(%"class.__gnu_debug::_Safe_iterator.23"*) unnamed_addr #4 comdat align 2 {
  %2 = load i32, i32* @x.88
  %3 = load i32, i32* @y.89
  %4 = sub i32 %2, 1
  %5 = mul i32 %2, %4
  %6 = urem i32 %5, 2
  %7 = icmp eq i32 %6, 0
  %8 = icmp slt i32 %3, 10
  %9 = or i1 %7, %8
  br i1 %9, label %10, label %25

; <label>:10:                                     ; preds = %1, %25
  %11 = alloca %"class.__gnu_debug::_Safe_iterator.23"*, align 8
  store %"class.__gnu_debug::_Safe_iterator.23"* %0, %"class.__gnu_debug::_Safe_iterator.23"** %11, align 8
  %12 = load %"class.__gnu_debug::_Safe_iterator.23"*, %"class.__gnu_debug::_Safe_iterator.23"** %11, align 8
  %13 = bitcast %"class.__gnu_debug::_Safe_iterator.23"* %12 to i8*
  %14 = getelementptr inbounds i8, i8* %13, i64 8
  %15 = bitcast i8* %14 to %"class.__gnu_debug::_Safe_iterator_base"*
  call void @_ZN11__gnu_debug19_Safe_iterator_baseD2Ev(%"class.__gnu_debug::_Safe_iterator_base"* %15) #3
  %16 = load i32, i32* @x.88
  %17 = load i32, i32* @y.89
  %18 = sub i32 %16, 1
  %19 = mul i32 %16, %18
  %20 = urem i32 %19, 2
  %21 = icmp eq i32 %20, 0
  %22 = icmp slt i32 %17, 10
  %23 = or i1 %21, %22
  br i1 %23, label %24, label %25

; <label>:24:                                     ; preds = %10
  ret void

; <label>:25:                                     ; preds = %10, %1
  %26 = alloca %"class.__gnu_debug::_Safe_iterator.23"*, align 8
  store %"class.__gnu_debug::_Safe_iterator.23"* %0, %"class.__gnu_debug::_Safe_iterator.23"** %26, align 8
  %27 = load %"class.__gnu_debug::_Safe_iterator.23"*, %"class.__gnu_debug::_Safe_iterator.23"** %26, align 8
  %28 = bitcast %"class.__gnu_debug::_Safe_iterator.23"* %27 to i8*
  %29 = getelementptr inbounds i8, i8* %28, i64 8
  %30 = bitcast i8* %29 to %"class.__gnu_debug::_Safe_iterator_base"*
  call void @_ZN11__gnu_debug19_Safe_iterator_baseD2Ev(%"class.__gnu_debug::_Safe_iterator_base"* %30) #3
  br label %10
}

; Function Attrs: noinline nounwind uwtable
define linkonce_odr void @_ZNSt7__debug3setIiSt4lessIiESaIiEED2Ev(%"class.std::__debug::set"*) unnamed_addr #4 comdat align 2 {
  %2 = load i32, i32* @x.90
  %3 = load i32, i32* @y.91
  %4 = sub i32 %2, 1
  %5 = mul i32 %2, %4
  %6 = urem i32 %5, 2
  %7 = icmp eq i32 %6, 0
  %8 = icmp slt i32 %3, 10
  %9 = or i1 %7, %8
  br i1 %9, label %10, label %26

; <label>:10:                                     ; preds = %1, %26
  %11 = alloca %"class.std::__debug::set"*, align 8
  store %"class.std::__debug::set"* %0, %"class.std::__debug::set"** %11, align 8
  %12 = load %"class.std::__debug::set"*, %"class.std::__debug::set"** %11, align 8
  %13 = bitcast %"class.std::__debug::set"* %12 to i8*
  %14 = getelementptr inbounds i8, i8* %13, i64 24
  %15 = bitcast i8* %14 to %"class.std::__cxx1998::set"*
  call void @_ZNSt9__cxx19983setIiSt4lessIiESaIiEED2Ev(%"class.std::__cxx1998::set"* %15) #3
  %16 = bitcast %"class.std::__debug::set"* %12 to %"class.__gnu_debug::_Safe_container.14"*
  call void @_ZN11__gnu_debug15_Safe_containerINSt7__debug3setIiSt4lessIiESaIiEEES5_NS_19_Safe_node_sequenceELb1EED2Ev(%"class.__gnu_debug::_Safe_container.14"* %16) #3
  %17 = load i32, i32* @x.90
  %18 = load i32, i32* @y.91
  %19 = sub i32 %17, 1
  %20 = mul i32 %17, %19
  %21 = urem i32 %20, 2
  %22 = icmp eq i32 %21, 0
  %23 = icmp slt i32 %18, 10
  %24 = or i1 %22, %23
  br i1 %24, label %25, label %26

; <label>:25:                                     ; preds = %10
  ret void

; <label>:26:                                     ; preds = %10, %1
  %27 = alloca %"class.std::__debug::set"*, align 8
  store %"class.std::__debug::set"* %0, %"class.std::__debug::set"** %27, align 8
  %28 = load %"class.std::__debug::set"*, %"class.std::__debug::set"** %27, align 8
  %29 = bitcast %"class.std::__debug::set"* %28 to i8*
  %30 = getelementptr inbounds i8, i8* %29, i64 24
  %31 = bitcast i8* %30 to %"class.std::__cxx1998::set"*
  call void @_ZNSt9__cxx19983setIiSt4lessIiESaIiEED2Ev(%"class.std::__cxx1998::set"* %31) #3
  %32 = bitcast %"class.std::__debug::set"* %28 to %"class.__gnu_debug::_Safe_container.14"*
  call void @_ZN11__gnu_debug15_Safe_containerINSt7__debug3setIiSt4lessIiESaIiEEES5_NS_19_Safe_node_sequenceELb1EED2Ev(%"class.__gnu_debug::_Safe_container.14"* %32) #3
  br label %10
}

; Function Attrs: noinline nounwind uwtable
define linkonce_odr void @_ZNSt7__debug6vectorIiSaIiEED2Ev(%"class.std::__debug::vector"*) unnamed_addr #4 comdat align 2 {
  %2 = alloca %"class.std::__debug::vector"*, align 8
  store %"class.std::__debug::vector"* %0, %"class.std::__debug::vector"** %2, align 8
  %3 = load %"class.std::__debug::vector"*, %"class.std::__debug::vector"** %2, align 8
  %4 = bitcast %"class.std::__debug::vector"* %3 to i8*
  %5 = getelementptr inbounds i8, i8* %4, i64 24
  %6 = bitcast i8* %5 to %"class.std::__cxx1998::vector"*
  call void @_ZNSt9__cxx19986vectorIiSaIiEED2Ev(%"class.std::__cxx1998::vector"* %6) #3
  %7 = bitcast %"class.std::__debug::vector"* %3 to %"class.__gnu_debug::_Safe_container"*
  call void @_ZN11__gnu_debug15_Safe_containerINSt7__debug6vectorIiSaIiEEES3_NS_14_Safe_sequenceELb1EED2Ev(%"class.__gnu_debug::_Safe_container"* %7) #3
  ret void
}

; Function Attrs: noinline nounwind uwtable
define linkonce_odr dereferenceable(40) %"class.__gnu_debug::_Safe_iterator"* @_ZN11__gnu_debug14_Safe_iteratorIN9__gnu_cxx17__normal_iteratorIPNSt7__debug6vectorIiSaIiEEENSt9__cxx19986vectorIS6_SaIS6_EEEEENS4_IS6_SA_EEEppEv(%"class.__gnu_debug::_Safe_iterator"*) #4 comdat align 2 personality i8* bitcast (i32 (...)* @__gxx_personality_v0 to i8*) {
  %2 = load i32, i32* @x.94
  %3 = load i32, i32* @y.95
  %4 = sub i32 %2, 1
  %5 = mul i32 %2, %4
  %6 = urem i32 %5, 2
  %7 = icmp eq i32 %6, 0
  %8 = icmp slt i32 %3, 10
  %9 = or i1 %7, %8
  br i1 %9, label %10, label %172

; <label>:10:                                     ; preds = %1, %172
  %11 = alloca %"class.__gnu_debug::_Safe_iterator"*, align 8
  %12 = alloca %"class.__gnu_debug::_Error_formatter", align 8
  %13 = alloca %"class.__gnu_cxx::__scoped_lock", align 8
  store %"class.__gnu_debug::_Safe_iterator"* %0, %"class.__gnu_debug::_Safe_iterator"** %11, align 8
  %14 = load %"class.__gnu_debug::_Safe_iterator"*, %"class.__gnu_debug::_Safe_iterator"** %11, align 8
  %15 = load i32, i32* @x.94
  %16 = load i32, i32* @y.95
  %17 = sub i32 %15, 1
  %18 = mul i32 %15, %17
  %19 = urem i32 %18, 2
  %20 = icmp eq i32 %19, 0
  %21 = icmp slt i32 %16, 10
  %22 = or i1 %20, %21
  br i1 %22, label %23, label %172

; <label>:23:                                     ; preds = %10
  br label %24

; <label>:24:                                     ; preds = %23
  %25 = invoke zeroext i1 @_ZNK11__gnu_debug14_Safe_iteratorIN9__gnu_cxx17__normal_iteratorIPNSt7__debug6vectorIiSaIiEEENSt9__cxx19986vectorIS6_SaIS6_EEEEENS4_IS6_SA_EEE16_M_incrementableEv(%"class.__gnu_debug::_Safe_iterator"* %14)
          to label %26 unwind label %151

; <label>:26:                                     ; preds = %24
  %27 = load i32, i32* @x.94
  %28 = load i32, i32* @y.95
  %29 = sub i32 %27, 1
  %30 = mul i32 %27, %29
  %31 = urem i32 %30, 2
  %32 = icmp eq i32 %31, 0
  %33 = icmp slt i32 %28, 10
  %34 = or i1 %32, %33
  br i1 %34, label %35, label %177

; <label>:35:                                     ; preds = %26, %177
  %36 = load i32, i32* @x.94
  %37 = load i32, i32* @y.95
  %38 = sub i32 %36, 1
  %39 = mul i32 %36, %38
  %40 = urem i32 %39, 2
  %41 = icmp eq i32 %40, 0
  %42 = icmp slt i32 %37, 10
  %43 = or i1 %41, %42
  br i1 %43, label %44, label %177

; <label>:44:                                     ; preds = %35
  br i1 %25, label %69, label %45

; <label>:45:                                     ; preds = %44
  %46 = load i32, i32* @x.94
  %47 = load i32, i32* @y.95
  %48 = sub i32 %46, 1
  %49 = mul i32 %46, %48
  %50 = urem i32 %49, 2
  %51 = icmp eq i32 %50, 0
  %52 = icmp slt i32 %47, 10
  %53 = or i1 %51, %52
  br i1 %53, label %54, label %178

; <label>:54:                                     ; preds = %45, %178
  %55 = load i32, i32* @x.94
  %56 = load i32, i32* @y.95
  %57 = sub i32 %55, 1
  %58 = mul i32 %55, %57
  %59 = urem i32 %58, 2
  %60 = icmp eq i32 %59, 0
  %61 = icmp slt i32 %56, 10
  %62 = or i1 %60, %61
  br i1 %62, label %63, label %178

; <label>:63:                                     ; preds = %54
  invoke void @_ZN11__gnu_debug16_Error_formatter5_M_atEPKcm(%"class.__gnu_debug::_Error_formatter"* sret %12, i8* getelementptr inbounds ([88 x i8], [88 x i8]* @.str.14, i32 0, i32 0), i64 331)
          to label %64 unwind label %151

; <label>:64:                                     ; preds = %63
  %65 = call dereferenceable(560) %"class.__gnu_debug::_Error_formatter"* @_ZNK11__gnu_debug16_Error_formatter10_M_messageENS_13_Debug_msg_idE(%"class.__gnu_debug::_Error_formatter"* %12, i32 26) #3
  %66 = invoke dereferenceable(560) %"class.__gnu_debug::_Error_formatter"* @_ZNK11__gnu_debug16_Error_formatter11_M_iteratorINS_14_Safe_iteratorIN9__gnu_cxx17__normal_iteratorIPNSt7__debug6vectorIiSaIiEEENSt9__cxx19986vectorIS8_SaIS8_EEEEENS6_IS8_SC_EEEEEERKS0_RKT_PKc(%"class.__gnu_debug::_Error_formatter"* %65, %"class.__gnu_debug::_Safe_iterator"* dereferenceable(40) %14, i8* getelementptr inbounds ([5 x i8], [5 x i8]* @.str.4, i32 0, i32 0))
          to label %67 unwind label %151

; <label>:67:                                     ; preds = %64
  invoke void @_ZNK11__gnu_debug16_Error_formatter8_M_errorEv(%"class.__gnu_debug::_Error_formatter"* %66) #13
          to label %68 unwind label %151

; <label>:68:                                     ; preds = %67
  unreachable

; <label>:69:                                     ; preds = %44
  %70 = load i32, i32* @x.94
  %71 = load i32, i32* @y.95
  %72 = sub i32 %70, 1
  %73 = mul i32 %70, %72
  %74 = urem i32 %73, 2
  %75 = icmp eq i32 %74, 0
  %76 = icmp slt i32 %71, 10
  %77 = or i1 %75, %76
  br i1 %77, label %78, label %179

; <label>:78:                                     ; preds = %69, %179
  %79 = load i32, i32* @x.94
  %80 = load i32, i32* @y.95
  %81 = sub i32 %79, 1
  %82 = mul i32 %79, %81
  %83 = urem i32 %82, 2
  %84 = icmp eq i32 %83, 0
  %85 = icmp slt i32 %80, 10
  %86 = or i1 %84, %85
  br i1 %86, label %87, label %179

; <label>:87:                                     ; preds = %78
  br label %88

; <label>:88:                                     ; preds = %87
  %89 = load i32, i32* @x.94
  %90 = load i32, i32* @y.95
  %91 = sub i32 %89, 1
  %92 = mul i32 %89, %91
  %93 = urem i32 %92, 2
  %94 = icmp eq i32 %93, 0
  %95 = icmp slt i32 %90, 10
  %96 = or i1 %94, %95
  br i1 %96, label %97, label %180

; <label>:97:                                     ; preds = %88, %180
  %98 = load i32, i32* @x.94
  %99 = load i32, i32* @y.95
  %100 = sub i32 %98, 1
  %101 = mul i32 %98, %100
  %102 = urem i32 %101, 2
  %103 = icmp eq i32 %102, 0
  %104 = icmp slt i32 %99, 10
  %105 = or i1 %103, %104
  br i1 %105, label %106, label %180

; <label>:106:                                    ; preds = %97
  br label %107

; <label>:107:                                    ; preds = %106
  %108 = load i32, i32* @x.94
  %109 = load i32, i32* @y.95
  %110 = sub i32 %108, 1
  %111 = mul i32 %108, %110
  %112 = urem i32 %111, 2
  %113 = icmp eq i32 %112, 0
  %114 = icmp slt i32 %109, 10
  %115 = or i1 %113, %114
  br i1 %115, label %116, label %181

; <label>:116:                                    ; preds = %107, %181
  %117 = bitcast %"class.__gnu_debug::_Safe_iterator"* %14 to i8*
  %118 = getelementptr inbounds i8, i8* %117, i64 8
  %119 = bitcast i8* %118 to %"class.__gnu_debug::_Safe_iterator_base"*
  %120 = call dereferenceable(40) %"class.__gnu_cxx::__mutex"* @_ZN11__gnu_debug19_Safe_iterator_base12_M_get_mutexEv(%"class.__gnu_debug::_Safe_iterator_base"* %119) #3
  %121 = load i32, i32* @x.94
  %122 = load i32, i32* @y.95
  %123 = sub i32 %121, 1
  %124 = mul i32 %121, %123
  %125 = urem i32 %124, 2
  %126 = icmp eq i32 %125, 0
  %127 = icmp slt i32 %122, 10
  %128 = or i1 %126, %127
  br i1 %128, label %129, label %181

; <label>:129:                                    ; preds = %116
  invoke void @_ZN9__gnu_cxx13__scoped_lockC2ERNS_7__mutexE(%"class.__gnu_cxx::__scoped_lock"* %13, %"class.__gnu_cxx::__mutex"* dereferenceable(40) %120)
          to label %130 unwind label %151

; <label>:130:                                    ; preds = %129
  %131 = load i32, i32* @x.94
  %132 = load i32, i32* @y.95
  %133 = sub i32 %131, 1
  %134 = mul i32 %131, %133
  %135 = urem i32 %134, 2
  %136 = icmp eq i32 %135, 0
  %137 = icmp slt i32 %132, 10
  %138 = or i1 %136, %137
  br i1 %138, label %139, label %186

; <label>:139:                                    ; preds = %130, %186
  call void @_ZN9__gnu_cxx13__scoped_lockD2Ev(%"class.__gnu_cxx::__scoped_lock"* %13) #3
  %140 = call dereferenceable(8) %"class.__gnu_cxx::__normal_iterator"* @_ZN11__gnu_debug14_Safe_iteratorIN9__gnu_cxx17__normal_iteratorIPNSt7__debug6vectorIiSaIiEEENSt9__cxx19986vectorIS6_SaIS6_EEEEENS4_IS6_SA_EEE4baseEv(%"class.__gnu_debug::_Safe_iterator"* %14) #3
  %141 = call dereferenceable(8) %"class.__gnu_cxx::__normal_iterator"* @_ZN9__gnu_cxx17__normal_iteratorIPNSt7__debug6vectorIiSaIiEEENSt9__cxx19986vectorIS4_SaIS4_EEEEppEv(%"class.__gnu_cxx::__normal_iterator"* %140) #3
  %142 = load i32, i32* @x.94
  %143 = load i32, i32* @y.95
  %144 = sub i32 %142, 1
  %145 = mul i32 %142, %144
  %146 = urem i32 %145, 2
  %147 = icmp eq i32 %146, 0
  %148 = icmp slt i32 %143, 10
  %149 = or i1 %147, %148
  br i1 %149, label %150, label %186

; <label>:150:                                    ; preds = %139
  ret %"class.__gnu_debug::_Safe_iterator"* %14

; <label>:151:                                    ; preds = %129, %67, %64, %63, %24
  %152 = load i32, i32* @x.94
  %153 = load i32, i32* @y.95
  %154 = sub i32 %152, 1
  %155 = mul i32 %152, %154
  %156 = urem i32 %155, 2
  %157 = icmp eq i32 %156, 0
  %158 = icmp slt i32 %153, 10
  %159 = or i1 %157, %158
  br i1 %159, label %160, label %189

; <label>:160:                                    ; preds = %151, %189
  %161 = landingpad { i8*, i32 }
          catch i8* null
  %162 = extractvalue { i8*, i32 } %161, 0
  call void @__clang_call_terminate(i8* %162) #10
  %163 = load i32, i32* @x.94
  %164 = load i32, i32* @y.95
  %165 = sub i32 %163, 1
  %166 = mul i32 %163, %165
  %167 = urem i32 %166, 2
  %168 = icmp eq i32 %167, 0
  %169 = icmp slt i32 %164, 10
  %170 = or i1 %168, %169
  br i1 %170, label %171, label %189

; <label>:171:                                    ; preds = %160
  unreachable

; <label>:172:                                    ; preds = %10, %1
  %173 = alloca %"class.__gnu_debug::_Safe_iterator"*, align 8
  %174 = alloca %"class.__gnu_debug::_Error_formatter", align 8
  %175 = alloca %"class.__gnu_cxx::__scoped_lock", align 8
  store %"class.__gnu_debug::_Safe_iterator"* %0, %"class.__gnu_debug::_Safe_iterator"** %173, align 8
  %176 = load %"class.__gnu_debug::_Safe_iterator"*, %"class.__gnu_debug::_Safe_iterator"** %173, align 8
  br label %10

; <label>:177:                                    ; preds = %35, %26
  br label %35

; <label>:178:                                    ; preds = %54, %45
  br label %54

; <label>:179:                                    ; preds = %78, %69
  br label %78

; <label>:180:                                    ; preds = %97, %88
  br label %97

; <label>:181:                                    ; preds = %116, %107
  %182 = bitcast %"class.__gnu_debug::_Safe_iterator"* %14 to i8*
  %183 = getelementptr inbounds i8, i8* %182, i64 8
  %184 = bitcast i8* %183 to %"class.__gnu_debug::_Safe_iterator_base"*
  %185 = call dereferenceable(40) %"class.__gnu_cxx::__mutex"* @_ZN11__gnu_debug19_Safe_iterator_base12_M_get_mutexEv(%"class.__gnu_debug::_Safe_iterator_base"* %184) #3
  br label %116

; <label>:186:                                    ; preds = %139, %130
  call void @_ZN9__gnu_cxx13__scoped_lockD2Ev(%"class.__gnu_cxx::__scoped_lock"* %13) #3
  %187 = call dereferenceable(8) %"class.__gnu_cxx::__normal_iterator"* @_ZN11__gnu_debug14_Safe_iteratorIN9__gnu_cxx17__normal_iteratorIPNSt7__debug6vectorIiSaIiEEENSt9__cxx19986vectorIS6_SaIS6_EEEEENS4_IS6_SA_EEE4baseEv(%"class.__gnu_debug::_Safe_iterator"* %14) #3
  %188 = call dereferenceable(8) %"class.__gnu_cxx::__normal_iterator"* @_ZN9__gnu_cxx17__normal_iteratorIPNSt7__debug6vectorIiSaIiEEENSt9__cxx19986vectorIS4_SaIS4_EEEEppEv(%"class.__gnu_cxx::__normal_iterator"* %187) #3
  br label %139

; <label>:189:                                    ; preds = %160, %151
  %190 = landingpad { i8*, i32 }
          catch i8* null
  %191 = extractvalue { i8*, i32 } %190, 0
  call void @__clang_call_terminate(i8* %191) #10
  br label %160
}

; Function Attrs: noinline nounwind uwtable
define linkonce_odr void @_ZN11__gnu_debug14_Safe_iteratorIN9__gnu_cxx17__normal_iteratorIPNSt7__debug6vectorIiSaIiEEENSt9__cxx19986vectorIS6_SaIS6_EEEEENS4_IS6_SA_EEED2Ev(%"class.__gnu_debug::_Safe_iterator"*) unnamed_addr #4 comdat align 2 {
  %2 = alloca %"class.__gnu_debug::_Safe_iterator"*, align 8
  store %"class.__gnu_debug::_Safe_iterator"* %0, %"class.__gnu_debug::_Safe_iterator"** %2, align 8
  %3 = load %"class.__gnu_debug::_Safe_iterator"*, %"class.__gnu_debug::_Safe_iterator"** %2, align 8
  %4 = bitcast %"class.__gnu_debug::_Safe_iterator"* %3 to i8*
  %5 = getelementptr inbounds i8, i8* %4, i64 8
  %6 = bitcast i8* %5 to %"class.__gnu_debug::_Safe_iterator_base"*
  call void @_ZN11__gnu_debug19_Safe_iterator_baseD2Ev(%"class.__gnu_debug::_Safe_iterator_base"* %6) #3
  ret void
}

declare dereferenceable(272) %"class.std::basic_ostream"* @_ZNSolsEi(%"class.std::basic_ostream"*, i32) #1

; Function Attrs: noinline nounwind uwtable
define linkonce_odr void @_ZNSt7__debug6vectorINS0_IiSaIiEEESaIS2_EED2Ev(%"class.std::__debug::vector.3"*) unnamed_addr #4 comdat align 2 {
  %2 = alloca %"class.std::__debug::vector.3"*, align 8
  store %"class.std::__debug::vector.3"* %0, %"class.std::__debug::vector.3"** %2, align 8
  %3 = load %"class.std::__debug::vector.3"*, %"class.std::__debug::vector.3"** %2, align 8
  %4 = bitcast %"class.std::__debug::vector.3"* %3 to i8*
  %5 = getelementptr inbounds i8, i8* %4, i64 24
  %6 = bitcast i8* %5 to %"class.std::__cxx1998::vector.8"*
  call void @_ZNSt9__cxx19986vectorINSt7__debug6vectorIiSaIiEEESaIS4_EED2Ev(%"class.std::__cxx1998::vector.8"* %6) #3
  %7 = bitcast %"class.std::__debug::vector.3"* %3 to %"class.__gnu_debug::_Safe_container.4"*
  call void @_ZN11__gnu_debug15_Safe_containerINSt7__debug6vectorINS2_IiSaIiEEESaIS4_EEES5_NS_14_Safe_sequenceELb1EED2Ev(%"class.__gnu_debug::_Safe_container.4"* %7) #3
  ret void
}

; Function Attrs: noinline nounwind uwtable
define linkonce_odr void @_ZN9UnionfindD2Ev(%class.Unionfind*) unnamed_addr #4 comdat align 2 {
  %2 = load i32, i32* @x.100
  %3 = load i32, i32* @y.101
  %4 = sub i32 %2, 1
  %5 = mul i32 %2, %4
  %6 = urem i32 %5, 2
  %7 = icmp eq i32 %6, 0
  %8 = icmp slt i32 %3, 10
  %9 = or i1 %7, %8
  br i1 %9, label %10, label %25

; <label>:10:                                     ; preds = %1, %25
  %11 = alloca %class.Unionfind*, align 8
  store %class.Unionfind* %0, %class.Unionfind** %11, align 8
  %12 = load %class.Unionfind*, %class.Unionfind** %11, align 8
  %13 = getelementptr inbounds %class.Unionfind, %class.Unionfind* %12, i32 0, i32 4
  call void @_ZNSt7__debug6vectorIiSaIiEED2Ev(%"class.std::__debug::vector"* %13) #3
  %14 = getelementptr inbounds %class.Unionfind, %class.Unionfind* %12, i32 0, i32 3
  call void @_ZNSt7__debug6vectorIiSaIiEED2Ev(%"class.std::__debug::vector"* %14) #3
  %15 = getelementptr inbounds %class.Unionfind, %class.Unionfind* %12, i32 0, i32 2
  call void @_ZNSt7__debug6vectorIiSaIiEED2Ev(%"class.std::__debug::vector"* %15) #3
  %16 = load i32, i32* @x.100
  %17 = load i32, i32* @y.101
  %18 = sub i32 %16, 1
  %19 = mul i32 %16, %18
  %20 = urem i32 %19, 2
  %21 = icmp eq i32 %20, 0
  %22 = icmp slt i32 %17, 10
  %23 = or i1 %21, %22
  br i1 %23, label %24, label %25

; <label>:24:                                     ; preds = %10
  ret void

; <label>:25:                                     ; preds = %10, %1
  %26 = alloca %class.Unionfind*, align 8
  store %class.Unionfind* %0, %class.Unionfind** %26, align 8
  %27 = load %class.Unionfind*, %class.Unionfind** %26, align 8
  %28 = getelementptr inbounds %class.Unionfind, %class.Unionfind* %27, i32 0, i32 4
  call void @_ZNSt7__debug6vectorIiSaIiEED2Ev(%"class.std::__debug::vector"* %28) #3
  %29 = getelementptr inbounds %class.Unionfind, %class.Unionfind* %27, i32 0, i32 3
  call void @_ZNSt7__debug6vectorIiSaIiEED2Ev(%"class.std::__debug::vector"* %29) #3
  %30 = getelementptr inbounds %class.Unionfind, %class.Unionfind* %27, i32 0, i32 2
  call void @_ZNSt7__debug6vectorIiSaIiEED2Ev(%"class.std::__debug::vector"* %30) #3
  br label %10
}

; Function Attrs: noinline uwtable
define linkonce_odr void @_ZNSt7__debug6vectorIiSaIiEEC2EmRKiRKS1_(%"class.std::__debug::vector"*, i64, i32* dereferenceable(4), %"class.std::allocator.0"* dereferenceable(1)) unnamed_addr #0 comdat align 2 personality i8* bitcast (i32 (...)* @__gxx_personality_v0 to i8*) {
  %5 = alloca %"class.std::__debug::vector"*, align 8
  %6 = alloca i64, align 8
  %7 = alloca i32*, align 8
  %8 = alloca %"class.std::allocator.0"*, align 8
  %9 = alloca i8*
  %10 = alloca i32
  store %"class.std::__debug::vector"* %0, %"class.std::__debug::vector"** %5, align 8
  store i64 %1, i64* %6, align 8
  store i32* %2, i32** %7, align 8
  store %"class.std::allocator.0"* %3, %"class.std::allocator.0"** %8, align 8
  %11 = load %"class.std::__debug::vector"*, %"class.std::__debug::vector"** %5, align 8
  %12 = bitcast %"class.std::__debug::vector"* %11 to %"class.__gnu_debug::_Safe_container"*
  call void @_ZN11__gnu_debug15_Safe_containerINSt7__debug6vectorIiSaIiEEES3_NS_14_Safe_sequenceELb1EEC2Ev(%"class.__gnu_debug::_Safe_container"* %12) #3
  %13 = bitcast %"class.std::__debug::vector"* %11 to i8*
  %14 = getelementptr inbounds i8, i8* %13, i64 24
  %15 = bitcast i8* %14 to %"class.std::__cxx1998::vector"*
  %16 = load i64, i64* %6, align 8
  %17 = load i32*, i32** %7, align 8
  %18 = load %"class.std::allocator.0"*, %"class.std::allocator.0"** %8, align 8
  invoke void @_ZNSt9__cxx19986vectorIiSaIiEEC2EmRKiRKS1_(%"class.std::__cxx1998::vector"* %15, i64 %16, i32* dereferenceable(4) %17, %"class.std::allocator.0"* dereferenceable(1) %18)
          to label %19 unwind label %41

; <label>:19:                                     ; preds = %4
  %20 = load i32, i32* @x.102
  %21 = load i32, i32* @y.103
  %22 = sub i32 %20, 1
  %23 = mul i32 %20, %22
  %24 = urem i32 %23, 2
  %25 = icmp eq i32 %24, 0
  %26 = icmp slt i32 %21, 10
  %27 = or i1 %25, %26
  br i1 %27, label %28, label %69

; <label>:28:                                     ; preds = %19, %69
  %29 = bitcast %"class.std::__debug::vector"* %11 to i8*
  %30 = getelementptr inbounds i8, i8* %29, i64 48
  %31 = bitcast i8* %30 to %"class.__gnu_debug::_Safe_vector"*
  call void @_ZN11__gnu_debug12_Safe_vectorINSt7__debug6vectorIiSaIiEEENSt9__cxx19986vectorIiS3_EEEC2Ev(%"class.__gnu_debug::_Safe_vector"* %31) #3
  %32 = load i32, i32* @x.102
  %33 = load i32, i32* @y.103
  %34 = sub i32 %32, 1
  %35 = mul i32 %32, %34
  %36 = urem i32 %35, 2
  %37 = icmp eq i32 %36, 0
  %38 = icmp slt i32 %33, 10
  %39 = or i1 %37, %38
  br i1 %39, label %40, label %69

; <label>:40:                                     ; preds = %28
  ret void

; <label>:41:                                     ; preds = %4
  %42 = load i32, i32* @x.102
  %43 = load i32, i32* @y.103
  %44 = sub i32 %42, 1
  %45 = mul i32 %42, %44
  %46 = urem i32 %45, 2
  %47 = icmp eq i32 %46, 0
  %48 = icmp slt i32 %43, 10
  %49 = or i1 %47, %48
  br i1 %49, label %50, label %73

; <label>:50:                                     ; preds = %41, %73
  %51 = landingpad { i8*, i32 }
          cleanup
  %52 = extractvalue { i8*, i32 } %51, 0
  store i8* %52, i8** %9, align 8
  %53 = extractvalue { i8*, i32 } %51, 1
  store i32 %53, i32* %10, align 4
  %54 = bitcast %"class.std::__debug::vector"* %11 to %"class.__gnu_debug::_Safe_container"*
  call void @_ZN11__gnu_debug15_Safe_containerINSt7__debug6vectorIiSaIiEEES3_NS_14_Safe_sequenceELb1EED2Ev(%"class.__gnu_debug::_Safe_container"* %54) #3
  %55 = load i32, i32* @x.102
  %56 = load i32, i32* @y.103
  %57 = sub i32 %55, 1
  %58 = mul i32 %55, %57
  %59 = urem i32 %58, 2
  %60 = icmp eq i32 %59, 0
  %61 = icmp slt i32 %56, 10
  %62 = or i1 %60, %61
  br i1 %62, label %63, label %73

; <label>:63:                                     ; preds = %50
  br label %64

; <label>:64:                                     ; preds = %63
  %65 = load i8*, i8** %9, align 8
  %66 = load i32, i32* %10, align 4
  %67 = insertvalue { i8*, i32 } undef, i8* %65, 0
  %68 = insertvalue { i8*, i32 } %67, i32 %66, 1
  resume { i8*, i32 } %68

; <label>:69:                                     ; preds = %28, %19
  %70 = bitcast %"class.std::__debug::vector"* %11 to i8*
  %71 = getelementptr inbounds i8, i8* %70, i64 48
  %72 = bitcast i8* %71 to %"class.__gnu_debug::_Safe_vector"*
  call void @_ZN11__gnu_debug12_Safe_vectorINSt7__debug6vectorIiSaIiEEENSt9__cxx19986vectorIiS3_EEEC2Ev(%"class.__gnu_debug::_Safe_vector"* %72) #3
  br label %28

; <label>:73:                                     ; preds = %50, %41
  %74 = landingpad { i8*, i32 }
          cleanup
  %75 = extractvalue { i8*, i32 } %74, 0
  store i8* %75, i8** %9, align 8
  %76 = extractvalue { i8*, i32 } %74, 1
  store i32 %76, i32* %10, align 4
  %77 = bitcast %"class.std::__debug::vector"* %11 to %"class.__gnu_debug::_Safe_container"*
  call void @_ZN11__gnu_debug15_Safe_containerINSt7__debug6vectorIiSaIiEEES3_NS_14_Safe_sequenceELb1EED2Ev(%"class.__gnu_debug::_Safe_container"* %77) #3
  br label %50
}

; Function Attrs: noinline nounwind uwtable
define linkonce_odr void @_ZN11__gnu_debug15_Safe_containerINSt7__debug6vectorIiSaIiEEES3_NS_14_Safe_sequenceELb1EEC2Ev(%"class.__gnu_debug::_Safe_container"*) unnamed_addr #4 comdat align 2 {
  %2 = load i32, i32* @x.104
  %3 = load i32, i32* @y.105
  %4 = sub i32 %2, 1
  %5 = mul i32 %2, %4
  %6 = urem i32 %5, 2
  %7 = icmp eq i32 %6, 0
  %8 = icmp slt i32 %3, 10
  %9 = or i1 %7, %8
  br i1 %9, label %10, label %23

; <label>:10:                                     ; preds = %1, %23
  %11 = alloca %"class.__gnu_debug::_Safe_container"*, align 8
  store %"class.__gnu_debug::_Safe_container"* %0, %"class.__gnu_debug::_Safe_container"** %11, align 8
  %12 = load %"class.__gnu_debug::_Safe_container"*, %"class.__gnu_debug::_Safe_container"** %11, align 8
  %13 = bitcast %"class.__gnu_debug::_Safe_container"* %12 to %"class.__gnu_debug::_Safe_sequence"*
  call void @_ZN11__gnu_debug14_Safe_sequenceINSt7__debug6vectorIiSaIiEEEEC2Ev(%"class.__gnu_debug::_Safe_sequence"* %13) #3
  %14 = load i32, i32* @x.104
  %15 = load i32, i32* @y.105
  %16 = sub i32 %14, 1
  %17 = mul i32 %14, %16
  %18 = urem i32 %17, 2
  %19 = icmp eq i32 %18, 0
  %20 = icmp slt i32 %15, 10
  %21 = or i1 %19, %20
  br i1 %21, label %22, label %23

; <label>:22:                                     ; preds = %10
  ret void

; <label>:23:                                     ; preds = %10, %1
  %24 = alloca %"class.__gnu_debug::_Safe_container"*, align 8
  store %"class.__gnu_debug::_Safe_container"* %0, %"class.__gnu_debug::_Safe_container"** %24, align 8
  %25 = load %"class.__gnu_debug::_Safe_container"*, %"class.__gnu_debug::_Safe_container"** %24, align 8
  %26 = bitcast %"class.__gnu_debug::_Safe_container"* %25 to %"class.__gnu_debug::_Safe_sequence"*
  call void @_ZN11__gnu_debug14_Safe_sequenceINSt7__debug6vectorIiSaIiEEEEC2Ev(%"class.__gnu_debug::_Safe_sequence"* %26) #3
  br label %10
}

; Function Attrs: noinline uwtable
define linkonce_odr void @_ZNSt9__cxx19986vectorIiSaIiEEC2EmRKiRKS1_(%"class.std::__cxx1998::vector"*, i64, i32* dereferenceable(4), %"class.std::allocator.0"* dereferenceable(1)) unnamed_addr #0 comdat align 2 personality i8* bitcast (i32 (...)* @__gxx_personality_v0 to i8*) {
  %5 = load i32, i32* @x.106
  %6 = load i32, i32* @y.107
  %7 = sub i32 %5, 1
  %8 = mul i32 %5, %7
  %9 = urem i32 %8, 2
  %10 = icmp eq i32 %9, 0
  %11 = icmp slt i32 %6, 10
  %12 = or i1 %10, %11
  br i1 %12, label %13, label %64

; <label>:13:                                     ; preds = %4, %64
  %14 = alloca %"class.std::__cxx1998::vector"*, align 8
  %15 = alloca i64, align 8
  %16 = alloca i32*, align 8
  %17 = alloca %"class.std::allocator.0"*, align 8
  %18 = alloca i8*
  %19 = alloca i32
  store %"class.std::__cxx1998::vector"* %0, %"class.std::__cxx1998::vector"** %14, align 8
  store i64 %1, i64* %15, align 8
  store i32* %2, i32** %16, align 8
  store %"class.std::allocator.0"* %3, %"class.std::allocator.0"** %17, align 8
  %20 = load %"class.std::__cxx1998::vector"*, %"class.std::__cxx1998::vector"** %14, align 8
  %21 = bitcast %"class.std::__cxx1998::vector"* %20 to %"struct.std::__cxx1998::_Vector_base"*
  %22 = load i64, i64* %15, align 8
  %23 = load %"class.std::allocator.0"*, %"class.std::allocator.0"** %17, align 8
  call void @_ZNSt9__cxx199812_Vector_baseIiSaIiEEC2EmRKS1_(%"struct.std::__cxx1998::_Vector_base"* %21, i64 %22, %"class.std::allocator.0"* dereferenceable(1) %23)
  %24 = load i64, i64* %15, align 8
  %25 = load i32*, i32** %16, align 8
  %26 = load i32, i32* @x.106
  %27 = load i32, i32* @y.107
  %28 = sub i32 %26, 1
  %29 = mul i32 %26, %28
  %30 = urem i32 %29, 2
  %31 = icmp eq i32 %30, 0
  %32 = icmp slt i32 %27, 10
  %33 = or i1 %31, %32
  br i1 %33, label %34, label %64

; <label>:34:                                     ; preds = %13
  invoke void @_ZNSt9__cxx19986vectorIiSaIiEE18_M_fill_initializeEmRKi(%"class.std::__cxx1998::vector"* %20, i64 %24, i32* dereferenceable(4) %25)
          to label %35 unwind label %36

; <label>:35:                                     ; preds = %34
  ret void

; <label>:36:                                     ; preds = %34
  %37 = load i32, i32* @x.106
  %38 = load i32, i32* @y.107
  %39 = sub i32 %37, 1
  %40 = mul i32 %37, %39
  %41 = urem i32 %40, 2
  %42 = icmp eq i32 %41, 0
  %43 = icmp slt i32 %38, 10
  %44 = or i1 %42, %43
  br i1 %44, label %45, label %77

; <label>:45:                                     ; preds = %36, %77
  %46 = landingpad { i8*, i32 }
          cleanup
  %47 = extractvalue { i8*, i32 } %46, 0
  store i8* %47, i8** %18, align 8
  %48 = extractvalue { i8*, i32 } %46, 1
  store i32 %48, i32* %19, align 4
  %49 = bitcast %"class.std::__cxx1998::vector"* %20 to %"struct.std::__cxx1998::_Vector_base"*
  call void @_ZNSt9__cxx199812_Vector_baseIiSaIiEED2Ev(%"struct.std::__cxx1998::_Vector_base"* %49) #3
  %50 = load i32, i32* @x.106
  %51 = load i32, i32* @y.107
  %52 = sub i32 %50, 1
  %53 = mul i32 %50, %52
  %54 = urem i32 %53, 2
  %55 = icmp eq i32 %54, 0
  %56 = icmp slt i32 %51, 10
  %57 = or i1 %55, %56
  br i1 %57, label %58, label %77

; <label>:58:                                     ; preds = %45
  br label %59

; <label>:59:                                     ; preds = %58
  %60 = load i8*, i8** %18, align 8
  %61 = load i32, i32* %19, align 4
  %62 = insertvalue { i8*, i32 } undef, i8* %60, 0
  %63 = insertvalue { i8*, i32 } %62, i32 %61, 1
  resume { i8*, i32 } %63

; <label>:64:                                     ; preds = %13, %4
  %65 = alloca %"class.std::__cxx1998::vector"*, align 8
  %66 = alloca i64, align 8
  %67 = alloca i32*, align 8
  %68 = alloca %"class.std::allocator.0"*, align 8
  %69 = alloca i8*
  %70 = alloca i32
  store %"class.std::__cxx1998::vector"* %0, %"class.std::__cxx1998::vector"** %65, align 8
  store i64 %1, i64* %66, align 8
  store i32* %2, i32** %67, align 8
  store %"class.std::allocator.0"* %3, %"class.std::allocator.0"** %68, align 8
  %71 = load %"class.std::__cxx1998::vector"*, %"class.std::__cxx1998::vector"** %65, align 8
  %72 = bitcast %"class.std::__cxx1998::vector"* %71 to %"struct.std::__cxx1998::_Vector_base"*
  %73 = load i64, i64* %66, align 8
  %74 = load %"class.std::allocator.0"*, %"class.std::allocator.0"** %68, align 8
  call void @_ZNSt9__cxx199812_Vector_baseIiSaIiEEC2EmRKS1_(%"struct.std::__cxx1998::_Vector_base"* %72, i64 %73, %"class.std::allocator.0"* dereferenceable(1) %74)
  %75 = load i64, i64* %66, align 8
  %76 = load i32*, i32** %67, align 8
  br label %13

; <label>:77:                                     ; preds = %45, %36
  %78 = landingpad { i8*, i32 }
          cleanup
  %79 = extractvalue { i8*, i32 } %78, 0
  store i8* %79, i8** %18, align 8
  %80 = extractvalue { i8*, i32 } %78, 1
  store i32 %80, i32* %19, align 4
  %81 = bitcast %"class.std::__cxx1998::vector"* %20 to %"struct.std::__cxx1998::_Vector_base"*
  call void @_ZNSt9__cxx199812_Vector_baseIiSaIiEED2Ev(%"struct.std::__cxx1998::_Vector_base"* %81) #3
  br label %45
}

; Function Attrs: noinline nounwind uwtable
define linkonce_odr void @_ZN11__gnu_debug12_Safe_vectorINSt7__debug6vectorIiSaIiEEENSt9__cxx19986vectorIiS3_EEEC2Ev(%"class.__gnu_debug::_Safe_vector"*) unnamed_addr #4 comdat align 2 {
  %2 = alloca %"class.__gnu_debug::_Safe_vector"*, align 8
  store %"class.__gnu_debug::_Safe_vector"* %0, %"class.__gnu_debug::_Safe_vector"** %2, align 8
  %3 = load %"class.__gnu_debug::_Safe_vector"*, %"class.__gnu_debug::_Safe_vector"** %2, align 8
  %4 = getelementptr inbounds %"class.__gnu_debug::_Safe_vector", %"class.__gnu_debug::_Safe_vector"* %3, i32 0, i32 0
  store i64 0, i64* %4, align 8
  call void @_ZN11__gnu_debug12_Safe_vectorINSt7__debug6vectorIiSaIiEEENSt9__cxx19986vectorIiS3_EEE29_M_update_guaranteed_capacityEv(%"class.__gnu_debug::_Safe_vector"* %3) #3
  ret void
}

; Function Attrs: noinline nounwind uwtable
define linkonce_odr void @_ZN11__gnu_debug15_Safe_containerINSt7__debug6vectorIiSaIiEEES3_NS_14_Safe_sequenceELb1EED2Ev(%"class.__gnu_debug::_Safe_container"*) unnamed_addr #4 comdat align 2 {
  %2 = alloca %"class.__gnu_debug::_Safe_container"*, align 8
  store %"class.__gnu_debug::_Safe_container"* %0, %"class.__gnu_debug::_Safe_container"** %2, align 8
  %3 = load %"class.__gnu_debug::_Safe_container"*, %"class.__gnu_debug::_Safe_container"** %2, align 8
  %4 = bitcast %"class.__gnu_debug::_Safe_container"* %3 to %"class.__gnu_debug::_Safe_sequence"*
  call void @_ZN11__gnu_debug14_Safe_sequenceINSt7__debug6vectorIiSaIiEEEED2Ev(%"class.__gnu_debug::_Safe_sequence"* %4) #3
  ret void
}

; Function Attrs: noinline nounwind uwtable
define linkonce_odr void @_ZN11__gnu_debug14_Safe_sequenceINSt7__debug6vectorIiSaIiEEEEC2Ev(%"class.__gnu_debug::_Safe_sequence"*) unnamed_addr #4 comdat align 2 {
  %2 = load i32, i32* @x.112
  %3 = load i32, i32* @y.113
  %4 = sub i32 %2, 1
  %5 = mul i32 %2, %4
  %6 = urem i32 %5, 2
  %7 = icmp eq i32 %6, 0
  %8 = icmp slt i32 %3, 10
  %9 = or i1 %7, %8
  br i1 %9, label %10, label %23

; <label>:10:                                     ; preds = %1, %23
  %11 = alloca %"class.__gnu_debug::_Safe_sequence"*, align 8
  store %"class.__gnu_debug::_Safe_sequence"* %0, %"class.__gnu_debug::_Safe_sequence"** %11, align 8
  %12 = load %"class.__gnu_debug::_Safe_sequence"*, %"class.__gnu_debug::_Safe_sequence"** %11, align 8
  %13 = bitcast %"class.__gnu_debug::_Safe_sequence"* %12 to %"class.__gnu_debug::_Safe_sequence_base"*
  call void @_ZN11__gnu_debug19_Safe_sequence_baseC2Ev(%"class.__gnu_debug::_Safe_sequence_base"* %13) #3
  %14 = load i32, i32* @x.112
  %15 = load i32, i32* @y.113
  %16 = sub i32 %14, 1
  %17 = mul i32 %14, %16
  %18 = urem i32 %17, 2
  %19 = icmp eq i32 %18, 0
  %20 = icmp slt i32 %15, 10
  %21 = or i1 %19, %20
  br i1 %21, label %22, label %23

; <label>:22:                                     ; preds = %10
  ret void

; <label>:23:                                     ; preds = %10, %1
  %24 = alloca %"class.__gnu_debug::_Safe_sequence"*, align 8
  store %"class.__gnu_debug::_Safe_sequence"* %0, %"class.__gnu_debug::_Safe_sequence"** %24, align 8
  %25 = load %"class.__gnu_debug::_Safe_sequence"*, %"class.__gnu_debug::_Safe_sequence"** %24, align 8
  %26 = bitcast %"class.__gnu_debug::_Safe_sequence"* %25 to %"class.__gnu_debug::_Safe_sequence_base"*
  call void @_ZN11__gnu_debug19_Safe_sequence_baseC2Ev(%"class.__gnu_debug::_Safe_sequence_base"* %26) #3
  br label %10
}

; Function Attrs: noinline nounwind uwtable
define linkonce_odr void @_ZN11__gnu_debug19_Safe_sequence_baseC2Ev(%"class.__gnu_debug::_Safe_sequence_base"*) unnamed_addr #4 comdat align 2 {
  %2 = alloca %"class.__gnu_debug::_Safe_sequence_base"*, align 8
  store %"class.__gnu_debug::_Safe_sequence_base"* %0, %"class.__gnu_debug::_Safe_sequence_base"** %2, align 8
  %3 = load %"class.__gnu_debug::_Safe_sequence_base"*, %"class.__gnu_debug::_Safe_sequence_base"** %2, align 8
  %4 = getelementptr inbounds %"class.__gnu_debug::_Safe_sequence_base", %"class.__gnu_debug::_Safe_sequence_base"* %3, i32 0, i32 0
  store %"class.__gnu_debug::_Safe_iterator_base"* null, %"class.__gnu_debug::_Safe_iterator_base"** %4, align 8
  %5 = getelementptr inbounds %"class.__gnu_debug::_Safe_sequence_base", %"class.__gnu_debug::_Safe_sequence_base"* %3, i32 0, i32 1
  store %"class.__gnu_debug::_Safe_iterator_base"* null, %"class.__gnu_debug::_Safe_iterator_base"** %5, align 8
  %6 = getelementptr inbounds %"class.__gnu_debug::_Safe_sequence_base", %"class.__gnu_debug::_Safe_sequence_base"* %3, i32 0, i32 2
  store i32 1, i32* %6, align 8
  ret void
}

; Function Attrs: noinline uwtable
define linkonce_odr void @_ZNSt9__cxx199812_Vector_baseIiSaIiEEC2EmRKS1_(%"struct.std::__cxx1998::_Vector_base"*, i64, %"class.std::allocator.0"* dereferenceable(1)) unnamed_addr #0 comdat align 2 personality i8* bitcast (i32 (...)* @__gxx_personality_v0 to i8*) {
  %4 = load i32, i32* @x.116
  %5 = load i32, i32* @y.117
  %6 = sub i32 %4, 1
  %7 = mul i32 %4, %6
  %8 = urem i32 %7, 2
  %9 = icmp eq i32 %8, 0
  %10 = icmp slt i32 %5, 10
  %11 = or i1 %9, %10
  br i1 %11, label %12, label %59

; <label>:12:                                     ; preds = %3, %59
  %13 = alloca %"struct.std::__cxx1998::_Vector_base"*, align 8
  %14 = alloca i64, align 8
  %15 = alloca %"class.std::allocator.0"*, align 8
  %16 = alloca i8*
  %17 = alloca i32
  store %"struct.std::__cxx1998::_Vector_base"* %0, %"struct.std::__cxx1998::_Vector_base"** %13, align 8
  store i64 %1, i64* %14, align 8
  store %"class.std::allocator.0"* %2, %"class.std::allocator.0"** %15, align 8
  %18 = load %"struct.std::__cxx1998::_Vector_base"*, %"struct.std::__cxx1998::_Vector_base"** %13, align 8
  %19 = getelementptr inbounds %"struct.std::__cxx1998::_Vector_base", %"struct.std::__cxx1998::_Vector_base"* %18, i32 0, i32 0
  %20 = load %"class.std::allocator.0"*, %"class.std::allocator.0"** %15, align 8
  call void @_ZNSt9__cxx199812_Vector_baseIiSaIiEE12_Vector_implC2ERKS1_(%"struct.std::__cxx1998::_Vector_base<int, std::allocator<int> >::_Vector_impl"* %19, %"class.std::allocator.0"* dereferenceable(1) %20) #3
  %21 = load i64, i64* %14, align 8
  %22 = load i32, i32* @x.116
  %23 = load i32, i32* @y.117
  %24 = sub i32 %22, 1
  %25 = mul i32 %22, %24
  %26 = urem i32 %25, 2
  %27 = icmp eq i32 %26, 0
  %28 = icmp slt i32 %23, 10
  %29 = or i1 %27, %28
  br i1 %29, label %30, label %59

; <label>:30:                                     ; preds = %12
  invoke void @_ZNSt9__cxx199812_Vector_baseIiSaIiEE17_M_create_storageEm(%"struct.std::__cxx1998::_Vector_base"* %18, i64 %21)
          to label %31 unwind label %32

; <label>:31:                                     ; preds = %30
  ret void

; <label>:32:                                     ; preds = %30
  %33 = load i32, i32* @x.116
  %34 = load i32, i32* @y.117
  %35 = sub i32 %33, 1
  %36 = mul i32 %33, %35
  %37 = urem i32 %36, 2
  %38 = icmp eq i32 %37, 0
  %39 = icmp slt i32 %34, 10
  %40 = or i1 %38, %39
  br i1 %40, label %41, label %69

; <label>:41:                                     ; preds = %32, %69
  %42 = landingpad { i8*, i32 }
          cleanup
  %43 = extractvalue { i8*, i32 } %42, 0
  store i8* %43, i8** %16, align 8
  %44 = extractvalue { i8*, i32 } %42, 1
  store i32 %44, i32* %17, align 4
  call void @_ZNSt9__cxx199812_Vector_baseIiSaIiEE12_Vector_implD2Ev(%"struct.std::__cxx1998::_Vector_base<int, std::allocator<int> >::_Vector_impl"* %19) #3
  %45 = load i32, i32* @x.116
  %46 = load i32, i32* @y.117
  %47 = sub i32 %45, 1
  %48 = mul i32 %45, %47
  %49 = urem i32 %48, 2
  %50 = icmp eq i32 %49, 0
  %51 = icmp slt i32 %46, 10
  %52 = or i1 %50, %51
  br i1 %52, label %53, label %69

; <label>:53:                                     ; preds = %41
  br label %54

; <label>:54:                                     ; preds = %53
  %55 = load i8*, i8** %16, align 8
  %56 = load i32, i32* %17, align 4
  %57 = insertvalue { i8*, i32 } undef, i8* %55, 0
  %58 = insertvalue { i8*, i32 } %57, i32 %56, 1
  resume { i8*, i32 } %58

; <label>:59:                                     ; preds = %12, %3
  %60 = alloca %"struct.std::__cxx1998::_Vector_base"*, align 8
  %61 = alloca i64, align 8
  %62 = alloca %"class.std::allocator.0"*, align 8
  %63 = alloca i8*
  %64 = alloca i32
  store %"struct.std::__cxx1998::_Vector_base"* %0, %"struct.std::__cxx1998::_Vector_base"** %60, align 8
  store i64 %1, i64* %61, align 8
  store %"class.std::allocator.0"* %2, %"class.std::allocator.0"** %62, align 8
  %65 = load %"struct.std::__cxx1998::_Vector_base"*, %"struct.std::__cxx1998::_Vector_base"** %60, align 8
  %66 = getelementptr inbounds %"struct.std::__cxx1998::_Vector_base", %"struct.std::__cxx1998::_Vector_base"* %65, i32 0, i32 0
  %67 = load %"class.std::allocator.0"*, %"class.std::allocator.0"** %62, align 8
  call void @_ZNSt9__cxx199812_Vector_baseIiSaIiEE12_Vector_implC2ERKS1_(%"struct.std::__cxx1998::_Vector_base<int, std::allocator<int> >::_Vector_impl"* %66, %"class.std::allocator.0"* dereferenceable(1) %67) #3
  %68 = load i64, i64* %61, align 8
  br label %12

; <label>:69:                                     ; preds = %41, %32
  %70 = landingpad { i8*, i32 }
          cleanup
  %71 = extractvalue { i8*, i32 } %70, 0
  store i8* %71, i8** %16, align 8
  %72 = extractvalue { i8*, i32 } %70, 1
  store i32 %72, i32* %17, align 4
  call void @_ZNSt9__cxx199812_Vector_baseIiSaIiEE12_Vector_implD2Ev(%"struct.std::__cxx1998::_Vector_base<int, std::allocator<int> >::_Vector_impl"* %19) #3
  br label %41
}

; Function Attrs: noinline uwtable
define linkonce_odr void @_ZNSt9__cxx19986vectorIiSaIiEE18_M_fill_initializeEmRKi(%"class.std::__cxx1998::vector"*, i64, i32* dereferenceable(4)) #0 comdat align 2 {
  %4 = alloca %"class.std::__cxx1998::vector"*, align 8
  %5 = alloca i64, align 8
  %6 = alloca i32*, align 8
  store %"class.std::__cxx1998::vector"* %0, %"class.std::__cxx1998::vector"** %4, align 8
  store i64 %1, i64* %5, align 8
  store i32* %2, i32** %6, align 8
  %7 = load %"class.std::__cxx1998::vector"*, %"class.std::__cxx1998::vector"** %4, align 8
  %8 = bitcast %"class.std::__cxx1998::vector"* %7 to %"struct.std::__cxx1998::_Vector_base"*
  %9 = getelementptr inbounds %"struct.std::__cxx1998::_Vector_base", %"struct.std::__cxx1998::_Vector_base"* %8, i32 0, i32 0
  %10 = getelementptr inbounds %"struct.std::__cxx1998::_Vector_base<int, std::allocator<int> >::_Vector_impl", %"struct.std::__cxx1998::_Vector_base<int, std::allocator<int> >::_Vector_impl"* %9, i32 0, i32 0
  %11 = load i32*, i32** %10, align 8
  %12 = load i64, i64* %5, align 8
  %13 = load i32*, i32** %6, align 8
  %14 = bitcast %"class.std::__cxx1998::vector"* %7 to %"struct.std::__cxx1998::_Vector_base"*
  %15 = call dereferenceable(1) %"class.std::allocator.0"* @_ZNSt9__cxx199812_Vector_baseIiSaIiEE19_M_get_Tp_allocatorEv(%"struct.std::__cxx1998::_Vector_base"* %14) #3
  %16 = call i32* @_ZSt24__uninitialized_fill_n_aIPimiiET_S1_T0_RKT1_RSaIT2_E(i32* %11, i64 %12, i32* dereferenceable(4) %13, %"class.std::allocator.0"* dereferenceable(1) %15)
  %17 = bitcast %"class.std::__cxx1998::vector"* %7 to %"struct.std::__cxx1998::_Vector_base"*
  %18 = getelementptr inbounds %"struct.std::__cxx1998::_Vector_base", %"struct.std::__cxx1998::_Vector_base"* %17, i32 0, i32 0
  %19 = getelementptr inbounds %"struct.std::__cxx1998::_Vector_base<int, std::allocator<int> >::_Vector_impl", %"struct.std::__cxx1998::_Vector_base<int, std::allocator<int> >::_Vector_impl"* %18, i32 0, i32 1
  store i32* %16, i32** %19, align 8
  ret void
}

; Function Attrs: noinline nounwind uwtable
define linkonce_odr void @_ZNSt9__cxx199812_Vector_baseIiSaIiEED2Ev(%"struct.std::__cxx1998::_Vector_base"*) unnamed_addr #4 comdat align 2 personality i8* bitcast (i32 (...)* @__gxx_personality_v0 to i8*) {
  %2 = alloca %"struct.std::__cxx1998::_Vector_base"*, align 8
  %3 = alloca i8*
  %4 = alloca i32
  store %"struct.std::__cxx1998::_Vector_base"* %0, %"struct.std::__cxx1998::_Vector_base"** %2, align 8
  %5 = load %"struct.std::__cxx1998::_Vector_base"*, %"struct.std::__cxx1998::_Vector_base"** %2, align 8
  %6 = getelementptr inbounds %"struct.std::__cxx1998::_Vector_base", %"struct.std::__cxx1998::_Vector_base"* %5, i32 0, i32 0
  %7 = getelementptr inbounds %"struct.std::__cxx1998::_Vector_base<int, std::allocator<int> >::_Vector_impl", %"struct.std::__cxx1998::_Vector_base<int, std::allocator<int> >::_Vector_impl"* %6, i32 0, i32 0
  %8 = load i32*, i32** %7, align 8
  %9 = getelementptr inbounds %"struct.std::__cxx1998::_Vector_base", %"struct.std::__cxx1998::_Vector_base"* %5, i32 0, i32 0
  %10 = getelementptr inbounds %"struct.std::__cxx1998::_Vector_base<int, std::allocator<int> >::_Vector_impl", %"struct.std::__cxx1998::_Vector_base<int, std::allocator<int> >::_Vector_impl"* %9, i32 0, i32 2
  %11 = load i32*, i32** %10, align 8
  %12 = getelementptr inbounds %"struct.std::__cxx1998::_Vector_base", %"struct.std::__cxx1998::_Vector_base"* %5, i32 0, i32 0
  %13 = getelementptr inbounds %"struct.std::__cxx1998::_Vector_base<int, std::allocator<int> >::_Vector_impl", %"struct.std::__cxx1998::_Vector_base<int, std::allocator<int> >::_Vector_impl"* %12, i32 0, i32 0
  %14 = load i32*, i32** %13, align 8
  %15 = ptrtoint i32* %11 to i64
  %16 = ptrtoint i32* %14 to i64
  %17 = sub i64 %15, %16
  %18 = sdiv exact i64 %17, 4
  invoke void @_ZNSt9__cxx199812_Vector_baseIiSaIiEE13_M_deallocateEPim(%"struct.std::__cxx1998::_Vector_base"* %5, i32* %8, i64 %18)
          to label %19 unwind label %39

; <label>:19:                                     ; preds = %1
  %20 = load i32, i32* @x.120
  %21 = load i32, i32* @y.121
  %22 = sub i32 %20, 1
  %23 = mul i32 %20, %22
  %24 = urem i32 %23, 2
  %25 = icmp eq i32 %24, 0
  %26 = icmp slt i32 %21, 10
  %27 = or i1 %25, %26
  br i1 %27, label %28, label %46

; <label>:28:                                     ; preds = %19, %46
  %29 = getelementptr inbounds %"struct.std::__cxx1998::_Vector_base", %"struct.std::__cxx1998::_Vector_base"* %5, i32 0, i32 0
  call void @_ZNSt9__cxx199812_Vector_baseIiSaIiEE12_Vector_implD2Ev(%"struct.std::__cxx1998::_Vector_base<int, std::allocator<int> >::_Vector_impl"* %29) #3
  %30 = load i32, i32* @x.120
  %31 = load i32, i32* @y.121
  %32 = sub i32 %30, 1
  %33 = mul i32 %30, %32
  %34 = urem i32 %33, 2
  %35 = icmp eq i32 %34, 0
  %36 = icmp slt i32 %31, 10
  %37 = or i1 %35, %36
  br i1 %37, label %38, label %46

; <label>:38:                                     ; preds = %28
  ret void

; <label>:39:                                     ; preds = %1
  %40 = landingpad { i8*, i32 }
          catch i8* null
  %41 = extractvalue { i8*, i32 } %40, 0
  store i8* %41, i8** %3, align 8
  %42 = extractvalue { i8*, i32 } %40, 1
  store i32 %42, i32* %4, align 4
  %43 = getelementptr inbounds %"struct.std::__cxx1998::_Vector_base", %"struct.std::__cxx1998::_Vector_base"* %5, i32 0, i32 0
  call void @_ZNSt9__cxx199812_Vector_baseIiSaIiEE12_Vector_implD2Ev(%"struct.std::__cxx1998::_Vector_base<int, std::allocator<int> >::_Vector_impl"* %43) #3
  br label %44

; <label>:44:                                     ; preds = %39
  %45 = load i8*, i8** %3, align 8
  call void @__clang_call_terminate(i8* %45) #10
  unreachable

; <label>:46:                                     ; preds = %28, %19
  %47 = getelementptr inbounds %"struct.std::__cxx1998::_Vector_base", %"struct.std::__cxx1998::_Vector_base"* %5, i32 0, i32 0
  call void @_ZNSt9__cxx199812_Vector_baseIiSaIiEE12_Vector_implD2Ev(%"struct.std::__cxx1998::_Vector_base<int, std::allocator<int> >::_Vector_impl"* %47) #3
  br label %28
}

; Function Attrs: noinline nounwind uwtable
define linkonce_odr void @_ZNSt9__cxx199812_Vector_baseIiSaIiEE12_Vector_implC2ERKS1_(%"struct.std::__cxx1998::_Vector_base<int, std::allocator<int> >::_Vector_impl"*, %"class.std::allocator.0"* dereferenceable(1)) unnamed_addr #4 comdat align 2 {
  %3 = alloca %"struct.std::__cxx1998::_Vector_base<int, std::allocator<int> >::_Vector_impl"*, align 8
  %4 = alloca %"class.std::allocator.0"*, align 8
  store %"struct.std::__cxx1998::_Vector_base<int, std::allocator<int> >::_Vector_impl"* %0, %"struct.std::__cxx1998::_Vector_base<int, std::allocator<int> >::_Vector_impl"** %3, align 8
  store %"class.std::allocator.0"* %1, %"class.std::allocator.0"** %4, align 8
  %5 = load %"struct.std::__cxx1998::_Vector_base<int, std::allocator<int> >::_Vector_impl"*, %"struct.std::__cxx1998::_Vector_base<int, std::allocator<int> >::_Vector_impl"** %3, align 8
  %6 = bitcast %"struct.std::__cxx1998::_Vector_base<int, std::allocator<int> >::_Vector_impl"* %5 to %"class.std::allocator.0"*
  %7 = load %"class.std::allocator.0"*, %"class.std::allocator.0"** %4, align 8
  call void @_ZNSaIiEC2ERKS_(%"class.std::allocator.0"* %6, %"class.std::allocator.0"* dereferenceable(1) %7) #3
  %8 = getelementptr inbounds %"struct.std::__cxx1998::_Vector_base<int, std::allocator<int> >::_Vector_impl", %"struct.std::__cxx1998::_Vector_base<int, std::allocator<int> >::_Vector_impl"* %5, i32 0, i32 0
  store i32* null, i32** %8, align 8
  %9 = getelementptr inbounds %"struct.std::__cxx1998::_Vector_base<int, std::allocator<int> >::_Vector_impl", %"struct.std::__cxx1998::_Vector_base<int, std::allocator<int> >::_Vector_impl"* %5, i32 0, i32 1
  store i32* null, i32** %9, align 8
  %10 = getelementptr inbounds %"struct.std::__cxx1998::_Vector_base<int, std::allocator<int> >::_Vector_impl", %"struct.std::__cxx1998::_Vector_base<int, std::allocator<int> >::_Vector_impl"* %5, i32 0, i32 2
  store i32* null, i32** %10, align 8
  ret void
}

; Function Attrs: noinline uwtable
define linkonce_odr void @_ZNSt9__cxx199812_Vector_baseIiSaIiEE17_M_create_storageEm(%"struct.std::__cxx1998::_Vector_base"*, i64) #0 comdat align 2 {
  %3 = alloca %"struct.std::__cxx1998::_Vector_base"*, align 8
  %4 = alloca i64, align 8
  store %"struct.std::__cxx1998::_Vector_base"* %0, %"struct.std::__cxx1998::_Vector_base"** %3, align 8
  store i64 %1, i64* %4, align 8
  %5 = load %"struct.std::__cxx1998::_Vector_base"*, %"struct.std::__cxx1998::_Vector_base"** %3, align 8
  %6 = load i64, i64* %4, align 8
  %7 = call i32* @_ZNSt9__cxx199812_Vector_baseIiSaIiEE11_M_allocateEm(%"struct.std::__cxx1998::_Vector_base"* %5, i64 %6)
  %8 = getelementptr inbounds %"struct.std::__cxx1998::_Vector_base", %"struct.std::__cxx1998::_Vector_base"* %5, i32 0, i32 0
  %9 = getelementptr inbounds %"struct.std::__cxx1998::_Vector_base<int, std::allocator<int> >::_Vector_impl", %"struct.std::__cxx1998::_Vector_base<int, std::allocator<int> >::_Vector_impl"* %8, i32 0, i32 0
  store i32* %7, i32** %9, align 8
  %10 = getelementptr inbounds %"struct.std::__cxx1998::_Vector_base", %"struct.std::__cxx1998::_Vector_base"* %5, i32 0, i32 0
  %11 = getelementptr inbounds %"struct.std::__cxx1998::_Vector_base<int, std::allocator<int> >::_Vector_impl", %"struct.std::__cxx1998::_Vector_base<int, std::allocator<int> >::_Vector_impl"* %10, i32 0, i32 0
  %12 = load i32*, i32** %11, align 8
  %13 = getelementptr inbounds %"struct.std::__cxx1998::_Vector_base", %"struct.std::__cxx1998::_Vector_base"* %5, i32 0, i32 0
  %14 = getelementptr inbounds %"struct.std::__cxx1998::_Vector_base<int, std::allocator<int> >::_Vector_impl", %"struct.std::__cxx1998::_Vector_base<int, std::allocator<int> >::_Vector_impl"* %13, i32 0, i32 1
  store i32* %12, i32** %14, align 8
  %15 = getelementptr inbounds %"struct.std::__cxx1998::_Vector_base", %"struct.std::__cxx1998::_Vector_base"* %5, i32 0, i32 0
  %16 = getelementptr inbounds %"struct.std::__cxx1998::_Vector_base<int, std::allocator<int> >::_Vector_impl", %"struct.std::__cxx1998::_Vector_base<int, std::allocator<int> >::_Vector_impl"* %15, i32 0, i32 0
  %17 = load i32*, i32** %16, align 8
  %18 = load i64, i64* %4, align 8
  %19 = getelementptr inbounds i32, i32* %17, i64 %18
  %20 = getelementptr inbounds %"struct.std::__cxx1998::_Vector_base", %"struct.std::__cxx1998::_Vector_base"* %5, i32 0, i32 0
  %21 = getelementptr inbounds %"struct.std::__cxx1998::_Vector_base<int, std::allocator<int> >::_Vector_impl", %"struct.std::__cxx1998::_Vector_base<int, std::allocator<int> >::_Vector_impl"* %20, i32 0, i32 2
  store i32* %19, i32** %21, align 8
  ret void
}

; Function Attrs: noinline nounwind uwtable
define linkonce_odr void @_ZNSt9__cxx199812_Vector_baseIiSaIiEE12_Vector_implD2Ev(%"struct.std::__cxx1998::_Vector_base<int, std::allocator<int> >::_Vector_impl"*) unnamed_addr #4 comdat align 2 {
  %2 = alloca %"struct.std::__cxx1998::_Vector_base<int, std::allocator<int> >::_Vector_impl"*, align 8
  store %"struct.std::__cxx1998::_Vector_base<int, std::allocator<int> >::_Vector_impl"* %0, %"struct.std::__cxx1998::_Vector_base<int, std::allocator<int> >::_Vector_impl"** %2, align 8
  %3 = load %"struct.std::__cxx1998::_Vector_base<int, std::allocator<int> >::_Vector_impl"*, %"struct.std::__cxx1998::_Vector_base<int, std::allocator<int> >::_Vector_impl"** %2, align 8
  %4 = bitcast %"struct.std::__cxx1998::_Vector_base<int, std::allocator<int> >::_Vector_impl"* %3 to %"class.std::allocator.0"*
  call void @_ZNSaIiED2Ev(%"class.std::allocator.0"* %4) #3
  ret void
}

; Function Attrs: noinline nounwind uwtable
define linkonce_odr void @_ZN9__gnu_cxx13new_allocatorIiEC2ERKS1_(%"class.__gnu_cxx::new_allocator.1"*, %"class.__gnu_cxx::new_allocator.1"* dereferenceable(1)) unnamed_addr #4 comdat align 2 {
  %3 = load i32, i32* @x.128
  %4 = load i32, i32* @y.129
  %5 = sub i32 %3, 1
  %6 = mul i32 %3, %5
  %7 = urem i32 %6, 2
  %8 = icmp eq i32 %7, 0
  %9 = icmp slt i32 %4, 10
  %10 = or i1 %8, %9
  br i1 %10, label %11, label %24

; <label>:11:                                     ; preds = %2, %24
  %12 = alloca %"class.__gnu_cxx::new_allocator.1"*, align 8
  %13 = alloca %"class.__gnu_cxx::new_allocator.1"*, align 8
  store %"class.__gnu_cxx::new_allocator.1"* %0, %"class.__gnu_cxx::new_allocator.1"** %12, align 8
  store %"class.__gnu_cxx::new_allocator.1"* %1, %"class.__gnu_cxx::new_allocator.1"** %13, align 8
  %14 = load %"class.__gnu_cxx::new_allocator.1"*, %"class.__gnu_cxx::new_allocator.1"** %12, align 8
  %15 = load i32, i32* @x.128
  %16 = load i32, i32* @y.129
  %17 = sub i32 %15, 1
  %18 = mul i32 %15, %17
  %19 = urem i32 %18, 2
  %20 = icmp eq i32 %19, 0
  %21 = icmp slt i32 %16, 10
  %22 = or i1 %20, %21
  br i1 %22, label %23, label %24

; <label>:23:                                     ; preds = %11
  ret void

; <label>:24:                                     ; preds = %11, %2
  %25 = alloca %"class.__gnu_cxx::new_allocator.1"*, align 8
  %26 = alloca %"class.__gnu_cxx::new_allocator.1"*, align 8
  store %"class.__gnu_cxx::new_allocator.1"* %0, %"class.__gnu_cxx::new_allocator.1"** %25, align 8
  store %"class.__gnu_cxx::new_allocator.1"* %1, %"class.__gnu_cxx::new_allocator.1"** %26, align 8
  %27 = load %"class.__gnu_cxx::new_allocator.1"*, %"class.__gnu_cxx::new_allocator.1"** %25, align 8
  br label %11
}

; Function Attrs: noinline uwtable
define linkonce_odr i32* @_ZNSt9__cxx199812_Vector_baseIiSaIiEE11_M_allocateEm(%"struct.std::__cxx1998::_Vector_base"*, i64) #0 comdat align 2 {
  %3 = alloca %"struct.std::__cxx1998::_Vector_base"*, align 8
  %4 = alloca i64, align 8
  store %"struct.std::__cxx1998::_Vector_base"* %0, %"struct.std::__cxx1998::_Vector_base"** %3, align 8
  store i64 %1, i64* %4, align 8
  %5 = load %"struct.std::__cxx1998::_Vector_base"*, %"struct.std::__cxx1998::_Vector_base"** %3, align 8
  %6 = load i64, i64* %4, align 8
  %7 = icmp ne i64 %6, 0
  br i1 %7, label %8, label %13

; <label>:8:                                      ; preds = %2
  %9 = getelementptr inbounds %"struct.std::__cxx1998::_Vector_base", %"struct.std::__cxx1998::_Vector_base"* %5, i32 0, i32 0
  %10 = bitcast %"struct.std::__cxx1998::_Vector_base<int, std::allocator<int> >::_Vector_impl"* %9 to %"class.std::allocator.0"*
  %11 = load i64, i64* %4, align 8
  %12 = call i32* @_ZNSt16allocator_traitsISaIiEE8allocateERS0_m(%"class.std::allocator.0"* dereferenceable(1) %10, i64 %11)
  br label %14

; <label>:13:                                     ; preds = %2
  br label %14

; <label>:14:                                     ; preds = %13, %8
  %15 = phi i32* [ %12, %8 ], [ null, %13 ]
  ret i32* %15
}

; Function Attrs: noinline uwtable
define linkonce_odr i32* @_ZNSt16allocator_traitsISaIiEE8allocateERS0_m(%"class.std::allocator.0"* dereferenceable(1), i64) #0 comdat align 2 {
  %3 = alloca %"class.std::allocator.0"*, align 8
  %4 = alloca i64, align 8
  store %"class.std::allocator.0"* %0, %"class.std::allocator.0"** %3, align 8
  store i64 %1, i64* %4, align 8
  %5 = load %"class.std::allocator.0"*, %"class.std::allocator.0"** %3, align 8
  %6 = bitcast %"class.std::allocator.0"* %5 to %"class.__gnu_cxx::new_allocator.1"*
  %7 = load i64, i64* %4, align 8
  %8 = call i32* @_ZN9__gnu_cxx13new_allocatorIiE8allocateEmPKv(%"class.__gnu_cxx::new_allocator.1"* %6, i64 %7, i8* null)
  ret i32* %8
}

; Function Attrs: noinline uwtable
define linkonce_odr i32* @_ZN9__gnu_cxx13new_allocatorIiE8allocateEmPKv(%"class.__gnu_cxx::new_allocator.1"*, i64, i8*) #0 comdat align 2 {
  %4 = load i32, i32* @x.134
  %5 = load i32, i32* @y.135
  %6 = sub i32 %4, 1
  %7 = mul i32 %4, %6
  %8 = urem i32 %7, 2
  %9 = icmp eq i32 %8, 0
  %10 = icmp slt i32 %5, 10
  %11 = or i1 %9, %10
  br i1 %11, label %12, label %35

; <label>:12:                                     ; preds = %3, %35
  %13 = alloca %"class.__gnu_cxx::new_allocator.1"*, align 8
  %14 = alloca i64, align 8
  %15 = alloca i8*, align 8
  store %"class.__gnu_cxx::new_allocator.1"* %0, %"class.__gnu_cxx::new_allocator.1"** %13, align 8
  store i64 %1, i64* %14, align 8
  store i8* %2, i8** %15, align 8
  %16 = load %"class.__gnu_cxx::new_allocator.1"*, %"class.__gnu_cxx::new_allocator.1"** %13, align 8
  %17 = load i64, i64* %14, align 8
  %18 = call i64 @_ZNK9__gnu_cxx13new_allocatorIiE8max_sizeEv(%"class.__gnu_cxx::new_allocator.1"* %16) #3
  %19 = icmp ugt i64 %17, %18
  %20 = load i32, i32* @x.134
  %21 = load i32, i32* @y.135
  %22 = sub i32 %20, 1
  %23 = mul i32 %20, %22
  %24 = urem i32 %23, 2
  %25 = icmp eq i32 %24, 0
  %26 = icmp slt i32 %21, 10
  %27 = or i1 %25, %26
  br i1 %27, label %28, label %35

; <label>:28:                                     ; preds = %12
  br i1 %19, label %29, label %30

; <label>:29:                                     ; preds = %28
  call void @_ZSt17__throw_bad_allocv() #13
  unreachable

; <label>:30:                                     ; preds = %28
  %31 = load i64, i64* %14, align 8
  %32 = mul i64 %31, 4
  %33 = call i8* @_Znwm(i64 %32)
  %34 = bitcast i8* %33 to i32*
  ret i32* %34

; <label>:35:                                     ; preds = %12, %3
  %36 = alloca %"class.__gnu_cxx::new_allocator.1"*, align 8
  %37 = alloca i64, align 8
  %38 = alloca i8*, align 8
  store %"class.__gnu_cxx::new_allocator.1"* %0, %"class.__gnu_cxx::new_allocator.1"** %36, align 8
  store i64 %1, i64* %37, align 8
  store i8* %2, i8** %38, align 8
  %39 = load %"class.__gnu_cxx::new_allocator.1"*, %"class.__gnu_cxx::new_allocator.1"** %36, align 8
  %40 = load i64, i64* %37, align 8
  %41 = call i64 @_ZNK9__gnu_cxx13new_allocatorIiE8max_sizeEv(%"class.__gnu_cxx::new_allocator.1"* %39) #3
  %42 = icmp ugt i64 %40, %41
  br label %12
}

; Function Attrs: noinline nounwind uwtable
define linkonce_odr i64 @_ZNK9__gnu_cxx13new_allocatorIiE8max_sizeEv(%"class.__gnu_cxx::new_allocator.1"*) #4 comdat align 2 {
  %2 = alloca %"class.__gnu_cxx::new_allocator.1"*, align 8
  store %"class.__gnu_cxx::new_allocator.1"* %0, %"class.__gnu_cxx::new_allocator.1"** %2, align 8
  %3 = load %"class.__gnu_cxx::new_allocator.1"*, %"class.__gnu_cxx::new_allocator.1"** %2, align 8
  ret i64 4611686018427387903
}

; Function Attrs: noreturn
declare void @_ZSt17__throw_bad_allocv() #6

; Function Attrs: nobuiltin
declare noalias i8* @_Znwm(i64) #7

; Function Attrs: noinline nounwind uwtable
define linkonce_odr void @_ZN9__gnu_cxx13new_allocatorIiED2Ev(%"class.__gnu_cxx::new_allocator.1"*) unnamed_addr #4 comdat align 2 {
  %2 = alloca %"class.__gnu_cxx::new_allocator.1"*, align 8
  store %"class.__gnu_cxx::new_allocator.1"* %0, %"class.__gnu_cxx::new_allocator.1"** %2, align 8
  %3 = load %"class.__gnu_cxx::new_allocator.1"*, %"class.__gnu_cxx::new_allocator.1"** %2, align 8
  ret void
}

; Function Attrs: noinline uwtable
define linkonce_odr i32* @_ZSt24__uninitialized_fill_n_aIPimiiET_S1_T0_RKT1_RSaIT2_E(i32*, i64, i32* dereferenceable(4), %"class.std::allocator.0"* dereferenceable(1)) #0 comdat {
  %5 = alloca i32*, align 8
  %6 = alloca i64, align 8
  %7 = alloca i32*, align 8
  %8 = alloca %"class.std::allocator.0"*, align 8
  store i32* %0, i32** %5, align 8
  store i64 %1, i64* %6, align 8
  store i32* %2, i32** %7, align 8
  store %"class.std::allocator.0"* %3, %"class.std::allocator.0"** %8, align 8
  %9 = load i32*, i32** %5, align 8
  %10 = load i64, i64* %6, align 8
  %11 = load i32*, i32** %7, align 8
  %12 = call i32* @_ZSt20uninitialized_fill_nIPimiET_S1_T0_RKT1_(i32* %9, i64 %10, i32* dereferenceable(4) %11)
  ret i32* %12
}

; Function Attrs: noinline nounwind uwtable
define linkonce_odr dereferenceable(1) %"class.std::allocator.0"* @_ZNSt9__cxx199812_Vector_baseIiSaIiEE19_M_get_Tp_allocatorEv(%"struct.std::__cxx1998::_Vector_base"*) #4 comdat align 2 {
  %2 = alloca %"struct.std::__cxx1998::_Vector_base"*, align 8
  store %"struct.std::__cxx1998::_Vector_base"* %0, %"struct.std::__cxx1998::_Vector_base"** %2, align 8
  %3 = load %"struct.std::__cxx1998::_Vector_base"*, %"struct.std::__cxx1998::_Vector_base"** %2, align 8
  %4 = getelementptr inbounds %"struct.std::__cxx1998::_Vector_base", %"struct.std::__cxx1998::_Vector_base"* %3, i32 0, i32 0
  %5 = bitcast %"struct.std::__cxx1998::_Vector_base<int, std::allocator<int> >::_Vector_impl"* %4 to %"class.std::allocator.0"*
  ret %"class.std::allocator.0"* %5
}

; Function Attrs: noinline uwtable
define linkonce_odr i32* @_ZSt20uninitialized_fill_nIPimiET_S1_T0_RKT1_(i32*, i64, i32* dereferenceable(4)) #0 comdat {
  %4 = alloca i32*, align 8
  %5 = alloca i64, align 8
  %6 = alloca i32*, align 8
  %7 = alloca i8, align 1
  store i32* %0, i32** %4, align 8
  store i64 %1, i64* %5, align 8
  store i32* %2, i32** %6, align 8
  store i8 1, i8* %7, align 1
  %8 = load i32*, i32** %4, align 8
  %9 = load i64, i64* %5, align 8
  %10 = load i32*, i32** %6, align 8
  %11 = call i32* @_ZNSt22__uninitialized_fill_nILb1EE15__uninit_fill_nIPimiEET_S3_T0_RKT1_(i32* %8, i64 %9, i32* dereferenceable(4) %10)
  ret i32* %11
}

; Function Attrs: noinline uwtable
define linkonce_odr i32* @_ZNSt22__uninitialized_fill_nILb1EE15__uninit_fill_nIPimiEET_S3_T0_RKT1_(i32*, i64, i32* dereferenceable(4)) #0 comdat align 2 {
  %4 = load i32, i32* @x.146
  %5 = load i32, i32* @y.147
  %6 = sub i32 %4, 1
  %7 = mul i32 %4, %6
  %8 = urem i32 %7, 2
  %9 = icmp eq i32 %8, 0
  %10 = icmp slt i32 %5, 10
  %11 = or i1 %9, %10
  br i1 %11, label %12, label %29

; <label>:12:                                     ; preds = %3, %29
  %13 = alloca i32*, align 8
  %14 = alloca i64, align 8
  %15 = alloca i32*, align 8
  store i32* %0, i32** %13, align 8
  store i64 %1, i64* %14, align 8
  store i32* %2, i32** %15, align 8
  %16 = load i32*, i32** %13, align 8
  %17 = load i64, i64* %14, align 8
  %18 = load i32*, i32** %15, align 8
  %19 = call i32* @_ZSt6fill_nIPimiET_S1_T0_RKT1_(i32* %16, i64 %17, i32* dereferenceable(4) %18)
  %20 = load i32, i32* @x.146
  %21 = load i32, i32* @y.147
  %22 = sub i32 %20, 1
  %23 = mul i32 %20, %22
  %24 = urem i32 %23, 2
  %25 = icmp eq i32 %24, 0
  %26 = icmp slt i32 %21, 10
  %27 = or i1 %25, %26
  br i1 %27, label %28, label %29

; <label>:28:                                     ; preds = %12
  ret i32* %19

; <label>:29:                                     ; preds = %12, %3
  %30 = alloca i32*, align 8
  %31 = alloca i64, align 8
  %32 = alloca i32*, align 8
  store i32* %0, i32** %30, align 8
  store i64 %1, i64* %31, align 8
  store i32* %2, i32** %32, align 8
  %33 = load i32*, i32** %30, align 8
  %34 = load i64, i64* %31, align 8
  %35 = load i32*, i32** %32, align 8
  %36 = call i32* @_ZSt6fill_nIPimiET_S1_T0_RKT1_(i32* %33, i64 %34, i32* dereferenceable(4) %35)
  br label %12
}

; Function Attrs: noinline uwtable
define linkonce_odr i32* @_ZSt6fill_nIPimiET_S1_T0_RKT1_(i32*, i64, i32* dereferenceable(4)) #0 comdat {
  %4 = alloca i32*, align 8
  %5 = alloca i64, align 8
  %6 = alloca i32*, align 8
  store i32* %0, i32** %4, align 8
  store i64 %1, i64* %5, align 8
  store i32* %2, i32** %6, align 8
  %7 = load i32*, i32** %4, align 8
  %8 = call i32* @_ZSt12__niter_baseIPiENSt11_Niter_baseIT_E13iterator_typeES2_(i32* %7)
  %9 = load i64, i64* %5, align 8
  %10 = load i32*, i32** %6, align 8
  %11 = call i32* @_ZSt10__fill_n_aIPimiEN9__gnu_cxx11__enable_ifIXsr11__is_scalarIT1_EE7__valueET_E6__typeES4_T0_RKS3_(i32* %8, i64 %9, i32* dereferenceable(4) %10)
  ret i32* %11
}

; Function Attrs: noinline nounwind uwtable
define linkonce_odr i32* @_ZSt10__fill_n_aIPimiEN9__gnu_cxx11__enable_ifIXsr11__is_scalarIT1_EE7__valueET_E6__typeES4_T0_RKS3_(i32*, i64, i32* dereferenceable(4)) #4 comdat {
  %4 = alloca i32*, align 8
  %5 = alloca i64, align 8
  %6 = alloca i32*, align 8
  %7 = alloca i32, align 4
  %8 = alloca i64, align 8
  store i32* %0, i32** %4, align 8
  store i64 %1, i64* %5, align 8
  store i32* %2, i32** %6, align 8
  %9 = load i32*, i32** %6, align 8
  %10 = load i32, i32* %9, align 4
  store i32 %10, i32* %7, align 4
  %11 = load i64, i64* %5, align 8
  store i64 %11, i64* %8, align 8
  br label %12

; <label>:12:                                     ; preds = %36, %3
  %13 = load i32, i32* @x.150
  %14 = load i32, i32* @y.151
  %15 = sub i32 %13, 1
  %16 = mul i32 %13, %15
  %17 = urem i32 %16, 2
  %18 = icmp eq i32 %17, 0
  %19 = icmp slt i32 %14, 10
  %20 = or i1 %18, %19
  br i1 %20, label %21, label %61

; <label>:21:                                     ; preds = %12, %61
  %22 = load i64, i64* %8, align 8
  %23 = icmp ugt i64 %22, 0
  %24 = load i32, i32* @x.150
  %25 = load i32, i32* @y.151
  %26 = sub i32 %24, 1
  %27 = mul i32 %24, %26
  %28 = urem i32 %27, 2
  %29 = icmp eq i32 %28, 0
  %30 = icmp slt i32 %25, 10
  %31 = or i1 %29, %30
  br i1 %31, label %32, label %61

; <label>:32:                                     ; preds = %21
  br i1 %23, label %33, label %41

; <label>:33:                                     ; preds = %32
  %34 = load i32, i32* %7, align 4
  %35 = load i32*, i32** %4, align 8
  store i32 %34, i32* %35, align 4
  br label %36

; <label>:36:                                     ; preds = %33
  %37 = load i64, i64* %8, align 8
  %38 = add i64 %37, -1
  store i64 %38, i64* %8, align 8
  %39 = load i32*, i32** %4, align 8
  %40 = getelementptr inbounds i32, i32* %39, i32 1
  store i32* %40, i32** %4, align 8
  br label %12

; <label>:41:                                     ; preds = %32
  %42 = load i32, i32* @x.150
  %43 = load i32, i32* @y.151
  %44 = sub i32 %42, 1
  %45 = mul i32 %42, %44
  %46 = urem i32 %45, 2
  %47 = icmp eq i32 %46, 0
  %48 = icmp slt i32 %43, 10
  %49 = or i1 %47, %48
  br i1 %49, label %50, label %64

; <label>:50:                                     ; preds = %41, %64
  %51 = load i32*, i32** %4, align 8
  %52 = load i32, i32* @x.150
  %53 = load i32, i32* @y.151
  %54 = sub i32 %52, 1
  %55 = mul i32 %52, %54
  %56 = urem i32 %55, 2
  %57 = icmp eq i32 %56, 0
  %58 = icmp slt i32 %53, 10
  %59 = or i1 %57, %58
  br i1 %59, label %60, label %64

; <label>:60:                                     ; preds = %50
  ret i32* %51

; <label>:61:                                     ; preds = %21, %12
  %62 = load i64, i64* %8, align 8
  %63 = icmp ugt i64 %62, 0
  br label %21

; <label>:64:                                     ; preds = %50, %41
  %65 = load i32*, i32** %4, align 8
  br label %50
}

; Function Attrs: noinline uwtable
define linkonce_odr i32* @_ZSt12__niter_baseIPiENSt11_Niter_baseIT_E13iterator_typeES2_(i32*) #0 comdat {
  %2 = alloca i32*, align 8
  store i32* %0, i32** %2, align 8
  %3 = load i32*, i32** %2, align 8
  %4 = call i32* @_ZNSt10_Iter_baseIPiLb0EE7_S_baseES0_(i32* %3)
  ret i32* %4
}

; Function Attrs: noinline nounwind uwtable
define linkonce_odr i32* @_ZNSt10_Iter_baseIPiLb0EE7_S_baseES0_(i32*) #4 comdat align 2 {
  %2 = alloca i32*, align 8
  store i32* %0, i32** %2, align 8
  %3 = load i32*, i32** %2, align 8
  ret i32* %3
}

; Function Attrs: noinline uwtable
define linkonce_odr void @_ZNSt9__cxx199812_Vector_baseIiSaIiEE13_M_deallocateEPim(%"struct.std::__cxx1998::_Vector_base"*, i32*, i64) #0 comdat align 2 {
  %4 = load i32, i32* @x.156
  %5 = load i32, i32* @y.157
  %6 = sub i32 %4, 1
  %7 = mul i32 %4, %6
  %8 = urem i32 %7, 2
  %9 = icmp eq i32 %8, 0
  %10 = icmp slt i32 %5, 10
  %11 = or i1 %9, %10
  br i1 %11, label %12, label %34

; <label>:12:                                     ; preds = %3, %34
  %13 = alloca %"struct.std::__cxx1998::_Vector_base"*, align 8
  %14 = alloca i32*, align 8
  %15 = alloca i64, align 8
  store %"struct.std::__cxx1998::_Vector_base"* %0, %"struct.std::__cxx1998::_Vector_base"** %13, align 8
  store i32* %1, i32** %14, align 8
  store i64 %2, i64* %15, align 8
  %16 = load %"struct.std::__cxx1998::_Vector_base"*, %"struct.std::__cxx1998::_Vector_base"** %13, align 8
  %17 = load i32*, i32** %14, align 8
  %18 = icmp ne i32* %17, null
  %19 = load i32, i32* @x.156
  %20 = load i32, i32* @y.157
  %21 = sub i32 %19, 1
  %22 = mul i32 %19, %21
  %23 = urem i32 %22, 2
  %24 = icmp eq i32 %23, 0
  %25 = icmp slt i32 %20, 10
  %26 = or i1 %24, %25
  br i1 %26, label %27, label %34

; <label>:27:                                     ; preds = %12
  br i1 %18, label %28, label %33

; <label>:28:                                     ; preds = %27
  %29 = getelementptr inbounds %"struct.std::__cxx1998::_Vector_base", %"struct.std::__cxx1998::_Vector_base"* %16, i32 0, i32 0
  %30 = bitcast %"struct.std::__cxx1998::_Vector_base<int, std::allocator<int> >::_Vector_impl"* %29 to %"class.std::allocator.0"*
  %31 = load i32*, i32** %14, align 8
  %32 = load i64, i64* %15, align 8
  call void @_ZNSt16allocator_traitsISaIiEE10deallocateERS0_Pim(%"class.std::allocator.0"* dereferenceable(1) %30, i32* %31, i64 %32)
  br label %33

; <label>:33:                                     ; preds = %28, %27
  ret void

; <label>:34:                                     ; preds = %12, %3
  %35 = alloca %"struct.std::__cxx1998::_Vector_base"*, align 8
  %36 = alloca i32*, align 8
  %37 = alloca i64, align 8
  store %"struct.std::__cxx1998::_Vector_base"* %0, %"struct.std::__cxx1998::_Vector_base"** %35, align 8
  store i32* %1, i32** %36, align 8
  store i64 %2, i64* %37, align 8
  %38 = load %"struct.std::__cxx1998::_Vector_base"*, %"struct.std::__cxx1998::_Vector_base"** %35, align 8
  %39 = load i32*, i32** %36, align 8
  %40 = icmp ne i32* %39, null
  br label %12
}

; Function Attrs: noinline noreturn nounwind
define linkonce_odr hidden void @__clang_call_terminate(i8*) #8 comdat {
  %2 = call i8* @__cxa_begin_catch(i8* %0) #3
  call void @_ZSt9terminatev() #10
  unreachable
}

declare i8* @__cxa_begin_catch(i8*)

declare void @_ZSt9terminatev()

; Function Attrs: noinline uwtable
define linkonce_odr void @_ZNSt16allocator_traitsISaIiEE10deallocateERS0_Pim(%"class.std::allocator.0"* dereferenceable(1), i32*, i64) #0 comdat align 2 {
  %4 = alloca %"class.std::allocator.0"*, align 8
  %5 = alloca i32*, align 8
  %6 = alloca i64, align 8
  store %"class.std::allocator.0"* %0, %"class.std::allocator.0"** %4, align 8
  store i32* %1, i32** %5, align 8
  store i64 %2, i64* %6, align 8
  %7 = load %"class.std::allocator.0"*, %"class.std::allocator.0"** %4, align 8
  %8 = bitcast %"class.std::allocator.0"* %7 to %"class.__gnu_cxx::new_allocator.1"*
  %9 = load i32*, i32** %5, align 8
  %10 = load i64, i64* %6, align 8
  call void @_ZN9__gnu_cxx13new_allocatorIiE10deallocateEPim(%"class.__gnu_cxx::new_allocator.1"* %8, i32* %9, i64 %10)
  ret void
}

; Function Attrs: noinline nounwind uwtable
define linkonce_odr void @_ZN9__gnu_cxx13new_allocatorIiE10deallocateEPim(%"class.__gnu_cxx::new_allocator.1"*, i32*, i64) #4 comdat align 2 {
  %4 = alloca %"class.__gnu_cxx::new_allocator.1"*, align 8
  %5 = alloca i32*, align 8
  %6 = alloca i64, align 8
  store %"class.__gnu_cxx::new_allocator.1"* %0, %"class.__gnu_cxx::new_allocator.1"** %4, align 8
  store i32* %1, i32** %5, align 8
  store i64 %2, i64* %6, align 8
  %7 = load %"class.__gnu_cxx::new_allocator.1"*, %"class.__gnu_cxx::new_allocator.1"** %4, align 8
  %8 = load i32*, i32** %5, align 8
  %9 = bitcast i32* %8 to i8*
  call void @_ZdlPv(i8* %9) #3
  ret void
}

; Function Attrs: nobuiltin nounwind
declare void @_ZdlPv(i8*) #9

; Function Attrs: noinline nounwind uwtable
define linkonce_odr void @_ZN11__gnu_debug12_Safe_vectorINSt7__debug6vectorIiSaIiEEENSt9__cxx19986vectorIiS3_EEE29_M_update_guaranteed_capacityEv(%"class.__gnu_debug::_Safe_vector"*) #4 comdat align 2 personality i8* bitcast (i32 (...)* @__gxx_personality_v0 to i8*) {
  %2 = load i32, i32* @x.164
  %3 = load i32, i32* @y.165
  %4 = sub i32 %2, 1
  %5 = mul i32 %2, %4
  %6 = urem i32 %5, 2
  %7 = icmp eq i32 %6, 0
  %8 = icmp slt i32 %3, 10
  %9 = or i1 %7, %8
  br i1 %9, label %10, label %97

; <label>:10:                                     ; preds = %1, %97
  %11 = alloca %"class.__gnu_debug::_Safe_vector"*, align 8
  store %"class.__gnu_debug::_Safe_vector"* %0, %"class.__gnu_debug::_Safe_vector"** %11, align 8
  %12 = load %"class.__gnu_debug::_Safe_vector"*, %"class.__gnu_debug::_Safe_vector"** %11, align 8
  %13 = load i32, i32* @x.164
  %14 = load i32, i32* @y.165
  %15 = sub i32 %13, 1
  %16 = mul i32 %13, %15
  %17 = urem i32 %16, 2
  %18 = icmp eq i32 %17, 0
  %19 = icmp slt i32 %14, 10
  %20 = or i1 %18, %19
  br i1 %20, label %21, label %97

; <label>:21:                                     ; preds = %10
  %22 = invoke dereferenceable(56) %"class.std::__debug::vector"* @_ZNK11__gnu_debug12_Safe_vectorINSt7__debug6vectorIiSaIiEEENSt9__cxx19986vectorIiS3_EEE6_M_seqEv(%"class.__gnu_debug::_Safe_vector"* %12)
          to label %23 unwind label %94

; <label>:23:                                     ; preds = %21
  %24 = load i32, i32* @x.164
  %25 = load i32, i32* @y.165
  %26 = sub i32 %24, 1
  %27 = mul i32 %24, %26
  %28 = urem i32 %27, 2
  %29 = icmp eq i32 %28, 0
  %30 = icmp slt i32 %25, 10
  %31 = or i1 %29, %30
  br i1 %31, label %32, label %100

; <label>:32:                                     ; preds = %23, %100
  %33 = bitcast %"class.std::__debug::vector"* %22 to i8*
  %34 = getelementptr inbounds i8, i8* %33, i64 24
  %35 = bitcast i8* %34 to %"class.std::__cxx1998::vector"*
  %36 = call i64 @_ZNKSt9__cxx19986vectorIiSaIiEE4sizeEv(%"class.std::__cxx1998::vector"* %35) #3
  %37 = getelementptr inbounds %"class.__gnu_debug::_Safe_vector", %"class.__gnu_debug::_Safe_vector"* %12, i32 0, i32 0
  %38 = load i64, i64* %37, align 8
  %39 = icmp ugt i64 %36, %38
  %40 = load i32, i32* @x.164
  %41 = load i32, i32* @y.165
  %42 = sub i32 %40, 1
  %43 = mul i32 %40, %42
  %44 = urem i32 %43, 2
  %45 = icmp eq i32 %44, 0
  %46 = icmp slt i32 %41, 10
  %47 = or i1 %45, %46
  br i1 %47, label %48, label %100

; <label>:48:                                     ; preds = %32
  br i1 %39, label %49, label %75

; <label>:49:                                     ; preds = %48
  %50 = invoke dereferenceable(56) %"class.std::__debug::vector"* @_ZNK11__gnu_debug12_Safe_vectorINSt7__debug6vectorIiSaIiEEENSt9__cxx19986vectorIiS3_EEE6_M_seqEv(%"class.__gnu_debug::_Safe_vector"* %12)
          to label %51 unwind label %94

; <label>:51:                                     ; preds = %49
  %52 = load i32, i32* @x.164
  %53 = load i32, i32* @y.165
  %54 = sub i32 %52, 1
  %55 = mul i32 %52, %54
  %56 = urem i32 %55, 2
  %57 = icmp eq i32 %56, 0
  %58 = icmp slt i32 %53, 10
  %59 = or i1 %57, %58
  br i1 %59, label %60, label %108

; <label>:60:                                     ; preds = %51, %108
  %61 = bitcast %"class.std::__debug::vector"* %50 to i8*
  %62 = getelementptr inbounds i8, i8* %61, i64 24
  %63 = bitcast i8* %62 to %"class.std::__cxx1998::vector"*
  %64 = call i64 @_ZNKSt9__cxx19986vectorIiSaIiEE4sizeEv(%"class.std::__cxx1998::vector"* %63) #3
  %65 = getelementptr inbounds %"class.__gnu_debug::_Safe_vector", %"class.__gnu_debug::_Safe_vector"* %12, i32 0, i32 0
  store i64 %64, i64* %65, align 8
  %66 = load i32, i32* @x.164
  %67 = load i32, i32* @y.165
  %68 = sub i32 %66, 1
  %69 = mul i32 %66, %68
  %70 = urem i32 %69, 2
  %71 = icmp eq i32 %70, 0
  %72 = icmp slt i32 %67, 10
  %73 = or i1 %71, %72
  br i1 %73, label %74, label %108

; <label>:74:                                     ; preds = %60
  br label %75

; <label>:75:                                     ; preds = %74, %48
  %76 = load i32, i32* @x.164
  %77 = load i32, i32* @y.165
  %78 = sub i32 %76, 1
  %79 = mul i32 %76, %78
  %80 = urem i32 %79, 2
  %81 = icmp eq i32 %80, 0
  %82 = icmp slt i32 %77, 10
  %83 = or i1 %81, %82
  br i1 %83, label %84, label %114

; <label>:84:                                     ; preds = %75, %114
  %85 = load i32, i32* @x.164
  %86 = load i32, i32* @y.165
  %87 = sub i32 %85, 1
  %88 = mul i32 %85, %87
  %89 = urem i32 %88, 2
  %90 = icmp eq i32 %89, 0
  %91 = icmp slt i32 %86, 10
  %92 = or i1 %90, %91
  br i1 %92, label %93, label %114

; <label>:93:                                     ; preds = %84
  ret void

; <label>:94:                                     ; preds = %49, %21
  %95 = landingpad { i8*, i32 }
          catch i8* null
  %96 = extractvalue { i8*, i32 } %95, 0
  call void @__clang_call_terminate(i8* %96) #10
  unreachable

; <label>:97:                                     ; preds = %10, %1
  %98 = alloca %"class.__gnu_debug::_Safe_vector"*, align 8
  store %"class.__gnu_debug::_Safe_vector"* %0, %"class.__gnu_debug::_Safe_vector"** %98, align 8
  %99 = load %"class.__gnu_debug::_Safe_vector"*, %"class.__gnu_debug::_Safe_vector"** %98, align 8
  br label %10

; <label>:100:                                    ; preds = %32, %23
  %101 = bitcast %"class.std::__debug::vector"* %22 to i8*
  %102 = getelementptr inbounds i8, i8* %101, i64 24
  %103 = bitcast i8* %102 to %"class.std::__cxx1998::vector"*
  %104 = call i64 @_ZNKSt9__cxx19986vectorIiSaIiEE4sizeEv(%"class.std::__cxx1998::vector"* %103) #3
  %105 = getelementptr inbounds %"class.__gnu_debug::_Safe_vector", %"class.__gnu_debug::_Safe_vector"* %12, i32 0, i32 0
  %106 = load i64, i64* %105, align 8
  %107 = icmp ugt i64 %104, %106
  br label %32

; <label>:108:                                    ; preds = %60, %51
  %109 = bitcast %"class.std::__debug::vector"* %50 to i8*
  %110 = getelementptr inbounds i8, i8* %109, i64 24
  %111 = bitcast i8* %110 to %"class.std::__cxx1998::vector"*
  %112 = call i64 @_ZNKSt9__cxx19986vectorIiSaIiEE4sizeEv(%"class.std::__cxx1998::vector"* %111) #3
  %113 = getelementptr inbounds %"class.__gnu_debug::_Safe_vector", %"class.__gnu_debug::_Safe_vector"* %12, i32 0, i32 0
  store i64 %112, i64* %113, align 8
  br label %60

; <label>:114:                                    ; preds = %84, %75
  br label %84
}

; Function Attrs: noinline nounwind uwtable
define linkonce_odr dereferenceable(56) %"class.std::__debug::vector"* @_ZNK11__gnu_debug12_Safe_vectorINSt7__debug6vectorIiSaIiEEENSt9__cxx19986vectorIiS3_EEE6_M_seqEv(%"class.__gnu_debug::_Safe_vector"*) #4 comdat align 2 {
  %2 = alloca %"class.__gnu_debug::_Safe_vector"*, align 8
  store %"class.__gnu_debug::_Safe_vector"* %0, %"class.__gnu_debug::_Safe_vector"** %2, align 8
  %3 = load %"class.__gnu_debug::_Safe_vector"*, %"class.__gnu_debug::_Safe_vector"** %2, align 8
  %4 = bitcast %"class.__gnu_debug::_Safe_vector"* %3 to i8*
  %5 = getelementptr i8, i8* %4, i64 -48
  %6 = bitcast i8* %5 to %"class.std::__debug::vector"*
  ret %"class.std::__debug::vector"* %6
}

; Function Attrs: noinline nounwind uwtable
define linkonce_odr i64 @_ZNKSt9__cxx19986vectorIiSaIiEE4sizeEv(%"class.std::__cxx1998::vector"*) #4 comdat align 2 {
  %2 = alloca %"class.std::__cxx1998::vector"*, align 8
  store %"class.std::__cxx1998::vector"* %0, %"class.std::__cxx1998::vector"** %2, align 8
  %3 = load %"class.std::__cxx1998::vector"*, %"class.std::__cxx1998::vector"** %2, align 8
  %4 = bitcast %"class.std::__cxx1998::vector"* %3 to %"struct.std::__cxx1998::_Vector_base"*
  %5 = getelementptr inbounds %"struct.std::__cxx1998::_Vector_base", %"struct.std::__cxx1998::_Vector_base"* %4, i32 0, i32 0
  %6 = getelementptr inbounds %"struct.std::__cxx1998::_Vector_base<int, std::allocator<int> >::_Vector_impl", %"struct.std::__cxx1998::_Vector_base<int, std::allocator<int> >::_Vector_impl"* %5, i32 0, i32 1
  %7 = load i32*, i32** %6, align 8
  %8 = bitcast %"class.std::__cxx1998::vector"* %3 to %"struct.std::__cxx1998::_Vector_base"*
  %9 = getelementptr inbounds %"struct.std::__cxx1998::_Vector_base", %"struct.std::__cxx1998::_Vector_base"* %8, i32 0, i32 0
  %10 = getelementptr inbounds %"struct.std::__cxx1998::_Vector_base<int, std::allocator<int> >::_Vector_impl", %"struct.std::__cxx1998::_Vector_base<int, std::allocator<int> >::_Vector_impl"* %9, i32 0, i32 0
  %11 = load i32*, i32** %10, align 8
  %12 = ptrtoint i32* %7 to i64
  %13 = ptrtoint i32* %11 to i64
  %14 = sub i64 %12, %13
  %15 = sdiv exact i64 %14, 4
  ret i64 %15
}

; Function Attrs: noinline nounwind uwtable
define linkonce_odr void @_ZN11__gnu_debug14_Safe_sequenceINSt7__debug6vectorIiSaIiEEEED2Ev(%"class.__gnu_debug::_Safe_sequence"*) unnamed_addr #4 comdat align 2 {
  %2 = alloca %"class.__gnu_debug::_Safe_sequence"*, align 8
  store %"class.__gnu_debug::_Safe_sequence"* %0, %"class.__gnu_debug::_Safe_sequence"** %2, align 8
  %3 = load %"class.__gnu_debug::_Safe_sequence"*, %"class.__gnu_debug::_Safe_sequence"** %2, align 8
  %4 = bitcast %"class.__gnu_debug::_Safe_sequence"* %3 to %"class.__gnu_debug::_Safe_sequence_base"*
  call void @_ZN11__gnu_debug19_Safe_sequence_baseD2Ev(%"class.__gnu_debug::_Safe_sequence_base"* %4) #3
  ret void
}

; Function Attrs: noinline nounwind uwtable
define linkonce_odr void @_ZN11__gnu_debug19_Safe_sequence_baseD2Ev(%"class.__gnu_debug::_Safe_sequence_base"*) unnamed_addr #4 comdat align 2 personality i8* bitcast (i32 (...)* @__gxx_personality_v0 to i8*) {
  %2 = alloca %"class.__gnu_debug::_Safe_sequence_base"*, align 8
  store %"class.__gnu_debug::_Safe_sequence_base"* %0, %"class.__gnu_debug::_Safe_sequence_base"** %2, align 8
  %3 = load %"class.__gnu_debug::_Safe_sequence_base"*, %"class.__gnu_debug::_Safe_sequence_base"** %2, align 8
  invoke void @_ZN11__gnu_debug19_Safe_sequence_base13_M_detach_allEv(%"class.__gnu_debug::_Safe_sequence_base"* %3)
          to label %4 unwind label %5

; <label>:4:                                      ; preds = %1
  ret void

; <label>:5:                                      ; preds = %1
  %6 = landingpad { i8*, i32 }
          catch i8* null
  %7 = extractvalue { i8*, i32 } %6, 0
  call void @__clang_call_terminate(i8* %7) #10
  unreachable
}

declare void @_ZN11__gnu_debug19_Safe_sequence_base13_M_detach_allEv(%"class.__gnu_debug::_Safe_sequence_base"*) #1

; Function Attrs: noinline uwtable
define linkonce_odr i32 @_ZN9Unionfind4rootEi(%class.Unionfind*, i32) #0 comdat align 2 {
  %3 = alloca %class.Unionfind*, align 8
  %4 = alloca i32, align 4
  store %class.Unionfind* %0, %class.Unionfind** %3, align 8
  store i32 %1, i32* %4, align 4
  %5 = load %class.Unionfind*, %class.Unionfind** %3, align 8
  %6 = getelementptr inbounds %class.Unionfind, %class.Unionfind* %5, i32 0, i32 2
  %7 = load i32, i32* %4, align 4
  %8 = sext i32 %7 to i64
  %9 = call dereferenceable(4) i32* @_ZNSt7__debug6vectorIiSaIiEEixEm(%"class.std::__debug::vector"* %6, i64 %8) #3
  %10 = load i32, i32* %9, align 4
  %11 = load i32, i32* %4, align 4
  %12 = icmp eq i32 %10, %11
  br i1 %12, label %13, label %15

; <label>:13:                                     ; preds = %2
  %14 = load i32, i32* %4, align 4
  br label %44

; <label>:15:                                     ; preds = %2
  %16 = load i32, i32* @x.174
  %17 = load i32, i32* @y.175
  %18 = sub i32 %16, 1
  %19 = mul i32 %16, %18
  %20 = urem i32 %19, 2
  %21 = icmp eq i32 %20, 0
  %22 = icmp slt i32 %17, 10
  %23 = or i1 %21, %22
  br i1 %23, label %24, label %46

; <label>:24:                                     ; preds = %15, %46
  %25 = getelementptr inbounds %class.Unionfind, %class.Unionfind* %5, i32 0, i32 2
  %26 = load i32, i32* %4, align 4
  %27 = sext i32 %26 to i64
  %28 = call dereferenceable(4) i32* @_ZNSt7__debug6vectorIiSaIiEEixEm(%"class.std::__debug::vector"* %25, i64 %27) #3
  %29 = load i32, i32* %28, align 4
  %30 = call i32 @_ZN9Unionfind4rootEi(%class.Unionfind* %5, i32 %29)
  %31 = getelementptr inbounds %class.Unionfind, %class.Unionfind* %5, i32 0, i32 2
  %32 = load i32, i32* %4, align 4
  %33 = sext i32 %32 to i64
  %34 = call dereferenceable(4) i32* @_ZNSt7__debug6vectorIiSaIiEEixEm(%"class.std::__debug::vector"* %31, i64 %33) #3
  store i32 %30, i32* %34, align 4
  %35 = load i32, i32* @x.174
  %36 = load i32, i32* @y.175
  %37 = sub i32 %35, 1
  %38 = mul i32 %35, %37
  %39 = urem i32 %38, 2
  %40 = icmp eq i32 %39, 0
  %41 = icmp slt i32 %36, 10
  %42 = or i1 %40, %41
  br i1 %42, label %43, label %46

; <label>:43:                                     ; preds = %24
  br label %44

; <label>:44:                                     ; preds = %43, %13
  %45 = phi i32 [ %14, %13 ], [ %30, %43 ]
  ret i32 %45

; <label>:46:                                     ; preds = %24, %15
  %47 = getelementptr inbounds %class.Unionfind, %class.Unionfind* %5, i32 0, i32 2
  %48 = load i32, i32* %4, align 4
  %49 = sext i32 %48 to i64
  %50 = call dereferenceable(4) i32* @_ZNSt7__debug6vectorIiSaIiEEixEm(%"class.std::__debug::vector"* %47, i64 %49) #3
  %51 = load i32, i32* %50, align 4
  %52 = call i32 @_ZN9Unionfind4rootEi(%class.Unionfind* %5, i32 %51)
  %53 = getelementptr inbounds %class.Unionfind, %class.Unionfind* %5, i32 0, i32 2
  %54 = load i32, i32* %4, align 4
  %55 = sext i32 %54 to i64
  %56 = call dereferenceable(4) i32* @_ZNSt7__debug6vectorIiSaIiEEixEm(%"class.std::__debug::vector"* %53, i64 %55) #3
  store i32 %52, i32* %56, align 4
  br label %24
}

; Function Attrs: noinline nounwind uwtable
define linkonce_odr void @_ZNSt7__debug6vectorINS0_IiSaIiEEESaIS2_EEC2Ev(%"class.std::__debug::vector.3"*) unnamed_addr #4 comdat align 2 {
  %2 = alloca %"class.std::__debug::vector.3"*, align 8
  store %"class.std::__debug::vector.3"* %0, %"class.std::__debug::vector.3"** %2, align 8
  %3 = load %"class.std::__debug::vector.3"*, %"class.std::__debug::vector.3"** %2, align 8
  %4 = bitcast %"class.std::__debug::vector.3"* %3 to %"class.__gnu_debug::_Safe_container.4"*
  call void @_ZN11__gnu_debug15_Safe_containerINSt7__debug6vectorINS2_IiSaIiEEESaIS4_EEES5_NS_14_Safe_sequenceELb1EEC2Ev(%"class.__gnu_debug::_Safe_container.4"* %4) #3
  %5 = bitcast %"class.std::__debug::vector.3"* %3 to i8*
  %6 = getelementptr inbounds i8, i8* %5, i64 24
  %7 = bitcast i8* %6 to %"class.std::__cxx1998::vector.8"*
  call void @_ZNSt9__cxx19986vectorINSt7__debug6vectorIiSaIiEEESaIS4_EEC2Ev(%"class.std::__cxx1998::vector.8"* %7) #3
  %8 = bitcast %"class.std::__debug::vector.3"* %3 to i8*
  %9 = getelementptr inbounds i8, i8* %8, i64 48
  %10 = bitcast i8* %9 to %"class.__gnu_debug::_Safe_vector.13"*
  call void @_ZN11__gnu_debug12_Safe_vectorINSt7__debug6vectorINS2_IiSaIiEEESaIS4_EEENSt9__cxx19986vectorIS4_S5_EEEC2Ev(%"class.__gnu_debug::_Safe_vector.13"* %10) #3
  ret void
}

; Function Attrs: noinline nounwind uwtable
define linkonce_odr void @_ZNSaINSt7__debug6vectorIiSaIiEEEEC2Ev(%"class.std::allocator.10"*) unnamed_addr #4 comdat align 2 {
  %2 = alloca %"class.std::allocator.10"*, align 8
  store %"class.std::allocator.10"* %0, %"class.std::allocator.10"** %2, align 8
  %3 = load %"class.std::allocator.10"*, %"class.std::allocator.10"** %2, align 8
  %4 = bitcast %"class.std::allocator.10"* %3 to %"class.__gnu_cxx::new_allocator.11"*
  call void @_ZN9__gnu_cxx13new_allocatorINSt7__debug6vectorIiSaIiEEEEC2Ev(%"class.__gnu_cxx::new_allocator.11"* %4) #3
  ret void
}

; Function Attrs: noinline uwtable
define linkonce_odr void @_ZNSt7__debug6vectorINS0_IiSaIiEEESaIS2_EEC2EmRKS3_(%"class.std::__debug::vector.3"*, i64, %"class.std::allocator.10"* dereferenceable(1)) unnamed_addr #0 comdat align 2 personality i8* bitcast (i32 (...)* @__gxx_personality_v0 to i8*) {
  %4 = alloca %"class.std::__debug::vector.3"*, align 8
  %5 = alloca i64, align 8
  %6 = alloca %"class.std::allocator.10"*, align 8
  %7 = alloca i8*
  %8 = alloca i32
  store %"class.std::__debug::vector.3"* %0, %"class.std::__debug::vector.3"** %4, align 8
  store i64 %1, i64* %5, align 8
  store %"class.std::allocator.10"* %2, %"class.std::allocator.10"** %6, align 8
  %9 = load %"class.std::__debug::vector.3"*, %"class.std::__debug::vector.3"** %4, align 8
  %10 = bitcast %"class.std::__debug::vector.3"* %9 to %"class.__gnu_debug::_Safe_container.4"*
  call void @_ZN11__gnu_debug15_Safe_containerINSt7__debug6vectorINS2_IiSaIiEEESaIS4_EEES5_NS_14_Safe_sequenceELb1EEC2Ev(%"class.__gnu_debug::_Safe_container.4"* %10) #3
  %11 = bitcast %"class.std::__debug::vector.3"* %9 to i8*
  %12 = getelementptr inbounds i8, i8* %11, i64 24
  %13 = bitcast i8* %12 to %"class.std::__cxx1998::vector.8"*
  %14 = load i64, i64* %5, align 8
  %15 = load %"class.std::allocator.10"*, %"class.std::allocator.10"** %6, align 8
  invoke void @_ZNSt9__cxx19986vectorINSt7__debug6vectorIiSaIiEEESaIS4_EEC2EmRKS5_(%"class.std::__cxx1998::vector.8"* %13, i64 %14, %"class.std::allocator.10"* dereferenceable(1) %15)
          to label %16 unwind label %21

; <label>:16:                                     ; preds = %3
  %17 = bitcast %"class.std::__debug::vector.3"* %9 to i8*
  %18 = getelementptr inbounds i8, i8* %17, i64 48
  %19 = bitcast i8* %18 to %"class.__gnu_debug::_Safe_vector.13"*
  %20 = load i64, i64* %5, align 8
  call void @_ZN11__gnu_debug12_Safe_vectorINSt7__debug6vectorINS2_IiSaIiEEESaIS4_EEENSt9__cxx19986vectorIS4_S5_EEEC2Em(%"class.__gnu_debug::_Safe_vector.13"* %19, i64 %20) #3
  ret void

; <label>:21:                                     ; preds = %3
  %22 = landingpad { i8*, i32 }
          cleanup
  %23 = extractvalue { i8*, i32 } %22, 0
  store i8* %23, i8** %7, align 8
  %24 = extractvalue { i8*, i32 } %22, 1
  store i32 %24, i32* %8, align 4
  %25 = bitcast %"class.std::__debug::vector.3"* %9 to %"class.__gnu_debug::_Safe_container.4"*
  call void @_ZN11__gnu_debug15_Safe_containerINSt7__debug6vectorINS2_IiSaIiEEESaIS4_EEES5_NS_14_Safe_sequenceELb1EED2Ev(%"class.__gnu_debug::_Safe_container.4"* %25) #3
  br label %26

; <label>:26:                                     ; preds = %21
  %27 = load i32, i32* @x.180
  %28 = load i32, i32* @y.181
  %29 = sub i32 %27, 1
  %30 = mul i32 %27, %29
  %31 = urem i32 %30, 2
  %32 = icmp eq i32 %31, 0
  %33 = icmp slt i32 %28, 10
  %34 = or i1 %32, %33
  br i1 %34, label %35, label %49

; <label>:35:                                     ; preds = %26, %49
  %36 = load i8*, i8** %7, align 8
  %37 = load i32, i32* %8, align 4
  %38 = insertvalue { i8*, i32 } undef, i8* %36, 0
  %39 = insertvalue { i8*, i32 } %38, i32 %37, 1
  %40 = load i32, i32* @x.180
  %41 = load i32, i32* @y.181
  %42 = sub i32 %40, 1
  %43 = mul i32 %40, %42
  %44 = urem i32 %43, 2
  %45 = icmp eq i32 %44, 0
  %46 = icmp slt i32 %41, 10
  %47 = or i1 %45, %46
  br i1 %47, label %48, label %49

; <label>:48:                                     ; preds = %35
  resume { i8*, i32 } %39

; <label>:49:                                     ; preds = %35, %26
  %50 = load i8*, i8** %7, align 8
  %51 = load i32, i32* %8, align 4
  %52 = insertvalue { i8*, i32 } undef, i8* %50, 0
  %53 = insertvalue { i8*, i32 } %52, i32 %51, 1
  br label %35
}

; Function Attrs: noinline nounwind uwtable
define linkonce_odr void @_ZNSaINSt7__debug6vectorIiSaIiEEEED2Ev(%"class.std::allocator.10"*) unnamed_addr #4 comdat align 2 {
  %2 = alloca %"class.std::allocator.10"*, align 8
  store %"class.std::allocator.10"* %0, %"class.std::allocator.10"** %2, align 8
  %3 = load %"class.std::allocator.10"*, %"class.std::allocator.10"** %2, align 8
  %4 = bitcast %"class.std::allocator.10"* %3 to %"class.__gnu_cxx::new_allocator.11"*
  call void @_ZN9__gnu_cxx13new_allocatorINSt7__debug6vectorIiSaIiEEEED2Ev(%"class.__gnu_cxx::new_allocator.11"* %4) #3
  ret void
}

; Function Attrs: noinline nounwind uwtable
define linkonce_odr dereferenceable(56) %"class.std::__debug::vector"* @_ZNSt7__debug6vectorINS0_IiSaIiEEESaIS2_EEixEm(%"class.std::__debug::vector.3"*, i64) #4 comdat align 2 personality i8* bitcast (i32 (...)* @__gxx_personality_v0 to i8*) {
  %3 = alloca %"class.std::__debug::vector.3"*, align 8
  %4 = alloca i64, align 8
  %5 = alloca %"class.__gnu_debug::_Error_formatter", align 8
  store %"class.std::__debug::vector.3"* %0, %"class.std::__debug::vector.3"** %3, align 8
  store i64 %1, i64* %4, align 8
  %6 = load %"class.std::__debug::vector.3"*, %"class.std::__debug::vector.3"** %3, align 8
  br label %7

; <label>:7:                                      ; preds = %2
  %8 = load i32, i32* @x.184
  %9 = load i32, i32* @y.185
  %10 = sub i32 %8, 1
  %11 = mul i32 %8, %10
  %12 = urem i32 %11, 2
  %13 = icmp eq i32 %12, 0
  %14 = icmp slt i32 %9, 10
  %15 = or i1 %13, %14
  br i1 %15, label %16, label %74

; <label>:16:                                     ; preds = %7, %74
  %17 = load i64, i64* %4, align 8
  %18 = bitcast %"class.std::__debug::vector.3"* %6 to i8*
  %19 = getelementptr inbounds i8, i8* %18, i64 24
  %20 = bitcast i8* %19 to %"class.std::__cxx1998::vector.8"*
  %21 = call i64 @_ZNKSt9__cxx19986vectorINSt7__debug6vectorIiSaIiEEESaIS4_EE4sizeEv(%"class.std::__cxx1998::vector.8"* %20) #3
  %22 = icmp ult i64 %17, %21
  %23 = load i32, i32* @x.184
  %24 = load i32, i32* @y.185
  %25 = sub i32 %23, 1
  %26 = mul i32 %23, %25
  %27 = urem i32 %26, 2
  %28 = icmp eq i32 %27, 0
  %29 = icmp slt i32 %24, 10
  %30 = or i1 %28, %29
  br i1 %30, label %31, label %74

; <label>:31:                                     ; preds = %16
  br i1 %22, label %65, label %32

; <label>:32:                                     ; preds = %31
  %33 = load i32, i32* @x.184
  %34 = load i32, i32* @y.185
  %35 = sub i32 %33, 1
  %36 = mul i32 %33, %35
  %37 = urem i32 %36, 2
  %38 = icmp eq i32 %37, 0
  %39 = icmp slt i32 %34, 10
  %40 = or i1 %38, %39
  br i1 %40, label %41, label %81

; <label>:41:                                     ; preds = %32, %81
  %42 = load i32, i32* @x.184
  %43 = load i32, i32* @y.185
  %44 = sub i32 %42, 1
  %45 = mul i32 %42, %44
  %46 = urem i32 %45, 2
  %47 = icmp eq i32 %46, 0
  %48 = icmp slt i32 %43, 10
  %49 = or i1 %47, %48
  br i1 %49, label %50, label %81

; <label>:50:                                     ; preds = %41
  invoke void @_ZN11__gnu_debug16_Error_formatter5_M_atEPKcm(%"class.__gnu_debug::_Error_formatter"* sret %5, i8* getelementptr inbounds ([79 x i8], [79 x i8]* @.str.3, i32 0, i32 0), i64 409)
          to label %51 unwind label %71

; <label>:51:                                     ; preds = %50
  %52 = call dereferenceable(560) %"class.__gnu_debug::_Error_formatter"* @_ZNK11__gnu_debug16_Error_formatter10_M_messageENS_13_Debug_msg_idE(%"class.__gnu_debug::_Error_formatter"* %5, i32 5) #3
  %53 = invoke dereferenceable(560) %"class.__gnu_debug::_Error_formatter"* @_ZNK11__gnu_debug16_Error_formatter11_M_sequenceINSt7__debug6vectorINS3_IiSaIiEEESaIS5_EEEEERKS0_RKT_PKc(%"class.__gnu_debug::_Error_formatter"* %52, %"class.std::__debug::vector.3"* dereferenceable(56) %6, i8* getelementptr inbounds ([5 x i8], [5 x i8]* @.str.4, i32 0, i32 0))
          to label %54 unwind label %71

; <label>:54:                                     ; preds = %51
  %55 = load i64, i64* %4, align 8
  %56 = invoke dereferenceable(560) %"class.__gnu_debug::_Error_formatter"* @_ZNK11__gnu_debug16_Error_formatter10_M_integerElPKc(%"class.__gnu_debug::_Error_formatter"* %53, i64 %55, i8* getelementptr inbounds ([4 x i8], [4 x i8]* @.str.5, i32 0, i32 0))
          to label %57 unwind label %71

; <label>:57:                                     ; preds = %54
  %58 = bitcast %"class.std::__debug::vector.3"* %6 to i8*
  %59 = getelementptr inbounds i8, i8* %58, i64 24
  %60 = bitcast i8* %59 to %"class.std::__cxx1998::vector.8"*
  %61 = call i64 @_ZNKSt9__cxx19986vectorINSt7__debug6vectorIiSaIiEEESaIS4_EE4sizeEv(%"class.std::__cxx1998::vector.8"* %60) #3
  %62 = invoke dereferenceable(560) %"class.__gnu_debug::_Error_formatter"* @_ZNK11__gnu_debug16_Error_formatter10_M_integerElPKc(%"class.__gnu_debug::_Error_formatter"* %56, i64 %61, i8* getelementptr inbounds ([5 x i8], [5 x i8]* @.str.6, i32 0, i32 0))
          to label %63 unwind label %71

; <label>:63:                                     ; preds = %57
  invoke void @_ZNK11__gnu_debug16_Error_formatter8_M_errorEv(%"class.__gnu_debug::_Error_formatter"* %62) #13
          to label %64 unwind label %71

; <label>:64:                                     ; preds = %63
  unreachable

; <label>:65:                                     ; preds = %31
  br label %66

; <label>:66:                                     ; preds = %65
  br label %67

; <label>:67:                                     ; preds = %66
  %68 = call dereferenceable(24) %"class.std::__cxx1998::vector.8"* @_ZNSt7__debug6vectorINS0_IiSaIiEEESaIS2_EE7_M_baseEv(%"class.std::__debug::vector.3"* %6) #3
  %69 = load i64, i64* %4, align 8
  %70 = call dereferenceable(56) %"class.std::__debug::vector"* @_ZNSt9__cxx19986vectorINSt7__debug6vectorIiSaIiEEESaIS4_EEixEm(%"class.std::__cxx1998::vector.8"* %68, i64 %69) #3
  ret %"class.std::__debug::vector"* %70

; <label>:71:                                     ; preds = %63, %57, %54, %51, %50
  %72 = landingpad { i8*, i32 }
          catch i8* null
  %73 = extractvalue { i8*, i32 } %72, 0
  call void @__clang_call_terminate(i8* %73) #10
  unreachable

; <label>:74:                                     ; preds = %16, %7
  %75 = load i64, i64* %4, align 8
  %76 = bitcast %"class.std::__debug::vector.3"* %6 to i8*
  %77 = getelementptr inbounds i8, i8* %76, i64 24
  %78 = bitcast i8* %77 to %"class.std::__cxx1998::vector.8"*
  %79 = call i64 @_ZNKSt9__cxx19986vectorINSt7__debug6vectorIiSaIiEEESaIS4_EE4sizeEv(%"class.std::__cxx1998::vector.8"* %78) #3
  %80 = icmp ult i64 %75, %79
  br label %16

; <label>:81:                                     ; preds = %41, %32
  br label %41
}

; Function Attrs: noinline uwtable
define linkonce_odr void @_ZNSt7__debug6vectorIiSaIiEE9push_backERKi(%"class.std::__debug::vector"*, i32* dereferenceable(4)) #0 comdat align 2 {
  %3 = alloca %"class.std::__debug::vector"*, align 8
  %4 = alloca i32*, align 8
  %5 = alloca i8, align 1
  store %"class.std::__debug::vector"* %0, %"class.std::__debug::vector"** %3, align 8
  store i32* %1, i32** %4, align 8
  %6 = load %"class.std::__debug::vector"*, %"class.std::__debug::vector"** %3, align 8
  %7 = bitcast %"class.std::__debug::vector"* %6 to i8*
  %8 = getelementptr inbounds i8, i8* %7, i64 48
  %9 = bitcast i8* %8 to %"class.__gnu_debug::_Safe_vector"*
  %10 = bitcast %"class.std::__debug::vector"* %6 to i8*
  %11 = getelementptr inbounds i8, i8* %10, i64 24
  %12 = bitcast i8* %11 to %"class.std::__cxx1998::vector"*
  %13 = call i64 @_ZNKSt9__cxx19986vectorIiSaIiEE4sizeEv(%"class.std::__cxx1998::vector"* %12) #3
  %14 = add i64 %13, 1
  %15 = call zeroext i1 @_ZNK11__gnu_debug12_Safe_vectorINSt7__debug6vectorIiSaIiEEENSt9__cxx19986vectorIiS3_EEE24_M_requires_reallocationEm(%"class.__gnu_debug::_Safe_vector"* %9, i64 %14) #3
  %16 = zext i1 %15 to i8
  store i8 %16, i8* %5, align 1
  %17 = bitcast %"class.std::__debug::vector"* %6 to i8*
  %18 = getelementptr inbounds i8, i8* %17, i64 24
  %19 = bitcast i8* %18 to %"class.std::__cxx1998::vector"*
  %20 = load i32*, i32** %4, align 8
  call void @_ZNSt9__cxx19986vectorIiSaIiEE9push_backERKi(%"class.std::__cxx1998::vector"* %19, i32* dereferenceable(4) %20)
  %21 = load i8, i8* %5, align 1
  %22 = trunc i8 %21 to i1
  br i1 %22, label %23, label %25

; <label>:23:                                     ; preds = %2
  %24 = bitcast %"class.std::__debug::vector"* %6 to %"class.__gnu_debug::_Safe_sequence_base"*
  call void @_ZNK11__gnu_debug19_Safe_sequence_base17_M_invalidate_allEv(%"class.__gnu_debug::_Safe_sequence_base"* %24)
  br label %25

; <label>:25:                                     ; preds = %23, %2
  %26 = load i32, i32* @x.186
  %27 = load i32, i32* @y.187
  %28 = sub i32 %26, 1
  %29 = mul i32 %26, %28
  %30 = urem i32 %29, 2
  %31 = icmp eq i32 %30, 0
  %32 = icmp slt i32 %27, 10
  %33 = or i1 %31, %32
  br i1 %33, label %34, label %47

; <label>:34:                                     ; preds = %25, %47
  %35 = bitcast %"class.std::__debug::vector"* %6 to i8*
  %36 = getelementptr inbounds i8, i8* %35, i64 48
  %37 = bitcast i8* %36 to %"class.__gnu_debug::_Safe_vector"*
  call void @_ZN11__gnu_debug12_Safe_vectorINSt7__debug6vectorIiSaIiEEENSt9__cxx19986vectorIiS3_EEE29_M_update_guaranteed_capacityEv(%"class.__gnu_debug::_Safe_vector"* %37) #3
  %38 = load i32, i32* @x.186
  %39 = load i32, i32* @y.187
  %40 = sub i32 %38, 1
  %41 = mul i32 %38, %40
  %42 = urem i32 %41, 2
  %43 = icmp eq i32 %42, 0
  %44 = icmp slt i32 %39, 10
  %45 = or i1 %43, %44
  br i1 %45, label %46, label %47

; <label>:46:                                     ; preds = %34
  ret void

; <label>:47:                                     ; preds = %34, %25
  %48 = bitcast %"class.std::__debug::vector"* %6 to i8*
  %49 = getelementptr inbounds i8, i8* %48, i64 48
  %50 = bitcast i8* %49 to %"class.__gnu_debug::_Safe_vector"*
  call void @_ZN11__gnu_debug12_Safe_vectorINSt7__debug6vectorIiSaIiEEENSt9__cxx19986vectorIiS3_EEE29_M_update_guaranteed_capacityEv(%"class.__gnu_debug::_Safe_vector"* %50) #3
  br label %34
}

; Function Attrs: noinline nounwind uwtable
define linkonce_odr zeroext i1 @_ZNKSt9__cxx19986vectorIiSaIiEE5emptyEv(%"class.std::__cxx1998::vector"*) #4 comdat align 2 {
  %2 = load i32, i32* @x.188
  %3 = load i32, i32* @y.189
  %4 = sub i32 %2, 1
  %5 = mul i32 %2, %4
  %6 = urem i32 %5, 2
  %7 = icmp eq i32 %6, 0
  %8 = icmp slt i32 %3, 10
  %9 = or i1 %7, %8
  br i1 %9, label %10, label %29

; <label>:10:                                     ; preds = %1, %29
  %11 = alloca %"class.std::__cxx1998::vector"*, align 8
  %12 = alloca %"class.__gnu_cxx::__normal_iterator.28", align 8
  %13 = alloca %"class.__gnu_cxx::__normal_iterator.28", align 8
  store %"class.std::__cxx1998::vector"* %0, %"class.std::__cxx1998::vector"** %11, align 8
  %14 = load %"class.std::__cxx1998::vector"*, %"class.std::__cxx1998::vector"** %11, align 8
  %15 = call i32* @_ZNKSt9__cxx19986vectorIiSaIiEE5beginEv(%"class.std::__cxx1998::vector"* %14) #3
  %16 = getelementptr inbounds %"class.__gnu_cxx::__normal_iterator.28", %"class.__gnu_cxx::__normal_iterator.28"* %12, i32 0, i32 0
  store i32* %15, i32** %16, align 8
  %17 = call i32* @_ZNKSt9__cxx19986vectorIiSaIiEE3endEv(%"class.std::__cxx1998::vector"* %14) #3
  %18 = getelementptr inbounds %"class.__gnu_cxx::__normal_iterator.28", %"class.__gnu_cxx::__normal_iterator.28"* %13, i32 0, i32 0
  store i32* %17, i32** %18, align 8
  %19 = call zeroext i1 @_ZN9__gnu_cxxeqIPKiNSt9__cxx19986vectorIiSaIiEEEEEbRKNS_17__normal_iteratorIT_T0_EESC_(%"class.__gnu_cxx::__normal_iterator.28"* dereferenceable(8) %12, %"class.__gnu_cxx::__normal_iterator.28"* dereferenceable(8) %13) #3
  %20 = load i32, i32* @x.188
  %21 = load i32, i32* @y.189
  %22 = sub i32 %20, 1
  %23 = mul i32 %20, %22
  %24 = urem i32 %23, 2
  %25 = icmp eq i32 %24, 0
  %26 = icmp slt i32 %21, 10
  %27 = or i1 %25, %26
  br i1 %27, label %28, label %29

; <label>:28:                                     ; preds = %10
  ret i1 %19

; <label>:29:                                     ; preds = %10, %1
  %30 = alloca %"class.std::__cxx1998::vector"*, align 8
  %31 = alloca %"class.__gnu_cxx::__normal_iterator.28", align 8
  %32 = alloca %"class.__gnu_cxx::__normal_iterator.28", align 8
  store %"class.std::__cxx1998::vector"* %0, %"class.std::__cxx1998::vector"** %30, align 8
  %33 = load %"class.std::__cxx1998::vector"*, %"class.std::__cxx1998::vector"** %30, align 8
  %34 = call i32* @_ZNKSt9__cxx19986vectorIiSaIiEE5beginEv(%"class.std::__cxx1998::vector"* %33) #3
  %35 = getelementptr inbounds %"class.__gnu_cxx::__normal_iterator.28", %"class.__gnu_cxx::__normal_iterator.28"* %31, i32 0, i32 0
  store i32* %34, i32** %35, align 8
  %36 = call i32* @_ZNKSt9__cxx19986vectorIiSaIiEE3endEv(%"class.std::__cxx1998::vector"* %33) #3
  %37 = getelementptr inbounds %"class.__gnu_cxx::__normal_iterator.28", %"class.__gnu_cxx::__normal_iterator.28"* %32, i32 0, i32 0
  store i32* %36, i32** %37, align 8
  %38 = call zeroext i1 @_ZN9__gnu_cxxeqIPKiNSt9__cxx19986vectorIiSaIiEEEEEbRKNS_17__normal_iteratorIT_T0_EESC_(%"class.__gnu_cxx::__normal_iterator.28"* dereferenceable(8) %31, %"class.__gnu_cxx::__normal_iterator.28"* dereferenceable(8) %32) #3
  br label %10
}

; Function Attrs: noinline uwtable
define linkonce_odr void @_ZNSt7__debug6vectorINS0_IiSaIiEEESaIS2_EE9push_backERKS2_(%"class.std::__debug::vector.3"*, %"class.std::__debug::vector"* dereferenceable(56)) #0 comdat align 2 {
  %3 = alloca %"class.std::__debug::vector.3"*, align 8
  %4 = alloca %"class.std::__debug::vector"*, align 8
  %5 = alloca i8, align 1
  store %"class.std::__debug::vector.3"* %0, %"class.std::__debug::vector.3"** %3, align 8
  store %"class.std::__debug::vector"* %1, %"class.std::__debug::vector"** %4, align 8
  %6 = load %"class.std::__debug::vector.3"*, %"class.std::__debug::vector.3"** %3, align 8
  %7 = bitcast %"class.std::__debug::vector.3"* %6 to i8*
  %8 = getelementptr inbounds i8, i8* %7, i64 48
  %9 = bitcast i8* %8 to %"class.__gnu_debug::_Safe_vector.13"*
  %10 = bitcast %"class.std::__debug::vector.3"* %6 to i8*
  %11 = getelementptr inbounds i8, i8* %10, i64 24
  %12 = bitcast i8* %11 to %"class.std::__cxx1998::vector.8"*
  %13 = call i64 @_ZNKSt9__cxx19986vectorINSt7__debug6vectorIiSaIiEEESaIS4_EE4sizeEv(%"class.std::__cxx1998::vector.8"* %12) #3
  %14 = add i64 %13, 1
  %15 = call zeroext i1 @_ZNK11__gnu_debug12_Safe_vectorINSt7__debug6vectorINS2_IiSaIiEEESaIS4_EEENSt9__cxx19986vectorIS4_S5_EEE24_M_requires_reallocationEm(%"class.__gnu_debug::_Safe_vector.13"* %9, i64 %14) #3
  %16 = zext i1 %15 to i8
  store i8 %16, i8* %5, align 1
  %17 = bitcast %"class.std::__debug::vector.3"* %6 to i8*
  %18 = getelementptr inbounds i8, i8* %17, i64 24
  %19 = bitcast i8* %18 to %"class.std::__cxx1998::vector.8"*
  %20 = load %"class.std::__debug::vector"*, %"class.std::__debug::vector"** %4, align 8
  call void @_ZNSt9__cxx19986vectorINSt7__debug6vectorIiSaIiEEESaIS4_EE9push_backERKS4_(%"class.std::__cxx1998::vector.8"* %19, %"class.std::__debug::vector"* dereferenceable(56) %20)
  %21 = load i8, i8* %5, align 1
  %22 = trunc i8 %21 to i1
  br i1 %22, label %23, label %25

; <label>:23:                                     ; preds = %2
  %24 = bitcast %"class.std::__debug::vector.3"* %6 to %"class.__gnu_debug::_Safe_sequence_base"*
  call void @_ZNK11__gnu_debug19_Safe_sequence_base17_M_invalidate_allEv(%"class.__gnu_debug::_Safe_sequence_base"* %24)
  br label %25

; <label>:25:                                     ; preds = %23, %2
  %26 = load i32, i32* @x.190
  %27 = load i32, i32* @y.191
  %28 = sub i32 %26, 1
  %29 = mul i32 %26, %28
  %30 = urem i32 %29, 2
  %31 = icmp eq i32 %30, 0
  %32 = icmp slt i32 %27, 10
  %33 = or i1 %31, %32
  br i1 %33, label %34, label %47

; <label>:34:                                     ; preds = %25, %47
  %35 = bitcast %"class.std::__debug::vector.3"* %6 to i8*
  %36 = getelementptr inbounds i8, i8* %35, i64 48
  %37 = bitcast i8* %36 to %"class.__gnu_debug::_Safe_vector.13"*
  call void @_ZN11__gnu_debug12_Safe_vectorINSt7__debug6vectorINS2_IiSaIiEEESaIS4_EEENSt9__cxx19986vectorIS4_S5_EEE29_M_update_guaranteed_capacityEv(%"class.__gnu_debug::_Safe_vector.13"* %37) #3
  %38 = load i32, i32* @x.190
  %39 = load i32, i32* @y.191
  %40 = sub i32 %38, 1
  %41 = mul i32 %38, %40
  %42 = urem i32 %41, 2
  %43 = icmp eq i32 %42, 0
  %44 = icmp slt i32 %39, 10
  %45 = or i1 %43, %44
  br i1 %45, label %46, label %47

; <label>:46:                                     ; preds = %34
  ret void

; <label>:47:                                     ; preds = %34, %25
  %48 = bitcast %"class.std::__debug::vector.3"* %6 to i8*
  %49 = getelementptr inbounds i8, i8* %48, i64 48
  %50 = bitcast i8* %49 to %"class.__gnu_debug::_Safe_vector.13"*
  call void @_ZN11__gnu_debug12_Safe_vectorINSt7__debug6vectorINS2_IiSaIiEEESaIS4_EEENSt9__cxx19986vectorIS4_S5_EEE29_M_update_guaranteed_capacityEv(%"class.__gnu_debug::_Safe_vector.13"* %50) #3
  br label %34
}

; Function Attrs: noinline nounwind uwtable
define linkonce_odr void @_ZN11__gnu_debug15_Safe_containerINSt7__debug6vectorINS2_IiSaIiEEESaIS4_EEES5_NS_14_Safe_sequenceELb1EEC2Ev(%"class.__gnu_debug::_Safe_container.4"*) unnamed_addr #4 comdat align 2 {
  %2 = alloca %"class.__gnu_debug::_Safe_container.4"*, align 8
  store %"class.__gnu_debug::_Safe_container.4"* %0, %"class.__gnu_debug::_Safe_container.4"** %2, align 8
  %3 = load %"class.__gnu_debug::_Safe_container.4"*, %"class.__gnu_debug::_Safe_container.4"** %2, align 8
  %4 = bitcast %"class.__gnu_debug::_Safe_container.4"* %3 to %"class.__gnu_debug::_Safe_sequence.5"*
  call void @_ZN11__gnu_debug14_Safe_sequenceINSt7__debug6vectorINS2_IiSaIiEEESaIS4_EEEEC2Ev(%"class.__gnu_debug::_Safe_sequence.5"* %4) #3
  ret void
}

; Function Attrs: noinline nounwind uwtable
define linkonce_odr void @_ZNSt9__cxx19986vectorINSt7__debug6vectorIiSaIiEEESaIS4_EEC2Ev(%"class.std::__cxx1998::vector.8"*) unnamed_addr #4 comdat align 2 personality i8* bitcast (i32 (...)* @__gxx_personality_v0 to i8*) {
  %2 = alloca %"class.std::__cxx1998::vector.8"*, align 8
  store %"class.std::__cxx1998::vector.8"* %0, %"class.std::__cxx1998::vector.8"** %2, align 8
  %3 = load %"class.std::__cxx1998::vector.8"*, %"class.std::__cxx1998::vector.8"** %2, align 8
  %4 = bitcast %"class.std::__cxx1998::vector.8"* %3 to %"struct.std::__cxx1998::_Vector_base.9"*
  invoke void @_ZNSt9__cxx199812_Vector_baseINSt7__debug6vectorIiSaIiEEESaIS4_EEC2Ev(%"struct.std::__cxx1998::_Vector_base.9"* %4)
          to label %5 unwind label %24

; <label>:5:                                      ; preds = %1
  %6 = load i32, i32* @x.194
  %7 = load i32, i32* @y.195
  %8 = sub i32 %6, 1
  %9 = mul i32 %6, %8
  %10 = urem i32 %9, 2
  %11 = icmp eq i32 %10, 0
  %12 = icmp slt i32 %7, 10
  %13 = or i1 %11, %12
  br i1 %13, label %14, label %45

; <label>:14:                                     ; preds = %5, %45
  %15 = load i32, i32* @x.194
  %16 = load i32, i32* @y.195
  %17 = sub i32 %15, 1
  %18 = mul i32 %15, %17
  %19 = urem i32 %18, 2
  %20 = icmp eq i32 %19, 0
  %21 = icmp slt i32 %16, 10
  %22 = or i1 %20, %21
  br i1 %22, label %23, label %45

; <label>:23:                                     ; preds = %14
  ret void

; <label>:24:                                     ; preds = %1
  %25 = load i32, i32* @x.194
  %26 = load i32, i32* @y.195
  %27 = sub i32 %25, 1
  %28 = mul i32 %25, %27
  %29 = urem i32 %28, 2
  %30 = icmp eq i32 %29, 0
  %31 = icmp slt i32 %26, 10
  %32 = or i1 %30, %31
  br i1 %32, label %33, label %46

; <label>:33:                                     ; preds = %24, %46
  %34 = landingpad { i8*, i32 }
          catch i8* null
  %35 = extractvalue { i8*, i32 } %34, 0
  call void @__clang_call_terminate(i8* %35) #10
  %36 = load i32, i32* @x.194
  %37 = load i32, i32* @y.195
  %38 = sub i32 %36, 1
  %39 = mul i32 %36, %38
  %40 = urem i32 %39, 2
  %41 = icmp eq i32 %40, 0
  %42 = icmp slt i32 %37, 10
  %43 = or i1 %41, %42
  br i1 %43, label %44, label %46

; <label>:44:                                     ; preds = %33
  unreachable

; <label>:45:                                     ; preds = %14, %5
  br label %14

; <label>:46:                                     ; preds = %33, %24
  %47 = landingpad { i8*, i32 }
          catch i8* null
  %48 = extractvalue { i8*, i32 } %47, 0
  call void @__clang_call_terminate(i8* %48) #10
  br label %33
}

; Function Attrs: noinline nounwind uwtable
define linkonce_odr void @_ZN11__gnu_debug12_Safe_vectorINSt7__debug6vectorINS2_IiSaIiEEESaIS4_EEENSt9__cxx19986vectorIS4_S5_EEEC2Ev(%"class.__gnu_debug::_Safe_vector.13"*) unnamed_addr #4 comdat align 2 {
  %2 = alloca %"class.__gnu_debug::_Safe_vector.13"*, align 8
  store %"class.__gnu_debug::_Safe_vector.13"* %0, %"class.__gnu_debug::_Safe_vector.13"** %2, align 8
  %3 = load %"class.__gnu_debug::_Safe_vector.13"*, %"class.__gnu_debug::_Safe_vector.13"** %2, align 8
  %4 = getelementptr inbounds %"class.__gnu_debug::_Safe_vector.13", %"class.__gnu_debug::_Safe_vector.13"* %3, i32 0, i32 0
  store i64 0, i64* %4, align 8
  call void @_ZN11__gnu_debug12_Safe_vectorINSt7__debug6vectorINS2_IiSaIiEEESaIS4_EEENSt9__cxx19986vectorIS4_S5_EEE29_M_update_guaranteed_capacityEv(%"class.__gnu_debug::_Safe_vector.13"* %3) #3
  ret void
}

; Function Attrs: noinline nounwind uwtable
define linkonce_odr void @_ZN11__gnu_debug14_Safe_sequenceINSt7__debug6vectorINS2_IiSaIiEEESaIS4_EEEEC2Ev(%"class.__gnu_debug::_Safe_sequence.5"*) unnamed_addr #4 comdat align 2 {
  %2 = alloca %"class.__gnu_debug::_Safe_sequence.5"*, align 8
  store %"class.__gnu_debug::_Safe_sequence.5"* %0, %"class.__gnu_debug::_Safe_sequence.5"** %2, align 8
  %3 = load %"class.__gnu_debug::_Safe_sequence.5"*, %"class.__gnu_debug::_Safe_sequence.5"** %2, align 8
  %4 = bitcast %"class.__gnu_debug::_Safe_sequence.5"* %3 to %"class.__gnu_debug::_Safe_sequence_base"*
  call void @_ZN11__gnu_debug19_Safe_sequence_baseC2Ev(%"class.__gnu_debug::_Safe_sequence_base"* %4) #3
  ret void
}

; Function Attrs: noinline uwtable
define linkonce_odr void @_ZNSt9__cxx199812_Vector_baseINSt7__debug6vectorIiSaIiEEESaIS4_EEC2Ev(%"struct.std::__cxx1998::_Vector_base.9"*) unnamed_addr #0 comdat align 2 {
  %2 = alloca %"struct.std::__cxx1998::_Vector_base.9"*, align 8
  store %"struct.std::__cxx1998::_Vector_base.9"* %0, %"struct.std::__cxx1998::_Vector_base.9"** %2, align 8
  %3 = load %"struct.std::__cxx1998::_Vector_base.9"*, %"struct.std::__cxx1998::_Vector_base.9"** %2, align 8
  %4 = getelementptr inbounds %"struct.std::__cxx1998::_Vector_base.9", %"struct.std::__cxx1998::_Vector_base.9"* %3, i32 0, i32 0
  call void @_ZNSt9__cxx199812_Vector_baseINSt7__debug6vectorIiSaIiEEESaIS4_EE12_Vector_implC2Ev(%"struct.std::__cxx1998::_Vector_base<std::__debug::vector<int, std::allocator<int> >, std::allocator<std::__debug::vector<int, std::allocator<int> > > >::_Vector_impl"* %4)
  ret void
}

; Function Attrs: noinline nounwind uwtable
define linkonce_odr void @_ZNSt9__cxx199812_Vector_baseINSt7__debug6vectorIiSaIiEEESaIS4_EE12_Vector_implC2Ev(%"struct.std::__cxx1998::_Vector_base<std::__debug::vector<int, std::allocator<int> >, std::allocator<std::__debug::vector<int, std::allocator<int> > > >::_Vector_impl"*) unnamed_addr #4 comdat align 2 {
  %2 = alloca %"struct.std::__cxx1998::_Vector_base<std::__debug::vector<int, std::allocator<int> >, std::allocator<std::__debug::vector<int, std::allocator<int> > > >::_Vector_impl"*, align 8
  store %"struct.std::__cxx1998::_Vector_base<std::__debug::vector<int, std::allocator<int> >, std::allocator<std::__debug::vector<int, std::allocator<int> > > >::_Vector_impl"* %0, %"struct.std::__cxx1998::_Vector_base<std::__debug::vector<int, std::allocator<int> >, std::allocator<std::__debug::vector<int, std::allocator<int> > > >::_Vector_impl"** %2, align 8
  %3 = load %"struct.std::__cxx1998::_Vector_base<std::__debug::vector<int, std::allocator<int> >, std::allocator<std::__debug::vector<int, std::allocator<int> > > >::_Vector_impl"*, %"struct.std::__cxx1998::_Vector_base<std::__debug::vector<int, std::allocator<int> >, std::allocator<std::__debug::vector<int, std::allocator<int> > > >::_Vector_impl"** %2, align 8
  %4 = bitcast %"struct.std::__cxx1998::_Vector_base<std::__debug::vector<int, std::allocator<int> >, std::allocator<std::__debug::vector<int, std::allocator<int> > > >::_Vector_impl"* %3 to %"class.std::allocator.10"*
  call void @_ZNSaINSt7__debug6vectorIiSaIiEEEEC2Ev(%"class.std::allocator.10"* %4) #3
  %5 = getelementptr inbounds %"struct.std::__cxx1998::_Vector_base<std::__debug::vector<int, std::allocator<int> >, std::allocator<std::__debug::vector<int, std::allocator<int> > > >::_Vector_impl", %"struct.std::__cxx1998::_Vector_base<std::__debug::vector<int, std::allocator<int> >, std::allocator<std::__debug::vector<int, std::allocator<int> > > >::_Vector_impl"* %3, i32 0, i32 0
  store %"class.std::__debug::vector"* null, %"class.std::__debug::vector"** %5, align 8
  %6 = getelementptr inbounds %"struct.std::__cxx1998::_Vector_base<std::__debug::vector<int, std::allocator<int> >, std::allocator<std::__debug::vector<int, std::allocator<int> > > >::_Vector_impl", %"struct.std::__cxx1998::_Vector_base<std::__debug::vector<int, std::allocator<int> >, std::allocator<std::__debug::vector<int, std::allocator<int> > > >::_Vector_impl"* %3, i32 0, i32 1
  store %"class.std::__debug::vector"* null, %"class.std::__debug::vector"** %6, align 8
  %7 = getelementptr inbounds %"struct.std::__cxx1998::_Vector_base<std::__debug::vector<int, std::allocator<int> >, std::allocator<std::__debug::vector<int, std::allocator<int> > > >::_Vector_impl", %"struct.std::__cxx1998::_Vector_base<std::__debug::vector<int, std::allocator<int> >, std::allocator<std::__debug::vector<int, std::allocator<int> > > >::_Vector_impl"* %3, i32 0, i32 2
  store %"class.std::__debug::vector"* null, %"class.std::__debug::vector"** %7, align 8
  ret void
}

; Function Attrs: noinline nounwind uwtable
define linkonce_odr void @_ZN9__gnu_cxx13new_allocatorINSt7__debug6vectorIiSaIiEEEEC2Ev(%"class.__gnu_cxx::new_allocator.11"*) unnamed_addr #4 comdat align 2 {
  %2 = alloca %"class.__gnu_cxx::new_allocator.11"*, align 8
  store %"class.__gnu_cxx::new_allocator.11"* %0, %"class.__gnu_cxx::new_allocator.11"** %2, align 8
  %3 = load %"class.__gnu_cxx::new_allocator.11"*, %"class.__gnu_cxx::new_allocator.11"** %2, align 8
  ret void
}

; Function Attrs: noinline nounwind uwtable
define linkonce_odr void @_ZN11__gnu_debug12_Safe_vectorINSt7__debug6vectorINS2_IiSaIiEEESaIS4_EEENSt9__cxx19986vectorIS4_S5_EEE29_M_update_guaranteed_capacityEv(%"class.__gnu_debug::_Safe_vector.13"*) #4 comdat align 2 personality i8* bitcast (i32 (...)* @__gxx_personality_v0 to i8*) {
  %2 = alloca %"class.__gnu_debug::_Safe_vector.13"*, align 8
  store %"class.__gnu_debug::_Safe_vector.13"* %0, %"class.__gnu_debug::_Safe_vector.13"** %2, align 8
  %3 = load %"class.__gnu_debug::_Safe_vector.13"*, %"class.__gnu_debug::_Safe_vector.13"** %2, align 8
  %4 = invoke dereferenceable(56) %"class.std::__debug::vector.3"* @_ZNK11__gnu_debug12_Safe_vectorINSt7__debug6vectorINS2_IiSaIiEEESaIS4_EEENSt9__cxx19986vectorIS4_S5_EEE6_M_seqEv(%"class.__gnu_debug::_Safe_vector.13"* %3)
          to label %5 unwind label %22

; <label>:5:                                      ; preds = %1
  %6 = bitcast %"class.std::__debug::vector.3"* %4 to i8*
  %7 = getelementptr inbounds i8, i8* %6, i64 24
  %8 = bitcast i8* %7 to %"class.std::__cxx1998::vector.8"*
  %9 = call i64 @_ZNKSt9__cxx19986vectorINSt7__debug6vectorIiSaIiEEESaIS4_EE4sizeEv(%"class.std::__cxx1998::vector.8"* %8) #3
  %10 = getelementptr inbounds %"class.__gnu_debug::_Safe_vector.13", %"class.__gnu_debug::_Safe_vector.13"* %3, i32 0, i32 0
  %11 = load i64, i64* %10, align 8
  %12 = icmp ugt i64 %9, %11
  br i1 %12, label %13, label %21

; <label>:13:                                     ; preds = %5
  %14 = invoke dereferenceable(56) %"class.std::__debug::vector.3"* @_ZNK11__gnu_debug12_Safe_vectorINSt7__debug6vectorINS2_IiSaIiEEESaIS4_EEENSt9__cxx19986vectorIS4_S5_EEE6_M_seqEv(%"class.__gnu_debug::_Safe_vector.13"* %3)
          to label %15 unwind label %22

; <label>:15:                                     ; preds = %13
  %16 = bitcast %"class.std::__debug::vector.3"* %14 to i8*
  %17 = getelementptr inbounds i8, i8* %16, i64 24
  %18 = bitcast i8* %17 to %"class.std::__cxx1998::vector.8"*
  %19 = call i64 @_ZNKSt9__cxx19986vectorINSt7__debug6vectorIiSaIiEEESaIS4_EE4sizeEv(%"class.std::__cxx1998::vector.8"* %18) #3
  %20 = getelementptr inbounds %"class.__gnu_debug::_Safe_vector.13", %"class.__gnu_debug::_Safe_vector.13"* %3, i32 0, i32 0
  store i64 %19, i64* %20, align 8
  br label %21

; <label>:21:                                     ; preds = %15, %5
  ret void

; <label>:22:                                     ; preds = %13, %1
  %23 = load i32, i32* @x.206
  %24 = load i32, i32* @y.207
  %25 = sub i32 %23, 1
  %26 = mul i32 %23, %25
  %27 = urem i32 %26, 2
  %28 = icmp eq i32 %27, 0
  %29 = icmp slt i32 %24, 10
  %30 = or i1 %28, %29
  br i1 %30, label %31, label %43

; <label>:31:                                     ; preds = %22, %43
  %32 = landingpad { i8*, i32 }
          catch i8* null
  %33 = extractvalue { i8*, i32 } %32, 0
  call void @__clang_call_terminate(i8* %33) #10
  %34 = load i32, i32* @x.206
  %35 = load i32, i32* @y.207
  %36 = sub i32 %34, 1
  %37 = mul i32 %34, %36
  %38 = urem i32 %37, 2
  %39 = icmp eq i32 %38, 0
  %40 = icmp slt i32 %35, 10
  %41 = or i1 %39, %40
  br i1 %41, label %42, label %43

; <label>:42:                                     ; preds = %31
  unreachable

; <label>:43:                                     ; preds = %31, %22
  %44 = landingpad { i8*, i32 }
          catch i8* null
  %45 = extractvalue { i8*, i32 } %44, 0
  call void @__clang_call_terminate(i8* %45) #10
  br label %31
}

; Function Attrs: noinline nounwind uwtable
define linkonce_odr dereferenceable(56) %"class.std::__debug::vector.3"* @_ZNK11__gnu_debug12_Safe_vectorINSt7__debug6vectorINS2_IiSaIiEEESaIS4_EEENSt9__cxx19986vectorIS4_S5_EEE6_M_seqEv(%"class.__gnu_debug::_Safe_vector.13"*) #4 comdat align 2 {
  %2 = alloca %"class.__gnu_debug::_Safe_vector.13"*, align 8
  store %"class.__gnu_debug::_Safe_vector.13"* %0, %"class.__gnu_debug::_Safe_vector.13"** %2, align 8
  %3 = load %"class.__gnu_debug::_Safe_vector.13"*, %"class.__gnu_debug::_Safe_vector.13"** %2, align 8
  %4 = bitcast %"class.__gnu_debug::_Safe_vector.13"* %3 to i8*
  %5 = getelementptr i8, i8* %4, i64 -48
  %6 = bitcast i8* %5 to %"class.std::__debug::vector.3"*
  ret %"class.std::__debug::vector.3"* %6
}

; Function Attrs: noinline nounwind uwtable
define linkonce_odr i64 @_ZNKSt9__cxx19986vectorINSt7__debug6vectorIiSaIiEEESaIS4_EE4sizeEv(%"class.std::__cxx1998::vector.8"*) #4 comdat align 2 {
  %2 = load i32, i32* @x.210
  %3 = load i32, i32* @y.211
  %4 = sub i32 %2, 1
  %5 = mul i32 %2, %4
  %6 = urem i32 %5, 2
  %7 = icmp eq i32 %6, 0
  %8 = icmp slt i32 %3, 10
  %9 = or i1 %7, %8
  br i1 %9, label %10, label %34

; <label>:10:                                     ; preds = %1, %34
  %11 = alloca %"class.std::__cxx1998::vector.8"*, align 8
  store %"class.std::__cxx1998::vector.8"* %0, %"class.std::__cxx1998::vector.8"** %11, align 8
  %12 = load %"class.std::__cxx1998::vector.8"*, %"class.std::__cxx1998::vector.8"** %11, align 8
  %13 = bitcast %"class.std::__cxx1998::vector.8"* %12 to %"struct.std::__cxx1998::_Vector_base.9"*
  %14 = getelementptr inbounds %"struct.std::__cxx1998::_Vector_base.9", %"struct.std::__cxx1998::_Vector_base.9"* %13, i32 0, i32 0
  %15 = getelementptr inbounds %"struct.std::__cxx1998::_Vector_base<std::__debug::vector<int, std::allocator<int> >, std::allocator<std::__debug::vector<int, std::allocator<int> > > >::_Vector_impl", %"struct.std::__cxx1998::_Vector_base<std::__debug::vector<int, std::allocator<int> >, std::allocator<std::__debug::vector<int, std::allocator<int> > > >::_Vector_impl"* %14, i32 0, i32 1
  %16 = load %"class.std::__debug::vector"*, %"class.std::__debug::vector"** %15, align 8
  %17 = bitcast %"class.std::__cxx1998::vector.8"* %12 to %"struct.std::__cxx1998::_Vector_base.9"*
  %18 = getelementptr inbounds %"struct.std::__cxx1998::_Vector_base.9", %"struct.std::__cxx1998::_Vector_base.9"* %17, i32 0, i32 0
  %19 = getelementptr inbounds %"struct.std::__cxx1998::_Vector_base<std::__debug::vector<int, std::allocator<int> >, std::allocator<std::__debug::vector<int, std::allocator<int> > > >::_Vector_impl", %"struct.std::__cxx1998::_Vector_base<std::__debug::vector<int, std::allocator<int> >, std::allocator<std::__debug::vector<int, std::allocator<int> > > >::_Vector_impl"* %18, i32 0, i32 0
  %20 = load %"class.std::__debug::vector"*, %"class.std::__debug::vector"** %19, align 8
  %21 = ptrtoint %"class.std::__debug::vector"* %16 to i64
  %22 = ptrtoint %"class.std::__debug::vector"* %20 to i64
  %23 = sub i64 %21, %22
  %24 = sdiv exact i64 %23, 56
  %25 = load i32, i32* @x.210
  %26 = load i32, i32* @y.211
  %27 = sub i32 %25, 1
  %28 = mul i32 %25, %27
  %29 = urem i32 %28, 2
  %30 = icmp eq i32 %29, 0
  %31 = icmp slt i32 %26, 10
  %32 = or i1 %30, %31
  br i1 %32, label %33, label %34

; <label>:33:                                     ; preds = %10
  ret i64 %24

; <label>:34:                                     ; preds = %10, %1
  %35 = alloca %"class.std::__cxx1998::vector.8"*, align 8
  store %"class.std::__cxx1998::vector.8"* %0, %"class.std::__cxx1998::vector.8"** %35, align 8
  %36 = load %"class.std::__cxx1998::vector.8"*, %"class.std::__cxx1998::vector.8"** %35, align 8
  %37 = bitcast %"class.std::__cxx1998::vector.8"* %36 to %"struct.std::__cxx1998::_Vector_base.9"*
  %38 = getelementptr inbounds %"struct.std::__cxx1998::_Vector_base.9", %"struct.std::__cxx1998::_Vector_base.9"* %37, i32 0, i32 0
  %39 = getelementptr inbounds %"struct.std::__cxx1998::_Vector_base<std::__debug::vector<int, std::allocator<int> >, std::allocator<std::__debug::vector<int, std::allocator<int> > > >::_Vector_impl", %"struct.std::__cxx1998::_Vector_base<std::__debug::vector<int, std::allocator<int> >, std::allocator<std::__debug::vector<int, std::allocator<int> > > >::_Vector_impl"* %38, i32 0, i32 1
  %40 = load %"class.std::__debug::vector"*, %"class.std::__debug::vector"** %39, align 8
  %41 = bitcast %"class.std::__cxx1998::vector.8"* %36 to %"struct.std::__cxx1998::_Vector_base.9"*
  %42 = getelementptr inbounds %"struct.std::__cxx1998::_Vector_base.9", %"struct.std::__cxx1998::_Vector_base.9"* %41, i32 0, i32 0
  %43 = getelementptr inbounds %"struct.std::__cxx1998::_Vector_base<std::__debug::vector<int, std::allocator<int> >, std::allocator<std::__debug::vector<int, std::allocator<int> > > >::_Vector_impl", %"struct.std::__cxx1998::_Vector_base<std::__debug::vector<int, std::allocator<int> >, std::allocator<std::__debug::vector<int, std::allocator<int> > > >::_Vector_impl"* %42, i32 0, i32 0
  %44 = load %"class.std::__debug::vector"*, %"class.std::__debug::vector"** %43, align 8
  %45 = ptrtoint %"class.std::__debug::vector"* %40 to i64
  %46 = ptrtoint %"class.std::__debug::vector"* %44 to i64
  %47 = shl i64 %45, %46
  %48 = shl i64 %45, %46
  %49 = sub i64 %45, %46
  %50 = mul i64 %49, %46
  %51 = sub i64 %45, %46
  %52 = mul i64 %51, %46
  %53 = sub i64 0, %45
  %54 = add i64 %53, %46
  %55 = sub i64 %45, %46
  %56 = mul i64 %55, %46
  %57 = shl i64 %45, %46
  %58 = sub i64 0, %45
  %59 = add i64 %58, %46
  %60 = sub i64 %45, %46
  %61 = sub i64 %60, 56
  %62 = mul i64 %61, 56
  %63 = shl i64 %60, 56
  %64 = sdiv exact i64 %60, 56
  br label %10
}

; Function Attrs: noinline uwtable
define linkonce_odr void @_ZNSt9__cxx19986vectorINSt7__debug6vectorIiSaIiEEESaIS4_EEC2EmRKS5_(%"class.std::__cxx1998::vector.8"*, i64, %"class.std::allocator.10"* dereferenceable(1)) unnamed_addr #0 comdat align 2 personality i8* bitcast (i32 (...)* @__gxx_personality_v0 to i8*) {
  %4 = alloca %"class.std::__cxx1998::vector.8"*, align 8
  %5 = alloca i64, align 8
  %6 = alloca %"class.std::allocator.10"*, align 8
  %7 = alloca i8*
  %8 = alloca i32
  store %"class.std::__cxx1998::vector.8"* %0, %"class.std::__cxx1998::vector.8"** %4, align 8
  store i64 %1, i64* %5, align 8
  store %"class.std::allocator.10"* %2, %"class.std::allocator.10"** %6, align 8
  %9 = load %"class.std::__cxx1998::vector.8"*, %"class.std::__cxx1998::vector.8"** %4, align 8
  %10 = bitcast %"class.std::__cxx1998::vector.8"* %9 to %"struct.std::__cxx1998::_Vector_base.9"*
  %11 = load i64, i64* %5, align 8
  %12 = load %"class.std::allocator.10"*, %"class.std::allocator.10"** %6, align 8
  call void @_ZNSt9__cxx199812_Vector_baseINSt7__debug6vectorIiSaIiEEESaIS4_EEC2EmRKS5_(%"struct.std::__cxx1998::_Vector_base.9"* %10, i64 %11, %"class.std::allocator.10"* dereferenceable(1) %12)
  %13 = load i64, i64* %5, align 8
  invoke void @_ZNSt9__cxx19986vectorINSt7__debug6vectorIiSaIiEEESaIS4_EE21_M_default_initializeEm(%"class.std::__cxx1998::vector.8"* %9, i64 %13)
          to label %14 unwind label %15

; <label>:14:                                     ; preds = %3
  ret void

; <label>:15:                                     ; preds = %3
  %16 = landingpad { i8*, i32 }
          cleanup
  %17 = extractvalue { i8*, i32 } %16, 0
  store i8* %17, i8** %7, align 8
  %18 = extractvalue { i8*, i32 } %16, 1
  store i32 %18, i32* %8, align 4
  %19 = bitcast %"class.std::__cxx1998::vector.8"* %9 to %"struct.std::__cxx1998::_Vector_base.9"*
  call void @_ZNSt9__cxx199812_Vector_baseINSt7__debug6vectorIiSaIiEEESaIS4_EED2Ev(%"struct.std::__cxx1998::_Vector_base.9"* %19) #3
  br label %20

; <label>:20:                                     ; preds = %15
  %21 = load i8*, i8** %7, align 8
  %22 = load i32, i32* %8, align 4
  %23 = insertvalue { i8*, i32 } undef, i8* %21, 0
  %24 = insertvalue { i8*, i32 } %23, i32 %22, 1
  resume { i8*, i32 } %24
}

; Function Attrs: noinline nounwind uwtable
define linkonce_odr void @_ZN11__gnu_debug12_Safe_vectorINSt7__debug6vectorINS2_IiSaIiEEESaIS4_EEENSt9__cxx19986vectorIS4_S5_EEEC2Em(%"class.__gnu_debug::_Safe_vector.13"*, i64) unnamed_addr #4 comdat align 2 {
  %3 = load i32, i32* @x.214
  %4 = load i32, i32* @y.215
  %5 = sub i32 %3, 1
  %6 = mul i32 %3, %5
  %7 = urem i32 %6, 2
  %8 = icmp eq i32 %7, 0
  %9 = icmp slt i32 %4, 10
  %10 = or i1 %8, %9
  br i1 %10, label %11, label %26

; <label>:11:                                     ; preds = %2, %26
  %12 = alloca %"class.__gnu_debug::_Safe_vector.13"*, align 8
  %13 = alloca i64, align 8
  store %"class.__gnu_debug::_Safe_vector.13"* %0, %"class.__gnu_debug::_Safe_vector.13"** %12, align 8
  store i64 %1, i64* %13, align 8
  %14 = load %"class.__gnu_debug::_Safe_vector.13"*, %"class.__gnu_debug::_Safe_vector.13"** %12, align 8
  %15 = getelementptr inbounds %"class.__gnu_debug::_Safe_vector.13", %"class.__gnu_debug::_Safe_vector.13"* %14, i32 0, i32 0
  %16 = load i64, i64* %13, align 8
  store i64 %16, i64* %15, align 8
  %17 = load i32, i32* @x.214
  %18 = load i32, i32* @y.215
  %19 = sub i32 %17, 1
  %20 = mul i32 %17, %19
  %21 = urem i32 %20, 2
  %22 = icmp eq i32 %21, 0
  %23 = icmp slt i32 %18, 10
  %24 = or i1 %22, %23
  br i1 %24, label %25, label %26

; <label>:25:                                     ; preds = %11
  ret void

; <label>:26:                                     ; preds = %11, %2
  %27 = alloca %"class.__gnu_debug::_Safe_vector.13"*, align 8
  %28 = alloca i64, align 8
  store %"class.__gnu_debug::_Safe_vector.13"* %0, %"class.__gnu_debug::_Safe_vector.13"** %27, align 8
  store i64 %1, i64* %28, align 8
  %29 = load %"class.__gnu_debug::_Safe_vector.13"*, %"class.__gnu_debug::_Safe_vector.13"** %27, align 8
  %30 = getelementptr inbounds %"class.__gnu_debug::_Safe_vector.13", %"class.__gnu_debug::_Safe_vector.13"* %29, i32 0, i32 0
  %31 = load i64, i64* %28, align 8
  store i64 %31, i64* %30, align 8
  br label %11
}

; Function Attrs: noinline nounwind uwtable
define linkonce_odr void @_ZN11__gnu_debug15_Safe_containerINSt7__debug6vectorINS2_IiSaIiEEESaIS4_EEES5_NS_14_Safe_sequenceELb1EED2Ev(%"class.__gnu_debug::_Safe_container.4"*) unnamed_addr #4 comdat align 2 {
  %2 = alloca %"class.__gnu_debug::_Safe_container.4"*, align 8
  store %"class.__gnu_debug::_Safe_container.4"* %0, %"class.__gnu_debug::_Safe_container.4"** %2, align 8
  %3 = load %"class.__gnu_debug::_Safe_container.4"*, %"class.__gnu_debug::_Safe_container.4"** %2, align 8
  %4 = bitcast %"class.__gnu_debug::_Safe_container.4"* %3 to %"class.__gnu_debug::_Safe_sequence.5"*
  call void @_ZN11__gnu_debug14_Safe_sequenceINSt7__debug6vectorINS2_IiSaIiEEESaIS4_EEEED2Ev(%"class.__gnu_debug::_Safe_sequence.5"* %4) #3
  ret void
}

; Function Attrs: noinline uwtable
define linkonce_odr void @_ZNSt9__cxx199812_Vector_baseINSt7__debug6vectorIiSaIiEEESaIS4_EEC2EmRKS5_(%"struct.std::__cxx1998::_Vector_base.9"*, i64, %"class.std::allocator.10"* dereferenceable(1)) unnamed_addr #0 comdat align 2 personality i8* bitcast (i32 (...)* @__gxx_personality_v0 to i8*) {
  %4 = alloca %"struct.std::__cxx1998::_Vector_base.9"*, align 8
  %5 = alloca i64, align 8
  %6 = alloca %"class.std::allocator.10"*, align 8
  %7 = alloca i8*
  %8 = alloca i32
  store %"struct.std::__cxx1998::_Vector_base.9"* %0, %"struct.std::__cxx1998::_Vector_base.9"** %4, align 8
  store i64 %1, i64* %5, align 8
  store %"class.std::allocator.10"* %2, %"class.std::allocator.10"** %6, align 8
  %9 = load %"struct.std::__cxx1998::_Vector_base.9"*, %"struct.std::__cxx1998::_Vector_base.9"** %4, align 8
  %10 = getelementptr inbounds %"struct.std::__cxx1998::_Vector_base.9", %"struct.std::__cxx1998::_Vector_base.9"* %9, i32 0, i32 0
  %11 = load %"class.std::allocator.10"*, %"class.std::allocator.10"** %6, align 8
  call void @_ZNSt9__cxx199812_Vector_baseINSt7__debug6vectorIiSaIiEEESaIS4_EE12_Vector_implC2ERKS5_(%"struct.std::__cxx1998::_Vector_base<std::__debug::vector<int, std::allocator<int> >, std::allocator<std::__debug::vector<int, std::allocator<int> > > >::_Vector_impl"* %10, %"class.std::allocator.10"* dereferenceable(1) %11) #3
  %12 = load i64, i64* %5, align 8
  invoke void @_ZNSt9__cxx199812_Vector_baseINSt7__debug6vectorIiSaIiEEESaIS4_EE17_M_create_storageEm(%"struct.std::__cxx1998::_Vector_base.9"* %9, i64 %12)
          to label %13 unwind label %32

; <label>:13:                                     ; preds = %3
  %14 = load i32, i32* @x.218
  %15 = load i32, i32* @y.219
  %16 = sub i32 %14, 1
  %17 = mul i32 %14, %16
  %18 = urem i32 %17, 2
  %19 = icmp eq i32 %18, 0
  %20 = icmp slt i32 %15, 10
  %21 = or i1 %19, %20
  br i1 %21, label %22, label %59

; <label>:22:                                     ; preds = %13, %59
  %23 = load i32, i32* @x.218
  %24 = load i32, i32* @y.219
  %25 = sub i32 %23, 1
  %26 = mul i32 %23, %25
  %27 = urem i32 %26, 2
  %28 = icmp eq i32 %27, 0
  %29 = icmp slt i32 %24, 10
  %30 = or i1 %28, %29
  br i1 %30, label %31, label %59

; <label>:31:                                     ; preds = %22
  ret void

; <label>:32:                                     ; preds = %3
  %33 = landingpad { i8*, i32 }
          cleanup
  %34 = extractvalue { i8*, i32 } %33, 0
  store i8* %34, i8** %7, align 8
  %35 = extractvalue { i8*, i32 } %33, 1
  store i32 %35, i32* %8, align 4
  call void @_ZNSt9__cxx199812_Vector_baseINSt7__debug6vectorIiSaIiEEESaIS4_EE12_Vector_implD2Ev(%"struct.std::__cxx1998::_Vector_base<std::__debug::vector<int, std::allocator<int> >, std::allocator<std::__debug::vector<int, std::allocator<int> > > >::_Vector_impl"* %10) #3
  br label %36

; <label>:36:                                     ; preds = %32
  %37 = load i32, i32* @x.218
  %38 = load i32, i32* @y.219
  %39 = sub i32 %37, 1
  %40 = mul i32 %37, %39
  %41 = urem i32 %40, 2
  %42 = icmp eq i32 %41, 0
  %43 = icmp slt i32 %38, 10
  %44 = or i1 %42, %43
  br i1 %44, label %45, label %60

; <label>:45:                                     ; preds = %36, %60
  %46 = load i8*, i8** %7, align 8
  %47 = load i32, i32* %8, align 4
  %48 = insertvalue { i8*, i32 } undef, i8* %46, 0
  %49 = insertvalue { i8*, i32 } %48, i32 %47, 1
  %50 = load i32, i32* @x.218
  %51 = load i32, i32* @y.219
  %52 = sub i32 %50, 1
  %53 = mul i32 %50, %52
  %54 = urem i32 %53, 2
  %55 = icmp eq i32 %54, 0
  %56 = icmp slt i32 %51, 10
  %57 = or i1 %55, %56
  br i1 %57, label %58, label %60

; <label>:58:                                     ; preds = %45
  resume { i8*, i32 } %49

; <label>:59:                                     ; preds = %22, %13
  br label %22

; <label>:60:                                     ; preds = %45, %36
  %61 = load i8*, i8** %7, align 8
  %62 = load i32, i32* %8, align 4
  %63 = insertvalue { i8*, i32 } undef, i8* %61, 0
  %64 = insertvalue { i8*, i32 } %63, i32 %62, 1
  br label %45
}

; Function Attrs: noinline uwtable
define linkonce_odr void @_ZNSt9__cxx19986vectorINSt7__debug6vectorIiSaIiEEESaIS4_EE21_M_default_initializeEm(%"class.std::__cxx1998::vector.8"*, i64) #0 comdat align 2 {
  %3 = load i32, i32* @x.220
  %4 = load i32, i32* @y.221
  %5 = sub i32 %3, 1
  %6 = mul i32 %3, %5
  %7 = urem i32 %6, 2
  %8 = icmp eq i32 %7, 0
  %9 = icmp slt i32 %4, 10
  %10 = or i1 %8, %9
  br i1 %10, label %11, label %35

; <label>:11:                                     ; preds = %2, %35
  %12 = alloca %"class.std::__cxx1998::vector.8"*, align 8
  %13 = alloca i64, align 8
  store %"class.std::__cxx1998::vector.8"* %0, %"class.std::__cxx1998::vector.8"** %12, align 8
  store i64 %1, i64* %13, align 8
  %14 = load %"class.std::__cxx1998::vector.8"*, %"class.std::__cxx1998::vector.8"** %12, align 8
  %15 = bitcast %"class.std::__cxx1998::vector.8"* %14 to %"struct.std::__cxx1998::_Vector_base.9"*
  %16 = getelementptr inbounds %"struct.std::__cxx1998::_Vector_base.9", %"struct.std::__cxx1998::_Vector_base.9"* %15, i32 0, i32 0
  %17 = getelementptr inbounds %"struct.std::__cxx1998::_Vector_base<std::__debug::vector<int, std::allocator<int> >, std::allocator<std::__debug::vector<int, std::allocator<int> > > >::_Vector_impl", %"struct.std::__cxx1998::_Vector_base<std::__debug::vector<int, std::allocator<int> >, std::allocator<std::__debug::vector<int, std::allocator<int> > > >::_Vector_impl"* %16, i32 0, i32 0
  %18 = load %"class.std::__debug::vector"*, %"class.std::__debug::vector"** %17, align 8
  %19 = load i64, i64* %13, align 8
  %20 = bitcast %"class.std::__cxx1998::vector.8"* %14 to %"struct.std::__cxx1998::_Vector_base.9"*
  %21 = call dereferenceable(1) %"class.std::allocator.10"* @_ZNSt9__cxx199812_Vector_baseINSt7__debug6vectorIiSaIiEEESaIS4_EE19_M_get_Tp_allocatorEv(%"struct.std::__cxx1998::_Vector_base.9"* %20) #3
  %22 = call %"class.std::__debug::vector"* @_ZSt27__uninitialized_default_n_aIPNSt7__debug6vectorIiSaIiEEEmS3_ET_S5_T0_RSaIT1_E(%"class.std::__debug::vector"* %18, i64 %19, %"class.std::allocator.10"* dereferenceable(1) %21)
  %23 = bitcast %"class.std::__cxx1998::vector.8"* %14 to %"struct.std::__cxx1998::_Vector_base.9"*
  %24 = getelementptr inbounds %"struct.std::__cxx1998::_Vector_base.9", %"struct.std::__cxx1998::_Vector_base.9"* %23, i32 0, i32 0
  %25 = getelementptr inbounds %"struct.std::__cxx1998::_Vector_base<std::__debug::vector<int, std::allocator<int> >, std::allocator<std::__debug::vector<int, std::allocator<int> > > >::_Vector_impl", %"struct.std::__cxx1998::_Vector_base<std::__debug::vector<int, std::allocator<int> >, std::allocator<std::__debug::vector<int, std::allocator<int> > > >::_Vector_impl"* %24, i32 0, i32 1
  store %"class.std::__debug::vector"* %22, %"class.std::__debug::vector"** %25, align 8
  %26 = load i32, i32* @x.220
  %27 = load i32, i32* @y.221
  %28 = sub i32 %26, 1
  %29 = mul i32 %26, %28
  %30 = urem i32 %29, 2
  %31 = icmp eq i32 %30, 0
  %32 = icmp slt i32 %27, 10
  %33 = or i1 %31, %32
  br i1 %33, label %34, label %35

; <label>:34:                                     ; preds = %11
  ret void

; <label>:35:                                     ; preds = %11, %2
  %36 = alloca %"class.std::__cxx1998::vector.8"*, align 8
  %37 = alloca i64, align 8
  store %"class.std::__cxx1998::vector.8"* %0, %"class.std::__cxx1998::vector.8"** %36, align 8
  store i64 %1, i64* %37, align 8
  %38 = load %"class.std::__cxx1998::vector.8"*, %"class.std::__cxx1998::vector.8"** %36, align 8
  %39 = bitcast %"class.std::__cxx1998::vector.8"* %38 to %"struct.std::__cxx1998::_Vector_base.9"*
  %40 = getelementptr inbounds %"struct.std::__cxx1998::_Vector_base.9", %"struct.std::__cxx1998::_Vector_base.9"* %39, i32 0, i32 0
  %41 = getelementptr inbounds %"struct.std::__cxx1998::_Vector_base<std::__debug::vector<int, std::allocator<int> >, std::allocator<std::__debug::vector<int, std::allocator<int> > > >::_Vector_impl", %"struct.std::__cxx1998::_Vector_base<std::__debug::vector<int, std::allocator<int> >, std::allocator<std::__debug::vector<int, std::allocator<int> > > >::_Vector_impl"* %40, i32 0, i32 0
  %42 = load %"class.std::__debug::vector"*, %"class.std::__debug::vector"** %41, align 8
  %43 = load i64, i64* %37, align 8
  %44 = bitcast %"class.std::__cxx1998::vector.8"* %38 to %"struct.std::__cxx1998::_Vector_base.9"*
  %45 = call dereferenceable(1) %"class.std::allocator.10"* @_ZNSt9__cxx199812_Vector_baseINSt7__debug6vectorIiSaIiEEESaIS4_EE19_M_get_Tp_allocatorEv(%"struct.std::__cxx1998::_Vector_base.9"* %44) #3
  %46 = call %"class.std::__debug::vector"* @_ZSt27__uninitialized_default_n_aIPNSt7__debug6vectorIiSaIiEEEmS3_ET_S5_T0_RSaIT1_E(%"class.std::__debug::vector"* %42, i64 %43, %"class.std::allocator.10"* dereferenceable(1) %45)
  %47 = bitcast %"class.std::__cxx1998::vector.8"* %38 to %"struct.std::__cxx1998::_Vector_base.9"*
  %48 = getelementptr inbounds %"struct.std::__cxx1998::_Vector_base.9", %"struct.std::__cxx1998::_Vector_base.9"* %47, i32 0, i32 0
  %49 = getelementptr inbounds %"struct.std::__cxx1998::_Vector_base<std::__debug::vector<int, std::allocator<int> >, std::allocator<std::__debug::vector<int, std::allocator<int> > > >::_Vector_impl", %"struct.std::__cxx1998::_Vector_base<std::__debug::vector<int, std::allocator<int> >, std::allocator<std::__debug::vector<int, std::allocator<int> > > >::_Vector_impl"* %48, i32 0, i32 1
  store %"class.std::__debug::vector"* %46, %"class.std::__debug::vector"** %49, align 8
  br label %11
}

; Function Attrs: noinline nounwind uwtable
define linkonce_odr void @_ZNSt9__cxx199812_Vector_baseINSt7__debug6vectorIiSaIiEEESaIS4_EED2Ev(%"struct.std::__cxx1998::_Vector_base.9"*) unnamed_addr #4 comdat align 2 personality i8* bitcast (i32 (...)* @__gxx_personality_v0 to i8*) {
  %2 = alloca %"struct.std::__cxx1998::_Vector_base.9"*, align 8
  %3 = alloca i8*
  %4 = alloca i32
  store %"struct.std::__cxx1998::_Vector_base.9"* %0, %"struct.std::__cxx1998::_Vector_base.9"** %2, align 8
  %5 = load %"struct.std::__cxx1998::_Vector_base.9"*, %"struct.std::__cxx1998::_Vector_base.9"** %2, align 8
  %6 = getelementptr inbounds %"struct.std::__cxx1998::_Vector_base.9", %"struct.std::__cxx1998::_Vector_base.9"* %5, i32 0, i32 0
  %7 = getelementptr inbounds %"struct.std::__cxx1998::_Vector_base<std::__debug::vector<int, std::allocator<int> >, std::allocator<std::__debug::vector<int, std::allocator<int> > > >::_Vector_impl", %"struct.std::__cxx1998::_Vector_base<std::__debug::vector<int, std::allocator<int> >, std::allocator<std::__debug::vector<int, std::allocator<int> > > >::_Vector_impl"* %6, i32 0, i32 0
  %8 = load %"class.std::__debug::vector"*, %"class.std::__debug::vector"** %7, align 8
  %9 = getelementptr inbounds %"struct.std::__cxx1998::_Vector_base.9", %"struct.std::__cxx1998::_Vector_base.9"* %5, i32 0, i32 0
  %10 = getelementptr inbounds %"struct.std::__cxx1998::_Vector_base<std::__debug::vector<int, std::allocator<int> >, std::allocator<std::__debug::vector<int, std::allocator<int> > > >::_Vector_impl", %"struct.std::__cxx1998::_Vector_base<std::__debug::vector<int, std::allocator<int> >, std::allocator<std::__debug::vector<int, std::allocator<int> > > >::_Vector_impl"* %9, i32 0, i32 2
  %11 = load %"class.std::__debug::vector"*, %"class.std::__debug::vector"** %10, align 8
  %12 = getelementptr inbounds %"struct.std::__cxx1998::_Vector_base.9", %"struct.std::__cxx1998::_Vector_base.9"* %5, i32 0, i32 0
  %13 = getelementptr inbounds %"struct.std::__cxx1998::_Vector_base<std::__debug::vector<int, std::allocator<int> >, std::allocator<std::__debug::vector<int, std::allocator<int> > > >::_Vector_impl", %"struct.std::__cxx1998::_Vector_base<std::__debug::vector<int, std::allocator<int> >, std::allocator<std::__debug::vector<int, std::allocator<int> > > >::_Vector_impl"* %12, i32 0, i32 0
  %14 = load %"class.std::__debug::vector"*, %"class.std::__debug::vector"** %13, align 8
  %15 = ptrtoint %"class.std::__debug::vector"* %11 to i64
  %16 = ptrtoint %"class.std::__debug::vector"* %14 to i64
  %17 = sub i64 %15, %16
  %18 = sdiv exact i64 %17, 56
  invoke void @_ZNSt9__cxx199812_Vector_baseINSt7__debug6vectorIiSaIiEEESaIS4_EE13_M_deallocateEPS4_m(%"struct.std::__cxx1998::_Vector_base.9"* %5, %"class.std::__debug::vector"* %8, i64 %18)
          to label %19 unwind label %39

; <label>:19:                                     ; preds = %1
  %20 = load i32, i32* @x.222
  %21 = load i32, i32* @y.223
  %22 = sub i32 %20, 1
  %23 = mul i32 %20, %22
  %24 = urem i32 %23, 2
  %25 = icmp eq i32 %24, 0
  %26 = icmp slt i32 %21, 10
  %27 = or i1 %25, %26
  br i1 %27, label %28, label %46

; <label>:28:                                     ; preds = %19, %46
  %29 = getelementptr inbounds %"struct.std::__cxx1998::_Vector_base.9", %"struct.std::__cxx1998::_Vector_base.9"* %5, i32 0, i32 0
  call void @_ZNSt9__cxx199812_Vector_baseINSt7__debug6vectorIiSaIiEEESaIS4_EE12_Vector_implD2Ev(%"struct.std::__cxx1998::_Vector_base<std::__debug::vector<int, std::allocator<int> >, std::allocator<std::__debug::vector<int, std::allocator<int> > > >::_Vector_impl"* %29) #3
  %30 = load i32, i32* @x.222
  %31 = load i32, i32* @y.223
  %32 = sub i32 %30, 1
  %33 = mul i32 %30, %32
  %34 = urem i32 %33, 2
  %35 = icmp eq i32 %34, 0
  %36 = icmp slt i32 %31, 10
  %37 = or i1 %35, %36
  br i1 %37, label %38, label %46

; <label>:38:                                     ; preds = %28
  ret void

; <label>:39:                                     ; preds = %1
  %40 = landingpad { i8*, i32 }
          catch i8* null
  %41 = extractvalue { i8*, i32 } %40, 0
  store i8* %41, i8** %3, align 8
  %42 = extractvalue { i8*, i32 } %40, 1
  store i32 %42, i32* %4, align 4
  %43 = getelementptr inbounds %"struct.std::__cxx1998::_Vector_base.9", %"struct.std::__cxx1998::_Vector_base.9"* %5, i32 0, i32 0
  call void @_ZNSt9__cxx199812_Vector_baseINSt7__debug6vectorIiSaIiEEESaIS4_EE12_Vector_implD2Ev(%"struct.std::__cxx1998::_Vector_base<std::__debug::vector<int, std::allocator<int> >, std::allocator<std::__debug::vector<int, std::allocator<int> > > >::_Vector_impl"* %43) #3
  br label %44

; <label>:44:                                     ; preds = %39
  %45 = load i8*, i8** %3, align 8
  call void @__clang_call_terminate(i8* %45) #10
  unreachable

; <label>:46:                                     ; preds = %28, %19
  %47 = getelementptr inbounds %"struct.std::__cxx1998::_Vector_base.9", %"struct.std::__cxx1998::_Vector_base.9"* %5, i32 0, i32 0
  call void @_ZNSt9__cxx199812_Vector_baseINSt7__debug6vectorIiSaIiEEESaIS4_EE12_Vector_implD2Ev(%"struct.std::__cxx1998::_Vector_base<std::__debug::vector<int, std::allocator<int> >, std::allocator<std::__debug::vector<int, std::allocator<int> > > >::_Vector_impl"* %47) #3
  br label %28
}

; Function Attrs: noinline nounwind uwtable
define linkonce_odr void @_ZNSt9__cxx199812_Vector_baseINSt7__debug6vectorIiSaIiEEESaIS4_EE12_Vector_implC2ERKS5_(%"struct.std::__cxx1998::_Vector_base<std::__debug::vector<int, std::allocator<int> >, std::allocator<std::__debug::vector<int, std::allocator<int> > > >::_Vector_impl"*, %"class.std::allocator.10"* dereferenceable(1)) unnamed_addr #4 comdat align 2 {
  %3 = alloca %"struct.std::__cxx1998::_Vector_base<std::__debug::vector<int, std::allocator<int> >, std::allocator<std::__debug::vector<int, std::allocator<int> > > >::_Vector_impl"*, align 8
  %4 = alloca %"class.std::allocator.10"*, align 8
  store %"struct.std::__cxx1998::_Vector_base<std::__debug::vector<int, std::allocator<int> >, std::allocator<std::__debug::vector<int, std::allocator<int> > > >::_Vector_impl"* %0, %"struct.std::__cxx1998::_Vector_base<std::__debug::vector<int, std::allocator<int> >, std::allocator<std::__debug::vector<int, std::allocator<int> > > >::_Vector_impl"** %3, align 8
  store %"class.std::allocator.10"* %1, %"class.std::allocator.10"** %4, align 8
  %5 = load %"struct.std::__cxx1998::_Vector_base<std::__debug::vector<int, std::allocator<int> >, std::allocator<std::__debug::vector<int, std::allocator<int> > > >::_Vector_impl"*, %"struct.std::__cxx1998::_Vector_base<std::__debug::vector<int, std::allocator<int> >, std::allocator<std::__debug::vector<int, std::allocator<int> > > >::_Vector_impl"** %3, align 8
  %6 = bitcast %"struct.std::__cxx1998::_Vector_base<std::__debug::vector<int, std::allocator<int> >, std::allocator<std::__debug::vector<int, std::allocator<int> > > >::_Vector_impl"* %5 to %"class.std::allocator.10"*
  %7 = load %"class.std::allocator.10"*, %"class.std::allocator.10"** %4, align 8
  call void @_ZNSaINSt7__debug6vectorIiSaIiEEEEC2ERKS3_(%"class.std::allocator.10"* %6, %"class.std::allocator.10"* dereferenceable(1) %7) #3
  %8 = getelementptr inbounds %"struct.std::__cxx1998::_Vector_base<std::__debug::vector<int, std::allocator<int> >, std::allocator<std::__debug::vector<int, std::allocator<int> > > >::_Vector_impl", %"struct.std::__cxx1998::_Vector_base<std::__debug::vector<int, std::allocator<int> >, std::allocator<std::__debug::vector<int, std::allocator<int> > > >::_Vector_impl"* %5, i32 0, i32 0
  store %"class.std::__debug::vector"* null, %"class.std::__debug::vector"** %8, align 8
  %9 = getelementptr inbounds %"struct.std::__cxx1998::_Vector_base<std::__debug::vector<int, std::allocator<int> >, std::allocator<std::__debug::vector<int, std::allocator<int> > > >::_Vector_impl", %"struct.std::__cxx1998::_Vector_base<std::__debug::vector<int, std::allocator<int> >, std::allocator<std::__debug::vector<int, std::allocator<int> > > >::_Vector_impl"* %5, i32 0, i32 1
  store %"class.std::__debug::vector"* null, %"class.std::__debug::vector"** %9, align 8
  %10 = getelementptr inbounds %"struct.std::__cxx1998::_Vector_base<std::__debug::vector<int, std::allocator<int> >, std::allocator<std::__debug::vector<int, std::allocator<int> > > >::_Vector_impl", %"struct.std::__cxx1998::_Vector_base<std::__debug::vector<int, std::allocator<int> >, std::allocator<std::__debug::vector<int, std::allocator<int> > > >::_Vector_impl"* %5, i32 0, i32 2
  store %"class.std::__debug::vector"* null, %"class.std::__debug::vector"** %10, align 8
  ret void
}

; Function Attrs: noinline uwtable
define linkonce_odr void @_ZNSt9__cxx199812_Vector_baseINSt7__debug6vectorIiSaIiEEESaIS4_EE17_M_create_storageEm(%"struct.std::__cxx1998::_Vector_base.9"*, i64) #0 comdat align 2 {
  %3 = alloca %"struct.std::__cxx1998::_Vector_base.9"*, align 8
  %4 = alloca i64, align 8
  store %"struct.std::__cxx1998::_Vector_base.9"* %0, %"struct.std::__cxx1998::_Vector_base.9"** %3, align 8
  store i64 %1, i64* %4, align 8
  %5 = load %"struct.std::__cxx1998::_Vector_base.9"*, %"struct.std::__cxx1998::_Vector_base.9"** %3, align 8
  %6 = load i64, i64* %4, align 8
  %7 = call %"class.std::__debug::vector"* @_ZNSt9__cxx199812_Vector_baseINSt7__debug6vectorIiSaIiEEESaIS4_EE11_M_allocateEm(%"struct.std::__cxx1998::_Vector_base.9"* %5, i64 %6)
  %8 = getelementptr inbounds %"struct.std::__cxx1998::_Vector_base.9", %"struct.std::__cxx1998::_Vector_base.9"* %5, i32 0, i32 0
  %9 = getelementptr inbounds %"struct.std::__cxx1998::_Vector_base<std::__debug::vector<int, std::allocator<int> >, std::allocator<std::__debug::vector<int, std::allocator<int> > > >::_Vector_impl", %"struct.std::__cxx1998::_Vector_base<std::__debug::vector<int, std::allocator<int> >, std::allocator<std::__debug::vector<int, std::allocator<int> > > >::_Vector_impl"* %8, i32 0, i32 0
  store %"class.std::__debug::vector"* %7, %"class.std::__debug::vector"** %9, align 8
  %10 = getelementptr inbounds %"struct.std::__cxx1998::_Vector_base.9", %"struct.std::__cxx1998::_Vector_base.9"* %5, i32 0, i32 0
  %11 = getelementptr inbounds %"struct.std::__cxx1998::_Vector_base<std::__debug::vector<int, std::allocator<int> >, std::allocator<std::__debug::vector<int, std::allocator<int> > > >::_Vector_impl", %"struct.std::__cxx1998::_Vector_base<std::__debug::vector<int, std::allocator<int> >, std::allocator<std::__debug::vector<int, std::allocator<int> > > >::_Vector_impl"* %10, i32 0, i32 0
  %12 = load %"class.std::__debug::vector"*, %"class.std::__debug::vector"** %11, align 8
  %13 = getelementptr inbounds %"struct.std::__cxx1998::_Vector_base.9", %"struct.std::__cxx1998::_Vector_base.9"* %5, i32 0, i32 0
  %14 = getelementptr inbounds %"struct.std::__cxx1998::_Vector_base<std::__debug::vector<int, std::allocator<int> >, std::allocator<std::__debug::vector<int, std::allocator<int> > > >::_Vector_impl", %"struct.std::__cxx1998::_Vector_base<std::__debug::vector<int, std::allocator<int> >, std::allocator<std::__debug::vector<int, std::allocator<int> > > >::_Vector_impl"* %13, i32 0, i32 1
  store %"class.std::__debug::vector"* %12, %"class.std::__debug::vector"** %14, align 8
  %15 = getelementptr inbounds %"struct.std::__cxx1998::_Vector_base.9", %"struct.std::__cxx1998::_Vector_base.9"* %5, i32 0, i32 0
  %16 = getelementptr inbounds %"struct.std::__cxx1998::_Vector_base<std::__debug::vector<int, std::allocator<int> >, std::allocator<std::__debug::vector<int, std::allocator<int> > > >::_Vector_impl", %"struct.std::__cxx1998::_Vector_base<std::__debug::vector<int, std::allocator<int> >, std::allocator<std::__debug::vector<int, std::allocator<int> > > >::_Vector_impl"* %15, i32 0, i32 0
  %17 = load %"class.std::__debug::vector"*, %"class.std::__debug::vector"** %16, align 8
  %18 = load i64, i64* %4, align 8
  %19 = getelementptr inbounds %"class.std::__debug::vector", %"class.std::__debug::vector"* %17, i64 %18
  %20 = getelementptr inbounds %"struct.std::__cxx1998::_Vector_base.9", %"struct.std::__cxx1998::_Vector_base.9"* %5, i32 0, i32 0
  %21 = getelementptr inbounds %"struct.std::__cxx1998::_Vector_base<std::__debug::vector<int, std::allocator<int> >, std::allocator<std::__debug::vector<int, std::allocator<int> > > >::_Vector_impl", %"struct.std::__cxx1998::_Vector_base<std::__debug::vector<int, std::allocator<int> >, std::allocator<std::__debug::vector<int, std::allocator<int> > > >::_Vector_impl"* %20, i32 0, i32 2
  store %"class.std::__debug::vector"* %19, %"class.std::__debug::vector"** %21, align 8
  ret void
}

; Function Attrs: noinline nounwind uwtable
define linkonce_odr void @_ZNSt9__cxx199812_Vector_baseINSt7__debug6vectorIiSaIiEEESaIS4_EE12_Vector_implD2Ev(%"struct.std::__cxx1998::_Vector_base<std::__debug::vector<int, std::allocator<int> >, std::allocator<std::__debug::vector<int, std::allocator<int> > > >::_Vector_impl"*) unnamed_addr #4 comdat align 2 {
  %2 = alloca %"struct.std::__cxx1998::_Vector_base<std::__debug::vector<int, std::allocator<int> >, std::allocator<std::__debug::vector<int, std::allocator<int> > > >::_Vector_impl"*, align 8
  store %"struct.std::__cxx1998::_Vector_base<std::__debug::vector<int, std::allocator<int> >, std::allocator<std::__debug::vector<int, std::allocator<int> > > >::_Vector_impl"* %0, %"struct.std::__cxx1998::_Vector_base<std::__debug::vector<int, std::allocator<int> >, std::allocator<std::__debug::vector<int, std::allocator<int> > > >::_Vector_impl"** %2, align 8
  %3 = load %"struct.std::__cxx1998::_Vector_base<std::__debug::vector<int, std::allocator<int> >, std::allocator<std::__debug::vector<int, std::allocator<int> > > >::_Vector_impl"*, %"struct.std::__cxx1998::_Vector_base<std::__debug::vector<int, std::allocator<int> >, std::allocator<std::__debug::vector<int, std::allocator<int> > > >::_Vector_impl"** %2, align 8
  %4 = bitcast %"struct.std::__cxx1998::_Vector_base<std::__debug::vector<int, std::allocator<int> >, std::allocator<std::__debug::vector<int, std::allocator<int> > > >::_Vector_impl"* %3 to %"class.std::allocator.10"*
  call void @_ZNSaINSt7__debug6vectorIiSaIiEEEED2Ev(%"class.std::allocator.10"* %4) #3
  ret void
}

; Function Attrs: noinline nounwind uwtable
define linkonce_odr void @_ZNSaINSt7__debug6vectorIiSaIiEEEEC2ERKS3_(%"class.std::allocator.10"*, %"class.std::allocator.10"* dereferenceable(1)) unnamed_addr #4 comdat align 2 {
  %3 = alloca %"class.std::allocator.10"*, align 8
  %4 = alloca %"class.std::allocator.10"*, align 8
  store %"class.std::allocator.10"* %0, %"class.std::allocator.10"** %3, align 8
  store %"class.std::allocator.10"* %1, %"class.std::allocator.10"** %4, align 8
  %5 = load %"class.std::allocator.10"*, %"class.std::allocator.10"** %3, align 8
  %6 = bitcast %"class.std::allocator.10"* %5 to %"class.__gnu_cxx::new_allocator.11"*
  %7 = load %"class.std::allocator.10"*, %"class.std::allocator.10"** %4, align 8
  %8 = bitcast %"class.std::allocator.10"* %7 to %"class.__gnu_cxx::new_allocator.11"*
  call void @_ZN9__gnu_cxx13new_allocatorINSt7__debug6vectorIiSaIiEEEEC2ERKS5_(%"class.__gnu_cxx::new_allocator.11"* %6, %"class.__gnu_cxx::new_allocator.11"* dereferenceable(1) %8) #3
  ret void
}

; Function Attrs: noinline nounwind uwtable
define linkonce_odr void @_ZN9__gnu_cxx13new_allocatorINSt7__debug6vectorIiSaIiEEEEC2ERKS5_(%"class.__gnu_cxx::new_allocator.11"*, %"class.__gnu_cxx::new_allocator.11"* dereferenceable(1)) unnamed_addr #4 comdat align 2 {
  %3 = alloca %"class.__gnu_cxx::new_allocator.11"*, align 8
  %4 = alloca %"class.__gnu_cxx::new_allocator.11"*, align 8
  store %"class.__gnu_cxx::new_allocator.11"* %0, %"class.__gnu_cxx::new_allocator.11"** %3, align 8
  store %"class.__gnu_cxx::new_allocator.11"* %1, %"class.__gnu_cxx::new_allocator.11"** %4, align 8
  %5 = load %"class.__gnu_cxx::new_allocator.11"*, %"class.__gnu_cxx::new_allocator.11"** %3, align 8
  ret void
}

; Function Attrs: noinline uwtable
define linkonce_odr %"class.std::__debug::vector"* @_ZNSt9__cxx199812_Vector_baseINSt7__debug6vectorIiSaIiEEESaIS4_EE11_M_allocateEm(%"struct.std::__cxx1998::_Vector_base.9"*, i64) #0 comdat align 2 {
  %3 = alloca %"struct.std::__cxx1998::_Vector_base.9"*, align 8
  %4 = alloca i64, align 8
  store %"struct.std::__cxx1998::_Vector_base.9"* %0, %"struct.std::__cxx1998::_Vector_base.9"** %3, align 8
  store i64 %1, i64* %4, align 8
  %5 = load %"struct.std::__cxx1998::_Vector_base.9"*, %"struct.std::__cxx1998::_Vector_base.9"** %3, align 8
  %6 = load i64, i64* %4, align 8
  %7 = icmp ne i64 %6, 0
  br i1 %7, label %8, label %13

; <label>:8:                                      ; preds = %2
  %9 = getelementptr inbounds %"struct.std::__cxx1998::_Vector_base.9", %"struct.std::__cxx1998::_Vector_base.9"* %5, i32 0, i32 0
  %10 = bitcast %"struct.std::__cxx1998::_Vector_base<std::__debug::vector<int, std::allocator<int> >, std::allocator<std::__debug::vector<int, std::allocator<int> > > >::_Vector_impl"* %9 to %"class.std::allocator.10"*
  %11 = load i64, i64* %4, align 8
  %12 = call %"class.std::__debug::vector"* @_ZNSt16allocator_traitsISaINSt7__debug6vectorIiSaIiEEEEE8allocateERS4_m(%"class.std::allocator.10"* dereferenceable(1) %10, i64 %11)
  br label %14

; <label>:13:                                     ; preds = %2
  br label %14

; <label>:14:                                     ; preds = %13, %8
  %15 = phi %"class.std::__debug::vector"* [ %12, %8 ], [ null, %13 ]
  %16 = load i32, i32* @x.234
  %17 = load i32, i32* @y.235
  %18 = sub i32 %16, 1
  %19 = mul i32 %16, %18
  %20 = urem i32 %19, 2
  %21 = icmp eq i32 %20, 0
  %22 = icmp slt i32 %17, 10
  %23 = or i1 %21, %22
  br i1 %23, label %24, label %34

; <label>:24:                                     ; preds = %14, %34
  %25 = load i32, i32* @x.234
  %26 = load i32, i32* @y.235
  %27 = sub i32 %25, 1
  %28 = mul i32 %25, %27
  %29 = urem i32 %28, 2
  %30 = icmp eq i32 %29, 0
  %31 = icmp slt i32 %26, 10
  %32 = or i1 %30, %31
  br i1 %32, label %33, label %34

; <label>:33:                                     ; preds = %24
  ret %"class.std::__debug::vector"* %15

; <label>:34:                                     ; preds = %24, %14
  br label %24
}

; Function Attrs: noinline uwtable
define linkonce_odr %"class.std::__debug::vector"* @_ZNSt16allocator_traitsISaINSt7__debug6vectorIiSaIiEEEEE8allocateERS4_m(%"class.std::allocator.10"* dereferenceable(1), i64) #0 comdat align 2 {
  %3 = load i32, i32* @x.236
  %4 = load i32, i32* @y.237
  %5 = sub i32 %3, 1
  %6 = mul i32 %3, %5
  %7 = urem i32 %6, 2
  %8 = icmp eq i32 %7, 0
  %9 = icmp slt i32 %4, 10
  %10 = or i1 %8, %9
  br i1 %10, label %11, label %27

; <label>:11:                                     ; preds = %2, %27
  %12 = alloca %"class.std::allocator.10"*, align 8
  %13 = alloca i64, align 8
  store %"class.std::allocator.10"* %0, %"class.std::allocator.10"** %12, align 8
  store i64 %1, i64* %13, align 8
  %14 = load %"class.std::allocator.10"*, %"class.std::allocator.10"** %12, align 8
  %15 = bitcast %"class.std::allocator.10"* %14 to %"class.__gnu_cxx::new_allocator.11"*
  %16 = load i64, i64* %13, align 8
  %17 = call %"class.std::__debug::vector"* @_ZN9__gnu_cxx13new_allocatorINSt7__debug6vectorIiSaIiEEEE8allocateEmPKv(%"class.__gnu_cxx::new_allocator.11"* %15, i64 %16, i8* null)
  %18 = load i32, i32* @x.236
  %19 = load i32, i32* @y.237
  %20 = sub i32 %18, 1
  %21 = mul i32 %18, %20
  %22 = urem i32 %21, 2
  %23 = icmp eq i32 %22, 0
  %24 = icmp slt i32 %19, 10
  %25 = or i1 %23, %24
  br i1 %25, label %26, label %27

; <label>:26:                                     ; preds = %11
  ret %"class.std::__debug::vector"* %17

; <label>:27:                                     ; preds = %11, %2
  %28 = alloca %"class.std::allocator.10"*, align 8
  %29 = alloca i64, align 8
  store %"class.std::allocator.10"* %0, %"class.std::allocator.10"** %28, align 8
  store i64 %1, i64* %29, align 8
  %30 = load %"class.std::allocator.10"*, %"class.std::allocator.10"** %28, align 8
  %31 = bitcast %"class.std::allocator.10"* %30 to %"class.__gnu_cxx::new_allocator.11"*
  %32 = load i64, i64* %29, align 8
  %33 = call %"class.std::__debug::vector"* @_ZN9__gnu_cxx13new_allocatorINSt7__debug6vectorIiSaIiEEEE8allocateEmPKv(%"class.__gnu_cxx::new_allocator.11"* %31, i64 %32, i8* null)
  br label %11
}

; Function Attrs: noinline uwtable
define linkonce_odr %"class.std::__debug::vector"* @_ZN9__gnu_cxx13new_allocatorINSt7__debug6vectorIiSaIiEEEE8allocateEmPKv(%"class.__gnu_cxx::new_allocator.11"*, i64, i8*) #0 comdat align 2 {
  %4 = load i32, i32* @x.238
  %5 = load i32, i32* @y.239
  %6 = sub i32 %4, 1
  %7 = mul i32 %4, %6
  %8 = urem i32 %7, 2
  %9 = icmp eq i32 %8, 0
  %10 = icmp slt i32 %5, 10
  %11 = or i1 %9, %10
  br i1 %11, label %12, label %71

; <label>:12:                                     ; preds = %3, %71
  %13 = alloca %"class.__gnu_cxx::new_allocator.11"*, align 8
  %14 = alloca i64, align 8
  %15 = alloca i8*, align 8
  store %"class.__gnu_cxx::new_allocator.11"* %0, %"class.__gnu_cxx::new_allocator.11"** %13, align 8
  store i64 %1, i64* %14, align 8
  store i8* %2, i8** %15, align 8
  %16 = load %"class.__gnu_cxx::new_allocator.11"*, %"class.__gnu_cxx::new_allocator.11"** %13, align 8
  %17 = load i64, i64* %14, align 8
  %18 = call i64 @_ZNK9__gnu_cxx13new_allocatorINSt7__debug6vectorIiSaIiEEEE8max_sizeEv(%"class.__gnu_cxx::new_allocator.11"* %16) #3
  %19 = icmp ugt i64 %17, %18
  %20 = load i32, i32* @x.238
  %21 = load i32, i32* @y.239
  %22 = sub i32 %20, 1
  %23 = mul i32 %20, %22
  %24 = urem i32 %23, 2
  %25 = icmp eq i32 %24, 0
  %26 = icmp slt i32 %21, 10
  %27 = or i1 %25, %26
  br i1 %27, label %28, label %71

; <label>:28:                                     ; preds = %12
  br i1 %19, label %29, label %48

; <label>:29:                                     ; preds = %28
  %30 = load i32, i32* @x.238
  %31 = load i32, i32* @y.239
  %32 = sub i32 %30, 1
  %33 = mul i32 %30, %32
  %34 = urem i32 %33, 2
  %35 = icmp eq i32 %34, 0
  %36 = icmp slt i32 %31, 10
  %37 = or i1 %35, %36
  br i1 %37, label %38, label %79

; <label>:38:                                     ; preds = %29, %79
  call void @_ZSt17__throw_bad_allocv() #13
  %39 = load i32, i32* @x.238
  %40 = load i32, i32* @y.239
  %41 = sub i32 %39, 1
  %42 = mul i32 %39, %41
  %43 = urem i32 %42, 2
  %44 = icmp eq i32 %43, 0
  %45 = icmp slt i32 %40, 10
  %46 = or i1 %44, %45
  br i1 %46, label %47, label %79

; <label>:47:                                     ; preds = %38
  unreachable

; <label>:48:                                     ; preds = %28
  %49 = load i32, i32* @x.238
  %50 = load i32, i32* @y.239
  %51 = sub i32 %49, 1
  %52 = mul i32 %49, %51
  %53 = urem i32 %52, 2
  %54 = icmp eq i32 %53, 0
  %55 = icmp slt i32 %50, 10
  %56 = or i1 %54, %55
  br i1 %56, label %57, label %80

; <label>:57:                                     ; preds = %48, %80
  %58 = load i64, i64* %14, align 8
  %59 = mul i64 %58, 56
  %60 = call i8* @_Znwm(i64 %59)
  %61 = bitcast i8* %60 to %"class.std::__debug::vector"*
  %62 = load i32, i32* @x.238
  %63 = load i32, i32* @y.239
  %64 = sub i32 %62, 1
  %65 = mul i32 %62, %64
  %66 = urem i32 %65, 2
  %67 = icmp eq i32 %66, 0
  %68 = icmp slt i32 %63, 10
  %69 = or i1 %67, %68
  br i1 %69, label %70, label %80

; <label>:70:                                     ; preds = %57
  ret %"class.std::__debug::vector"* %61

; <label>:71:                                     ; preds = %12, %3
  %72 = alloca %"class.__gnu_cxx::new_allocator.11"*, align 8
  %73 = alloca i64, align 8
  %74 = alloca i8*, align 8
  store %"class.__gnu_cxx::new_allocator.11"* %0, %"class.__gnu_cxx::new_allocator.11"** %72, align 8
  store i64 %1, i64* %73, align 8
  store i8* %2, i8** %74, align 8
  %75 = load %"class.__gnu_cxx::new_allocator.11"*, %"class.__gnu_cxx::new_allocator.11"** %72, align 8
  %76 = load i64, i64* %73, align 8
  %77 = call i64 @_ZNK9__gnu_cxx13new_allocatorINSt7__debug6vectorIiSaIiEEEE8max_sizeEv(%"class.__gnu_cxx::new_allocator.11"* %75) #3
  %78 = icmp ugt i64 %76, %77
  br label %12

; <label>:79:                                     ; preds = %38, %29
  call void @_ZSt17__throw_bad_allocv() #13
  br label %38

; <label>:80:                                     ; preds = %57, %48
  %81 = load i64, i64* %14, align 8
  %82 = sub i64 %81, 56
  %83 = mul i64 %82, 56
  %84 = sub i64 0, %81
  %85 = add i64 %84, 56
  %86 = sub i64 0, %81
  %87 = add i64 %86, 56
  %88 = mul i64 %81, 56
  %89 = call i8* @_Znwm(i64 %88)
  %90 = bitcast i8* %89 to %"class.std::__debug::vector"*
  br label %57
}

; Function Attrs: noinline nounwind uwtable
define linkonce_odr i64 @_ZNK9__gnu_cxx13new_allocatorINSt7__debug6vectorIiSaIiEEEE8max_sizeEv(%"class.__gnu_cxx::new_allocator.11"*) #4 comdat align 2 {
  %2 = alloca %"class.__gnu_cxx::new_allocator.11"*, align 8
  store %"class.__gnu_cxx::new_allocator.11"* %0, %"class.__gnu_cxx::new_allocator.11"** %2, align 8
  %3 = load %"class.__gnu_cxx::new_allocator.11"*, %"class.__gnu_cxx::new_allocator.11"** %2, align 8
  ret i64 329406144173384850
}

; Function Attrs: noinline nounwind uwtable
define linkonce_odr void @_ZN9__gnu_cxx13new_allocatorINSt7__debug6vectorIiSaIiEEEED2Ev(%"class.__gnu_cxx::new_allocator.11"*) unnamed_addr #4 comdat align 2 {
  %2 = load i32, i32* @x.242
  %3 = load i32, i32* @y.243
  %4 = sub i32 %2, 1
  %5 = mul i32 %2, %4
  %6 = urem i32 %5, 2
  %7 = icmp eq i32 %6, 0
  %8 = icmp slt i32 %3, 10
  %9 = or i1 %7, %8
  br i1 %9, label %10, label %22

; <label>:10:                                     ; preds = %1, %22
  %11 = alloca %"class.__gnu_cxx::new_allocator.11"*, align 8
  store %"class.__gnu_cxx::new_allocator.11"* %0, %"class.__gnu_cxx::new_allocator.11"** %11, align 8
  %12 = load %"class.__gnu_cxx::new_allocator.11"*, %"class.__gnu_cxx::new_allocator.11"** %11, align 8
  %13 = load i32, i32* @x.242
  %14 = load i32, i32* @y.243
  %15 = sub i32 %13, 1
  %16 = mul i32 %13, %15
  %17 = urem i32 %16, 2
  %18 = icmp eq i32 %17, 0
  %19 = icmp slt i32 %14, 10
  %20 = or i1 %18, %19
  br i1 %20, label %21, label %22

; <label>:21:                                     ; preds = %10
  ret void

; <label>:22:                                     ; preds = %10, %1
  %23 = alloca %"class.__gnu_cxx::new_allocator.11"*, align 8
  store %"class.__gnu_cxx::new_allocator.11"* %0, %"class.__gnu_cxx::new_allocator.11"** %23, align 8
  %24 = load %"class.__gnu_cxx::new_allocator.11"*, %"class.__gnu_cxx::new_allocator.11"** %23, align 8
  br label %10
}

; Function Attrs: noinline uwtable
define linkonce_odr %"class.std::__debug::vector"* @_ZSt27__uninitialized_default_n_aIPNSt7__debug6vectorIiSaIiEEEmS3_ET_S5_T0_RSaIT1_E(%"class.std::__debug::vector"*, i64, %"class.std::allocator.10"* dereferenceable(1)) #0 comdat {
  %4 = alloca %"class.std::__debug::vector"*, align 8
  %5 = alloca i64, align 8
  %6 = alloca %"class.std::allocator.10"*, align 8
  store %"class.std::__debug::vector"* %0, %"class.std::__debug::vector"** %4, align 8
  store i64 %1, i64* %5, align 8
  store %"class.std::allocator.10"* %2, %"class.std::allocator.10"** %6, align 8
  %7 = load %"class.std::__debug::vector"*, %"class.std::__debug::vector"** %4, align 8
  %8 = load i64, i64* %5, align 8
  %9 = call %"class.std::__debug::vector"* @_ZSt25__uninitialized_default_nIPNSt7__debug6vectorIiSaIiEEEmET_S5_T0_(%"class.std::__debug::vector"* %7, i64 %8)
  ret %"class.std::__debug::vector"* %9
}

; Function Attrs: noinline nounwind uwtable
define linkonce_odr dereferenceable(1) %"class.std::allocator.10"* @_ZNSt9__cxx199812_Vector_baseINSt7__debug6vectorIiSaIiEEESaIS4_EE19_M_get_Tp_allocatorEv(%"struct.std::__cxx1998::_Vector_base.9"*) #4 comdat align 2 {
  %2 = alloca %"struct.std::__cxx1998::_Vector_base.9"*, align 8
  store %"struct.std::__cxx1998::_Vector_base.9"* %0, %"struct.std::__cxx1998::_Vector_base.9"** %2, align 8
  %3 = load %"struct.std::__cxx1998::_Vector_base.9"*, %"struct.std::__cxx1998::_Vector_base.9"** %2, align 8
  %4 = getelementptr inbounds %"struct.std::__cxx1998::_Vector_base.9", %"struct.std::__cxx1998::_Vector_base.9"* %3, i32 0, i32 0
  %5 = bitcast %"struct.std::__cxx1998::_Vector_base<std::__debug::vector<int, std::allocator<int> >, std::allocator<std::__debug::vector<int, std::allocator<int> > > >::_Vector_impl"* %4 to %"class.std::allocator.10"*
  ret %"class.std::allocator.10"* %5
}

; Function Attrs: noinline uwtable
define linkonce_odr %"class.std::__debug::vector"* @_ZSt25__uninitialized_default_nIPNSt7__debug6vectorIiSaIiEEEmET_S5_T0_(%"class.std::__debug::vector"*, i64) #0 comdat {
  %3 = alloca %"class.std::__debug::vector"*, align 8
  %4 = alloca i64, align 8
  %5 = alloca i8, align 1
  store %"class.std::__debug::vector"* %0, %"class.std::__debug::vector"** %3, align 8
  store i64 %1, i64* %4, align 8
  store i8 1, i8* %5, align 1
  %6 = load %"class.std::__debug::vector"*, %"class.std::__debug::vector"** %3, align 8
  %7 = load i64, i64* %4, align 8
  %8 = call %"class.std::__debug::vector"* @_ZNSt27__uninitialized_default_n_1ILb0EE18__uninit_default_nIPNSt7__debug6vectorIiSaIiEEEmEET_S7_T0_(%"class.std::__debug::vector"* %6, i64 %7)
  ret %"class.std::__debug::vector"* %8
}

; Function Attrs: noinline uwtable
define linkonce_odr %"class.std::__debug::vector"* @_ZNSt27__uninitialized_default_n_1ILb0EE18__uninit_default_nIPNSt7__debug6vectorIiSaIiEEEmEET_S7_T0_(%"class.std::__debug::vector"*, i64) #0 comdat align 2 personality i8* bitcast (i32 (...)* @__gxx_personality_v0 to i8*) {
  %3 = alloca %"class.std::__debug::vector"*, align 8
  %4 = alloca i64, align 8
  %5 = alloca %"class.std::__debug::vector"*, align 8
  %6 = alloca i8*
  %7 = alloca i32
  store %"class.std::__debug::vector"* %0, %"class.std::__debug::vector"** %3, align 8
  store i64 %1, i64* %4, align 8
  %8 = load %"class.std::__debug::vector"*, %"class.std::__debug::vector"** %3, align 8
  store %"class.std::__debug::vector"* %8, %"class.std::__debug::vector"** %5, align 8
  br label %9

; <label>:9:                                      ; preds = %52, %2
  %10 = load i64, i64* %4, align 8
  %11 = icmp ugt i64 %10, 0
  br i1 %11, label %12, label %85

; <label>:12:                                     ; preds = %9
  %13 = load i32, i32* @x.250
  %14 = load i32, i32* @y.251
  %15 = sub i32 %13, 1
  %16 = mul i32 %13, %15
  %17 = urem i32 %16, 2
  %18 = icmp eq i32 %17, 0
  %19 = icmp slt i32 %14, 10
  %20 = or i1 %18, %19
  br i1 %20, label %21, label %156

; <label>:21:                                     ; preds = %12, %156
  %22 = load %"class.std::__debug::vector"*, %"class.std::__debug::vector"** %5, align 8
  %23 = call %"class.std::__debug::vector"* @_ZSt11__addressofINSt7__debug6vectorIiSaIiEEEEPT_RS4_(%"class.std::__debug::vector"* dereferenceable(56) %22) #3
  %24 = load i32, i32* @x.250
  %25 = load i32, i32* @y.251
  %26 = sub i32 %24, 1
  %27 = mul i32 %24, %26
  %28 = urem i32 %27, 2
  %29 = icmp eq i32 %28, 0
  %30 = icmp slt i32 %25, 10
  %31 = or i1 %29, %30
  br i1 %31, label %32, label %156

; <label>:32:                                     ; preds = %21
  invoke void @_ZSt10_ConstructINSt7__debug6vectorIiSaIiEEEJEEvPT_DpOT0_(%"class.std::__debug::vector"* %23)
          to label %33 unwind label %57

; <label>:33:                                     ; preds = %32
  %34 = load i32, i32* @x.250
  %35 = load i32, i32* @y.251
  %36 = sub i32 %34, 1
  %37 = mul i32 %34, %36
  %38 = urem i32 %37, 2
  %39 = icmp eq i32 %38, 0
  %40 = icmp slt i32 %35, 10
  %41 = or i1 %39, %40
  br i1 %41, label %42, label %159

; <label>:42:                                     ; preds = %33, %159
  %43 = load i32, i32* @x.250
  %44 = load i32, i32* @y.251
  %45 = sub i32 %43, 1
  %46 = mul i32 %43, %45
  %47 = urem i32 %46, 2
  %48 = icmp eq i32 %47, 0
  %49 = icmp slt i32 %44, 10
  %50 = or i1 %48, %49
  br i1 %50, label %51, label %159

; <label>:51:                                     ; preds = %42
  br label %52

; <label>:52:                                     ; preds = %51
  %53 = load i64, i64* %4, align 8
  %54 = add i64 %53, -1
  store i64 %54, i64* %4, align 8
  %55 = load %"class.std::__debug::vector"*, %"class.std::__debug::vector"** %5, align 8
  %56 = getelementptr inbounds %"class.std::__debug::vector", %"class.std::__debug::vector"* %55, i32 1
  store %"class.std::__debug::vector"* %56, %"class.std::__debug::vector"** %5, align 8
  br label %9

; <label>:57:                                     ; preds = %32
  %58 = landingpad { i8*, i32 }
          catch i8* null
  %59 = extractvalue { i8*, i32 } %58, 0
  store i8* %59, i8** %6, align 8
  %60 = extractvalue { i8*, i32 } %58, 1
  store i32 %60, i32* %7, align 4
  br label %61

; <label>:61:                                     ; preds = %57
  %62 = load i8*, i8** %6, align 8
  %63 = call i8* @__cxa_begin_catch(i8* %62) #3
  %64 = load %"class.std::__debug::vector"*, %"class.std::__debug::vector"** %3, align 8
  %65 = load %"class.std::__debug::vector"*, %"class.std::__debug::vector"** %5, align 8
  invoke void @_ZSt8_DestroyIPNSt7__debug6vectorIiSaIiEEEEvT_S5_(%"class.std::__debug::vector"* %64, %"class.std::__debug::vector"* %65)
          to label %66 unwind label %105

; <label>:66:                                     ; preds = %61
  %67 = load i32, i32* @x.250
  %68 = load i32, i32* @y.251
  %69 = sub i32 %67, 1
  %70 = mul i32 %67, %69
  %71 = urem i32 %70, 2
  %72 = icmp eq i32 %71, 0
  %73 = icmp slt i32 %68, 10
  %74 = or i1 %72, %73
  br i1 %74, label %75, label %160

; <label>:75:                                     ; preds = %66, %160
  %76 = load i32, i32* @x.250
  %77 = load i32, i32* @y.251
  %78 = sub i32 %76, 1
  %79 = mul i32 %76, %78
  %80 = urem i32 %79, 2
  %81 = icmp eq i32 %80, 0
  %82 = icmp slt i32 %77, 10
  %83 = or i1 %81, %82
  br i1 %83, label %84, label %160

; <label>:84:                                     ; preds = %75
  invoke void @__cxa_rethrow() #13
          to label %155 unwind label %105

; <label>:85:                                     ; preds = %9
  %86 = load i32, i32* @x.250
  %87 = load i32, i32* @y.251
  %88 = sub i32 %86, 1
  %89 = mul i32 %86, %88
  %90 = urem i32 %89, 2
  %91 = icmp eq i32 %90, 0
  %92 = icmp slt i32 %87, 10
  %93 = or i1 %91, %92
  br i1 %93, label %94, label %161

; <label>:94:                                     ; preds = %85, %161
  %95 = load %"class.std::__debug::vector"*, %"class.std::__debug::vector"** %5, align 8
  %96 = load i32, i32* @x.250
  %97 = load i32, i32* @y.251
  %98 = sub i32 %96, 1
  %99 = mul i32 %96, %98
  %100 = urem i32 %99, 2
  %101 = icmp eq i32 %100, 0
  %102 = icmp slt i32 %97, 10
  %103 = or i1 %101, %102
  br i1 %103, label %104, label %161

; <label>:104:                                    ; preds = %94
  ret %"class.std::__debug::vector"* %95

; <label>:105:                                    ; preds = %84, %61
  %106 = landingpad { i8*, i32 }
          cleanup
  %107 = extractvalue { i8*, i32 } %106, 0
  store i8* %107, i8** %6, align 8
  %108 = extractvalue { i8*, i32 } %106, 1
  store i32 %108, i32* %7, align 4
  invoke void @__cxa_end_catch()
          to label %109 unwind label %134

; <label>:109:                                    ; preds = %105
  %110 = load i32, i32* @x.250
  %111 = load i32, i32* @y.251
  %112 = sub i32 %110, 1
  %113 = mul i32 %110, %112
  %114 = urem i32 %113, 2
  %115 = icmp eq i32 %114, 0
  %116 = icmp slt i32 %111, 10
  %117 = or i1 %115, %116
  br i1 %117, label %118, label %163

; <label>:118:                                    ; preds = %109, %163
  %119 = load i32, i32* @x.250
  %120 = load i32, i32* @y.251
  %121 = sub i32 %119, 1
  %122 = mul i32 %119, %121
  %123 = urem i32 %122, 2
  %124 = icmp eq i32 %123, 0
  %125 = icmp slt i32 %120, 10
  %126 = or i1 %124, %125
  br i1 %126, label %127, label %163

; <label>:127:                                    ; preds = %118
  br label %129
                                                  ; No predecessors!
  call void @llvm.trap()
  unreachable

; <label>:129:                                    ; preds = %127
  %130 = load i8*, i8** %6, align 8
  %131 = load i32, i32* %7, align 4
  %132 = insertvalue { i8*, i32 } undef, i8* %130, 0
  %133 = insertvalue { i8*, i32 } %132, i32 %131, 1
  resume { i8*, i32 } %133

; <label>:134:                                    ; preds = %105
  %135 = load i32, i32* @x.250
  %136 = load i32, i32* @y.251
  %137 = sub i32 %135, 1
  %138 = mul i32 %135, %137
  %139 = urem i32 %138, 2
  %140 = icmp eq i32 %139, 0
  %141 = icmp slt i32 %136, 10
  %142 = or i1 %140, %141
  br i1 %142, label %143, label %164

; <label>:143:                                    ; preds = %134, %164
  %144 = landingpad { i8*, i32 }
          catch i8* null
  %145 = extractvalue { i8*, i32 } %144, 0
  call void @__clang_call_terminate(i8* %145) #10
  %146 = load i32, i32* @x.250
  %147 = load i32, i32* @y.251
  %148 = sub i32 %146, 1
  %149 = mul i32 %146, %148
  %150 = urem i32 %149, 2
  %151 = icmp eq i32 %150, 0
  %152 = icmp slt i32 %147, 10
  %153 = or i1 %151, %152
  br i1 %153, label %154, label %164

; <label>:154:                                    ; preds = %143
  unreachable

; <label>:155:                                    ; preds = %84
  unreachable

; <label>:156:                                    ; preds = %21, %12
  %157 = load %"class.std::__debug::vector"*, %"class.std::__debug::vector"** %5, align 8
  %158 = call %"class.std::__debug::vector"* @_ZSt11__addressofINSt7__debug6vectorIiSaIiEEEEPT_RS4_(%"class.std::__debug::vector"* dereferenceable(56) %157) #3
  br label %21

; <label>:159:                                    ; preds = %42, %33
  br label %42

; <label>:160:                                    ; preds = %75, %66
  br label %75

; <label>:161:                                    ; preds = %94, %85
  %162 = load %"class.std::__debug::vector"*, %"class.std::__debug::vector"** %5, align 8
  br label %94

; <label>:163:                                    ; preds = %118, %109
  br label %118

; <label>:164:                                    ; preds = %143, %134
  %165 = landingpad { i8*, i32 }
          catch i8* null
  %166 = extractvalue { i8*, i32 } %165, 0
  call void @__clang_call_terminate(i8* %166) #10
  br label %143
}

; Function Attrs: noinline nounwind uwtable
define linkonce_odr void @_ZSt10_ConstructINSt7__debug6vectorIiSaIiEEEJEEvPT_DpOT0_(%"class.std::__debug::vector"*) #4 comdat {
  %2 = alloca %"class.std::__debug::vector"*, align 8
  store %"class.std::__debug::vector"* %0, %"class.std::__debug::vector"** %2, align 8
  %3 = load %"class.std::__debug::vector"*, %"class.std::__debug::vector"** %2, align 8
  %4 = bitcast %"class.std::__debug::vector"* %3 to i8*
  %5 = bitcast i8* %4 to %"class.std::__debug::vector"*
  %6 = bitcast %"class.std::__debug::vector"* %5 to i8*
  call void @llvm.memset.p0i8.i64(i8* %6, i8 0, i64 56, i32 8, i1 false)
  call void @_ZNSt7__debug6vectorIiSaIiEEC2Ev(%"class.std::__debug::vector"* %5) #3
  ret void
}

; Function Attrs: noinline nounwind uwtable
define linkonce_odr %"class.std::__debug::vector"* @_ZSt11__addressofINSt7__debug6vectorIiSaIiEEEEPT_RS4_(%"class.std::__debug::vector"* dereferenceable(56)) #4 comdat {
  %2 = alloca %"class.std::__debug::vector"*, align 8
  store %"class.std::__debug::vector"* %0, %"class.std::__debug::vector"** %2, align 8
  %3 = load %"class.std::__debug::vector"*, %"class.std::__debug::vector"** %2, align 8
  %4 = bitcast %"class.std::__debug::vector"* %3 to i8*
  %5 = bitcast i8* %4 to %"class.std::__debug::vector"*
  ret %"class.std::__debug::vector"* %5
}

; Function Attrs: noinline uwtable
define linkonce_odr void @_ZSt8_DestroyIPNSt7__debug6vectorIiSaIiEEEEvT_S5_(%"class.std::__debug::vector"*, %"class.std::__debug::vector"*) #0 comdat {
  %3 = alloca %"class.std::__debug::vector"*, align 8
  %4 = alloca %"class.std::__debug::vector"*, align 8
  store %"class.std::__debug::vector"* %0, %"class.std::__debug::vector"** %3, align 8
  store %"class.std::__debug::vector"* %1, %"class.std::__debug::vector"** %4, align 8
  %5 = load %"class.std::__debug::vector"*, %"class.std::__debug::vector"** %3, align 8
  %6 = load %"class.std::__debug::vector"*, %"class.std::__debug::vector"** %4, align 8
  call void @_ZNSt12_Destroy_auxILb0EE9__destroyIPNSt7__debug6vectorIiSaIiEEEEEvT_S7_(%"class.std::__debug::vector"* %5, %"class.std::__debug::vector"* %6)
  ret void
}

declare void @__cxa_rethrow()

declare void @__cxa_end_catch()

; Function Attrs: noreturn nounwind
declare void @llvm.trap() #10

; Function Attrs: argmemonly nounwind
declare void @llvm.memset.p0i8.i64(i8* nocapture writeonly, i8, i64, i32, i1) #11

; Function Attrs: noinline nounwind uwtable
define linkonce_odr void @_ZNSt7__debug6vectorIiSaIiEEC2Ev(%"class.std::__debug::vector"*) unnamed_addr #4 comdat align 2 {
  %2 = alloca %"class.std::__debug::vector"*, align 8
  store %"class.std::__debug::vector"* %0, %"class.std::__debug::vector"** %2, align 8
  %3 = load %"class.std::__debug::vector"*, %"class.std::__debug::vector"** %2, align 8
  %4 = bitcast %"class.std::__debug::vector"* %3 to %"class.__gnu_debug::_Safe_container"*
  call void @_ZN11__gnu_debug15_Safe_containerINSt7__debug6vectorIiSaIiEEES3_NS_14_Safe_sequenceELb1EEC2Ev(%"class.__gnu_debug::_Safe_container"* %4) #3
  %5 = bitcast %"class.std::__debug::vector"* %3 to i8*
  %6 = getelementptr inbounds i8, i8* %5, i64 24
  %7 = bitcast i8* %6 to %"class.std::__cxx1998::vector"*
  call void @_ZNSt9__cxx19986vectorIiSaIiEEC2Ev(%"class.std::__cxx1998::vector"* %7) #3
  %8 = bitcast %"class.std::__debug::vector"* %3 to i8*
  %9 = getelementptr inbounds i8, i8* %8, i64 48
  %10 = bitcast i8* %9 to %"class.__gnu_debug::_Safe_vector"*
  call void @_ZN11__gnu_debug12_Safe_vectorINSt7__debug6vectorIiSaIiEEENSt9__cxx19986vectorIiS3_EEEC2Ev(%"class.__gnu_debug::_Safe_vector"* %10) #3
  ret void
}

; Function Attrs: noinline nounwind uwtable
define linkonce_odr void @_ZNSt9__cxx19986vectorIiSaIiEEC2Ev(%"class.std::__cxx1998::vector"*) unnamed_addr #4 comdat align 2 personality i8* bitcast (i32 (...)* @__gxx_personality_v0 to i8*) {
  %2 = load i32, i32* @x.260
  %3 = load i32, i32* @y.261
  %4 = sub i32 %2, 1
  %5 = mul i32 %2, %4
  %6 = urem i32 %5, 2
  %7 = icmp eq i32 %6, 0
  %8 = icmp slt i32 %3, 10
  %9 = or i1 %7, %8
  br i1 %9, label %10, label %27

; <label>:10:                                     ; preds = %1, %27
  %11 = alloca %"class.std::__cxx1998::vector"*, align 8
  store %"class.std::__cxx1998::vector"* %0, %"class.std::__cxx1998::vector"** %11, align 8
  %12 = load %"class.std::__cxx1998::vector"*, %"class.std::__cxx1998::vector"** %11, align 8
  %13 = bitcast %"class.std::__cxx1998::vector"* %12 to %"struct.std::__cxx1998::_Vector_base"*
  %14 = load i32, i32* @x.260
  %15 = load i32, i32* @y.261
  %16 = sub i32 %14, 1
  %17 = mul i32 %14, %16
  %18 = urem i32 %17, 2
  %19 = icmp eq i32 %18, 0
  %20 = icmp slt i32 %15, 10
  %21 = or i1 %19, %20
  br i1 %21, label %22, label %27

; <label>:22:                                     ; preds = %10
  invoke void @_ZNSt9__cxx199812_Vector_baseIiSaIiEEC2Ev(%"struct.std::__cxx1998::_Vector_base"* %13)
          to label %23 unwind label %24

; <label>:23:                                     ; preds = %22
  ret void

; <label>:24:                                     ; preds = %22
  %25 = landingpad { i8*, i32 }
          catch i8* null
  %26 = extractvalue { i8*, i32 } %25, 0
  call void @__clang_call_terminate(i8* %26) #10
  unreachable

; <label>:27:                                     ; preds = %10, %1
  %28 = alloca %"class.std::__cxx1998::vector"*, align 8
  store %"class.std::__cxx1998::vector"* %0, %"class.std::__cxx1998::vector"** %28, align 8
  %29 = load %"class.std::__cxx1998::vector"*, %"class.std::__cxx1998::vector"** %28, align 8
  %30 = bitcast %"class.std::__cxx1998::vector"* %29 to %"struct.std::__cxx1998::_Vector_base"*
  br label %10
}

; Function Attrs: noinline uwtable
define linkonce_odr void @_ZNSt9__cxx199812_Vector_baseIiSaIiEEC2Ev(%"struct.std::__cxx1998::_Vector_base"*) unnamed_addr #0 comdat align 2 {
  %2 = alloca %"struct.std::__cxx1998::_Vector_base"*, align 8
  store %"struct.std::__cxx1998::_Vector_base"* %0, %"struct.std::__cxx1998::_Vector_base"** %2, align 8
  %3 = load %"struct.std::__cxx1998::_Vector_base"*, %"struct.std::__cxx1998::_Vector_base"** %2, align 8
  %4 = getelementptr inbounds %"struct.std::__cxx1998::_Vector_base", %"struct.std::__cxx1998::_Vector_base"* %3, i32 0, i32 0
  call void @_ZNSt9__cxx199812_Vector_baseIiSaIiEE12_Vector_implC2Ev(%"struct.std::__cxx1998::_Vector_base<int, std::allocator<int> >::_Vector_impl"* %4)
  ret void
}

; Function Attrs: noinline nounwind uwtable
define linkonce_odr void @_ZNSt9__cxx199812_Vector_baseIiSaIiEE12_Vector_implC2Ev(%"struct.std::__cxx1998::_Vector_base<int, std::allocator<int> >::_Vector_impl"*) unnamed_addr #4 comdat align 2 {
  %2 = alloca %"struct.std::__cxx1998::_Vector_base<int, std::allocator<int> >::_Vector_impl"*, align 8
  store %"struct.std::__cxx1998::_Vector_base<int, std::allocator<int> >::_Vector_impl"* %0, %"struct.std::__cxx1998::_Vector_base<int, std::allocator<int> >::_Vector_impl"** %2, align 8
  %3 = load %"struct.std::__cxx1998::_Vector_base<int, std::allocator<int> >::_Vector_impl"*, %"struct.std::__cxx1998::_Vector_base<int, std::allocator<int> >::_Vector_impl"** %2, align 8
  %4 = bitcast %"struct.std::__cxx1998::_Vector_base<int, std::allocator<int> >::_Vector_impl"* %3 to %"class.std::allocator.0"*
  call void @_ZNSaIiEC2Ev(%"class.std::allocator.0"* %4) #3
  %5 = getelementptr inbounds %"struct.std::__cxx1998::_Vector_base<int, std::allocator<int> >::_Vector_impl", %"struct.std::__cxx1998::_Vector_base<int, std::allocator<int> >::_Vector_impl"* %3, i32 0, i32 0
  store i32* null, i32** %5, align 8
  %6 = getelementptr inbounds %"struct.std::__cxx1998::_Vector_base<int, std::allocator<int> >::_Vector_impl", %"struct.std::__cxx1998::_Vector_base<int, std::allocator<int> >::_Vector_impl"* %3, i32 0, i32 1
  store i32* null, i32** %6, align 8
  %7 = getelementptr inbounds %"struct.std::__cxx1998::_Vector_base<int, std::allocator<int> >::_Vector_impl", %"struct.std::__cxx1998::_Vector_base<int, std::allocator<int> >::_Vector_impl"* %3, i32 0, i32 2
  store i32* null, i32** %7, align 8
  ret void
}

; Function Attrs: noinline nounwind uwtable
define linkonce_odr void @_ZN9__gnu_cxx13new_allocatorIiEC2Ev(%"class.__gnu_cxx::new_allocator.1"*) unnamed_addr #4 comdat align 2 {
  %2 = alloca %"class.__gnu_cxx::new_allocator.1"*, align 8
  store %"class.__gnu_cxx::new_allocator.1"* %0, %"class.__gnu_cxx::new_allocator.1"** %2, align 8
  %3 = load %"class.__gnu_cxx::new_allocator.1"*, %"class.__gnu_cxx::new_allocator.1"** %2, align 8
  ret void
}

; Function Attrs: noinline uwtable
define linkonce_odr void @_ZNSt12_Destroy_auxILb0EE9__destroyIPNSt7__debug6vectorIiSaIiEEEEEvT_S7_(%"class.std::__debug::vector"*, %"class.std::__debug::vector"*) #0 comdat align 2 {
  %3 = alloca %"class.std::__debug::vector"*, align 8
  %4 = alloca %"class.std::__debug::vector"*, align 8
  store %"class.std::__debug::vector"* %0, %"class.std::__debug::vector"** %3, align 8
  store %"class.std::__debug::vector"* %1, %"class.std::__debug::vector"** %4, align 8
  br label %5

; <label>:5:                                      ; preds = %50, %2
  %6 = load i32, i32* @x.268
  %7 = load i32, i32* @y.269
  %8 = sub i32 %6, 1
  %9 = mul i32 %6, %8
  %10 = urem i32 %9, 2
  %11 = icmp eq i32 %10, 0
  %12 = icmp slt i32 %7, 10
  %13 = or i1 %11, %12
  br i1 %13, label %14, label %52

; <label>:14:                                     ; preds = %5, %52
  %15 = load %"class.std::__debug::vector"*, %"class.std::__debug::vector"** %3, align 8
  %16 = load %"class.std::__debug::vector"*, %"class.std::__debug::vector"** %4, align 8
  %17 = icmp ne %"class.std::__debug::vector"* %15, %16
  %18 = load i32, i32* @x.268
  %19 = load i32, i32* @y.269
  %20 = sub i32 %18, 1
  %21 = mul i32 %18, %20
  %22 = urem i32 %21, 2
  %23 = icmp eq i32 %22, 0
  %24 = icmp slt i32 %19, 10
  %25 = or i1 %23, %24
  br i1 %25, label %26, label %52

; <label>:26:                                     ; preds = %14
  br i1 %17, label %27, label %51

; <label>:27:                                     ; preds = %26
  %28 = load %"class.std::__debug::vector"*, %"class.std::__debug::vector"** %3, align 8
  %29 = call %"class.std::__debug::vector"* @_ZSt11__addressofINSt7__debug6vectorIiSaIiEEEEPT_RS4_(%"class.std::__debug::vector"* dereferenceable(56) %28) #3
  call void @_ZSt8_DestroyINSt7__debug6vectorIiSaIiEEEEvPT_(%"class.std::__debug::vector"* %29)
  br label %30

; <label>:30:                                     ; preds = %27
  %31 = load i32, i32* @x.268
  %32 = load i32, i32* @y.269
  %33 = sub i32 %31, 1
  %34 = mul i32 %31, %33
  %35 = urem i32 %34, 2
  %36 = icmp eq i32 %35, 0
  %37 = icmp slt i32 %32, 10
  %38 = or i1 %36, %37
  br i1 %38, label %39, label %56

; <label>:39:                                     ; preds = %30, %56
  %40 = load %"class.std::__debug::vector"*, %"class.std::__debug::vector"** %3, align 8
  %41 = getelementptr inbounds %"class.std::__debug::vector", %"class.std::__debug::vector"* %40, i32 1
  store %"class.std::__debug::vector"* %41, %"class.std::__debug::vector"** %3, align 8
  %42 = load i32, i32* @x.268
  %43 = load i32, i32* @y.269
  %44 = sub i32 %42, 1
  %45 = mul i32 %42, %44
  %46 = urem i32 %45, 2
  %47 = icmp eq i32 %46, 0
  %48 = icmp slt i32 %43, 10
  %49 = or i1 %47, %48
  br i1 %49, label %50, label %56

; <label>:50:                                     ; preds = %39
  br label %5

; <label>:51:                                     ; preds = %26
  ret void

; <label>:52:                                     ; preds = %14, %5
  %53 = load %"class.std::__debug::vector"*, %"class.std::__debug::vector"** %3, align 8
  %54 = load %"class.std::__debug::vector"*, %"class.std::__debug::vector"** %4, align 8
  %55 = icmp ne %"class.std::__debug::vector"* %53, %54
  br label %14

; <label>:56:                                     ; preds = %39, %30
  %57 = load %"class.std::__debug::vector"*, %"class.std::__debug::vector"** %3, align 8
  %58 = getelementptr inbounds %"class.std::__debug::vector", %"class.std::__debug::vector"* %57, i32 1
  store %"class.std::__debug::vector"* %58, %"class.std::__debug::vector"** %3, align 8
  br label %39
}

; Function Attrs: noinline nounwind uwtable
define linkonce_odr void @_ZSt8_DestroyINSt7__debug6vectorIiSaIiEEEEvPT_(%"class.std::__debug::vector"*) #4 comdat {
  %2 = load i32, i32* @x.270
  %3 = load i32, i32* @y.271
  %4 = sub i32 %2, 1
  %5 = mul i32 %2, %4
  %6 = urem i32 %5, 2
  %7 = icmp eq i32 %6, 0
  %8 = icmp slt i32 %3, 10
  %9 = or i1 %7, %8
  br i1 %9, label %10, label %22

; <label>:10:                                     ; preds = %1, %22
  %11 = alloca %"class.std::__debug::vector"*, align 8
  store %"class.std::__debug::vector"* %0, %"class.std::__debug::vector"** %11, align 8
