; ModuleID = 'Project_CodeNet_C++1400/p00753/s715631521.cpp'
source_filename = "Project_CodeNet_C++1400/p00753/s715631521.cpp"
target datalayout = "e-m:e-p270:32:32-p271:32:32-p272:64:64-i64:64-f80:128-n8:16:32:64-S128"
target triple = "x86_64-pc-linux-gnu"

%"class.std::ios_base::Init" = type { i8 }
%"class.std::basic_istream" = type { i32 (...)**, i64, %"class.std::basic_ios" }
%"class.std::basic_ios" = type { %"class.std::ios_base", %"class.std::basic_ostream"*, i8, i8, %"class.std::basic_streambuf"*, %"class.std::ctype"*, %"class.std::num_put"*, %"class.std::num_get"* }
%"class.std::ios_base" = type { i32 (...)**, i64, i64, i32, i32, i32, %"struct.std::ios_base::_Callback_list"*, %"struct.std::ios_base::_Words", [8 x %"struct.std::ios_base::_Words"], i32, %"struct.std::ios_base::_Words"*, %"class.std::locale" }
%"struct.std::ios_base::_Callback_list" = type { %"struct.std::ios_base::_Callback_list"*, void (i32, %"class.std::ios_base"*, i32)*, i32, i32 }
%"struct.std::ios_base::_Words" = type { i8*, i64 }
%"class.std::locale" = type { %"class.std::locale::_Impl"* }
%"class.std::locale::_Impl" = type { i32, %"class.std::locale::facet"**, i64, %"class.std::locale::facet"**, i8** }
%"class.std::locale::facet" = type <{ i32 (...)**, i32, [4 x i8] }>
%"class.std::basic_ostream" = type { i32 (...)**, %"class.std::basic_ios" }
%"class.std::basic_streambuf" = type { i32 (...)**, i8*, i8*, i8*, i8*, i8*, i8*, %"class.std::locale" }
%"class.std::ctype" = type <{ %"class.std::locale::facet.base", [4 x i8], %struct.__locale_struct*, i8, [7 x i8], i32*, i32*, i16*, i8, [256 x i8], [256 x i8], i8, [6 x i8] }>
%"class.std::locale::facet.base" = type <{ i32 (...)**, i32 }>
%struct.__locale_struct = type { [13 x %struct.__locale_data*], i16*, i32*, i32*, [13 x i8*] }
%struct.__locale_data = type opaque
%"class.std::num_put" = type { %"class.std::locale::facet.base", [4 x i8] }
%"class.std::num_get" = type { %"class.std::locale::facet.base", [4 x i8] }

@_ZStL8__ioinit = internal global %"class.std::ios_base::Init" zeroinitializer, align 1
@__dso_handle = external hidden global i8
@prime = dso_local local_unnamed_addr global [200000 x i32] zeroinitializer, align 16
@is_prime = dso_local local_unnamed_addr global [300000 x i8] zeroinitializer, align 16
@_ZSt3cin = external global %"class.std::basic_istream", align 8
@_ZSt4cout = external global %"class.std::basic_ostream", align 8
@.str = private unnamed_addr constant [2 x i8] c" \00", align 1
@llvm.global_ctors = appending global [1 x { i32, void ()*, i8* }] [{ i32, void ()*, i8* } { i32 65535, void ()* @_GLOBAL__sub_I_s715631521.cpp, i8* null }]

; Function Attrs: minsize optsize
declare void @_ZNSt8ios_base4InitC1Ev(%"class.std::ios_base::Init"* nonnull align 1 dereferenceable(1)) unnamed_addr #0

; Function Attrs: minsize nounwind optsize
declare void @_ZNSt8ios_base4InitD1Ev(%"class.std::ios_base::Init"* nonnull align 1 dereferenceable(1)) unnamed_addr #1

; Function Attrs: nofree nounwind
declare i32 @__cxa_atexit(void (i8*)*, i8*, i8*) local_unnamed_addr #2

; Function Attrs: minsize mustprogress nofree norecurse nosync nounwind optsize sspstrong uwtable
define dso_local i32 @_Z5sievei(i32 %0) local_unnamed_addr #3 {
  %2 = sext i32 %0 to i64
  br label %3

3:                                                ; preds = %7, %1
  %4 = phi i64 [ %9, %7 ], [ 0, %1 ]
  %5 = icmp sgt i64 %4, %2
  br i1 %5, label %6, label %7

6:                                                ; preds = %3
  store i8 0, i8* getelementptr inbounds ([300000 x i8], [300000 x i8]* @is_prime, i64 0, i64 1), align 1, !tbaa !5
  store i8 0, i8* getelementptr inbounds ([300000 x i8], [300000 x i8]* @is_prime, i64 0, i64 0), align 16, !tbaa !5
  br label %10

7:                                                ; preds = %3
  %8 = getelementptr inbounds [300000 x i8], [300000 x i8]* @is_prime, i64 0, i64 %4
  store i8 1, i8* %8, align 1, !tbaa !5
  %9 = add nuw nsw i64 %4, 1
  br label %3, !llvm.loop !9

10:                                               ; preds = %33, %6
  %11 = phi i64 [ %35, %33 ], [ 2, %6 ]
  %12 = phi i64 [ %36, %33 ], [ 4, %6 ]
  %13 = phi i32 [ %34, %33 ], [ 0, %6 ]
  %14 = icmp sgt i64 %11, %2
  br i1 %14, label %15, label %16

15:                                               ; preds = %10
  ret i32 %13

16:                                               ; preds = %10
  %17 = getelementptr inbounds [300000 x i8], [300000 x i8]* @is_prime, i64 0, i64 %11
  %18 = load i8, i8* %17, align 1, !tbaa !5, !range !11
  %19 = icmp eq i8 %18, 0
  br i1 %19, label %33, label %20

20:                                               ; preds = %16
  %21 = sext i32 %13 to i64
  %22 = getelementptr inbounds [200000 x i32], [200000 x i32]* @prime, i64 0, i64 %21
  %23 = trunc i64 %11 to i32
  store i32 %23, i32* %22, align 4, !tbaa !12
  br label %24

24:                                               ; preds = %28, %20
  %25 = phi i64 [ %30, %28 ], [ %12, %20 ]
  %26 = trunc i64 %25 to i32
  %27 = icmp sgt i32 %26, %0
  br i1 %27, label %31, label %28

28:                                               ; preds = %24
  %29 = getelementptr inbounds [300000 x i8], [300000 x i8]* @is_prime, i64 0, i64 %25
  store i8 0, i8* %29, align 1, !tbaa !5
  %30 = add i64 %25, %11
  br label %24, !llvm.loop !14

31:                                               ; preds = %24
  %32 = add nsw i32 %13, 1
  br label %33

33:                                               ; preds = %31, %16
  %34 = phi i32 [ %13, %16 ], [ %32, %31 ]
  %35 = add nuw nsw i64 %11, 1
  %36 = add nuw nsw i64 %12, 2
  br label %10, !llvm.loop !15
}

; Function Attrs: argmemonly mustprogress nofree nosync nounwind willreturn
declare void @llvm.lifetime.start.p0i8(i64 immarg, i8* nocapture) #4

; Function Attrs: argmemonly mustprogress nofree nosync nounwind willreturn
declare void @llvm.lifetime.end.p0i8(i64 immarg, i8* nocapture) #4

; Function Attrs: minsize mustprogress norecurse optsize sspstrong uwtable
define dso_local i32 @main() local_unnamed_addr #5 {
  %1 = alloca i32, align 4
  %2 = bitcast i32* %1 to i8*
  call void @llvm.lifetime.start.p0i8(i64 4, i8* nonnull %2) #14
  br label %3

3:                                                ; preds = %7, %0
  %4 = call nonnull align 8 dereferenceable(16) %"class.std::basic_istream"* @_ZNSirsERi(%"class.std::basic_istream"* nonnull align 8 dereferenceable(16) @_ZSt3cin, i32* nonnull align 4 dereferenceable(4) %1) #15
  %5 = load i32, i32* %1, align 4, !tbaa !12
  %6 = icmp eq i32 %5, 0
  br i1 %6, label %15, label %7

7:                                                ; preds = %3
  %8 = shl nsw i32 %5, 1
  %9 = call i32 @_Z5sievei(i32 %8) #15
  %10 = load i32, i32* %1, align 4, !tbaa !12
  %11 = call i32 @_Z5sievei(i32 %10) #15
  %12 = sub nsw i32 %9, %11
  %13 = call nonnull align 8 dereferenceable(8) %"class.std::basic_ostream"* @_ZNSolsEi(%"class.std::basic_ostream"* nonnull align 8 dereferenceable(8) @_ZSt4cout, i32 %12) #15
  %14 = call nonnull align 8 dereferenceable(8) %"class.std::basic_ostream"* @_ZSt4endlIcSt11char_traitsIcEERSt13basic_ostreamIT_T0_ES6_(%"class.std::basic_ostream"* nonnull align 8 dereferenceable(8) %13) #15
  br label %3, !llvm.loop !16

15:                                               ; preds = %3
  call void @llvm.lifetime.end.p0i8(i64 4, i8* nonnull %2) #14
  ret i32 0
}

; Function Attrs: minsize optsize
declare nonnull align 8 dereferenceable(16) %"class.std::basic_istream"* @_ZNSirsERi(%"class.std::basic_istream"* nonnull align 8 dereferenceable(16), i32* nonnull align 4 dereferenceable(4)) local_unnamed_addr #0

; Function Attrs: minsize optsize
declare nonnull align 8 dereferenceable(8) %"class.std::basic_ostream"* @_ZNSolsEi(%"class.std::basic_ostream"* nonnull align 8 dereferenceable(8), i32) local_unnamed_addr #0

; Function Attrs: inlinehint minsize mustprogress optsize sspstrong uwtable
declare nonnull align 8 dereferenceable(8) %"class.std::basic_ostream"* @_ZSt4endlIcSt11char_traitsIcEERSt13basic_ostreamIT_T0_ES6_(%"class.std::basic_ostream"* nonnull align 8 dereferenceable(8)) local_unnamed_addr #6

; Function Attrs: minsize mustprogress nofree norecurse nosync nounwind optsize readnone sspstrong uwtable willreturn
define dso_local zeroext i1 @_Z6isLeapi(i32 %0) local_unnamed_addr #7 {
  %2 = srem i32 %0, 400
  %3 = icmp eq i32 %2, 0
  br i1 %3, label %10, label %4

4:                                                ; preds = %1
  %5 = srem i32 %0, 100
  %6 = icmp eq i32 %5, 0
  br i1 %6, label %10, label %7

7:                                                ; preds = %4
  %8 = and i32 %0, 3
  %9 = icmp eq i32 %8, 0
  br label %10

10:                                               ; preds = %7, %4, %1
  %11 = phi i1 [ true, %1 ], [ %9, %7 ], [ false, %4 ]
  ret i1 %11
}

; Function Attrs: minsize mustprogress nofree nosync nounwind optsize readnone sspstrong uwtable willreturn
define dso_local i64 @_Z3gcdxx(i64 %0, i64 %1) local_unnamed_addr #8 {
  br label %3

3:                                                ; preds = %7, %2
  %4 = phi i64 [ %0, %2 ], [ %5, %7 ]
  %5 = phi i64 [ %1, %2 ], [ %8, %7 ]
  %6 = icmp sgt i64 %5, 0
  br i1 %6, label %7, label %9

7:                                                ; preds = %3
  %8 = srem i64 %4, %5
  br label %3

9:                                                ; preds = %3
  ret i64 %4
}

; Function Attrs: minsize mustprogress nofree norecurse nosync nounwind optsize readnone sspstrong uwtable willreturn
define dso_local i64 @_Z3lcmxx(i64 %0, i64 %1) local_unnamed_addr #7 {
  br label %3

3:                                                ; preds = %7, %2
  %4 = phi i64 [ %0, %2 ], [ %5, %7 ]
  %5 = phi i64 [ %1, %2 ], [ %8, %7 ]
  %6 = icmp sgt i64 %5, 0
  br i1 %6, label %7, label %9

7:                                                ; preds = %3
  %8 = srem i64 %4, %5
  br label %3

9:                                                ; preds = %3
  %10 = sdiv i64 %0, %4
  %11 = mul nsw i64 %10, %1
  ret i64 %11
}

; Function Attrs: minsize mustprogress optsize sspstrong uwtable
define dso_local void @_Z5tracePii(i32* nocapture readonly %0, i32 %1) local_unnamed_addr #9 {
  %3 = call i32 @llvm.smax.i32(i32 %1, i32 0)
  %4 = zext i32 %3 to i64
  br label %5

5:                                                ; preds = %14, %2
  %6 = phi i64 [ %18, %14 ], [ 0, %2 ]
  %7 = icmp eq i64 %6, %4
  br i1 %7, label %8, label %10

8:                                                ; preds = %5
  %9 = tail call nonnull align 8 dereferenceable(8) %"class.std::basic_ostream"* @_ZSt4endlIcSt11char_traitsIcEERSt13basic_ostreamIT_T0_ES6_(%"class.std::basic_ostream"* nonnull align 8 dereferenceable(8) @_ZSt4cout) #15
  ret void

10:                                               ; preds = %5
  %11 = icmp eq i64 %6, 0
  br i1 %11, label %14, label %12

12:                                               ; preds = %10
  %13 = tail call nonnull align 8 dereferenceable(8) %"class.std::basic_ostream"* @_ZStlsISt11char_traitsIcEERSt13basic_ostreamIcT_ES5_PKc(%"class.std::basic_ostream"* nonnull align 8 dereferenceable(8) @_ZSt4cout, i8* getelementptr inbounds ([2 x i8], [2 x i8]* @.str, i64 0, i64 0)) #15
  br label %14

14:                                               ; preds = %12, %10
  %15 = getelementptr inbounds i32, i32* %0, i64 %6
  %16 = load i32, i32* %15, align 4, !tbaa !12
  %17 = tail call nonnull align 8 dereferenceable(8) %"class.std::basic_ostream"* @_ZNSolsEi(%"class.std::basic_ostream"* nonnull align 8 dereferenceable(8) @_ZSt4cout, i32 %16) #15
  %18 = add nuw nsw i64 %6, 1
  br label %5, !llvm.loop !17
}

; Function Attrs: inlinehint minsize mustprogress optsize sspstrong uwtable
declare nonnull align 8 dereferenceable(8) %"class.std::basic_ostream"* @_ZStlsISt11char_traitsIcEERSt13basic_ostreamIcT_ES5_PKc(%"class.std::basic_ostream"* nonnull align 8 dereferenceable(8), i8*) local_unnamed_addr #6

; Function Attrs: minsize mustprogress nofree nounwind optsize sspstrong uwtable willreturn
define dso_local double @_Z10distanceABdddd(double %0, double %1, double %2, double %3) local_unnamed_addr #10 {
  %5 = insertelement <2 x double> poison, double %2, i32 0
  %6 = insertelement <2 x double> %5, double %3, i32 1
  %7 = insertelement <2 x double> poison, double %0, i32 0
  %8 = insertelement <2 x double> %7, double %1, i32 1
  %9 = fsub <2 x double> %6, %8
  %10 = fmul <2 x double> %9, %9
  %11 = shufflevector <2 x double> %10, <2 x double> poison, <2 x i32> <i32 1, i32 undef>
  %12 = fadd <2 x double> %10, %11
  %13 = extractelement <2 x double> %12, i32 0
  %14 = tail call double @sqrt(double %13) #16
  ret double %14
}

; Function Attrs: minsize mustprogress nofree nounwind optsize willreturn
declare double @sqrt(double) local_unnamed_addr #11

; Function Attrs: minsize optsize sspstrong uwtable
define internal void @_GLOBAL__sub_I_s715631521.cpp() #12 section ".text.startup" {
  tail call void @_ZNSt8ios_base4InitC1Ev(%"class.std::ios_base::Init"* nonnull align 1 dereferenceable(1) @_ZStL8__ioinit) #15
  %1 = tail call i32 @__cxa_atexit(void (i8*)* bitcast (void (%"class.std::ios_base::Init"*)* @_ZNSt8ios_base4InitD1Ev to void (i8*)*), i8* getelementptr inbounds (%"class.std::ios_base::Init", %"class.std::ios_base::Init"* @_ZStL8__ioinit, i64 0, i32 0), i8* nonnull @__dso_handle) #14
  ret void
}

; Function Attrs: nofree nosync nounwind readnone speculatable willreturn
declare i32 @llvm.smax.i32(i32, i32) #13

attributes #0 = { minsize optsize "frame-pointer"="none" "no-trapping-math"="true" "stack-protector-buffer-size"="8" "target-cpu"="x86-64" "target-features"="+cx8,+fxsr,+mmx,+sse,+sse2,+x87" "tune-cpu"="generic" }
attributes #1 = { minsize nounwind optsize "frame-pointer"="none" "no-trapping-math"="true" "stack-protector-buffer-size"="8" "target-cpu"="x86-64" "target-features"="+cx8,+fxsr,+mmx,+sse,+sse2,+x87" "tune-cpu"="generic" }
attributes #2 = { nofree nounwind }
attributes #3 = { minsize mustprogress nofree norecurse nosync nounwind optsize sspstrong uwtable "frame-pointer"="none" "min-legal-vector-width"="0" "no-trapping-math"="true" "stack-protector-buffer-size"="8" "target-cpu"="x86-64" "target-features"="+cx8,+fxsr,+mmx,+sse,+sse2,+x87" "tune-cpu"="generic" }
attributes #4 = { argmemonly mustprogress nofree nosync nounwind willreturn }
attributes #5 = { minsize mustprogress norecurse optsize sspstrong uwtable "frame-pointer"="none" "min-legal-vector-width"="0" "no-trapping-math"="true" "stack-protector-buffer-size"="8" "target-cpu"="x86-64" "target-features"="+cx8,+fxsr,+mmx,+sse,+sse2,+x87" "tune-cpu"="generic" }
attributes #6 = { inlinehint minsize mustprogress optsize sspstrong uwtable "frame-pointer"="none" "min-legal-vector-width"="0" "no-trapping-math"="true" "stack-protector-buffer-size"="8" "target-cpu"="x86-64" "target-features"="+cx8,+fxsr,+mmx,+sse,+sse2,+x87" "tune-cpu"="generic" }
attributes #7 = { minsize mustprogress nofree norecurse nosync nounwind optsize readnone sspstrong uwtable willreturn "frame-pointer"="none" "min-legal-vector-width"="0" "no-trapping-math"="true" "stack-protector-buffer-size"="8" "target-cpu"="x86-64" "target-features"="+cx8,+fxsr,+mmx,+sse,+sse2,+x87" "tune-cpu"="generic" }
attributes #8 = { minsize mustprogress nofree nosync nounwind optsize readnone sspstrong uwtable willreturn "frame-pointer"="none" "min-legal-vector-width"="0" "no-trapping-math"="true" "stack-protector-buffer-size"="8" "target-cpu"="x86-64" "target-features"="+cx8,+fxsr,+mmx,+sse,+sse2,+x87" "tune-cpu"="generic" }
attributes #9 = { minsize mustprogress optsize sspstrong uwtable "frame-pointer"="none" "min-legal-vector-width"="0" "no-trapping-math"="true" "stack-protector-buffer-size"="8" "target-cpu"="x86-64" "target-features"="+cx8,+fxsr,+mmx,+sse,+sse2,+x87" "tune-cpu"="generic" }
attributes #10 = { minsize mustprogress nofree nounwind optsize sspstrong uwtable willreturn "frame-pointer"="none" "min-legal-vector-width"="0" "no-trapping-math"="true" "stack-protector-buffer-size"="8" "target-cpu"="x86-64" "target-features"="+cx8,+fxsr,+mmx,+sse,+sse2,+x87" "tune-cpu"="generic" }
attributes #11 = { minsize mustprogress nofree nounwind optsize willreturn "frame-pointer"="none" "no-trapping-math"="true" "stack-protector-buffer-size"="8" "target-cpu"="x86-64" "target-features"="+cx8,+fxsr,+mmx,+sse,+sse2,+x87" "tune-cpu"="generic" }
attributes #12 = { minsize optsize sspstrong uwtable "frame-pointer"="none" "min-legal-vector-width"="0" "no-trapping-math"="true" "stack-protector-buffer-size"="8" "target-cpu"="x86-64" "target-features"="+cx8,+fxsr,+mmx,+sse,+sse2,+x87" "tune-cpu"="generic" }
attributes #13 = { nofree nosync nounwind readnone speculatable willreturn }
attributes #14 = { nounwind }
attributes #15 = { minsize optsize }
attributes #16 = { minsize nounwind optsize }

!llvm.module.flags = !{!0, !1, !2, !3}
!llvm.ident = !{!4}

!0 = !{i32 1, !"wchar_size", i32 4}
!1 = !{i32 7, !"PIC Level", i32 2}
!2 = !{i32 7, !"PIE Level", i32 2}
!3 = !{i32 7, !"uwtable", i32 1}
!4 = !{!"clang version 13.0.0"}
!5 = !{!6, !6, i64 0}
!6 = !{!"bool", !7, i64 0}
!7 = !{!"omnipotent char", !8, i64 0}
!8 = !{!"Simple C++ TBAA"}
!9 = distinct !{!9, !10}
!10 = !{!"llvm.loop.mustprogress"}
!11 = !{i8 0, i8 2}
!12 = !{!13, !13, i64 0}
!13 = !{!"int", !7, i64 0}
!14 = distinct !{!14, !10}
!15 = distinct !{!15, !10}
!16 = distinct !{!16, !10}
!17 = distinct !{!17, !10}
