; ModuleID = 'Project_CodeNet_C++1400/p03252/s202939384.cpp'
source_filename = "Project_CodeNet_C++1400/p03252/s202939384.cpp"
target datalayout = "e-m:e-i64:64-f80:128-n8:16:32:64-S128"
target triple = "x86_64-unknown-linux-gnu"

%"class.std::ios_base::Init" = type { i8 }
%"class.std::basic_istream" = type { i32 (...)**, i64, %"class.std::basic_ios" }
%"class.std::basic_ios" = type { %"class.std::ios_base", %"class.std::basic_ostream"*, i8, i8, %"class.std::basic_streambuf"*, %"class.std::ctype"*, %"class.std::num_put"*, %"class.std::num_get"* }
%"class.std::ios_base" = type { i32 (...)**, i64, i64, i32, i32, i32, %"struct.std::ios_base::_Callback_list"*, %"struct.std::ios_base::_Words", [8 x %"struct.std::ios_base::_Words"], i32, %"struct.std::ios_base::_Words"*, %"class.std::locale" }
%"struct.std::ios_base::_Callback_list" = type { %"struct.std::ios_base::_Callback_list"*, void (i32, %"class.std::ios_base"*, i32)*, i32, i32 }
%"struct.std::ios_base::_Words" = type { i8*, i64 }
%"class.std::locale" = type { %"class.std::locale::_Impl"* }
%"class.std::locale::_Impl" = type { i32, %"class.std::locale::facet"**, i64, %"class.std::locale::facet"**, i8** }
%"class.std::locale::facet" = type <{ i32 (...)**, i32, [4 x i8] }>
%"class.std::basic_ostream" = type { i32 (...)**, %"class.std::basic_ios" }
%"class.std::basic_streambuf" = type { i32 (...)**, i8*, i8*, i8*, i8*, i8*, i8*, %"class.std::locale" }
%"class.std::ctype" = type <{ %"class.std::locale::facet.base", [4 x i8], %struct.__locale_struct*, i8, [7 x i8], i32*, i32*, i16*, i8, [256 x i8], [256 x i8], i8, [6 x i8] }>
%"class.std::locale::facet.base" = type <{ i32 (...)**, i32 }>
%struct.__locale_struct = type { [13 x %struct.__locale_data*], i16*, i32*, i32*, [13 x i8*] }
%struct.__locale_data = type opaque
%"class.std::num_put" = type { %"class.std::locale::facet.base", [4 x i8] }
%"class.std::num_get" = type { %"class.std::locale::facet.base", [4 x i8] }
%"struct.std::piecewise_construct_t" = type { i8 }
%"class.std::__cxx11::basic_string" = type { %"struct.std::__cxx11::basic_string<char, std::char_traits<char>, std::allocator<char> >::_Alloc_hider", i64, %union.anon }
%"struct.std::__cxx11::basic_string<char, std::char_traits<char>, std::allocator<char> >::_Alloc_hider" = type { i8* }
%union.anon = type { i64, [8 x i8] }
%"class.std::map" = type { %"class.std::_Rb_tree" }
%"class.std::_Rb_tree" = type { %"struct.std::_Rb_tree<std::__cxx11::basic_string<char>, std::pair<const std::__cxx11::basic_string<char>, std::set<std::__cxx11::basic_string<char>, std::less<std::__cxx11::basic_string<char> >, std::allocator<std::__cxx11::basic_string<char> > > >, std::_Select1st<std::pair<const std::__cxx11::basic_string<char>, std::set<std::__cxx11::basic_string<char>, std::less<std::__cxx11::basic_string<char> >, std::allocator<std::__cxx11::basic_string<char> > > > >, std::less<std::__cxx11::basic_string<char> >, std::allocator<std::pair<const std::__cxx11::basic_string<char>, std::set<std::__cxx11::basic_string<char>, std::less<std::__cxx11::basic_string<char> >, std::allocator<std::__cxx11::basic_string<char> > > > > >::_Rb_tree_impl" }
%"struct.std::_Rb_tree<std::__cxx11::basic_string<char>, std::pair<const std::__cxx11::basic_string<char>, std::set<std::__cxx11::basic_string<char>, std::less<std::__cxx11::basic_string<char> >, std::allocator<std::__cxx11::basic_string<char> > > >, std::_Select1st<std::pair<const std::__cxx11::basic_string<char>, std::set<std::__cxx11::basic_string<char>, std::less<std::__cxx11::basic_string<char> >, std::allocator<std::__cxx11::basic_string<char> > > > >, std::less<std::__cxx11::basic_string<char> >, std::allocator<std::pair<const std::__cxx11::basic_string<char>, std::set<std::__cxx11::basic_string<char>, std::less<std::__cxx11::basic_string<char> >, std::allocator<std::__cxx11::basic_string<char> > > > > >::_Rb_tree_impl" = type { %"struct.std::less", %"struct.std::_Rb_tree_node_base", i64 }
%"struct.std::less" = type { i8 }
%"struct.std::_Rb_tree_node_base" = type { i32, %"struct.std::_Rb_tree_node_base"*, %"struct.std::_Rb_tree_node_base"*, %"struct.std::_Rb_tree_node_base"* }
%"struct.std::pair" = type <{ %"struct.std::_Rb_tree_const_iterator", i8, [7 x i8] }>
%"struct.std::_Rb_tree_const_iterator" = type { %"struct.std::_Rb_tree_node_base"* }
%"class.std::set" = type { %"class.std::_Rb_tree.3" }
%"class.std::_Rb_tree.3" = type { %"struct.std::_Rb_tree<std::__cxx11::basic_string<char>, std::__cxx11::basic_string<char>, std::_Identity<std::__cxx11::basic_string<char> >, std::less<std::__cxx11::basic_string<char> >, std::allocator<std::__cxx11::basic_string<char> > >::_Rb_tree_impl" }
%"struct.std::_Rb_tree<std::__cxx11::basic_string<char>, std::__cxx11::basic_string<char>, std::_Identity<std::__cxx11::basic_string<char> >, std::less<std::__cxx11::basic_string<char> >, std::allocator<std::__cxx11::basic_string<char> > >::_Rb_tree_impl" = type { %"struct.std::less", %"struct.std::_Rb_tree_node_base", i64 }
%"struct.std::_Rb_tree_iterator" = type { %"struct.std::_Rb_tree_node_base"* }
%"struct.std::_Rb_tree_const_iterator.10" = type { %"struct.std::_Rb_tree_node_base"* }
%"class.std::tuple" = type { %"struct.std::_Tuple_impl" }
%"struct.std::_Tuple_impl" = type { %"struct.std::_Head_base" }
%"struct.std::_Head_base" = type { %"class.std::__cxx11::basic_string"* }
%"class.std::tuple.11" = type { i8 }
%"struct.std::pair.7" = type { %"class.std::__cxx11::basic_string", %"class.std::set" }
%"struct.std::pair.14" = type <{ %"struct.std::_Rb_tree_iterator.15", i8, [7 x i8] }>
%"struct.std::_Rb_tree_iterator.15" = type { %"struct.std::_Rb_tree_node_base"* }
%"struct.std::_Rb_tree_node" = type { %"struct.std::_Rb_tree_node_base", %"struct.__gnu_cxx::__aligned_membuf" }
%"struct.__gnu_cxx::__aligned_membuf" = type { [80 x i8] }
%"class.std::allocator.0" = type { i8 }
%"class.__gnu_cxx::new_allocator.1" = type { i8 }
%"struct.std::_Rb_tree_node.8" = type { %"struct.std::_Rb_tree_node_base", %"struct.__gnu_cxx::__aligned_membuf.9" }
%"struct.__gnu_cxx::__aligned_membuf.9" = type { [32 x i8] }
%"class.std::allocator.4" = type { i8 }
%"class.__gnu_cxx::new_allocator.5" = type { i8 }
%"struct.std::pair.12" = type { %"struct.std::_Rb_tree_node_base"*, %"struct.std::_Rb_tree_node_base"* }
%"struct.std::_Select1st" = type { i8 }
%"struct.std::_Index_tuple" = type { i8 }
%"struct.std::_Index_tuple.13" = type { i8 }
%"struct.std::_Identity" = type { i8 }

$_ZNSt3mapINSt7__cxx1112basic_stringIcSt11char_traitsIcESaIcEEESt3setIS5_St4lessIS5_ESaIS5_EES8_SaISt4pairIKS5_SA_EEEC2Ev = comdat any

$_ZNSt3mapINSt7__cxx1112basic_stringIcSt11char_traitsIcESaIcEEESt3setIS5_St4lessIS5_ESaIS5_EES8_SaISt4pairIKS5_SA_EEEixEOS5_ = comdat any

$_ZNSt3setINSt7__cxx1112basic_stringIcSt11char_traitsIcESaIcEEESt4lessIS5_ESaIS5_EE7emplaceIJS5_EEESt4pairISt23_Rb_tree_const_iteratorIS5_EbEDpOT_ = comdat any

$_ZNKSt3setINSt7__cxx1112basic_stringIcSt11char_traitsIcESaIcEEESt4lessIS5_ESaIS5_EE4sizeEv = comdat any

$_ZNSt3mapINSt7__cxx1112basic_stringIcSt11char_traitsIcESaIcEEESt3setIS5_St4lessIS5_ESaIS5_EES8_SaISt4pairIKS5_SA_EEED2Ev = comdat any

$_ZNSt8_Rb_treeINSt7__cxx1112basic_stringIcSt11char_traitsIcESaIcEEESt4pairIKS5_St3setIS5_St4lessIS5_ESaIS5_EEESt10_Select1stISD_ESA_SaISD_EED2Ev = comdat any

$_ZNSt8_Rb_treeINSt7__cxx1112basic_stringIcSt11char_traitsIcESaIcEEESt4pairIKS5_St3setIS5_St4lessIS5_ESaIS5_EEESt10_Select1stISD_ESA_SaISD_EE8_M_eraseEPSt13_Rb_tree_nodeISD_E = comdat any

$_ZNSt8_Rb_treeINSt7__cxx1112basic_stringIcSt11char_traitsIcESaIcEEESt4pairIKS5_St3setIS5_St4lessIS5_ESaIS5_EEESt10_Select1stISD_ESA_SaISD_EE8_M_beginEv = comdat any

$_ZNSt8_Rb_treeINSt7__cxx1112basic_stringIcSt11char_traitsIcESaIcEEESt4pairIKS5_St3setIS5_St4lessIS5_ESaIS5_EEESt10_Select1stISD_ESA_SaISD_EE13_Rb_tree_implISA_Lb1EED2Ev = comdat any

$__clang_call_terminate = comdat any

$_ZNSt8_Rb_treeINSt7__cxx1112basic_stringIcSt11char_traitsIcESaIcEEESt4pairIKS5_St3setIS5_St4lessIS5_ESaIS5_EEESt10_Select1stISD_ESA_SaISD_EE8_S_rightEPSt18_Rb_tree_node_base = comdat any

$_ZNSt8_Rb_treeINSt7__cxx1112basic_stringIcSt11char_traitsIcESaIcEEESt4pairIKS5_St3setIS5_St4lessIS5_ESaIS5_EEESt10_Select1stISD_ESA_SaISD_EE7_S_leftEPSt18_Rb_tree_node_base = comdat any

$_ZNSt8_Rb_treeINSt7__cxx1112basic_stringIcSt11char_traitsIcESaIcEEESt4pairIKS5_St3setIS5_St4lessIS5_ESaIS5_EEESt10_Select1stISD_ESA_SaISD_EE12_M_drop_nodeEPSt13_Rb_tree_nodeISD_E = comdat any

$_ZNSt8_Rb_treeINSt7__cxx1112basic_stringIcSt11char_traitsIcESaIcEEESt4pairIKS5_St3setIS5_St4lessIS5_ESaIS5_EEESt10_Select1stISD_ESA_SaISD_EE15_M_destroy_nodeEPSt13_Rb_tree_nodeISD_E = comdat any

$_ZNSt8_Rb_treeINSt7__cxx1112basic_stringIcSt11char_traitsIcESaIcEEESt4pairIKS5_St3setIS5_St4lessIS5_ESaIS5_EEESt10_Select1stISD_ESA_SaISD_EE11_M_put_nodeEPSt13_Rb_tree_nodeISD_E = comdat any

$_ZNSt16allocator_traitsISaISt13_Rb_tree_nodeISt4pairIKNSt7__cxx1112basic_stringIcSt11char_traitsIcESaIcEEESt3setIS7_St4lessIS7_ESaIS7_EEEEEE7destroyISE_EEvRSG_PT_ = comdat any

$_ZNSt8_Rb_treeINSt7__cxx1112basic_stringIcSt11char_traitsIcESaIcEEESt4pairIKS5_St3setIS5_St4lessIS5_ESaIS5_EEESt10_Select1stISD_ESA_SaISD_EE21_M_get_Node_allocatorEv = comdat any

$_ZNSt13_Rb_tree_nodeISt4pairIKNSt7__cxx1112basic_stringIcSt11char_traitsIcESaIcEEESt3setIS6_St4lessIS6_ESaIS6_EEEE9_M_valptrEv = comdat any

$_ZN9__gnu_cxx13new_allocatorISt13_Rb_tree_nodeISt4pairIKNSt7__cxx1112basic_stringIcSt11char_traitsIcESaIcEEESt3setIS8_St4lessIS8_ESaIS8_EEEEE7destroyISF_EEvPT_ = comdat any

$_ZNSt4pairIKNSt7__cxx1112basic_stringIcSt11char_traitsIcESaIcEEESt3setIS5_St4lessIS5_ESaIS5_EEED2Ev = comdat any

$_ZNSt3setINSt7__cxx1112basic_stringIcSt11char_traitsIcESaIcEEESt4lessIS5_ESaIS5_EED2Ev = comdat any

$_ZNSt8_Rb_treeINSt7__cxx1112basic_stringIcSt11char_traitsIcESaIcEEES5_St9_IdentityIS5_ESt4lessIS5_ESaIS5_EED2Ev = comdat any

$_ZNSt8_Rb_treeINSt7__cxx1112basic_stringIcSt11char_traitsIcESaIcEEES5_St9_IdentityIS5_ESt4lessIS5_ESaIS5_EE8_M_eraseEPSt13_Rb_tree_nodeIS5_E = comdat any

$_ZNSt8_Rb_treeINSt7__cxx1112basic_stringIcSt11char_traitsIcESaIcEEES5_St9_IdentityIS5_ESt4lessIS5_ESaIS5_EE8_M_beginEv = comdat any

$_ZNSt8_Rb_treeINSt7__cxx1112basic_stringIcSt11char_traitsIcESaIcEEES5_St9_IdentityIS5_ESt4lessIS5_ESaIS5_EE13_Rb_tree_implIS9_Lb1EED2Ev = comdat any

$_ZNSt8_Rb_treeINSt7__cxx1112basic_stringIcSt11char_traitsIcESaIcEEES5_St9_IdentityIS5_ESt4lessIS5_ESaIS5_EE8_S_rightEPSt18_Rb_tree_node_base = comdat any

$_ZNSt8_Rb_treeINSt7__cxx1112basic_stringIcSt11char_traitsIcESaIcEEES5_St9_IdentityIS5_ESt4lessIS5_ESaIS5_EE7_S_leftEPSt18_Rb_tree_node_base = comdat any

$_ZNSt8_Rb_treeINSt7__cxx1112basic_stringIcSt11char_traitsIcESaIcEEES5_St9_IdentityIS5_ESt4lessIS5_ESaIS5_EE12_M_drop_nodeEPSt13_Rb_tree_nodeIS5_E = comdat any

$_ZNSt8_Rb_treeINSt7__cxx1112basic_stringIcSt11char_traitsIcESaIcEEES5_St9_IdentityIS5_ESt4lessIS5_ESaIS5_EE15_M_destroy_nodeEPSt13_Rb_tree_nodeIS5_E = comdat any

$_ZNSt8_Rb_treeINSt7__cxx1112basic_stringIcSt11char_traitsIcESaIcEEES5_St9_IdentityIS5_ESt4lessIS5_ESaIS5_EE11_M_put_nodeEPSt13_Rb_tree_nodeIS5_E = comdat any

$_ZNSt16allocator_traitsISaISt13_Rb_tree_nodeINSt7__cxx1112basic_stringIcSt11char_traitsIcESaIcEEEEEE7destroyIS6_EEvRS8_PT_ = comdat any

$_ZNSt8_Rb_treeINSt7__cxx1112basic_stringIcSt11char_traitsIcESaIcEEES5_St9_IdentityIS5_ESt4lessIS5_ESaIS5_EE21_M_get_Node_allocatorEv = comdat any

$_ZNSt13_Rb_tree_nodeINSt7__cxx1112basic_stringIcSt11char_traitsIcESaIcEEEE9_M_valptrEv = comdat any

$_ZN9__gnu_cxx13new_allocatorISt13_Rb_tree_nodeINSt7__cxx1112basic_stringIcSt11char_traitsIcESaIcEEEEE7destroyIS7_EEvPT_ = comdat any

$_ZN9__gnu_cxx16__aligned_membufINSt7__cxx1112basic_stringIcSt11char_traitsIcESaIcEEEE6_M_ptrEv = comdat any

$_ZN9__gnu_cxx16__aligned_membufINSt7__cxx1112basic_stringIcSt11char_traitsIcESaIcEEEE7_M_addrEv = comdat any

$_ZNSt16allocator_traitsISaISt13_Rb_tree_nodeINSt7__cxx1112basic_stringIcSt11char_traitsIcESaIcEEEEEE10deallocateERS8_PS7_m = comdat any

$_ZN9__gnu_cxx13new_allocatorISt13_Rb_tree_nodeINSt7__cxx1112basic_stringIcSt11char_traitsIcESaIcEEEEE10deallocateEPS8_m = comdat any

$_ZNSaISt13_Rb_tree_nodeINSt7__cxx1112basic_stringIcSt11char_traitsIcESaIcEEEEED2Ev = comdat any

$_ZN9__gnu_cxx13new_allocatorISt13_Rb_tree_nodeINSt7__cxx1112basic_stringIcSt11char_traitsIcESaIcEEEEED2Ev = comdat any

$_ZN9__gnu_cxx16__aligned_membufISt4pairIKNSt7__cxx1112basic_stringIcSt11char_traitsIcESaIcEEESt3setIS7_St4lessIS7_ESaIS7_EEEE6_M_ptrEv = comdat any

$_ZN9__gnu_cxx16__aligned_membufISt4pairIKNSt7__cxx1112basic_stringIcSt11char_traitsIcESaIcEEESt3setIS7_St4lessIS7_ESaIS7_EEEE7_M_addrEv = comdat any

$_ZNSt16allocator_traitsISaISt13_Rb_tree_nodeISt4pairIKNSt7__cxx1112basic_stringIcSt11char_traitsIcESaIcEEESt3setIS7_St4lessIS7_ESaIS7_EEEEEE10deallocateERSG_PSF_m = comdat any

$_ZN9__gnu_cxx13new_allocatorISt13_Rb_tree_nodeISt4pairIKNSt7__cxx1112basic_stringIcSt11char_traitsIcESaIcEEESt3setIS8_St4lessIS8_ESaIS8_EEEEE10deallocateEPSG_m = comdat any

$_ZNSaISt13_Rb_tree_nodeISt4pairIKNSt7__cxx1112basic_stringIcSt11char_traitsIcESaIcEEESt3setIS6_St4lessIS6_ESaIS6_EEEEED2Ev = comdat any

$_ZN9__gnu_cxx13new_allocatorISt13_Rb_tree_nodeISt4pairIKNSt7__cxx1112basic_stringIcSt11char_traitsIcESaIcEEESt3setIS8_St4lessIS8_ESaIS8_EEEEED2Ev = comdat any

$_ZNSt8_Rb_treeINSt7__cxx1112basic_stringIcSt11char_traitsIcESaIcEEESt4pairIKS5_St3setIS5_St4lessIS5_ESaIS5_EEESt10_Select1stISD_ESA_SaISD_EEC2Ev = comdat any

$_ZNSt8_Rb_treeINSt7__cxx1112basic_stringIcSt11char_traitsIcESaIcEEESt4pairIKS5_St3setIS5_St4lessIS5_ESaIS5_EEESt10_Select1stISD_ESA_SaISD_EE13_Rb_tree_implISA_Lb1EEC2Ev = comdat any

$_ZNSaISt13_Rb_tree_nodeISt4pairIKNSt7__cxx1112basic_stringIcSt11char_traitsIcESaIcEEESt3setIS6_St4lessIS6_ESaIS6_EEEEEC2Ev = comdat any

$_ZNSt8_Rb_treeINSt7__cxx1112basic_stringIcSt11char_traitsIcESaIcEEESt4pairIKS5_St3setIS5_St4lessIS5_ESaIS5_EEESt10_Select1stISD_ESA_SaISD_EE13_Rb_tree_implISA_Lb1EE13_M_initializeEv = comdat any

$_ZN9__gnu_cxx13new_allocatorISt13_Rb_tree_nodeISt4pairIKNSt7__cxx1112basic_stringIcSt11char_traitsIcESaIcEEESt3setIS8_St4lessIS8_ESaIS8_EEEEEC2Ev = comdat any

$_ZNSt3mapINSt7__cxx1112basic_stringIcSt11char_traitsIcESaIcEEESt3setIS5_St4lessIS5_ESaIS5_EES8_SaISt4pairIKS5_SA_EEE11lower_boundERSC_ = comdat any

$_ZNKSt17_Rb_tree_iteratorISt4pairIKNSt7__cxx1112basic_stringIcSt11char_traitsIcESaIcEEESt3setIS6_St4lessIS6_ESaIS6_EEEEeqERKSE_ = comdat any

$_ZNSt3mapINSt7__cxx1112basic_stringIcSt11char_traitsIcESaIcEEESt3setIS5_St4lessIS5_ESaIS5_EES8_SaISt4pairIKS5_SA_EEE3endEv = comdat any

$_ZNKSt3mapINSt7__cxx1112basic_stringIcSt11char_traitsIcESaIcEEESt3setIS5_St4lessIS5_ESaIS5_EES8_SaISt4pairIKS5_SA_EEE8key_compEv = comdat any

$_ZNKSt4lessINSt7__cxx1112basic_stringIcSt11char_traitsIcESaIcEEEEclERKS5_S8_ = comdat any

$_ZNKSt17_Rb_tree_iteratorISt4pairIKNSt7__cxx1112basic_stringIcSt11char_traitsIcESaIcEEESt3setIS6_St4lessIS6_ESaIS6_EEEEdeEv = comdat any

$_ZNSt8_Rb_treeINSt7__cxx1112basic_stringIcSt11char_traitsIcESaIcEEESt4pairIKS5_St3setIS5_St4lessIS5_ESaIS5_EEESt10_Select1stISD_ESA_SaISD_EE22_M_emplace_hint_uniqueIJRKSt21piecewise_construct_tSt5tupleIJOS5_EESM_IJEEEEESt17_Rb_tree_iteratorISD_ESt23_Rb_tree_const_iteratorISD_EDpOT_ = comdat any

$_ZNSt23_Rb_tree_const_iteratorISt4pairIKNSt7__cxx1112basic_stringIcSt11char_traitsIcESaIcEEESt3setIS6_St4lessIS6_ESaIS6_EEEEC2ERKSt17_Rb_tree_iteratorISD_E = comdat any

$_ZSt16forward_as_tupleIJNSt7__cxx1112basic_stringIcSt11char_traitsIcESaIcEEEEESt5tupleIJDpOT_EES9_ = comdat any

$_ZSt4moveIRNSt7__cxx1112basic_stringIcSt11char_traitsIcESaIcEEEEONSt16remove_referenceIT_E4typeEOS8_ = comdat any

$_ZNSt8_Rb_treeINSt7__cxx1112basic_stringIcSt11char_traitsIcESaIcEEESt4pairIKS5_St3setIS5_St4lessIS5_ESaIS5_EEESt10_Select1stISD_ESA_SaISD_EE11lower_boundERS7_ = comdat any

$_ZNSt8_Rb_treeINSt7__cxx1112basic_stringIcSt11char_traitsIcESaIcEEESt4pairIKS5_St3setIS5_St4lessIS5_ESaIS5_EEESt10_Select1stISD_ESA_SaISD_EE14_M_lower_boundEPSt13_Rb_tree_nodeISD_ESK_RS7_ = comdat any

$_ZNSt8_Rb_treeINSt7__cxx1112basic_stringIcSt11char_traitsIcESaIcEEESt4pairIKS5_St3setIS5_St4lessIS5_ESaIS5_EEESt10_Select1stISD_ESA_SaISD_EE6_M_endEv = comdat any

$_ZNSt8_Rb_treeINSt7__cxx1112basic_stringIcSt11char_traitsIcESaIcEEESt4pairIKS5_St3setIS5_St4lessIS5_ESaIS5_EEESt10_Select1stISD_ESA_SaISD_EE6_S_keyEPKSt13_Rb_tree_nodeISD_E = comdat any

$_ZNSt17_Rb_tree_iteratorISt4pairIKNSt7__cxx1112basic_stringIcSt11char_traitsIcESaIcEEESt3setIS6_St4lessIS6_ESaIS6_EEEEC2EPSt18_Rb_tree_node_base = comdat any

$_ZNKSt10_Select1stISt4pairIKNSt7__cxx1112basic_stringIcSt11char_traitsIcESaIcEEESt3setIS6_St4lessIS6_ESaIS6_EEEEclERKSD_ = comdat any

$_ZNSt8_Rb_treeINSt7__cxx1112basic_stringIcSt11char_traitsIcESaIcEEESt4pairIKS5_St3setIS5_St4lessIS5_ESaIS5_EEESt10_Select1stISD_ESA_SaISD_EE8_S_valueEPKSt13_Rb_tree_nodeISD_E = comdat any

$_ZNKSt13_Rb_tree_nodeISt4pairIKNSt7__cxx1112basic_stringIcSt11char_traitsIcESaIcEEESt3setIS6_St4lessIS6_ESaIS6_EEEE9_M_valptrEv = comdat any

$_ZNK9__gnu_cxx16__aligned_membufISt4pairIKNSt7__cxx1112basic_stringIcSt11char_traitsIcESaIcEEESt3setIS7_St4lessIS7_ESaIS7_EEEE6_M_ptrEv = comdat any

$_ZNK9__gnu_cxx16__aligned_membufISt4pairIKNSt7__cxx1112basic_stringIcSt11char_traitsIcESaIcEEESt3setIS7_St4lessIS7_ESaIS7_EEEE7_M_addrEv = comdat any

$_ZNSt8_Rb_treeINSt7__cxx1112basic_stringIcSt11char_traitsIcESaIcEEESt4pairIKS5_St3setIS5_St4lessIS5_ESaIS5_EEESt10_Select1stISD_ESA_SaISD_EE3endEv = comdat any

$_ZNKSt8_Rb_treeINSt7__cxx1112basic_stringIcSt11char_traitsIcESaIcEEESt4pairIKS5_St3setIS5_St4lessIS5_ESaIS5_EEESt10_Select1stISD_ESA_SaISD_EE8key_compEv = comdat any

$_ZStltIcSt11char_traitsIcESaIcEEbRKNSt7__cxx1112basic_stringIT_T0_T1_EESA_ = comdat any

$_ZNSt8_Rb_treeINSt7__cxx1112basic_stringIcSt11char_traitsIcESaIcEEESt4pairIKS5_St3setIS5_St4lessIS5_ESaIS5_EEESt10_Select1stISD_ESA_SaISD_EE14_M_create_nodeIJRKSt21piecewise_construct_tSt5tupleIJOS5_EESM_IJEEEEEPSt13_Rb_tree_nodeISD_EDpOT_ = comdat any

$_ZSt7forwardIRKSt21piecewise_construct_tEOT_RNSt16remove_referenceIS3_E4typeE = comdat any

$_ZSt7forwardISt5tupleIJONSt7__cxx1112basic_stringIcSt11char_traitsIcESaIcEEEEEEOT_RNSt16remove_referenceIS9_E4typeE = comdat any

$_ZSt7forwardISt5tupleIJEEEOT_RNSt16remove_referenceIS2_E4typeE = comdat any

$_ZNSt8_Rb_treeINSt7__cxx1112basic_stringIcSt11char_traitsIcESaIcEEESt4pairIKS5_St3setIS5_St4lessIS5_ESaIS5_EEESt10_Select1stISD_ESA_SaISD_EE29_M_get_insert_hint_unique_posESt23_Rb_tree_const_iteratorISD_ERS7_ = comdat any

$_ZNSt8_Rb_treeINSt7__cxx1112basic_stringIcSt11char_traitsIcESaIcEEESt4pairIKS5_St3setIS5_St4lessIS5_ESaIS5_EEESt10_Select1stISD_ESA_SaISD_EE14_M_insert_nodeEPSt18_Rb_tree_node_baseSJ_PSt13_Rb_tree_nodeISD_E = comdat any

$_ZNSt8_Rb_treeINSt7__cxx1112basic_stringIcSt11char_traitsIcESaIcEEESt4pairIKS5_St3setIS5_St4lessIS5_ESaIS5_EEESt10_Select1stISD_ESA_SaISD_EE11_M_get_nodeEv = comdat any

$_ZNSt8_Rb_treeINSt7__cxx1112basic_stringIcSt11char_traitsIcESaIcEEESt4pairIKS5_St3setIS5_St4lessIS5_ESaIS5_EEESt10_Select1stISD_ESA_SaISD_EE17_M_construct_nodeIJRKSt21piecewise_construct_tSt5tupleIJOS5_EESM_IJEEEEEvPSt13_Rb_tree_nodeISD_EDpOT_ = comdat any

$_ZNSt16allocator_traitsISaISt13_Rb_tree_nodeISt4pairIKNSt7__cxx1112basic_stringIcSt11char_traitsIcESaIcEEESt3setIS7_St4lessIS7_ESaIS7_EEEEEE8allocateERSG_m = comdat any

$_ZN9__gnu_cxx13new_allocatorISt13_Rb_tree_nodeISt4pairIKNSt7__cxx1112basic_stringIcSt11char_traitsIcESaIcEEESt3setIS8_St4lessIS8_ESaIS8_EEEEE8allocateEmPKv = comdat any

$_ZNK9__gnu_cxx13new_allocatorISt13_Rb_tree_nodeISt4pairIKNSt7__cxx1112basic_stringIcSt11char_traitsIcESaIcEEESt3setIS8_St4lessIS8_ESaIS8_EEEEE8max_sizeEv = comdat any

$_ZNSt16allocator_traitsISaISt13_Rb_tree_nodeISt4pairIKNSt7__cxx1112basic_stringIcSt11char_traitsIcESaIcEEESt3setIS7_St4lessIS7_ESaIS7_EEEEEE9constructISE_JRKSt21piecewise_construct_tSt5tupleIJOS7_EESM_IJEEEEEvRSG_PT_DpOT0_ = comdat any

$_ZN9__gnu_cxx13new_allocatorISt13_Rb_tree_nodeISt4pairIKNSt7__cxx1112basic_stringIcSt11char_traitsIcESaIcEEESt3setIS8_St4lessIS8_ESaIS8_EEEEE9constructISF_JRKSt21piecewise_construct_tSt5tupleIJOS8_EESM_IJEEEEEvPT_DpOT0_ = comdat any

$_ZNSt5tupleIJONSt7__cxx1112basic_stringIcSt11char_traitsIcESaIcEEEEEC2EOS7_ = comdat any

$_ZNSt4pairIKNSt7__cxx1112basic_stringIcSt11char_traitsIcESaIcEEESt3setIS5_St4lessIS5_ESaIS5_EEEC2IJOS5_EJEEESt21piecewise_construct_tSt5tupleIJDpT_EESG_IJDpT0_EE = comdat any

$_ZNSt11_Tuple_implILm0EJONSt7__cxx1112basic_stringIcSt11char_traitsIcESaIcEEEEEC2EOS7_ = comdat any

$_ZSt7forwardIONSt7__cxx1112basic_stringIcSt11char_traitsIcESaIcEEEEOT_RNSt16remove_referenceIS7_E4typeE = comdat any

$_ZNSt11_Tuple_implILm0EJONSt7__cxx1112basic_stringIcSt11char_traitsIcESaIcEEEEE7_M_headERS7_ = comdat any

$_ZNSt10_Head_baseILm0EONSt7__cxx1112basic_stringIcSt11char_traitsIcESaIcEEELb0EEC2IS5_EEOT_ = comdat any

$_ZNSt10_Head_baseILm0EONSt7__cxx1112basic_stringIcSt11char_traitsIcESaIcEEELb0EE7_M_headERS7_ = comdat any

$_ZSt7forwardINSt7__cxx1112basic_stringIcSt11char_traitsIcESaIcEEEEOT_RNSt16remove_referenceIS6_E4typeE = comdat any

$_ZNSt4pairIKNSt7__cxx1112basic_stringIcSt11char_traitsIcESaIcEEESt3setIS5_St4lessIS5_ESaIS5_EEEC2IJOS5_EJLm0EEJEJEEERSt5tupleIJDpT_EERSF_IJDpT1_EESt12_Index_tupleIJXspT0_EEESO_IJXspT2_EEE = comdat any

$_ZSt3getILm0EJONSt7__cxx1112basic_stringIcSt11char_traitsIcESaIcEEEEERNSt13tuple_elementIXT_ESt5tupleIJDpT0_EEE4typeERSB_ = comdat any

$_ZNSt3setINSt7__cxx1112basic_stringIcSt11char_traitsIcESaIcEEESt4lessIS5_ESaIS5_EEC2Ev = comdat any

$_ZSt12__get_helperILm0EONSt7__cxx1112basic_stringIcSt11char_traitsIcESaIcEEEJEERT0_RSt11_Tuple_implIXT_EJS7_DpT1_EE = comdat any

$_ZNSt8_Rb_treeINSt7__cxx1112basic_stringIcSt11char_traitsIcESaIcEEES5_St9_IdentityIS5_ESt4lessIS5_ESaIS5_EEC2Ev = comdat any

$_ZNSt8_Rb_treeINSt7__cxx1112basic_stringIcSt11char_traitsIcESaIcEEES5_St9_IdentityIS5_ESt4lessIS5_ESaIS5_EE13_Rb_tree_implIS9_Lb1EEC2Ev = comdat any

$_ZNSaISt13_Rb_tree_nodeINSt7__cxx1112basic_stringIcSt11char_traitsIcESaIcEEEEEC2Ev = comdat any

$_ZNSt8_Rb_treeINSt7__cxx1112basic_stringIcSt11char_traitsIcESaIcEEES5_St9_IdentityIS5_ESt4lessIS5_ESaIS5_EE13_Rb_tree_implIS9_Lb1EE13_M_initializeEv = comdat any

$_ZN9__gnu_cxx13new_allocatorISt13_Rb_tree_nodeINSt7__cxx1112basic_stringIcSt11char_traitsIcESaIcEEEEEC2Ev = comdat any

$_ZNKSt23_Rb_tree_const_iteratorISt4pairIKNSt7__cxx1112basic_stringIcSt11char_traitsIcESaIcEEESt3setIS6_St4lessIS6_ESaIS6_EEEE13_M_const_castEv = comdat any

$_ZNKSt8_Rb_treeINSt7__cxx1112basic_stringIcSt11char_traitsIcESaIcEEESt4pairIKS5_St3setIS5_St4lessIS5_ESaIS5_EEESt10_Select1stISD_ESA_SaISD_EE4sizeEv = comdat any

$_ZNSt8_Rb_treeINSt7__cxx1112basic_stringIcSt11char_traitsIcESaIcEEESt4pairIKS5_St3setIS5_St4lessIS5_ESaIS5_EEESt10_Select1stISD_ESA_SaISD_EE6_S_keyEPKSt18_Rb_tree_node_base = comdat any

$_ZNSt8_Rb_treeINSt7__cxx1112basic_stringIcSt11char_traitsIcESaIcEEESt4pairIKS5_St3setIS5_St4lessIS5_ESaIS5_EEESt10_Select1stISD_ESA_SaISD_EE12_M_rightmostEv = comdat any

$_ZNSt4pairIPSt18_Rb_tree_node_baseS1_EC2IRS1_vEERKS1_OT_ = comdat any

$_ZNSt8_Rb_treeINSt7__cxx1112basic_stringIcSt11char_traitsIcESaIcEEESt4pairIKS5_St3setIS5_St4lessIS5_ESaIS5_EEESt10_Select1stISD_ESA_SaISD_EE24_M_get_insert_unique_posERS7_ = comdat any

$_ZNSt8_Rb_treeINSt7__cxx1112basic_stringIcSt11char_traitsIcESaIcEEESt4pairIKS5_St3setIS5_St4lessIS5_ESaIS5_EEESt10_Select1stISD_ESA_SaISD_EE11_M_leftmostEv = comdat any

$_ZNSt4pairIPSt18_Rb_tree_node_baseS1_EC2IRS1_S4_vEEOT_OT0_ = comdat any

$_ZNSt17_Rb_tree_iteratorISt4pairIKNSt7__cxx1112basic_stringIcSt11char_traitsIcESaIcEEESt3setIS6_St4lessIS6_ESaIS6_EEEEmmEv = comdat any

$_ZNSt17_Rb_tree_iteratorISt4pairIKNSt7__cxx1112basic_stringIcSt11char_traitsIcESaIcEEESt3setIS6_St4lessIS6_ESaIS6_EEEEppEv = comdat any

$_ZNSt4pairIPSt18_Rb_tree_node_baseS1_EC2IRS1_vEEOT_RKS1_ = comdat any

$_ZNSt8_Rb_treeINSt7__cxx1112basic_stringIcSt11char_traitsIcESaIcEEESt4pairIKS5_St3setIS5_St4lessIS5_ESaIS5_EEESt10_Select1stISD_ESA_SaISD_EE8_S_valueEPKSt18_Rb_tree_node_base = comdat any

$_ZSt7forwardIRPSt18_Rb_tree_node_baseEOT_RNSt16remove_referenceIS3_E4typeE = comdat any

$_ZNSt8_Rb_treeINSt7__cxx1112basic_stringIcSt11char_traitsIcESaIcEEESt4pairIKS5_St3setIS5_St4lessIS5_ESaIS5_EEESt10_Select1stISD_ESA_SaISD_EE5beginEv = comdat any

$_ZNSt4pairIPSt18_Rb_tree_node_baseS1_EC2IRPSt13_Rb_tree_nodeIS_IKNSt7__cxx1112basic_stringIcSt11char_traitsIcESaIcEEESt3setISA_St4lessISA_ESaISA_EEEESK_vEEOT_OT0_ = comdat any

$_ZSt7forwardIRPSt13_Rb_tree_nodeISt4pairIKNSt7__cxx1112basic_stringIcSt11char_traitsIcESaIcEEESt3setIS7_St4lessIS7_ESaIS7_EEEEEOT_RNSt16remove_referenceISI_E4typeE = comdat any

$_ZNSt5tupleIJONSt7__cxx1112basic_stringIcSt11char_traitsIcESaIcEEEEEC2IJS5_EvEEDpOT_ = comdat any

$_ZNSt11_Tuple_implILm0EJONSt7__cxx1112basic_stringIcSt11char_traitsIcESaIcEEEEEC2IS5_EEOT_ = comdat any

$_ZNSt8_Rb_treeINSt7__cxx1112basic_stringIcSt11char_traitsIcESaIcEEES5_St9_IdentityIS5_ESt4lessIS5_ESaIS5_EE17_M_emplace_uniqueIJS5_EEESt4pairISt17_Rb_tree_iteratorIS5_EbEDpOT_ = comdat any

$_ZNSt4pairISt23_Rb_tree_const_iteratorINSt7__cxx1112basic_stringIcSt11char_traitsIcESaIcEEEEbEC2ISt17_Rb_tree_iteratorIS6_EbvEEOS_IT_T0_E = comdat any

$_ZNSt8_Rb_treeINSt7__cxx1112basic_stringIcSt11char_traitsIcESaIcEEES5_St9_IdentityIS5_ESt4lessIS5_ESaIS5_EE14_M_create_nodeIJS5_EEEPSt13_Rb_tree_nodeIS5_EDpOT_ = comdat any

$_ZNSt8_Rb_treeINSt7__cxx1112basic_stringIcSt11char_traitsIcESaIcEEES5_St9_IdentityIS5_ESt4lessIS5_ESaIS5_EE24_M_get_insert_unique_posERKS5_ = comdat any

$_ZNSt8_Rb_treeINSt7__cxx1112basic_stringIcSt11char_traitsIcESaIcEEES5_St9_IdentityIS5_ESt4lessIS5_ESaIS5_EE6_S_keyEPKSt13_Rb_tree_nodeIS5_E = comdat any

$_ZNSt8_Rb_treeINSt7__cxx1112basic_stringIcSt11char_traitsIcESaIcEEES5_St9_IdentityIS5_ESt4lessIS5_ESaIS5_EE14_M_insert_nodeEPSt18_Rb_tree_node_baseSD_PSt13_Rb_tree_nodeIS5_E = comdat any

$_ZNSt4pairISt17_Rb_tree_iteratorINSt7__cxx1112basic_stringIcSt11char_traitsIcESaIcEEEEbEC2IS7_bvEEOT_OT0_ = comdat any

$_ZNSt17_Rb_tree_iteratorINSt7__cxx1112basic_stringIcSt11char_traitsIcESaIcEEEEC2EPSt18_Rb_tree_node_base = comdat any

$_ZNSt8_Rb_treeINSt7__cxx1112basic_stringIcSt11char_traitsIcESaIcEEES5_St9_IdentityIS5_ESt4lessIS5_ESaIS5_EE11_M_get_nodeEv = comdat any

$_ZNSt8_Rb_treeINSt7__cxx1112basic_stringIcSt11char_traitsIcESaIcEEES5_St9_IdentityIS5_ESt4lessIS5_ESaIS5_EE17_M_construct_nodeIJS5_EEEvPSt13_Rb_tree_nodeIS5_EDpOT_ = comdat any

$_ZNSt16allocator_traitsISaISt13_Rb_tree_nodeINSt7__cxx1112basic_stringIcSt11char_traitsIcESaIcEEEEEE8allocateERS8_m = comdat any

$_ZN9__gnu_cxx13new_allocatorISt13_Rb_tree_nodeINSt7__cxx1112basic_stringIcSt11char_traitsIcESaIcEEEEE8allocateEmPKv = comdat any

$_ZNK9__gnu_cxx13new_allocatorISt13_Rb_tree_nodeINSt7__cxx1112basic_stringIcSt11char_traitsIcESaIcEEEEE8max_sizeEv = comdat any

$_ZNSt16allocator_traitsISaISt13_Rb_tree_nodeINSt7__cxx1112basic_stringIcSt11char_traitsIcESaIcEEEEEE9constructIS6_JS6_EEEvRS8_PT_DpOT0_ = comdat any

$_ZN9__gnu_cxx13new_allocatorISt13_Rb_tree_nodeINSt7__cxx1112basic_stringIcSt11char_traitsIcESaIcEEEEE9constructIS7_JS7_EEEvPT_DpOT0_ = comdat any

$_ZNSt8_Rb_treeINSt7__cxx1112basic_stringIcSt11char_traitsIcESaIcEEES5_St9_IdentityIS5_ESt4lessIS5_ESaIS5_EE6_M_endEv = comdat any

$_ZNKSt17_Rb_tree_iteratorINSt7__cxx1112basic_stringIcSt11char_traitsIcESaIcEEEEeqERKS6_ = comdat any

$_ZNSt8_Rb_treeINSt7__cxx1112basic_stringIcSt11char_traitsIcESaIcEEES5_St9_IdentityIS5_ESt4lessIS5_ESaIS5_EE5beginEv = comdat any

$_ZNSt4pairIPSt18_Rb_tree_node_baseS1_EC2IRPSt13_Rb_tree_nodeINSt7__cxx1112basic_stringIcSt11char_traitsIcESaIcEEEESD_vEEOT_OT0_ = comdat any

$_ZNSt17_Rb_tree_iteratorINSt7__cxx1112basic_stringIcSt11char_traitsIcESaIcEEEEmmEv = comdat any

$_ZNSt8_Rb_treeINSt7__cxx1112basic_stringIcSt11char_traitsIcESaIcEEES5_St9_IdentityIS5_ESt4lessIS5_ESaIS5_EE6_S_keyEPKSt18_Rb_tree_node_base = comdat any

$_ZSt7forwardIRPSt13_Rb_tree_nodeINSt7__cxx1112basic_stringIcSt11char_traitsIcESaIcEEEEEOT_RNSt16remove_referenceISA_E4typeE = comdat any

$_ZNKSt9_IdentityINSt7__cxx1112basic_stringIcSt11char_traitsIcESaIcEEEEclERKS5_ = comdat any

$_ZNSt8_Rb_treeINSt7__cxx1112basic_stringIcSt11char_traitsIcESaIcEEES5_St9_IdentityIS5_ESt4lessIS5_ESaIS5_EE8_S_valueEPKSt18_Rb_tree_node_base = comdat any

$_ZNKSt13_Rb_tree_nodeINSt7__cxx1112basic_stringIcSt11char_traitsIcESaIcEEEE9_M_valptrEv = comdat any

$_ZNK9__gnu_cxx16__aligned_membufINSt7__cxx1112basic_stringIcSt11char_traitsIcESaIcEEEE6_M_ptrEv = comdat any

$_ZNK9__gnu_cxx16__aligned_membufINSt7__cxx1112basic_stringIcSt11char_traitsIcESaIcEEEE7_M_addrEv = comdat any

$_ZNSt8_Rb_treeINSt7__cxx1112basic_stringIcSt11char_traitsIcESaIcEEES5_St9_IdentityIS5_ESt4lessIS5_ESaIS5_EE8_S_valueEPKSt13_Rb_tree_nodeIS5_E = comdat any

$_ZSt7forwardISt17_Rb_tree_iteratorINSt7__cxx1112basic_stringIcSt11char_traitsIcESaIcEEEEEOT_RNSt16remove_referenceIS8_E4typeE = comdat any

$_ZSt7forwardIbEOT_RNSt16remove_referenceIS0_E4typeE = comdat any

$_ZNSt23_Rb_tree_const_iteratorINSt7__cxx1112basic_stringIcSt11char_traitsIcESaIcEEEEC2ERKSt17_Rb_tree_iteratorIS5_E = comdat any

$_ZNKSt8_Rb_treeINSt7__cxx1112basic_stringIcSt11char_traitsIcESaIcEEES5_St9_IdentityIS5_ESt4lessIS5_ESaIS5_EE4sizeEv = comdat any

@_ZStL8__ioinit = internal global %"class.std::ios_base::Init" zeroinitializer, align 1
@__dso_handle = external global i8
@_ZSt3cin = external global %"class.std::basic_istream", align 8
@_ZSt4cout = external global %"class.std::basic_ostream", align 8
@.str = private unnamed_addr constant [3 x i8] c"No\00", align 1
@.str.1 = private unnamed_addr constant [4 x i8] c"Yes\00", align 1
@_ZStL19piecewise_construct = internal constant %"struct.std::piecewise_construct_t" undef, align 1
@llvm.global_ctors = appending global [1 x { i32, void ()*, i8* }] [{ i32, void ()*, i8* } { i32 65535, void ()* @_GLOBAL__sub_I_s202939384.cpp, i8* null }]
@x = common global i32 0
@y = common global i32 0
@x.2 = common global i32 0
@y.3 = common global i32 0
@x.4 = common global i32 0
@y.5 = common global i32 0
@x.6 = common global i32 0
@y.7 = common global i32 0
@x.8 = common global i32 0
@y.9 = common global i32 0
@x.10 = common global i32 0
@y.11 = common global i32 0
@x.12 = common global i32 0
@y.13 = common global i32 0
@x.14 = common global i32 0
@y.15 = common global i32 0
@x.16 = common global i32 0
@y.17 = common global i32 0
@x.18 = common global i32 0
@y.19 = common global i32 0
@x.20 = common global i32 0
@y.21 = common global i32 0
@x.22 = common global i32 0
@y.23 = common global i32 0
@x.24 = common global i32 0
@y.25 = common global i32 0
@x.26 = common global i32 0
@y.27 = common global i32 0
@x.28 = common global i32 0
@y.29 = common global i32 0
@x.30 = common global i32 0
@y.31 = common global i32 0
@x.32 = common global i32 0
@y.33 = common global i32 0
@x.34 = common global i32 0
@y.35 = common global i32 0
@x.36 = common global i32 0
@y.37 = common global i32 0
@x.38 = common global i32 0
@y.39 = common global i32 0
@x.40 = common global i32 0
@y.41 = common global i32 0
@x.42 = common global i32 0
@y.43 = common global i32 0
@x.44 = common global i32 0
@y.45 = common global i32 0
@x.46 = common global i32 0
@y.47 = common global i32 0
@x.48 = common global i32 0
@y.49 = common global i32 0
@x.50 = common global i32 0
@y.51 = common global i32 0
@x.52 = common global i32 0
@y.53 = common global i32 0
@x.54 = common global i32 0
@y.55 = common global i32 0
@x.56 = common global i32 0
@y.57 = common global i32 0
@x.58 = common global i32 0
@y.59 = common global i32 0
@x.60 = common global i32 0
@y.61 = common global i32 0
@x.62 = common global i32 0
@y.63 = common global i32 0
@x.64 = common global i32 0
@y.65 = common global i32 0
@x.66 = common global i32 0
@y.67 = common global i32 0
@x.68 = common global i32 0
@y.69 = common global i32 0
@x.70 = common global i32 0
@y.71 = common global i32 0
@x.72 = common global i32 0
@y.73 = common global i32 0
@x.74 = common global i32 0
@y.75 = common global i32 0
@x.76 = common global i32 0
@y.77 = common global i32 0
@x.78 = common global i32 0
@y.79 = common global i32 0
@x.80 = common global i32 0
@y.81 = common global i32 0
@x.82 = common global i32 0
@y.83 = common global i32 0
@x.84 = common global i32 0
@y.85 = common global i32 0
@x.86 = common global i32 0
@y.87 = common global i32 0
@x.88 = common global i32 0
@y.89 = common global i32 0
@x.90 = common global i32 0
@y.91 = common global i32 0
@x.92 = common global i32 0
@y.93 = common global i32 0
@x.94 = common global i32 0
@y.95 = common global i32 0
@x.96 = common global i32 0
@y.97 = common global i32 0
@x.98 = common global i32 0
@y.99 = common global i32 0
@x.100 = common global i32 0
@y.101 = common global i32 0
@x.102 = common global i32 0
@y.103 = common global i32 0
@x.104 = common global i32 0
@y.105 = common global i32 0
@x.106 = common global i32 0
@y.107 = common global i32 0
@x.108 = common global i32 0
@y.109 = common global i32 0
@x.110 = common global i32 0
@y.111 = common global i32 0
@x.112 = common global i32 0
@y.113 = common global i32 0
@x.114 = common global i32 0
@y.115 = common global i32 0
@x.116 = common global i32 0
@y.117 = common global i32 0
@x.118 = common global i32 0
@y.119 = common global i32 0
@x.120 = common global i32 0
@y.121 = common global i32 0
@x.122 = common global i32 0
@y.123 = common global i32 0
@x.124 = common global i32 0
@y.125 = common global i32 0
@x.126 = common global i32 0
@y.127 = common global i32 0
@x.128 = common global i32 0
@y.129 = common global i32 0
@x.130 = common global i32 0
@y.131 = common global i32 0
@x.132 = common global i32 0
@y.133 = common global i32 0
@x.134 = common global i32 0
@y.135 = common global i32 0
@x.136 = common global i32 0
@y.137 = common global i32 0
@x.138 = common global i32 0
@y.139 = common global i32 0
@x.140 = common global i32 0
@y.141 = common global i32 0
@x.142 = common global i32 0
@y.143 = common global i32 0
@x.144 = common global i32 0
@y.145 = common global i32 0
@x.146 = common global i32 0
@y.147 = common global i32 0
@x.148 = common global i32 0
@y.149 = common global i32 0
@x.150 = common global i32 0
@y.151 = common global i32 0
@x.152 = common global i32 0
@y.153 = common global i32 0
@x.154 = common global i32 0
@y.155 = common global i32 0
@x.156 = common global i32 0
@y.157 = common global i32 0
@x.158 = common global i32 0
@y.159 = common global i32 0
@x.160 = common global i32 0
@y.161 = common global i32 0
@x.162 = common global i32 0
@y.163 = common global i32 0
@x.164 = common global i32 0
@y.165 = common global i32 0
@x.166 = common global i32 0
@y.167 = common global i32 0
@x.168 = common global i32 0
@y.169 = common global i32 0
@x.170 = common global i32 0
@y.171 = common global i32 0
@x.172 = common global i32 0
@y.173 = common global i32 0
@x.174 = common global i32 0
@y.175 = common global i32 0
@x.176 = common global i32 0
@y.177 = common global i32 0
@x.178 = common global i32 0
@y.179 = common global i32 0
@x.180 = common global i32 0
@y.181 = common global i32 0
@x.182 = common global i32 0
@y.183 = common global i32 0
@x.184 = common global i32 0
@y.185 = common global i32 0
@x.186 = common global i32 0
@y.187 = common global i32 0
@x.188 = common global i32 0
@y.189 = common global i32 0
@x.190 = common global i32 0
@y.191 = common global i32 0
@x.192 = common global i32 0
@y.193 = common global i32 0
@x.194 = common global i32 0
@y.195 = common global i32 0
@x.196 = common global i32 0
@y.197 = common global i32 0
@x.198 = common global i32 0
@y.199 = common global i32 0
@x.200 = common global i32 0
@y.201 = common global i32 0
@x.202 = common global i32 0
@y.203 = common global i32 0
@x.204 = common global i32 0
@y.205 = common global i32 0
@x.206 = common global i32 0
@y.207 = common global i32 0
@x.208 = common global i32 0
@y.209 = common global i32 0
@x.210 = common global i32 0
@y.211 = common global i32 0
@x.212 = common global i32 0
@y.213 = common global i32 0
@x.214 = common global i32 0
@y.215 = common global i32 0
@x.216 = common global i32 0
@y.217 = common global i32 0
@x.218 = common global i32 0
@y.219 = common global i32 0
@x.220 = common global i32 0
@y.221 = common global i32 0
@x.222 = common global i32 0
@y.223 = common global i32 0
@x.224 = common global i32 0
@y.225 = common global i32 0
@x.226 = common global i32 0
@y.227 = common global i32 0
@x.228 = common global i32 0
@y.229 = common global i32 0
@x.230 = common global i32 0
@y.231 = common global i32 0
@x.232 = common global i32 0
@y.233 = common global i32 0
@x.234 = common global i32 0
@y.235 = common global i32 0
@x.236 = common global i32 0
@y.237 = common global i32 0
@x.238 = common global i32 0
@y.239 = common global i32 0
@x.240 = common global i32 0
@y.241 = common global i32 0
@x.242 = common global i32 0
@y.243 = common global i32 0
@x.244 = common global i32 0
@y.245 = common global i32 0
@x.246 = common global i32 0
@y.247 = common global i32 0
@x.248 = common global i32 0
@y.249 = common global i32 0
@x.250 = common global i32 0
@y.251 = common global i32 0
@x.252 = common global i32 0
@y.253 = common global i32 0
@x.254 = common global i32 0
@y.255 = common global i32 0
@x.256 = common global i32 0
@y.257 = common global i32 0
@x.258 = common global i32 0
@y.259 = common global i32 0
@x.260 = common global i32 0
@y.261 = common global i32 0
@x.262 = common global i32 0
@y.263 = common global i32 0
@x.264 = common global i32 0
@y.265 = common global i32 0
@x.266 = common global i32 0
@y.267 = common global i32 0
@x.268 = common global i32 0
@y.269 = common global i32 0
@x.270 = common global i32 0
@y.271 = common global i32 0
@x.272 = common global i32 0
@y.273 = common global i32 0
@x.274 = common global i32 0
@y.275 = common global i32 0
@x.276 = common global i32 0
@y.277 = common global i32 0
@x.278 = common global i32 0
@y.279 = common global i32 0
@x.280 = common global i32 0
@y.281 = common global i32 0
@x.282 = common global i32 0
@y.283 = common global i32 0
@x.284 = common global i32 0
@y.285 = common global i32 0
@x.286 = common global i32 0
@y.287 = common global i32 0
@x.288 = common global i32 0
@y.289 = common global i32 0
@x.290 = common global i32 0
@y.291 = common global i32 0
@x.292 = common global i32 0
@y.293 = common global i32 0
@x.294 = common global i32 0
@y.295 = common global i32 0
@x.296 = common global i32 0
@y.297 = common global i32 0
@x.298 = common global i32 0
@y.299 = common global i32 0
@x.300 = common global i32 0
@y.301 = common global i32 0
@x.302 = common global i32 0
@y.303 = common global i32 0
@x.304 = common global i32 0
@y.305 = common global i32 0
@x.306 = common global i32 0
@y.307 = common global i32 0
@x.308 = common global i32 0
@y.309 = common global i32 0
@x.310 = common global i32 0
@y.311 = common global i32 0
@x.312 = common global i32 0
@y.313 = common global i32 0

; Function Attrs: noinline uwtable
define internal void @__cxx_global_var_init() #0 section ".text.startup" {
  call void @_ZNSt8ios_base4InitC1Ev(%"class.std::ios_base::Init"* @_ZStL8__ioinit)
  %1 = call i32 @__cxa_atexit(void (i8*)* bitcast (void (%"class.std::ios_base::Init"*)* @_ZNSt8ios_base4InitD1Ev to void (i8*)*), i8* getelementptr inbounds (%"class.std::ios_base::Init", %"class.std::ios_base::Init"* @_ZStL8__ioinit, i32 0, i32 0), i8* @__dso_handle) #3
  ret void
}

declare void @_ZNSt8ios_base4InitC1Ev(%"class.std::ios_base::Init"*) unnamed_addr #1

; Function Attrs: nounwind
declare void @_ZNSt8ios_base4InitD1Ev(%"class.std::ios_base::Init"*) unnamed_addr #2

; Function Attrs: nounwind
declare i32 @__cxa_atexit(void (i8*)*, i8*, i8*) #3

; Function Attrs: noinline norecurse uwtable
define i32 @main() #4 personality i8* bitcast (i32 (...)* @__gxx_personality_v0 to i8*) {
  %1 = load i32, i32* @x.2
  %2 = load i32, i32* @y.3
  %3 = sub i32 %1, 1
  %4 = mul i32 %1, %3
  %5 = urem i32 %4, 2
  %6 = icmp eq i32 %5, 0
  %7 = icmp slt i32 %2, 10
  %8 = or i1 %6, %7
  br i1 %8, label %9, label %383

; <label>:9:                                      ; preds = %0, %383
  %10 = alloca i32, align 4
  %11 = alloca %"class.std::__cxx11::basic_string", align 8
  %12 = alloca %"class.std::__cxx11::basic_string", align 8
  %13 = alloca i8*
  %14 = alloca i32
  %15 = alloca i32, align 4
  %16 = alloca %"class.std::map", align 8
  %17 = alloca %"class.std::map", align 8
  %18 = alloca i32, align 4
  %19 = alloca %"class.std::__cxx11::basic_string", align 8
  %20 = alloca %"class.std::__cxx11::basic_string", align 8
  %21 = alloca %"struct.std::pair", align 8
  %22 = alloca %"class.std::__cxx11::basic_string", align 8
  %23 = alloca i32
  %24 = alloca i32, align 4
  %25 = alloca %"class.std::__cxx11::basic_string", align 8
  %26 = alloca %"class.std::__cxx11::basic_string", align 8
  %27 = alloca %"struct.std::pair", align 8
  %28 = alloca %"class.std::__cxx11::basic_string", align 8
  store i32 0, i32* %10, align 4
  call void @_ZNSt7__cxx1112basic_stringIcSt11char_traitsIcESaIcEEC1Ev(%"class.std::__cxx11::basic_string"* %11) #3
  call void @_ZNSt7__cxx1112basic_stringIcSt11char_traitsIcESaIcEEC1Ev(%"class.std::__cxx11::basic_string"* %12) #3
  %29 = load i32, i32* @x.2
  %30 = load i32, i32* @y.3
  %31 = sub i32 %29, 1
  %32 = mul i32 %29, %31
  %33 = urem i32 %32, 2
  %34 = icmp eq i32 %33, 0
  %35 = icmp slt i32 %30, 10
  %36 = or i1 %34, %35
  br i1 %36, label %37, label %383

; <label>:37:                                     ; preds = %9
  %38 = invoke dereferenceable(280) %"class.std::basic_istream"* @_ZStrsIcSt11char_traitsIcESaIcEERSt13basic_istreamIT_T0_ES7_RNSt7__cxx1112basic_stringIS4_S5_T1_EE(%"class.std::basic_istream"* dereferenceable(280) @_ZSt3cin, %"class.std::__cxx11::basic_string"* dereferenceable(32) %11)
          to label %39 unwind label %149

; <label>:39:                                     ; preds = %37
  %40 = invoke dereferenceable(280) %"class.std::basic_istream"* @_ZStrsIcSt11char_traitsIcESaIcEERSt13basic_istreamIT_T0_ES7_RNSt7__cxx1112basic_stringIS4_S5_T1_EE(%"class.std::basic_istream"* dereferenceable(280) %38, %"class.std::__cxx11::basic_string"* dereferenceable(32) %12)
          to label %41 unwind label %149

; <label>:41:                                     ; preds = %39
  %42 = call i64 @_ZNKSt7__cxx1112basic_stringIcSt11char_traitsIcESaIcEE4sizeEv(%"class.std::__cxx11::basic_string"* %11) #3
  %43 = trunc i64 %42 to i32
  store i32 %43, i32* %15, align 4
  call void @_ZNSt3mapINSt7__cxx1112basic_stringIcSt11char_traitsIcESaIcEEESt3setIS5_St4lessIS5_ESaIS5_EES8_SaISt4pairIKS5_SA_EEEC2Ev(%"class.std::map"* %16) #3
  call void @_ZNSt3mapINSt7__cxx1112basic_stringIcSt11char_traitsIcESaIcEEESt3setIS5_St4lessIS5_ESaIS5_EES8_SaISt4pairIKS5_SA_EEEC2Ev(%"class.std::map"* %17) #3
  store i32 0, i32* %18, align 4
  br label %44

; <label>:44:                                     ; preds = %189, %41
  %45 = load i32, i32* @x.2
  %46 = load i32, i32* @y.3
  %47 = sub i32 %45, 1
  %48 = mul i32 %45, %47
  %49 = urem i32 %48, 2
  %50 = icmp eq i32 %49, 0
  %51 = icmp slt i32 %46, 10
  %52 = or i1 %50, %51
  br i1 %52, label %53, label %403

; <label>:53:                                     ; preds = %44, %403
  %54 = load i32, i32* %18, align 4
  %55 = load i32, i32* %15, align 4
  %56 = icmp slt i32 %54, %55
  %57 = load i32, i32* @x.2
  %58 = load i32, i32* @y.3
  %59 = sub i32 %57, 1
  %60 = mul i32 %57, %59
  %61 = urem i32 %60, 2
  %62 = icmp eq i32 %61, 0
  %63 = icmp slt i32 %58, 10
  %64 = or i1 %62, %63
  br i1 %64, label %65, label %403

; <label>:65:                                     ; preds = %53
  br i1 %56, label %66, label %192

; <label>:66:                                     ; preds = %65
  %67 = load i32, i32* @x.2
  %68 = load i32, i32* @y.3
  %69 = sub i32 %67, 1
  %70 = mul i32 %67, %69
  %71 = urem i32 %70, 2
  %72 = icmp eq i32 %71, 0
  %73 = icmp slt i32 %68, 10
  %74 = or i1 %72, %73
  br i1 %74, label %75, label %407

; <label>:75:                                     ; preds = %66, %407
  %76 = load i32, i32* %18, align 4
  %77 = sext i32 %76 to i64
  %78 = load i32, i32* @x.2
  %79 = load i32, i32* @y.3
  %80 = sub i32 %78, 1
  %81 = mul i32 %78, %80
  %82 = urem i32 %81, 2
  %83 = icmp eq i32 %82, 0
  %84 = icmp slt i32 %79, 10
  %85 = or i1 %83, %84
  br i1 %85, label %86, label %407

; <label>:86:                                     ; preds = %75
  invoke void @_ZNKSt7__cxx1112basic_stringIcSt11char_traitsIcESaIcEE6substrEmm(%"class.std::__cxx11::basic_string"* sret %19, %"class.std::__cxx11::basic_string"* %11, i64 %77, i64 1)
          to label %87 unwind label %153

; <label>:87:                                     ; preds = %86
  %88 = invoke dereferenceable(48) %"class.std::set"* @_ZNSt3mapINSt7__cxx1112basic_stringIcSt11char_traitsIcESaIcEEESt3setIS5_St4lessIS5_ESaIS5_EES8_SaISt4pairIKS5_SA_EEEixEOS5_(%"class.std::map"* %16, %"class.std::__cxx11::basic_string"* dereferenceable(32) %19)
          to label %89 unwind label %157

; <label>:89:                                     ; preds = %87
  %90 = load i32, i32* %18, align 4
  %91 = sext i32 %90 to i64
  invoke void @_ZNKSt7__cxx1112basic_stringIcSt11char_traitsIcESaIcEE6substrEmm(%"class.std::__cxx11::basic_string"* sret %20, %"class.std::__cxx11::basic_string"* %12, i64 %91, i64 1)
          to label %92 unwind label %157

; <label>:92:                                     ; preds = %89
  %93 = invoke { %"struct.std::_Rb_tree_node_base"*, i8 } @_ZNSt3setINSt7__cxx1112basic_stringIcSt11char_traitsIcESaIcEEESt4lessIS5_ESaIS5_EE7emplaceIJS5_EEESt4pairISt23_Rb_tree_const_iteratorIS5_EbEDpOT_(%"class.std::set"* %88, %"class.std::__cxx11::basic_string"* dereferenceable(32) %20)
          to label %94 unwind label %161

; <label>:94:                                     ; preds = %92
  %95 = bitcast %"struct.std::pair"* %21 to { %"struct.std::_Rb_tree_node_base"*, i8 }*
  %96 = getelementptr inbounds { %"struct.std::_Rb_tree_node_base"*, i8 }, { %"struct.std::_Rb_tree_node_base"*, i8 }* %95, i32 0, i32 0
  %97 = extractvalue { %"struct.std::_Rb_tree_node_base"*, i8 } %93, 0
  store %"struct.std::_Rb_tree_node_base"* %97, %"struct.std::_Rb_tree_node_base"** %96, align 8
  %98 = getelementptr inbounds { %"struct.std::_Rb_tree_node_base"*, i8 }, { %"struct.std::_Rb_tree_node_base"*, i8 }* %95, i32 0, i32 1
  %99 = extractvalue { %"struct.std::_Rb_tree_node_base"*, i8 } %93, 1
  store i8 %99, i8* %98, align 8
  call void @_ZNSt7__cxx1112basic_stringIcSt11char_traitsIcESaIcEED1Ev(%"class.std::__cxx11::basic_string"* %20) #3
  call void @_ZNSt7__cxx1112basic_stringIcSt11char_traitsIcESaIcEED1Ev(%"class.std::__cxx11::basic_string"* %19) #3
  %100 = load i32, i32* %18, align 4
  %101 = sext i32 %100 to i64
  invoke void @_ZNKSt7__cxx1112basic_stringIcSt11char_traitsIcESaIcEE6substrEmm(%"class.std::__cxx11::basic_string"* sret %22, %"class.std::__cxx11::basic_string"* %11, i64 %101, i64 1)
          to label %102 unwind label %153

; <label>:102:                                    ; preds = %94
  %103 = invoke dereferenceable(48) %"class.std::set"* @_ZNSt3mapINSt7__cxx1112basic_stringIcSt11char_traitsIcESaIcEEESt3setIS5_St4lessIS5_ESaIS5_EES8_SaISt4pairIKS5_SA_EEEixEOS5_(%"class.std::map"* %16, %"class.std::__cxx11::basic_string"* dereferenceable(32) %22)
          to label %104 unwind label %166

; <label>:104:                                    ; preds = %102
  %105 = load i32, i32* @x.2
  %106 = load i32, i32* @y.3
  %107 = sub i32 %105, 1
  %108 = mul i32 %105, %107
  %109 = urem i32 %108, 2
  %110 = icmp eq i32 %109, 0
  %111 = icmp slt i32 %106, 10
  %112 = or i1 %110, %111
  br i1 %112, label %113, label %410

; <label>:113:                                    ; preds = %104, %410
  %114 = call i64 @_ZNKSt3setINSt7__cxx1112basic_stringIcSt11char_traitsIcESaIcEEESt4lessIS5_ESaIS5_EE4sizeEv(%"class.std::set"* %103) #3
  %115 = trunc i64 %114 to i32
  %116 = icmp sge i32 %115, 2
  call void @_ZNSt7__cxx1112basic_stringIcSt11char_traitsIcESaIcEED1Ev(%"class.std::__cxx11::basic_string"* %22) #3
  %117 = load i32, i32* @x.2
  %118 = load i32, i32* @y.3
  %119 = sub i32 %117, 1
  %120 = mul i32 %117, %119
  %121 = urem i32 %120, 2
  %122 = icmp eq i32 %121, 0
  %123 = icmp slt i32 %118, 10
  %124 = or i1 %122, %123
  br i1 %124, label %125, label %410

; <label>:125:                                    ; preds = %113
  br i1 %116, label %126, label %188

; <label>:126:                                    ; preds = %125
  %127 = invoke dereferenceable(272) %"class.std::basic_ostream"* @_ZStlsISt11char_traitsIcEERSt13basic_ostreamIcT_ES5_PKc(%"class.std::basic_ostream"* dereferenceable(272) @_ZSt4cout, i8* getelementptr inbounds ([3 x i8], [3 x i8]* @.str, i32 0, i32 0))
          to label %128 unwind label %153

; <label>:128:                                    ; preds = %126
  %129 = load i32, i32* @x.2
  %130 = load i32, i32* @y.3
  %131 = sub i32 %129, 1
  %132 = mul i32 %129, %131
  %133 = urem i32 %132, 2
  %134 = icmp eq i32 %133, 0
  %135 = icmp slt i32 %130, 10
  %136 = or i1 %134, %135
  br i1 %136, label %137, label %414

; <label>:137:                                    ; preds = %128, %414
  %138 = load i32, i32* @x.2
  %139 = load i32, i32* @y.3
  %140 = sub i32 %138, 1
  %141 = mul i32 %138, %140
  %142 = urem i32 %141, 2
  %143 = icmp eq i32 %142, 0
  %144 = icmp slt i32 %139, 10
  %145 = or i1 %143, %144
  br i1 %145, label %146, label %414

; <label>:146:                                    ; preds = %137
  %147 = invoke dereferenceable(272) %"class.std::basic_ostream"* @_ZNSolsEPFRSoS_E(%"class.std::basic_ostream"* %127, %"class.std::basic_ostream"* (%"class.std::basic_ostream"*)* @_ZSt4endlIcSt11char_traitsIcEERSt13basic_ostreamIT_T0_ES6_)
          to label %148 unwind label %153

; <label>:148:                                    ; preds = %146
  store i32 0, i32* %10, align 4
  store i32 1, i32* %23, align 4
  br label %356

; <label>:149:                                    ; preds = %39, %37
  %150 = landingpad { i8*, i32 }
          cleanup
  %151 = extractvalue { i8*, i32 } %150, 0
  store i8* %151, i8** %13, align 8
  %152 = extractvalue { i8*, i32 } %150, 1
  store i32 %152, i32* %14, align 4
  br label %359

; <label>:153:                                    ; preds = %353, %351, %295, %275, %243, %215, %146, %126, %94, %86
  %154 = landingpad { i8*, i32 }
          cleanup
  %155 = extractvalue { i8*, i32 } %154, 0
  store i8* %155, i8** %13, align 8
  %156 = extractvalue { i8*, i32 } %154, 1
  store i32 %156, i32* %14, align 4
  br label %358

; <label>:157:                                    ; preds = %89, %87
  %158 = landingpad { i8*, i32 }
          cleanup
  %159 = extractvalue { i8*, i32 } %158, 0
  store i8* %159, i8** %13, align 8
  %160 = extractvalue { i8*, i32 } %158, 1
  store i32 %160, i32* %14, align 4
  br label %165

; <label>:161:                                    ; preds = %92
  %162 = landingpad { i8*, i32 }
          cleanup
  %163 = extractvalue { i8*, i32 } %162, 0
  store i8* %163, i8** %13, align 8
  %164 = extractvalue { i8*, i32 } %162, 1
  store i32 %164, i32* %14, align 4
  call void @_ZNSt7__cxx1112basic_stringIcSt11char_traitsIcESaIcEED1Ev(%"class.std::__cxx11::basic_string"* %20) #3
  br label %165

; <label>:165:                                    ; preds = %161, %157
  call void @_ZNSt7__cxx1112basic_stringIcSt11char_traitsIcESaIcEED1Ev(%"class.std::__cxx11::basic_string"* %19) #3
  br label %358

; <label>:166:                                    ; preds = %102
  %167 = load i32, i32* @x.2
  %168 = load i32, i32* @y.3
  %169 = sub i32 %167, 1
  %170 = mul i32 %167, %169
  %171 = urem i32 %170, 2
  %172 = icmp eq i32 %171, 0
  %173 = icmp slt i32 %168, 10
  %174 = or i1 %172, %173
  br i1 %174, label %175, label %415

; <label>:175:                                    ; preds = %166, %415
  %176 = landingpad { i8*, i32 }
          cleanup
  %177 = extractvalue { i8*, i32 } %176, 0
  store i8* %177, i8** %13, align 8
  %178 = extractvalue { i8*, i32 } %176, 1
  store i32 %178, i32* %14, align 4
  call void @_ZNSt7__cxx1112basic_stringIcSt11char_traitsIcESaIcEED1Ev(%"class.std::__cxx11::basic_string"* %22) #3
  %179 = load i32, i32* @x.2
  %180 = load i32, i32* @y.3
  %181 = sub i32 %179, 1
  %182 = mul i32 %179, %181
  %183 = urem i32 %182, 2
  %184 = icmp eq i32 %183, 0
  %185 = icmp slt i32 %180, 10
  %186 = or i1 %184, %185
  br i1 %186, label %187, label %415

; <label>:187:                                    ; preds = %175
  br label %358

; <label>:188:                                    ; preds = %125
  br label %189

; <label>:189:                                    ; preds = %188
  %190 = load i32, i32* %18, align 4
  %191 = add nsw i32 %190, 1
  store i32 %191, i32* %18, align 4
  br label %44

; <label>:192:                                    ; preds = %65
  %193 = load i32, i32* @x.2
  %194 = load i32, i32* @y.3
  %195 = sub i32 %193, 1
  %196 = mul i32 %193, %195
  %197 = urem i32 %196, 2
  %198 = icmp eq i32 %197, 0
  %199 = icmp slt i32 %194, 10
  %200 = or i1 %198, %199
  br i1 %200, label %201, label %419

; <label>:201:                                    ; preds = %192, %419
  store i32 0, i32* %24, align 4
  %202 = load i32, i32* @x.2
  %203 = load i32, i32* @y.3
  %204 = sub i32 %202, 1
  %205 = mul i32 %202, %204
  %206 = urem i32 %205, 2
  %207 = icmp eq i32 %206, 0
  %208 = icmp slt i32 %203, 10
  %209 = or i1 %207, %208
  br i1 %209, label %210, label %419

; <label>:210:                                    ; preds = %201
  br label %211

; <label>:211:                                    ; preds = %332, %210
  %212 = load i32, i32* %24, align 4
  %213 = load i32, i32* %15, align 4
  %214 = icmp slt i32 %212, %213
  br i1 %214, label %215, label %333

; <label>:215:                                    ; preds = %211
  %216 = load i32, i32* %24, align 4
  %217 = sext i32 %216 to i64
  invoke void @_ZNKSt7__cxx1112basic_stringIcSt11char_traitsIcESaIcEE6substrEmm(%"class.std::__cxx11::basic_string"* sret %25, %"class.std::__cxx11::basic_string"* %12, i64 %217, i64 1)
          to label %218 unwind label %153

; <label>:218:                                    ; preds = %215
  %219 = load i32, i32* @x.2
  %220 = load i32, i32* @y.3
  %221 = sub i32 %219, 1
  %222 = mul i32 %219, %221
  %223 = urem i32 %222, 2
  %224 = icmp eq i32 %223, 0
  %225 = icmp slt i32 %220, 10
  %226 = or i1 %224, %225
  br i1 %226, label %227, label %420

; <label>:227:                                    ; preds = %218, %420
  %228 = load i32, i32* @x.2
  %229 = load i32, i32* @y.3
  %230 = sub i32 %228, 1
  %231 = mul i32 %228, %230
  %232 = urem i32 %231, 2
  %233 = icmp eq i32 %232, 0
  %234 = icmp slt i32 %229, 10
  %235 = or i1 %233, %234
  br i1 %235, label %236, label %420

; <label>:236:                                    ; preds = %227
  %237 = invoke dereferenceable(48) %"class.std::set"* @_ZNSt3mapINSt7__cxx1112basic_stringIcSt11char_traitsIcESaIcEEESt3setIS5_St4lessIS5_ESaIS5_EES8_SaISt4pairIKS5_SA_EEEixEOS5_(%"class.std::map"* %17, %"class.std::__cxx11::basic_string"* dereferenceable(32) %25)
          to label %238 unwind label %298

; <label>:238:                                    ; preds = %236
  %239 = load i32, i32* %24, align 4
  %240 = sext i32 %239 to i64
  invoke void @_ZNKSt7__cxx1112basic_stringIcSt11char_traitsIcESaIcEE6substrEmm(%"class.std::__cxx11::basic_string"* sret %26, %"class.std::__cxx11::basic_string"* %11, i64 %240, i64 1)
          to label %241 unwind label %298

; <label>:241:                                    ; preds = %238
  %242 = invoke { %"struct.std::_Rb_tree_node_base"*, i8 } @_ZNSt3setINSt7__cxx1112basic_stringIcSt11char_traitsIcESaIcEEESt4lessIS5_ESaIS5_EE7emplaceIJS5_EEESt4pairISt23_Rb_tree_const_iteratorIS5_EbEDpOT_(%"class.std::set"* %237, %"class.std::__cxx11::basic_string"* dereferenceable(32) %26)
          to label %243 unwind label %302

; <label>:243:                                    ; preds = %241
  %244 = bitcast %"struct.std::pair"* %27 to { %"struct.std::_Rb_tree_node_base"*, i8 }*
  %245 = getelementptr inbounds { %"struct.std::_Rb_tree_node_base"*, i8 }, { %"struct.std::_Rb_tree_node_base"*, i8 }* %244, i32 0, i32 0
  %246 = extractvalue { %"struct.std::_Rb_tree_node_base"*, i8 } %242, 0
  store %"struct.std::_Rb_tree_node_base"* %246, %"struct.std::_Rb_tree_node_base"** %245, align 8
  %247 = getelementptr inbounds { %"struct.std::_Rb_tree_node_base"*, i8 }, { %"struct.std::_Rb_tree_node_base"*, i8 }* %244, i32 0, i32 1
  %248 = extractvalue { %"struct.std::_Rb_tree_node_base"*, i8 } %242, 1
  store i8 %248, i8* %247, align 8
  call void @_ZNSt7__cxx1112basic_stringIcSt11char_traitsIcESaIcEED1Ev(%"class.std::__cxx11::basic_string"* %26) #3
  call void @_ZNSt7__cxx1112basic_stringIcSt11char_traitsIcESaIcEED1Ev(%"class.std::__cxx11::basic_string"* %25) #3
  %249 = load i32, i32* %24, align 4
  %250 = sext i32 %249 to i64
  invoke void @_ZNKSt7__cxx1112basic_stringIcSt11char_traitsIcESaIcEE6substrEmm(%"class.std::__cxx11::basic_string"* sret %28, %"class.std::__cxx11::basic_string"* %12, i64 %250, i64 1)
          to label %251 unwind label %153

; <label>:251:                                    ; preds = %243
  %252 = invoke dereferenceable(48) %"class.std::set"* @_ZNSt3mapINSt7__cxx1112basic_stringIcSt11char_traitsIcESaIcEEESt3setIS5_St4lessIS5_ESaIS5_EES8_SaISt4pairIKS5_SA_EEEixEOS5_(%"class.std::map"* %17, %"class.std::__cxx11::basic_string"* dereferenceable(32) %28)
          to label %253 unwind label %307

; <label>:253:                                    ; preds = %251
  %254 = load i32, i32* @x.2
  %255 = load i32, i32* @y.3
  %256 = sub i32 %254, 1
  %257 = mul i32 %254, %256
  %258 = urem i32 %257, 2
  %259 = icmp eq i32 %258, 0
  %260 = icmp slt i32 %255, 10
  %261 = or i1 %259, %260
  br i1 %261, label %262, label %421

; <label>:262:                                    ; preds = %253, %421
  %263 = call i64 @_ZNKSt3setINSt7__cxx1112basic_stringIcSt11char_traitsIcESaIcEEESt4lessIS5_ESaIS5_EE4sizeEv(%"class.std::set"* %252) #3
  %264 = trunc i64 %263 to i32
  %265 = icmp sge i32 %264, 2
  call void @_ZNSt7__cxx1112basic_stringIcSt11char_traitsIcESaIcEED1Ev(%"class.std::__cxx11::basic_string"* %28) #3
  %266 = load i32, i32* @x.2
  %267 = load i32, i32* @y.3
  %268 = sub i32 %266, 1
  %269 = mul i32 %266, %268
  %270 = urem i32 %269, 2
  %271 = icmp eq i32 %270, 0
  %272 = icmp slt i32 %267, 10
  %273 = or i1 %271, %272
  br i1 %273, label %274, label %421

; <label>:274:                                    ; preds = %262
  br i1 %265, label %275, label %311

; <label>:275:                                    ; preds = %274
  %276 = invoke dereferenceable(272) %"class.std::basic_ostream"* @_ZStlsISt11char_traitsIcEERSt13basic_ostreamIcT_ES5_PKc(%"class.std::basic_ostream"* dereferenceable(272) @_ZSt4cout, i8* getelementptr inbounds ([3 x i8], [3 x i8]* @.str, i32 0, i32 0))
          to label %277 unwind label %153

; <label>:277:                                    ; preds = %275
  %278 = load i32, i32* @x.2
  %279 = load i32, i32* @y.3
  %280 = sub i32 %278, 1
  %281 = mul i32 %278, %280
  %282 = urem i32 %281, 2
  %283 = icmp eq i32 %282, 0
  %284 = icmp slt i32 %279, 10
  %285 = or i1 %283, %284
  br i1 %285, label %286, label %425

; <label>:286:                                    ; preds = %277, %425
  %287 = load i32, i32* @x.2
  %288 = load i32, i32* @y.3
  %289 = sub i32 %287, 1
  %290 = mul i32 %287, %289
  %291 = urem i32 %290, 2
  %292 = icmp eq i32 %291, 0
  %293 = icmp slt i32 %288, 10
  %294 = or i1 %292, %293
  br i1 %294, label %295, label %425

; <label>:295:                                    ; preds = %286
  %296 = invoke dereferenceable(272) %"class.std::basic_ostream"* @_ZNSolsEPFRSoS_E(%"class.std::basic_ostream"* %276, %"class.std::basic_ostream"* (%"class.std::basic_ostream"*)* @_ZSt4endlIcSt11char_traitsIcEERSt13basic_ostreamIT_T0_ES6_)
          to label %297 unwind label %153

; <label>:297:                                    ; preds = %295
  store i32 0, i32* %10, align 4
  store i32 1, i32* %23, align 4
  br label %356

; <label>:298:                                    ; preds = %238, %236
  %299 = landingpad { i8*, i32 }
          cleanup
  %300 = extractvalue { i8*, i32 } %299, 0
  store i8* %300, i8** %13, align 8
  %301 = extractvalue { i8*, i32 } %299, 1
  store i32 %301, i32* %14, align 4
  br label %306

; <label>:302:                                    ; preds = %241
  %303 = landingpad { i8*, i32 }
          cleanup
  %304 = extractvalue { i8*, i32 } %303, 0
  store i8* %304, i8** %13, align 8
  %305 = extractvalue { i8*, i32 } %303, 1
  store i32 %305, i32* %14, align 4
  call void @_ZNSt7__cxx1112basic_stringIcSt11char_traitsIcESaIcEED1Ev(%"class.std::__cxx11::basic_string"* %26) #3
  br label %306

; <label>:306:                                    ; preds = %302, %298
  call void @_ZNSt7__cxx1112basic_stringIcSt11char_traitsIcESaIcEED1Ev(%"class.std::__cxx11::basic_string"* %25) #3
  br label %358

; <label>:307:                                    ; preds = %251
  %308 = landingpad { i8*, i32 }
          cleanup
  %309 = extractvalue { i8*, i32 } %308, 0
  store i8* %309, i8** %13, align 8
  %310 = extractvalue { i8*, i32 } %308, 1
  store i32 %310, i32* %14, align 4
  call void @_ZNSt7__cxx1112basic_stringIcSt11char_traitsIcESaIcEED1Ev(%"class.std::__cxx11::basic_string"* %28) #3
  br label %358

; <label>:311:                                    ; preds = %274
  br label %312

; <label>:312:                                    ; preds = %311
  %313 = load i32, i32* @x.2
  %314 = load i32, i32* @y.3
  %315 = sub i32 %313, 1
  %316 = mul i32 %313, %315
  %317 = urem i32 %316, 2
  %318 = icmp eq i32 %317, 0
  %319 = icmp slt i32 %314, 10
  %320 = or i1 %318, %319
  br i1 %320, label %321, label %426

; <label>:321:                                    ; preds = %312, %426
  %322 = load i32, i32* %24, align 4
  %323 = add nsw i32 %322, 1
  store i32 %323, i32* %24, align 4
  %324 = load i32, i32* @x.2
  %325 = load i32, i32* @y.3
  %326 = sub i32 %324, 1
  %327 = mul i32 %324, %326
  %328 = urem i32 %327, 2
  %329 = icmp eq i32 %328, 0
  %330 = icmp slt i32 %325, 10
  %331 = or i1 %329, %330
  br i1 %331, label %332, label %426

; <label>:332:                                    ; preds = %321
  br label %211

; <label>:333:                                    ; preds = %211
  %334 = load i32, i32* @x.2
  %335 = load i32, i32* @y.3
  %336 = sub i32 %334, 1
  %337 = mul i32 %334, %336
  %338 = urem i32 %337, 2
  %339 = icmp eq i32 %338, 0
  %340 = icmp slt i32 %335, 10
  %341 = or i1 %339, %340
  br i1 %341, label %342, label %440

; <label>:342:                                    ; preds = %333, %440
  %343 = load i32, i32* @x.2
  %344 = load i32, i32* @y.3
  %345 = sub i32 %343, 1
  %346 = mul i32 %343, %345
  %347 = urem i32 %346, 2
  %348 = icmp eq i32 %347, 0
  %349 = icmp slt i32 %344, 10
  %350 = or i1 %348, %349
  br i1 %350, label %351, label %440

; <label>:351:                                    ; preds = %342
  %352 = invoke dereferenceable(272) %"class.std::basic_ostream"* @_ZStlsISt11char_traitsIcEERSt13basic_ostreamIcT_ES5_PKc(%"class.std::basic_ostream"* dereferenceable(272) @_ZSt4cout, i8* getelementptr inbounds ([4 x i8], [4 x i8]* @.str.1, i32 0, i32 0))
          to label %353 unwind label %153

; <label>:353:                                    ; preds = %351
  %354 = invoke dereferenceable(272) %"class.std::basic_ostream"* @_ZNSolsEPFRSoS_E(%"class.std::basic_ostream"* %352, %"class.std::basic_ostream"* (%"class.std::basic_ostream"*)* @_ZSt4endlIcSt11char_traitsIcEERSt13basic_ostreamIT_T0_ES6_)
          to label %355 unwind label %153

; <label>:355:                                    ; preds = %353
  store i32 0, i32* %10, align 4
  store i32 1, i32* %23, align 4
  br label %356

; <label>:356:                                    ; preds = %355, %297, %148
  call void @_ZNSt3mapINSt7__cxx1112basic_stringIcSt11char_traitsIcESaIcEEESt3setIS5_St4lessIS5_ESaIS5_EES8_SaISt4pairIKS5_SA_EEED2Ev(%"class.std::map"* %17) #3
  call void @_ZNSt3mapINSt7__cxx1112basic_stringIcSt11char_traitsIcESaIcEEESt3setIS5_St4lessIS5_ESaIS5_EES8_SaISt4pairIKS5_SA_EEED2Ev(%"class.std::map"* %16) #3
  call void @_ZNSt7__cxx1112basic_stringIcSt11char_traitsIcESaIcEED1Ev(%"class.std::__cxx11::basic_string"* %12) #3
  call void @_ZNSt7__cxx1112basic_stringIcSt11char_traitsIcESaIcEED1Ev(%"class.std::__cxx11::basic_string"* %11) #3
  %357 = load i32, i32* %10, align 4
  ret i32 %357

; <label>:358:                                    ; preds = %307, %306, %187, %165, %153
  call void @_ZNSt3mapINSt7__cxx1112basic_stringIcSt11char_traitsIcESaIcEEESt3setIS5_St4lessIS5_ESaIS5_EES8_SaISt4pairIKS5_SA_EEED2Ev(%"class.std::map"* %17) #3
  call void @_ZNSt3mapINSt7__cxx1112basic_stringIcSt11char_traitsIcESaIcEEESt3setIS5_St4lessIS5_ESaIS5_EES8_SaISt4pairIKS5_SA_EEED2Ev(%"class.std::map"* %16) #3
  br label %359

; <label>:359:                                    ; preds = %358, %149
  %360 = load i32, i32* @x.2
  %361 = load i32, i32* @y.3
  %362 = sub i32 %360, 1
  %363 = mul i32 %360, %362
  %364 = urem i32 %363, 2
  %365 = icmp eq i32 %364, 0
  %366 = icmp slt i32 %361, 10
  %367 = or i1 %365, %366
  br i1 %367, label %368, label %441

; <label>:368:                                    ; preds = %359, %441
  call void @_ZNSt7__cxx1112basic_stringIcSt11char_traitsIcESaIcEED1Ev(%"class.std::__cxx11::basic_string"* %12) #3
  call void @_ZNSt7__cxx1112basic_stringIcSt11char_traitsIcESaIcEED1Ev(%"class.std::__cxx11::basic_string"* %11) #3
  %369 = load i32, i32* @x.2
  %370 = load i32, i32* @y.3
  %371 = sub i32 %369, 1
  %372 = mul i32 %369, %371
  %373 = urem i32 %372, 2
  %374 = icmp eq i32 %373, 0
  %375 = icmp slt i32 %370, 10
  %376 = or i1 %374, %375
  br i1 %376, label %377, label %441

; <label>:377:                                    ; preds = %368
  br label %378

; <label>:378:                                    ; preds = %377
  %379 = load i8*, i8** %13, align 8
  %380 = load i32, i32* %14, align 4
  %381 = insertvalue { i8*, i32 } undef, i8* %379, 0
  %382 = insertvalue { i8*, i32 } %381, i32 %380, 1
  resume { i8*, i32 } %382

; <label>:383:                                    ; preds = %9, %0
  %384 = alloca i32, align 4
  %385 = alloca %"class.std::__cxx11::basic_string", align 8
  %386 = alloca %"class.std::__cxx11::basic_string", align 8
  %387 = alloca i8*
  %388 = alloca i32
  %389 = alloca i32, align 4
  %390 = alloca %"class.std::map", align 8
  %391 = alloca %"class.std::map", align 8
  %392 = alloca i32, align 4
  %393 = alloca %"class.std::__cxx11::basic_string", align 8
  %394 = alloca %"class.std::__cxx11::basic_string", align 8
  %395 = alloca %"struct.std::pair", align 8
  %396 = alloca %"class.std::__cxx11::basic_string", align 8
  %397 = alloca i32
  %398 = alloca i32, align 4
  %399 = alloca %"class.std::__cxx11::basic_string", align 8
  %400 = alloca %"class.std::__cxx11::basic_string", align 8
  %401 = alloca %"struct.std::pair", align 8
  %402 = alloca %"class.std::__cxx11::basic_string", align 8
  store i32 0, i32* %384, align 4
  call void @_ZNSt7__cxx1112basic_stringIcSt11char_traitsIcESaIcEEC1Ev(%"class.std::__cxx11::basic_string"* %385) #3
  call void @_ZNSt7__cxx1112basic_stringIcSt11char_traitsIcESaIcEEC1Ev(%"class.std::__cxx11::basic_string"* %386) #3
  br label %9

; <label>:403:                                    ; preds = %53, %44
  %404 = load i32, i32* %18, align 4
  %405 = load i32, i32* %15, align 4
  %406 = icmp slt i32 %404, %405
  br label %53

; <label>:407:                                    ; preds = %75, %66
  %408 = load i32, i32* %18, align 4
  %409 = sext i32 %408 to i64
  br label %75

; <label>:410:                                    ; preds = %113, %104
  %411 = call i64 @_ZNKSt3setINSt7__cxx1112basic_stringIcSt11char_traitsIcESaIcEEESt4lessIS5_ESaIS5_EE4sizeEv(%"class.std::set"* %103) #3
  %412 = trunc i64 %411 to i32
  %413 = icmp sge i32 %412, 2
  call void @_ZNSt7__cxx1112basic_stringIcSt11char_traitsIcESaIcEED1Ev(%"class.std::__cxx11::basic_string"* %22) #3
  br label %113

; <label>:414:                                    ; preds = %137, %128
  br label %137

; <label>:415:                                    ; preds = %175, %166
  %416 = landingpad { i8*, i32 }
          cleanup
  %417 = extractvalue { i8*, i32 } %416, 0
  store i8* %417, i8** %13, align 8
  %418 = extractvalue { i8*, i32 } %416, 1
  store i32 %418, i32* %14, align 4
  call void @_ZNSt7__cxx1112basic_stringIcSt11char_traitsIcESaIcEED1Ev(%"class.std::__cxx11::basic_string"* %22) #3
  br label %175

; <label>:419:                                    ; preds = %201, %192
  store i32 0, i32* %24, align 4
  br label %201

; <label>:420:                                    ; preds = %227, %218
  br label %227

; <label>:421:                                    ; preds = %262, %253
  %422 = call i64 @_ZNKSt3setINSt7__cxx1112basic_stringIcSt11char_traitsIcESaIcEEESt4lessIS5_ESaIS5_EE4sizeEv(%"class.std::set"* %252) #3
  %423 = trunc i64 %422 to i32
  %424 = icmp sge i32 %423, 2
  call void @_ZNSt7__cxx1112basic_stringIcSt11char_traitsIcESaIcEED1Ev(%"class.std::__cxx11::basic_string"* %28) #3
  br label %262

; <label>:425:                                    ; preds = %286, %277
  br label %286

; <label>:426:                                    ; preds = %321, %312
  %427 = load i32, i32* %24, align 4
  %428 = shl i32 %427, 1
  %429 = sub i32 0, %427
  %430 = add i32 %429, 1
  %431 = sub i32 0, %427
  %432 = add i32 %431, 1
  %433 = sub i32 0, %427
  %434 = add i32 %433, 1
  %435 = sub i32 0, %427
  %436 = add i32 %435, 1
  %437 = sub i32 %427, 1
  %438 = mul i32 %437, 1
  %439 = add nsw i32 %427, 1
  store i32 %439, i32* %24, align 4
  br label %321

; <label>:440:                                    ; preds = %342, %333
  br label %342

; <label>:441:                                    ; preds = %368, %359
  call void @_ZNSt7__cxx1112basic_stringIcSt11char_traitsIcESaIcEED1Ev(%"class.std::__cxx11::basic_string"* %12) #3
  call void @_ZNSt7__cxx1112basic_stringIcSt11char_traitsIcESaIcEED1Ev(%"class.std::__cxx11::basic_string"* %11) #3
  br label %368
}

; Function Attrs: nounwind
declare void @_ZNSt7__cxx1112basic_stringIcSt11char_traitsIcESaIcEEC1Ev(%"class.std::__cxx11::basic_string"*) unnamed_addr #2

declare dereferenceable(280) %"class.std::basic_istream"* @_ZStrsIcSt11char_traitsIcESaIcEERSt13basic_istreamIT_T0_ES7_RNSt7__cxx1112basic_stringIS4_S5_T1_EE(%"class.std::basic_istream"* dereferenceable(280), %"class.std::__cxx11::basic_string"* dereferenceable(32)) #1

declare i32 @__gxx_personality_v0(...)

; Function Attrs: nounwind
declare i64 @_ZNKSt7__cxx1112basic_stringIcSt11char_traitsIcESaIcEE4sizeEv(%"class.std::__cxx11::basic_string"*) #2

; Function Attrs: noinline nounwind uwtable
define linkonce_odr void @_ZNSt3mapINSt7__cxx1112basic_stringIcSt11char_traitsIcESaIcEEESt3setIS5_St4lessIS5_ESaIS5_EES8_SaISt4pairIKS5_SA_EEEC2Ev(%"class.std::map"*) unnamed_addr #5 comdat align 2 personality i8* bitcast (i32 (...)* @__gxx_personality_v0 to i8*) {
  %2 = alloca %"class.std::map"*, align 8
  store %"class.std::map"* %0, %"class.std::map"** %2, align 8
  %3 = load %"class.std::map"*, %"class.std::map"** %2, align 8
  %4 = getelementptr inbounds %"class.std::map", %"class.std::map"* %3, i32 0, i32 0
  invoke void @_ZNSt8_Rb_treeINSt7__cxx1112basic_stringIcSt11char_traitsIcESaIcEEESt4pairIKS5_St3setIS5_St4lessIS5_ESaIS5_EEESt10_Select1stISD_ESA_SaISD_EEC2Ev(%"class.std::_Rb_tree"* %4)
          to label %5 unwind label %24

; <label>:5:                                      ; preds = %1
  %6 = load i32, i32* @x.4
  %7 = load i32, i32* @y.5
  %8 = sub i32 %6, 1
  %9 = mul i32 %6, %8
  %10 = urem i32 %9, 2
  %11 = icmp eq i32 %10, 0
  %12 = icmp slt i32 %7, 10
  %13 = or i1 %11, %12
  br i1 %13, label %14, label %27

; <label>:14:                                     ; preds = %5, %27
  %15 = load i32, i32* @x.4
  %16 = load i32, i32* @y.5
  %17 = sub i32 %15, 1
  %18 = mul i32 %15, %17
  %19 = urem i32 %18, 2
  %20 = icmp eq i32 %19, 0
  %21 = icmp slt i32 %16, 10
  %22 = or i1 %20, %21
  br i1 %22, label %23, label %27

; <label>:23:                                     ; preds = %14
  ret void

; <label>:24:                                     ; preds = %1
  %25 = landingpad { i8*, i32 }
          catch i8* null
  %26 = extractvalue { i8*, i32 } %25, 0
  call void @__clang_call_terminate(i8* %26) #9
  unreachable

; <label>:27:                                     ; preds = %14, %5
  br label %14
}

; Function Attrs: noinline uwtable
define linkonce_odr dereferenceable(48) %"class.std::set"* @_ZNSt3mapINSt7__cxx1112basic_stringIcSt11char_traitsIcESaIcEEESt3setIS5_St4lessIS5_ESaIS5_EES8_SaISt4pairIKS5_SA_EEEixEOS5_(%"class.std::map"*, %"class.std::__cxx11::basic_string"* dereferenceable(32)) #0 comdat align 2 {
  %3 = alloca %"class.std::map"*, align 8
  %4 = alloca %"class.std::__cxx11::basic_string"*, align 8
  %5 = alloca %"struct.std::_Rb_tree_iterator", align 8
  %6 = alloca %"struct.std::_Rb_tree_iterator", align 8
  %7 = alloca %"struct.std::less", align 1
  %8 = alloca %"struct.std::_Rb_tree_iterator", align 8
  %9 = alloca %"struct.std::_Rb_tree_const_iterator.10", align 8
  %10 = alloca %"class.std::tuple", align 8
  %11 = alloca %"class.std::tuple.11", align 1
  store %"class.std::map"* %0, %"class.std::map"** %3, align 8
  store %"class.std::__cxx11::basic_string"* %1, %"class.std::__cxx11::basic_string"** %4, align 8
  %12 = load %"class.std::map"*, %"class.std::map"** %3, align 8
  %13 = load %"class.std::__cxx11::basic_string"*, %"class.std::__cxx11::basic_string"** %4, align 8
  %14 = call %"struct.std::_Rb_tree_node_base"* @_ZNSt3mapINSt7__cxx1112basic_stringIcSt11char_traitsIcESaIcEEESt3setIS5_St4lessIS5_ESaIS5_EES8_SaISt4pairIKS5_SA_EEE11lower_boundERSC_(%"class.std::map"* %12, %"class.std::__cxx11::basic_string"* dereferenceable(32) %13)
  %15 = getelementptr inbounds %"struct.std::_Rb_tree_iterator", %"struct.std::_Rb_tree_iterator"* %5, i32 0, i32 0
  store %"struct.std::_Rb_tree_node_base"* %14, %"struct.std::_Rb_tree_node_base"** %15, align 8
  %16 = call %"struct.std::_Rb_tree_node_base"* @_ZNSt3mapINSt7__cxx1112basic_stringIcSt11char_traitsIcESaIcEEESt3setIS5_St4lessIS5_ESaIS5_EES8_SaISt4pairIKS5_SA_EEE3endEv(%"class.std::map"* %12) #3
  %17 = getelementptr inbounds %"struct.std::_Rb_tree_iterator", %"struct.std::_Rb_tree_iterator"* %6, i32 0, i32 0
  store %"struct.std::_Rb_tree_node_base"* %16, %"struct.std::_Rb_tree_node_base"** %17, align 8
  %18 = call zeroext i1 @_ZNKSt17_Rb_tree_iteratorISt4pairIKNSt7__cxx1112basic_stringIcSt11char_traitsIcESaIcEEESt3setIS6_St4lessIS6_ESaIS6_EEEEeqERKSE_(%"struct.std::_Rb_tree_iterator"* %5, %"struct.std::_Rb_tree_iterator"* dereferenceable(8) %6) #3
  br i1 %18, label %24, label %19

; <label>:19:                                     ; preds = %2
  call void @_ZNKSt3mapINSt7__cxx1112basic_stringIcSt11char_traitsIcESaIcEEESt3setIS5_St4lessIS5_ESaIS5_EES8_SaISt4pairIKS5_SA_EEE8key_compEv(%"class.std::map"* %12)
  %20 = load %"class.std::__cxx11::basic_string"*, %"class.std::__cxx11::basic_string"** %4, align 8
  %21 = call dereferenceable(80) %"struct.std::pair.7"* @_ZNKSt17_Rb_tree_iteratorISt4pairIKNSt7__cxx1112basic_stringIcSt11char_traitsIcESaIcEEESt3setIS6_St4lessIS6_ESaIS6_EEEEdeEv(%"struct.std::_Rb_tree_iterator"* %5) #3
  %22 = getelementptr inbounds %"struct.std::pair.7", %"struct.std::pair.7"* %21, i32 0, i32 0
  %23 = call zeroext i1 @_ZNKSt4lessINSt7__cxx1112basic_stringIcSt11char_traitsIcESaIcEEEEclERKS5_S8_(%"struct.std::less"* %7, %"class.std::__cxx11::basic_string"* dereferenceable(32) %20, %"class.std::__cxx11::basic_string"* dereferenceable(32) %22)
  br label %24

; <label>:24:                                     ; preds = %19, %2
  %25 = phi i1 [ true, %2 ], [ %23, %19 ]
  br i1 %25, label %26, label %58

; <label>:26:                                     ; preds = %24
  %27 = load i32, i32* @x.6
  %28 = load i32, i32* @y.7
  %29 = sub i32 %27, 1
  %30 = mul i32 %27, %29
  %31 = urem i32 %30, 2
  %32 = icmp eq i32 %31, 0
  %33 = icmp slt i32 %28, 10
  %34 = or i1 %32, %33
  br i1 %34, label %35, label %79

; <label>:35:                                     ; preds = %26, %79
  %36 = getelementptr inbounds %"class.std::map", %"class.std::map"* %12, i32 0, i32 0
  call void @_ZNSt23_Rb_tree_const_iteratorISt4pairIKNSt7__cxx1112basic_stringIcSt11char_traitsIcESaIcEEESt3setIS6_St4lessIS6_ESaIS6_EEEEC2ERKSt17_Rb_tree_iteratorISD_E(%"struct.std::_Rb_tree_const_iterator.10"* %9, %"struct.std::_Rb_tree_iterator"* dereferenceable(8) %5) #3
  %37 = load %"class.std::__cxx11::basic_string"*, %"class.std::__cxx11::basic_string"** %4, align 8
  %38 = call dereferenceable(32) %"class.std::__cxx11::basic_string"* @_ZSt4moveIRNSt7__cxx1112basic_stringIcSt11char_traitsIcESaIcEEEEONSt16remove_referenceIT_E4typeEOS8_(%"class.std::__cxx11::basic_string"* dereferenceable(32) %37) #3
  %39 = call %"class.std::__cxx11::basic_string"* @_ZSt16forward_as_tupleIJNSt7__cxx1112basic_stringIcSt11char_traitsIcESaIcEEEEESt5tupleIJDpOT_EES9_(%"class.std::__cxx11::basic_string"* dereferenceable(32) %38) #3
  %40 = getelementptr inbounds %"class.std::tuple", %"class.std::tuple"* %10, i32 0, i32 0
  %41 = getelementptr inbounds %"struct.std::_Tuple_impl", %"struct.std::_Tuple_impl"* %40, i32 0, i32 0
  %42 = getelementptr inbounds %"struct.std::_Head_base", %"struct.std::_Head_base"* %41, i32 0, i32 0
  store %"class.std::__cxx11::basic_string"* %39, %"class.std::__cxx11::basic_string"** %42, align 8
  %43 = getelementptr inbounds %"struct.std::_Rb_tree_const_iterator.10", %"struct.std::_Rb_tree_const_iterator.10"* %9, i32 0, i32 0
  %44 = load %"struct.std::_Rb_tree_node_base"*, %"struct.std::_Rb_tree_node_base"** %43, align 8
  %45 = call %"struct.std::_Rb_tree_node_base"* @_ZNSt8_Rb_treeINSt7__cxx1112basic_stringIcSt11char_traitsIcESaIcEEESt4pairIKS5_St3setIS5_St4lessIS5_ESaIS5_EEESt10_Select1stISD_ESA_SaISD_EE22_M_emplace_hint_uniqueIJRKSt21piecewise_construct_tSt5tupleIJOS5_EESM_IJEEEEESt17_Rb_tree_iteratorISD_ESt23_Rb_tree_const_iteratorISD_EDpOT_(%"class.std::_Rb_tree"* %36, %"struct.std::_Rb_tree_node_base"* %44, %"struct.std::piecewise_construct_t"* dereferenceable(1) @_ZStL19piecewise_construct, %"class.std::tuple"* dereferenceable(8) %10, %"class.std::tuple.11"* dereferenceable(1) %11)
  %46 = getelementptr inbounds %"struct.std::_Rb_tree_iterator", %"struct.std::_Rb_tree_iterator"* %8, i32 0, i32 0
  store %"struct.std::_Rb_tree_node_base"* %45, %"struct.std::_Rb_tree_node_base"** %46, align 8
  %47 = bitcast %"struct.std::_Rb_tree_iterator"* %5 to i8*
  %48 = bitcast %"struct.std::_Rb_tree_iterator"* %8 to i8*
  call void @llvm.memcpy.p0i8.p0i8.i64(i8* %47, i8* %48, i64 8, i32 8, i1 false)
  %49 = load i32, i32* @x.6
  %50 = load i32, i32* @y.7
  %51 = sub i32 %49, 1
  %52 = mul i32 %49, %51
  %53 = urem i32 %52, 2
  %54 = icmp eq i32 %53, 0
  %55 = icmp slt i32 %50, 10
  %56 = or i1 %54, %55
  br i1 %56, label %57, label %79

; <label>:57:                                     ; preds = %35
  br label %58

; <label>:58:                                     ; preds = %57, %24
  %59 = load i32, i32* @x.6
  %60 = load i32, i32* @y.7
  %61 = sub i32 %59, 1
  %62 = mul i32 %59, %61
  %63 = urem i32 %62, 2
  %64 = icmp eq i32 %63, 0
  %65 = icmp slt i32 %60, 10
  %66 = or i1 %64, %65
  br i1 %66, label %67, label %93

; <label>:67:                                     ; preds = %58, %93
  %68 = call dereferenceable(80) %"struct.std::pair.7"* @_ZNKSt17_Rb_tree_iteratorISt4pairIKNSt7__cxx1112basic_stringIcSt11char_traitsIcESaIcEEESt3setIS6_St4lessIS6_ESaIS6_EEEEdeEv(%"struct.std::_Rb_tree_iterator"* %5) #3
  %69 = getelementptr inbounds %"struct.std::pair.7", %"struct.std::pair.7"* %68, i32 0, i32 1
  %70 = load i32, i32* @x.6
  %71 = load i32, i32* @y.7
  %72 = sub i32 %70, 1
  %73 = mul i32 %70, %72
  %74 = urem i32 %73, 2
  %75 = icmp eq i32 %74, 0
  %76 = icmp slt i32 %71, 10
  %77 = or i1 %75, %76
  br i1 %77, label %78, label %93

; <label>:78:                                     ; preds = %67
  ret %"class.std::set"* %69

; <label>:79:                                     ; preds = %35, %26
  %80 = getelementptr inbounds %"class.std::map", %"class.std::map"* %12, i32 0, i32 0
  call void @_ZNSt23_Rb_tree_const_iteratorISt4pairIKNSt7__cxx1112basic_stringIcSt11char_traitsIcESaIcEEESt3setIS6_St4lessIS6_ESaIS6_EEEEC2ERKSt17_Rb_tree_iteratorISD_E(%"struct.std::_Rb_tree_const_iterator.10"* %9, %"struct.std::_Rb_tree_iterator"* dereferenceable(8) %5) #3
  %81 = load %"class.std::__cxx11::basic_string"*, %"class.std::__cxx11::basic_string"** %4, align 8
  %82 = call dereferenceable(32) %"class.std::__cxx11::basic_string"* @_ZSt4moveIRNSt7__cxx1112basic_stringIcSt11char_traitsIcESaIcEEEEONSt16remove_referenceIT_E4typeEOS8_(%"class.std::__cxx11::basic_string"* dereferenceable(32) %81) #3
  %83 = call %"class.std::__cxx11::basic_string"* @_ZSt16forward_as_tupleIJNSt7__cxx1112basic_stringIcSt11char_traitsIcESaIcEEEEESt5tupleIJDpOT_EES9_(%"class.std::__cxx11::basic_string"* dereferenceable(32) %82) #3
  %84 = getelementptr inbounds %"class.std::tuple", %"class.std::tuple"* %10, i32 0, i32 0
  %85 = getelementptr inbounds %"struct.std::_Tuple_impl", %"struct.std::_Tuple_impl"* %84, i32 0, i32 0
  %86 = getelementptr inbounds %"struct.std::_Head_base", %"struct.std::_Head_base"* %85, i32 0, i32 0
  store %"class.std::__cxx11::basic_string"* %83, %"class.std::__cxx11::basic_string"** %86, align 8
  %87 = getelementptr inbounds %"struct.std::_Rb_tree_const_iterator.10", %"struct.std::_Rb_tree_const_iterator.10"* %9, i32 0, i32 0
  %88 = load %"struct.std::_Rb_tree_node_base"*, %"struct.std::_Rb_tree_node_base"** %87, align 8
  %89 = call %"struct.std::_Rb_tree_node_base"* @_ZNSt8_Rb_treeINSt7__cxx1112basic_stringIcSt11char_traitsIcESaIcEEESt4pairIKS5_St3setIS5_St4lessIS5_ESaIS5_EEESt10_Select1stISD_ESA_SaISD_EE22_M_emplace_hint_uniqueIJRKSt21piecewise_construct_tSt5tupleIJOS5_EESM_IJEEEEESt17_Rb_tree_iteratorISD_ESt23_Rb_tree_const_iteratorISD_EDpOT_(%"class.std::_Rb_tree"* %80, %"struct.std::_Rb_tree_node_base"* %88, %"struct.std::piecewise_construct_t"* dereferenceable(1) @_ZStL19piecewise_construct, %"class.std::tuple"* dereferenceable(8) %10, %"class.std::tuple.11"* dereferenceable(1) %11)
  %90 = getelementptr inbounds %"struct.std::_Rb_tree_iterator", %"struct.std::_Rb_tree_iterator"* %8, i32 0, i32 0
  store %"struct.std::_Rb_tree_node_base"* %89, %"struct.std::_Rb_tree_node_base"** %90, align 8
  %91 = bitcast %"struct.std::_Rb_tree_iterator"* %5 to i8*
  %92 = bitcast %"struct.std::_Rb_tree_iterator"* %8 to i8*
  call void @llvm.memcpy.p0i8.p0i8.i64(i8* %91, i8* %92, i64 8, i32 8, i1 false)
  br label %35

; <label>:93:                                     ; preds = %67, %58
  %94 = call dereferenceable(80) %"struct.std::pair.7"* @_ZNKSt17_Rb_tree_iteratorISt4pairIKNSt7__cxx1112basic_stringIcSt11char_traitsIcESaIcEEESt3setIS6_St4lessIS6_ESaIS6_EEEEdeEv(%"struct.std::_Rb_tree_iterator"* %5) #3
  %95 = getelementptr inbounds %"struct.std::pair.7", %"struct.std::pair.7"* %94, i32 0, i32 1
  br label %67
}

declare void @_ZNKSt7__cxx1112basic_stringIcSt11char_traitsIcESaIcEE6substrEmm(%"class.std::__cxx11::basic_string"* sret, %"class.std::__cxx11::basic_string"*, i64, i64) #1

; Function Attrs: noinline uwtable
define linkonce_odr { %"struct.std::_Rb_tree_node_base"*, i8 } @_ZNSt3setINSt7__cxx1112basic_stringIcSt11char_traitsIcESaIcEEESt4lessIS5_ESaIS5_EE7emplaceIJS5_EEESt4pairISt23_Rb_tree_const_iteratorIS5_EbEDpOT_(%"class.std::set"*, %"class.std::__cxx11::basic_string"* dereferenceable(32)) #0 comdat align 2 {
  %3 = load i32, i32* @x.8
  %4 = load i32, i32* @y.9
  %5 = sub i32 %3, 1
  %6 = mul i32 %3, %5
  %7 = urem i32 %6, 2
  %8 = icmp eq i32 %7, 0
  %9 = icmp slt i32 %4, 10
  %10 = or i1 %8, %9
  br i1 %10, label %11, label %37

; <label>:11:                                     ; preds = %2, %37
  %12 = alloca %"struct.std::pair", align 8
  %13 = alloca %"class.std::set"*, align 8
  %14 = alloca %"class.std::__cxx11::basic_string"*, align 8
  %15 = alloca %"struct.std::pair.14", align 8
  store %"class.std::set"* %0, %"class.std::set"** %13, align 8
  store %"class.std::__cxx11::basic_string"* %1, %"class.std::__cxx11::basic_string"** %14, align 8
  %16 = load %"class.std::set"*, %"class.std::set"** %13, align 8
  %17 = getelementptr inbounds %"class.std::set", %"class.std::set"* %16, i32 0, i32 0
  %18 = load %"class.std::__cxx11::basic_string"*, %"class.std::__cxx11::basic_string"** %14, align 8
  %19 = call dereferenceable(32) %"class.std::__cxx11::basic_string"* @_ZSt7forwardINSt7__cxx1112basic_stringIcSt11char_traitsIcESaIcEEEEOT_RNSt16remove_referenceIS6_E4typeE(%"class.std::__cxx11::basic_string"* dereferenceable(32) %18) #3
  %20 = call { %"struct.std::_Rb_tree_node_base"*, i8 } @_ZNSt8_Rb_treeINSt7__cxx1112basic_stringIcSt11char_traitsIcESaIcEEES5_St9_IdentityIS5_ESt4lessIS5_ESaIS5_EE17_M_emplace_uniqueIJS5_EEESt4pairISt17_Rb_tree_iteratorIS5_EbEDpOT_(%"class.std::_Rb_tree.3"* %17, %"class.std::__cxx11::basic_string"* dereferenceable(32) %19)
  %21 = bitcast %"struct.std::pair.14"* %15 to { %"struct.std::_Rb_tree_node_base"*, i8 }*
  %22 = getelementptr inbounds { %"struct.std::_Rb_tree_node_base"*, i8 }, { %"struct.std::_Rb_tree_node_base"*, i8 }* %21, i32 0, i32 0
  %23 = extractvalue { %"struct.std::_Rb_tree_node_base"*, i8 } %20, 0
  store %"struct.std::_Rb_tree_node_base"* %23, %"struct.std::_Rb_tree_node_base"** %22, align 8
  %24 = getelementptr inbounds { %"struct.std::_Rb_tree_node_base"*, i8 }, { %"struct.std::_Rb_tree_node_base"*, i8 }* %21, i32 0, i32 1
  %25 = extractvalue { %"struct.std::_Rb_tree_node_base"*, i8 } %20, 1
  store i8 %25, i8* %24, align 8
  call void @_ZNSt4pairISt23_Rb_tree_const_iteratorINSt7__cxx1112basic_stringIcSt11char_traitsIcESaIcEEEEbEC2ISt17_Rb_tree_iteratorIS6_EbvEEOS_IT_T0_E(%"struct.std::pair"* %12, %"struct.std::pair.14"* dereferenceable(16) %15)
  %26 = bitcast %"struct.std::pair"* %12 to { %"struct.std::_Rb_tree_node_base"*, i8 }*
  %27 = load { %"struct.std::_Rb_tree_node_base"*, i8 }, { %"struct.std::_Rb_tree_node_base"*, i8 }* %26, align 8
  %28 = load i32, i32* @x.8
  %29 = load i32, i32* @y.9
  %30 = sub i32 %28, 1
  %31 = mul i32 %28, %30
  %32 = urem i32 %31, 2
  %33 = icmp eq i32 %32, 0
  %34 = icmp slt i32 %29, 10
  %35 = or i1 %33, %34
  br i1 %35, label %36, label %37

; <label>:36:                                     ; preds = %11
  ret { %"struct.std::_Rb_tree_node_base"*, i8 } %27

; <label>:37:                                     ; preds = %11, %2
  %38 = alloca %"struct.std::pair", align 8
  %39 = alloca %"class.std::set"*, align 8
  %40 = alloca %"class.std::__cxx11::basic_string"*, align 8
  %41 = alloca %"struct.std::pair.14", align 8
  store %"class.std::set"* %0, %"class.std::set"** %39, align 8
  store %"class.std::__cxx11::basic_string"* %1, %"class.std::__cxx11::basic_string"** %40, align 8
  %42 = load %"class.std::set"*, %"class.std::set"** %39, align 8
  %43 = getelementptr inbounds %"class.std::set", %"class.std::set"* %42, i32 0, i32 0
  %44 = load %"class.std::__cxx11::basic_string"*, %"class.std::__cxx11::basic_string"** %40, align 8
  %45 = call dereferenceable(32) %"class.std::__cxx11::basic_string"* @_ZSt7forwardINSt7__cxx1112basic_stringIcSt11char_traitsIcESaIcEEEEOT_RNSt16remove_referenceIS6_E4typeE(%"class.std::__cxx11::basic_string"* dereferenceable(32) %44) #3
  %46 = call { %"struct.std::_Rb_tree_node_base"*, i8 } @_ZNSt8_Rb_treeINSt7__cxx1112basic_stringIcSt11char_traitsIcESaIcEEES5_St9_IdentityIS5_ESt4lessIS5_ESaIS5_EE17_M_emplace_uniqueIJS5_EEESt4pairISt17_Rb_tree_iteratorIS5_EbEDpOT_(%"class.std::_Rb_tree.3"* %43, %"class.std::__cxx11::basic_string"* dereferenceable(32) %45)
  %47 = bitcast %"struct.std::pair.14"* %41 to { %"struct.std::_Rb_tree_node_base"*, i8 }*
  %48 = getelementptr inbounds { %"struct.std::_Rb_tree_node_base"*, i8 }, { %"struct.std::_Rb_tree_node_base"*, i8 }* %47, i32 0, i32 0
  %49 = extractvalue { %"struct.std::_Rb_tree_node_base"*, i8 } %46, 0
  store %"struct.std::_Rb_tree_node_base"* %49, %"struct.std::_Rb_tree_node_base"** %48, align 8
  %50 = getelementptr inbounds { %"struct.std::_Rb_tree_node_base"*, i8 }, { %"struct.std::_Rb_tree_node_base"*, i8 }* %47, i32 0, i32 1
  %51 = extractvalue { %"struct.std::_Rb_tree_node_base"*, i8 } %46, 1
  store i8 %51, i8* %50, align 8
  call void @_ZNSt4pairISt23_Rb_tree_const_iteratorINSt7__cxx1112basic_stringIcSt11char_traitsIcESaIcEEEEbEC2ISt17_Rb_tree_iteratorIS6_EbvEEOS_IT_T0_E(%"struct.std::pair"* %38, %"struct.std::pair.14"* dereferenceable(16) %41)
  %52 = bitcast %"struct.std::pair"* %38 to { %"struct.std::_Rb_tree_node_base"*, i8 }*
  %53 = load { %"struct.std::_Rb_tree_node_base"*, i8 }, { %"struct.std::_Rb_tree_node_base"*, i8 }* %52, align 8
  br label %11
}

; Function Attrs: nounwind
declare void @_ZNSt7__cxx1112basic_stringIcSt11char_traitsIcESaIcEED1Ev(%"class.std::__cxx11::basic_string"*) unnamed_addr #2

; Function Attrs: noinline nounwind uwtable
define linkonce_odr i64 @_ZNKSt3setINSt7__cxx1112basic_stringIcSt11char_traitsIcESaIcEEESt4lessIS5_ESaIS5_EE4sizeEv(%"class.std::set"*) #5 comdat align 2 {
  %2 = load i32, i32* @x.10
  %3 = load i32, i32* @y.11
  %4 = sub i32 %2, 1
  %5 = mul i32 %2, %4
  %6 = urem i32 %5, 2
  %7 = icmp eq i32 %6, 0
  %8 = icmp slt i32 %3, 10
  %9 = or i1 %7, %8
  br i1 %9, label %10, label %24

; <label>:10:                                     ; preds = %1, %24
  %11 = alloca %"class.std::set"*, align 8
  store %"class.std::set"* %0, %"class.std::set"** %11, align 8
  %12 = load %"class.std::set"*, %"class.std::set"** %11, align 8
  %13 = getelementptr inbounds %"class.std::set", %"class.std::set"* %12, i32 0, i32 0
  %14 = call i64 @_ZNKSt8_Rb_treeINSt7__cxx1112basic_stringIcSt11char_traitsIcESaIcEEES5_St9_IdentityIS5_ESt4lessIS5_ESaIS5_EE4sizeEv(%"class.std::_Rb_tree.3"* %13) #3
  %15 = load i32, i32* @x.10
  %16 = load i32, i32* @y.11
  %17 = sub i32 %15, 1
  %18 = mul i32 %15, %17
  %19 = urem i32 %18, 2
  %20 = icmp eq i32 %19, 0
  %21 = icmp slt i32 %16, 10
  %22 = or i1 %20, %21
  br i1 %22, label %23, label %24

; <label>:23:                                     ; preds = %10
  ret i64 %14

; <label>:24:                                     ; preds = %10, %1
  %25 = alloca %"class.std::set"*, align 8
  store %"class.std::set"* %0, %"class.std::set"** %25, align 8
  %26 = load %"class.std::set"*, %"class.std::set"** %25, align 8
  %27 = getelementptr inbounds %"class.std::set", %"class.std::set"* %26, i32 0, i32 0
  %28 = call i64 @_ZNKSt8_Rb_treeINSt7__cxx1112basic_stringIcSt11char_traitsIcESaIcEEES5_St9_IdentityIS5_ESt4lessIS5_ESaIS5_EE4sizeEv(%"class.std::_Rb_tree.3"* %27) #3
  br label %10
}

declare dereferenceable(272) %"class.std::basic_ostream"* @_ZStlsISt11char_traitsIcEERSt13basic_ostreamIcT_ES5_PKc(%"class.std::basic_ostream"* dereferenceable(272), i8*) #1

declare dereferenceable(272) %"class.std::basic_ostream"* @_ZNSolsEPFRSoS_E(%"class.std::basic_ostream"*, %"class.std::basic_ostream"* (%"class.std::basic_ostream"*)*) #1

declare dereferenceable(272) %"class.std::basic_ostream"* @_ZSt4endlIcSt11char_traitsIcEERSt13basic_ostreamIT_T0_ES6_(%"class.std::basic_ostream"* dereferenceable(272)) #1

; Function Attrs: noinline nounwind uwtable
define linkonce_odr void @_ZNSt3mapINSt7__cxx1112basic_stringIcSt11char_traitsIcESaIcEEESt3setIS5_St4lessIS5_ESaIS5_EES8_SaISt4pairIKS5_SA_EEED2Ev(%"class.std::map"*) unnamed_addr #5 comdat align 2 {
  %2 = alloca %"class.std::map"*, align 8
  store %"class.std::map"* %0, %"class.std::map"** %2, align 8
  %3 = load %"class.std::map"*, %"class.std::map"** %2, align 8
  %4 = getelementptr inbounds %"class.std::map", %"class.std::map"* %3, i32 0, i32 0
  call void @_ZNSt8_Rb_treeINSt7__cxx1112basic_stringIcSt11char_traitsIcESaIcEEESt4pairIKS5_St3setIS5_St4lessIS5_ESaIS5_EEESt10_Select1stISD_ESA_SaISD_EED2Ev(%"class.std::_Rb_tree"* %4) #3
  ret void
}

; Function Attrs: noinline nounwind uwtable
define linkonce_odr void @_ZNSt8_Rb_treeINSt7__cxx1112basic_stringIcSt11char_traitsIcESaIcEEESt4pairIKS5_St3setIS5_St4lessIS5_ESaIS5_EEESt10_Select1stISD_ESA_SaISD_EED2Ev(%"class.std::_Rb_tree"*) unnamed_addr #5 comdat align 2 personality i8* bitcast (i32 (...)* @__gxx_personality_v0 to i8*) {
  %2 = load i32, i32* @x.14
  %3 = load i32, i32* @y.15
  %4 = sub i32 %2, 1
  %5 = mul i32 %2, %4
  %6 = urem i32 %5, 2
  %7 = icmp eq i32 %6, 0
  %8 = icmp slt i32 %3, 10
  %9 = or i1 %7, %8
  br i1 %9, label %10, label %52

; <label>:10:                                     ; preds = %1, %52
  %11 = alloca %"class.std::_Rb_tree"*, align 8
  %12 = alloca i8*
  %13 = alloca i32
  store %"class.std::_Rb_tree"* %0, %"class.std::_Rb_tree"** %11, align 8
  %14 = load %"class.std::_Rb_tree"*, %"class.std::_Rb_tree"** %11, align 8
  %15 = call %"struct.std::_Rb_tree_node"* @_ZNSt8_Rb_treeINSt7__cxx1112basic_stringIcSt11char_traitsIcESaIcEEESt4pairIKS5_St3setIS5_St4lessIS5_ESaIS5_EEESt10_Select1stISD_ESA_SaISD_EE8_M_beginEv(%"class.std::_Rb_tree"* %14) #3
  %16 = load i32, i32* @x.14
  %17 = load i32, i32* @y.15
  %18 = sub i32 %16, 1
  %19 = mul i32 %16, %18
  %20 = urem i32 %19, 2
  %21 = icmp eq i32 %20, 0
  %22 = icmp slt i32 %17, 10
  %23 = or i1 %21, %22
  br i1 %23, label %24, label %52

; <label>:24:                                     ; preds = %10
  invoke void @_ZNSt8_Rb_treeINSt7__cxx1112basic_stringIcSt11char_traitsIcESaIcEEESt4pairIKS5_St3setIS5_St4lessIS5_ESaIS5_EEESt10_Select1stISD_ESA_SaISD_EE8_M_eraseEPSt13_Rb_tree_nodeISD_E(%"class.std::_Rb_tree"* %14, %"struct.std::_Rb_tree_node"* %15)
          to label %25 unwind label %27

; <label>:25:                                     ; preds = %24
  %26 = getelementptr inbounds %"class.std::_Rb_tree", %"class.std::_Rb_tree"* %14, i32 0, i32 0
  call void @_ZNSt8_Rb_treeINSt7__cxx1112basic_stringIcSt11char_traitsIcESaIcEEESt4pairIKS5_St3setIS5_St4lessIS5_ESaIS5_EEESt10_Select1stISD_ESA_SaISD_EE13_Rb_tree_implISA_Lb1EED2Ev(%"struct.std::_Rb_tree<std::__cxx11::basic_string<char>, std::pair<const std::__cxx11::basic_string<char>, std::set<std::__cxx11::basic_string<char>, std::less<std::__cxx11::basic_string<char> >, std::allocator<std::__cxx11::basic_string<char> > > >, std::_Select1st<std::pair<const std::__cxx11::basic_string<char>, std::set<std::__cxx11::basic_string<char>, std::less<std::__cxx11::basic_string<char> >, std::allocator<std::__cxx11::basic_string<char> > > > >, std::less<std::__cxx11::basic_string<char> >, std::allocator<std::pair<const std::__cxx11::basic_string<char>, std::set<std::__cxx11::basic_string<char>, std::less<std::__cxx11::basic_string<char> >, std::allocator<std::__cxx11::basic_string<char> > > > > >::_Rb_tree_impl"* %26) #3
  ret void

; <label>:27:                                     ; preds = %24
  %28 = landingpad { i8*, i32 }
          catch i8* null
  %29 = extractvalue { i8*, i32 } %28, 0
  store i8* %29, i8** %12, align 8
  %30 = extractvalue { i8*, i32 } %28, 1
  store i32 %30, i32* %13, align 4
  %31 = getelementptr inbounds %"class.std::_Rb_tree", %"class.std::_Rb_tree"* %14, i32 0, i32 0
  call void @_ZNSt8_Rb_treeINSt7__cxx1112basic_stringIcSt11char_traitsIcESaIcEEESt4pairIKS5_St3setIS5_St4lessIS5_ESaIS5_EEESt10_Select1stISD_ESA_SaISD_EE13_Rb_tree_implISA_Lb1EED2Ev(%"struct.std::_Rb_tree<std::__cxx11::basic_string<char>, std::pair<const std::__cxx11::basic_string<char>, std::set<std::__cxx11::basic_string<char>, std::less<std::__cxx11::basic_string<char> >, std::allocator<std::__cxx11::basic_string<char> > > >, std::_Select1st<std::pair<const std::__cxx11::basic_string<char>, std::set<std::__cxx11::basic_string<char>, std::less<std::__cxx11::basic_string<char> >, std::allocator<std::__cxx11::basic_string<char> > > > >, std::less<std::__cxx11::basic_string<char> >, std::allocator<std::pair<const std::__cxx11::basic_string<char>, std::set<std::__cxx11::basic_string<char>, std::less<std::__cxx11::basic_string<char> >, std::allocator<std::__cxx11::basic_string<char> > > > > >::_Rb_tree_impl"* %31) #3
  br label %32

; <label>:32:                                     ; preds = %27
  %33 = load i32, i32* @x.14
  %34 = load i32, i32* @y.15
  %35 = sub i32 %33, 1
  %36 = mul i32 %33, %35
  %37 = urem i32 %36, 2
  %38 = icmp eq i32 %37, 0
  %39 = icmp slt i32 %34, 10
  %40 = or i1 %38, %39
  br i1 %40, label %41, label %58

; <label>:41:                                     ; preds = %32, %58
  %42 = load i8*, i8** %12, align 8
  call void @__clang_call_terminate(i8* %42) #9
  %43 = load i32, i32* @x.14
  %44 = load i32, i32* @y.15
  %45 = sub i32 %43, 1
  %46 = mul i32 %43, %45
  %47 = urem i32 %46, 2
  %48 = icmp eq i32 %47, 0
  %49 = icmp slt i32 %44, 10
  %50 = or i1 %48, %49
  br i1 %50, label %51, label %58

; <label>:51:                                     ; preds = %41
  unreachable

; <label>:52:                                     ; preds = %10, %1
  %53 = alloca %"class.std::_Rb_tree"*, align 8
  %54 = alloca i8*
  %55 = alloca i32
  store %"class.std::_Rb_tree"* %0, %"class.std::_Rb_tree"** %53, align 8
  %56 = load %"class.std::_Rb_tree"*, %"class.std::_Rb_tree"** %53, align 8
  %57 = call %"struct.std::_Rb_tree_node"* @_ZNSt8_Rb_treeINSt7__cxx1112basic_stringIcSt11char_traitsIcESaIcEEESt4pairIKS5_St3setIS5_St4lessIS5_ESaIS5_EEESt10_Select1stISD_ESA_SaISD_EE8_M_beginEv(%"class.std::_Rb_tree"* %56) #3
  br label %10

; <label>:58:                                     ; preds = %41, %32
  %59 = load i8*, i8** %12, align 8
  call void @__clang_call_terminate(i8* %59) #9
  br label %41
}

; Function Attrs: noinline uwtable
define linkonce_odr void @_ZNSt8_Rb_treeINSt7__cxx1112basic_stringIcSt11char_traitsIcESaIcEEESt4pairIKS5_St3setIS5_St4lessIS5_ESaIS5_EEESt10_Select1stISD_ESA_SaISD_EE8_M_eraseEPSt13_Rb_tree_nodeISD_E(%"class.std::_Rb_tree"*, %"struct.std::_Rb_tree_node"*) #0 comdat align 2 {
  %3 = alloca %"class.std::_Rb_tree"*, align 8
  %4 = alloca %"struct.std::_Rb_tree_node"*, align 8
  %5 = alloca %"struct.std::_Rb_tree_node"*, align 8
  store %"class.std::_Rb_tree"* %0, %"class.std::_Rb_tree"** %3, align 8
  store %"struct.std::_Rb_tree_node"* %1, %"struct.std::_Rb_tree_node"** %4, align 8
  %6 = load %"class.std::_Rb_tree"*, %"class.std::_Rb_tree"** %3, align 8
  br label %7

; <label>:7:                                      ; preds = %10, %2
  %8 = load %"struct.std::_Rb_tree_node"*, %"struct.std::_Rb_tree_node"** %4, align 8
  %9 = icmp ne %"struct.std::_Rb_tree_node"* %8, null
  br i1 %9, label %10, label %19

; <label>:10:                                     ; preds = %7
  %11 = load %"struct.std::_Rb_tree_node"*, %"struct.std::_Rb_tree_node"** %4, align 8
  %12 = bitcast %"struct.std::_Rb_tree_node"* %11 to %"struct.std::_Rb_tree_node_base"*
  %13 = call %"struct.std::_Rb_tree_node"* @_ZNSt8_Rb_treeINSt7__cxx1112basic_stringIcSt11char_traitsIcESaIcEEESt4pairIKS5_St3setIS5_St4lessIS5_ESaIS5_EEESt10_Select1stISD_ESA_SaISD_EE8_S_rightEPSt18_Rb_tree_node_base(%"struct.std::_Rb_tree_node_base"* %12) #3
  call void @_ZNSt8_Rb_treeINSt7__cxx1112basic_stringIcSt11char_traitsIcESaIcEEESt4pairIKS5_St3setIS5_St4lessIS5_ESaIS5_EEESt10_Select1stISD_ESA_SaISD_EE8_M_eraseEPSt13_Rb_tree_nodeISD_E(%"class.std::_Rb_tree"* %6, %"struct.std::_Rb_tree_node"* %13)
  %14 = load %"struct.std::_Rb_tree_node"*, %"struct.std::_Rb_tree_node"** %4, align 8
  %15 = bitcast %"struct.std::_Rb_tree_node"* %14 to %"struct.std::_Rb_tree_node_base"*
  %16 = call %"struct.std::_Rb_tree_node"* @_ZNSt8_Rb_treeINSt7__cxx1112basic_stringIcSt11char_traitsIcESaIcEEESt4pairIKS5_St3setIS5_St4lessIS5_ESaIS5_EEESt10_Select1stISD_ESA_SaISD_EE7_S_leftEPSt18_Rb_tree_node_base(%"struct.std::_Rb_tree_node_base"* %15) #3
  store %"struct.std::_Rb_tree_node"* %16, %"struct.std::_Rb_tree_node"** %5, align 8
  %17 = load %"struct.std::_Rb_tree_node"*, %"struct.std::_Rb_tree_node"** %4, align 8
  call void @_ZNSt8_Rb_treeINSt7__cxx1112basic_stringIcSt11char_traitsIcESaIcEEESt4pairIKS5_St3setIS5_St4lessIS5_ESaIS5_EEESt10_Select1stISD_ESA_SaISD_EE12_M_drop_nodeEPSt13_Rb_tree_nodeISD_E(%"class.std::_Rb_tree"* %6, %"struct.std::_Rb_tree_node"* %17) #3
  %18 = load %"struct.std::_Rb_tree_node"*, %"struct.std::_Rb_tree_node"** %5, align 8
  store %"struct.std::_Rb_tree_node"* %18, %"struct.std::_Rb_tree_node"** %4, align 8
  br label %7

; <label>:19:                                     ; preds = %7
  %20 = load i32, i32* @x.16
  %21 = load i32, i32* @y.17
  %22 = sub i32 %20, 1
  %23 = mul i32 %20, %22
  %24 = urem i32 %23, 2
  %25 = icmp eq i32 %24, 0
  %26 = icmp slt i32 %21, 10
  %27 = or i1 %25, %26
  br i1 %27, label %28, label %38

; <label>:28:                                     ; preds = %19, %38
  %29 = load i32, i32* @x.16
  %30 = load i32, i32* @y.17
  %31 = sub i32 %29, 1
  %32 = mul i32 %29, %31
  %33 = urem i32 %32, 2
  %34 = icmp eq i32 %33, 0
  %35 = icmp slt i32 %30, 10
  %36 = or i1 %34, %35
  br i1 %36, label %37, label %38

; <label>:37:                                     ; preds = %28
  ret void

; <label>:38:                                     ; preds = %28, %19
  br label %28
}

; Function Attrs: noinline nounwind uwtable
define linkonce_odr %"struct.std::_Rb_tree_node"* @_ZNSt8_Rb_treeINSt7__cxx1112basic_stringIcSt11char_traitsIcESaIcEEESt4pairIKS5_St3setIS5_St4lessIS5_ESaIS5_EEESt10_Select1stISD_ESA_SaISD_EE8_M_beginEv(%"class.std::_Rb_tree"*) #5 comdat align 2 {
  %2 = alloca %"class.std::_Rb_tree"*, align 8
  store %"class.std::_Rb_tree"* %0, %"class.std::_Rb_tree"** %2, align 8
  %3 = load %"class.std::_Rb_tree"*, %"class.std::_Rb_tree"** %2, align 8
  %4 = getelementptr inbounds %"class.std::_Rb_tree", %"class.std::_Rb_tree"* %3, i32 0, i32 0
  %5 = getelementptr inbounds %"struct.std::_Rb_tree<std::__cxx11::basic_string<char>, std::pair<const std::__cxx11::basic_string<char>, std::set<std::__cxx11::basic_string<char>, std::less<std::__cxx11::basic_string<char> >, std::allocator<std::__cxx11::basic_string<char> > > >, std::_Select1st<std::pair<const std::__cxx11::basic_string<char>, std::set<std::__cxx11::basic_string<char>, std::less<std::__cxx11::basic_string<char> >, std::allocator<std::__cxx11::basic_string<char> > > > >, std::less<std::__cxx11::basic_string<char> >, std::allocator<std::pair<const std::__cxx11::basic_string<char>, std::set<std::__cxx11::basic_string<char>, std::less<std::__cxx11::basic_string<char> >, std::allocator<std::__cxx11::basic_string<char> > > > > >::_Rb_tree_impl", %"struct.std::_Rb_tree<std::__cxx11::basic_string<char>, std::pair<const std::__cxx11::basic_string<char>, std::set<std::__cxx11::basic_string<char>, std::less<std::__cxx11::basic_string<char> >, std::allocator<std::__cxx11::basic_string<char> > > >, std::_Select1st<std::pair<const std::__cxx11::basic_string<char>, std::set<std::__cxx11::basic_string<char>, std::less<std::__cxx11::basic_string<char> >, std::allocator<std::__cxx11::basic_string<char> > > > >, std::less<std::__cxx11::basic_string<char> >, std::allocator<std::pair<const std::__cxx11::basic_string<char>, std::set<std::__cxx11::basic_string<char>, std::less<std::__cxx11::basic_string<char> >, std::allocator<std::__cxx11::basic_string<char> > > > > >::_Rb_tree_impl"* %4, i32 0, i32 1
  %6 = getelementptr inbounds %"struct.std::_Rb_tree_node_base", %"struct.std::_Rb_tree_node_base"* %5, i32 0, i32 1
  %7 = load %"struct.std::_Rb_tree_node_base"*, %"struct.std::_Rb_tree_node_base"** %6, align 8
  %8 = bitcast %"struct.std::_Rb_tree_node_base"* %7 to %"struct.std::_Rb_tree_node"*
  ret %"struct.std::_Rb_tree_node"* %8
}

; Function Attrs: noinline nounwind uwtable
define linkonce_odr void @_ZNSt8_Rb_treeINSt7__cxx1112basic_stringIcSt11char_traitsIcESaIcEEESt4pairIKS5_St3setIS5_St4lessIS5_ESaIS5_EEESt10_Select1stISD_ESA_SaISD_EE13_Rb_tree_implISA_Lb1EED2Ev(%"struct.std::_Rb_tree<std::__cxx11::basic_string<char>, std::pair<const std::__cxx11::basic_string<char>, std::set<std::__cxx11::basic_string<char>, std::less<std::__cxx11::basic_string<char> >, std::allocator<std::__cxx11::basic_string<char> > > >, std::_Select1st<std::pair<const std::__cxx11::basic_string<char>, std::set<std::__cxx11::basic_string<char>, std::less<std::__cxx11::basic_string<char> >, std::allocator<std::__cxx11::basic_string<char> > > > >, std::less<std::__cxx11::basic_string<char> >, std::allocator<std::pair<const std::__cxx11::basic_string<char>, std::set<std::__cxx11::basic_string<char>, std::less<std::__cxx11::basic_string<char> >, std::allocator<std::__cxx11::basic_string<char> > > > > >::_Rb_tree_impl"*) unnamed_addr #5 comdat align 2 {
  %2 = alloca %"struct.std::_Rb_tree<std::__cxx11::basic_string<char>, std::pair<const std::__cxx11::basic_string<char>, std::set<std::__cxx11::basic_string<char>, std::less<std::__cxx11::basic_string<char> >, std::allocator<std::__cxx11::basic_string<char> > > >, std::_Select1st<std::pair<const std::__cxx11::basic_string<char>, std::set<std::__cxx11::basic_string<char>, std::less<std::__cxx11::basic_string<char> >, std::allocator<std::__cxx11::basic_string<char> > > > >, std::less<std::__cxx11::basic_string<char> >, std::allocator<std::pair<const std::__cxx11::basic_string<char>, std::set<std::__cxx11::basic_string<char>, std::less<std::__cxx11::basic_string<char> >, std::allocator<std::__cxx11::basic_string<char> > > > > >::_Rb_tree_impl"*, align 8
  store %"struct.std::_Rb_tree<std::__cxx11::basic_string<char>, std::pair<const std::__cxx11::basic_string<char>, std::set<std::__cxx11::basic_string<char>, std::less<std::__cxx11::basic_string<char> >, std::allocator<std::__cxx11::basic_string<char> > > >, std::_Select1st<std::pair<const std::__cxx11::basic_string<char>, std::set<std::__cxx11::basic_string<char>, std::less<std::__cxx11::basic_string<char> >, std::allocator<std::__cxx11::basic_string<char> > > > >, std::less<std::__cxx11::basic_string<char> >, std::allocator<std::pair<const std::__cxx11::basic_string<char>, std::set<std::__cxx11::basic_string<char>, std::less<std::__cxx11::basic_string<char> >, std::allocator<std::__cxx11::basic_string<char> > > > > >::_Rb_tree_impl"* %0, %"struct.std::_Rb_tree<std::__cxx11::basic_string<char>, std::pair<const std::__cxx11::basic_string<char>, std::set<std::__cxx11::basic_string<char>, std::less<std::__cxx11::basic_string<char> >, std::allocator<std::__cxx11::basic_string<char> > > >, std::_Select1st<std::pair<const std::__cxx11::basic_string<char>, std::set<std::__cxx11::basic_string<char>, std::less<std::__cxx11::basic_string<char> >, std::allocator<std::__cxx11::basic_string<char> > > > >, std::less<std::__cxx11::basic_string<char> >, std::allocator<std::pair<const std::__cxx11::basic_string<char>, std::set<std::__cxx11::basic_string<char>, std::less<std::__cxx11::basic_string<char> >, std::allocator<std::__cxx11::basic_string<char> > > > > >::_Rb_tree_impl"** %2, align 8
  %3 = load %"struct.std::_Rb_tree<std::__cxx11::basic_string<char>, std::pair<const std::__cxx11::basic_string<char>, std::set<std::__cxx11::basic_string<char>, std::less<std::__cxx11::basic_string<char> >, std::allocator<std::__cxx11::basic_string<char> > > >, std::_Select1st<std::pair<const std::__cxx11::basic_string<char>, std::set<std::__cxx11::basic_string<char>, std::less<std::__cxx11::basic_string<char> >, std::allocator<std::__cxx11::basic_string<char> > > > >, std::less<std::__cxx11::basic_string<char> >, std::allocator<std::pair<const std::__cxx11::basic_string<char>, std::set<std::__cxx11::basic_string<char>, std::less<std::__cxx11::basic_string<char> >, std::allocator<std::__cxx11::basic_string<char> > > > > >::_Rb_tree_impl"*, %"struct.std::_Rb_tree<std::__cxx11::basic_string<char>, std::pair<const std::__cxx11::basic_string<char>, std::set<std::__cxx11::basic_string<char>, std::less<std::__cxx11::basic_string<char> >, std::allocator<std::__cxx11::basic_string<char> > > >, std::_Select1st<std::pair<const std::__cxx11::basic_string<char>, std::set<std::__cxx11::basic_string<char>, std::less<std::__cxx11::basic_string<char> >, std::allocator<std::__cxx11::basic_string<char> > > > >, std::less<std::__cxx11::basic_string<char> >, std::allocator<std::pair<const std::__cxx11::basic_string<char>, std::set<std::__cxx11::basic_string<char>, std::less<std::__cxx11::basic_string<char> >, std::allocator<std::__cxx11::basic_string<char> > > > > >::_Rb_tree_impl"** %2, align 8
  %4 = bitcast %"struct.std::_Rb_tree<std::__cxx11::basic_string<char>, std::pair<const std::__cxx11::basic_string<char>, std::set<std::__cxx11::basic_string<char>, std::less<std::__cxx11::basic_string<char> >, std::allocator<std::__cxx11::basic_string<char> > > >, std::_Select1st<std::pair<const std::__cxx11::basic_string<char>, std::set<std::__cxx11::basic_string<char>, std::less<std::__cxx11::basic_string<char> >, std::allocator<std::__cxx11::basic_string<char> > > > >, std::less<std::__cxx11::basic_string<char> >, std::allocator<std::pair<const std::__cxx11::basic_string<char>, std::set<std::__cxx11::basic_string<char>, std::less<std::__cxx11::basic_string<char> >, std::allocator<std::__cxx11::basic_string<char> > > > > >::_Rb_tree_impl"* %3 to %"class.std::allocator.0"*
  call void @_ZNSaISt13_Rb_tree_nodeISt4pairIKNSt7__cxx1112basic_stringIcSt11char_traitsIcESaIcEEESt3setIS6_St4lessIS6_ESaIS6_EEEEED2Ev(%"class.std::allocator.0"* %4) #3
  ret void
}

; Function Attrs: noinline noreturn nounwind
define linkonce_odr hidden void @__clang_call_terminate(i8*) #6 comdat {
  %2 = load i32, i32* @x.22
  %3 = load i32, i32* @y.23
  %4 = sub i32 %2, 1
  %5 = mul i32 %2, %4
  %6 = urem i32 %5, 2
  %7 = icmp eq i32 %6, 0
  %8 = icmp slt i32 %3, 10
  %9 = or i1 %7, %8
  br i1 %9, label %10, label %21

; <label>:10:                                     ; preds = %1, %21
  %11 = call i8* @__cxa_begin_catch(i8* %0) #3
  call void @_ZSt9terminatev() #9
  %12 = load i32, i32* @x.22
  %13 = load i32, i32* @y.23
  %14 = sub i32 %12, 1
  %15 = mul i32 %12, %14
  %16 = urem i32 %15, 2
  %17 = icmp eq i32 %16, 0
  %18 = icmp slt i32 %13, 10
  %19 = or i1 %17, %18
  br i1 %19, label %20, label %21

; <label>:20:                                     ; preds = %10
  unreachable

; <label>:21:                                     ; preds = %10, %1
  %22 = call i8* @__cxa_begin_catch(i8* %0) #3
  call void @_ZSt9terminatev() #9
  br label %10
}

declare i8* @__cxa_begin_catch(i8*)

declare void @_ZSt9terminatev()

; Function Attrs: noinline nounwind uwtable
define linkonce_odr %"struct.std::_Rb_tree_node"* @_ZNSt8_Rb_treeINSt7__cxx1112basic_stringIcSt11char_traitsIcESaIcEEESt4pairIKS5_St3setIS5_St4lessIS5_ESaIS5_EEESt10_Select1stISD_ESA_SaISD_EE8_S_rightEPSt18_Rb_tree_node_base(%"struct.std::_Rb_tree_node_base"*) #5 comdat align 2 {
  %2 = alloca %"struct.std::_Rb_tree_node_base"*, align 8
  store %"struct.std::_Rb_tree_node_base"* %0, %"struct.std::_Rb_tree_node_base"** %2, align 8
  %3 = load %"struct.std::_Rb_tree_node_base"*, %"struct.std::_Rb_tree_node_base"** %2, align 8
  %4 = getelementptr inbounds %"struct.std::_Rb_tree_node_base", %"struct.std::_Rb_tree_node_base"* %3, i32 0, i32 3
  %5 = load %"struct.std::_Rb_tree_node_base"*, %"struct.std::_Rb_tree_node_base"** %4, align 8
  %6 = bitcast %"struct.std::_Rb_tree_node_base"* %5 to %"struct.std::_Rb_tree_node"*
  ret %"struct.std::_Rb_tree_node"* %6
}

; Function Attrs: noinline nounwind uwtable
define linkonce_odr %"struct.std::_Rb_tree_node"* @_ZNSt8_Rb_treeINSt7__cxx1112basic_stringIcSt11char_traitsIcESaIcEEESt4pairIKS5_St3setIS5_St4lessIS5_ESaIS5_EEESt10_Select1stISD_ESA_SaISD_EE7_S_leftEPSt18_Rb_tree_node_base(%"struct.std::_Rb_tree_node_base"*) #5 comdat align 2 {
  %2 = alloca %"struct.std::_Rb_tree_node_base"*, align 8
  store %"struct.std::_Rb_tree_node_base"* %0, %"struct.std::_Rb_tree_node_base"** %2, align 8
  %3 = load %"struct.std::_Rb_tree_node_base"*, %"struct.std::_Rb_tree_node_base"** %2, align 8
  %4 = getelementptr inbounds %"struct.std::_Rb_tree_node_base", %"struct.std::_Rb_tree_node_base"* %3, i32 0, i32 2
  %5 = load %"struct.std::_Rb_tree_node_base"*, %"struct.std::_Rb_tree_node_base"** %4, align 8
  %6 = bitcast %"struct.std::_Rb_tree_node_base"* %5 to %"struct.std::_Rb_tree_node"*
  ret %"struct.std::_Rb_tree_node"* %6
}

; Function Attrs: noinline nounwind uwtable
define linkonce_odr void @_ZNSt8_Rb_treeINSt7__cxx1112basic_stringIcSt11char_traitsIcESaIcEEESt4pairIKS5_St3setIS5_St4lessIS5_ESaIS5_EEESt10_Select1stISD_ESA_SaISD_EE12_M_drop_nodeEPSt13_Rb_tree_nodeISD_E(%"class.std::_Rb_tree"*, %"struct.std::_Rb_tree_node"*) #5 comdat align 2 {
  %3 = load i32, i32* @x.28
  %4 = load i32, i32* @y.29
  %5 = sub i32 %3, 1
  %6 = mul i32 %3, %5
  %7 = urem i32 %6, 2
  %8 = icmp eq i32 %7, 0
  %9 = icmp slt i32 %4, 10
  %10 = or i1 %8, %9
  br i1 %10, label %11, label %26

; <label>:11:                                     ; preds = %2, %26
  %12 = alloca %"class.std::_Rb_tree"*, align 8
  %13 = alloca %"struct.std::_Rb_tree_node"*, align 8
  store %"class.std::_Rb_tree"* %0, %"class.std::_Rb_tree"** %12, align 8
  store %"struct.std::_Rb_tree_node"* %1, %"struct.std::_Rb_tree_node"** %13, align 8
  %14 = load %"class.std::_Rb_tree"*, %"class.std::_Rb_tree"** %12, align 8
  %15 = load %"struct.std::_Rb_tree_node"*, %"struct.std::_Rb_tree_node"** %13, align 8
  call void @_ZNSt8_Rb_treeINSt7__cxx1112basic_stringIcSt11char_traitsIcESaIcEEESt4pairIKS5_St3setIS5_St4lessIS5_ESaIS5_EEESt10_Select1stISD_ESA_SaISD_EE15_M_destroy_nodeEPSt13_Rb_tree_nodeISD_E(%"class.std::_Rb_tree"* %14, %"struct.std::_Rb_tree_node"* %15) #3
  %16 = load %"struct.std::_Rb_tree_node"*, %"struct.std::_Rb_tree_node"** %13, align 8
  call void @_ZNSt8_Rb_treeINSt7__cxx1112basic_stringIcSt11char_traitsIcESaIcEEESt4pairIKS5_St3setIS5_St4lessIS5_ESaIS5_EEESt10_Select1stISD_ESA_SaISD_EE11_M_put_nodeEPSt13_Rb_tree_nodeISD_E(%"class.std::_Rb_tree"* %14, %"struct.std::_Rb_tree_node"* %16) #3
  %17 = load i32, i32* @x.28
  %18 = load i32, i32* @y.29
  %19 = sub i32 %17, 1
  %20 = mul i32 %17, %19
  %21 = urem i32 %20, 2
  %22 = icmp eq i32 %21, 0
  %23 = icmp slt i32 %18, 10
  %24 = or i1 %22, %23
  br i1 %24, label %25, label %26

; <label>:25:                                     ; preds = %11
  ret void

; <label>:26:                                     ; preds = %11, %2
  %27 = alloca %"class.std::_Rb_tree"*, align 8
  %28 = alloca %"struct.std::_Rb_tree_node"*, align 8
  store %"class.std::_Rb_tree"* %0, %"class.std::_Rb_tree"** %27, align 8
  store %"struct.std::_Rb_tree_node"* %1, %"struct.std::_Rb_tree_node"** %28, align 8
  %29 = load %"class.std::_Rb_tree"*, %"class.std::_Rb_tree"** %27, align 8
  %30 = load %"struct.std::_Rb_tree_node"*, %"struct.std::_Rb_tree_node"** %28, align 8
  call void @_ZNSt8_Rb_treeINSt7__cxx1112basic_stringIcSt11char_traitsIcESaIcEEESt4pairIKS5_St3setIS5_St4lessIS5_ESaIS5_EEESt10_Select1stISD_ESA_SaISD_EE15_M_destroy_nodeEPSt13_Rb_tree_nodeISD_E(%"class.std::_Rb_tree"* %29, %"struct.std::_Rb_tree_node"* %30) #3
  %31 = load %"struct.std::_Rb_tree_node"*, %"struct.std::_Rb_tree_node"** %28, align 8
  call void @_ZNSt8_Rb_treeINSt7__cxx1112basic_stringIcSt11char_traitsIcESaIcEEESt4pairIKS5_St3setIS5_St4lessIS5_ESaIS5_EEESt10_Select1stISD_ESA_SaISD_EE11_M_put_nodeEPSt13_Rb_tree_nodeISD_E(%"class.std::_Rb_tree"* %29, %"struct.std::_Rb_tree_node"* %31) #3
  br label %11
}

; Function Attrs: noinline nounwind uwtable
define linkonce_odr void @_ZNSt8_Rb_treeINSt7__cxx1112basic_stringIcSt11char_traitsIcESaIcEEESt4pairIKS5_St3setIS5_St4lessIS5_ESaIS5_EEESt10_Select1stISD_ESA_SaISD_EE15_M_destroy_nodeEPSt13_Rb_tree_nodeISD_E(%"class.std::_Rb_tree"*, %"struct.std::_Rb_tree_node"*) #5 comdat align 2 personality i8* bitcast (i32 (...)* @__gxx_personality_v0 to i8*) {
  %3 = alloca %"class.std::_Rb_tree"*, align 8
  %4 = alloca %"struct.std::_Rb_tree_node"*, align 8
  store %"class.std::_Rb_tree"* %0, %"class.std::_Rb_tree"** %3, align 8
  store %"struct.std::_Rb_tree_node"* %1, %"struct.std::_Rb_tree_node"** %4, align 8
  %5 = load %"class.std::_Rb_tree"*, %"class.std::_Rb_tree"** %3, align 8
  %6 = call dereferenceable(1) %"class.std::allocator.0"* @_ZNSt8_Rb_treeINSt7__cxx1112basic_stringIcSt11char_traitsIcESaIcEEESt4pairIKS5_St3setIS5_St4lessIS5_ESaIS5_EEESt10_Select1stISD_ESA_SaISD_EE21_M_get_Node_allocatorEv(%"class.std::_Rb_tree"* %5) #3
  %7 = load %"struct.std::_Rb_tree_node"*, %"struct.std::_Rb_tree_node"** %4, align 8
  %8 = invoke %"struct.std::pair.7"* @_ZNSt13_Rb_tree_nodeISt4pairIKNSt7__cxx1112basic_stringIcSt11char_traitsIcESaIcEEESt3setIS6_St4lessIS6_ESaIS6_EEEE9_M_valptrEv(%"struct.std::_Rb_tree_node"* %7)
          to label %9 unwind label %30

; <label>:9:                                      ; preds = %2
  invoke void @_ZNSt16allocator_traitsISaISt13_Rb_tree_nodeISt4pairIKNSt7__cxx1112basic_stringIcSt11char_traitsIcESaIcEEESt3setIS7_St4lessIS7_ESaIS7_EEEEEE7destroyISE_EEvRSG_PT_(%"class.std::allocator.0"* dereferenceable(1) %6, %"struct.std::pair.7"* %8)
          to label %10 unwind label %30

; <label>:10:                                     ; preds = %9
  %11 = load i32, i32* @x.30
  %12 = load i32, i32* @y.31
  %13 = sub i32 %11, 1
  %14 = mul i32 %11, %13
  %15 = urem i32 %14, 2
  %16 = icmp eq i32 %15, 0
  %17 = icmp slt i32 %12, 10
  %18 = or i1 %16, %17
  br i1 %18, label %19, label %33

; <label>:19:                                     ; preds = %10, %33
  %20 = load %"struct.std::_Rb_tree_node"*, %"struct.std::_Rb_tree_node"** %4, align 8
  %21 = load i32, i32* @x.30
  %22 = load i32, i32* @y.31
  %23 = sub i32 %21, 1
  %24 = mul i32 %21, %23
  %25 = urem i32 %24, 2
  %26 = icmp eq i32 %25, 0
  %27 = icmp slt i32 %22, 10
  %28 = or i1 %26, %27
  br i1 %28, label %29, label %33

; <label>:29:                                     ; preds = %19
  ret void

; <label>:30:                                     ; preds = %9, %2
  %31 = landingpad { i8*, i32 }
          catch i8* null
  %32 = extractvalue { i8*, i32 } %31, 0
  call void @__clang_call_terminate(i8* %32) #9
  unreachable

; <label>:33:                                     ; preds = %19, %10
  %34 = load %"struct.std::_Rb_tree_node"*, %"struct.std::_Rb_tree_node"** %4, align 8
  br label %19
}

; Function Attrs: noinline nounwind uwtable
define linkonce_odr void @_ZNSt8_Rb_treeINSt7__cxx1112basic_stringIcSt11char_traitsIcESaIcEEESt4pairIKS5_St3setIS5_St4lessIS5_ESaIS5_EEESt10_Select1stISD_ESA_SaISD_EE11_M_put_nodeEPSt13_Rb_tree_nodeISD_E(%"class.std::_Rb_tree"*, %"struct.std::_Rb_tree_node"*) #5 comdat align 2 personality i8* bitcast (i32 (...)* @__gxx_personality_v0 to i8*) {
  %3 = load i32, i32* @x.32
  %4 = load i32, i32* @y.33
  %5 = sub i32 %3, 1
  %6 = mul i32 %3, %5
  %7 = urem i32 %6, 2
  %8 = icmp eq i32 %7, 0
  %9 = icmp slt i32 %4, 10
  %10 = or i1 %8, %9
  br i1 %10, label %11, label %48

; <label>:11:                                     ; preds = %2, %48
  %12 = alloca %"class.std::_Rb_tree"*, align 8
  %13 = alloca %"struct.std::_Rb_tree_node"*, align 8
  store %"class.std::_Rb_tree"* %0, %"class.std::_Rb_tree"** %12, align 8
  store %"struct.std::_Rb_tree_node"* %1, %"struct.std::_Rb_tree_node"** %13, align 8
  %14 = load %"class.std::_Rb_tree"*, %"class.std::_Rb_tree"** %12, align 8
  %15 = call dereferenceable(1) %"class.std::allocator.0"* @_ZNSt8_Rb_treeINSt7__cxx1112basic_stringIcSt11char_traitsIcESaIcEEESt4pairIKS5_St3setIS5_St4lessIS5_ESaIS5_EEESt10_Select1stISD_ESA_SaISD_EE21_M_get_Node_allocatorEv(%"class.std::_Rb_tree"* %14) #3
  %16 = load %"struct.std::_Rb_tree_node"*, %"struct.std::_Rb_tree_node"** %13, align 8
  %17 = load i32, i32* @x.32
  %18 = load i32, i32* @y.33
  %19 = sub i32 %17, 1
  %20 = mul i32 %17, %19
  %21 = urem i32 %20, 2
  %22 = icmp eq i32 %21, 0
  %23 = icmp slt i32 %18, 10
  %24 = or i1 %22, %23
  br i1 %24, label %25, label %48

; <label>:25:                                     ; preds = %11
  invoke void @_ZNSt16allocator_traitsISaISt13_Rb_tree_nodeISt4pairIKNSt7__cxx1112basic_stringIcSt11char_traitsIcESaIcEEESt3setIS7_St4lessIS7_ESaIS7_EEEEEE10deallocateERSG_PSF_m(%"class.std::allocator.0"* dereferenceable(1) %15, %"struct.std::_Rb_tree_node"* %16, i64 1)
          to label %26 unwind label %27

; <label>:26:                                     ; preds = %25
  ret void

; <label>:27:                                     ; preds = %25
  %28 = load i32, i32* @x.32
  %29 = load i32, i32* @y.33
  %30 = sub i32 %28, 1
  %31 = mul i32 %28, %30
  %32 = urem i32 %31, 2
  %33 = icmp eq i32 %32, 0
  %34 = icmp slt i32 %29, 10
  %35 = or i1 %33, %34
  br i1 %35, label %36, label %54

; <label>:36:                                     ; preds = %27, %54
  %37 = landingpad { i8*, i32 }
          catch i8* null
  %38 = extractvalue { i8*, i32 } %37, 0
  call void @__clang_call_terminate(i8* %38) #9
  %39 = load i32, i32* @x.32
  %40 = load i32, i32* @y.33
  %41 = sub i32 %39, 1
  %42 = mul i32 %39, %41
  %43 = urem i32 %42, 2
  %44 = icmp eq i32 %43, 0
  %45 = icmp slt i32 %40, 10
  %46 = or i1 %44, %45
  br i1 %46, label %47, label %54

; <label>:47:                                     ; preds = %36
  unreachable

; <label>:48:                                     ; preds = %11, %2
  %49 = alloca %"class.std::_Rb_tree"*, align 8
  %50 = alloca %"struct.std::_Rb_tree_node"*, align 8
  store %"class.std::_Rb_tree"* %0, %"class.std::_Rb_tree"** %49, align 8
  store %"struct.std::_Rb_tree_node"* %1, %"struct.std::_Rb_tree_node"** %50, align 8
  %51 = load %"class.std::_Rb_tree"*, %"class.std::_Rb_tree"** %49, align 8
  %52 = call dereferenceable(1) %"class.std::allocator.0"* @_ZNSt8_Rb_treeINSt7__cxx1112basic_stringIcSt11char_traitsIcESaIcEEESt4pairIKS5_St3setIS5_St4lessIS5_ESaIS5_EEESt10_Select1stISD_ESA_SaISD_EE21_M_get_Node_allocatorEv(%"class.std::_Rb_tree"* %51) #3
  %53 = load %"struct.std::_Rb_tree_node"*, %"struct.std::_Rb_tree_node"** %50, align 8
  br label %11

; <label>:54:                                     ; preds = %36, %27
  %55 = landingpad { i8*, i32 }
          catch i8* null
  %56 = extractvalue { i8*, i32 } %55, 0
  call void @__clang_call_terminate(i8* %56) #9
  br label %36
}

; Function Attrs: noinline uwtable
define linkonce_odr void @_ZNSt16allocator_traitsISaISt13_Rb_tree_nodeISt4pairIKNSt7__cxx1112basic_stringIcSt11char_traitsIcESaIcEEESt3setIS7_St4lessIS7_ESaIS7_EEEEEE7destroyISE_EEvRSG_PT_(%"class.std::allocator.0"* dereferenceable(1), %"struct.std::pair.7"*) #0 comdat align 2 {
  %3 = alloca %"class.std::allocator.0"*, align 8
  %4 = alloca %"struct.std::pair.7"*, align 8
  store %"class.std::allocator.0"* %0, %"class.std::allocator.0"** %3, align 8
  store %"struct.std::pair.7"* %1, %"struct.std::pair.7"** %4, align 8
  %5 = load %"class.std::allocator.0"*, %"class.std::allocator.0"** %3, align 8
  %6 = bitcast %"class.std::allocator.0"* %5 to %"class.__gnu_cxx::new_allocator.1"*
  %7 = load %"struct.std::pair.7"*, %"struct.std::pair.7"** %4, align 8
  call void @_ZN9__gnu_cxx13new_allocatorISt13_Rb_tree_nodeISt4pairIKNSt7__cxx1112basic_stringIcSt11char_traitsIcESaIcEEESt3setIS8_St4lessIS8_ESaIS8_EEEEE7destroyISF_EEvPT_(%"class.__gnu_cxx::new_allocator.1"* %6, %"struct.std::pair.7"* %7)
  ret void
}

; Function Attrs: noinline nounwind uwtable
define linkonce_odr dereferenceable(1) %"class.std::allocator.0"* @_ZNSt8_Rb_treeINSt7__cxx1112basic_stringIcSt11char_traitsIcESaIcEEESt4pairIKS5_St3setIS5_St4lessIS5_ESaIS5_EEESt10_Select1stISD_ESA_SaISD_EE21_M_get_Node_allocatorEv(%"class.std::_Rb_tree"*) #5 comdat align 2 {
  %2 = alloca %"class.std::_Rb_tree"*, align 8
  store %"class.std::_Rb_tree"* %0, %"class.std::_Rb_tree"** %2, align 8
  %3 = load %"class.std::_Rb_tree"*, %"class.std::_Rb_tree"** %2, align 8
  %4 = getelementptr inbounds %"class.std::_Rb_tree", %"class.std::_Rb_tree"* %3, i32 0, i32 0
  %5 = bitcast %"struct.std::_Rb_tree<std::__cxx11::basic_string<char>, std::pair<const std::__cxx11::basic_string<char>, std::set<std::__cxx11::basic_string<char>, std::less<std::__cxx11::basic_string<char> >, std::allocator<std::__cxx11::basic_string<char> > > >, std::_Select1st<std::pair<const std::__cxx11::basic_string<char>, std::set<std::__cxx11::basic_string<char>, std::less<std::__cxx11::basic_string<char> >, std::allocator<std::__cxx11::basic_string<char> > > > >, std::less<std::__cxx11::basic_string<char> >, std::allocator<std::pair<const std::__cxx11::basic_string<char>, std::set<std::__cxx11::basic_string<char>, std::less<std::__cxx11::basic_string<char> >, std::allocator<std::__cxx11::basic_string<char> > > > > >::_Rb_tree_impl"* %4 to %"class.std::allocator.0"*
  ret %"class.std::allocator.0"* %5
}

; Function Attrs: noinline nounwind uwtable
define linkonce_odr %"struct.std::pair.7"* @_ZNSt13_Rb_tree_nodeISt4pairIKNSt7__cxx1112basic_stringIcSt11char_traitsIcESaIcEEESt3setIS6_St4lessIS6_ESaIS6_EEEE9_M_valptrEv(%"struct.std::_Rb_tree_node"*) #5 comdat align 2 {
  %2 = alloca %"struct.std::_Rb_tree_node"*, align 8
  store %"struct.std::_Rb_tree_node"* %0, %"struct.std::_Rb_tree_node"** %2, align 8
  %3 = load %"struct.std::_Rb_tree_node"*, %"struct.std::_Rb_tree_node"** %2, align 8
  %4 = getelementptr inbounds %"struct.std::_Rb_tree_node", %"struct.std::_Rb_tree_node"* %3, i32 0, i32 1
  %5 = call %"struct.std::pair.7"* @_ZN9__gnu_cxx16__aligned_membufISt4pairIKNSt7__cxx1112basic_stringIcSt11char_traitsIcESaIcEEESt3setIS7_St4lessIS7_ESaIS7_EEEE6_M_ptrEv(%"struct.__gnu_cxx::__aligned_membuf"* %4) #3
  ret %"struct.std::pair.7"* %5
}

; Function Attrs: noinline nounwind uwtable
define linkonce_odr void @_ZN9__gnu_cxx13new_allocatorISt13_Rb_tree_nodeISt4pairIKNSt7__cxx1112basic_stringIcSt11char_traitsIcESaIcEEESt3setIS8_St4lessIS8_ESaIS8_EEEEE7destroyISF_EEvPT_(%"class.__gnu_cxx::new_allocator.1"*, %"struct.std::pair.7"*) #5 comdat align 2 {
  %3 = load i32, i32* @x.40
  %4 = load i32, i32* @y.41
  %5 = sub i32 %3, 1
  %6 = mul i32 %3, %5
  %7 = urem i32 %6, 2
  %8 = icmp eq i32 %7, 0
  %9 = icmp slt i32 %4, 10
  %10 = or i1 %8, %9
  br i1 %10, label %11, label %25

; <label>:11:                                     ; preds = %2, %25
  %12 = alloca %"class.__gnu_cxx::new_allocator.1"*, align 8
  %13 = alloca %"struct.std::pair.7"*, align 8
  store %"class.__gnu_cxx::new_allocator.1"* %0, %"class.__gnu_cxx::new_allocator.1"** %12, align 8
  store %"struct.std::pair.7"* %1, %"struct.std::pair.7"** %13, align 8
  %14 = load %"class.__gnu_cxx::new_allocator.1"*, %"class.__gnu_cxx::new_allocator.1"** %12, align 8
  %15 = load %"struct.std::pair.7"*, %"struct.std::pair.7"** %13, align 8
  call void @_ZNSt4pairIKNSt7__cxx1112basic_stringIcSt11char_traitsIcESaIcEEESt3setIS5_St4lessIS5_ESaIS5_EEED2Ev(%"struct.std::pair.7"* %15) #3
  %16 = load i32, i32* @x.40
  %17 = load i32, i32* @y.41
  %18 = sub i32 %16, 1
  %19 = mul i32 %16, %18
  %20 = urem i32 %19, 2
  %21 = icmp eq i32 %20, 0
  %22 = icmp slt i32 %17, 10
  %23 = or i1 %21, %22
  br i1 %23, label %24, label %25

; <label>:24:                                     ; preds = %11
  ret void

; <label>:25:                                     ; preds = %11, %2
  %26 = alloca %"class.__gnu_cxx::new_allocator.1"*, align 8
  %27 = alloca %"struct.std::pair.7"*, align 8
  store %"class.__gnu_cxx::new_allocator.1"* %0, %"class.__gnu_cxx::new_allocator.1"** %26, align 8
  store %"struct.std::pair.7"* %1, %"struct.std::pair.7"** %27, align 8
  %28 = load %"class.__gnu_cxx::new_allocator.1"*, %"class.__gnu_cxx::new_allocator.1"** %26, align 8
  %29 = load %"struct.std::pair.7"*, %"struct.std::pair.7"** %27, align 8
  call void @_ZNSt4pairIKNSt7__cxx1112basic_stringIcSt11char_traitsIcESaIcEEESt3setIS5_St4lessIS5_ESaIS5_EEED2Ev(%"struct.std::pair.7"* %29) #3
  br label %11
}

; Function Attrs: noinline nounwind uwtable
define linkonce_odr void @_ZNSt4pairIKNSt7__cxx1112basic_stringIcSt11char_traitsIcESaIcEEESt3setIS5_St4lessIS5_ESaIS5_EEED2Ev(%"struct.std::pair.7"*) unnamed_addr #5 comdat align 2 {
  %2 = alloca %"struct.std::pair.7"*, align 8
  store %"struct.std::pair.7"* %0, %"struct.std::pair.7"** %2, align 8
  %3 = load %"struct.std::pair.7"*, %"struct.std::pair.7"** %2, align 8
  %4 = getelementptr inbounds %"struct.std::pair.7", %"struct.std::pair.7"* %3, i32 0, i32 1
  call void @_ZNSt3setINSt7__cxx1112basic_stringIcSt11char_traitsIcESaIcEEESt4lessIS5_ESaIS5_EED2Ev(%"class.std::set"* %4) #3
  %5 = getelementptr inbounds %"struct.std::pair.7", %"struct.std::pair.7"* %3, i32 0, i32 0
  call void @_ZNSt7__cxx1112basic_stringIcSt11char_traitsIcESaIcEED1Ev(%"class.std::__cxx11::basic_string"* %5) #3
  ret void
}

; Function Attrs: noinline nounwind uwtable
define linkonce_odr void @_ZNSt3setINSt7__cxx1112basic_stringIcSt11char_traitsIcESaIcEEESt4lessIS5_ESaIS5_EED2Ev(%"class.std::set"*) unnamed_addr #5 comdat align 2 {
  %2 = alloca %"class.std::set"*, align 8
  store %"class.std::set"* %0, %"class.std::set"** %2, align 8
  %3 = load %"class.std::set"*, %"class.std::set"** %2, align 8
  %4 = getelementptr inbounds %"class.std::set", %"class.std::set"* %3, i32 0, i32 0
  call void @_ZNSt8_Rb_treeINSt7__cxx1112basic_stringIcSt11char_traitsIcESaIcEEES5_St9_IdentityIS5_ESt4lessIS5_ESaIS5_EED2Ev(%"class.std::_Rb_tree.3"* %4) #3
  ret void
}

; Function Attrs: noinline nounwind uwtable
define linkonce_odr void @_ZNSt8_Rb_treeINSt7__cxx1112basic_stringIcSt11char_traitsIcESaIcEEES5_St9_IdentityIS5_ESt4lessIS5_ESaIS5_EED2Ev(%"class.std::_Rb_tree.3"*) unnamed_addr #5 comdat align 2 personality i8* bitcast (i32 (...)* @__gxx_personality_v0 to i8*) {
  %2 = load i32, i32* @x.46
  %3 = load i32, i32* @y.47
  %4 = sub i32 %2, 1
  %5 = mul i32 %2, %4
  %6 = urem i32 %5, 2
  %7 = icmp eq i32 %6, 0
  %8 = icmp slt i32 %3, 10
  %9 = or i1 %7, %8
  br i1 %9, label %10, label %34

; <label>:10:                                     ; preds = %1, %34
  %11 = alloca %"class.std::_Rb_tree.3"*, align 8
  %12 = alloca i8*
  %13 = alloca i32
  store %"class.std::_Rb_tree.3"* %0, %"class.std::_Rb_tree.3"** %11, align 8
  %14 = load %"class.std::_Rb_tree.3"*, %"class.std::_Rb_tree.3"** %11, align 8
  %15 = call %"struct.std::_Rb_tree_node.8"* @_ZNSt8_Rb_treeINSt7__cxx1112basic_stringIcSt11char_traitsIcESaIcEEES5_St9_IdentityIS5_ESt4lessIS5_ESaIS5_EE8_M_beginEv(%"class.std::_Rb_tree.3"* %14) #3
  %16 = load i32, i32* @x.46
  %17 = load i32, i32* @y.47
  %18 = sub i32 %16, 1
  %19 = mul i32 %16, %18
  %20 = urem i32 %19, 2
  %21 = icmp eq i32 %20, 0
  %22 = icmp slt i32 %17, 10
  %23 = or i1 %21, %22
  br i1 %23, label %24, label %34

; <label>:24:                                     ; preds = %10
  invoke void @_ZNSt8_Rb_treeINSt7__cxx1112basic_stringIcSt11char_traitsIcESaIcEEES5_St9_IdentityIS5_ESt4lessIS5_ESaIS5_EE8_M_eraseEPSt13_Rb_tree_nodeIS5_E(%"class.std::_Rb_tree.3"* %14, %"struct.std::_Rb_tree_node.8"* %15)
          to label %25 unwind label %27

; <label>:25:                                     ; preds = %24
  %26 = getelementptr inbounds %"class.std::_Rb_tree.3", %"class.std::_Rb_tree.3"* %14, i32 0, i32 0
  call void @_ZNSt8_Rb_treeINSt7__cxx1112basic_stringIcSt11char_traitsIcESaIcEEES5_St9_IdentityIS5_ESt4lessIS5_ESaIS5_EE13_Rb_tree_implIS9_Lb1EED2Ev(%"struct.std::_Rb_tree<std::__cxx11::basic_string<char>, std::__cxx11::basic_string<char>, std::_Identity<std::__cxx11::basic_string<char> >, std::less<std::__cxx11::basic_string<char> >, std::allocator<std::__cxx11::basic_string<char> > >::_Rb_tree_impl"* %26) #3
  ret void

; <label>:27:                                     ; preds = %24
  %28 = landingpad { i8*, i32 }
          catch i8* null
  %29 = extractvalue { i8*, i32 } %28, 0
  store i8* %29, i8** %12, align 8
  %30 = extractvalue { i8*, i32 } %28, 1
  store i32 %30, i32* %13, align 4
  %31 = getelementptr inbounds %"class.std::_Rb_tree.3", %"class.std::_Rb_tree.3"* %14, i32 0, i32 0
  call void @_ZNSt8_Rb_treeINSt7__cxx1112basic_stringIcSt11char_traitsIcESaIcEEES5_St9_IdentityIS5_ESt4lessIS5_ESaIS5_EE13_Rb_tree_implIS9_Lb1EED2Ev(%"struct.std::_Rb_tree<std::__cxx11::basic_string<char>, std::__cxx11::basic_string<char>, std::_Identity<std::__cxx11::basic_string<char> >, std::less<std::__cxx11::basic_string<char> >, std::allocator<std::__cxx11::basic_string<char> > >::_Rb_tree_impl"* %31) #3
  br label %32

; <label>:32:                                     ; preds = %27
  %33 = load i8*, i8** %12, align 8
  call void @__clang_call_terminate(i8* %33) #9
  unreachable

; <label>:34:                                     ; preds = %10, %1
  %35 = alloca %"class.std::_Rb_tree.3"*, align 8
  %36 = alloca i8*
  %37 = alloca i32
  store %"class.std::_Rb_tree.3"* %0, %"class.std::_Rb_tree.3"** %35, align 8
  %38 = load %"class.std::_Rb_tree.3"*, %"class.std::_Rb_tree.3"** %35, align 8
  %39 = call %"struct.std::_Rb_tree_node.8"* @_ZNSt8_Rb_treeINSt7__cxx1112basic_stringIcSt11char_traitsIcESaIcEEES5_St9_IdentityIS5_ESt4lessIS5_ESaIS5_EE8_M_beginEv(%"class.std::_Rb_tree.3"* %38) #3
  br label %10
}

; Function Attrs: noinline uwtable
define linkonce_odr void @_ZNSt8_Rb_treeINSt7__cxx1112basic_stringIcSt11char_traitsIcESaIcEEES5_St9_IdentityIS5_ESt4lessIS5_ESaIS5_EE8_M_eraseEPSt13_Rb_tree_nodeIS5_E(%"class.std::_Rb_tree.3"*, %"struct.std::_Rb_tree_node.8"*) #0 comdat align 2 {
  %3 = load i32, i32* @x.48
  %4 = load i32, i32* @y.49
  %5 = sub i32 %3, 1
  %6 = mul i32 %3, %5
  %7 = urem i32 %6, 2
  %8 = icmp eq i32 %7, 0
  %9 = icmp slt i32 %4, 10
  %10 = or i1 %8, %9
  br i1 %10, label %11, label %56

; <label>:11:                                     ; preds = %2, %56
  %12 = alloca %"class.std::_Rb_tree.3"*, align 8
  %13 = alloca %"struct.std::_Rb_tree_node.8"*, align 8
  %14 = alloca %"struct.std::_Rb_tree_node.8"*, align 8
  store %"class.std::_Rb_tree.3"* %0, %"class.std::_Rb_tree.3"** %12, align 8
  store %"struct.std::_Rb_tree_node.8"* %1, %"struct.std::_Rb_tree_node.8"** %13, align 8
  %15 = load %"class.std::_Rb_tree.3"*, %"class.std::_Rb_tree.3"** %12, align 8
  %16 = load i32, i32* @x.48
  %17 = load i32, i32* @y.49
  %18 = sub i32 %16, 1
  %19 = mul i32 %16, %18
  %20 = urem i32 %19, 2
  %21 = icmp eq i32 %20, 0
  %22 = icmp slt i32 %17, 10
  %23 = or i1 %21, %22
  br i1 %23, label %24, label %56

; <label>:24:                                     ; preds = %11
  br label %25

; <label>:25:                                     ; preds = %46, %24
  %26 = load i32, i32* @x.48
  %27 = load i32, i32* @y.49
  %28 = sub i32 %26, 1
  %29 = mul i32 %26, %28
  %30 = urem i32 %29, 2
  %31 = icmp eq i32 %30, 0
  %32 = icmp slt i32 %27, 10
  %33 = or i1 %31, %32
  br i1 %33, label %34, label %61

; <label>:34:                                     ; preds = %25, %61
  %35 = load %"struct.std::_Rb_tree_node.8"*, %"struct.std::_Rb_tree_node.8"** %13, align 8
  %36 = icmp ne %"struct.std::_Rb_tree_node.8"* %35, null
  %37 = load i32, i32* @x.48
  %38 = load i32, i32* @y.49
  %39 = sub i32 %37, 1
  %40 = mul i32 %37, %39
  %41 = urem i32 %40, 2
  %42 = icmp eq i32 %41, 0
  %43 = icmp slt i32 %38, 10
  %44 = or i1 %42, %43
  br i1 %44, label %45, label %61

; <label>:45:                                     ; preds = %34
  br i1 %36, label %46, label %55

; <label>:46:                                     ; preds = %45
  %47 = load %"struct.std::_Rb_tree_node.8"*, %"struct.std::_Rb_tree_node.8"** %13, align 8
  %48 = bitcast %"struct.std::_Rb_tree_node.8"* %47 to %"struct.std::_Rb_tree_node_base"*
  %49 = call %"struct.std::_Rb_tree_node.8"* @_ZNSt8_Rb_treeINSt7__cxx1112basic_stringIcSt11char_traitsIcESaIcEEES5_St9_IdentityIS5_ESt4lessIS5_ESaIS5_EE8_S_rightEPSt18_Rb_tree_node_base(%"struct.std::_Rb_tree_node_base"* %48) #3
  call void @_ZNSt8_Rb_treeINSt7__cxx1112basic_stringIcSt11char_traitsIcESaIcEEES5_St9_IdentityIS5_ESt4lessIS5_ESaIS5_EE8_M_eraseEPSt13_Rb_tree_nodeIS5_E(%"class.std::_Rb_tree.3"* %15, %"struct.std::_Rb_tree_node.8"* %49)
  %50 = load %"struct.std::_Rb_tree_node.8"*, %"struct.std::_Rb_tree_node.8"** %13, align 8
  %51 = bitcast %"struct.std::_Rb_tree_node.8"* %50 to %"struct.std::_Rb_tree_node_base"*
  %52 = call %"struct.std::_Rb_tree_node.8"* @_ZNSt8_Rb_treeINSt7__cxx1112basic_stringIcSt11char_traitsIcESaIcEEES5_St9_IdentityIS5_ESt4lessIS5_ESaIS5_EE7_S_leftEPSt18_Rb_tree_node_base(%"struct.std::_Rb_tree_node_base"* %51) #3
  store %"struct.std::_Rb_tree_node.8"* %52, %"struct.std::_Rb_tree_node.8"** %14, align 8
  %53 = load %"struct.std::_Rb_tree_node.8"*, %"struct.std::_Rb_tree_node.8"** %13, align 8
  call void @_ZNSt8_Rb_treeINSt7__cxx1112basic_stringIcSt11char_traitsIcESaIcEEES5_St9_IdentityIS5_ESt4lessIS5_ESaIS5_EE12_M_drop_nodeEPSt13_Rb_tree_nodeIS5_E(%"class.std::_Rb_tree.3"* %15, %"struct.std::_Rb_tree_node.8"* %53) #3
  %54 = load %"struct.std::_Rb_tree_node.8"*, %"struct.std::_Rb_tree_node.8"** %14, align 8
  store %"struct.std::_Rb_tree_node.8"* %54, %"struct.std::_Rb_tree_node.8"** %13, align 8
  br label %25

; <label>:55:                                     ; preds = %45
  ret void

; <label>:56:                                     ; preds = %11, %2
  %57 = alloca %"class.std::_Rb_tree.3"*, align 8
  %58 = alloca %"struct.std::_Rb_tree_node.8"*, align 8
  %59 = alloca %"struct.std::_Rb_tree_node.8"*, align 8
  store %"class.std::_Rb_tree.3"* %0, %"class.std::_Rb_tree.3"** %57, align 8
  store %"struct.std::_Rb_tree_node.8"* %1, %"struct.std::_Rb_tree_node.8"** %58, align 8
  %60 = load %"class.std::_Rb_tree.3"*, %"class.std::_Rb_tree.3"** %57, align 8
  br label %11

; <label>:61:                                     ; preds = %34, %25
  %62 = load %"struct.std::_Rb_tree_node.8"*, %"struct.std::_Rb_tree_node.8"** %13, align 8
  %63 = icmp ne %"struct.std::_Rb_tree_node.8"* %62, null
  br label %34
}

; Function Attrs: noinline nounwind uwtable
define linkonce_odr %"struct.std::_Rb_tree_node.8"* @_ZNSt8_Rb_treeINSt7__cxx1112basic_stringIcSt11char_traitsIcESaIcEEES5_St9_IdentityIS5_ESt4lessIS5_ESaIS5_EE8_M_beginEv(%"class.std::_Rb_tree.3"*) #5 comdat align 2 {
  %2 = alloca %"class.std::_Rb_tree.3"*, align 8
  store %"class.std::_Rb_tree.3"* %0, %"class.std::_Rb_tree.3"** %2, align 8
  %3 = load %"class.std::_Rb_tree.3"*, %"class.std::_Rb_tree.3"** %2, align 8
  %4 = getelementptr inbounds %"class.std::_Rb_tree.3", %"class.std::_Rb_tree.3"* %3, i32 0, i32 0
  %5 = getelementptr inbounds %"struct.std::_Rb_tree<std::__cxx11::basic_string<char>, std::__cxx11::basic_string<char>, std::_Identity<std::__cxx11::basic_string<char> >, std::less<std::__cxx11::basic_string<char> >, std::allocator<std::__cxx11::basic_string<char> > >::_Rb_tree_impl", %"struct.std::_Rb_tree<std::__cxx11::basic_string<char>, std::__cxx11::basic_string<char>, std::_Identity<std::__cxx11::basic_string<char> >, std::less<std::__cxx11::basic_string<char> >, std::allocator<std::__cxx11::basic_string<char> > >::_Rb_tree_impl"* %4, i32 0, i32 1
  %6 = getelementptr inbounds %"struct.std::_Rb_tree_node_base", %"struct.std::_Rb_tree_node_base"* %5, i32 0, i32 1
  %7 = load %"struct.std::_Rb_tree_node_base"*, %"struct.std::_Rb_tree_node_base"** %6, align 8
  %8 = bitcast %"struct.std::_Rb_tree_node_base"* %7 to %"struct.std::_Rb_tree_node.8"*
  ret %"struct.std::_Rb_tree_node.8"* %8
}

; Function Attrs: noinline nounwind uwtable
define linkonce_odr void @_ZNSt8_Rb_treeINSt7__cxx1112basic_stringIcSt11char_traitsIcESaIcEEES5_St9_IdentityIS5_ESt4lessIS5_ESaIS5_EE13_Rb_tree_implIS9_Lb1EED2Ev(%"struct.std::_Rb_tree<std::__cxx11::basic_string<char>, std::__cxx11::basic_string<char>, std::_Identity<std::__cxx11::basic_string<char> >, std::less<std::__cxx11::basic_string<char> >, std::allocator<std::__cxx11::basic_string<char> > >::_Rb_tree_impl"*) unnamed_addr #5 comdat align 2 {
  %2 = load i32, i32* @x.52
  %3 = load i32, i32* @y.53
  %4 = sub i32 %2, 1
  %5 = mul i32 %2, %4
  %6 = urem i32 %5, 2
  %7 = icmp eq i32 %6, 0
  %8 = icmp slt i32 %3, 10
  %9 = or i1 %7, %8
  br i1 %9, label %10, label %23

; <label>:10:                                     ; preds = %1, %23
  %11 = alloca %"struct.std::_Rb_tree<std::__cxx11::basic_string<char>, std::__cxx11::basic_string<char>, std::_Identity<std::__cxx11::basic_string<char> >, std::less<std::__cxx11::basic_string<char> >, std::allocator<std::__cxx11::basic_string<char> > >::_Rb_tree_impl"*, align 8
  store %"struct.std::_Rb_tree<std::__cxx11::basic_string<char>, std::__cxx11::basic_string<char>, std::_Identity<std::__cxx11::basic_string<char> >, std::less<std::__cxx11::basic_string<char> >, std::allocator<std::__cxx11::basic_string<char> > >::_Rb_tree_impl"* %0, %"struct.std::_Rb_tree<std::__cxx11::basic_string<char>, std::__cxx11::basic_string<char>, std::_Identity<std::__cxx11::basic_string<char> >, std::less<std::__cxx11::basic_string<char> >, std::allocator<std::__cxx11::basic_string<char> > >::_Rb_tree_impl"** %11, align 8
  %12 = load %"struct.std::_Rb_tree<std::__cxx11::basic_string<char>, std::__cxx11::basic_string<char>, std::_Identity<std::__cxx11::basic_string<char> >, std::less<std::__cxx11::basic_string<char> >, std::allocator<std::__cxx11::basic_string<char> > >::_Rb_tree_impl"*, %"struct.std::_Rb_tree<std::__cxx11::basic_string<char>, std::__cxx11::basic_string<char>, std::_Identity<std::__cxx11::basic_string<char> >, std::less<std::__cxx11::basic_string<char> >, std::allocator<std::__cxx11::basic_string<char> > >::_Rb_tree_impl"** %11, align 8
  %13 = bitcast %"struct.std::_Rb_tree<std::__cxx11::basic_string<char>, std::__cxx11::basic_string<char>, std::_Identity<std::__cxx11::basic_string<char> >, std::less<std::__cxx11::basic_string<char> >, std::allocator<std::__cxx11::basic_string<char> > >::_Rb_tree_impl"* %12 to %"class.std::allocator.4"*
  call void @_ZNSaISt13_Rb_tree_nodeINSt7__cxx1112basic_stringIcSt11char_traitsIcESaIcEEEEED2Ev(%"class.std::allocator.4"* %13) #3
  %14 = load i32, i32* @x.52
  %15 = load i32, i32* @y.53
  %16 = sub i32 %14, 1
  %17 = mul i32 %14, %16
  %18 = urem i32 %17, 2
  %19 = icmp eq i32 %18, 0
  %20 = icmp slt i32 %15, 10
  %21 = or i1 %19, %20
  br i1 %21, label %22, label %23

; <label>:22:                                     ; preds = %10
  ret void

; <label>:23:                                     ; preds = %10, %1
  %24 = alloca %"struct.std::_Rb_tree<std::__cxx11::basic_string<char>, std::__cxx11::basic_string<char>, std::_Identity<std::__cxx11::basic_string<char> >, std::less<std::__cxx11::basic_string<char> >, std::allocator<std::__cxx11::basic_string<char> > >::_Rb_tree_impl"*, align 8
  store %"struct.std::_Rb_tree<std::__cxx11::basic_string<char>, std::__cxx11::basic_string<char>, std::_Identity<std::__cxx11::basic_string<char> >, std::less<std::__cxx11::basic_string<char> >, std::allocator<std::__cxx11::basic_string<char> > >::_Rb_tree_impl"* %0, %"struct.std::_Rb_tree<std::__cxx11::basic_string<char>, std::__cxx11::basic_string<char>, std::_Identity<std::__cxx11::basic_string<char> >, std::less<std::__cxx11::basic_string<char> >, std::allocator<std::__cxx11::basic_string<char> > >::_Rb_tree_impl"** %24, align 8
  %25 = load %"struct.std::_Rb_tree<std::__cxx11::basic_string<char>, std::__cxx11::basic_string<char>, std::_Identity<std::__cxx11::basic_string<char> >, std::less<std::__cxx11::basic_string<char> >, std::allocator<std::__cxx11::basic_string<char> > >::_Rb_tree_impl"*, %"struct.std::_Rb_tree<std::__cxx11::basic_string<char>, std::__cxx11::basic_string<char>, std::_Identity<std::__cxx11::basic_string<char> >, std::less<std::__cxx11::basic_string<char> >, std::allocator<std::__cxx11::basic_string<char> > >::_Rb_tree_impl"** %24, align 8
  %26 = bitcast %"struct.std::_Rb_tree<std::__cxx11::basic_string<char>, std::__cxx11::basic_string<char>, std::_Identity<std::__cxx11::basic_string<char> >, std::less<std::__cxx11::basic_string<char> >, std::allocator<std::__cxx11::basic_string<char> > >::_Rb_tree_impl"* %25 to %"class.std::allocator.4"*
  call void @_ZNSaISt13_Rb_tree_nodeINSt7__cxx1112basic_stringIcSt11char_traitsIcESaIcEEEEED2Ev(%"class.std::allocator.4"* %26) #3
  br label %10
}

; Function Attrs: noinline nounwind uwtable
define linkonce_odr %"struct.std::_Rb_tree_node.8"* @_ZNSt8_Rb_treeINSt7__cxx1112basic_stringIcSt11char_traitsIcESaIcEEES5_St9_IdentityIS5_ESt4lessIS5_ESaIS5_EE8_S_rightEPSt18_Rb_tree_node_base(%"struct.std::_Rb_tree_node_base"*) #5 comdat align 2 {
  %2 = alloca %"struct.std::_Rb_tree_node_base"*, align 8
  store %"struct.std::_Rb_tree_node_base"* %0, %"struct.std::_Rb_tree_node_base"** %2, align 8
  %3 = load %"struct.std::_Rb_tree_node_base"*, %"struct.std::_Rb_tree_node_base"** %2, align 8
  %4 = getelementptr inbounds %"struct.std::_Rb_tree_node_base", %"struct.std::_Rb_tree_node_base"* %3, i32 0, i32 3
  %5 = load %"struct.std::_Rb_tree_node_base"*, %"struct.std::_Rb_tree_node_base"** %4, align 8
  %6 = bitcast %"struct.std::_Rb_tree_node_base"* %5 to %"struct.std::_Rb_tree_node.8"*
  ret %"struct.std::_Rb_tree_node.8"* %6
}

; Function Attrs: noinline nounwind uwtable
define linkonce_odr %"struct.std::_Rb_tree_node.8"* @_ZNSt8_Rb_treeINSt7__cxx1112basic_stringIcSt11char_traitsIcESaIcEEES5_St9_IdentityIS5_ESt4lessIS5_ESaIS5_EE7_S_leftEPSt18_Rb_tree_node_base(%"struct.std::_Rb_tree_node_base"*) #5 comdat align 2 {
  %2 = alloca %"struct.std::_Rb_tree_node_base"*, align 8
  store %"struct.std::_Rb_tree_node_base"* %0, %"struct.std::_Rb_tree_node_base"** %2, align 8
  %3 = load %"struct.std::_Rb_tree_node_base"*, %"struct.std::_Rb_tree_node_base"** %2, align 8
  %4 = getelementptr inbounds %"struct.std::_Rb_tree_node_base", %"struct.std::_Rb_tree_node_base"* %3, i32 0, i32 2
  %5 = load %"struct.std::_Rb_tree_node_base"*, %"struct.std::_Rb_tree_node_base"** %4, align 8
  %6 = bitcast %"struct.std::_Rb_tree_node_base"* %5 to %"struct.std::_Rb_tree_node.8"*
  ret %"struct.std::_Rb_tree_node.8"* %6
}

; Function Attrs: noinline nounwind uwtable
define linkonce_odr void @_ZNSt8_Rb_treeINSt7__cxx1112basic_stringIcSt11char_traitsIcESaIcEEES5_St9_IdentityIS5_ESt4lessIS5_ESaIS5_EE12_M_drop_nodeEPSt13_Rb_tree_nodeIS5_E(%"class.std::_Rb_tree.3"*, %"struct.std::_Rb_tree_node.8"*) #5 comdat align 2 {
  %3 = load i32, i32* @x.58
  %4 = load i32, i32* @y.59
  %5 = sub i32 %3, 1
  %6 = mul i32 %3, %5
  %7 = urem i32 %6, 2
  %8 = icmp eq i32 %7, 0
  %9 = icmp slt i32 %4, 10
  %10 = or i1 %8, %9
  br i1 %10, label %11, label %26

; <label>:11:                                     ; preds = %2, %26
  %12 = alloca %"class.std::_Rb_tree.3"*, align 8
  %13 = alloca %"struct.std::_Rb_tree_node.8"*, align 8
  store %"class.std::_Rb_tree.3"* %0, %"class.std::_Rb_tree.3"** %12, align 8
  store %"struct.std::_Rb_tree_node.8"* %1, %"struct.std::_Rb_tree_node.8"** %13, align 8
  %14 = load %"class.std::_Rb_tree.3"*, %"class.std::_Rb_tree.3"** %12, align 8
  %15 = load %"struct.std::_Rb_tree_node.8"*, %"struct.std::_Rb_tree_node.8"** %13, align 8
  call void @_ZNSt8_Rb_treeINSt7__cxx1112basic_stringIcSt11char_traitsIcESaIcEEES5_St9_IdentityIS5_ESt4lessIS5_ESaIS5_EE15_M_destroy_nodeEPSt13_Rb_tree_nodeIS5_E(%"class.std::_Rb_tree.3"* %14, %"struct.std::_Rb_tree_node.8"* %15) #3
  %16 = load %"struct.std::_Rb_tree_node.8"*, %"struct.std::_Rb_tree_node.8"** %13, align 8
  call void @_ZNSt8_Rb_treeINSt7__cxx1112basic_stringIcSt11char_traitsIcESaIcEEES5_St9_IdentityIS5_ESt4lessIS5_ESaIS5_EE11_M_put_nodeEPSt13_Rb_tree_nodeIS5_E(%"class.std::_Rb_tree.3"* %14, %"struct.std::_Rb_tree_node.8"* %16) #3
  %17 = load i32, i32* @x.58
  %18 = load i32, i32* @y.59
  %19 = sub i32 %17, 1
  %20 = mul i32 %17, %19
  %21 = urem i32 %20, 2
  %22 = icmp eq i32 %21, 0
  %23 = icmp slt i32 %18, 10
  %24 = or i1 %22, %23
  br i1 %24, label %25, label %26

; <label>:25:                                     ; preds = %11
  ret void

; <label>:26:                                     ; preds = %11, %2
  %27 = alloca %"class.std::_Rb_tree.3"*, align 8
  %28 = alloca %"struct.std::_Rb_tree_node.8"*, align 8
  store %"class.std::_Rb_tree.3"* %0, %"class.std::_Rb_tree.3"** %27, align 8
  store %"struct.std::_Rb_tree_node.8"* %1, %"struct.std::_Rb_tree_node.8"** %28, align 8
  %29 = load %"class.std::_Rb_tree.3"*, %"class.std::_Rb_tree.3"** %27, align 8
  %30 = load %"struct.std::_Rb_tree_node.8"*, %"struct.std::_Rb_tree_node.8"** %28, align 8
  call void @_ZNSt8_Rb_treeINSt7__cxx1112basic_stringIcSt11char_traitsIcESaIcEEES5_St9_IdentityIS5_ESt4lessIS5_ESaIS5_EE15_M_destroy_nodeEPSt13_Rb_tree_nodeIS5_E(%"class.std::_Rb_tree.3"* %29, %"struct.std::_Rb_tree_node.8"* %30) #3
  %31 = load %"struct.std::_Rb_tree_node.8"*, %"struct.std::_Rb_tree_node.8"** %28, align 8
  call void @_ZNSt8_Rb_treeINSt7__cxx1112basic_stringIcSt11char_traitsIcESaIcEEES5_St9_IdentityIS5_ESt4lessIS5_ESaIS5_EE11_M_put_nodeEPSt13_Rb_tree_nodeIS5_E(%"class.std::_Rb_tree.3"* %29, %"struct.std::_Rb_tree_node.8"* %31) #3
  br label %11
}

; Function Attrs: noinline nounwind uwtable
define linkonce_odr void @_ZNSt8_Rb_treeINSt7__cxx1112basic_stringIcSt11char_traitsIcESaIcEEES5_St9_IdentityIS5_ESt4lessIS5_ESaIS5_EE15_M_destroy_nodeEPSt13_Rb_tree_nodeIS5_E(%"class.std::_Rb_tree.3"*, %"struct.std::_Rb_tree_node.8"*) #5 comdat align 2 personality i8* bitcast (i32 (...)* @__gxx_personality_v0 to i8*) {
  %3 = alloca %"class.std::_Rb_tree.3"*, align 8
  %4 = alloca %"struct.std::_Rb_tree_node.8"*, align 8
  store %"class.std::_Rb_tree.3"* %0, %"class.std::_Rb_tree.3"** %3, align 8
  store %"struct.std::_Rb_tree_node.8"* %1, %"struct.std::_Rb_tree_node.8"** %4, align 8
  %5 = load %"class.std::_Rb_tree.3"*, %"class.std::_Rb_tree.3"** %3, align 8
  %6 = call dereferenceable(1) %"class.std::allocator.4"* @_ZNSt8_Rb_treeINSt7__cxx1112basic_stringIcSt11char_traitsIcESaIcEEES5_St9_IdentityIS5_ESt4lessIS5_ESaIS5_EE21_M_get_Node_allocatorEv(%"class.std::_Rb_tree.3"* %5) #3
  %7 = load %"struct.std::_Rb_tree_node.8"*, %"struct.std::_Rb_tree_node.8"** %4, align 8
  %8 = invoke %"class.std::__cxx11::basic_string"* @_ZNSt13_Rb_tree_nodeINSt7__cxx1112basic_stringIcSt11char_traitsIcESaIcEEEE9_M_valptrEv(%"struct.std::_Rb_tree_node.8"* %7)
          to label %9 unwind label %12

; <label>:9:                                      ; preds = %2
  invoke void @_ZNSt16allocator_traitsISaISt13_Rb_tree_nodeINSt7__cxx1112basic_stringIcSt11char_traitsIcESaIcEEEEEE7destroyIS6_EEvRS8_PT_(%"class.std::allocator.4"* dereferenceable(1) %6, %"class.std::__cxx11::basic_string"* %8)
          to label %10 unwind label %12

; <label>:10:                                     ; preds = %9
  %11 = load %"struct.std::_Rb_tree_node.8"*, %"struct.std::_Rb_tree_node.8"** %4, align 8
  ret void

; <label>:12:                                     ; preds = %9, %2
  %13 = landingpad { i8*, i32 }
          catch i8* null
  %14 = extractvalue { i8*, i32 } %13, 0
  call void @__clang_call_terminate(i8* %14) #9
  unreachable
}

; Function Attrs: noinline nounwind uwtable
define linkonce_odr void @_ZNSt8_Rb_treeINSt7__cxx1112basic_stringIcSt11char_traitsIcESaIcEEES5_St9_IdentityIS5_ESt4lessIS5_ESaIS5_EE11_M_put_nodeEPSt13_Rb_tree_nodeIS5_E(%"class.std::_Rb_tree.3"*, %"struct.std::_Rb_tree_node.8"*) #5 comdat align 2 personality i8* bitcast (i32 (...)* @__gxx_personality_v0 to i8*) {
  %3 = alloca %"class.std::_Rb_tree.3"*, align 8
  %4 = alloca %"struct.std::_Rb_tree_node.8"*, align 8
  store %"class.std::_Rb_tree.3"* %0, %"class.std::_Rb_tree.3"** %3, align 8
  store %"struct.std::_Rb_tree_node.8"* %1, %"struct.std::_Rb_tree_node.8"** %4, align 8
  %5 = load %"class.std::_Rb_tree.3"*, %"class.std::_Rb_tree.3"** %3, align 8
  %6 = call dereferenceable(1) %"class.std::allocator.4"* @_ZNSt8_Rb_treeINSt7__cxx1112basic_stringIcSt11char_traitsIcESaIcEEES5_St9_IdentityIS5_ESt4lessIS5_ESaIS5_EE21_M_get_Node_allocatorEv(%"class.std::_Rb_tree.3"* %5) #3
  %7 = load %"struct.std::_Rb_tree_node.8"*, %"struct.std::_Rb_tree_node.8"** %4, align 8
  invoke void @_ZNSt16allocator_traitsISaISt13_Rb_tree_nodeINSt7__cxx1112basic_stringIcSt11char_traitsIcESaIcEEEEEE10deallocateERS8_PS7_m(%"class.std::allocator.4"* dereferenceable(1) %6, %"struct.std::_Rb_tree_node.8"* %7, i64 1)
          to label %8 unwind label %27

; <label>:8:                                      ; preds = %2
  %9 = load i32, i32* @x.62
  %10 = load i32, i32* @y.63
  %11 = sub i32 %9, 1
  %12 = mul i32 %9, %11
  %13 = urem i32 %12, 2
  %14 = icmp eq i32 %13, 0
  %15 = icmp slt i32 %10, 10
  %16 = or i1 %14, %15
  br i1 %16, label %17, label %48

; <label>:17:                                     ; preds = %8, %48
  %18 = load i32, i32* @x.62
  %19 = load i32, i32* @y.63
  %20 = sub i32 %18, 1
  %21 = mul i32 %18, %20
  %22 = urem i32 %21, 2
  %23 = icmp eq i32 %22, 0
  %24 = icmp slt i32 %19, 10
  %25 = or i1 %23, %24
  br i1 %25, label %26, label %48

; <label>:26:                                     ; preds = %17
  ret void

; <label>:27:                                     ; preds = %2
  %28 = load i32, i32* @x.62
  %29 = load i32, i32* @y.63
  %30 = sub i32 %28, 1
  %31 = mul i32 %28, %30
  %32 = urem i32 %31, 2
  %33 = icmp eq i32 %32, 0
  %34 = icmp slt i32 %29, 10
  %35 = or i1 %33, %34
  br i1 %35, label %36, label %49

; <label>:36:                                     ; preds = %27, %49
  %37 = landingpad { i8*, i32 }
          catch i8* null
  %38 = extractvalue { i8*, i32 } %37, 0
  call void @__clang_call_terminate(i8* %38) #9
  %39 = load i32, i32* @x.62
  %40 = load i32, i32* @y.63
  %41 = sub i32 %39, 1
  %42 = mul i32 %39, %41
  %43 = urem i32 %42, 2
  %44 = icmp eq i32 %43, 0
  %45 = icmp slt i32 %40, 10
  %46 = or i1 %44, %45
  br i1 %46, label %47, label %49

; <label>:47:                                     ; preds = %36
  unreachable

; <label>:48:                                     ; preds = %17, %8
  br label %17

; <label>:49:                                     ; preds = %36, %27
  %50 = landingpad { i8*, i32 }
          catch i8* null
  %51 = extractvalue { i8*, i32 } %50, 0
  call void @__clang_call_terminate(i8* %51) #9
  br label %36
}

; Function Attrs: noinline uwtable
define linkonce_odr void @_ZNSt16allocator_traitsISaISt13_Rb_tree_nodeINSt7__cxx1112basic_stringIcSt11char_traitsIcESaIcEEEEEE7destroyIS6_EEvRS8_PT_(%"class.std::allocator.4"* dereferenceable(1), %"class.std::__cxx11::basic_string"*) #0 comdat align 2 {
  %3 = alloca %"class.std::allocator.4"*, align 8
  %4 = alloca %"class.std::__cxx11::basic_string"*, align 8
  store %"class.std::allocator.4"* %0, %"class.std::allocator.4"** %3, align 8
  store %"class.std::__cxx11::basic_string"* %1, %"class.std::__cxx11::basic_string"** %4, align 8
  %5 = load %"class.std::allocator.4"*, %"class.std::allocator.4"** %3, align 8
  %6 = bitcast %"class.std::allocator.4"* %5 to %"class.__gnu_cxx::new_allocator.5"*
  %7 = load %"class.std::__cxx11::basic_string"*, %"class.std::__cxx11::basic_string"** %4, align 8
  call void @_ZN9__gnu_cxx13new_allocatorISt13_Rb_tree_nodeINSt7__cxx1112basic_stringIcSt11char_traitsIcESaIcEEEEE7destroyIS7_EEvPT_(%"class.__gnu_cxx::new_allocator.5"* %6, %"class.std::__cxx11::basic_string"* %7)
  ret void
}

; Function Attrs: noinline nounwind uwtable
define linkonce_odr dereferenceable(1) %"class.std::allocator.4"* @_ZNSt8_Rb_treeINSt7__cxx1112basic_stringIcSt11char_traitsIcESaIcEEES5_St9_IdentityIS5_ESt4lessIS5_ESaIS5_EE21_M_get_Node_allocatorEv(%"class.std::_Rb_tree.3"*) #5 comdat align 2 {
  %2 = load i32, i32* @x.66
  %3 = load i32, i32* @y.67
  %4 = sub i32 %2, 1
  %5 = mul i32 %2, %4
  %6 = urem i32 %5, 2
  %7 = icmp eq i32 %6, 0
  %8 = icmp slt i32 %3, 10
  %9 = or i1 %7, %8
  br i1 %9, label %10, label %24

; <label>:10:                                     ; preds = %1, %24
  %11 = alloca %"class.std::_Rb_tree.3"*, align 8
  store %"class.std::_Rb_tree.3"* %0, %"class.std::_Rb_tree.3"** %11, align 8
  %12 = load %"class.std::_Rb_tree.3"*, %"class.std::_Rb_tree.3"** %11, align 8
  %13 = getelementptr inbounds %"class.std::_Rb_tree.3", %"class.std::_Rb_tree.3"* %12, i32 0, i32 0
  %14 = bitcast %"struct.std::_Rb_tree<std::__cxx11::basic_string<char>, std::__cxx11::basic_string<char>, std::_Identity<std::__cxx11::basic_string<char> >, std::less<std::__cxx11::basic_string<char> >, std::allocator<std::__cxx11::basic_string<char> > >::_Rb_tree_impl"* %13 to %"class.std::allocator.4"*
  %15 = load i32, i32* @x.66
  %16 = load i32, i32* @y.67
  %17 = sub i32 %15, 1
  %18 = mul i32 %15, %17
  %19 = urem i32 %18, 2
  %20 = icmp eq i32 %19, 0
  %21 = icmp slt i32 %16, 10
  %22 = or i1 %20, %21
  br i1 %22, label %23, label %24

; <label>:23:                                     ; preds = %10
  ret %"class.std::allocator.4"* %14

; <label>:24:                                     ; preds = %10, %1
  %25 = alloca %"class.std::_Rb_tree.3"*, align 8
  store %"class.std::_Rb_tree.3"* %0, %"class.std::_Rb_tree.3"** %25, align 8
  %26 = load %"class.std::_Rb_tree.3"*, %"class.std::_Rb_tree.3"** %25, align 8
  %27 = getelementptr inbounds %"class.std::_Rb_tree.3", %"class.std::_Rb_tree.3"* %26, i32 0, i32 0
  %28 = bitcast %"struct.std::_Rb_tree<std::__cxx11::basic_string<char>, std::__cxx11::basic_string<char>, std::_Identity<std::__cxx11::basic_string<char> >, std::less<std::__cxx11::basic_string<char> >, std::allocator<std::__cxx11::basic_string<char> > >::_Rb_tree_impl"* %27 to %"class.std::allocator.4"*
  br label %10
}

; Function Attrs: noinline nounwind uwtable
define linkonce_odr %"class.std::__cxx11::basic_string"* @_ZNSt13_Rb_tree_nodeINSt7__cxx1112basic_stringIcSt11char_traitsIcESaIcEEEE9_M_valptrEv(%"struct.std::_Rb_tree_node.8"*) #5 comdat align 2 {
  %2 = alloca %"struct.std::_Rb_tree_node.8"*, align 8
  store %"struct.std::_Rb_tree_node.8"* %0, %"struct.std::_Rb_tree_node.8"** %2, align 8
  %3 = load %"struct.std::_Rb_tree_node.8"*, %"struct.std::_Rb_tree_node.8"** %2, align 8
  %4 = getelementptr inbounds %"struct.std::_Rb_tree_node.8", %"struct.std::_Rb_tree_node.8"* %3, i32 0, i32 1
  %5 = call %"class.std::__cxx11::basic_string"* @_ZN9__gnu_cxx16__aligned_membufINSt7__cxx1112basic_stringIcSt11char_traitsIcESaIcEEEE6_M_ptrEv(%"struct.__gnu_cxx::__aligned_membuf.9"* %4) #3
  ret %"class.std::__cxx11::basic_string"* %5
}

; Function Attrs: noinline nounwind uwtable
define linkonce_odr void @_ZN9__gnu_cxx13new_allocatorISt13_Rb_tree_nodeINSt7__cxx1112basic_stringIcSt11char_traitsIcESaIcEEEEE7destroyIS7_EEvPT_(%"class.__gnu_cxx::new_allocator.5"*, %"class.std::__cxx11::basic_string"*) #5 comdat align 2 {
  %3 = load i32, i32* @x.70
  %4 = load i32, i32* @y.71
  %5 = sub i32 %3, 1
  %6 = mul i32 %3, %5
  %7 = urem i32 %6, 2
  %8 = icmp eq i32 %7, 0
  %9 = icmp slt i32 %4, 10
  %10 = or i1 %8, %9
  br i1 %10, label %11, label %25

; <label>:11:                                     ; preds = %2, %25
  %12 = alloca %"class.__gnu_cxx::new_allocator.5"*, align 8
  %13 = alloca %"class.std::__cxx11::basic_string"*, align 8
  store %"class.__gnu_cxx::new_allocator.5"* %0, %"class.__gnu_cxx::new_allocator.5"** %12, align 8
  store %"class.std::__cxx11::basic_string"* %1, %"class.std::__cxx11::basic_string"** %13, align 8
  %14 = load %"class.__gnu_cxx::new_allocator.5"*, %"class.__gnu_cxx::new_allocator.5"** %12, align 8
  %15 = load %"class.std::__cxx11::basic_string"*, %"class.std::__cxx11::basic_string"** %13, align 8
  call void @_ZNSt7__cxx1112basic_stringIcSt11char_traitsIcESaIcEED1Ev(%"class.std::__cxx11::basic_string"* %15) #3
  %16 = load i32, i32* @x.70
  %17 = load i32, i32* @y.71
  %18 = sub i32 %16, 1
  %19 = mul i32 %16, %18
  %20 = urem i32 %19, 2
  %21 = icmp eq i32 %20, 0
  %22 = icmp slt i32 %17, 10
  %23 = or i1 %21, %22
  br i1 %23, label %24, label %25

; <label>:24:                                     ; preds = %11
  ret void

; <label>:25:                                     ; preds = %11, %2
  %26 = alloca %"class.__gnu_cxx::new_allocator.5"*, align 8
  %27 = alloca %"class.std::__cxx11::basic_string"*, align 8
  store %"class.__gnu_cxx::new_allocator.5"* %0, %"class.__gnu_cxx::new_allocator.5"** %26, align 8
  store %"class.std::__cxx11::basic_string"* %1, %"class.std::__cxx11::basic_string"** %27, align 8
  %28 = load %"class.__gnu_cxx::new_allocator.5"*, %"class.__gnu_cxx::new_allocator.5"** %26, align 8
  %29 = load %"class.std::__cxx11::basic_string"*, %"class.std::__cxx11::basic_string"** %27, align 8
  call void @_ZNSt7__cxx1112basic_stringIcSt11char_traitsIcESaIcEED1Ev(%"class.std::__cxx11::basic_string"* %29) #3
  br label %11
}

; Function Attrs: noinline nounwind uwtable
define linkonce_odr %"class.std::__cxx11::basic_string"* @_ZN9__gnu_cxx16__aligned_membufINSt7__cxx1112basic_stringIcSt11char_traitsIcESaIcEEEE6_M_ptrEv(%"struct.__gnu_cxx::__aligned_membuf.9"*) #5 comdat align 2 {
  %2 = alloca %"struct.__gnu_cxx::__aligned_membuf.9"*, align 8
  store %"struct.__gnu_cxx::__aligned_membuf.9"* %0, %"struct.__gnu_cxx::__aligned_membuf.9"** %2, align 8
  %3 = load %"struct.__gnu_cxx::__aligned_membuf.9"*, %"struct.__gnu_cxx::__aligned_membuf.9"** %2, align 8
  %4 = call i8* @_ZN9__gnu_cxx16__aligned_membufINSt7__cxx1112basic_stringIcSt11char_traitsIcESaIcEEEE7_M_addrEv(%"struct.__gnu_cxx::__aligned_membuf.9"* %3) #3
  %5 = bitcast i8* %4 to %"class.std::__cxx11::basic_string"*
  ret %"class.std::__cxx11::basic_string"* %5
}

; Function Attrs: noinline nounwind uwtable
define linkonce_odr i8* @_ZN9__gnu_cxx16__aligned_membufINSt7__cxx1112basic_stringIcSt11char_traitsIcESaIcEEEE7_M_addrEv(%"struct.__gnu_cxx::__aligned_membuf.9"*) #5 comdat align 2 {
  %2 = alloca %"struct.__gnu_cxx::__aligned_membuf.9"*, align 8
  store %"struct.__gnu_cxx::__aligned_membuf.9"* %0, %"struct.__gnu_cxx::__aligned_membuf.9"** %2, align 8
  %3 = load %"struct.__gnu_cxx::__aligned_membuf.9"*, %"struct.__gnu_cxx::__aligned_membuf.9"** %2, align 8
  %4 = getelementptr inbounds %"struct.__gnu_cxx::__aligned_membuf.9", %"struct.__gnu_cxx::__aligned_membuf.9"* %3, i32 0, i32 0
  %5 = bitcast [32 x i8]* %4 to i8*
  ret i8* %5
}

; Function Attrs: noinline uwtable
define linkonce_odr void @_ZNSt16allocator_traitsISaISt13_Rb_tree_nodeINSt7__cxx1112basic_stringIcSt11char_traitsIcESaIcEEEEEE10deallocateERS8_PS7_m(%"class.std::allocator.4"* dereferenceable(1), %"struct.std::_Rb_tree_node.8"*, i64) #0 comdat align 2 {
  %4 = alloca %"class.std::allocator.4"*, align 8
  %5 = alloca %"struct.std::_Rb_tree_node.8"*, align 8
  %6 = alloca i64, align 8
  store %"class.std::allocator.4"* %0, %"class.std::allocator.4"** %4, align 8
  store %"struct.std::_Rb_tree_node.8"* %1, %"struct.std::_Rb_tree_node.8"** %5, align 8
  store i64 %2, i64* %6, align 8
  %7 = load %"class.std::allocator.4"*, %"class.std::allocator.4"** %4, align 8
  %8 = bitcast %"class.std::allocator.4"* %7 to %"class.__gnu_cxx::new_allocator.5"*
  %9 = load %"struct.std::_Rb_tree_node.8"*, %"struct.std::_Rb_tree_node.8"** %5, align 8
  %10 = load i64, i64* %6, align 8
  call void @_ZN9__gnu_cxx13new_allocatorISt13_Rb_tree_nodeINSt7__cxx1112basic_stringIcSt11char_traitsIcESaIcEEEEE10deallocateEPS8_m(%"class.__gnu_cxx::new_allocator.5"* %8, %"struct.std::_Rb_tree_node.8"* %9, i64 %10)
  ret void
}

; Function Attrs: noinline nounwind uwtable
define linkonce_odr void @_ZN9__gnu_cxx13new_allocatorISt13_Rb_tree_nodeINSt7__cxx1112basic_stringIcSt11char_traitsIcESaIcEEEEE10deallocateEPS8_m(%"class.__gnu_cxx::new_allocator.5"*, %"struct.std::_Rb_tree_node.8"*, i64) #5 comdat align 2 {
  %4 = alloca %"class.__gnu_cxx::new_allocator.5"*, align 8
  %5 = alloca %"struct.std::_Rb_tree_node.8"*, align 8
  %6 = alloca i64, align 8
  store %"class.__gnu_cxx::new_allocator.5"* %0, %"class.__gnu_cxx::new_allocator.5"** %4, align 8
  store %"struct.std::_Rb_tree_node.8"* %1, %"struct.std::_Rb_tree_node.8"** %5, align 8
  store i64 %2, i64* %6, align 8
  %7 = load %"class.__gnu_cxx::new_allocator.5"*, %"class.__gnu_cxx::new_allocator.5"** %4, align 8
  %8 = load %"struct.std::_Rb_tree_node.8"*, %"struct.std::_Rb_tree_node.8"** %5, align 8
  %9 = bitcast %"struct.std::_Rb_tree_node.8"* %8 to i8*
  call void @_ZdlPv(i8* %9) #3
  ret void
}

; Function Attrs: nobuiltin nounwind
declare void @_ZdlPv(i8*) #7

; Function Attrs: noinline nounwind uwtable
define linkonce_odr void @_ZNSaISt13_Rb_tree_nodeINSt7__cxx1112basic_stringIcSt11char_traitsIcESaIcEEEEED2Ev(%"class.std::allocator.4"*) unnamed_addr #5 comdat align 2 {
  %2 = alloca %"class.std::allocator.4"*, align 8
  store %"class.std::allocator.4"* %0, %"class.std::allocator.4"** %2, align 8
  %3 = load %"class.std::allocator.4"*, %"class.std::allocator.4"** %2, align 8
  %4 = bitcast %"class.std::allocator.4"* %3 to %"class.__gnu_cxx::new_allocator.5"*
  call void @_ZN9__gnu_cxx13new_allocatorISt13_Rb_tree_nodeINSt7__cxx1112basic_stringIcSt11char_traitsIcESaIcEEEEED2Ev(%"class.__gnu_cxx::new_allocator.5"* %4) #3
  ret void
}

; Function Attrs: noinline nounwind uwtable
define linkonce_odr void @_ZN9__gnu_cxx13new_allocatorISt13_Rb_tree_nodeINSt7__cxx1112basic_stringIcSt11char_traitsIcESaIcEEEEED2Ev(%"class.__gnu_cxx::new_allocator.5"*) unnamed_addr #5 comdat align 2 {
  %2 = alloca %"class.__gnu_cxx::new_allocator.5"*, align 8
  store %"class.__gnu_cxx::new_allocator.5"* %0, %"class.__gnu_cxx::new_allocator.5"** %2, align 8
  %3 = load %"class.__gnu_cxx::new_allocator.5"*, %"class.__gnu_cxx::new_allocator.5"** %2, align 8
  ret void
}

; Function Attrs: noinline nounwind uwtable
define linkonce_odr %"struct.std::pair.7"* @_ZN9__gnu_cxx16__aligned_membufISt4pairIKNSt7__cxx1112basic_stringIcSt11char_traitsIcESaIcEEESt3setIS7_St4lessIS7_ESaIS7_EEEE6_M_ptrEv(%"struct.__gnu_cxx::__aligned_membuf"*) #5 comdat align 2 {
  %2 = alloca %"struct.__gnu_cxx::__aligned_membuf"*, align 8
  store %"struct.__gnu_cxx::__aligned_membuf"* %0, %"struct.__gnu_cxx::__aligned_membuf"** %2, align 8
  %3 = load %"struct.__gnu_cxx::__aligned_membuf"*, %"struct.__gnu_cxx::__aligned_membuf"** %2, align 8
  %4 = call i8* @_ZN9__gnu_cxx16__aligned_membufISt4pairIKNSt7__cxx1112basic_stringIcSt11char_traitsIcESaIcEEESt3setIS7_St4lessIS7_ESaIS7_EEEE7_M_addrEv(%"struct.__gnu_cxx::__aligned_membuf"* %3) #3
  %5 = bitcast i8* %4 to %"struct.std::pair.7"*
  ret %"struct.std::pair.7"* %5
}

; Function Attrs: noinline nounwind uwtable
define linkonce_odr i8* @_ZN9__gnu_cxx16__aligned_membufISt4pairIKNSt7__cxx1112basic_stringIcSt11char_traitsIcESaIcEEESt3setIS7_St4lessIS7_ESaIS7_EEEE7_M_addrEv(%"struct.__gnu_cxx::__aligned_membuf"*) #5 comdat align 2 {
  %2 = load i32, i32* @x.86
  %3 = load i32, i32* @y.87
  %4 = sub i32 %2, 1
  %5 = mul i32 %2, %4
  %6 = urem i32 %5, 2
  %7 = icmp eq i32 %6, 0
  %8 = icmp slt i32 %3, 10
  %9 = or i1 %7, %8
  br i1 %9, label %10, label %24

; <label>:10:                                     ; preds = %1, %24
  %11 = alloca %"struct.__gnu_cxx::__aligned_membuf"*, align 8
  store %"struct.__gnu_cxx::__aligned_membuf"* %0, %"struct.__gnu_cxx::__aligned_membuf"** %11, align 8
  %12 = load %"struct.__gnu_cxx::__aligned_membuf"*, %"struct.__gnu_cxx::__aligned_membuf"** %11, align 8
  %13 = getelementptr inbounds %"struct.__gnu_cxx::__aligned_membuf", %"struct.__gnu_cxx::__aligned_membuf"* %12, i32 0, i32 0
  %14 = bitcast [80 x i8]* %13 to i8*
  %15 = load i32, i32* @x.86
  %16 = load i32, i32* @y.87
  %17 = sub i32 %15, 1
  %18 = mul i32 %15, %17
  %19 = urem i32 %18, 2
  %20 = icmp eq i32 %19, 0
  %21 = icmp slt i32 %16, 10
  %22 = or i1 %20, %21
  br i1 %22, label %23, label %24

; <label>:23:                                     ; preds = %10
  ret i8* %14

; <label>:24:                                     ; preds = %10, %1
  %25 = alloca %"struct.__gnu_cxx::__aligned_membuf"*, align 8
  store %"struct.__gnu_cxx::__aligned_membuf"* %0, %"struct.__gnu_cxx::__aligned_membuf"** %25, align 8
  %26 = load %"struct.__gnu_cxx::__aligned_membuf"*, %"struct.__gnu_cxx::__aligned_membuf"** %25, align 8
  %27 = getelementptr inbounds %"struct.__gnu_cxx::__aligned_membuf", %"struct.__gnu_cxx::__aligned_membuf"* %26, i32 0, i32 0
  %28 = bitcast [80 x i8]* %27 to i8*
  br label %10
}

; Function Attrs: noinline uwtable
define linkonce_odr void @_ZNSt16allocator_traitsISaISt13_Rb_tree_nodeISt4pairIKNSt7__cxx1112basic_stringIcSt11char_traitsIcESaIcEEESt3setIS7_St4lessIS7_ESaIS7_EEEEEE10deallocateERSG_PSF_m(%"class.std::allocator.0"* dereferenceable(1), %"struct.std::_Rb_tree_node"*, i64) #0 comdat align 2 {
  %4 = alloca %"class.std::allocator.0"*, align 8
  %5 = alloca %"struct.std::_Rb_tree_node"*, align 8
  %6 = alloca i64, align 8
  store %"class.std::allocator.0"* %0, %"class.std::allocator.0"** %4, align 8
  store %"struct.std::_Rb_tree_node"* %1, %"struct.std::_Rb_tree_node"** %5, align 8
  store i64 %2, i64* %6, align 8
  %7 = load %"class.std::allocator.0"*, %"class.std::allocator.0"** %4, align 8
  %8 = bitcast %"class.std::allocator.0"* %7 to %"class.__gnu_cxx::new_allocator.1"*
  %9 = load %"struct.std::_Rb_tree_node"*, %"struct.std::_Rb_tree_node"** %5, align 8
  %10 = load i64, i64* %6, align 8
  call void @_ZN9__gnu_cxx13new_allocatorISt13_Rb_tree_nodeISt4pairIKNSt7__cxx1112basic_stringIcSt11char_traitsIcESaIcEEESt3setIS8_St4lessIS8_ESaIS8_EEEEE10deallocateEPSG_m(%"class.__gnu_cxx::new_allocator.1"* %8, %"struct.std::_Rb_tree_node"* %9, i64 %10)
  ret void
}

; Function Attrs: noinline nounwind uwtable
define linkonce_odr void @_ZN9__gnu_cxx13new_allocatorISt13_Rb_tree_nodeISt4pairIKNSt7__cxx1112basic_stringIcSt11char_traitsIcESaIcEEESt3setIS8_St4lessIS8_ESaIS8_EEEEE10deallocateEPSG_m(%"class.__gnu_cxx::new_allocator.1"*, %"struct.std::_Rb_tree_node"*, i64) #5 comdat align 2 {
  %4 = alloca %"class.__gnu_cxx::new_allocator.1"*, align 8
  %5 = alloca %"struct.std::_Rb_tree_node"*, align 8
  %6 = alloca i64, align 8
  store %"class.__gnu_cxx::new_allocator.1"* %0, %"class.__gnu_cxx::new_allocator.1"** %4, align 8
  store %"struct.std::_Rb_tree_node"* %1, %"struct.std::_Rb_tree_node"** %5, align 8
  store i64 %2, i64* %6, align 8
  %7 = load %"class.__gnu_cxx::new_allocator.1"*, %"class.__gnu_cxx::new_allocator.1"** %4, align 8
  %8 = load %"struct.std::_Rb_tree_node"*, %"struct.std::_Rb_tree_node"** %5, align 8
  %9 = bitcast %"struct.std::_Rb_tree_node"* %8 to i8*
  call void @_ZdlPv(i8* %9) #3
  ret void
}

; Function Attrs: noinline nounwind uwtable
define linkonce_odr void @_ZNSaISt13_Rb_tree_nodeISt4pairIKNSt7__cxx1112basic_stringIcSt11char_traitsIcESaIcEEESt3setIS6_St4lessIS6_ESaIS6_EEEEED2Ev(%"class.std::allocator.0"*) unnamed_addr #5 comdat align 2 {
  %2 = alloca %"class.std::allocator.0"*, align 8
  store %"class.std::allocator.0"* %0, %"class.std::allocator.0"** %2, align 8
  %3 = load %"class.std::allocator.0"*, %"class.std::allocator.0"** %2, align 8
  %4 = bitcast %"class.std::allocator.0"* %3 to %"class.__gnu_cxx::new_allocator.1"*
  call void @_ZN9__gnu_cxx13new_allocatorISt13_Rb_tree_nodeISt4pairIKNSt7__cxx1112basic_stringIcSt11char_traitsIcESaIcEEESt3setIS8_St4lessIS8_ESaIS8_EEEEED2Ev(%"class.__gnu_cxx::new_allocator.1"* %4) #3
  ret void
}

; Function Attrs: noinline nounwind uwtable
define linkonce_odr void @_ZN9__gnu_cxx13new_allocatorISt13_Rb_tree_nodeISt4pairIKNSt7__cxx1112basic_stringIcSt11char_traitsIcESaIcEEESt3setIS8_St4lessIS8_ESaIS8_EEEEED2Ev(%"class.__gnu_cxx::new_allocator.1"*) unnamed_addr #5 comdat align 2 {
  %2 = alloca %"class.__gnu_cxx::new_allocator.1"*, align 8
  store %"class.__gnu_cxx::new_allocator.1"* %0, %"class.__gnu_cxx::new_allocator.1"** %2, align 8
  %3 = load %"class.__gnu_cxx::new_allocator.1"*, %"class.__gnu_cxx::new_allocator.1"** %2, align 8
  ret void
}

; Function Attrs: noinline uwtable
define linkonce_odr void @_ZNSt8_Rb_treeINSt7__cxx1112basic_stringIcSt11char_traitsIcESaIcEEESt4pairIKS5_St3setIS5_St4lessIS5_ESaIS5_EEESt10_Select1stISD_ESA_SaISD_EEC2Ev(%"class.std::_Rb_tree"*) unnamed_addr #0 comdat align 2 {
  %2 = alloca %"class.std::_Rb_tree"*, align 8
  store %"class.std::_Rb_tree"* %0, %"class.std::_Rb_tree"** %2, align 8
  %3 = load %"class.std::_Rb_tree"*, %"class.std::_Rb_tree"** %2, align 8
  %4 = getelementptr inbounds %"class.std::_Rb_tree", %"class.std::_Rb_tree"* %3, i32 0, i32 0
  call void @_ZNSt8_Rb_treeINSt7__cxx1112basic_stringIcSt11char_traitsIcESaIcEEESt4pairIKS5_St3setIS5_St4lessIS5_ESaIS5_EEESt10_Select1stISD_ESA_SaISD_EE13_Rb_tree_implISA_Lb1EEC2Ev(%"struct.std::_Rb_tree<std::__cxx11::basic_string<char>, std::pair<const std::__cxx11::basic_string<char>, std::set<std::__cxx11::basic_string<char>, std::less<std::__cxx11::basic_string<char> >, std::allocator<std::__cxx11::basic_string<char> > > >, std::_Select1st<std::pair<const std::__cxx11::basic_string<char>, std::set<std::__cxx11::basic_string<char>, std::less<std::__cxx11::basic_string<char> >, std::allocator<std::__cxx11::basic_string<char> > > > >, std::less<std::__cxx11::basic_string<char> >, std::allocator<std::pair<const std::__cxx11::basic_string<char>, std::set<std::__cxx11::basic_string<char>, std::less<std::__cxx11::basic_string<char> >, std::allocator<std::__cxx11::basic_string<char> > > > > >::_Rb_tree_impl"* %4)
  ret void
}

; Function Attrs: noinline uwtable
define linkonce_odr void @_ZNSt8_Rb_treeINSt7__cxx1112basic_stringIcSt11char_traitsIcESaIcEEESt4pairIKS5_St3setIS5_St4lessIS5_ESaIS5_EEESt10_Select1stISD_ESA_SaISD_EE13_Rb_tree_implISA_Lb1EEC2Ev(%"struct.std::_Rb_tree<std::__cxx11::basic_string<char>, std::pair<const std::__cxx11::basic_string<char>, std::set<std::__cxx11::basic_string<char>, std::less<std::__cxx11::basic_string<char> >, std::allocator<std::__cxx11::basic_string<char> > > >, std::_Select1st<std::pair<const std::__cxx11::basic_string<char>, std::set<std::__cxx11::basic_string<char>, std::less<std::__cxx11::basic_string<char> >, std::allocator<std::__cxx11::basic_string<char> > > > >, std::less<std::__cxx11::basic_string<char> >, std::allocator<std::pair<const std::__cxx11::basic_string<char>, std::set<std::__cxx11::basic_string<char>, std::less<std::__cxx11::basic_string<char> >, std::allocator<std::__cxx11::basic_string<char> > > > > >::_Rb_tree_impl"*) unnamed_addr #0 comdat align 2 personality i8* bitcast (i32 (...)* @__gxx_personality_v0 to i8*) {
  %2 = alloca %"struct.std::_Rb_tree<std::__cxx11::basic_string<char>, std::pair<const std::__cxx11::basic_string<char>, std::set<std::__cxx11::basic_string<char>, std::less<std::__cxx11::basic_string<char> >, std::allocator<std::__cxx11::basic_string<char> > > >, std::_Select1st<std::pair<const std::__cxx11::basic_string<char>, std::set<std::__cxx11::basic_string<char>, std::less<std::__cxx11::basic_string<char> >, std::allocator<std::__cxx11::basic_string<char> > > > >, std::less<std::__cxx11::basic_string<char> >, std::allocator<std::pair<const std::__cxx11::basic_string<char>, std::set<std::__cxx11::basic_string<char>, std::less<std::__cxx11::basic_string<char> >, std::allocator<std::__cxx11::basic_string<char> > > > > >::_Rb_tree_impl"*, align 8
  %3 = alloca i8*
  %4 = alloca i32
  store %"struct.std::_Rb_tree<std::__cxx11::basic_string<char>, std::pair<const std::__cxx11::basic_string<char>, std::set<std::__cxx11::basic_string<char>, std::less<std::__cxx11::basic_string<char> >, std::allocator<std::__cxx11::basic_string<char> > > >, std::_Select1st<std::pair<const std::__cxx11::basic_string<char>, std::set<std::__cxx11::basic_string<char>, std::less<std::__cxx11::basic_string<char> >, std::allocator<std::__cxx11::basic_string<char> > > > >, std::less<std::__cxx11::basic_string<char> >, std::allocator<std::pair<const std::__cxx11::basic_string<char>, std::set<std::__cxx11::basic_string<char>, std::less<std::__cxx11::basic_string<char> >, std::allocator<std::__cxx11::basic_string<char> > > > > >::_Rb_tree_impl"* %0, %"struct.std::_Rb_tree<std::__cxx11::basic_string<char>, std::pair<const std::__cxx11::basic_string<char>, std::set<std::__cxx11::basic_string<char>, std::less<std::__cxx11::basic_string<char> >, std::allocator<std::__cxx11::basic_string<char> > > >, std::_Select1st<std::pair<const std::__cxx11::basic_string<char>, std::set<std::__cxx11::basic_string<char>, std::less<std::__cxx11::basic_string<char> >, std::allocator<std::__cxx11::basic_string<char> > > > >, std::less<std::__cxx11::basic_string<char> >, std::allocator<std::pair<const std::__cxx11::basic_string<char>, std::set<std::__cxx11::basic_string<char>, std::less<std::__cxx11::basic_string<char> >, std::allocator<std::__cxx11::basic_string<char> > > > > >::_Rb_tree_impl"** %2, align 8
  %5 = load %"struct.std::_Rb_tree<std::__cxx11::basic_string<char>, std::pair<const std::__cxx11::basic_string<char>, std::set<std::__cxx11::basic_string<char>, std::less<std::__cxx11::basic_string<char> >, std::allocator<std::__cxx11::basic_string<char> > > >, std::_Select1st<std::pair<const std::__cxx11::basic_string<char>, std::set<std::__cxx11::basic_string<char>, std::less<std::__cxx11::basic_string<char> >, std::allocator<std::__cxx11::basic_string<char> > > > >, std::less<std::__cxx11::basic_string<char> >, std::allocator<std::pair<const std::__cxx11::basic_string<char>, std::set<std::__cxx11::basic_string<char>, std::less<std::__cxx11::basic_string<char> >, std::allocator<std::__cxx11::basic_string<char> > > > > >::_Rb_tree_impl"*, %"struct.std::_Rb_tree<std::__cxx11::basic_string<char>, std::pair<const std::__cxx11::basic_string<char>, std::set<std::__cxx11::basic_string<char>, std::less<std::__cxx11::basic_string<char> >, std::allocator<std::__cxx11::basic_string<char> > > >, std::_Select1st<std::pair<const std::__cxx11::basic_string<char>, std::set<std::__cxx11::basic_string<char>, std::less<std::__cxx11::basic_string<char> >, std::allocator<std::__cxx11::basic_string<char> > > > >, std::less<std::__cxx11::basic_string<char> >, std::allocator<std::pair<const std::__cxx11::basic_string<char>, std::set<std::__cxx11::basic_string<char>, std::less<std::__cxx11::basic_string<char> >, std::allocator<std::__cxx11::basic_string<char> > > > > >::_Rb_tree_impl"** %2, align 8
  %6 = bitcast %"struct.std::_Rb_tree<std::__cxx11::basic_string<char>, std::pair<const std::__cxx11::basic_string<char>, std::set<std::__cxx11::basic_string<char>, std::less<std::__cxx11::basic_string<char> >, std::allocator<std::__cxx11::basic_string<char> > > >, std::_Select1st<std::pair<const std::__cxx11::basic_string<char>, std::set<std::__cxx11::basic_string<char>, std::less<std::__cxx11::basic_string<char> >, std::allocator<std::__cxx11::basic_string<char> > > > >, std::less<std::__cxx11::basic_string<char> >, std::allocator<std::pair<const std::__cxx11::basic_string<char>, std::set<std::__cxx11::basic_string<char>, std::less<std::__cxx11::basic_string<char> >, std::allocator<std::__cxx11::basic_string<char> > > > > >::_Rb_tree_impl"* %5 to %"class.std::allocator.0"*
  call void @_ZNSaISt13_Rb_tree_nodeISt4pairIKNSt7__cxx1112basic_stringIcSt11char_traitsIcESaIcEEESt3setIS6_St4lessIS6_ESaIS6_EEEEEC2Ev(%"class.std::allocator.0"* %6) #3
  %7 = getelementptr inbounds %"struct.std::_Rb_tree<std::__cxx11::basic_string<char>, std::pair<const std::__cxx11::basic_string<char>, std::set<std::__cxx11::basic_string<char>, std::less<std::__cxx11::basic_string<char> >, std::allocator<std::__cxx11::basic_string<char> > > >, std::_Select1st<std::pair<const std::__cxx11::basic_string<char>, std::set<std::__cxx11::basic_string<char>, std::less<std::__cxx11::basic_string<char> >, std::allocator<std::__cxx11::basic_string<char> > > > >, std::less<std::__cxx11::basic_string<char> >, std::allocator<std::pair<const std::__cxx11::basic_string<char>, std::set<std::__cxx11::basic_string<char>, std::less<std::__cxx11::basic_string<char> >, std::allocator<std::__cxx11::basic_string<char> > > > > >::_Rb_tree_impl", %"struct.std::_Rb_tree<std::__cxx11::basic_string<char>, std::pair<const std::__cxx11::basic_string<char>, std::set<std::__cxx11::basic_string<char>, std::less<std::__cxx11::basic_string<char> >, std::allocator<std::__cxx11::basic_string<char> > > >, std::_Select1st<std::pair<const std::__cxx11::basic_string<char>, std::set<std::__cxx11::basic_string<char>, std::less<std::__cxx11::basic_string<char> >, std::allocator<std::__cxx11::basic_string<char> > > > >, std::less<std::__cxx11::basic_string<char> >, std::allocator<std::pair<const std::__cxx11::basic_string<char>, std::set<std::__cxx11::basic_string<char>, std::less<std::__cxx11::basic_string<char> >, std::allocator<std::__cxx11::basic_string<char> > > > > >::_Rb_tree_impl"* %5, i32 0, i32 0
  %8 = getelementptr inbounds %"struct.std::_Rb_tree<std::__cxx11::basic_string<char>, std::pair<const std::__cxx11::basic_string<char>, std::set<std::__cxx11::basic_string<char>, std::less<std::__cxx11::basic_string<char> >, std::allocator<std::__cxx11::basic_string<char> > > >, std::_Select1st<std::pair<const std::__cxx11::basic_string<char>, std::set<std::__cxx11::basic_string<char>, std::less<std::__cxx11::basic_string<char> >, std::allocator<std::__cxx11::basic_string<char> > > > >, std::less<std::__cxx11::basic_string<char> >, std::allocator<std::pair<const std::__cxx11::basic_string<char>, std::set<std::__cxx11::basic_string<char>, std::less<std::__cxx11::basic_string<char> >, std::allocator<std::__cxx11::basic_string<char> > > > > >::_Rb_tree_impl", %"struct.std::_Rb_tree<std::__cxx11::basic_string<char>, std::pair<const std::__cxx11::basic_string<char>, std::set<std::__cxx11::basic_string<char>, std::less<std::__cxx11::basic_string<char> >, std::allocator<std::__cxx11::basic_string<char> > > >, std::_Select1st<std::pair<const std::__cxx11::basic_string<char>, std::set<std::__cxx11::basic_string<char>, std::less<std::__cxx11::basic_string<char> >, std::allocator<std::__cxx11::basic_string<char> > > > >, std::less<std::__cxx11::basic_string<char> >, std::allocator<std::pair<const std::__cxx11::basic_string<char>, std::set<std::__cxx11::basic_string<char>, std::less<std::__cxx11::basic_string<char> >, std::allocator<std::__cxx11::basic_string<char> > > > > >::_Rb_tree_impl"* %5, i32 0, i32 1
  %9 = bitcast %"struct.std::_Rb_tree_node_base"* %8 to i8*
  call void @llvm.memset.p0i8.i64(i8* %9, i8 0, i64 32, i32 8, i1 false)
  %10 = getelementptr inbounds %"struct.std::_Rb_tree<std::__cxx11::basic_string<char>, std::pair<const std::__cxx11::basic_string<char>, std::set<std::__cxx11::basic_string<char>, std::less<std::__cxx11::basic_string<char> >, std::allocator<std::__cxx11::basic_string<char> > > >, std::_Select1st<std::pair<const std::__cxx11::basic_string<char>, std::set<std::__cxx11::basic_string<char>, std::less<std::__cxx11::basic_string<char> >, std::allocator<std::__cxx11::basic_string<char> > > > >, std::less<std::__cxx11::basic_string<char> >, std::allocator<std::pair<const std::__cxx11::basic_string<char>, std::set<std::__cxx11::basic_string<char>, std::less<std::__cxx11::basic_string<char> >, std::allocator<std::__cxx11::basic_string<char> > > > > >::_Rb_tree_impl", %"struct.std::_Rb_tree<std::__cxx11::basic_string<char>, std::pair<const std::__cxx11::basic_string<char>, std::set<std::__cxx11::basic_string<char>, std::less<std::__cxx11::basic_string<char> >, std::allocator<std::__cxx11::basic_string<char> > > >, std::_Select1st<std::pair<const std::__cxx11::basic_string<char>, std::set<std::__cxx11::basic_string<char>, std::less<std::__cxx11::basic_string<char> >, std::allocator<std::__cxx11::basic_string<char> > > > >, std::less<std::__cxx11::basic_string<char> >, std::allocator<std::pair<const std::__cxx11::basic_string<char>, std::set<std::__cxx11::basic_string<char>, std::less<std::__cxx11::basic_string<char> >, std::allocator<std::__cxx11::basic_string<char> > > > > >::_Rb_tree_impl"* %5, i32 0, i32 2
  store i64 0, i64* %10, align 8
  invoke void @_ZNSt8_Rb_treeINSt7__cxx1112basic_stringIcSt11char_traitsIcESaIcEEESt4pairIKS5_St3setIS5_St4lessIS5_ESaIS5_EEESt10_Select1stISD_ESA_SaISD_EE13_Rb_tree_implISA_Lb1EE13_M_initializeEv(%"struct.std::_Rb_tree<std::__cxx11::basic_string<char>, std::pair<const std::__cxx11::basic_string<char>, std::set<std::__cxx11::basic_string<char>, std::less<std::__cxx11::basic_string<char> >, std::allocator<std::__cxx11::basic_string<char> > > >, std::_Select1st<std::pair<const std::__cxx11::basic_string<char>, std::set<std::__cxx11::basic_string<char>, std::less<std::__cxx11::basic_string<char> >, std::allocator<std::__cxx11::basic_string<char> > > > >, std::less<std::__cxx11::basic_string<char> >, std::allocator<std::pair<const std::__cxx11::basic_string<char>, std::set<std::__cxx11::basic_string<char>, std::less<std::__cxx11::basic_string<char> >, std::allocator<std::__cxx11::basic_string<char> > > > > >::_Rb_tree_impl"* %5)
          to label %11 unwind label %12

; <label>:11:                                     ; preds = %1
  ret void

; <label>:12:                                     ; preds = %1
  %13 = landingpad { i8*, i32 }
          cleanup
  %14 = extractvalue { i8*, i32 } %13, 0
  store i8* %14, i8** %3, align 8
  %15 = extractvalue { i8*, i32 } %13, 1
  store i32 %15, i32* %4, align 4
  %16 = bitcast %"struct.std::_Rb_tree<std::__cxx11::basic_string<char>, std::pair<const std::__cxx11::basic_string<char>, std::set<std::__cxx11::basic_string<char>, std::less<std::__cxx11::basic_string<char> >, std::allocator<std::__cxx11::basic_string<char> > > >, std::_Select1st<std::pair<const std::__cxx11::basic_string<char>, std::set<std::__cxx11::basic_string<char>, std::less<std::__cxx11::basic_string<char> >, std::allocator<std::__cxx11::basic_string<char> > > > >, std::less<std::__cxx11::basic_string<char> >, std::allocator<std::pair<const std::__cxx11::basic_string<char>, std::set<std::__cxx11::basic_string<char>, std::less<std::__cxx11::basic_string<char> >, std::allocator<std::__cxx11::basic_string<char> > > > > >::_Rb_tree_impl"* %5 to %"class.std::allocator.0"*
  call void @_ZNSaISt13_Rb_tree_nodeISt4pairIKNSt7__cxx1112basic_stringIcSt11char_traitsIcESaIcEEESt3setIS6_St4lessIS6_ESaIS6_EEEEED2Ev(%"class.std::allocator.0"* %16) #3
  br label %17

; <label>:17:                                     ; preds = %12
  %18 = load i32, i32* @x.98
  %19 = load i32, i32* @y.99
  %20 = sub i32 %18, 1
  %21 = mul i32 %18, %20
  %22 = urem i32 %21, 2
  %23 = icmp eq i32 %22, 0
  %24 = icmp slt i32 %19, 10
  %25 = or i1 %23, %24
  br i1 %25, label %26, label %40

; <label>:26:                                     ; preds = %17, %40
  %27 = load i8*, i8** %3, align 8
  %28 = load i32, i32* %4, align 4
  %29 = insertvalue { i8*, i32 } undef, i8* %27, 0
  %30 = insertvalue { i8*, i32 } %29, i32 %28, 1
  %31 = load i32, i32* @x.98
  %32 = load i32, i32* @y.99
  %33 = sub i32 %31, 1
  %34 = mul i32 %31, %33
  %35 = urem i32 %34, 2
  %36 = icmp eq i32 %35, 0
  %37 = icmp slt i32 %32, 10
  %38 = or i1 %36, %37
  br i1 %38, label %39, label %40

; <label>:39:                                     ; preds = %26
  resume { i8*, i32 } %30

; <label>:40:                                     ; preds = %26, %17
  %41 = load i8*, i8** %3, align 8
  %42 = load i32, i32* %4, align 4
  %43 = insertvalue { i8*, i32 } undef, i8* %41, 0
  %44 = insertvalue { i8*, i32 } %43, i32 %42, 1
  br label %26
}

; Function Attrs: noinline nounwind uwtable
define linkonce_odr void @_ZNSaISt13_Rb_tree_nodeISt4pairIKNSt7__cxx1112basic_stringIcSt11char_traitsIcESaIcEEESt3setIS6_St4lessIS6_ESaIS6_EEEEEC2Ev(%"class.std::allocator.0"*) unnamed_addr #5 comdat align 2 {
  %2 = alloca %"class.std::allocator.0"*, align 8
  store %"class.std::allocator.0"* %0, %"class.std::allocator.0"** %2, align 8
  %3 = load %"class.std::allocator.0"*, %"class.std::allocator.0"** %2, align 8
  %4 = bitcast %"class.std::allocator.0"* %3 to %"class.__gnu_cxx::new_allocator.1"*
  call void @_ZN9__gnu_cxx13new_allocatorISt13_Rb_tree_nodeISt4pairIKNSt7__cxx1112basic_stringIcSt11char_traitsIcESaIcEEESt3setIS8_St4lessIS8_ESaIS8_EEEEEC2Ev(%"class.__gnu_cxx::new_allocator.1"* %4) #3
  ret void
}

; Function Attrs: argmemonly nounwind
declare void @llvm.memset.p0i8.i64(i8* nocapture writeonly, i8, i64, i32, i1) #8

; Function Attrs: noinline nounwind uwtable
define linkonce_odr void @_ZNSt8_Rb_treeINSt7__cxx1112basic_stringIcSt11char_traitsIcESaIcEEESt4pairIKS5_St3setIS5_St4lessIS5_ESaIS5_EEESt10_Select1stISD_ESA_SaISD_EE13_Rb_tree_implISA_Lb1EE13_M_initializeEv(%"struct.std::_Rb_tree<std::__cxx11::basic_string<char>, std::pair<const std::__cxx11::basic_string<char>, std::set<std::__cxx11::basic_string<char>, std::less<std::__cxx11::basic_string<char> >, std::allocator<std::__cxx11::basic_string<char> > > >, std::_Select1st<std::pair<const std::__cxx11::basic_string<char>, std::set<std::__cxx11::basic_string<char>, std::less<std::__cxx11::basic_string<char> >, std::allocator<std::__cxx11::basic_string<char> > > > >, std::less<std::__cxx11::basic_string<char> >, std::allocator<std::pair<const std::__cxx11::basic_string<char>, std::set<std::__cxx11::basic_string<char>, std::less<std::__cxx11::basic_string<char> >, std::allocator<std::__cxx11::basic_string<char> > > > > >::_Rb_tree_impl"*) #5 comdat align 2 {
  %2 = alloca %"struct.std::_Rb_tree<std::__cxx11::basic_string<char>, std::pair<const std::__cxx11::basic_string<char>, std::set<std::__cxx11::basic_string<char>, std::less<std::__cxx11::basic_string<char> >, std::allocator<std::__cxx11::basic_string<char> > > >, std::_Select1st<std::pair<const std::__cxx11::basic_string<char>, std::set<std::__cxx11::basic_string<char>, std::less<std::__cxx11::basic_string<char> >, std::allocator<std::__cxx11::basic_string<char> > > > >, std::less<std::__cxx11::basic_string<char> >, std::allocator<std::pair<const std::__cxx11::basic_string<char>, std::set<std::__cxx11::basic_string<char>, std::less<std::__cxx11::basic_string<char> >, std::allocator<std::__cxx11::basic_string<char> > > > > >::_Rb_tree_impl"*, align 8
  store %"struct.std::_Rb_tree<std::__cxx11::basic_string<char>, std::pair<const std::__cxx11::basic_string<char>, std::set<std::__cxx11::basic_string<char>, std::less<std::__cxx11::basic_string<char> >, std::allocator<std::__cxx11::basic_string<char> > > >, std::_Select1st<std::pair<const std::__cxx11::basic_string<char>, std::set<std::__cxx11::basic_string<char>, std::less<std::__cxx11::basic_string<char> >, std::allocator<std::__cxx11::basic_string<char> > > > >, std::less<std::__cxx11::basic_string<char> >, std::allocator<std::pair<const std::__cxx11::basic_string<char>, std::set<std::__cxx11::basic_string<char>, std::less<std::__cxx11::basic_string<char> >, std::allocator<std::__cxx11::basic_string<char> > > > > >::_Rb_tree_impl"* %0, %"struct.std::_Rb_tree<std::__cxx11::basic_string<char>, std::pair<const std::__cxx11::basic_string<char>, std::set<std::__cxx11::basic_string<char>, std::less<std::__cxx11::basic_string<char> >, std::allocator<std::__cxx11::basic_string<char> > > >, std::_Select1st<std::pair<const std::__cxx11::basic_string<char>, std::set<std::__cxx11::basic_string<char>, std::less<std::__cxx11::basic_string<char> >, std::allocator<std::__cxx11::basic_string<char> > > > >, std::less<std::__cxx11::basic_string<char> >, std::allocator<std::pair<const std::__cxx11::basic_string<char>, std::set<std::__cxx11::basic_string<char>, std::less<std::__cxx11::basic_string<char> >, std::allocator<std::__cxx11::basic_string<char> > > > > >::_Rb_tree_impl"** %2, align 8
  %3 = load %"struct.std::_Rb_tree<std::__cxx11::basic_string<char>, std::pair<const std::__cxx11::basic_string<char>, std::set<std::__cxx11::basic_string<char>, std::less<std::__cxx11::basic_string<char> >, std::allocator<std::__cxx11::basic_string<char> > > >, std::_Select1st<std::pair<const std::__cxx11::basic_string<char>, std::set<std::__cxx11::basic_string<char>, std::less<std::__cxx11::basic_string<char> >, std::allocator<std::__cxx11::basic_string<char> > > > >, std::less<std::__cxx11::basic_string<char> >, std::allocator<std::pair<const std::__cxx11::basic_string<char>, std::set<std::__cxx11::basic_string<char>, std::less<std::__cxx11::basic_string<char> >, std::allocator<std::__cxx11::basic_string<char> > > > > >::_Rb_tree_impl"*, %"struct.std::_Rb_tree<std::__cxx11::basic_string<char>, std::pair<const std::__cxx11::basic_string<char>, std::set<std::__cxx11::basic_string<char>, std::less<std::__cxx11::basic_string<char> >, std::allocator<std::__cxx11::basic_string<char> > > >, std::_Select1st<std::pair<const std::__cxx11::basic_string<char>, std::set<std::__cxx11::basic_string<char>, std::less<std::__cxx11::basic_string<char> >, std::allocator<std::__cxx11::basic_string<char> > > > >, std::less<std::__cxx11::basic_string<char> >, std::allocator<std::pair<const std::__cxx11::basic_string<char>, std::set<std::__cxx11::basic_string<char>, std::less<std::__cxx11::basic_string<char> >, std::allocator<std::__cxx11::basic_string<char> > > > > >::_Rb_tree_impl"** %2, align 8
  %4 = getelementptr inbounds %"struct.std::_Rb_tree<std::__cxx11::basic_string<char>, std::pair<const std::__cxx11::basic_string<char>, std::set<std::__cxx11::basic_string<char>, std::less<std::__cxx11::basic_string<char> >, std::allocator<std::__cxx11::basic_string<char> > > >, std::_Select1st<std::pair<const std::__cxx11::basic_string<char>, std::set<std::__cxx11::basic_string<char>, std::less<std::__cxx11::basic_string<char> >, std::allocator<std::__cxx11::basic_string<char> > > > >, std::less<std::__cxx11::basic_string<char> >, std::allocator<std::pair<const std::__cxx11::basic_string<char>, std::set<std::__cxx11::basic_string<char>, std::less<std::__cxx11::basic_string<char> >, std::allocator<std::__cxx11::basic_string<char> > > > > >::_Rb_tree_impl", %"struct.std::_Rb_tree<std::__cxx11::basic_string<char>, std::pair<const std::__cxx11::basic_string<char>, std::set<std::__cxx11::basic_string<char>, std::less<std::__cxx11::basic_string<char> >, std::allocator<std::__cxx11::basic_string<char> > > >, std::_Select1st<std::pair<const std::__cxx11::basic_string<char>, std::set<std::__cxx11::basic_string<char>, std::less<std::__cxx11::basic_string<char> >, std::allocator<std::__cxx11::basic_string<char> > > > >, std::less<std::__cxx11::basic_string<char> >, std::allocator<std::pair<const std::__cxx11::basic_string<char>, std::set<std::__cxx11::basic_string<char>, std::less<std::__cxx11::basic_string<char> >, std::allocator<std::__cxx11::basic_string<char> > > > > >::_Rb_tree_impl"* %3, i32 0, i32 1
  %5 = getelementptr inbounds %"struct.std::_Rb_tree_node_base", %"struct.std::_Rb_tree_node_base"* %4, i32 0, i32 0
  store i32 0, i32* %5, align 8
  %6 = getelementptr inbounds %"struct.std::_Rb_tree<std::__cxx11::basic_string<char>, std::pair<const std::__cxx11::basic_string<char>, std::set<std::__cxx11::basic_string<char>, std::less<std::__cxx11::basic_string<char> >, std::allocator<std::__cxx11::basic_string<char> > > >, std::_Select1st<std::pair<const std::__cxx11::basic_string<char>, std::set<std::__cxx11::basic_string<char>, std::less<std::__cxx11::basic_string<char> >, std::allocator<std::__cxx11::basic_string<char> > > > >, std::less<std::__cxx11::basic_string<char> >, std::allocator<std::pair<const std::__cxx11::basic_string<char>, std::set<std::__cxx11::basic_string<char>, std::less<std::__cxx11::basic_string<char> >, std::allocator<std::__cxx11::basic_string<char> > > > > >::_Rb_tree_impl", %"struct.std::_Rb_tree<std::__cxx11::basic_string<char>, std::pair<const std::__cxx11::basic_string<char>, std::set<std::__cxx11::basic_string<char>, std::less<std::__cxx11::basic_string<char> >, std::allocator<std::__cxx11::basic_string<char> > > >, std::_Select1st<std::pair<const std::__cxx11::basic_string<char>, std::set<std::__cxx11::basic_string<char>, std::less<std::__cxx11::basic_string<char> >, std::allocator<std::__cxx11::basic_string<char> > > > >, std::less<std::__cxx11::basic_string<char> >, std::allocator<std::pair<const std::__cxx11::basic_string<char>, std::set<std::__cxx11::basic_string<char>, std::less<std::__cxx11::basic_string<char> >, std::allocator<std::__cxx11::basic_string<char> > > > > >::_Rb_tree_impl"* %3, i32 0, i32 1
  %7 = getelementptr inbounds %"struct.std::_Rb_tree_node_base", %"struct.std::_Rb_tree_node_base"* %6, i32 0, i32 1
  store %"struct.std::_Rb_tree_node_base"* null, %"struct.std::_Rb_tree_node_base"** %7, align 8
  %8 = getelementptr inbounds %"struct.std::_Rb_tree<std::__cxx11::basic_string<char>, std::pair<const std::__cxx11::basic_string<char>, std::set<std::__cxx11::basic_string<char>, std::less<std::__cxx11::basic_string<char> >, std::allocator<std::__cxx11::basic_string<char> > > >, std::_Select1st<std::pair<const std::__cxx11::basic_string<char>, std::set<std::__cxx11::basic_string<char>, std::less<std::__cxx11::basic_string<char> >, std::allocator<std::__cxx11::basic_string<char> > > > >, std::less<std::__cxx11::basic_string<char> >, std::allocator<std::pair<const std::__cxx11::basic_string<char>, std::set<std::__cxx11::basic_string<char>, std::less<std::__cxx11::basic_string<char> >, std::allocator<std::__cxx11::basic_string<char> > > > > >::_Rb_tree_impl", %"struct.std::_Rb_tree<std::__cxx11::basic_string<char>, std::pair<const std::__cxx11::basic_string<char>, std::set<std::__cxx11::basic_string<char>, std::less<std::__cxx11::basic_string<char> >, std::allocator<std::__cxx11::basic_string<char> > > >, std::_Select1st<std::pair<const std::__cxx11::basic_string<char>, std::set<std::__cxx11::basic_string<char>, std::less<std::__cxx11::basic_string<char> >, std::allocator<std::__cxx11::basic_string<char> > > > >, std::less<std::__cxx11::basic_string<char> >, std::allocator<std::pair<const std::__cxx11::basic_string<char>, std::set<std::__cxx11::basic_string<char>, std::less<std::__cxx11::basic_string<char> >, std::allocator<std::__cxx11::basic_string<char> > > > > >::_Rb_tree_impl"* %3, i32 0, i32 1
  %9 = getelementptr inbounds %"struct.std::_Rb_tree<std::__cxx11::basic_string<char>, std::pair<const std::__cxx11::basic_string<char>, std::set<std::__cxx11::basic_string<char>, std::less<std::__cxx11::basic_string<char> >, std::allocator<std::__cxx11::basic_string<char> > > >, std::_Select1st<std::pair<const std::__cxx11::basic_string<char>, std::set<std::__cxx11::basic_string<char>, std::less<std::__cxx11::basic_string<char> >, std::allocator<std::__cxx11::basic_string<char> > > > >, std::less<std::__cxx11::basic_string<char> >, std::allocator<std::pair<const std::__cxx11::basic_string<char>, std::set<std::__cxx11::basic_string<char>, std::less<std::__cxx11::basic_string<char> >, std::allocator<std::__cxx11::basic_string<char> > > > > >::_Rb_tree_impl", %"struct.std::_Rb_tree<std::__cxx11::basic_string<char>, std::pair<const std::__cxx11::basic_string<char>, std::set<std::__cxx11::basic_string<char>, std::less<std::__cxx11::basic_string<char> >, std::allocator<std::__cxx11::basic_string<char> > > >, std::_Select1st<std::pair<const std::__cxx11::basic_string<char>, std::set<std::__cxx11::basic_string<char>, std::less<std::__cxx11::basic_string<char> >, std::allocator<std::__cxx11::basic_string<char> > > > >, std::less<std::__cxx11::basic_string<char> >, std::allocator<std::pair<const std::__cxx11::basic_string<char>, std::set<std::__cxx11::basic_string<char>, std::less<std::__cxx11::basic_string<char> >, std::allocator<std::__cxx11::basic_string<char> > > > > >::_Rb_tree_impl"* %3, i32 0, i32 1
  %10 = getelementptr inbounds %"struct.std::_Rb_tree_node_base", %"struct.std::_Rb_tree_node_base"* %9, i32 0, i32 2
  store %"struct.std::_Rb_tree_node_base"* %8, %"struct.std::_Rb_tree_node_base"** %10, align 8
  %11 = getelementptr inbounds %"struct.std::_Rb_tree<std::__cxx11::basic_string<char>, std::pair<const std::__cxx11::basic_string<char>, std::set<std::__cxx11::basic_string<char>, std::less<std::__cxx11::basic_string<char> >, std::allocator<std::__cxx11::basic_string<char> > > >, std::_Select1st<std::pair<const std::__cxx11::basic_string<char>, std::set<std::__cxx11::basic_string<char>, std::less<std::__cxx11::basic_string<char> >, std::allocator<std::__cxx11::basic_string<char> > > > >, std::less<std::__cxx11::basic_string<char> >, std::allocator<std::pair<const std::__cxx11::basic_string<char>, std::set<std::__cxx11::basic_string<char>, std::less<std::__cxx11::basic_string<char> >, std::allocator<std::__cxx11::basic_string<char> > > > > >::_Rb_tree_impl", %"struct.std::_Rb_tree<std::__cxx11::basic_string<char>, std::pair<const std::__cxx11::basic_string<char>, std::set<std::__cxx11::basic_string<char>, std::less<std::__cxx11::basic_string<char> >, std::allocator<std::__cxx11::basic_string<char> > > >, std::_Select1st<std::pair<const std::__cxx11::basic_string<char>, std::set<std::__cxx11::basic_string<char>, std::less<std::__cxx11::basic_string<char> >, std::allocator<std::__cxx11::basic_string<char> > > > >, std::less<std::__cxx11::basic_string<char> >, std::allocator<std::pair<const std::__cxx11::basic_string<char>, std::set<std::__cxx11::basic_string<char>, std::less<std::__cxx11::basic_string<char> >, std::allocator<std::__cxx11::basic_string<char> > > > > >::_Rb_tree_impl"* %3, i32 0, i32 1
  %12 = getelementptr inbounds %"struct.std::_Rb_tree<std::__cxx11::basic_string<char>, std::pair<const std::__cxx11::basic_string<char>, std::set<std::__cxx11::basic_string<char>, std::less<std::__cxx11::basic_string<char> >, std::allocator<std::__cxx11::basic_string<char> > > >, std::_Select1st<std::pair<const std::__cxx11::basic_string<char>, std::set<std::__cxx11::basic_string<char>, std::less<std::__cxx11::basic_string<char> >, std::allocator<std::__cxx11::basic_string<char> > > > >, std::less<std::__cxx11::basic_string<char> >, std::allocator<std::pair<const std::__cxx11::basic_string<char>, std::set<std::__cxx11::basic_string<char>, std::less<std::__cxx11::basic_string<char> >, std::allocator<std::__cxx11::basic_string<char> > > > > >::_Rb_tree_impl", %"struct.std::_Rb_tree<std::__cxx11::basic_string<char>, std::pair<const std::__cxx11::basic_string<char>, std::set<std::__cxx11::basic_string<char>, std::less<std::__cxx11::basic_string<char> >, std::allocator<std::__cxx11::basic_string<char> > > >, std::_Select1st<std::pair<const std::__cxx11::basic_string<char>, std::set<std::__cxx11::basic_string<char>, std::less<std::__cxx11::basic_string<char> >, std::allocator<std::__cxx11::basic_string<char> > > > >, std::less<std::__cxx11::basic_string<char> >, std::allocator<std::pair<const std::__cxx11::basic_string<char>, std::set<std::__cxx11::basic_string<char>, std::less<std::__cxx11::basic_string<char> >, std::allocator<std::__cxx11::basic_string<char> > > > > >::_Rb_tree_impl"* %3, i32 0, i32 1
  %13 = getelementptr inbounds %"struct.std::_Rb_tree_node_base", %"struct.std::_Rb_tree_node_base"* %12, i32 0, i32 3
  store %"struct.std::_Rb_tree_node_base"* %11, %"struct.std::_Rb_tree_node_base"** %13, align 8
  ret void
}

; Function Attrs: noinline nounwind uwtable
define linkonce_odr void @_ZN9__gnu_cxx13new_allocatorISt13_Rb_tree_nodeISt4pairIKNSt7__cxx1112basic_stringIcSt11char_traitsIcESaIcEEESt3setIS8_St4lessIS8_ESaIS8_EEEEEC2Ev(%"class.__gnu_cxx::new_allocator.1"*) unnamed_addr #5 comdat align 2 {
  %2 = alloca %"class.__gnu_cxx::new_allocator.1"*, align 8
  store %"class.__gnu_cxx::new_allocator.1"* %0, %"class.__gnu_cxx::new_allocator.1"** %2, align 8
  %3 = load %"class.__gnu_cxx::new_allocator.1"*, %"class.__gnu_cxx::new_allocator.1"** %2, align 8
  ret void
}

; Function Attrs: noinline uwtable
define linkonce_odr %"struct.std::_Rb_tree_node_base"* @_ZNSt3mapINSt7__cxx1112basic_stringIcSt11char_traitsIcESaIcEEESt3setIS5_St4lessIS5_ESaIS5_EES8_SaISt4pairIKS5_SA_EEE11lower_boundERSC_(%"class.std::map"*, %"class.std::__cxx11::basic_string"* dereferenceable(32)) #0 comdat align 2 {
  %3 = load i32, i32* @x.106
  %4 = load i32, i32* @y.107
  %5 = sub i32 %3, 1
  %6 = mul i32 %3, %5
  %7 = urem i32 %6, 2
  %8 = icmp eq i32 %7, 0
  %9 = icmp slt i32 %4, 10
  %10 = or i1 %8, %9
  br i1 %10, label %11, label %31

; <label>:11:                                     ; preds = %2, %31
  %12 = alloca %"struct.std::_Rb_tree_iterator", align 8
  %13 = alloca %"class.std::map"*, align 8
  %14 = alloca %"class.std::__cxx11::basic_string"*, align 8
  store %"class.std::map"* %0, %"class.std::map"** %13, align 8
  store %"class.std::__cxx11::basic_string"* %1, %"class.std::__cxx11::basic_string"** %14, align 8
  %15 = load %"class.std::map"*, %"class.std::map"** %13, align 8
  %16 = getelementptr inbounds %"class.std::map", %"class.std::map"* %15, i32 0, i32 0
  %17 = load %"class.std::__cxx11::basic_string"*, %"class.std::__cxx11::basic_string"** %14, align 8
  %18 = call %"struct.std::_Rb_tree_node_base"* @_ZNSt8_Rb_treeINSt7__cxx1112basic_stringIcSt11char_traitsIcESaIcEEESt4pairIKS5_St3setIS5_St4lessIS5_ESaIS5_EEESt10_Select1stISD_ESA_SaISD_EE11lower_boundERS7_(%"class.std::_Rb_tree"* %16, %"class.std::__cxx11::basic_string"* dereferenceable(32) %17)
  %19 = getelementptr inbounds %"struct.std::_Rb_tree_iterator", %"struct.std::_Rb_tree_iterator"* %12, i32 0, i32 0
  store %"struct.std::_Rb_tree_node_base"* %18, %"struct.std::_Rb_tree_node_base"** %19, align 8
  %20 = getelementptr inbounds %"struct.std::_Rb_tree_iterator", %"struct.std::_Rb_tree_iterator"* %12, i32 0, i32 0
  %21 = load %"struct.std::_Rb_tree_node_base"*, %"struct.std::_Rb_tree_node_base"** %20, align 8
  %22 = load i32, i32* @x.106
  %23 = load i32, i32* @y.107
  %24 = sub i32 %22, 1
  %25 = mul i32 %22, %24
  %26 = urem i32 %25, 2
  %27 = icmp eq i32 %26, 0
  %28 = icmp slt i32 %23, 10
  %29 = or i1 %27, %28
  br i1 %29, label %30, label %31

; <label>:30:                                     ; preds = %11
  ret %"struct.std::_Rb_tree_node_base"* %21

; <label>:31:                                     ; preds = %11, %2
  %32 = alloca %"struct.std::_Rb_tree_iterator", align 8
  %33 = alloca %"class.std::map"*, align 8
  %34 = alloca %"class.std::__cxx11::basic_string"*, align 8
  store %"class.std::map"* %0, %"class.std::map"** %33, align 8
  store %"class.std::__cxx11::basic_string"* %1, %"class.std::__cxx11::basic_string"** %34, align 8
  %35 = load %"class.std::map"*, %"class.std::map"** %33, align 8
  %36 = getelementptr inbounds %"class.std::map", %"class.std::map"* %35, i32 0, i32 0
  %37 = load %"class.std::__cxx11::basic_string"*, %"class.std::__cxx11::basic_string"** %34, align 8
  %38 = call %"struct.std::_Rb_tree_node_base"* @_ZNSt8_Rb_treeINSt7__cxx1112basic_stringIcSt11char_traitsIcESaIcEEESt4pairIKS5_St3setIS5_St4lessIS5_ESaIS5_EEESt10_Select1stISD_ESA_SaISD_EE11lower_boundERS7_(%"class.std::_Rb_tree"* %36, %"class.std::__cxx11::basic_string"* dereferenceable(32) %37)
  %39 = getelementptr inbounds %"struct.std::_Rb_tree_iterator", %"struct.std::_Rb_tree_iterator"* %32, i32 0, i32 0
  store %"struct.std::_Rb_tree_node_base"* %38, %"struct.std::_Rb_tree_node_base"** %39, align 8
  %40 = getelementptr inbounds %"struct.std::_Rb_tree_iterator", %"struct.std::_Rb_tree_iterator"* %32, i32 0, i32 0
  %41 = load %"struct.std::_Rb_tree_node_base"*, %"struct.std::_Rb_tree_node_base"** %40, align 8
  br label %11
}

; Function Attrs: noinline nounwind uwtable
define linkonce_odr zeroext i1 @_ZNKSt17_Rb_tree_iteratorISt4pairIKNSt7__cxx1112basic_stringIcSt11char_traitsIcESaIcEEESt3setIS6_St4lessIS6_ESaIS6_EEEEeqERKSE_(%"struct.std::_Rb_tree_iterator"*, %"struct.std::_Rb_tree_iterator"* dereferenceable(8)) #5 comdat align 2 {
  %3 = alloca %"struct.std::_Rb_tree_iterator"*, align 8
  %4 = alloca %"struct.std::_Rb_tree_iterator"*, align 8
  store %"struct.std::_Rb_tree_iterator"* %0, %"struct.std::_Rb_tree_iterator"** %3, align 8
  store %"struct.std::_Rb_tree_iterator"* %1, %"struct.std::_Rb_tree_iterator"** %4, align 8
  %5 = load %"struct.std::_Rb_tree_iterator"*, %"struct.std::_Rb_tree_iterator"** %3, align 8
  %6 = getelementptr inbounds %"struct.std::_Rb_tree_iterator", %"struct.std::_Rb_tree_iterator"* %5, i32 0, i32 0
  %7 = load %"struct.std::_Rb_tree_node_base"*, %"struct.std::_Rb_tree_node_base"** %6, align 8
  %8 = load %"struct.std::_Rb_tree_iterator"*, %"struct.std::_Rb_tree_iterator"** %4, align 8
  %9 = getelementptr inbounds %"struct.std::_Rb_tree_iterator", %"struct.std::_Rb_tree_iterator"* %8, i32 0, i32 0
  %10 = load %"struct.std::_Rb_tree_node_base"*, %"struct.std::_Rb_tree_node_base"** %9, align 8
  %11 = icmp eq %"struct.std::_Rb_tree_node_base"* %7, %10
  ret i1 %11
}

; Function Attrs: noinline nounwind uwtable
define linkonce_odr %"struct.std::_Rb_tree_node_base"* @_ZNSt3mapINSt7__cxx1112basic_stringIcSt11char_traitsIcESaIcEEESt3setIS5_St4lessIS5_ESaIS5_EES8_SaISt4pairIKS5_SA_EEE3endEv(%"class.std::map"*) #5 comdat align 2 {
  %2 = alloca %"struct.std::_Rb_tree_iterator", align 8
  %3 = alloca %"class.std::map"*, align 8
  store %"class.std::map"* %0, %"class.std::map"** %3, align 8
  %4 = load %"class.std::map"*, %"class.std::map"** %3, align 8
  %5 = getelementptr inbounds %"class.std::map", %"class.std::map"* %4, i32 0, i32 0
  %6 = call %"struct.std::_Rb_tree_node_base"* @_ZNSt8_Rb_treeINSt7__cxx1112basic_stringIcSt11char_traitsIcESaIcEEESt4pairIKS5_St3setIS5_St4lessIS5_ESaIS5_EEESt10_Select1stISD_ESA_SaISD_EE3endEv(%"class.std::_Rb_tree"* %5) #3
  %7 = getelementptr inbounds %"struct.std::_Rb_tree_iterator", %"struct.std::_Rb_tree_iterator"* %2, i32 0, i32 0
  store %"struct.std::_Rb_tree_node_base"* %6, %"struct.std::_Rb_tree_node_base"** %7, align 8
  %8 = getelementptr inbounds %"struct.std::_Rb_tree_iterator", %"struct.std::_Rb_tree_iterator"* %2, i32 0, i32 0
  %9 = load %"struct.std::_Rb_tree_node_base"*, %"struct.std::_Rb_tree_node_base"** %8, align 8
  ret %"struct.std::_Rb_tree_node_base"* %9
}

; Function Attrs: noinline uwtable
define linkonce_odr void @_ZNKSt3mapINSt7__cxx1112basic_stringIcSt11char_traitsIcESaIcEEESt3setIS5_St4lessIS5_ESaIS5_EES8_SaISt4pairIKS5_SA_EEE8key_compEv(%"class.std::map"*) #0 comdat align 2 {
  %2 = load i32, i32* @x.112
  %3 = load i32, i32* @y.113
  %4 = sub i32 %2, 1
  %5 = mul i32 %2, %4
  %6 = urem i32 %5, 2
  %7 = icmp eq i32 %6, 0
  %8 = icmp slt i32 %3, 10
  %9 = or i1 %7, %8
  br i1 %9, label %10, label %25

; <label>:10:                                     ; preds = %1, %25
  %11 = alloca %"struct.std::less", align 1
  %12 = alloca %"class.std::map"*, align 8
  %13 = alloca %"struct.std::less", align 1
  store %"class.std::map"* %0, %"class.std::map"** %12, align 8
  %14 = load %"class.std::map"*, %"class.std::map"** %12, align 8
  %15 = getelementptr inbounds %"class.std::map", %"class.std::map"* %14, i32 0, i32 0
  call void @_ZNKSt8_Rb_treeINSt7__cxx1112basic_stringIcSt11char_traitsIcESaIcEEESt4pairIKS5_St3setIS5_St4lessIS5_ESaIS5_EEESt10_Select1stISD_ESA_SaISD_EE8key_compEv(%"class.std::_Rb_tree"* %15)
  %16 = load i32, i32* @x.112
  %17 = load i32, i32* @y.113
  %18 = sub i32 %16, 1
  %19 = mul i32 %16, %18
  %20 = urem i32 %19, 2
  %21 = icmp eq i32 %20, 0
  %22 = icmp slt i32 %17, 10
  %23 = or i1 %21, %22
  br i1 %23, label %24, label %25

; <label>:24:                                     ; preds = %10
  ret void

; <label>:25:                                     ; preds = %10, %1
  %26 = alloca %"struct.std::less", align 1
  %27 = alloca %"class.std::map"*, align 8
  %28 = alloca %"struct.std::less", align 1
  store %"class.std::map"* %0, %"class.std::map"** %27, align 8
  %29 = load %"class.std::map"*, %"class.std::map"** %27, align 8
  %30 = getelementptr inbounds %"class.std::map", %"class.std::map"* %29, i32 0, i32 0
  call void @_ZNKSt8_Rb_treeINSt7__cxx1112basic_stringIcSt11char_traitsIcESaIcEEESt4pairIKS5_St3setIS5_St4lessIS5_ESaIS5_EEESt10_Select1stISD_ESA_SaISD_EE8key_compEv(%"class.std::_Rb_tree"* %30)
  br label %10
}

; Function Attrs: noinline uwtable
define linkonce_odr zeroext i1 @_ZNKSt4lessINSt7__cxx1112basic_stringIcSt11char_traitsIcESaIcEEEEclERKS5_S8_(%"struct.std::less"*, %"class.std::__cxx11::basic_string"* dereferenceable(32), %"class.std::__cxx11::basic_string"* dereferenceable(32)) #0 comdat align 2 {
  %4 = load i32, i32* @x.114
  %5 = load i32, i32* @y.115
  %6 = sub i32 %4, 1
  %7 = mul i32 %4, %6
  %8 = urem i32 %7, 2
  %9 = icmp eq i32 %8, 0
  %10 = icmp slt i32 %5, 10
  %11 = or i1 %9, %10
  br i1 %11, label %12, label %29

; <label>:12:                                     ; preds = %3, %29
  %13 = alloca %"struct.std::less"*, align 8
  %14 = alloca %"class.std::__cxx11::basic_string"*, align 8
  %15 = alloca %"class.std::__cxx11::basic_string"*, align 8
  store %"struct.std::less"* %0, %"struct.std::less"** %13, align 8
  store %"class.std::__cxx11::basic_string"* %1, %"class.std::__cxx11::basic_string"** %14, align 8
  store %"class.std::__cxx11::basic_string"* %2, %"class.std::__cxx11::basic_string"** %15, align 8
  %16 = load %"struct.std::less"*, %"struct.std::less"** %13, align 8
  %17 = load %"class.std::__cxx11::basic_string"*, %"class.std::__cxx11::basic_string"** %14, align 8
  %18 = load %"class.std::__cxx11::basic_string"*, %"class.std::__cxx11::basic_string"** %15, align 8
  %19 = call zeroext i1 @_ZStltIcSt11char_traitsIcESaIcEEbRKNSt7__cxx1112basic_stringIT_T0_T1_EESA_(%"class.std::__cxx11::basic_string"* dereferenceable(32) %17, %"class.std::__cxx11::basic_string"* dereferenceable(32) %18)
  %20 = load i32, i32* @x.114
  %21 = load i32, i32* @y.115
  %22 = sub i32 %20, 1
  %23 = mul i32 %20, %22
  %24 = urem i32 %23, 2
  %25 = icmp eq i32 %24, 0
  %26 = icmp slt i32 %21, 10
  %27 = or i1 %25, %26
  br i1 %27, label %28, label %29

; <label>:28:                                     ; preds = %12
  ret i1 %19

; <label>:29:                                     ; preds = %12, %3
  %30 = alloca %"struct.std::less"*, align 8
  %31 = alloca %"class.std::__cxx11::basic_string"*, align 8
  %32 = alloca %"class.std::__cxx11::basic_string"*, align 8
  store %"struct.std::less"* %0, %"struct.std::less"** %30, align 8
  store %"class.std::__cxx11::basic_string"* %1, %"class.std::__cxx11::basic_string"** %31, align 8
  store %"class.std::__cxx11::basic_string"* %2, %"class.std::__cxx11::basic_string"** %32, align 8
  %33 = load %"struct.std::less"*, %"struct.std::less"** %30, align 8
  %34 = load %"class.std::__cxx11::basic_string"*, %"class.std::__cxx11::basic_string"** %31, align 8
  %35 = load %"class.std::__cxx11::basic_string"*, %"class.std::__cxx11::basic_string"** %32, align 8
  %36 = call zeroext i1 @_ZStltIcSt11char_traitsIcESaIcEEbRKNSt7__cxx1112basic_stringIT_T0_T1_EESA_(%"class.std::__cxx11::basic_string"* dereferenceable(32) %34, %"class.std::__cxx11::basic_string"* dereferenceable(32) %35)
  br label %12
}

; Function Attrs: noinline nounwind uwtable
define linkonce_odr dereferenceable(80) %"struct.std::pair.7"* @_ZNKSt17_Rb_tree_iteratorISt4pairIKNSt7__cxx1112basic_stringIcSt11char_traitsIcESaIcEEESt3setIS6_St4lessIS6_ESaIS6_EEEEdeEv(%"struct.std::_Rb_tree_iterator"*) #5 comdat align 2 personality i8* bitcast (i32 (...)* @__gxx_personality_v0 to i8*) {
  %2 = alloca %"struct.std::_Rb_tree_iterator"*, align 8
  store %"struct.std::_Rb_tree_iterator"* %0, %"struct.std::_Rb_tree_iterator"** %2, align 8
  %3 = load %"struct.std::_Rb_tree_iterator"*, %"struct.std::_Rb_tree_iterator"** %2, align 8
  %4 = getelementptr inbounds %"struct.std::_Rb_tree_iterator", %"struct.std::_Rb_tree_iterator"* %3, i32 0, i32 0
  %5 = load %"struct.std::_Rb_tree_node_base"*, %"struct.std::_Rb_tree_node_base"** %4, align 8
  %6 = bitcast %"struct.std::_Rb_tree_node_base"* %5 to %"struct.std::_Rb_tree_node"*
  %7 = invoke %"struct.std::pair.7"* @_ZNSt13_Rb_tree_nodeISt4pairIKNSt7__cxx1112basic_stringIcSt11char_traitsIcESaIcEEESt3setIS6_St4lessIS6_ESaIS6_EEEE9_M_valptrEv(%"struct.std::_Rb_tree_node"* %6)
          to label %8 unwind label %9

; <label>:8:                                      ; preds = %1
  ret %"struct.std::pair.7"* %7

; <label>:9:                                      ; preds = %1
  %10 = load i32, i32* @x.116
  %11 = load i32, i32* @y.117
  %12 = sub i32 %10, 1
  %13 = mul i32 %10, %12
  %14 = urem i32 %13, 2
  %15 = icmp eq i32 %14, 0
  %16 = icmp slt i32 %11, 10
  %17 = or i1 %15, %16
  br i1 %17, label %18, label %30

; <label>:18:                                     ; preds = %9, %30
  %19 = landingpad { i8*, i32 }
          catch i8* null
  %20 = extractvalue { i8*, i32 } %19, 0
  call void @__clang_call_terminate(i8* %20) #9
  %21 = load i32, i32* @x.116
  %22 = load i32, i32* @y.117
  %23 = sub i32 %21, 1
  %24 = mul i32 %21, %23
  %25 = urem i32 %24, 2
  %26 = icmp eq i32 %25, 0
  %27 = icmp slt i32 %22, 10
  %28 = or i1 %26, %27
  br i1 %28, label %29, label %30

; <label>:29:                                     ; preds = %18
  unreachable

; <label>:30:                                     ; preds = %18, %9
  %31 = landingpad { i8*, i32 }
          catch i8* null
  %32 = extractvalue { i8*, i32 } %31, 0
  call void @__clang_call_terminate(i8* %32) #9
  br label %18
}

; Function Attrs: noinline uwtable
define linkonce_odr %"struct.std::_Rb_tree_node_base"* @_ZNSt8_Rb_treeINSt7__cxx1112basic_stringIcSt11char_traitsIcESaIcEEESt4pairIKS5_St3setIS5_St4lessIS5_ESaIS5_EEESt10_Select1stISD_ESA_SaISD_EE22_M_emplace_hint_uniqueIJRKSt21piecewise_construct_tSt5tupleIJOS5_EESM_IJEEEEESt17_Rb_tree_iteratorISD_ESt23_Rb_tree_const_iteratorISD_EDpOT_(%"class.std::_Rb_tree"*, %"struct.std::_Rb_tree_node_base"*, %"struct.std::piecewise_construct_t"* dereferenceable(1), %"class.std::tuple"* dereferenceable(8), %"class.std::tuple.11"* dereferenceable(1)) #0 comdat align 2 personality i8* bitcast (i32 (...)* @__gxx_personality_v0 to i8*) {
  %6 = alloca %"struct.std::_Rb_tree_iterator", align 8
  %7 = alloca %"struct.std::_Rb_tree_const_iterator.10", align 8
  %8 = alloca %"class.std::_Rb_tree"*, align 8
  %9 = alloca %"struct.std::piecewise_construct_t"*, align 8
  %10 = alloca %"class.std::tuple"*, align 8
  %11 = alloca %"class.std::tuple.11"*, align 8
  %12 = alloca %"struct.std::_Rb_tree_node"*, align 8
  %13 = alloca %"struct.std::pair.12", align 8
  %14 = alloca %"struct.std::_Rb_tree_const_iterator.10", align 8
  %15 = alloca i8*
  %16 = alloca i32
  %17 = getelementptr inbounds %"struct.std::_Rb_tree_const_iterator.10", %"struct.std::_Rb_tree_const_iterator.10"* %7, i32 0, i32 0
  store %"struct.std::_Rb_tree_node_base"* %1, %"struct.std::_Rb_tree_node_base"** %17, align 8
  store %"class.std::_Rb_tree"* %0, %"class.std::_Rb_tree"** %8, align 8
  store %"struct.std::piecewise_construct_t"* %2, %"struct.std::piecewise_construct_t"** %9, align 8
  store %"class.std::tuple"* %3, %"class.std::tuple"** %10, align 8
  store %"class.std::tuple.11"* %4, %"class.std::tuple.11"** %11, align 8
  %18 = load %"class.std::_Rb_tree"*, %"class.std::_Rb_tree"** %8, align 8
  %19 = load %"struct.std::piecewise_construct_t"*, %"struct.std::piecewise_construct_t"** %9, align 8
  %20 = call dereferenceable(1) %"struct.std::piecewise_construct_t"* @_ZSt7forwardIRKSt21piecewise_construct_tEOT_RNSt16remove_referenceIS3_E4typeE(%"struct.std::piecewise_construct_t"* dereferenceable(1) %19) #3
  %21 = load %"class.std::tuple"*, %"class.std::tuple"** %10, align 8
  %22 = call dereferenceable(8) %"class.std::tuple"* @_ZSt7forwardISt5tupleIJONSt7__cxx1112basic_stringIcSt11char_traitsIcESaIcEEEEEEOT_RNSt16remove_referenceIS9_E4typeE(%"class.std::tuple"* dereferenceable(8) %21) #3
  %23 = load %"class.std::tuple.11"*, %"class.std::tuple.11"** %11, align 8
  %24 = call dereferenceable(1) %"class.std::tuple.11"* @_ZSt7forwardISt5tupleIJEEEOT_RNSt16remove_referenceIS2_E4typeE(%"class.std::tuple.11"* dereferenceable(1) %23) #3
  %25 = call %"struct.std::_Rb_tree_node"* @_ZNSt8_Rb_treeINSt7__cxx1112basic_stringIcSt11char_traitsIcESaIcEEESt4pairIKS5_St3setIS5_St4lessIS5_ESaIS5_EEESt10_Select1stISD_ESA_SaISD_EE14_M_create_nodeIJRKSt21piecewise_construct_tSt5tupleIJOS5_EESM_IJEEEEEPSt13_Rb_tree_nodeISD_EDpOT_(%"class.std::_Rb_tree"* %18, %"struct.std::piecewise_construct_t"* dereferenceable(1) %20, %"class.std::tuple"* dereferenceable(8) %22, %"class.std::tuple.11"* dereferenceable(1) %24)
  store %"struct.std::_Rb_tree_node"* %25, %"struct.std::_Rb_tree_node"** %12, align 8
  %26 = bitcast %"struct.std::_Rb_tree_const_iterator.10"* %14 to i8*
  %27 = bitcast %"struct.std::_Rb_tree_const_iterator.10"* %7 to i8*
  call void @llvm.memcpy.p0i8.p0i8.i64(i8* %26, i8* %27, i64 8, i32 8, i1 false)
  %28 = load %"struct.std::_Rb_tree_node"*, %"struct.std::_Rb_tree_node"** %12, align 8
  %29 = invoke dereferenceable(32) %"class.std::__cxx11::basic_string"* @_ZNSt8_Rb_treeINSt7__cxx1112basic_stringIcSt11char_traitsIcESaIcEEESt4pairIKS5_St3setIS5_St4lessIS5_ESaIS5_EEESt10_Select1stISD_ESA_SaISD_EE6_S_keyEPKSt13_Rb_tree_nodeISD_E(%"struct.std::_Rb_tree_node"* %28)
          to label %30 unwind label %52

; <label>:30:                                     ; preds = %5
  %31 = getelementptr inbounds %"struct.std::_Rb_tree_const_iterator.10", %"struct.std::_Rb_tree_const_iterator.10"* %14, i32 0, i32 0
  %32 = load %"struct.std::_Rb_tree_node_base"*, %"struct.std::_Rb_tree_node_base"** %31, align 8
  %33 = invoke { %"struct.std::_Rb_tree_node_base"*, %"struct.std::_Rb_tree_node_base"* } @_ZNSt8_Rb_treeINSt7__cxx1112basic_stringIcSt11char_traitsIcESaIcEEESt4pairIKS5_St3setIS5_St4lessIS5_ESaIS5_EEESt10_Select1stISD_ESA_SaISD_EE29_M_get_insert_hint_unique_posESt23_Rb_tree_const_iteratorISD_ERS7_(%"class.std::_Rb_tree"* %18, %"struct.std::_Rb_tree_node_base"* %32, %"class.std::__cxx11::basic_string"* dereferenceable(32) %29)
          to label %34 unwind label %52

; <label>:34:                                     ; preds = %30
  %35 = bitcast %"struct.std::pair.12"* %13 to { %"struct.std::_Rb_tree_node_base"*, %"struct.std::_Rb_tree_node_base"* }*
  %36 = getelementptr inbounds { %"struct.std::_Rb_tree_node_base"*, %"struct.std::_Rb_tree_node_base"* }, { %"struct.std::_Rb_tree_node_base"*, %"struct.std::_Rb_tree_node_base"* }* %35, i32 0, i32 0
  %37 = extractvalue { %"struct.std::_Rb_tree_node_base"*, %"struct.std::_Rb_tree_node_base"* } %33, 0
  store %"struct.std::_Rb_tree_node_base"* %37, %"struct.std::_Rb_tree_node_base"** %36, align 8
  %38 = getelementptr inbounds { %"struct.std::_Rb_tree_node_base"*, %"struct.std::_Rb_tree_node_base"* }, { %"struct.std::_Rb_tree_node_base"*, %"struct.std::_Rb_tree_node_base"* }* %35, i32 0, i32 1
  %39 = extractvalue { %"struct.std::_Rb_tree_node_base"*, %"struct.std::_Rb_tree_node_base"* } %33, 1
  store %"struct.std::_Rb_tree_node_base"* %39, %"struct.std::_Rb_tree_node_base"** %38, align 8
  %40 = getelementptr inbounds %"struct.std::pair.12", %"struct.std::pair.12"* %13, i32 0, i32 1
  %41 = load %"struct.std::_Rb_tree_node_base"*, %"struct.std::_Rb_tree_node_base"** %40, align 8
  %42 = icmp ne %"struct.std::_Rb_tree_node_base"* %41, null
  br i1 %42, label %43, label %60

; <label>:43:                                     ; preds = %34
  %44 = getelementptr inbounds %"struct.std::pair.12", %"struct.std::pair.12"* %13, i32 0, i32 0
  %45 = load %"struct.std::_Rb_tree_node_base"*, %"struct.std::_Rb_tree_node_base"** %44, align 8
  %46 = getelementptr inbounds %"struct.std::pair.12", %"struct.std::pair.12"* %13, i32 0, i32 1
  %47 = load %"struct.std::_Rb_tree_node_base"*, %"struct.std::_Rb_tree_node_base"** %46, align 8
  %48 = load %"struct.std::_Rb_tree_node"*, %"struct.std::_Rb_tree_node"** %12, align 8
  %49 = invoke %"struct.std::_Rb_tree_node_base"* @_ZNSt8_Rb_treeINSt7__cxx1112basic_stringIcSt11char_traitsIcESaIcEEESt4pairIKS5_St3setIS5_St4lessIS5_ESaIS5_EEESt10_Select1stISD_ESA_SaISD_EE14_M_insert_nodeEPSt18_Rb_tree_node_baseSJ_PSt13_Rb_tree_nodeISD_E(%"class.std::_Rb_tree"* %18, %"struct.std::_Rb_tree_node_base"* %45, %"struct.std::_Rb_tree_node_base"* %47, %"struct.std::_Rb_tree_node"* %48)
          to label %50 unwind label %52

; <label>:50:                                     ; preds = %43
  %51 = getelementptr inbounds %"struct.std::_Rb_tree_iterator", %"struct.std::_Rb_tree_iterator"* %6, i32 0, i32 0
  store %"struct.std::_Rb_tree_node_base"* %49, %"struct.std::_Rb_tree_node_base"** %51, align 8
  br label %72

; <label>:52:                                     ; preds = %43, %30, %5
  %53 = landingpad { i8*, i32 }
          catch i8* null
  %54 = extractvalue { i8*, i32 } %53, 0
  store i8* %54, i8** %15, align 8
  %55 = extractvalue { i8*, i32 } %53, 1
  store i32 %55, i32* %16, align 4
  br label %56

; <label>:56:                                     ; preds = %52
  %57 = load i8*, i8** %15, align 8
  %58 = call i8* @__cxa_begin_catch(i8* %57) #3
  %59 = load %"struct.std::_Rb_tree_node"*, %"struct.std::_Rb_tree_node"** %12, align 8
  call void @_ZNSt8_Rb_treeINSt7__cxx1112basic_stringIcSt11char_traitsIcESaIcEEESt4pairIKS5_St3setIS5_St4lessIS5_ESaIS5_EEESt10_Select1stISD_ESA_SaISD_EE12_M_drop_nodeEPSt13_Rb_tree_nodeISD_E(%"class.std::_Rb_tree"* %18, %"struct.std::_Rb_tree_node"* %59) #3
  invoke void @__cxa_rethrow() #13
          to label %101 unwind label %66

; <label>:60:                                     ; preds = %34
  %61 = load %"struct.std::_Rb_tree_node"*, %"struct.std::_Rb_tree_node"** %12, align 8
  call void @_ZNSt8_Rb_treeINSt7__cxx1112basic_stringIcSt11char_traitsIcESaIcEEESt4pairIKS5_St3setIS5_St4lessIS5_ESaIS5_EEESt10_Select1stISD_ESA_SaISD_EE12_M_drop_nodeEPSt13_Rb_tree_nodeISD_E(%"class.std::_Rb_tree"* %18, %"struct.std::_Rb_tree_node"* %61) #3
  %62 = getelementptr inbounds %"struct.std::pair.12", %"struct.std::pair.12"* %13, i32 0, i32 0
  %63 = load %"struct.std::_Rb_tree_node_base"*, %"struct.std::_Rb_tree_node_base"** %62, align 8
  %64 = bitcast %"struct.std::_Rb_tree_node_base"* %63 to %"struct.std::_Rb_tree_node"*
  %65 = bitcast %"struct.std::_Rb_tree_node"* %64 to %"struct.std::_Rb_tree_node_base"*
  call void @_ZNSt17_Rb_tree_iteratorISt4pairIKNSt7__cxx1112basic_stringIcSt11char_traitsIcESaIcEEESt3setIS6_St4lessIS6_ESaIS6_EEEEC2EPSt18_Rb_tree_node_base(%"struct.std::_Rb_tree_iterator"* %6, %"struct.std::_Rb_tree_node_base"* %65) #3
  br label %72

; <label>:66:                                     ; preds = %56
  %67 = landingpad { i8*, i32 }
          cleanup
  %68 = extractvalue { i8*, i32 } %67, 0
  store i8* %68, i8** %15, align 8
  %69 = extractvalue { i8*, i32 } %67, 1
  store i32 %69, i32* %16, align 4
  invoke void @__cxa_end_catch()
          to label %70 unwind label %98

; <label>:70:                                     ; preds = %66
  br label %75
                                                  ; No predecessors!
  call void @llvm.trap()
  unreachable

; <label>:72:                                     ; preds = %60, %50
  %73 = getelementptr inbounds %"struct.std::_Rb_tree_iterator", %"struct.std::_Rb_tree_iterator"* %6, i32 0, i32 0
  %74 = load %"struct.std::_Rb_tree_node_base"*, %"struct.std::_Rb_tree_node_base"** %73, align 8
  ret %"struct.std::_Rb_tree_node_base"* %74

; <label>:75:                                     ; preds = %70
  %76 = load i32, i32* @x.118
  %77 = load i32, i32* @y.119
  %78 = sub i32 %76, 1
  %79 = mul i32 %76, %78
  %80 = urem i32 %79, 2
  %81 = icmp eq i32 %80, 0
  %82 = icmp slt i32 %77, 10
  %83 = or i1 %81, %82
  br i1 %83, label %84, label %102

; <label>:84:                                     ; preds = %75, %102
  %85 = load i8*, i8** %15, align 8
  %86 = load i32, i32* %16, align 4
  %87 = insertvalue { i8*, i32 } undef, i8* %85, 0
  %88 = insertvalue { i8*, i32 } %87, i32 %86, 1
  %89 = load i32, i32* @x.118
  %90 = load i32, i32* @y.119
  %91 = sub i32 %89, 1
  %92 = mul i32 %89, %91
  %93 = urem i32 %92, 2
  %94 = icmp eq i32 %93, 0
  %95 = icmp slt i32 %90, 10
  %96 = or i1 %94, %95
  br i1 %96, label %97, label %102

; <label>:97:                                     ; preds = %84
  resume { i8*, i32 } %88

; <label>:98:                                     ; preds = %66
  %99 = landingpad { i8*, i32 }
          catch i8* null
  %100 = extractvalue { i8*, i32 } %99, 0
  call void @__clang_call_terminate(i8* %100) #9
  unreachable

; <label>:101:                                    ; preds = %56
  unreachable

; <label>:102:                                    ; preds = %84, %75
  %103 = load i8*, i8** %15, align 8
  %104 = load i32, i32* %16, align 4
  %105 = insertvalue { i8*, i32 } undef, i8* %103, 0
  %106 = insertvalue { i8*, i32 } %105, i32 %104, 1
  br label %84
}

; Function Attrs: noinline nounwind uwtable
define linkonce_odr void @_ZNSt23_Rb_tree_const_iteratorISt4pairIKNSt7__cxx1112basic_stringIcSt11char_traitsIcESaIcEEESt3setIS6_St4lessIS6_ESaIS6_EEEEC2ERKSt17_Rb_tree_iteratorISD_E(%"struct.std::_Rb_tree_const_iterator.10"*, %"struct.std::_Rb_tree_iterator"* dereferenceable(8)) unnamed_addr #5 comdat align 2 {
  %3 = alloca %"struct.std::_Rb_tree_const_iterator.10"*, align 8
  %4 = alloca %"struct.std::_Rb_tree_iterator"*, align 8
  store %"struct.std::_Rb_tree_const_iterator.10"* %0, %"struct.std::_Rb_tree_const_iterator.10"** %3, align 8
  store %"struct.std::_Rb_tree_iterator"* %1, %"struct.std::_Rb_tree_iterator"** %4, align 8
  %5 = load %"struct.std::_Rb_tree_const_iterator.10"*, %"struct.std::_Rb_tree_const_iterator.10"** %3, align 8
  %6 = getelementptr inbounds %"struct.std::_Rb_tree_const_iterator.10", %"struct.std::_Rb_tree_const_iterator.10"* %5, i32 0, i32 0
  %7 = load %"struct.std::_Rb_tree_iterator"*, %"struct.std::_Rb_tree_iterator"** %4, align 8
  %8 = getelementptr inbounds %"struct.std::_Rb_tree_iterator", %"struct.std::_Rb_tree_iterator"* %7, i32 0, i32 0
  %9 = load %"struct.std::_Rb_tree_node_base"*, %"struct.std::_Rb_tree_node_base"** %8, align 8
  store %"struct.std::_Rb_tree_node_base"* %9, %"struct.std::_Rb_tree_node_base"** %6, align 8
  ret void
}

; Function Attrs: noinline nounwind uwtable
define linkonce_odr %"class.std::__cxx11::basic_string"* @_ZSt16forward_as_tupleIJNSt7__cxx1112basic_stringIcSt11char_traitsIcESaIcEEEEESt5tupleIJDpOT_EES9_(%"class.std::__cxx11::basic_string"* dereferenceable(32)) #5 comdat personality i8* bitcast (i32 (...)* @__gxx_personality_v0 to i8*) {
  %2 = load i32, i32* @x.122
  %3 = load i32, i32* @y.123
  %4 = sub i32 %2, 1
  %5 = mul i32 %2, %4
  %6 = urem i32 %5, 2
  %7 = icmp eq i32 %6, 0
  %8 = icmp slt i32 %3, 10
  %9 = or i1 %7, %8
  br i1 %9, label %10, label %32

; <label>:10:                                     ; preds = %1, %32
  %11 = alloca %"class.std::tuple", align 8
  %12 = alloca %"class.std::__cxx11::basic_string"*, align 8
  store %"class.std::__cxx11::basic_string"* %0, %"class.std::__cxx11::basic_string"** %12, align 8
  %13 = load %"class.std::__cxx11::basic_string"*, %"class.std::__cxx11::basic_string"** %12, align 8
  %14 = call dereferenceable(32) %"class.std::__cxx11::basic_string"* @_ZSt7forwardINSt7__cxx1112basic_stringIcSt11char_traitsIcESaIcEEEEOT_RNSt16remove_referenceIS6_E4typeE(%"class.std::__cxx11::basic_string"* dereferenceable(32) %13) #3
  %15 = load i32, i32* @x.122
  %16 = load i32, i32* @y.123
  %17 = sub i32 %15, 1
  %18 = mul i32 %15, %17
  %19 = urem i32 %18, 2
  %20 = icmp eq i32 %19, 0
  %21 = icmp slt i32 %16, 10
  %22 = or i1 %20, %21
  br i1 %22, label %23, label %32

; <label>:23:                                     ; preds = %10
  invoke void @_ZNSt5tupleIJONSt7__cxx1112basic_stringIcSt11char_traitsIcESaIcEEEEEC2IJS5_EvEEDpOT_(%"class.std::tuple"* %11, %"class.std::__cxx11::basic_string"* dereferenceable(32) %14)
          to label %24 unwind label %29

; <label>:24:                                     ; preds = %23
  %25 = getelementptr inbounds %"class.std::tuple", %"class.std::tuple"* %11, i32 0, i32 0
  %26 = getelementptr inbounds %"struct.std::_Tuple_impl", %"struct.std::_Tuple_impl"* %25, i32 0, i32 0
  %27 = getelementptr inbounds %"struct.std::_Head_base", %"struct.std::_Head_base"* %26, i32 0, i32 0
  %28 = load %"class.std::__cxx11::basic_string"*, %"class.std::__cxx11::basic_string"** %27, align 8
  ret %"class.std::__cxx11::basic_string"* %28

; <label>:29:                                     ; preds = %23
  %30 = landingpad { i8*, i32 }
          catch i8* null
  %31 = extractvalue { i8*, i32 } %30, 0
  call void @__clang_call_terminate(i8* %31) #9
  unreachable

; <label>:32:                                     ; preds = %10, %1
  %33 = alloca %"class.std::tuple", align 8
  %34 = alloca %"class.std::__cxx11::basic_string"*, align 8
  store %"class.std::__cxx11::basic_string"* %0, %"class.std::__cxx11::basic_string"** %34, align 8
  %35 = load %"class.std::__cxx11::basic_string"*, %"class.std::__cxx11::basic_string"** %34, align 8
  %36 = call dereferenceable(32) %"class.std::__cxx11::basic_string"* @_ZSt7forwardINSt7__cxx1112basic_stringIcSt11char_traitsIcESaIcEEEEOT_RNSt16remove_referenceIS6_E4typeE(%"class.std::__cxx11::basic_string"* dereferenceable(32) %35) #3
  br label %10
}

; Function Attrs: noinline nounwind uwtable
define linkonce_odr dereferenceable(32) %"class.std::__cxx11::basic_string"* @_ZSt4moveIRNSt7__cxx1112basic_stringIcSt11char_traitsIcESaIcEEEEONSt16remove_referenceIT_E4typeEOS8_(%"class.std::__cxx11::basic_string"* dereferenceable(32)) #5 comdat {
  %2 = alloca %"class.std::__cxx11::basic_string"*, align 8
  store %"class.std::__cxx11::basic_string"* %0, %"class.std::__cxx11::basic_string"** %2, align 8
  %3 = load %"class.std::__cxx11::basic_string"*, %"class.std::__cxx11::basic_string"** %2, align 8
  ret %"class.std::__cxx11::basic_string"* %3
}

; Function Attrs: argmemonly nounwind
declare void @llvm.memcpy.p0i8.p0i8.i64(i8* nocapture writeonly, i8* nocapture readonly, i64, i32, i1) #8

; Function Attrs: noinline uwtable
define linkonce_odr %"struct.std::_Rb_tree_node_base"* @_ZNSt8_Rb_treeINSt7__cxx1112basic_stringIcSt11char_traitsIcESaIcEEESt4pairIKS5_St3setIS5_St4lessIS5_ESaIS5_EEESt10_Select1stISD_ESA_SaISD_EE11lower_boundERS7_(%"class.std::_Rb_tree"*, %"class.std::__cxx11::basic_string"* dereferenceable(32)) #0 comdat align 2 {
  %3 = load i32, i32* @x.126
  %4 = load i32, i32* @y.127
  %5 = sub i32 %3, 1
  %6 = mul i32 %3, %5
  %7 = urem i32 %6, 2
  %8 = icmp eq i32 %7, 0
  %9 = icmp slt i32 %4, 10
  %10 = or i1 %8, %9
  br i1 %10, label %11, label %32

; <label>:11:                                     ; preds = %2, %32
  %12 = alloca %"struct.std::_Rb_tree_iterator", align 8
  %13 = alloca %"class.std::_Rb_tree"*, align 8
  %14 = alloca %"class.std::__cxx11::basic_string"*, align 8
  store %"class.std::_Rb_tree"* %0, %"class.std::_Rb_tree"** %13, align 8
  store %"class.std::__cxx11::basic_string"* %1, %"class.std::__cxx11::basic_string"** %14, align 8
  %15 = load %"class.std::_Rb_tree"*, %"class.std::_Rb_tree"** %13, align 8
  %16 = call %"struct.std::_Rb_tree_node"* @_ZNSt8_Rb_treeINSt7__cxx1112basic_stringIcSt11char_traitsIcESaIcEEESt4pairIKS5_St3setIS5_St4lessIS5_ESaIS5_EEESt10_Select1stISD_ESA_SaISD_EE8_M_beginEv(%"class.std::_Rb_tree"* %15) #3
  %17 = call %"struct.std::_Rb_tree_node"* @_ZNSt8_Rb_treeINSt7__cxx1112basic_stringIcSt11char_traitsIcESaIcEEESt4pairIKS5_St3setIS5_St4lessIS5_ESaIS5_EEESt10_Select1stISD_ESA_SaISD_EE6_M_endEv(%"class.std::_Rb_tree"* %15) #3
  %18 = load %"class.std::__cxx11::basic_string"*, %"class.std::__cxx11::basic_string"** %14, align 8
  %19 = call %"struct.std::_Rb_tree_node_base"* @_ZNSt8_Rb_treeINSt7__cxx1112basic_stringIcSt11char_traitsIcESaIcEEESt4pairIKS5_St3setIS5_St4lessIS5_ESaIS5_EEESt10_Select1stISD_ESA_SaISD_EE14_M_lower_boundEPSt13_Rb_tree_nodeISD_ESK_RS7_(%"class.std::_Rb_tree"* %15, %"struct.std::_Rb_tree_node"* %16, %"struct.std::_Rb_tree_node"* %17, %"class.std::__cxx11::basic_string"* dereferenceable(32) %18)
  %20 = getelementptr inbounds %"struct.std::_Rb_tree_iterator", %"struct.std::_Rb_tree_iterator"* %12, i32 0, i32 0
  store %"struct.std::_Rb_tree_node_base"* %19, %"struct.std::_Rb_tree_node_base"** %20, align 8
  %21 = getelementptr inbounds %"struct.std::_Rb_tree_iterator", %"struct.std::_Rb_tree_iterator"* %12, i32 0, i32 0
  %22 = load %"struct.std::_Rb_tree_node_base"*, %"struct.std::_Rb_tree_node_base"** %21, align 8
  %23 = load i32, i32* @x.126
  %24 = load i32, i32* @y.127
  %25 = sub i32 %23, 1
  %26 = mul i32 %23, %25
  %27 = urem i32 %26, 2
  %28 = icmp eq i32 %27, 0
  %29 = icmp slt i32 %24, 10
  %30 = or i1 %28, %29
  br i1 %30, label %31, label %32

; <label>:31:                                     ; preds = %11
  ret %"struct.std::_Rb_tree_node_base"* %22

; <label>:32:                                     ; preds = %11, %2
  %33 = alloca %"struct.std::_Rb_tree_iterator", align 8
  %34 = alloca %"class.std::_Rb_tree"*, align 8
  %35 = alloca %"class.std::__cxx11::basic_string"*, align 8
  store %"class.std::_Rb_tree"* %0, %"class.std::_Rb_tree"** %34, align 8
  store %"class.std::__cxx11::basic_string"* %1, %"class.std::__cxx11::basic_string"** %35, align 8
  %36 = load %"class.std::_Rb_tree"*, %"class.std::_Rb_tree"** %34, align 8
  %37 = call %"struct.std::_Rb_tree_node"* @_ZNSt8_Rb_treeINSt7__cxx1112basic_stringIcSt11char_traitsIcESaIcEEESt4pairIKS5_St3setIS5_St4lessIS5_ESaIS5_EEESt10_Select1stISD_ESA_SaISD_EE8_M_beginEv(%"class.std::_Rb_tree"* %36) #3
  %38 = call %"struct.std::_Rb_tree_node"* @_ZNSt8_Rb_treeINSt7__cxx1112basic_stringIcSt11char_traitsIcESaIcEEESt4pairIKS5_St3setIS5_St4lessIS5_ESaIS5_EEESt10_Select1stISD_ESA_SaISD_EE6_M_endEv(%"class.std::_Rb_tree"* %36) #3
  %39 = load %"class.std::__cxx11::basic_string"*, %"class.std::__cxx11::basic_string"** %35, align 8
  %40 = call %"struct.std::_Rb_tree_node_base"* @_ZNSt8_Rb_treeINSt7__cxx1112basic_stringIcSt11char_traitsIcESaIcEEESt4pairIKS5_St3setIS5_St4lessIS5_ESaIS5_EEESt10_Select1stISD_ESA_SaISD_EE14_M_lower_boundEPSt13_Rb_tree_nodeISD_ESK_RS7_(%"class.std::_Rb_tree"* %36, %"struct.std::_Rb_tree_node"* %37, %"struct.std::_Rb_tree_node"* %38, %"class.std::__cxx11::basic_string"* dereferenceable(32) %39)
  %41 = getelementptr inbounds %"struct.std::_Rb_tree_iterator", %"struct.std::_Rb_tree_iterator"* %33, i32 0, i32 0
  store %"struct.std::_Rb_tree_node_base"* %40, %"struct.std::_Rb_tree_node_base"** %41, align 8
  %42 = getelementptr inbounds %"struct.std::_Rb_tree_iterator", %"struct.std::_Rb_tree_iterator"* %33, i32 0, i32 0
  %43 = load %"struct.std::_Rb_tree_node_base"*, %"struct.std::_Rb_tree_node_base"** %42, align 8
  br label %11
}

; Function Attrs: noinline uwtable
define linkonce_odr %"struct.std::_Rb_tree_node_base"* @_ZNSt8_Rb_treeINSt7__cxx1112basic_stringIcSt11char_traitsIcESaIcEEESt4pairIKS5_St3setIS5_St4lessIS5_ESaIS5_EEESt10_Select1stISD_ESA_SaISD_EE14_M_lower_boundEPSt13_Rb_tree_nodeISD_ESK_RS7_(%"class.std::_Rb_tree"*, %"struct.std::_Rb_tree_node"*, %"struct.std::_Rb_tree_node"*, %"class.std::__cxx11::basic_string"* dereferenceable(32)) #0 comdat align 2 {
  %5 = alloca %"struct.std::_Rb_tree_iterator", align 8
  %6 = alloca %"class.std::_Rb_tree"*, align 8
  %7 = alloca %"struct.std::_Rb_tree_node"*, align 8
  %8 = alloca %"struct.std::_Rb_tree_node"*, align 8
  %9 = alloca %"class.std::__cxx11::basic_string"*, align 8
  store %"class.std::_Rb_tree"* %0, %"class.std::_Rb_tree"** %6, align 8
  store %"struct.std::_Rb_tree_node"* %1, %"struct.std::_Rb_tree_node"** %7, align 8
  store %"struct.std::_Rb_tree_node"* %2, %"struct.std::_Rb_tree_node"** %8, align 8
  store %"class.std::__cxx11::basic_string"* %3, %"class.std::__cxx11::basic_string"** %9, align 8
  %10 = load %"class.std::_Rb_tree"*, %"class.std::_Rb_tree"** %6, align 8
  br label %11

; <label>:11:                                     ; preds = %120, %4
  %12 = load i32, i32* @x.128
  %13 = load i32, i32* @y.129
  %14 = sub i32 %12, 1
  %15 = mul i32 %12, %14
  %16 = urem i32 %15, 2
  %17 = icmp eq i32 %16, 0
  %18 = icmp slt i32 %13, 10
  %19 = or i1 %17, %18
  br i1 %19, label %20, label %144

; <label>:20:                                     ; preds = %11, %144
  %21 = load %"struct.std::_Rb_tree_node"*, %"struct.std::_Rb_tree_node"** %7, align 8
  %22 = icmp ne %"struct.std::_Rb_tree_node"* %21, null
  %23 = load i32, i32* @x.128
  %24 = load i32, i32* @y.129
  %25 = sub i32 %23, 1
  %26 = mul i32 %23, %25
  %27 = urem i32 %26, 2
  %28 = icmp eq i32 %27, 0
  %29 = icmp slt i32 %24, 10
  %30 = or i1 %28, %29
  br i1 %30, label %31, label %144

; <label>:31:                                     ; preds = %20
  br i1 %22, label %32, label %121

; <label>:32:                                     ; preds = %31
  %33 = load i32, i32* @x.128
  %34 = load i32, i32* @y.129
  %35 = sub i32 %33, 1
  %36 = mul i32 %33, %35
  %37 = urem i32 %36, 2
  %38 = icmp eq i32 %37, 0
  %39 = icmp slt i32 %34, 10
  %40 = or i1 %38, %39
  br i1 %40, label %41, label %147

; <label>:41:                                     ; preds = %32, %147
  %42 = getelementptr inbounds %"class.std::_Rb_tree", %"class.std::_Rb_tree"* %10, i32 0, i32 0
  %43 = getelementptr inbounds %"struct.std::_Rb_tree<std::__cxx11::basic_string<char>, std::pair<const std::__cxx11::basic_string<char>, std::set<std::__cxx11::basic_string<char>, std::less<std::__cxx11::basic_string<char> >, std::allocator<std::__cxx11::basic_string<char> > > >, std::_Select1st<std::pair<const std::__cxx11::basic_string<char>, std::set<std::__cxx11::basic_string<char>, std::less<std::__cxx11::basic_string<char> >, std::allocator<std::__cxx11::basic_string<char> > > > >, std::less<std::__cxx11::basic_string<char> >, std::allocator<std::pair<const std::__cxx11::basic_string<char>, std::set<std::__cxx11::basic_string<char>, std::less<std::__cxx11::basic_string<char> >, std::allocator<std::__cxx11::basic_string<char> > > > > >::_Rb_tree_impl", %"struct.std::_Rb_tree<std::__cxx11::basic_string<char>, std::pair<const std::__cxx11::basic_string<char>, std::set<std::__cxx11::basic_string<char>, std::less<std::__cxx11::basic_string<char> >, std::allocator<std::__cxx11::basic_string<char> > > >, std::_Select1st<std::pair<const std::__cxx11::basic_string<char>, std::set<std::__cxx11::basic_string<char>, std::less<std::__cxx11::basic_string<char> >, std::allocator<std::__cxx11::basic_string<char> > > > >, std::less<std::__cxx11::basic_string<char> >, std::allocator<std::pair<const std::__cxx11::basic_string<char>, std::set<std::__cxx11::basic_string<char>, std::less<std::__cxx11::basic_string<char> >, std::allocator<std::__cxx11::basic_string<char> > > > > >::_Rb_tree_impl"* %42, i32 0, i32 0
  %44 = load %"struct.std::_Rb_tree_node"*, %"struct.std::_Rb_tree_node"** %7, align 8
  %45 = call dereferenceable(32) %"class.std::__cxx11::basic_string"* @_ZNSt8_Rb_treeINSt7__cxx1112basic_stringIcSt11char_traitsIcESaIcEEESt4pairIKS5_St3setIS5_St4lessIS5_ESaIS5_EEESt10_Select1stISD_ESA_SaISD_EE6_S_keyEPKSt13_Rb_tree_nodeISD_E(%"struct.std::_Rb_tree_node"* %44)
  %46 = load %"class.std::__cxx11::basic_string"*, %"class.std::__cxx11::basic_string"** %9, align 8
  %47 = call zeroext i1 @_ZNKSt4lessINSt7__cxx1112basic_stringIcSt11char_traitsIcESaIcEEEEclERKS5_S8_(%"struct.std::less"* %43, %"class.std::__cxx11::basic_string"* dereferenceable(32) %45, %"class.std::__cxx11::basic_string"* dereferenceable(32) %46)
  %48 = load i32, i32* @x.128
  %49 = load i32, i32* @y.129
  %50 = sub i32 %48, 1
  %51 = mul i32 %48, %50
  %52 = urem i32 %51, 2
  %53 = icmp eq i32 %52, 0
  %54 = icmp slt i32 %49, 10
  %55 = or i1 %53, %54
  br i1 %55, label %56, label %147

; <label>:56:                                     ; preds = %41
  br i1 %47, label %80, label %57

; <label>:57:                                     ; preds = %56
  %58 = load i32, i32* @x.128
  %59 = load i32, i32* @y.129
  %60 = sub i32 %58, 1
  %61 = mul i32 %58, %60
  %62 = urem i32 %61, 2
  %63 = icmp eq i32 %62, 0
  %64 = icmp slt i32 %59, 10
  %65 = or i1 %63, %64
  br i1 %65, label %66, label %154

; <label>:66:                                     ; preds = %57, %154
  %67 = load %"struct.std::_Rb_tree_node"*, %"struct.std::_Rb_tree_node"** %7, align 8
  store %"struct.std::_Rb_tree_node"* %67, %"struct.std::_Rb_tree_node"** %8, align 8
  %68 = load %"struct.std::_Rb_tree_node"*, %"struct.std::_Rb_tree_node"** %7, align 8
  %69 = bitcast %"struct.std::_Rb_tree_node"* %68 to %"struct.std::_Rb_tree_node_base"*
  %70 = call %"struct.std::_Rb_tree_node"* @_ZNSt8_Rb_treeINSt7__cxx1112basic_stringIcSt11char_traitsIcESaIcEEESt4pairIKS5_St3setIS5_St4lessIS5_ESaIS5_EEESt10_Select1stISD_ESA_SaISD_EE7_S_leftEPSt18_Rb_tree_node_base(%"struct.std::_Rb_tree_node_base"* %69) #3
  store %"struct.std::_Rb_tree_node"* %70, %"struct.std::_Rb_tree_node"** %7, align 8
  %71 = load i32, i32* @x.128
  %72 = load i32, i32* @y.129
  %73 = sub i32 %71, 1
  %74 = mul i32 %71, %73
  %75 = urem i32 %74, 2
  %76 = icmp eq i32 %75, 0
  %77 = icmp slt i32 %72, 10
  %78 = or i1 %76, %77
  br i1 %78, label %79, label %154

; <label>:79:                                     ; preds = %66
  br label %102

; <label>:80:                                     ; preds = %56
  %81 = load i32, i32* @x.128
  %82 = load i32, i32* @y.129
  %83 = sub i32 %81, 1
  %84 = mul i32 %81, %83
  %85 = urem i32 %84, 2
  %86 = icmp eq i32 %85, 0
  %87 = icmp slt i32 %82, 10
  %88 = or i1 %86, %87
  br i1 %88, label %89, label %159

; <label>:89:                                     ; preds = %80, %159
  %90 = load %"struct.std::_Rb_tree_node"*, %"struct.std::_Rb_tree_node"** %7, align 8
  %91 = bitcast %"struct.std::_Rb_tree_node"* %90 to %"struct.std::_Rb_tree_node_base"*
  %92 = call %"struct.std::_Rb_tree_node"* @_ZNSt8_Rb_treeINSt7__cxx1112basic_stringIcSt11char_traitsIcESaIcEEESt4pairIKS5_St3setIS5_St4lessIS5_ESaIS5_EEESt10_Select1stISD_ESA_SaISD_EE8_S_rightEPSt18_Rb_tree_node_base(%"struct.std::_Rb_tree_node_base"* %91) #3
  store %"struct.std::_Rb_tree_node"* %92, %"struct.std::_Rb_tree_node"** %7, align 8
  %93 = load i32, i32* @x.128
  %94 = load i32, i32* @y.129
  %95 = sub i32 %93, 1
  %96 = mul i32 %93, %95
  %97 = urem i32 %96, 2
  %98 = icmp eq i32 %97, 0
  %99 = icmp slt i32 %94, 10
  %100 = or i1 %98, %99
  br i1 %100, label %101, label %159

; <label>:101:                                    ; preds = %89
  br label %102

; <label>:102:                                    ; preds = %101, %79
  %103 = load i32, i32* @x.128
  %104 = load i32, i32* @y.129
  %105 = sub i32 %103, 1
  %106 = mul i32 %103, %105
  %107 = urem i32 %106, 2
  %108 = icmp eq i32 %107, 0
  %109 = icmp slt i32 %104, 10
  %110 = or i1 %108, %109
  br i1 %110, label %111, label %163

; <label>:111:                                    ; preds = %102, %163
  %112 = load i32, i32* @x.128
  %113 = load i32, i32* @y.129
  %114 = sub i32 %112, 1
  %115 = mul i32 %112, %114
  %116 = urem i32 %115, 2
  %117 = icmp eq i32 %116, 0
  %118 = icmp slt i32 %113, 10
  %119 = or i1 %117, %118
  br i1 %119, label %120, label %163

; <label>:120:                                    ; preds = %111
  br label %11

; <label>:121:                                    ; preds = %31
  %122 = load i32, i32* @x.128
  %123 = load i32, i32* @y.129
  %124 = sub i32 %122, 1
  %125 = mul i32 %122, %124
  %126 = urem i32 %125, 2
  %127 = icmp eq i32 %126, 0
  %128 = icmp slt i32 %123, 10
  %129 = or i1 %127, %128
  br i1 %129, label %130, label %164

; <label>:130:                                    ; preds = %121, %164
  %131 = load %"struct.std::_Rb_tree_node"*, %"struct.std::_Rb_tree_node"** %8, align 8
  %132 = bitcast %"struct.std::_Rb_tree_node"* %131 to %"struct.std::_Rb_tree_node_base"*
  call void @_ZNSt17_Rb_tree_iteratorISt4pairIKNSt7__cxx1112basic_stringIcSt11char_traitsIcESaIcEEESt3setIS6_St4lessIS6_ESaIS6_EEEEC2EPSt18_Rb_tree_node_base(%"struct.std::_Rb_tree_iterator"* %5, %"struct.std::_Rb_tree_node_base"* %132) #3
  %133 = getelementptr inbounds %"struct.std::_Rb_tree_iterator", %"struct.std::_Rb_tree_iterator"* %5, i32 0, i32 0
  %134 = load %"struct.std::_Rb_tree_node_base"*, %"struct.std::_Rb_tree_node_base"** %133, align 8
  %135 = load i32, i32* @x.128
  %136 = load i32, i32* @y.129
  %137 = sub i32 %135, 1
  %138 = mul i32 %135, %137
  %139 = urem i32 %138, 2
  %140 = icmp eq i32 %139, 0
  %141 = icmp slt i32 %136, 10
  %142 = or i1 %140, %141
  br i1 %142, label %143, label %164

; <label>:143:                                    ; preds = %130
  ret %"struct.std::_Rb_tree_node_base"* %134

; <label>:144:                                    ; preds = %20, %11
  %145 = load %"struct.std::_Rb_tree_node"*, %"struct.std::_Rb_tree_node"** %7, align 8
  %146 = icmp ne %"struct.std::_Rb_tree_node"* %145, null
  br label %20

; <label>:147:                                    ; preds = %41, %32
  %148 = getelementptr inbounds %"class.std::_Rb_tree", %"class.std::_Rb_tree"* %10, i32 0, i32 0
  %149 = getelementptr inbounds %"struct.std::_Rb_tree<std::__cxx11::basic_string<char>, std::pair<const std::__cxx11::basic_string<char>, std::set<std::__cxx11::basic_string<char>, std::less<std::__cxx11::basic_string<char> >, std::allocator<std::__cxx11::basic_string<char> > > >, std::_Select1st<std::pair<const std::__cxx11::basic_string<char>, std::set<std::__cxx11::basic_string<char>, std::less<std::__cxx11::basic_string<char> >, std::allocator<std::__cxx11::basic_string<char> > > > >, std::less<std::__cxx11::basic_string<char> >, std::allocator<std::pair<const std::__cxx11::basic_string<char>, std::set<std::__cxx11::basic_string<char>, std::less<std::__cxx11::basic_string<char> >, std::allocator<std::__cxx11::basic_string<char> > > > > >::_Rb_tree_impl", %"struct.std::_Rb_tree<std::__cxx11::basic_string<char>, std::pair<const std::__cxx11::basic_string<char>, std::set<std::__cxx11::basic_string<char>, std::less<std::__cxx11::basic_string<char> >, std::allocator<std::__cxx11::basic_string<char> > > >, std::_Select1st<std::pair<const std::__cxx11::basic_string<char>, std::set<std::__cxx11::basic_string<char>, std::less<std::__cxx11::basic_string<char> >, std::allocator<std::__cxx11::basic_string<char> > > > >, std::less<std::__cxx11::basic_string<char> >, std::allocator<std::pair<const std::__cxx11::basic_string<char>, std::set<std::__cxx11::basic_string<char>, std::less<std::__cxx11::basic_string<char> >, std::allocator<std::__cxx11::basic_string<char> > > > > >::_Rb_tree_impl"* %148, i32 0, i32 0
  %150 = load %"struct.std::_Rb_tree_node"*, %"struct.std::_Rb_tree_node"** %7, align 8
  %151 = call dereferenceable(32) %"class.std::__cxx11::basic_string"* @_ZNSt8_Rb_treeINSt7__cxx1112basic_stringIcSt11char_traitsIcESaIcEEESt4pairIKS5_St3setIS5_St4lessIS5_ESaIS5_EEESt10_Select1stISD_ESA_SaISD_EE6_S_keyEPKSt13_Rb_tree_nodeISD_E(%"struct.std::_Rb_tree_node"* %150)
