; ModuleID = 'Project_CodeNet_C++1400/p03575/s301713658.cpp'
source_filename = "Project_CodeNet_C++1400/p03575/s301713658.cpp"
target datalayout = "e-m:e-p270:32:32-p271:32:32-p272:64:64-i64:64-f80:128-n8:16:32:64-S128"
target triple = "x86_64-pc-linux-gnu"

%"class.std::ios_base::Init" = type { i8 }
%"class.std::basic_istream" = type { i32 (...)**, i64, %"class.std::basic_ios" }
%"class.std::basic_ios" = type { %"class.std::ios_base", %"class.std::basic_ostream"*, i8, i8, %"class.std::basic_streambuf"*, %"class.std::ctype"*, %"class.std::num_put"*, %"class.std::num_get"* }
%"class.std::ios_base" = type { i32 (...)**, i64, i64, i32, i32, i32, %"struct.std::ios_base::_Callback_list"*, %"struct.std::ios_base::_Words", [8 x %"struct.std::ios_base::_Words"], i32, %"struct.std::ios_base::_Words"*, %"class.std::locale" }
%"struct.std::ios_base::_Callback_list" = type { %"struct.std::ios_base::_Callback_list"*, void (i32, %"class.std::ios_base"*, i32)*, i32, i32 }
%"struct.std::ios_base::_Words" = type { i8*, i64 }
%"class.std::locale" = type { %"class.std::locale::_Impl"* }
%"class.std::locale::_Impl" = type { i32, %"class.std::locale::facet"**, i64, %"class.std::locale::facet"**, i8** }
%"class.std::locale::facet" = type <{ i32 (...)**, i32, [4 x i8] }>
%"class.std::basic_ostream" = type { i32 (...)**, %"class.std::basic_ios" }
%"class.std::basic_streambuf" = type { i32 (...)**, i8*, i8*, i8*, i8*, i8*, i8*, %"class.std::locale" }
%"class.std::ctype" = type <{ %"class.std::locale::facet.base", [4 x i8], %struct.__locale_struct*, i8, [7 x i8], i32*, i32*, i16*, i8, [256 x i8], [256 x i8], i8, [6 x i8] }>
%"class.std::locale::facet.base" = type <{ i32 (...)**, i32 }>
%struct.__locale_struct = type { [13 x %struct.__locale_data*], i16*, i32*, i32*, [13 x i8*] }
%struct.__locale_data = type opaque
%"class.std::num_put" = type { %"class.std::locale::facet.base", [4 x i8] }
%"class.std::num_get" = type { %"class.std::locale::facet.base", [4 x i8] }
%"struct.std::piecewise_construct_t" = type { i8 }
%"class.std::vector.0" = type { %"struct.std::_Vector_base.1" }
%"struct.std::_Vector_base.1" = type { %"struct.std::_Vector_base<long long, std::allocator<long long>>::_Vector_impl" }
%"struct.std::_Vector_base<long long, std::allocator<long long>>::_Vector_impl" = type { %"struct.std::_Vector_base<long long, std::allocator<long long>>::_Vector_impl_data" }
%"struct.std::_Vector_base<long long, std::allocator<long long>>::_Vector_impl_data" = type { i64*, i64*, i64* }
%"class.std::vector" = type { %"struct.std::_Vector_base" }
%"struct.std::_Vector_base" = type { %"struct.std::_Vector_base<std::vector<long long>, std::allocator<std::vector<long long>>>::_Vector_impl" }
%"struct.std::_Vector_base<std::vector<long long>, std::allocator<std::vector<long long>>>::_Vector_impl" = type { %"struct.std::_Vector_base<std::vector<long long>, std::allocator<std::vector<long long>>>::_Vector_impl_data" }
%"struct.std::_Vector_base<std::vector<long long>, std::allocator<std::vector<long long>>>::_Vector_impl_data" = type { %"class.std::vector.0"*, %"class.std::vector.0"*, %"class.std::vector.0"* }
%"class.std::vector.5" = type { %"struct.std::_Vector_base.6" }
%"struct.std::_Vector_base.6" = type { %"struct.std::_Vector_base<std::vector<char>, std::allocator<std::vector<char>>>::_Vector_impl" }
%"struct.std::_Vector_base<std::vector<char>, std::allocator<std::vector<char>>>::_Vector_impl" = type { %"struct.std::_Vector_base<std::vector<char>, std::allocator<std::vector<char>>>::_Vector_impl_data" }
%"struct.std::_Vector_base<std::vector<char>, std::allocator<std::vector<char>>>::_Vector_impl_data" = type { %"class.std::vector.10"*, %"class.std::vector.10"*, %"class.std::vector.10"* }
%"class.std::vector.10" = type { %"struct.std::_Vector_base.11" }
%"struct.std::_Vector_base.11" = type { %"struct.std::_Vector_base<char, std::allocator<char>>::_Vector_impl" }
%"struct.std::_Vector_base<char, std::allocator<char>>::_Vector_impl" = type { %"struct.std::_Vector_base<char, std::allocator<char>>::_Vector_impl_data" }
%"struct.std::_Vector_base<char, std::allocator<char>>::_Vector_impl_data" = type { i8*, i8*, i8* }
%"class.std::queue" = type { %"class.std::deque" }
%"class.std::deque" = type { %"class.std::_Deque_base" }
%"class.std::_Deque_base" = type { %"struct.std::_Deque_base<std::pair<int, int>, std::allocator<std::pair<int, int>>>::_Deque_impl" }
%"struct.std::_Deque_base<std::pair<int, int>, std::allocator<std::pair<int, int>>>::_Deque_impl" = type { %"struct.std::_Deque_base<std::pair<int, int>, std::allocator<std::pair<int, int>>>::_Deque_impl_data" }
%"struct.std::_Deque_base<std::pair<int, int>, std::allocator<std::pair<int, int>>>::_Deque_impl_data" = type { %"struct.std::pair"**, i64, %"struct.std::_Deque_iterator", %"struct.std::_Deque_iterator" }
%"struct.std::pair" = type { i32, i32 }
%"struct.std::_Deque_iterator" = type { %"struct.std::pair"*, %"struct.std::pair"*, %"struct.std::pair"*, %"struct.std::pair"** }
%"class.std::allocator.2" = type { i8 }
%"class.std::map" = type { %"class.std::_Rb_tree" }
%"class.std::_Rb_tree" = type { %"struct.std::_Rb_tree<long long, std::pair<const long long, long long>, std::_Select1st<std::pair<const long long, long long>>, std::less<long long>>::_Rb_tree_impl" }
%"struct.std::_Rb_tree<long long, std::pair<const long long, long long>, std::_Select1st<std::pair<const long long, long long>>, std::less<long long>>::_Rb_tree_impl" = type { %"struct.std::_Rb_tree_key_compare", %"struct.std::_Rb_tree_header" }
%"struct.std::_Rb_tree_key_compare" = type { %"struct.std::less" }
%"struct.std::less" = type { i8 }
%"struct.std::_Rb_tree_header" = type { %"struct.std::_Rb_tree_node_base", i64 }
%"struct.std::_Rb_tree_node_base" = type { i32, %"struct.std::_Rb_tree_node_base"*, %"struct.std::_Rb_tree_node_base"*, %"struct.std::_Rb_tree_node_base"* }
%"class.std::tuple" = type { %"struct.std::_Tuple_impl" }
%"struct.std::_Tuple_impl" = type { %"struct.std::_Head_base" }
%"struct.std::_Head_base" = type { i64* }
%"class.std::tuple.54" = type { i8 }
%"class.std::vector.21" = type { %"struct.std::_Vector_base.22" }
%"struct.std::_Vector_base.22" = type { %"struct.std::_Vector_base<std::vector<Edge>, std::allocator<std::vector<Edge>>>::_Vector_impl" }
%"struct.std::_Vector_base<std::vector<Edge>, std::allocator<std::vector<Edge>>>::_Vector_impl" = type { %"struct.std::_Vector_base<std::vector<Edge>, std::allocator<std::vector<Edge>>>::_Vector_impl_data" }
%"struct.std::_Vector_base<std::vector<Edge>, std::allocator<std::vector<Edge>>>::_Vector_impl_data" = type { %"class.std::vector.26"*, %"class.std::vector.26"*, %"class.std::vector.26"* }
%"class.std::vector.26" = type { %"struct.std::_Vector_base.27" }
%"struct.std::_Vector_base.27" = type { %"struct.std::_Vector_base<Edge, std::allocator<Edge>>::_Vector_impl" }
%"struct.std::_Vector_base<Edge, std::allocator<Edge>>::_Vector_impl" = type { %"struct.std::_Vector_base<Edge, std::allocator<Edge>>::_Vector_impl_data" }
%"struct.std::_Vector_base<Edge, std::allocator<Edge>>::_Vector_impl_data" = type { %struct.Edge*, %struct.Edge*, %struct.Edge* }
%struct.Edge = type { i64, i64 }
%"class.std::priority_queue" = type <{ %"class.std::vector.31", %"struct.std::greater", [7 x i8] }>
%"class.std::vector.31" = type { %"struct.std::_Vector_base.32" }
%"struct.std::_Vector_base.32" = type { %"struct.std::_Vector_base<std::pair<long long, long long>, std::allocator<std::pair<long long, long long>>>::_Vector_impl" }
%"struct.std::_Vector_base<std::pair<long long, long long>, std::allocator<std::pair<long long, long long>>>::_Vector_impl" = type { %"struct.std::_Vector_base<std::pair<long long, long long>, std::allocator<std::pair<long long, long long>>>::_Vector_impl_data" }
%"struct.std::_Vector_base<std::pair<long long, long long>, std::allocator<std::pair<long long, long long>>>::_Vector_impl_data" = type { %"struct.std::pair.36"*, %"struct.std::pair.36"*, %"struct.std::pair.36"* }
%"struct.std::pair.36" = type { i64, i64 }
%"struct.std::greater" = type { i8 }
%"class.std::vector.41" = type { %"struct.std::_Vector_base.42" }
%"struct.std::_Vector_base.42" = type { %"struct.std::_Vector_base<std::__cxx11::basic_string<char>, std::allocator<std::__cxx11::basic_string<char>>>::_Vector_impl" }
%"struct.std::_Vector_base<std::__cxx11::basic_string<char>, std::allocator<std::__cxx11::basic_string<char>>>::_Vector_impl" = type { %"struct.std::_Vector_base<std::__cxx11::basic_string<char>, std::allocator<std::__cxx11::basic_string<char>>>::_Vector_impl_data" }
%"struct.std::_Vector_base<std::__cxx11::basic_string<char>, std::allocator<std::__cxx11::basic_string<char>>>::_Vector_impl_data" = type { %"class.std::__cxx11::basic_string"*, %"class.std::__cxx11::basic_string"*, %"class.std::__cxx11::basic_string"* }
%"class.std::__cxx11::basic_string" = type { %"struct.std::__cxx11::basic_string<char>::_Alloc_hider", i64, %union.anon }
%"struct.std::__cxx11::basic_string<char>::_Alloc_hider" = type { i8* }
%union.anon = type { i64, [8 x i8] }
%"class.std::__cxx11::basic_stringstream" = type { %"class.std::basic_iostream.base", %"class.std::__cxx11::basic_stringbuf", %"class.std::basic_ios" }
%"class.std::basic_iostream.base" = type { %"class.std::basic_istream.base", %"class.std::basic_ostream.base" }
%"class.std::basic_istream.base" = type { i32 (...)**, i64 }
%"class.std::basic_ostream.base" = type { i32 (...)** }
%"class.std::__cxx11::basic_stringbuf" = type { %"class.std::basic_streambuf", i32, %"class.std::__cxx11::basic_string" }
%"class.std::allocator.23" = type { i8 }
%"struct.std::_Rb_tree_node" = type { %"struct.std::_Rb_tree_node_base", %"struct.__gnu_cxx::__aligned_membuf" }
%"struct.__gnu_cxx::__aligned_membuf" = type { [16 x i8] }
%"class.std::allocator" = type { i8 }
%"class.__gnu_cxx::new_allocator" = type { i8 }
%"class.__gnu_cxx::new_allocator.3" = type { i8 }
%"class.std::allocator.46" = type { i8 }
%"class.__gnu_cxx::new_allocator.47" = type { i8 }
%"class.std::allocator.15" = type { i8 }
%"class.__gnu_cxx::new_allocator.16" = type { i8 }
%"class.std::allocator.18" = type { i8 }
%"class.__gnu_cxx::new_allocator.19" = type { i8 }
%"struct.std::vector<long long>::_Temporary_value" = type { %"class.std::vector.0"*, %"union.std::aligned_storage<8, 8>::type" }
%"union.std::aligned_storage<8, 8>::type" = type { [8 x i8] }
%"struct.__gnu_cxx::__ops::_Iter_comp_val" = type { %"struct.std::greater" }
%"class.std::allocator.33" = type { i8 }
%"class.__gnu_cxx::new_allocator.34" = type { i8 }
%"struct.__gnu_cxx::__ops::_Iter_comp_iter" = type { %"struct.std::greater" }
%"class.std::allocator.43" = type { i8 }
%"class.__gnu_cxx::new_allocator.44" = type { i8 }
%"struct.__gnu_cxx::__ops::_Iter_less_iter" = type { i8 }
%"struct.__gnu_cxx::__ops::_Iter_less_val" = type { i8 }
%"class.__gnu_cxx::new_allocator.24" = type { i8 }
%"class.std::allocator.28" = type { i8 }
%"class.__gnu_cxx::new_allocator.29" = type { i8 }

$_ZNSt6vectorIS_IxSaIxEESaIS1_EE9push_backERKS1_ = comdat any

$_ZNSt6vectorIxSaIxEE9push_backERKx = comdat any

$_ZNSt6vectorIxSaIxEEC2ERKS1_ = comdat any

$_ZNSt5queueISt4pairIiiESt5dequeIS1_SaIS1_EEEC2IS4_vEEv = comdat any

$_ZNSt6vectorIxSaIxEEC2EmRKS0_ = comdat any

$_ZNSt6vectorIS_IxSaIxEESaIS1_EED2Ev = comdat any

$_ZNSt3mapIxxSt4lessIxESaISt4pairIKxxEEEixERS3_ = comdat any

$_ZNSt6vectorIxSaIxEE6resizeEmRKx = comdat any

$_ZNSt14priority_queueISt4pairIxxESt6vectorIS1_SaIS1_EESt7greaterIS1_EE7emplaceIJRxRiEEEvDpOT_ = comdat any

$_ZNSt14priority_queueISt4pairIxxESt6vectorIS1_SaIS1_EESt7greaterIS1_EE3popEv = comdat any

$_ZNSt14priority_queueISt4pairIxxESt6vectorIS1_SaIS1_EESt7greaterIS1_EE7emplaceIJRxRKxEEEvDpOT_ = comdat any

$_ZNSt6vectorINSt7__cxx1112basic_stringIcSt11char_traitsIcESaIcEEESaIS5_EE9push_backERKS5_ = comdat any

$_ZNSt6vectorINSt7__cxx1112basic_stringIcSt11char_traitsIcESaIcEEESaIS5_EED2Ev = comdat any

$_ZNSt6vectorIS_I4EdgeSaIS0_EESaIS2_EEC2EmRKS3_ = comdat any

$_ZNSt6vectorI4EdgeSaIS0_EE9push_backERKS0_ = comdat any

$_ZNSt6vectorIS_I4EdgeSaIS0_EESaIS2_EED2Ev = comdat any

$_ZNSt11_Deque_baseISt4pairIiiESaIS1_EED2Ev = comdat any

$__clang_call_terminate = comdat any

$_ZNSt11_Deque_baseISt4pairIiiESaIS1_EE16_M_destroy_nodesEPPS1_S5_ = comdat any

$_ZNSt8_Rb_treeIxSt4pairIKxxESt10_Select1stIS2_ESt4lessIxESaIS2_EED2Ev = comdat any

$_ZNSt8_Rb_treeIxSt4pairIKxxESt10_Select1stIS2_ESt4lessIxESaIS2_EE8_M_eraseEPSt13_Rb_tree_nodeIS2_E = comdat any

$_ZNSt6vectorIS_IxSaIxEESaIS1_EE17_M_realloc_insertIJRKS1_EEEvN9__gnu_cxx17__normal_iteratorIPS1_S3_EEDpOT_ = comdat any

$_ZNKSt6vectorIS_IxSaIxEESaIS1_EE12_M_check_lenEmPKc = comdat any

$_ZNSt12_Vector_baseISt6vectorIxSaIxEESaIS2_EE11_M_allocateEm = comdat any

$_ZNSt16allocator_traitsISaISt6vectorIxSaIxEEEE8allocateERS3_m = comdat any

$_ZN9__gnu_cxx13new_allocatorISt6vectorIxSaIxEEE8allocateEmPKv = comdat any

$_ZSt14__relocate_a_1IPSt6vectorIxSaIxEES3_SaIS2_EET0_T_S6_S5_RT1_ = comdat any

$_ZSt19__relocate_object_aISt6vectorIxSaIxEES2_SaIS2_EEvPT_PT0_RT1_ = comdat any

$_ZNSt12_Destroy_auxILb0EE9__destroyIPSt6vectorIxSaIxEEEEvT_S6_ = comdat any

$_ZNSt6vectorIxSaIxEE17_M_realloc_insertIJRKxEEEvN9__gnu_cxx17__normal_iteratorIPxS1_EEDpOT_ = comdat any

$_ZNKSt6vectorIxSaIxEE12_M_check_lenEmPKc = comdat any

$_ZNSt12_Vector_baseIxSaIxEE11_M_allocateEm = comdat any

$_ZNSt16allocator_traitsISaIxEE8allocateERS0_m = comdat any

$_ZN9__gnu_cxx13new_allocatorIxE8allocateEmPKv = comdat any

$_ZNSt12_Vector_baseIxSaIxEED2Ev = comdat any

$_ZNSt12_Vector_baseIxSaIxEE17_M_create_storageEm = comdat any

$_ZNSt11_Deque_baseISt4pairIiiESaIS1_EEC2Ev = comdat any

$_ZNSt11_Deque_baseISt4pairIiiESaIS1_EE17_M_initialize_mapEm = comdat any

$_ZNSt11_Deque_baseISt4pairIiiESaIS1_EE15_M_allocate_mapEm = comdat any

$_ZNSt11_Deque_baseISt4pairIiiESaIS1_EE15_M_create_nodesEPPS1_S5_ = comdat any

$_ZNSt16allocator_traitsISaIPSt4pairIiiEEE8allocateERS3_m = comdat any

$_ZN9__gnu_cxx13new_allocatorIPSt4pairIiiEE8allocateEmPKv = comdat any

$_ZNSt11_Deque_baseISt4pairIiiESaIS1_EE16_M_allocate_nodeEv = comdat any

$_ZNSt16allocator_traitsISaISt4pairIiiEEE8allocateERS2_m = comdat any

$_ZN9__gnu_cxx13new_allocatorISt4pairIiiEE8allocateEmPKv = comdat any

$_ZNSt12_Vector_baseISt6vectorIxSaIxEESaIS2_EED2Ev = comdat any

$_ZNSt6vectorIxSaIxEE17_S_check_init_lenEmRKS0_ = comdat any

$_ZNSt6vectorIxSaIxEE21_M_default_initializeEm = comdat any

$_ZNSt27__uninitialized_default_n_1ILb1EE18__uninit_default_nIPxmEET_S3_T0_ = comdat any

$_ZSt10__fill_n_aIPxmxET_S1_T0_RKT1_St26random_access_iterator_tag = comdat any

$_ZNSt5dequeISt4pairIiiESaIS1_EE12emplace_backIJS1_EEEvDpOT_ = comdat any

$_ZNSt5dequeISt4pairIiiESaIS1_EE16_M_push_back_auxIJS1_EEEvDpOT_ = comdat any

$_ZNKSt5dequeISt4pairIiiESaIS1_EE4sizeEv = comdat any

$_ZNSt5dequeISt4pairIiiESaIS1_EE22_M_reserve_map_at_backEm = comdat any

$_ZStmiRKSt15_Deque_iteratorISt4pairIiiERS1_PS1_ES6_ = comdat any

$_ZNSt5dequeISt4pairIiiESaIS1_EE17_M_reallocate_mapEmb = comdat any

$_ZNSt5dequeISt4pairIiiESaIS1_EE9pop_frontEv = comdat any

$_ZNSt5dequeISt4pairIiiESaIS1_EE16_M_pop_front_auxEv = comdat any

$_ZNSt8_Rb_treeIxSt4pairIKxxESt10_Select1stIS2_ESt4lessIxESaIS2_EE22_M_emplace_hint_uniqueIJRKSt21piecewise_construct_tSt5tupleIJRS1_EESD_IJEEEEESt17_Rb_tree_iteratorIS2_ESt23_Rb_tree_const_iteratorIS2_EDpOT_ = comdat any

$_ZNSt8_Rb_treeIxSt4pairIKxxESt10_Select1stIS2_ESt4lessIxESaIS2_EE11lower_boundERS1_ = comdat any

$_ZNSt8_Rb_treeIxSt4pairIKxxESt10_Select1stIS2_ESt4lessIxESaIS2_EE14_M_lower_boundEPSt13_Rb_tree_nodeIS2_EPSt18_Rb_tree_node_baseRS1_ = comdat any

$_ZNSt8_Rb_treeIxSt4pairIKxxESt10_Select1stIS2_ESt4lessIxESaIS2_EE14_M_create_nodeIJRKSt21piecewise_construct_tSt5tupleIJRS1_EESD_IJEEEEEPSt13_Rb_tree_nodeIS2_EDpOT_ = comdat any

$_ZNSt8_Rb_treeIxSt4pairIKxxESt10_Select1stIS2_ESt4lessIxESaIS2_EE29_M_get_insert_hint_unique_posESt23_Rb_tree_const_iteratorIS2_ERS1_ = comdat any

$_ZNSt8_Rb_treeIxSt4pairIKxxESt10_Select1stIS2_ESt4lessIxESaIS2_EE14_M_insert_nodeEPSt18_Rb_tree_node_baseSA_PSt13_Rb_tree_nodeIS2_E = comdat any

$_ZNSt8_Rb_treeIxSt4pairIKxxESt10_Select1stIS2_ESt4lessIxESaIS2_EE11_M_get_nodeEv = comdat any

$_ZNSt16allocator_traitsISaISt13_Rb_tree_nodeISt4pairIKxxEEEE8allocateERS5_m = comdat any

$_ZN9__gnu_cxx13new_allocatorISt13_Rb_tree_nodeISt4pairIKxxEEE8allocateEmPKv = comdat any

$_ZNSt8_Rb_treeIxSt4pairIKxxESt10_Select1stIS2_ESt4lessIxESaIS2_EE24_M_get_insert_unique_posERS1_ = comdat any

$_ZNSt6vectorIxSaIxEE14_M_fill_insertEN9__gnu_cxx17__normal_iteratorIPxS1_EEmRKx = comdat any

$_ZNSt12_Vector_baseISt4pairIxxESaIS1_EED2Ev = comdat any

$_ZNSt6vectorISt4pairIxxESaIS1_EE12emplace_backIJRxRiEEEvDpOT_ = comdat any

$_ZSt9push_heapIN9__gnu_cxx17__normal_iteratorIPSt4pairIxxESt6vectorIS3_SaIS3_EEEESt7greaterIS3_EEvT_SB_T0_ = comdat any

$_ZNSt6vectorISt4pairIxxESaIS1_EE17_M_realloc_insertIJRxRiEEEvN9__gnu_cxx17__normal_iteratorIPS1_S3_EEDpOT_ = comdat any

$_ZNKSt6vectorISt4pairIxxESaIS1_EE12_M_check_lenEmPKc = comdat any

$_ZNSt12_Vector_baseISt4pairIxxESaIS1_EE11_M_allocateEm = comdat any

$_ZNSt16allocator_traitsISaISt4pairIxxEEE8allocateERS2_m = comdat any

$_ZN9__gnu_cxx13new_allocatorISt4pairIxxEE8allocateEmPKv = comdat any

$_ZSt11__push_heapIN9__gnu_cxx17__normal_iteratorIPSt4pairIxxESt6vectorIS3_SaIS3_EEEElS3_NS0_5__ops14_Iter_comp_valISt7greaterIS3_EEEEvT_T0_SF_T1_RT2_ = comdat any

$_ZStltIxxEbRKSt4pairIT_T0_ES5_ = comdat any

$_ZSt8pop_heapIN9__gnu_cxx17__normal_iteratorIPSt4pairIxxESt6vectorIS3_SaIS3_EEEESt7greaterIS3_EEvT_SB_T0_ = comdat any

$_ZSt10__pop_heapIN9__gnu_cxx17__normal_iteratorIPSt4pairIxxESt6vectorIS3_SaIS3_EEEENS0_5__ops15_Iter_comp_iterISt7greaterIS3_EEEEvT_SE_SE_RT0_ = comdat any

$_ZSt13__adjust_heapIN9__gnu_cxx17__normal_iteratorIPSt4pairIxxESt6vectorIS3_SaIS3_EEEElS3_NS0_5__ops15_Iter_comp_iterISt7greaterIS3_EEEEvT_T0_SF_T1_T2_ = comdat any

$_ZNSt6vectorISt4pairIxxESaIS1_EE12emplace_backIJRxRKxEEEvDpOT_ = comdat any

$_ZNSt6vectorISt4pairIxxESaIS1_EE17_M_realloc_insertIJRxRKxEEEvN9__gnu_cxx17__normal_iteratorIPS1_S3_EEDpOT_ = comdat any

$_ZSt9__reverseIN9__gnu_cxx17__normal_iteratorIPxSt6vectorIxSaIxEEEEEvT_S7_St26random_access_iterator_tag = comdat any

$_ZNSt12_Vector_baseINSt7__cxx1112basic_stringIcSt11char_traitsIcESaIcEEESaIS5_EED2Ev = comdat any

$_ZNSt12_Destroy_auxILb0EE9__destroyIPNSt7__cxx1112basic_stringIcSt11char_traitsIcESaIcEEEEEvT_S9_ = comdat any

$_ZNSt6vectorINSt7__cxx1112basic_stringIcSt11char_traitsIcESaIcEEESaIS5_EE17_M_realloc_insertIJRKS5_EEEvN9__gnu_cxx17__normal_iteratorIPS5_S7_EEDpOT_ = comdat any

$_ZNKSt6vectorINSt7__cxx1112basic_stringIcSt11char_traitsIcESaIcEEESaIS5_EE12_M_check_lenEmPKc = comdat any

$_ZNSt12_Vector_baseINSt7__cxx1112basic_stringIcSt11char_traitsIcESaIcEEESaIS5_EE11_M_allocateEm = comdat any

$_ZNSt16allocator_traitsISaINSt7__cxx1112basic_stringIcSt11char_traitsIcESaIcEEEEE8allocateERS6_m = comdat any

$_ZN9__gnu_cxx13new_allocatorINSt7__cxx1112basic_stringIcSt11char_traitsIcESaIcEEEE8allocateEmPKv = comdat any

$_ZSt14__relocate_a_1IPNSt7__cxx1112basic_stringIcSt11char_traitsIcESaIcEEES6_SaIS5_EET0_T_S9_S8_RT1_ = comdat any

$_ZSt19__relocate_object_aINSt7__cxx1112basic_stringIcSt11char_traitsIcESaIcEEES5_SaIS5_EEvPT_PT0_RT1_ = comdat any

$_ZNSt6vectorIxSaIxEE12emplace_backIJxEEEvDpOT_ = comdat any

$_ZNSt6vectorIxSaIxEE17_M_realloc_insertIJxEEEvN9__gnu_cxx17__normal_iteratorIPxS1_EEDpOT_ = comdat any

$_ZSt6__sortIN9__gnu_cxx17__normal_iteratorIPxSt6vectorIxSaIxEEEENS0_5__ops15_Iter_less_iterEEvT_S9_T0_ = comdat any

$_ZSt16__introsort_loopIN9__gnu_cxx17__normal_iteratorIPxSt6vectorIxSaIxEEEElNS0_5__ops15_Iter_less_iterEEvT_S9_T0_T1_ = comdat any

$_ZSt22__final_insertion_sortIN9__gnu_cxx17__normal_iteratorIPxSt6vectorIxSaIxEEEENS0_5__ops15_Iter_less_iterEEvT_S9_T0_ = comdat any

$_ZSt14__partial_sortIN9__gnu_cxx17__normal_iteratorIPxSt6vectorIxSaIxEEEENS0_5__ops15_Iter_less_iterEEvT_S9_S9_T0_ = comdat any

$_ZSt27__unguarded_partition_pivotIN9__gnu_cxx17__normal_iteratorIPxSt6vectorIxSaIxEEEENS0_5__ops15_Iter_less_iterEET_S9_S9_T0_ = comdat any

$_ZSt13__heap_selectIN9__gnu_cxx17__normal_iteratorIPxSt6vectorIxSaIxEEEENS0_5__ops15_Iter_less_iterEEvT_S9_S9_T0_ = comdat any

$_ZSt11__sort_heapIN9__gnu_cxx17__normal_iteratorIPxSt6vectorIxSaIxEEEENS0_5__ops15_Iter_less_iterEEvT_S9_RT0_ = comdat any

$_ZSt11__make_heapIN9__gnu_cxx17__normal_iteratorIPxSt6vectorIxSaIxEEEENS0_5__ops15_Iter_less_iterEEvT_S9_RT0_ = comdat any

$_ZSt10__pop_heapIN9__gnu_cxx17__normal_iteratorIPxSt6vectorIxSaIxEEEENS0_5__ops15_Iter_less_iterEEvT_S9_S9_RT0_ = comdat any

$_ZSt13__adjust_heapIN9__gnu_cxx17__normal_iteratorIPxSt6vectorIxSaIxEEEElxNS0_5__ops15_Iter_less_iterEEvT_T0_SA_T1_T2_ = comdat any

$_ZSt11__push_heapIN9__gnu_cxx17__normal_iteratorIPxSt6vectorIxSaIxEEEElxNS0_5__ops14_Iter_less_valEEvT_T0_SA_T1_RT2_ = comdat any

$_ZSt22__move_median_to_firstIN9__gnu_cxx17__normal_iteratorIPxSt6vectorIxSaIxEEEENS0_5__ops15_Iter_less_iterEEvT_S9_S9_S9_T0_ = comdat any

$_ZSt21__unguarded_partitionIN9__gnu_cxx17__normal_iteratorIPxSt6vectorIxSaIxEEEENS0_5__ops15_Iter_less_iterEET_S9_S9_S9_T0_ = comdat any

$_ZSt16__insertion_sortIN9__gnu_cxx17__normal_iteratorIPxSt6vectorIxSaIxEEEENS0_5__ops15_Iter_less_iterEEvT_S9_T0_ = comdat any

$_ZSt26__unguarded_insertion_sortIN9__gnu_cxx17__normal_iteratorIPxSt6vectorIxSaIxEEEENS0_5__ops15_Iter_less_iterEEvT_S9_T0_ = comdat any

$_ZSt25__unguarded_linear_insertIN9__gnu_cxx17__normal_iteratorIPxSt6vectorIxSaIxEEEENS0_5__ops14_Val_less_iterEEvT_T0_ = comdat any

$_ZNSt6vectorISt4pairIxxESaIS1_EE12emplace_backIJS1_EEEvDpOT_ = comdat any

$_ZNSt6vectorISt4pairIxxESaIS1_EE17_M_realloc_insertIJS1_EEEvN9__gnu_cxx17__normal_iteratorIPS1_S3_EEDpOT_ = comdat any

$_ZNSt6vectorIS_I4EdgeSaIS0_EESaIS2_EE17_S_check_init_lenEmRKS3_ = comdat any

$_ZNSt6vectorIS_I4EdgeSaIS0_EESaIS2_EE21_M_default_initializeEm = comdat any

$_ZNSt12_Vector_baseISt6vectorI4EdgeSaIS1_EESaIS3_EED2Ev = comdat any

$_ZNSt12_Vector_baseISt6vectorI4EdgeSaIS1_EESaIS3_EE17_M_create_storageEm = comdat any

$_ZNSt12_Vector_baseISt6vectorI4EdgeSaIS1_EESaIS3_EE11_M_allocateEm = comdat any

$_ZNSt16allocator_traitsISaISt6vectorI4EdgeSaIS1_EEEE8allocateERS4_m = comdat any

$_ZN9__gnu_cxx13new_allocatorISt6vectorI4EdgeSaIS2_EEE8allocateEmPKv = comdat any

$_ZNSt27__uninitialized_default_n_1ILb0EE18__uninit_default_nIPSt6vectorI4EdgeSaIS3_EEmEET_S7_T0_ = comdat any

$_ZNSt12_Destroy_auxILb0EE9__destroyIPSt6vectorI4EdgeSaIS3_EEEEvT_S7_ = comdat any

$_ZNSt12_Vector_baseI4EdgeSaIS0_EED2Ev = comdat any

$_ZNSt6vectorI4EdgeSaIS0_EE17_M_realloc_insertIJRKS0_EEEvN9__gnu_cxx17__normal_iteratorIPS0_S2_EEDpOT_ = comdat any

$_ZNKSt6vectorI4EdgeSaIS0_EE12_M_check_lenEmPKc = comdat any

$_ZNSt12_Vector_baseI4EdgeSaIS0_EE11_M_allocateEm = comdat any

$_ZNSt16allocator_traitsISaI4EdgeEE8allocateERS1_m = comdat any

$_ZN9__gnu_cxx13new_allocatorI4EdgeE8allocateEmPKv = comdat any

@_ZStL8__ioinit = internal global %"class.std::ios_base::Init" zeroinitializer, align 1
@__dso_handle = external hidden global i8
@_ZL2PI = internal global x86_fp80 0xK00000000000000000000, align 16
@_ZL3INF = internal constant i64 1152921504606846976, align 8
@_ZSt3cin = external global %"class.std::basic_istream", align 8
@_ZSt4cout = external global %"class.std::basic_ostream", align 8
@.str = private unnamed_addr constant [26 x i8] c"vector::_M_realloc_insert\00", align 1
@.str.2 = private unnamed_addr constant [49 x i8] c"cannot create std::vector larger than max_size()\00", align 1
@.str.3 = private unnamed_addr constant [48 x i8] c"cannot create std::deque larger than max_size()\00", align 1
@_ZStL19piecewise_construct = internal constant %"struct.std::piecewise_construct_t" undef, align 1
@.str.4 = private unnamed_addr constant [23 x i8] c"vector::_M_fill_insert\00", align 1
@llvm.global_ctors = appending global [1 x { i32, void ()*, i8* }] [{ i32, void ()*, i8* } { i32 65535, void ()* @_GLOBAL__sub_I_s301713658.cpp, i8* null }]

; Function Attrs: minsize optsize
declare void @_ZNSt8ios_base4InitC1Ev(%"class.std::ios_base::Init"* nonnull align 1 dereferenceable(1)) unnamed_addr #0

; Function Attrs: minsize nounwind optsize
declare void @_ZNSt8ios_base4InitD1Ev(%"class.std::ios_base::Init"* nonnull align 1 dereferenceable(1)) unnamed_addr #1

; Function Attrs: nofree nounwind
declare i32 @__cxa_atexit(void (i8*)*, i8*, i8*) local_unnamed_addr #2

; Function Attrs: argmemonly mustprogress nofree nosync nounwind willreturn
declare {}* @llvm.invariant.start.p0i8(i64 immarg, i8* nocapture) #3

; Function Attrs: minsize mustprogress nofree norecurse nosync nounwind optsize readnone sspstrong uwtable willreturn
define dso_local zeroext i1 @_Z8is_primex(i64 %0) local_unnamed_addr #4 {
  br label %2

2:                                                ; preds = %6, %1
  %3 = phi i64 [ 2, %1 ], [ %9, %6 ]
  %4 = mul nsw i64 %3, %3
  %5 = icmp sgt i64 %4, %0
  br i1 %5, label %10, label %6

6:                                                ; preds = %2
  %7 = srem i64 %0, %3
  %8 = icmp eq i64 %7, 0
  %9 = add nuw nsw i64 %3, 1
  br i1 %8, label %10, label %2, !llvm.loop !5

10:                                               ; preds = %2, %6
  ret i1 %5
}

; Function Attrs: argmemonly mustprogress nofree nosync nounwind willreturn
declare void @llvm.lifetime.start.p0i8(i64 immarg, i8* nocapture) #3

; Function Attrs: argmemonly mustprogress nofree nosync nounwind willreturn
declare void @llvm.lifetime.end.p0i8(i64 immarg, i8* nocapture) #3

; Function Attrs: minsize mustprogress nofree norecurse nosync nounwind optsize readnone sspstrong uwtable willreturn
define dso_local i64 @_Z6modpowxxx(i64 %0, i64 %1, i64 %2) local_unnamed_addr #4 {
  br label %4

4:                                                ; preds = %15, %3
  %5 = phi i64 [ %1, %3 ], [ %19, %15 ]
  %6 = phi i64 [ %0, %3 ], [ %18, %15 ]
  %7 = phi i64 [ 1, %3 ], [ %16, %15 ]
  %8 = icmp eq i64 %5, 0
  br i1 %8, label %20, label %9

9:                                                ; preds = %4
  %10 = and i64 %5, 1
  %11 = icmp eq i64 %10, 0
  br i1 %11, label %15, label %12

12:                                               ; preds = %9
  %13 = mul nsw i64 %7, %6
  %14 = srem i64 %13, %2
  br label %15

15:                                               ; preds = %12, %9
  %16 = phi i64 [ %14, %12 ], [ %7, %9 ]
  %17 = mul nsw i64 %6, %6
  %18 = srem i64 %17, %2
  %19 = ashr i64 %5, 1
  br label %4, !llvm.loop !7

20:                                               ; preds = %4
  ret i64 %7
}

; Function Attrs: minsize mustprogress nofree norecurse nosync nounwind optsize readnone sspstrong uwtable willreturn
define dso_local i64 @_Z5combixx(i64 %0, i64 %1) local_unnamed_addr #4 {
  %3 = sub nsw i64 %0, %1
  br label %4

4:                                                ; preds = %9, %2
  %5 = phi i64 [ 1, %2 ], [ %12, %9 ]
  %6 = phi i64 [ %3, %2 ], [ %7, %9 ]
  %7 = add nsw i64 %6, 1
  %8 = icmp slt i64 %6, %0
  br i1 %8, label %9, label %13

9:                                                ; preds = %4
  %10 = srem i64 %7, 1000000007
  %11 = mul nsw i64 %10, %5
  %12 = srem i64 %11, 1000000007
  br label %4, !llvm.loop !8

13:                                               ; preds = %4, %21
  %14 = phi i64 [ %23, %21 ], [ 1, %4 ]
  %15 = phi i64 [ %24, %21 ], [ 2, %4 ]
  %16 = icmp sgt i64 %15, %1
  br i1 %16, label %17, label %21

17:                                               ; preds = %13
  %18 = tail call i64 @_Z6modpowxxx(i64 %14, i64 1000000005, i64 1000000007) #24
  %19 = mul nsw i64 %18, %5
  %20 = srem i64 %19, 1000000007
  ret i64 %20

21:                                               ; preds = %13
  %22 = mul nsw i64 %15, %14
  %23 = srem i64 %22, 1000000007
  %24 = add nuw nsw i64 %15, 1
  br label %13, !llvm.loop !9
}

; Function Attrs: minsize optsize sspstrong uwtable
define dso_local void @_Z3dfsSt6vectorIxSaIxEExxxRS_IS1_SaIS1_EE(%"class.std::vector.0"* %0, i64 %1, i64 %2, i64 %3, %"class.std::vector"* nonnull align 8 dereferenceable(24) %4) local_unnamed_addr #5 personality i8* bitcast (i32 (...)* @__gxx_personality_v0 to i8*) {
  %6 = alloca i64, align 8
  %7 = alloca %"class.std::vector.0", align 8
  %8 = getelementptr inbounds %"class.std::vector.0", %"class.std::vector.0"* %0, i64 0, i32 0, i32 0, i32 0, i32 1
  %9 = load i64*, i64** %8, align 8, !tbaa !10
  %10 = getelementptr inbounds %"class.std::vector.0", %"class.std::vector.0"* %0, i64 0, i32 0, i32 0, i32 0, i32 0
  %11 = load i64*, i64** %10, align 8, !tbaa !15
  %12 = ptrtoint i64* %9 to i64
  %13 = ptrtoint i64* %11 to i64
  %14 = sub i64 %12, %13
  %15 = ashr exact i64 %14, 3
  %16 = icmp eq i64 %15, %3
  br i1 %16, label %17, label %18

17:                                               ; preds = %5
  tail call void @_ZNSt6vectorIS_IxSaIxEESaIS1_EE9push_backERKS1_(%"class.std::vector"* nonnull align 8 dereferenceable(24) %4, %"class.std::vector.0"* nonnull align 8 dereferenceable(24) %0) #24
  br label %35

18:                                               ; preds = %5
  %19 = bitcast i64* %6 to i8*
  call void @llvm.lifetime.start.p0i8(i64 8, i8* nonnull %19) #25
  %20 = icmp eq i64 %14, 0
  %21 = select i1 %20, i64 %1, i64 0
  %22 = getelementptr inbounds %"class.std::vector.0", %"class.std::vector.0"* %7, i64 0, i32 0
  br label %23

23:                                               ; preds = %28, %18
  %24 = phi i64 [ %21, %18 ], [ %32, %28 ]
  store i64 %24, i64* %6, align 8, !tbaa !16
  %25 = icmp sgt i64 %24, %2
  br i1 %25, label %26, label %27

26:                                               ; preds = %23
  call void @llvm.lifetime.end.p0i8(i64 8, i8* nonnull %19) #25
  br label %35

27:                                               ; preds = %23
  call void @_ZNSt6vectorIxSaIxEE9push_backERKx(%"class.std::vector.0"* nonnull align 8 dereferenceable(24) %0, i64* nonnull align 8 dereferenceable(8) %6) #24
  call void @_ZNSt6vectorIxSaIxEEC2ERKS1_(%"class.std::vector.0"* nonnull align 8 dereferenceable(24) %7, %"class.std::vector.0"* nonnull align 8 dereferenceable(24) %0) #24
  invoke void @_Z3dfsSt6vectorIxSaIxEExxxRS_IS1_SaIS1_EE(%"class.std::vector.0"* nonnull %7, i64 %1, i64 %2, i64 %3, %"class.std::vector"* nonnull align 8 dereferenceable(24) %4) #24
          to label %28 unwind label %33

28:                                               ; preds = %27
  call void @_ZNSt12_Vector_baseIxSaIxEED2Ev(%"struct.std::_Vector_base.1"* nonnull align 8 dereferenceable(24) %22) #26
  %29 = load i64*, i64** %8, align 8, !tbaa !10
  %30 = getelementptr inbounds i64, i64* %29, i64 -1
  store i64* %30, i64** %8, align 8, !tbaa !10
  %31 = load i64, i64* %6, align 8, !tbaa !16
  %32 = add nsw i64 %31, 1
  br label %23, !llvm.loop !18

33:                                               ; preds = %27
  %34 = landingpad { i8*, i32 }
          cleanup
  call void @_ZNSt12_Vector_baseIxSaIxEED2Ev(%"struct.std::_Vector_base.1"* nonnull align 8 dereferenceable(24) %22) #26
  call void @llvm.lifetime.end.p0i8(i64 8, i8* nonnull %19) #25
  resume { i8*, i32 } %34

35:                                               ; preds = %26, %17
  ret void
}

; Function Attrs: minsize optsize sspstrong uwtable
define linkonce_odr dso_local void @_ZNSt6vectorIS_IxSaIxEESaIS1_EE9push_backERKS1_(%"class.std::vector"* nonnull align 8 dereferenceable(24) %0, %"class.std::vector.0"* nonnull align 8 dereferenceable(24) %1) local_unnamed_addr #5 comdat align 2 {
  %3 = getelementptr inbounds %"class.std::vector", %"class.std::vector"* %0, i64 0, i32 0, i32 0, i32 0, i32 1
  %4 = load %"class.std::vector.0"*, %"class.std::vector.0"** %3, align 8, !tbaa !19
  %5 = getelementptr inbounds %"class.std::vector", %"class.std::vector"* %0, i64 0, i32 0, i32 0, i32 0, i32 2
  %6 = load %"class.std::vector.0"*, %"class.std::vector.0"** %5, align 8, !tbaa !21
  %7 = icmp eq %"class.std::vector.0"* %4, %6
  br i1 %7, label %11, label %8

8:                                                ; preds = %2
  tail call void @_ZNSt6vectorIxSaIxEEC2ERKS1_(%"class.std::vector.0"* nonnull align 8 dereferenceable(24) %4, %"class.std::vector.0"* nonnull align 8 dereferenceable(24) %1) #24
  %9 = load %"class.std::vector.0"*, %"class.std::vector.0"** %3, align 8, !tbaa !19
  %10 = getelementptr inbounds %"class.std::vector.0", %"class.std::vector.0"* %9, i64 1
  store %"class.std::vector.0"* %10, %"class.std::vector.0"** %3, align 8, !tbaa !19
  br label %12

11:                                               ; preds = %2
  tail call void @_ZNSt6vectorIS_IxSaIxEESaIS1_EE17_M_realloc_insertIJRKS1_EEEvN9__gnu_cxx17__normal_iteratorIPS1_S3_EEDpOT_(%"class.std::vector"* nonnull align 8 dereferenceable(24) %0, %"class.std::vector.0"* %4, %"class.std::vector.0"* nonnull align 8 dereferenceable(24) %1) #24
  br label %12

12:                                               ; preds = %11, %8
  ret void
}

; Function Attrs: minsize optsize sspstrong uwtable
define linkonce_odr dso_local void @_ZNSt6vectorIxSaIxEE9push_backERKx(%"class.std::vector.0"* nonnull align 8 dereferenceable(24) %0, i64* nonnull align 8 dereferenceable(8) %1) local_unnamed_addr #5 comdat align 2 {
  %3 = getelementptr inbounds %"class.std::vector.0", %"class.std::vector.0"* %0, i64 0, i32 0, i32 0, i32 0, i32 1
  %4 = load i64*, i64** %3, align 8, !tbaa !10
  %5 = getelementptr inbounds %"class.std::vector.0", %"class.std::vector.0"* %0, i64 0, i32 0, i32 0, i32 0, i32 2
  %6 = load i64*, i64** %5, align 8, !tbaa !22
  %7 = icmp eq i64* %4, %6
  br i1 %7, label %11, label %8

8:                                                ; preds = %2
  %9 = load i64, i64* %1, align 8, !tbaa !16
  store i64 %9, i64* %4, align 8, !tbaa !16
  %10 = getelementptr inbounds i64, i64* %4, i64 1
  store i64* %10, i64** %3, align 8, !tbaa !10
  br label %12

11:                                               ; preds = %2
  tail call void @_ZNSt6vectorIxSaIxEE17_M_realloc_insertIJRKxEEEvN9__gnu_cxx17__normal_iteratorIPxS1_EEDpOT_(%"class.std::vector.0"* nonnull align 8 dereferenceable(24) %0, i64* %4, i64* nonnull align 8 dereferenceable(8) %1) #24
  br label %12

12:                                               ; preds = %11, %8
  ret void
}

; Function Attrs: minsize optsize sspstrong uwtable
define linkonce_odr dso_local void @_ZNSt6vectorIxSaIxEEC2ERKS1_(%"class.std::vector.0"* nonnull align 8 dereferenceable(24) %0, %"class.std::vector.0"* nonnull align 8 dereferenceable(24) %1) unnamed_addr #5 comdat align 2 personality i8* bitcast (i32 (...)* @__gxx_personality_v0 to i8*) {
  %3 = getelementptr inbounds %"class.std::vector.0", %"class.std::vector.0"* %0, i64 0, i32 0
  %4 = getelementptr inbounds %"class.std::vector.0", %"class.std::vector.0"* %1, i64 0, i32 0, i32 0, i32 0, i32 1
  %5 = load i64*, i64** %4, align 8, !tbaa !10
  %6 = getelementptr inbounds %"class.std::vector.0", %"class.std::vector.0"* %1, i64 0, i32 0, i32 0, i32 0, i32 0
  %7 = load i64*, i64** %6, align 8, !tbaa !15
  %8 = ptrtoint i64* %5 to i64
  %9 = ptrtoint i64* %7 to i64
  %10 = sub i64 %8, %9
  %11 = ashr exact i64 %10, 3
  %12 = bitcast %"class.std::vector.0"* %0 to i8*
  tail call void @llvm.memset.p0i8.i64(i8* noundef nonnull align 8 dereferenceable(24) %12, i8 0, i64 24, i1 false) #25
  tail call void @_ZNSt12_Vector_baseIxSaIxEE17_M_create_storageEm(%"struct.std::_Vector_base.1"* nonnull align 8 dereferenceable(24) %3, i64 %11) #24
  %13 = load i64*, i64** %6, align 8, !tbaa !23
  %14 = load i64*, i64** %4, align 8, !tbaa !23
  %15 = getelementptr inbounds %"class.std::vector.0", %"class.std::vector.0"* %0, i64 0, i32 0, i32 0, i32 0, i32 0
  %16 = load i64*, i64** %15, align 8, !tbaa !15
  %17 = ptrtoint i64* %14 to i64
  %18 = ptrtoint i64* %13 to i64
  %19 = sub i64 %17, %18
  %20 = icmp eq i64 %19, 0
  br i1 %20, label %24, label %21

21:                                               ; preds = %2
  %22 = bitcast i64* %16 to i8*
  %23 = bitcast i64* %13 to i8*
  tail call void @llvm.memmove.p0i8.p0i8.i64(i8* align 8 %22, i8* align 8 %23, i64 %19, i1 false) #25
  br label %24

24:                                               ; preds = %21, %2
  %25 = ashr exact i64 %19, 3
  %26 = getelementptr inbounds i64, i64* %16, i64 %25
  %27 = getelementptr inbounds %"class.std::vector.0", %"class.std::vector.0"* %0, i64 0, i32 0, i32 0, i32 0, i32 1
  store i64* %26, i64** %27, align 8, !tbaa !10
  ret void
}

declare i32 @__gxx_personality_v0(...)

; Function Attrs: minsize optsize sspstrong uwtable
define dso_local i32 @_Z3bfsiiiiiiSt6vectorIS_IcSaIcEESaIS1_EE(i32 %0, i32 %1, i32 %2, i32 %3, i32 %4, i32 %5, %"class.std::vector.5"* nocapture readonly %6) local_unnamed_addr #5 personality i8* bitcast (i32 (...)* @__gxx_personality_v0 to i8*) {
  %8 = alloca %"class.std::queue", align 8
  %9 = alloca %"class.std::vector", align 8
  %10 = alloca %"class.std::vector.0", align 8
  %11 = alloca %"class.std::allocator.2", align 1
  %12 = alloca i64, align 8
  %13 = bitcast i64* %12 to %"struct.std::pair"*
  %14 = alloca i64, align 8
  %15 = bitcast i64* %14 to %"struct.std::pair"*
  %16 = bitcast %"class.std::queue"* %8 to i8*
  call void @llvm.lifetime.start.p0i8(i64 80, i8* nonnull %16) #25
  call void @_ZNSt5queueISt4pairIiiESt5dequeIS1_SaIS1_EEEC2IS4_vEEv(%"class.std::queue"* nonnull align 8 dereferenceable(80) %8) #24
  %17 = bitcast %"class.std::vector"* %9 to i8*
  call void @llvm.lifetime.start.p0i8(i64 24, i8* nonnull %17) #25
  call void @llvm.memset.p0i8.i64(i8* noundef nonnull align 8 dereferenceable(24) %17, i8 0, i64 24, i1 false) #25
  %18 = bitcast %"class.std::vector.0"* %10 to i8*
  %19 = sext i32 %5 to i64
  %20 = getelementptr inbounds %"class.std::allocator.2", %"class.std::allocator.2"* %11, i64 0, i32 0
  %21 = getelementptr inbounds %"class.std::vector.0", %"class.std::vector.0"* %10, i64 0, i32 0
  %22 = call i32 @llvm.smax.i32(i32 %4, i32 0)
  br label %23

23:                                               ; preds = %28, %7
  %24 = phi i32 [ 0, %7 ], [ %29, %28 ]
  %25 = icmp eq i32 %24, %22
  br i1 %25, label %36, label %26

26:                                               ; preds = %23
  call void @llvm.lifetime.start.p0i8(i64 24, i8* nonnull %18) #25
  call void @llvm.lifetime.start.p0i8(i64 1, i8* nonnull %20) #25
  invoke void @_ZNSt6vectorIxSaIxEEC2EmRKS0_(%"class.std::vector.0"* nonnull align 8 dereferenceable(24) %10, i64 %19, %"class.std::allocator.2"* nonnull align 1 dereferenceable(1) %11) #24
          to label %27 unwind label %30

27:                                               ; preds = %26
  call void @llvm.lifetime.end.p0i8(i64 1, i8* nonnull %20) #25
  invoke void @_ZNSt6vectorIS_IxSaIxEESaIS1_EE9push_backERKS1_(%"class.std::vector"* nonnull align 8 dereferenceable(24) %9, %"class.std::vector.0"* nonnull align 8 dereferenceable(24) %10) #24
          to label %28 unwind label %32

28:                                               ; preds = %27
  call void @_ZNSt12_Vector_baseIxSaIxEED2Ev(%"struct.std::_Vector_base.1"* nonnull align 8 dereferenceable(24) %21) #26
  call void @llvm.lifetime.end.p0i8(i64 24, i8* nonnull %18) #25
  %29 = add nuw i32 %24, 1
  br label %23, !llvm.loop !24

30:                                               ; preds = %26
  %31 = landingpad { i8*, i32 }
          cleanup
  call void @llvm.lifetime.end.p0i8(i64 1, i8* nonnull %20) #25
  br label %34

32:                                               ; preds = %27
  %33 = landingpad { i8*, i32 }
          cleanup
  call void @_ZNSt12_Vector_baseIxSaIxEED2Ev(%"struct.std::_Vector_base.1"* nonnull align 8 dereferenceable(24) %21) #26
  br label %34

34:                                               ; preds = %32, %30
  %35 = phi { i8*, i32 } [ %33, %32 ], [ %31, %30 ]
  call void @llvm.lifetime.end.p0i8(i64 24, i8* nonnull %18) #25
  br label %133

36:                                               ; preds = %23
  %37 = bitcast i64* %12 to i8*
  call void @llvm.lifetime.start.p0i8(i64 8, i8* nonnull %37) #25
  %38 = zext i32 %1 to i64
  %39 = shl nuw i64 %38, 32
  %40 = zext i32 %0 to i64
  %41 = or i64 %39, %40
  store i64 %41, i64* %12, align 8
  %42 = getelementptr inbounds %"class.std::queue", %"class.std::queue"* %8, i64 0, i32 0
  invoke void @_ZNSt5dequeISt4pairIiiESaIS1_EE12emplace_backIJS1_EEEvDpOT_(%"class.std::deque"* nonnull align 8 dereferenceable(80) %42, %"struct.std::pair"* nonnull align 4 dereferenceable(8) %13) #24
          to label %43 unwind label %74

43:                                               ; preds = %36
  call void @llvm.lifetime.end.p0i8(i64 8, i8* nonnull %37) #25
  %44 = getelementptr inbounds %"class.std::queue", %"class.std::queue"* %8, i64 0, i32 0, i32 0, i32 0, i32 0, i32 2, i32 0
  %45 = getelementptr inbounds %"class.std::vector.5", %"class.std::vector.5"* %6, i64 0, i32 0, i32 0, i32 0, i32 0
  %46 = getelementptr inbounds %"class.std::vector", %"class.std::vector"* %9, i64 0, i32 0, i32 0, i32 0, i32 0
  %47 = bitcast i64* %14 to i8*
  br label %48

48:                                               ; preds = %63, %43
  %49 = call i64 @_ZNKSt5dequeISt4pairIiiESaIS1_EE4sizeEv(%"class.std::deque"* nonnull align 8 dereferenceable(80) %42) #26
  %50 = icmp eq i64 %49, 0
  br i1 %50, label %123, label %51

51:                                               ; preds = %48
  %52 = load %"struct.std::pair"*, %"struct.std::pair"** %44, align 8, !tbaa !25, !noalias !27
  %53 = getelementptr inbounds %"struct.std::pair", %"struct.std::pair"* %52, i64 0, i32 0
  %54 = load i32, i32* %53, align 4
  %55 = getelementptr inbounds %"struct.std::pair", %"struct.std::pair"* %52, i64 0, i32 1
  %56 = load i32, i32* %55, align 4
  call void @_ZNSt5dequeISt4pairIiiESaIS1_EE9pop_frontEv(%"class.std::deque"* nonnull align 8 dereferenceable(80) %42) #26
  %57 = sext i32 %54 to i64
  %58 = load %"class.std::vector.10"*, %"class.std::vector.10"** %45, align 8, !tbaa !30
  %59 = sext i32 %56 to i64
  %60 = getelementptr inbounds %"class.std::vector.10", %"class.std::vector.10"* %58, i64 %57, i32 0, i32 0, i32 0, i32 0
  %61 = load i8*, i8** %60, align 8, !tbaa !32
  %62 = getelementptr inbounds i8, i8* %61, i64 %59
  store i8 35, i8* %62, align 1, !tbaa !34
  br label %63

63:                                               ; preds = %79, %51
  %64 = phi i32 [ -1, %51 ], [ %80, %79 ]
  %65 = icmp eq i32 %64, 2
  br i1 %65, label %48, label %66, !llvm.loop !35

66:                                               ; preds = %63
  %67 = add nsw i32 %64, %54
  %68 = icmp sgt i32 %67, -1
  %69 = icmp slt i32 %67, %4
  %70 = select i1 %68, i1 %69, i1 false
  %71 = icmp ne i32 %64, 0
  %72 = icmp eq i32 %64, 0
  %73 = zext i32 %67 to i64
  br label %76

74:                                               ; preds = %36
  %75 = landingpad { i8*, i32 }
          cleanup
  call void @llvm.lifetime.end.p0i8(i64 8, i8* nonnull %37) #25
  br label %133

76:                                               ; preds = %66, %119
  %77 = phi i32 [ %120, %119 ], [ -1, %66 ]
  %78 = icmp eq i32 %77, 2
  br i1 %78, label %79, label %81

79:                                               ; preds = %76
  %80 = add nsw i32 %64, 1
  br label %63, !llvm.loop !36

81:                                               ; preds = %76
  br i1 %70, label %82, label %119

82:                                               ; preds = %81
  %83 = add nsw i32 %77, %56
  %84 = icmp sgt i32 %83, -1
  %85 = icmp slt i32 %83, %5
  %86 = select i1 %84, i1 %85, i1 false
  br i1 %86, label %87, label %119

87:                                               ; preds = %82
  %88 = icmp ne i32 %77, 0
  %89 = select i1 %71, i1 %88, i1 false
  br i1 %89, label %119, label %90

90:                                               ; preds = %87
  %91 = icmp eq i32 %77, 0
  %92 = select i1 %72, i1 %91, i1 false
  br i1 %92, label %119, label %93

93:                                               ; preds = %90
  %94 = load %"class.std::vector.10"*, %"class.std::vector.10"** %45, align 8, !tbaa !30
  %95 = zext i32 %83 to i64
  %96 = getelementptr inbounds %"class.std::vector.10", %"class.std::vector.10"* %94, i64 %73, i32 0, i32 0, i32 0, i32 0
  %97 = load i8*, i8** %96, align 8, !tbaa !32
  %98 = getelementptr inbounds i8, i8* %97, i64 %95
  %99 = load i8, i8* %98, align 1, !tbaa !34
  %100 = icmp eq i8 %99, 35
  br i1 %100, label %119, label %101

101:                                              ; preds = %93
  store i8 35, i8* %98, align 1, !tbaa !34
  %102 = load %"class.std::vector.0"*, %"class.std::vector.0"** %46, align 8, !tbaa !37
  %103 = getelementptr inbounds %"class.std::vector.0", %"class.std::vector.0"* %102, i64 %73, i32 0, i32 0, i32 0, i32 0
  %104 = load i64*, i64** %103, align 8, !tbaa !15
  %105 = getelementptr inbounds i64, i64* %104, i64 %95
  %106 = load i64, i64* %105, align 8, !tbaa !16
  %107 = icmp eq i64 %106, 0
  %108 = getelementptr inbounds %"class.std::vector.0", %"class.std::vector.0"* %102, i64 %57, i32 0, i32 0, i32 0, i32 0
  %109 = load i64*, i64** %108, align 8, !tbaa !15
  %110 = getelementptr inbounds i64, i64* %109, i64 %59
  %111 = load i64, i64* %110, align 8, !tbaa !16
  %112 = add nsw i64 %111, 1
  %113 = icmp slt i64 %112, %106
  %114 = select i1 %107, i1 true, i1 %113
  %115 = select i1 %114, i64 %112, i64 %106
  store i64 %115, i64* %105, align 8, !tbaa !16
  call void @llvm.lifetime.start.p0i8(i64 8, i8* nonnull %47) #25
  %116 = shl nuw nsw i64 %95, 32
  %117 = or i64 %116, %73
  store i64 %117, i64* %14, align 8
  invoke void @_ZNSt5dequeISt4pairIiiESaIS1_EE12emplace_backIJS1_EEEvDpOT_(%"class.std::deque"* nonnull align 8 dereferenceable(80) %42, %"struct.std::pair"* nonnull align 4 dereferenceable(8) %15) #24
          to label %118 unwind label %121

118:                                              ; preds = %101
  call void @llvm.lifetime.end.p0i8(i64 8, i8* nonnull %47) #25
  br label %119

119:                                              ; preds = %93, %90, %87, %82, %81, %118
  %120 = add nsw i32 %77, 1
  br label %76, !llvm.loop !38

121:                                              ; preds = %101
  %122 = landingpad { i8*, i32 }
          cleanup
  call void @llvm.lifetime.end.p0i8(i64 8, i8* nonnull %47) #25
  br label %133

123:                                              ; preds = %48
  %124 = sext i32 %3 to i64
  %125 = load %"class.std::vector.0"*, %"class.std::vector.0"** %46, align 8, !tbaa !37
  %126 = sext i32 %2 to i64
  %127 = getelementptr inbounds %"class.std::vector.0", %"class.std::vector.0"* %125, i64 %124, i32 0, i32 0, i32 0, i32 0
  %128 = load i64*, i64** %127, align 8, !tbaa !15
  %129 = getelementptr inbounds i64, i64* %128, i64 %126
  %130 = load i64, i64* %129, align 8, !tbaa !16
  %131 = trunc i64 %130 to i32
  call void @_ZNSt6vectorIS_IxSaIxEESaIS1_EED2Ev(%"class.std::vector"* nonnull align 8 dereferenceable(24) %9) #26
  call void @llvm.lifetime.end.p0i8(i64 24, i8* nonnull %17) #25
  %132 = getelementptr inbounds %"class.std::queue", %"class.std::queue"* %8, i64 0, i32 0, i32 0
  call void @_ZNSt11_Deque_baseISt4pairIiiESaIS1_EED2Ev(%"class.std::_Deque_base"* nonnull align 8 dereferenceable(80) %132) #26
  call void @llvm.lifetime.end.p0i8(i64 80, i8* nonnull %16) #25
  ret i32 %131

133:                                              ; preds = %121, %74, %34
  %134 = phi { i8*, i32 } [ %35, %34 ], [ %122, %121 ], [ %75, %74 ]
  call void @_ZNSt6vectorIS_IxSaIxEESaIS1_EED2Ev(%"class.std::vector"* nonnull align 8 dereferenceable(24) %9) #26
  call void @llvm.lifetime.end.p0i8(i64 24, i8* nonnull %17) #25
  %135 = getelementptr inbounds %"class.std::queue", %"class.std::queue"* %8, i64 0, i32 0, i32 0
  call void @_ZNSt11_Deque_baseISt4pairIiiESaIS1_EED2Ev(%"class.std::_Deque_base"* nonnull align 8 dereferenceable(80) %135) #26
  call void @llvm.lifetime.end.p0i8(i64 80, i8* nonnull %16) #25
  resume { i8*, i32 } %134
}

; Function Attrs: minsize optsize sspstrong uwtable
define linkonce_odr dso_local void @_ZNSt5queueISt4pairIiiESt5dequeIS1_SaIS1_EEEC2IS4_vEEv(%"class.std::queue"* nonnull align 8 dereferenceable(80) %0) unnamed_addr #5 comdat align 2 {
  %2 = bitcast %"class.std::queue"* %0 to i8*
  tail call void @llvm.memset.p0i8.i64(i8* noundef nonnull align 8 dereferenceable(80) %2, i8 0, i64 80, i1 false)
  %3 = getelementptr inbounds %"class.std::queue", %"class.std::queue"* %0, i64 0, i32 0, i32 0
  tail call void @_ZNSt11_Deque_baseISt4pairIiiESaIS1_EEC2Ev(%"class.std::_Deque_base"* nonnull align 8 dereferenceable(80) %3) #24
  ret void
}

; Function Attrs: minsize optsize sspstrong uwtable
define linkonce_odr dso_local void @_ZNSt6vectorIxSaIxEEC2EmRKS0_(%"class.std::vector.0"* nonnull align 8 dereferenceable(24) %0, i64 %1, %"class.std::allocator.2"* nonnull align 1 dereferenceable(1) %2) unnamed_addr #5 comdat align 2 personality i8* bitcast (i32 (...)* @__gxx_personality_v0 to i8*) {
  %4 = getelementptr inbounds %"class.std::vector.0", %"class.std::vector.0"* %0, i64 0, i32 0
  %5 = tail call i64 @_ZNSt6vectorIxSaIxEE17_S_check_init_lenEmRKS0_(i64 %1, %"class.std::allocator.2"* nonnull align 1 dereferenceable(1) %2) #24
  %6 = bitcast %"class.std::vector.0"* %0 to i8*
  tail call void @llvm.memset.p0i8.i64(i8* noundef nonnull align 8 dereferenceable(24) %6, i8 0, i64 24, i1 false) #25
  tail call void @_ZNSt12_Vector_baseIxSaIxEE17_M_create_storageEm(%"struct.std::_Vector_base.1"* nonnull align 8 dereferenceable(24) %4, i64 %5) #24
  invoke void @_ZNSt6vectorIxSaIxEE21_M_default_initializeEm(%"class.std::vector.0"* nonnull align 8 dereferenceable(24) %0, i64 %1) #24
          to label %7 unwind label %8

7:                                                ; preds = %3
  ret void

8:                                                ; preds = %3
  %9 = landingpad { i8*, i32 }
          cleanup
  tail call void @_ZNSt12_Vector_baseIxSaIxEED2Ev(%"struct.std::_Vector_base.1"* nonnull align 8 dereferenceable(24) %4) #26
  resume { i8*, i32 } %9
}

; Function Attrs: argmemonly mustprogress nofree nounwind willreturn
declare void @llvm.memcpy.p0i8.p0i8.i64(i8* noalias nocapture writeonly, i8* noalias nocapture readonly, i64, i1 immarg) #6

; Function Attrs: minsize nounwind optsize sspstrong uwtable
define linkonce_odr dso_local void @_ZNSt6vectorIS_IxSaIxEESaIS1_EED2Ev(%"class.std::vector"* nonnull align 8 dereferenceable(24) %0) unnamed_addr #7 comdat align 2 personality i8* bitcast (i32 (...)* @__gxx_personality_v0 to i8*) {
  %2 = getelementptr inbounds %"class.std::vector", %"class.std::vector"* %0, i64 0, i32 0
  %3 = getelementptr inbounds %"class.std::vector", %"class.std::vector"* %0, i64 0, i32 0, i32 0, i32 0, i32 0
  %4 = load %"class.std::vector.0"*, %"class.std::vector.0"** %3, align 8, !tbaa !37
  %5 = getelementptr inbounds %"class.std::vector", %"class.std::vector"* %0, i64 0, i32 0, i32 0, i32 0, i32 1
  %6 = load %"class.std::vector.0"*, %"class.std::vector.0"** %5, align 8, !tbaa !19
  invoke void @_ZNSt12_Destroy_auxILb0EE9__destroyIPSt6vectorIxSaIxEEEEvT_S6_(%"class.std::vector.0"* %4, %"class.std::vector.0"* %6) #24
          to label %7 unwind label %8

7:                                                ; preds = %1
  tail call void @_ZNSt12_Vector_baseISt6vectorIxSaIxEESaIS2_EED2Ev(%"struct.std::_Vector_base"* nonnull align 8 dereferenceable(24) %2) #26
  ret void

8:                                                ; preds = %1
  %9 = landingpad { i8*, i32 }
          catch i8* null
  %10 = extractvalue { i8*, i32 } %9, 0
  tail call void @_ZNSt12_Vector_baseISt6vectorIxSaIxEESaIS2_EED2Ev(%"struct.std::_Vector_base"* nonnull align 8 dereferenceable(24) %2) #26
  tail call void @__clang_call_terminate(i8* %10) #27
  unreachable
}

; Function Attrs: minsize mustprogress nofree nosync nounwind optsize readnone sspstrong uwtable willreturn
define dso_local i64 @_Z12modfactorialx(i64 %0) local_unnamed_addr #8 {
  %2 = icmp eq i64 %0, 1
  br i1 %2, label %3, label %5

3:                                                ; preds = %1, %5
  %4 = phi i64 [ %10, %5 ], [ 1, %1 ]
  ret i64 %4

5:                                                ; preds = %1
  %6 = srem i64 %0, 1000000007
  %7 = add nsw i64 %0, -1
  %8 = tail call i64 @_Z12modfactorialx(i64 %7) #24
  %9 = srem i64 %8, 1000000007
  %10 = mul nsw i64 %9, %6
  br label %3
}

; Function Attrs: minsize mustprogress nofree nosync nounwind optsize readnone sspstrong uwtable willreturn
define dso_local i64 @_Z3gcdxx(i64 %0, i64 %1) local_unnamed_addr #8 {
  br label %3

3:                                                ; preds = %3, %2
  %4 = phi i64 [ %0, %2 ], [ %5, %3 ]
  %5 = phi i64 [ %1, %2 ], [ %6, %3 ]
  %6 = srem i64 %4, %5
  %7 = icmp eq i64 %6, 0
  br i1 %7, label %8, label %3

8:                                                ; preds = %3
  ret i64 %5
}

; Function Attrs: minsize mustprogress nofree norecurse nosync nounwind optsize readnone sspstrong uwtable willreturn
define dso_local i64 @_Z3lcmxx(i64 %0, i64 %1) local_unnamed_addr #4 {
  br label %3

3:                                                ; preds = %3, %2
  %4 = phi i64 [ %0, %2 ], [ %5, %3 ]
  %5 = phi i64 [ %1, %2 ], [ %6, %3 ]
  %6 = srem i64 %4, %5
  %7 = icmp eq i64 %6, 0
  br i1 %7, label %8, label %3

8:                                                ; preds = %3
  %9 = sdiv i64 %0, %5
  %10 = mul nsw i64 %9, %1
  ret i64 %10
}

; Function Attrs: minsize optsize sspstrong uwtable
define dso_local void @_Z12prime_factorx(%"class.std::map"* noalias sret(%"class.std::map") align 8 %0, i64 %1) local_unnamed_addr #5 personality i8* bitcast (i32 (...)* @__gxx_personality_v0 to i8*) {
  %3 = alloca i64, align 8
  %4 = alloca i64, align 8
  store i64 %1, i64* %3, align 8, !tbaa !16
  %5 = getelementptr inbounds %"class.std::map", %"class.std::map"* %0, i64 0, i32 0, i32 0, i32 0, i32 0, i32 0
  %6 = getelementptr inbounds i8, i8* %5, i64 8
  %7 = bitcast i8* %6 to i32*
  store i32 0, i32* %7, align 8, !tbaa !39
  %8 = getelementptr inbounds i8, i8* %5, i64 16
  %9 = bitcast i8* %8 to %"struct.std::_Rb_tree_node_base"**
  store %"struct.std::_Rb_tree_node_base"* null, %"struct.std::_Rb_tree_node_base"** %9, align 8, !tbaa !44
  %10 = getelementptr inbounds i8, i8* %5, i64 24
  %11 = bitcast i8* %10 to i8**
  store i8* %6, i8** %11, align 8, !tbaa !45
  %12 = getelementptr inbounds i8, i8* %5, i64 32
  %13 = bitcast i8* %12 to i8**
  store i8* %6, i8** %13, align 8, !tbaa !46
  %14 = getelementptr inbounds i8, i8* %5, i64 40
  %15 = bitcast i8* %14 to i64*
  store i64 0, i64* %15, align 8, !tbaa !47
  %16 = bitcast i64* %4 to i8*
  call void @llvm.lifetime.start.p0i8(i64 8, i8* nonnull %16) #25
  br label %17

17:                                               ; preds = %39, %2
  %18 = phi i64 [ %1, %2 ], [ %26, %39 ]
  %19 = phi i64 [ 2, %2 ], [ %40, %39 ]
  store i64 %19, i64* %4, align 8, !tbaa !16
  %20 = mul nsw i64 %19, %19
  %21 = icmp sgt i64 %20, %18
  br i1 %21, label %22, label %24

22:                                               ; preds = %17
  call void @llvm.lifetime.end.p0i8(i64 8, i8* nonnull %16) #25
  %23 = icmp eq i64 %18, 1
  br i1 %23, label %46, label %41

24:                                               ; preds = %17, %31
  %25 = phi i64 [ %34, %31 ], [ %19, %17 ]
  %26 = phi i64 [ %36, %31 ], [ %18, %17 ]
  %27 = srem i64 %26, %25
  %28 = icmp eq i64 %27, 0
  br i1 %28, label %29, label %39

29:                                               ; preds = %24
  %30 = invoke nonnull align 8 dereferenceable(8) i64* @_ZNSt3mapIxxSt4lessIxESaISt4pairIKxxEEEixERS3_(%"class.std::map"* nonnull align 8 dereferenceable(48) %0, i64* nonnull align 8 dereferenceable(8) %4) #24
          to label %31 unwind label %37

31:                                               ; preds = %29
  %32 = load i64, i64* %30, align 8, !tbaa !16
  %33 = add nsw i64 %32, 1
  store i64 %33, i64* %30, align 8, !tbaa !16
  %34 = load i64, i64* %4, align 8, !tbaa !16
  %35 = load i64, i64* %3, align 8, !tbaa !16
  %36 = sdiv i64 %35, %34
  store i64 %36, i64* %3, align 8, !tbaa !16
  br label %24, !llvm.loop !48

37:                                               ; preds = %29
  %38 = landingpad { i8*, i32 }
          cleanup
  call void @llvm.lifetime.end.p0i8(i64 8, i8* nonnull %16) #25
  br label %47

39:                                               ; preds = %24
  %40 = add nsw i64 %25, 1
  br label %17, !llvm.loop !49

41:                                               ; preds = %22
  %42 = invoke nonnull align 8 dereferenceable(8) i64* @_ZNSt3mapIxxSt4lessIxESaISt4pairIKxxEEEixERS3_(%"class.std::map"* nonnull align 8 dereferenceable(48) %0, i64* nonnull align 8 dereferenceable(8) %3) #24
          to label %43 unwind label %44

43:                                               ; preds = %41
  store i64 1, i64* %42, align 8, !tbaa !16
  br label %46

44:                                               ; preds = %41
  %45 = landingpad { i8*, i32 }
          cleanup
  br label %47

46:                                               ; preds = %22, %43
  ret void

47:                                               ; preds = %44, %37
  %48 = phi { i8*, i32 } [ %38, %37 ], [ %45, %44 ]
  %49 = getelementptr inbounds %"class.std::map", %"class.std::map"* %0, i64 0, i32 0
  call void @_ZNSt8_Rb_treeIxSt4pairIKxxESt10_Select1stIS2_ESt4lessIxESaIS2_EED2Ev(%"class.std::_Rb_tree"* nonnull align 8 dereferenceable(48) %49) #26
  resume { i8*, i32 } %48
}

; Function Attrs: minsize optsize sspstrong uwtable
define linkonce_odr dso_local nonnull align 8 dereferenceable(8) i64* @_ZNSt3mapIxxSt4lessIxESaISt4pairIKxxEEEixERS3_(%"class.std::map"* nonnull align 8 dereferenceable(48) %0, i64* nonnull align 8 dereferenceable(8) %1) local_unnamed_addr #5 comdat align 2 personality i32 (...)* @__gxx_personality_v0 {
  %3 = alloca %"class.std::tuple", align 8
  %4 = alloca %"class.std::tuple.54", align 1
  %5 = getelementptr inbounds %"class.std::map", %"class.std::map"* %0, i64 0, i32 0
  %6 = tail call %"struct.std::_Rb_tree_node_base"* @_ZNSt8_Rb_treeIxSt4pairIKxxESt10_Select1stIS2_ESt4lessIxESaIS2_EE11lower_boundERS1_(%"class.std::_Rb_tree"* nonnull align 8 dereferenceable(48) %5, i64* nonnull align 8 dereferenceable(8) %1) #24
  %7 = getelementptr inbounds %"class.std::map", %"class.std::map"* %0, i64 0, i32 0, i32 0, i32 0, i32 0, i32 0
  %8 = getelementptr inbounds i8, i8* %7, i64 8
  %9 = bitcast i8* %8 to %"struct.std::_Rb_tree_node_base"*
  %10 = icmp eq %"struct.std::_Rb_tree_node_base"* %6, %9
  br i1 %10, label %17, label %11

11:                                               ; preds = %2
  %12 = getelementptr inbounds %"struct.std::_Rb_tree_node_base", %"struct.std::_Rb_tree_node_base"* %6, i64 1
  %13 = bitcast %"struct.std::_Rb_tree_node_base"* %12 to i64*
  %14 = load i64, i64* %1, align 8, !tbaa !16
  %15 = load i64, i64* %13, align 8, !tbaa !16
  %16 = icmp slt i64 %14, %15
  br i1 %16, label %17, label %22

17:                                               ; preds = %2, %11
  %18 = bitcast %"class.std::tuple"* %3 to i8*
  call void @llvm.lifetime.start.p0i8(i64 8, i8* nonnull %18) #25
  %19 = getelementptr inbounds %"class.std::tuple", %"class.std::tuple"* %3, i64 0, i32 0, i32 0, i32 0
  store i64* %1, i64** %19, align 8, !tbaa !23
  %20 = getelementptr inbounds %"class.std::tuple.54", %"class.std::tuple.54"* %4, i64 0, i32 0
  call void @llvm.lifetime.start.p0i8(i64 1, i8* nonnull %20) #25
  %21 = call %"struct.std::_Rb_tree_node_base"* @_ZNSt8_Rb_treeIxSt4pairIKxxESt10_Select1stIS2_ESt4lessIxESaIS2_EE22_M_emplace_hint_uniqueIJRKSt21piecewise_construct_tSt5tupleIJRS1_EESD_IJEEEEESt17_Rb_tree_iteratorIS2_ESt23_Rb_tree_const_iteratorIS2_EDpOT_(%"class.std::_Rb_tree"* nonnull align 8 dereferenceable(48) %5, %"struct.std::_Rb_tree_node_base"* %6, %"struct.std::piecewise_construct_t"* nonnull align 1 dereferenceable(1) @_ZStL19piecewise_construct, %"class.std::tuple"* nonnull align 8 dereferenceable(8) %3, %"class.std::tuple.54"* nonnull align 1 dereferenceable(1) %4) #24
  call void @llvm.lifetime.end.p0i8(i64 1, i8* nonnull %20) #25
  call void @llvm.lifetime.end.p0i8(i64 8, i8* nonnull %18) #25
  br label %22

22:                                               ; preds = %17, %11
  %23 = phi %"struct.std::_Rb_tree_node_base"* [ %21, %17 ], [ %6, %11 ]
  %24 = getelementptr inbounds %"struct.std::_Rb_tree_node_base", %"struct.std::_Rb_tree_node_base"* %23, i64 1, i32 1
  %25 = bitcast %"struct.std::_Rb_tree_node_base"** %24 to i64*
  ret i64* %25
}

; Function Attrs: minsize optsize sspstrong uwtable
define dso_local void @_Z8dijkstraRKSt6vectorIS_I4EdgeSaIS0_EESaIS2_EEiRS_IxSaIxEES9_(%"class.std::vector.21"* nocapture nonnull readonly align 8 dereferenceable(24) %0, i32 %1, %"class.std::vector.0"* nonnull align 8 dereferenceable(24) %2, %"class.std::vector.0"* nonnull align 8 dereferenceable(24) %3) local_unnamed_addr #5 personality i8* bitcast (i32 (...)* @__gxx_personality_v0 to i8*) {
  %5 = alloca i32, align 4
  %6 = alloca i64, align 8
  %7 = alloca %"class.std::priority_queue", align 8
  store i32 %1, i32* %5, align 4, !tbaa !50
  %8 = getelementptr inbounds %"class.std::vector.21", %"class.std::vector.21"* %0, i64 0, i32 0, i32 0, i32 0, i32 1
  %9 = load %"class.std::vector.26"*, %"class.std::vector.26"** %8, align 8, !tbaa !52
  %10 = getelementptr inbounds %"class.std::vector.21", %"class.std::vector.21"* %0, i64 0, i32 0, i32 0, i32 0, i32 0
  %11 = load %"class.std::vector.26"*, %"class.std::vector.26"** %10, align 8, !tbaa !54
  %12 = ptrtoint %"class.std::vector.26"* %9 to i64
  %13 = ptrtoint %"class.std::vector.26"* %11 to i64
  %14 = sub i64 %12, %13
  %15 = sdiv exact i64 %14, 24
  %16 = shl i64 %15, 32
  %17 = ashr exact i64 %16, 32
  tail call void @_ZNSt6vectorIxSaIxEE6resizeEmRKx(%"class.std::vector.0"* nonnull align 8 dereferenceable(24) %2, i64 %17, i64* nonnull align 8 dereferenceable(8) @_ZL3INF) #24
  %18 = bitcast i64* %6 to i8*
  call void @llvm.lifetime.start.p0i8(i64 8, i8* nonnull %18) #25
  store i64 -1, i64* %6, align 8, !tbaa !16
  call void @_ZNSt6vectorIxSaIxEE6resizeEmRKx(%"class.std::vector.0"* nonnull align 8 dereferenceable(24) %3, i64 %17, i64* nonnull align 8 dereferenceable(8) %6) #24
  call void @llvm.lifetime.end.p0i8(i64 8, i8* nonnull %18) #25
  %19 = bitcast %"class.std::priority_queue"* %7 to i8*
  call void @llvm.lifetime.start.p0i8(i64 32, i8* nonnull %19) #25
  call void @llvm.memset.p0i8.i64(i8* noundef nonnull align 8 dereferenceable(24) %19, i8 0, i64 24, i1 false) #25
  %20 = sext i32 %1 to i64
  %21 = getelementptr inbounds %"class.std::vector.0", %"class.std::vector.0"* %2, i64 0, i32 0, i32 0, i32 0, i32 0
  %22 = load i64*, i64** %21, align 8, !tbaa !15
  %23 = getelementptr inbounds i64, i64* %22, i64 %20
  store i64 0, i64* %23, align 8, !tbaa !16
  invoke void @_ZNSt14priority_queueISt4pairIxxESt6vectorIS1_SaIS1_EESt7greaterIS1_EE7emplaceIJRxRiEEEvDpOT_(%"class.std::priority_queue"* nonnull align 8 dereferenceable(25) %7, i64* nonnull align 8 dereferenceable(8) %23, i32* nonnull align 4 dereferenceable(4) %5) #24
          to label %24 unwind label %45

24:                                               ; preds = %4
  %25 = getelementptr inbounds %"class.std::priority_queue", %"class.std::priority_queue"* %7, i64 0, i32 0, i32 0, i32 0, i32 0, i32 0
  %26 = getelementptr inbounds %"class.std::priority_queue", %"class.std::priority_queue"* %7, i64 0, i32 0, i32 0, i32 0, i32 0, i32 1
  %27 = getelementptr inbounds %"class.std::vector.0", %"class.std::vector.0"* %3, i64 0, i32 0, i32 0, i32 0, i32 0
  br label %28

28:                                               ; preds = %44, %24
  %29 = load %"struct.std::pair.36"*, %"struct.std::pair.36"** %25, align 8, !tbaa !23
  %30 = load %"struct.std::pair.36"*, %"struct.std::pair.36"** %26, align 8, !tbaa !23
  %31 = icmp eq %"struct.std::pair.36"* %29, %30
  br i1 %31, label %80, label %32

32:                                               ; preds = %28
  %33 = getelementptr inbounds %"struct.std::pair.36", %"struct.std::pair.36"* %29, i64 0, i32 0
  %34 = load i64, i64* %33, align 8
  %35 = getelementptr inbounds %"struct.std::pair.36", %"struct.std::pair.36"* %29, i64 0, i32 1
  %36 = load i64, i64* %35, align 8
  invoke void @_ZNSt14priority_queueISt4pairIxxESt6vectorIS1_SaIS1_EESt7greaterIS1_EE3popEv(%"class.std::priority_queue"* nonnull align 8 dereferenceable(25) %7) #24
          to label %37 unwind label %47

37:                                               ; preds = %32
  %38 = shl i64 %36, 32
  %39 = ashr exact i64 %38, 32
  %40 = load i64*, i64** %21, align 8, !tbaa !15
  %41 = getelementptr inbounds i64, i64* %40, i64 %39
  %42 = load i64, i64* %41, align 8, !tbaa !16
  %43 = icmp slt i64 %42, %34
  br i1 %43, label %44, label %49

44:                                               ; preds = %55, %37
  br label %28, !llvm.loop !55

45:                                               ; preds = %4
  %46 = landingpad { i8*, i32 }
          cleanup
  br label %82

47:                                               ; preds = %32
  %48 = landingpad { i8*, i32 }
          cleanup
  br label %82

49:                                               ; preds = %37
  %50 = load %"class.std::vector.26"*, %"class.std::vector.26"** %10, align 8, !tbaa !54
  %51 = getelementptr inbounds %"class.std::vector.26", %"class.std::vector.26"* %50, i64 %39, i32 0, i32 0, i32 0, i32 0
  %52 = load %struct.Edge*, %struct.Edge** %51, align 8, !tbaa !23
  %53 = getelementptr inbounds %"class.std::vector.26", %"class.std::vector.26"* %50, i64 %39, i32 0, i32 0, i32 0, i32 1
  %54 = load %struct.Edge*, %struct.Edge** %53, align 8, !tbaa !23
  br label %55

55:                                               ; preds = %78, %49
  %56 = phi %struct.Edge* [ %52, %49 ], [ %79, %78 ]
  %57 = icmp eq %struct.Edge* %56, %54
  br i1 %57, label %44, label %58, !llvm.loop !55

58:                                               ; preds = %55
  %59 = getelementptr inbounds %struct.Edge, %struct.Edge* %56, i64 0, i32 0
  %60 = load i64, i64* %59, align 8, !tbaa !56
  %61 = load i64*, i64** %21, align 8, !tbaa !15
  %62 = getelementptr inbounds i64, i64* %61, i64 %60
  %63 = load i64, i64* %62, align 8, !tbaa !16
  %64 = getelementptr inbounds i64, i64* %61, i64 %39
  %65 = load i64, i64* %64, align 8, !tbaa !16
  %66 = getelementptr inbounds %struct.Edge, %struct.Edge* %56, i64 0, i32 1
  %67 = load i64, i64* %66, align 8, !tbaa !58
  %68 = add nsw i64 %67, %65
  %69 = icmp sgt i64 %63, %68
  br i1 %69, label %70, label %78

70:                                               ; preds = %58
  store i64 %68, i64* %62, align 8, !tbaa !16
  %71 = load i64, i64* %59, align 8, !tbaa !56
  %72 = load i64*, i64** %27, align 8, !tbaa !15
  %73 = getelementptr inbounds i64, i64* %72, i64 %71
  store i64 %39, i64* %73, align 8, !tbaa !16
  %74 = load i64, i64* %59, align 8, !tbaa !56
  %75 = getelementptr inbounds i64, i64* %61, i64 %74
  invoke void @_ZNSt14priority_queueISt4pairIxxESt6vectorIS1_SaIS1_EESt7greaterIS1_EE7emplaceIJRxRKxEEEvDpOT_(%"class.std::priority_queue"* nonnull align 8 dereferenceable(25) %7, i64* nonnull align 8 dereferenceable(8) %75, i64* nonnull align 8 dereferenceable(8) %59) #24
          to label %78 unwind label %76

76:                                               ; preds = %70
  %77 = landingpad { i8*, i32 }
          cleanup
  br label %82

78:                                               ; preds = %70, %58
  %79 = getelementptr inbounds %struct.Edge, %struct.Edge* %56, i64 1
  br label %55

80:                                               ; preds = %28
  %81 = getelementptr inbounds %"class.std::priority_queue", %"class.std::priority_queue"* %7, i64 0, i32 0, i32 0
  call void @_ZNSt12_Vector_baseISt4pairIxxESaIS1_EED2Ev(%"struct.std::_Vector_base.32"* nonnull align 8 dereferenceable(24) %81) #26
  call void @llvm.lifetime.end.p0i8(i64 32, i8* nonnull %19) #25
  ret void

82:                                               ; preds = %47, %76, %45
  %83 = phi { i8*, i32 } [ %46, %45 ], [ %77, %76 ], [ %48, %47 ]
  %84 = getelementptr inbounds %"class.std::priority_queue", %"class.std::priority_queue"* %7, i64 0, i32 0, i32 0
  call void @_ZNSt12_Vector_baseISt4pairIxxESaIS1_EED2Ev(%"struct.std::_Vector_base.32"* nonnull align 8 dereferenceable(24) %84) #26
  call void @llvm.lifetime.end.p0i8(i64 32, i8* nonnull %19) #25
  resume { i8*, i32 } %83
}

; Function Attrs: minsize optsize sspstrong uwtable
define linkonce_odr dso_local void @_ZNSt6vectorIxSaIxEE6resizeEmRKx(%"class.std::vector.0"* nonnull align 8 dereferenceable(24) %0, i64 %1, i64* nonnull align 8 dereferenceable(8) %2) local_unnamed_addr #5 comdat align 2 personality i32 (...)* @__gxx_personality_v0 {
  %4 = getelementptr inbounds %"class.std::vector.0", %"class.std::vector.0"* %0, i64 0, i32 0, i32 0, i32 0, i32 1
  %5 = load i64*, i64** %4, align 8, !tbaa !10
  %6 = getelementptr inbounds %"class.std::vector.0", %"class.std::vector.0"* %0, i64 0, i32 0, i32 0, i32 0, i32 0
  %7 = load i64*, i64** %6, align 8, !tbaa !15
  %8 = ptrtoint i64* %5 to i64
  %9 = ptrtoint i64* %7 to i64
  %10 = sub i64 %8, %9
  %11 = ashr exact i64 %10, 3
  %12 = icmp ult i64 %11, %1
  br i1 %12, label %13, label %15

13:                                               ; preds = %3
  %14 = sub i64 %1, %11
  tail call void @_ZNSt6vectorIxSaIxEE14_M_fill_insertEN9__gnu_cxx17__normal_iteratorIPxS1_EEmRKx(%"class.std::vector.0"* nonnull align 8 dereferenceable(24) %0, i64* %5, i64 %14, i64* nonnull align 8 dereferenceable(8) %2) #24
  br label %21

15:                                               ; preds = %3
  %16 = icmp ugt i64 %11, %1
  br i1 %16, label %17, label %21

17:                                               ; preds = %15
  %18 = getelementptr inbounds i64, i64* %7, i64 %1
  %19 = icmp eq i64* %5, %18
  br i1 %19, label %21, label %20

20:                                               ; preds = %17
  store i64* %18, i64** %4, align 8, !tbaa !10
  br label %21

21:                                               ; preds = %20, %17, %15, %13
  ret void
}

; Function Attrs: minsize optsize sspstrong uwtable
define linkonce_odr dso_local void @_ZNSt14priority_queueISt4pairIxxESt6vectorIS1_SaIS1_EESt7greaterIS1_EE7emplaceIJRxRiEEEvDpOT_(%"class.std::priority_queue"* nonnull align 8 dereferenceable(25) %0, i64* nonnull align 8 dereferenceable(8) %1, i32* nonnull align 4 dereferenceable(4) %2) local_unnamed_addr #5 comdat align 2 {
  %4 = getelementptr inbounds %"class.std::priority_queue", %"class.std::priority_queue"* %0, i64 0, i32 0
  tail call void @_ZNSt6vectorISt4pairIxxESaIS1_EE12emplace_backIJRxRiEEEvDpOT_(%"class.std::vector.31"* nonnull align 8 dereferenceable(24) %4, i64* nonnull align 8 dereferenceable(8) %1, i32* nonnull align 4 dereferenceable(4) %2) #24
  %5 = getelementptr inbounds %"class.std::priority_queue", %"class.std::priority_queue"* %0, i64 0, i32 0, i32 0, i32 0, i32 0, i32 0
  %6 = load %"struct.std::pair.36"*, %"struct.std::pair.36"** %5, align 8, !tbaa !23
  %7 = getelementptr inbounds %"class.std::priority_queue", %"class.std::priority_queue"* %0, i64 0, i32 0, i32 0, i32 0, i32 0, i32 1
  %8 = load %"struct.std::pair.36"*, %"struct.std::pair.36"** %7, align 8, !tbaa !23
  tail call void @_ZSt9push_heapIN9__gnu_cxx17__normal_iteratorIPSt4pairIxxESt6vectorIS3_SaIS3_EEEESt7greaterIS3_EEvT_SB_T0_(%"struct.std::pair.36"* %6, %"struct.std::pair.36"* %8) #24
  ret void
}

; Function Attrs: minsize optsize sspstrong uwtable
define linkonce_odr dso_local void @_ZNSt14priority_queueISt4pairIxxESt6vectorIS1_SaIS1_EESt7greaterIS1_EE3popEv(%"class.std::priority_queue"* nonnull align 8 dereferenceable(25) %0) local_unnamed_addr #5 comdat align 2 {
  %2 = getelementptr inbounds %"class.std::priority_queue", %"class.std::priority_queue"* %0, i64 0, i32 0, i32 0, i32 0, i32 0, i32 0
  %3 = load %"struct.std::pair.36"*, %"struct.std::pair.36"** %2, align 8, !tbaa !23
  %4 = getelementptr inbounds %"class.std::priority_queue", %"class.std::priority_queue"* %0, i64 0, i32 0, i32 0, i32 0, i32 0, i32 1
  %5 = load %"struct.std::pair.36"*, %"struct.std::pair.36"** %4, align 8, !tbaa !23
  tail call void @_ZSt8pop_heapIN9__gnu_cxx17__normal_iteratorIPSt4pairIxxESt6vectorIS3_SaIS3_EEEESt7greaterIS3_EEvT_SB_T0_(%"struct.std::pair.36"* %3, %"struct.std::pair.36"* %5) #24
  %6 = load %"struct.std::pair.36"*, %"struct.std::pair.36"** %4, align 8, !tbaa !59
  %7 = getelementptr inbounds %"struct.std::pair.36", %"struct.std::pair.36"* %6, i64 -1
  store %"struct.std::pair.36"* %7, %"struct.std::pair.36"** %4, align 8, !tbaa !59
  ret void
}

; Function Attrs: minsize optsize sspstrong uwtable
define linkonce_odr dso_local void @_ZNSt14priority_queueISt4pairIxxESt6vectorIS1_SaIS1_EESt7greaterIS1_EE7emplaceIJRxRKxEEEvDpOT_(%"class.std::priority_queue"* nonnull align 8 dereferenceable(25) %0, i64* nonnull align 8 dereferenceable(8) %1, i64* nonnull align 8 dereferenceable(8) %2) local_unnamed_addr #5 comdat align 2 {
  %4 = getelementptr inbounds %"class.std::priority_queue", %"class.std::priority_queue"* %0, i64 0, i32 0
  tail call void @_ZNSt6vectorISt4pairIxxESaIS1_EE12emplace_backIJRxRKxEEEvDpOT_(%"class.std::vector.31"* nonnull align 8 dereferenceable(24) %4, i64* nonnull align 8 dereferenceable(8) %1, i64* nonnull align 8 dereferenceable(8) %2) #24
  %5 = getelementptr inbounds %"class.std::priority_queue", %"class.std::priority_queue"* %0, i64 0, i32 0, i32 0, i32 0, i32 0, i32 0
  %6 = load %"struct.std::pair.36"*, %"struct.std::pair.36"** %5, align 8, !tbaa !23
  %7 = getelementptr inbounds %"class.std::priority_queue", %"class.std::priority_queue"* %0, i64 0, i32 0, i32 0, i32 0, i32 0, i32 1
  %8 = load %"struct.std::pair.36"*, %"struct.std::pair.36"** %7, align 8, !tbaa !23
  tail call void @_ZSt9push_heapIN9__gnu_cxx17__normal_iteratorIPSt4pairIxxESt6vectorIS3_SaIS3_EEEESt7greaterIS3_EEvT_SB_T0_(%"struct.std::pair.36"* %6, %"struct.std::pair.36"* %8) #24
  ret void
}

; Function Attrs: minsize optsize sspstrong uwtable
define dso_local void @_Z8get_pathRKSt6vectorIxSaIxEEx(%"class.std::vector.0"* noalias sret(%"class.std::vector.0") align 8 %0, %"class.std::vector.0"* nocapture nonnull readonly align 8 dereferenceable(24) %1, i64 %2) local_unnamed_addr #5 personality i8* bitcast (i32 (...)* @__gxx_personality_v0 to i8*) {
  %4 = alloca i64, align 8
  %5 = bitcast %"class.std::vector.0"* %0 to i8*
  tail call void @llvm.memset.p0i8.i64(i8* noundef nonnull align 8 dereferenceable(24) %5, i8 0, i64 24, i1 false) #25
  %6 = bitcast i64* %4 to i8*
  call void @llvm.lifetime.start.p0i8(i64 8, i8* nonnull %6) #25
  %7 = getelementptr inbounds %"class.std::vector.0", %"class.std::vector.0"* %1, i64 0, i32 0, i32 0, i32 0, i32 0
  br label %8

8:                                                ; preds = %17, %3
  %9 = phi i64 [ %2, %3 ], [ %21, %17 ]
  store i64 %9, i64* %4, align 8, !tbaa !16
  %10 = icmp eq i64 %9, -1
  br i1 %10, label %11, label %16

11:                                               ; preds = %8
  call void @llvm.lifetime.end.p0i8(i64 8, i8* nonnull %6) #25
  %12 = getelementptr inbounds %"class.std::vector.0", %"class.std::vector.0"* %0, i64 0, i32 0, i32 0, i32 0, i32 0
  %13 = load i64*, i64** %12, align 8, !tbaa !23
  %14 = getelementptr inbounds %"class.std::vector.0", %"class.std::vector.0"* %0, i64 0, i32 0, i32 0, i32 0, i32 1
  %15 = load i64*, i64** %14, align 8, !tbaa !23
  invoke void @_ZSt9__reverseIN9__gnu_cxx17__normal_iteratorIPxSt6vectorIxSaIxEEEEEvT_S7_St26random_access_iterator_tag(i64* %13, i64* %15) #24
          to label %26 unwind label %24

16:                                               ; preds = %8
  invoke void @_ZNSt6vectorIxSaIxEE9push_backERKx(%"class.std::vector.0"* nonnull align 8 dereferenceable(24) %0, i64* nonnull align 8 dereferenceable(8) %4) #24
          to label %17 unwind label %22

17:                                               ; preds = %16
  %18 = load i64, i64* %4, align 8, !tbaa !16
  %19 = load i64*, i64** %7, align 8, !tbaa !15
  %20 = getelementptr inbounds i64, i64* %19, i64 %18
  %21 = load i64, i64* %20, align 8, !tbaa !16
  br label %8, !llvm.loop !61

22:                                               ; preds = %16
  %23 = landingpad { i8*, i32 }
          cleanup
  call void @llvm.lifetime.end.p0i8(i64 8, i8* nonnull %6) #25
  br label %27

24:                                               ; preds = %11
  %25 = landingpad { i8*, i32 }
          cleanup
  br label %27

26:                                               ; preds = %11
  ret void

27:                                               ; preds = %24, %22
  %28 = phi { i8*, i32 } [ %23, %22 ], [ %25, %24 ]
  %29 = getelementptr inbounds %"class.std::vector.0", %"class.std::vector.0"* %0, i64 0, i32 0
  call void @_ZNSt12_Vector_baseIxSaIxEED2Ev(%"struct.std::_Vector_base.1"* nonnull align 8 dereferenceable(24) %29) #26
  resume { i8*, i32 } %28
}

; Function Attrs: minsize optsize sspstrong uwtable
define dso_local void @_Z5splitRNSt7__cxx1112basic_stringIcSt11char_traitsIcESaIcEEEc(%"class.std::vector.41"* noalias sret(%"class.std::vector.41") align 8 %0, %"class.std::__cxx11::basic_string"* nonnull align 8 dereferenceable(32) %1, i8 signext %2) local_unnamed_addr #5 personality i8* bitcast (i32 (...)* @__gxx_personality_v0 to i8*) {
  %4 = alloca %"class.std::__cxx11::basic_stringstream", align 8
  %5 = alloca %"class.std::__cxx11::basic_string", align 8
  %6 = bitcast %"class.std::vector.41"* %0 to i8*
  tail call void @llvm.memset.p0i8.i64(i8* noundef nonnull align 8 dereferenceable(24) %6, i8 0, i64 24, i1 false) #25
  %7 = bitcast %"class.std::__cxx11::basic_stringstream"* %4 to i8*
  call void @llvm.lifetime.start.p0i8(i64 392, i8* nonnull %7) #25
  invoke void @_ZNSt7__cxx1118basic_stringstreamIcSt11char_traitsIcESaIcEEC1ERKNS_12basic_stringIcS2_S3_EESt13_Ios_Openmode(%"class.std::__cxx11::basic_stringstream"* nonnull align 8 dereferenceable(128) %4, %"class.std::__cxx11::basic_string"* nonnull align 8 dereferenceable(32) %1, i32 24) #24
          to label %8 unwind label %35

8:                                                ; preds = %3
  %9 = bitcast %"class.std::__cxx11::basic_string"* %5 to i8*
  call void @llvm.lifetime.start.p0i8(i64 32, i8* nonnull %9) #25
  %10 = getelementptr inbounds %"class.std::__cxx11::basic_string", %"class.std::__cxx11::basic_string"* %5, i64 0, i32 2
  %11 = bitcast %"class.std::__cxx11::basic_string"* %5 to %union.anon**
  store %union.anon* %10, %union.anon** %11, align 8, !tbaa !62
  %12 = getelementptr inbounds %"class.std::__cxx11::basic_string", %"class.std::__cxx11::basic_string"* %5, i64 0, i32 1
  store i64 0, i64* %12, align 8, !tbaa !64
  %13 = bitcast %union.anon* %10 to i8*
  store i8 0, i8* %13, align 8, !tbaa !34
  %14 = bitcast %"class.std::__cxx11::basic_stringstream"* %4 to %"class.std::basic_istream"*
  br label %15

15:                                               ; preds = %34, %8
  %16 = invoke nonnull align 8 dereferenceable(16) %"class.std::basic_istream"* @_ZSt7getlineIcSt11char_traitsIcESaIcEERSt13basic_istreamIT_T0_ES7_RNSt7__cxx1112basic_stringIS4_S5_T1_EES4_(%"class.std::basic_istream"* nonnull align 8 dereferenceable(16) %14, %"class.std::__cxx11::basic_string"* nonnull align 8 dereferenceable(32) %5, i8 signext %2) #24
          to label %17 unwind label %37

17:                                               ; preds = %15
  %18 = bitcast %"class.std::basic_istream"* %16 to i8**
  %19 = load i8*, i8** %18, align 8, !tbaa !66
  %20 = getelementptr i8, i8* %19, i64 -24
  %21 = bitcast i8* %20 to i64*
  %22 = load i64, i64* %21, align 8
  %23 = bitcast %"class.std::basic_istream"* %16 to i8*
  %24 = add nsw i64 %22, 32
  %25 = getelementptr inbounds i8, i8* %23, i64 %24
  %26 = bitcast i8* %25 to i32*
  %27 = load i32, i32* %26, align 8, !tbaa !68
  %28 = and i32 %27, 5
  %29 = icmp eq i32 %28, 0
  br i1 %29, label %30, label %39

30:                                               ; preds = %17
  %31 = load i64, i64* %12, align 8, !tbaa !64
  %32 = icmp eq i64 %31, 0
  br i1 %32, label %34, label %33

33:                                               ; preds = %30
  invoke void @_ZNSt6vectorINSt7__cxx1112basic_stringIcSt11char_traitsIcESaIcEEESaIS5_EE9push_backERKS5_(%"class.std::vector.41"* nonnull align 8 dereferenceable(24) %0, %"class.std::__cxx11::basic_string"* nonnull align 8 dereferenceable(32) %5) #24
          to label %34 unwind label %37

34:                                               ; preds = %33, %30
  br label %15, !llvm.loop !74

35:                                               ; preds = %3
  %36 = landingpad { i8*, i32 }
          cleanup
  br label %40

37:                                               ; preds = %33, %15
  %38 = landingpad { i8*, i32 }
          cleanup
  call void @_ZNSt7__cxx1112basic_stringIcSt11char_traitsIcESaIcEED2Ev(%"class.std::__cxx11::basic_string"* nonnull align 8 dereferenceable(32) %5) #26
  call void @llvm.lifetime.end.p0i8(i64 32, i8* nonnull %9) #25
  call void @_ZNSt7__cxx1118basic_stringstreamIcSt11char_traitsIcESaIcEED1Ev(%"class.std::__cxx11::basic_stringstream"* nonnull align 8 dereferenceable(128) %4) #26
  br label %40

39:                                               ; preds = %17
  call void @_ZNSt7__cxx1112basic_stringIcSt11char_traitsIcESaIcEED2Ev(%"class.std::__cxx11::basic_string"* nonnull align 8 dereferenceable(32) %5) #26
  call void @llvm.lifetime.end.p0i8(i64 32, i8* nonnull %9) #25
  call void @_ZNSt7__cxx1118basic_stringstreamIcSt11char_traitsIcESaIcEED1Ev(%"class.std::__cxx11::basic_stringstream"* nonnull align 8 dereferenceable(128) %4) #26
  call void @llvm.lifetime.end.p0i8(i64 392, i8* nonnull %7) #25
  ret void

40:                                               ; preds = %37, %35
  %41 = phi { i8*, i32 } [ %38, %37 ], [ %36, %35 ]
  call void @llvm.lifetime.end.p0i8(i64 392, i8* nonnull %7) #25
  call void @_ZNSt6vectorINSt7__cxx1112basic_stringIcSt11char_traitsIcESaIcEEESaIS5_EED2Ev(%"class.std::vector.41"* nonnull align 8 dereferenceable(24) %0) #26
  resume { i8*, i32 } %41
}

; Function Attrs: minsize optsize sspstrong uwtable
declare void @_ZNSt7__cxx1118basic_stringstreamIcSt11char_traitsIcESaIcEEC1ERKNS_12basic_stringIcS2_S3_EESt13_Ios_Openmode(%"class.std::__cxx11::basic_stringstream"* nonnull align 8 dereferenceable(128), %"class.std::__cxx11::basic_string"* nonnull align 8 dereferenceable(32), i32) unnamed_addr #5 align 2

; Function Attrs: minsize optsize
declare nonnull align 8 dereferenceable(16) %"class.std::basic_istream"* @_ZSt7getlineIcSt11char_traitsIcESaIcEERSt13basic_istreamIT_T0_ES7_RNSt7__cxx1112basic_stringIS4_S5_T1_EES4_(%"class.std::basic_istream"* nonnull align 8 dereferenceable(16), %"class.std::__cxx11::basic_string"* nonnull align 8 dereferenceable(32), i8 signext) local_unnamed_addr #0

; Function Attrs: minsize optsize sspstrong uwtable
define linkonce_odr dso_local void @_ZNSt6vectorINSt7__cxx1112basic_stringIcSt11char_traitsIcESaIcEEESaIS5_EE9push_backERKS5_(%"class.std::vector.41"* nonnull align 8 dereferenceable(24) %0, %"class.std::__cxx11::basic_string"* nonnull align 8 dereferenceable(32) %1) local_unnamed_addr #5 comdat align 2 {
  %3 = getelementptr inbounds %"class.std::vector.41", %"class.std::vector.41"* %0, i64 0, i32 0, i32 0, i32 0, i32 1
  %4 = load %"class.std::__cxx11::basic_string"*, %"class.std::__cxx11::basic_string"** %3, align 8, !tbaa !75
  %5 = getelementptr inbounds %"class.std::vector.41", %"class.std::vector.41"* %0, i64 0, i32 0, i32 0, i32 0, i32 2
  %6 = load %"class.std::__cxx11::basic_string"*, %"class.std::__cxx11::basic_string"** %5, align 8, !tbaa !77
  %7 = icmp eq %"class.std::__cxx11::basic_string"* %4, %6
  br i1 %7, label %11, label %8

8:                                                ; preds = %2
  tail call void @_ZNSt7__cxx1112basic_stringIcSt11char_traitsIcESaIcEEC2ERKS4_(%"class.std::__cxx11::basic_string"* nonnull align 8 dereferenceable(32) %4, %"class.std::__cxx11::basic_string"* nonnull align 8 dereferenceable(32) %1) #24
  %9 = load %"class.std::__cxx11::basic_string"*, %"class.std::__cxx11::basic_string"** %3, align 8, !tbaa !75
  %10 = getelementptr inbounds %"class.std::__cxx11::basic_string", %"class.std::__cxx11::basic_string"* %9, i64 1
  store %"class.std::__cxx11::basic_string"* %10, %"class.std::__cxx11::basic_string"** %3, align 8, !tbaa !75
  br label %12

11:                                               ; preds = %2
  tail call void @_ZNSt6vectorINSt7__cxx1112basic_stringIcSt11char_traitsIcESaIcEEESaIS5_EE17_M_realloc_insertIJRKS5_EEEvN9__gnu_cxx17__normal_iteratorIPS5_S7_EEDpOT_(%"class.std::vector.41"* nonnull align 8 dereferenceable(24) %0, %"class.std::__cxx11::basic_string"* %4, %"class.std::__cxx11::basic_string"* nonnull align 8 dereferenceable(32) %1) #24
  br label %12

12:                                               ; preds = %11, %8
  ret void
}

; Function Attrs: minsize nounwind optsize sspstrong uwtable
declare void @_ZNSt7__cxx1112basic_stringIcSt11char_traitsIcESaIcEED2Ev(%"class.std::__cxx11::basic_string"* nonnull align 8 dereferenceable(32)) unnamed_addr #7 align 2

; Function Attrs: minsize nounwind optsize sspstrong uwtable
declare void @_ZNSt7__cxx1118basic_stringstreamIcSt11char_traitsIcESaIcEED1Ev(%"class.std::__cxx11::basic_stringstream"* nonnull align 8 dereferenceable(128)) unnamed_addr #7 align 2

; Function Attrs: minsize nounwind optsize sspstrong uwtable
define linkonce_odr dso_local void @_ZNSt6vectorINSt7__cxx1112basic_stringIcSt11char_traitsIcESaIcEEESaIS5_EED2Ev(%"class.std::vector.41"* nonnull align 8 dereferenceable(24) %0) unnamed_addr #7 comdat align 2 personality i8* bitcast (i32 (...)* @__gxx_personality_v0 to i8*) {
  %2 = getelementptr inbounds %"class.std::vector.41", %"class.std::vector.41"* %0, i64 0, i32 0
  %3 = getelementptr inbounds %"class.std::vector.41", %"class.std::vector.41"* %0, i64 0, i32 0, i32 0, i32 0, i32 0
  %4 = load %"class.std::__cxx11::basic_string"*, %"class.std::__cxx11::basic_string"** %3, align 8, !tbaa !78
  %5 = getelementptr inbounds %"class.std::vector.41", %"class.std::vector.41"* %0, i64 0, i32 0, i32 0, i32 0, i32 1
  %6 = load %"class.std::__cxx11::basic_string"*, %"class.std::__cxx11::basic_string"** %5, align 8, !tbaa !75
  invoke void @_ZNSt12_Destroy_auxILb0EE9__destroyIPNSt7__cxx1112basic_stringIcSt11char_traitsIcESaIcEEEEEvT_S9_(%"class.std::__cxx11::basic_string"* %4, %"class.std::__cxx11::basic_string"* %6) #24
          to label %7 unwind label %8

7:                                                ; preds = %1
  tail call void @_ZNSt12_Vector_baseINSt7__cxx1112basic_stringIcSt11char_traitsIcESaIcEEESaIS5_EED2Ev(%"struct.std::_Vector_base.42"* nonnull align 8 dereferenceable(24) %2) #26
  ret void

8:                                                ; preds = %1
  %9 = landingpad { i8*, i32 }
          catch i8* null
  %10 = extractvalue { i8*, i32 } %9, 0
  tail call void @_ZNSt12_Vector_baseINSt7__cxx1112basic_stringIcSt11char_traitsIcESaIcEEESaIS5_EED2Ev(%"struct.std::_Vector_base.42"* nonnull align 8 dereferenceable(24) %2) #26
  tail call void @__clang_call_terminate(i8* %10) #27
  unreachable
}

; Function Attrs: minsize optsize sspstrong uwtable
define dso_local void @_Z7divisorx(%"class.std::vector.0"* noalias sret(%"class.std::vector.0") align 8 %0, i64 %1) local_unnamed_addr #5 personality i8* bitcast (i32 (...)* @__gxx_personality_v0 to i8*) {
  %3 = alloca i64, align 8
  %4 = alloca i64, align 8
  %5 = bitcast %"class.std::vector.0"* %0 to i8*
  tail call void @llvm.memset.p0i8.i64(i8* noundef nonnull align 8 dereferenceable(24) %5, i8 0, i64 24, i1 false) #25
  %6 = bitcast i64* %3 to i8*
  call void @llvm.lifetime.start.p0i8(i64 8, i8* nonnull %6) #25
  %7 = bitcast i64* %4 to i8*
  br label %8

8:                                                ; preds = %33, %2
  %9 = phi i64 [ 1, %2 ], [ %35, %33 ]
  store i64 %9, i64* %3, align 8, !tbaa !16
  %10 = mul nsw i64 %9, %9
  %11 = icmp sgt i64 %10, %1
  br i1 %11, label %12, label %17

12:                                               ; preds = %8
  call void @llvm.lifetime.end.p0i8(i64 8, i8* nonnull %6) #25
  %13 = getelementptr inbounds %"class.std::vector.0", %"class.std::vector.0"* %0, i64 0, i32 0, i32 0, i32 0, i32 0
  %14 = load i64*, i64** %13, align 8, !tbaa !23
  %15 = getelementptr inbounds %"class.std::vector.0", %"class.std::vector.0"* %0, i64 0, i32 0, i32 0, i32 0, i32 1
  %16 = load i64*, i64** %15, align 8, !tbaa !23
  invoke void @_ZSt6__sortIN9__gnu_cxx17__normal_iteratorIPxSt6vectorIxSaIxEEEENS0_5__ops15_Iter_less_iterEEvT_S9_T0_(i64* %14, i64* %16) #24
          to label %40 unwind label %38

17:                                               ; preds = %8
  %18 = srem i64 %1, %9
  %19 = icmp eq i64 %18, 0
  br i1 %19, label %20, label %33

20:                                               ; preds = %17
  invoke void @_ZNSt6vectorIxSaIxEE9push_backERKx(%"class.std::vector.0"* nonnull align 8 dereferenceable(24) %0, i64* nonnull align 8 dereferenceable(8) %3) #24
          to label %21 unwind label %29

21:                                               ; preds = %20
  %22 = load i64, i64* %3, align 8, !tbaa !16
  %23 = mul nsw i64 %22, %22
  %24 = icmp eq i64 %23, %1
  br i1 %24, label %33, label %25

25:                                               ; preds = %21
  call void @llvm.lifetime.start.p0i8(i64 8, i8* nonnull %7) #25
  %26 = sdiv i64 %1, %22
  store i64 %26, i64* %4, align 8, !tbaa !16
  invoke void @_ZNSt6vectorIxSaIxEE12emplace_backIJxEEEvDpOT_(%"class.std::vector.0"* nonnull align 8 dereferenceable(24) %0, i64* nonnull align 8 dereferenceable(8) %4) #24
          to label %27 unwind label %31

27:                                               ; preds = %25
  call void @llvm.lifetime.end.p0i8(i64 8, i8* nonnull %7) #25
  %28 = load i64, i64* %3, align 8, !tbaa !16
  br label %33

29:                                               ; preds = %20
  %30 = landingpad { i8*, i32 }
          cleanup
  br label %36

31:                                               ; preds = %25
  %32 = landingpad { i8*, i32 }
          cleanup
  call void @llvm.lifetime.end.p0i8(i64 8, i8* nonnull %7) #25
  br label %36

33:                                               ; preds = %17, %27, %21
  %34 = phi i64 [ %9, %17 ], [ %28, %27 ], [ %22, %21 ]
  %35 = add nsw i64 %34, 1
  br label %8, !llvm.loop !79

36:                                               ; preds = %31, %29
  %37 = phi { i8*, i32 } [ %32, %31 ], [ %30, %29 ]
  call void @llvm.lifetime.end.p0i8(i64 8, i8* nonnull %6) #25
  br label %41

38:                                               ; preds = %12
  %39 = landingpad { i8*, i32 }
          cleanup
  br label %41

40:                                               ; preds = %12
  ret void

41:                                               ; preds = %38, %36
  %42 = phi { i8*, i32 } [ %37, %36 ], [ %39, %38 ]
  %43 = getelementptr inbounds %"class.std::vector.0", %"class.std::vector.0"* %0, i64 0, i32 0
  call void @_ZNSt12_Vector_baseIxSaIxEED2Ev(%"struct.std::_Vector_base.1"* nonnull align 8 dereferenceable(24) %43) #26
  resume { i8*, i32 } %42
}

; Function Attrs: minsize norecurse optsize sspstrong uwtable
define dso_local i32 @main() local_unnamed_addr #9 personality i8* bitcast (i32 (...)* @__gxx_personality_v0 to i8*) {
  %1 = alloca i64, align 8
  %2 = alloca i64, align 8
  %3 = alloca %"class.std::vector.31", align 8
  %4 = alloca i64, align 8
  %5 = alloca i64, align 8
  %6 = alloca %"struct.std::pair.36", align 8
  %7 = alloca %"class.std::vector.21", align 8
  %8 = alloca %"class.std::allocator.23", align 1
  %9 = alloca %struct.Edge, align 8
  %10 = alloca %"class.std::vector.0", align 8
  %11 = alloca %"class.std::vector.0", align 8
  %12 = bitcast i64* %1 to i8*
  call void @llvm.lifetime.start.p0i8(i64 8, i8* nonnull %12) #25
  %13 = bitcast i64* %2 to i8*
  call void @llvm.lifetime.start.p0i8(i64 8, i8* nonnull %13) #25
  %14 = call nonnull align 8 dereferenceable(16) %"class.std::basic_istream"* @_ZNSi10_M_extractIxEERSiRT_(%"class.std::basic_istream"* nonnull align 8 dereferenceable(16) @_ZSt3cin, i64* nonnull align 8 dereferenceable(8) %1) #24
  %15 = call nonnull align 8 dereferenceable(16) %"class.std::basic_istream"* @_ZNSi10_M_extractIxEERSiRT_(%"class.std::basic_istream"* nonnull align 8 dereferenceable(16) %14, i64* nonnull align 8 dereferenceable(8) %2) #24
  %16 = bitcast %"class.std::vector.31"* %3 to i8*
  call void @llvm.lifetime.start.p0i8(i64 24, i8* nonnull %16) #25
  call void @llvm.memset.p0i8.i64(i8* noundef nonnull align 8 dereferenceable(24) %16, i8 0, i64 24, i1 false) #25
  %17 = bitcast i64* %4 to i8*
  %18 = bitcast i64* %5 to i8*
  %19 = bitcast %"struct.std::pair.36"* %6 to i8*
  %20 = getelementptr inbounds %"struct.std::pair.36", %"struct.std::pair.36"* %6, i64 0, i32 0
  %21 = getelementptr inbounds %"struct.std::pair.36", %"struct.std::pair.36"* %6, i64 0, i32 1
  br label %22

22:                                               ; preds = %49, %0
  %23 = phi i64 [ %50, %49 ], [ 0, %0 ]
  %24 = load i64, i64* %2, align 8, !tbaa !16
  %25 = icmp sgt i64 %24, %23
  br i1 %25, label %40, label %26

26:                                               ; preds = %22
  %27 = bitcast %"class.std::vector.21"* %7 to i8*
  %28 = getelementptr inbounds %"class.std::allocator.23", %"class.std::allocator.23"* %8, i64 0, i32 0
  %29 = bitcast %struct.Edge* %9 to i8*
  %30 = getelementptr inbounds %"class.std::vector.31", %"class.std::vector.31"* %3, i64 0, i32 0, i32 0, i32 0, i32 0
  %31 = getelementptr inbounds %struct.Edge, %struct.Edge* %9, i64 0, i32 0
  %32 = getelementptr inbounds %struct.Edge, %struct.Edge* %9, i64 0, i32 1
  %33 = getelementptr inbounds %"class.std::vector.21", %"class.std::vector.21"* %7, i64 0, i32 0, i32 0, i32 0, i32 0
  %34 = bitcast %"class.std::vector.0"* %10 to i8*
  %35 = bitcast %"class.std::vector.0"* %11 to i8*
  %36 = getelementptr inbounds %"class.std::vector.0", %"class.std::vector.0"* %10, i64 0, i32 0, i32 0, i32 0, i32 1
  %37 = getelementptr inbounds %"class.std::vector.0", %"class.std::vector.0"* %10, i64 0, i32 0, i32 0, i32 0, i32 0
  %38 = getelementptr inbounds %"class.std::vector.0", %"class.std::vector.0"* %11, i64 0, i32 0
  %39 = getelementptr inbounds %"class.std::vector.0", %"class.std::vector.0"* %10, i64 0, i32 0
  br label %57

40:                                               ; preds = %22
  call void @llvm.lifetime.start.p0i8(i64 8, i8* nonnull %17) #25
  call void @llvm.lifetime.start.p0i8(i64 8, i8* nonnull %18) #25
  %41 = invoke nonnull align 8 dereferenceable(16) %"class.std::basic_istream"* @_ZNSi10_M_extractIxEERSiRT_(%"class.std::basic_istream"* nonnull align 8 dereferenceable(16) @_ZSt3cin, i64* nonnull align 8 dereferenceable(8) %4) #24
          to label %42 unwind label %51

42:                                               ; preds = %40
  %43 = invoke nonnull align 8 dereferenceable(16) %"class.std::basic_istream"* @_ZNSi10_M_extractIxEERSiRT_(%"class.std::basic_istream"* nonnull align 8 dereferenceable(16) %41, i64* nonnull align 8 dereferenceable(8) %5) #24
          to label %44 unwind label %51

44:                                               ; preds = %42
  call void @llvm.lifetime.start.p0i8(i64 16, i8* nonnull %19) #25
  %45 = load i64, i64* %4, align 8, !tbaa !16
  %46 = add nsw i64 %45, -1
  store i64 %46, i64* %4, align 8, !tbaa !16
  %47 = load i64, i64* %5, align 8, !tbaa !16
  %48 = add nsw i64 %47, -1
  store i64 %48, i64* %5, align 8, !tbaa !16
  store i64 %46, i64* %20, align 8
  store i64 %48, i64* %21, align 8
  invoke void @_ZNSt6vectorISt4pairIxxESaIS1_EE12emplace_backIJS1_EEEvDpOT_(%"class.std::vector.31"* nonnull align 8 dereferenceable(24) %3, %"struct.std::pair.36"* nonnull align 8 dereferenceable(16) %6) #24
          to label %49 unwind label %53

49:                                               ; preds = %44
  call void @llvm.lifetime.end.p0i8(i64 16, i8* nonnull %19) #25
  call void @llvm.lifetime.end.p0i8(i64 8, i8* nonnull %18) #25
  call void @llvm.lifetime.end.p0i8(i64 8, i8* nonnull %17) #25
  %50 = add nuw nsw i64 %23, 1
  br label %22, !llvm.loop !80

51:                                               ; preds = %42, %40
  %52 = landingpad { i8*, i32 }
          cleanup
  br label %55

53:                                               ; preds = %44
  %54 = landingpad { i8*, i32 }
          cleanup
  call void @llvm.lifetime.end.p0i8(i64 16, i8* nonnull %19) #25
  br label %55

55:                                               ; preds = %53, %51
  %56 = phi { i8*, i32 } [ %54, %53 ], [ %52, %51 ]
  call void @llvm.lifetime.end.p0i8(i64 8, i8* nonnull %18) #25
  call void @llvm.lifetime.end.p0i8(i64 8, i8* nonnull %17) #25
  br label %139

57:                                               ; preds = %26, %125
  %58 = phi i64 [ %24, %26 ], [ %128, %125 ]
  %59 = phi i64 [ 0, %26 ], [ %127, %125 ]
  %60 = phi i64 [ 0, %26 ], [ %126, %125 ]
  %61 = icmp sgt i64 %58, %59
  br i1 %61, label %64, label %62

62:                                               ; preds = %57
  %63 = invoke nonnull align 8 dereferenceable(8) %"class.std::basic_ostream"* @_ZNSo9_M_insertIxEERSoT_(%"class.std::basic_ostream"* nonnull align 8 dereferenceable(8) @_ZSt4cout, i64 %60) #24
          to label %133 unwind label %137

64:                                               ; preds = %57
  call void @llvm.lifetime.start.p0i8(i64 24, i8* nonnull %27) #25
  %65 = load i64, i64* %1, align 8, !tbaa !16
  call void @llvm.lifetime.start.p0i8(i64 1, i8* nonnull %28) #25
  invoke void @_ZNSt6vectorIS_I4EdgeSaIS0_EESaIS2_EEC2EmRKS3_(%"class.std::vector.21"* nonnull align 8 dereferenceable(24) %7, i64 %65, %"class.std::allocator.23"* nonnull align 1 dereferenceable(1) %8) #24
          to label %66 unwind label %71

66:                                               ; preds = %64
  call void @llvm.lifetime.end.p0i8(i64 1, i8* nonnull %28) #25
  br label %67

67:                                               ; preds = %91, %66
  %68 = phi i64 [ %92, %91 ], [ 0, %66 ]
  %69 = load i64, i64* %2, align 8, !tbaa !16
  %70 = icmp sgt i64 %69, %68
  br i1 %70, label %73, label %95

71:                                               ; preds = %64
  %72 = landingpad { i8*, i32 }
          cleanup
  call void @llvm.lifetime.end.p0i8(i64 1, i8* nonnull %28) #25
  br label %131

73:                                               ; preds = %67
  call void @llvm.lifetime.start.p0i8(i64 16, i8* nonnull %29) #25
  %74 = icmp eq i64 %59, %68
  br i1 %74, label %91, label %75

75:                                               ; preds = %73
  %76 = load %"struct.std::pair.36"*, %"struct.std::pair.36"** %30, align 8, !tbaa !81
  %77 = getelementptr inbounds %"struct.std::pair.36", %"struct.std::pair.36"* %76, i64 %68, i32 1
  %78 = load i64, i64* %77, align 8, !tbaa !82
  store i64 %78, i64* %31, align 8, !tbaa !56
  store i64 1, i64* %32, align 8, !tbaa !58
  %79 = getelementptr inbounds %"struct.std::pair.36", %"struct.std::pair.36"* %76, i64 %68, i32 0
  %80 = load i64, i64* %79, align 8, !tbaa !84
  %81 = load %"class.std::vector.26"*, %"class.std::vector.26"** %33, align 8, !tbaa !54
  %82 = getelementptr inbounds %"class.std::vector.26", %"class.std::vector.26"* %81, i64 %80
  invoke void @_ZNSt6vectorI4EdgeSaIS0_EE9push_backERKS0_(%"class.std::vector.26"* nonnull align 8 dereferenceable(24) %82, %struct.Edge* nonnull align 8 dereferenceable(16) %9) #24
          to label %83 unwind label %93

83:                                               ; preds = %75
  %84 = load %"struct.std::pair.36"*, %"struct.std::pair.36"** %30, align 8, !tbaa !81
  %85 = getelementptr inbounds %"struct.std::pair.36", %"struct.std::pair.36"* %84, i64 %68, i32 0
  %86 = load i64, i64* %85, align 8, !tbaa !84
  store i64 %86, i64* %31, align 8, !tbaa !56
  store i64 1, i64* %32, align 8, !tbaa !58
  %87 = getelementptr inbounds %"struct.std::pair.36", %"struct.std::pair.36"* %84, i64 %68, i32 1
  %88 = load i64, i64* %87, align 8, !tbaa !82
  %89 = load %"class.std::vector.26"*, %"class.std::vector.26"** %33, align 8, !tbaa !54
  %90 = getelementptr inbounds %"class.std::vector.26", %"class.std::vector.26"* %89, i64 %88
  invoke void @_ZNSt6vectorI4EdgeSaIS0_EE9push_backERKS0_(%"class.std::vector.26"* nonnull align 8 dereferenceable(24) %90, %struct.Edge* nonnull align 8 dereferenceable(16) %9) #24
          to label %91 unwind label %93

91:                                               ; preds = %83, %73
  call void @llvm.lifetime.end.p0i8(i64 16, i8* nonnull %29) #25
  %92 = add nuw nsw i64 %68, 1
  br label %67, !llvm.loop !85

93:                                               ; preds = %83, %75
  %94 = landingpad { i8*, i32 }
          cleanup
  call void @llvm.lifetime.end.p0i8(i64 16, i8* nonnull %29) #25
  br label %129

95:                                               ; preds = %67, %121
  %96 = phi i64 [ %124, %121 ], [ 0, %67 ]
  %97 = phi i64 [ %122, %121 ], [ %60, %67 ]
  %98 = load i64, i64* %1, align 8, !tbaa !16
  %99 = icmp sgt i64 %98, %96
  br i1 %99, label %100, label %125

100:                                              ; preds = %95
  call void @llvm.lifetime.start.p0i8(i64 24, i8* nonnull %34) #25
  call void @llvm.memset.p0i8.i64(i8* noundef nonnull align 8 dereferenceable(24) %34, i8 0, i64 24, i1 false) #25
  call void @llvm.lifetime.start.p0i8(i64 24, i8* nonnull %35) #25
  call void @llvm.memset.p0i8.i64(i8* noundef nonnull align 8 dereferenceable(24) %35, i8 0, i64 24, i1 false) #25
  %101 = trunc i64 %96 to i32
  invoke void @_Z8dijkstraRKSt6vectorIS_I4EdgeSaIS0_EESaIS2_EEiRS_IxSaIxEES9_(%"class.std::vector.21"* nonnull align 8 dereferenceable(24) %7, i32 %101, %"class.std::vector.0"* nonnull align 8 dereferenceable(24) %10, %"class.std::vector.0"* nonnull align 8 dereferenceable(24) %11) #24
          to label %102 unwind label %112

102:                                              ; preds = %100
  %103 = load i64*, i64** %36, align 8, !tbaa !10
  %104 = load i64*, i64** %37, align 8, !tbaa !15
  %105 = ptrtoint i64* %103 to i64
  %106 = ptrtoint i64* %104 to i64
  %107 = sub i64 %105, %106
  %108 = ashr exact i64 %107, 3
  br label %109

109:                                              ; preds = %114, %102
  %110 = phi i64 [ %118, %114 ], [ 0, %102 ]
  %111 = icmp eq i64 %110, %108
  br i1 %111, label %121, label %114

112:                                              ; preds = %100
  %113 = landingpad { i8*, i32 }
          cleanup
  call void @_ZNSt12_Vector_baseIxSaIxEED2Ev(%"struct.std::_Vector_base.1"* nonnull align 8 dereferenceable(24) %38) #26
  call void @llvm.lifetime.end.p0i8(i64 24, i8* nonnull %35) #25
  call void @_ZNSt12_Vector_baseIxSaIxEED2Ev(%"struct.std::_Vector_base.1"* nonnull align 8 dereferenceable(24) %39) #26
  call void @llvm.lifetime.end.p0i8(i64 24, i8* nonnull %34) #25
  br label %129

114:                                              ; preds = %109
  %115 = getelementptr inbounds i64, i64* %104, i64 %110
  %116 = load i64, i64* %115, align 8, !tbaa !16
  %117 = icmp eq i64 %116, 1152921504606846976
  %118 = add nuw i64 %110, 1
  br i1 %117, label %119, label %109, !llvm.loop !86

119:                                              ; preds = %114
  %120 = add nsw i64 %97, 1
  br label %121

121:                                              ; preds = %109, %119
  %122 = phi i64 [ %120, %119 ], [ %97, %109 ]
  %123 = icmp ugt i64 %108, %110
  call void @_ZNSt12_Vector_baseIxSaIxEED2Ev(%"struct.std::_Vector_base.1"* nonnull align 8 dereferenceable(24) %38) #26
  call void @llvm.lifetime.end.p0i8(i64 24, i8* nonnull %35) #25
  call void @_ZNSt12_Vector_baseIxSaIxEED2Ev(%"struct.std::_Vector_base.1"* nonnull align 8 dereferenceable(24) %39) #26
  call void @llvm.lifetime.end.p0i8(i64 24, i8* nonnull %34) #25
  %124 = add nuw i64 %96, 1
  br i1 %123, label %125, label %95, !llvm.loop !87

125:                                              ; preds = %95, %121
  %126 = phi i64 [ %122, %121 ], [ %97, %95 ]
  call void @_ZNSt6vectorIS_I4EdgeSaIS0_EESaIS2_EED2Ev(%"class.std::vector.21"* nonnull align 8 dereferenceable(24) %7) #26
  call void @llvm.lifetime.end.p0i8(i64 24, i8* nonnull %27) #25
  %127 = add nuw i64 %59, 1
  %128 = load i64, i64* %2, align 8, !tbaa !16
  br label %57, !llvm.loop !88

129:                                              ; preds = %112, %93
  %130 = phi { i8*, i32 } [ %94, %93 ], [ %113, %112 ]
  call void @_ZNSt6vectorIS_I4EdgeSaIS0_EESaIS2_EED2Ev(%"class.std::vector.21"* nonnull align 8 dereferenceable(24) %7) #26
  br label %131

131:                                              ; preds = %129, %71
  %132 = phi { i8*, i32 } [ %130, %129 ], [ %72, %71 ]
  call void @llvm.lifetime.end.p0i8(i64 24, i8* nonnull %27) #25
  br label %139

133:                                              ; preds = %62
  %134 = invoke nonnull align 8 dereferenceable(8) %"class.std::basic_ostream"* @_ZSt4endlIcSt11char_traitsIcEERSt13basic_ostreamIT_T0_ES6_(%"class.std::basic_ostream"* nonnull align 8 dereferenceable(8) %63) #24
          to label %135 unwind label %137

135:                                              ; preds = %133
  %136 = getelementptr inbounds %"class.std::vector.31", %"class.std::vector.31"* %3, i64 0, i32 0
  call void @_ZNSt12_Vector_baseISt4pairIxxESaIS1_EED2Ev(%"struct.std::_Vector_base.32"* nonnull align 8 dereferenceable(24) %136) #26
  call void @llvm.lifetime.end.p0i8(i64 24, i8* nonnull %16) #25
  call void @llvm.lifetime.end.p0i8(i64 8, i8* nonnull %13) #25
  call void @llvm.lifetime.end.p0i8(i64 8, i8* nonnull %12) #25
  ret i32 0

137:                                              ; preds = %133, %62
  %138 = landingpad { i8*, i32 }
          cleanup
  br label %139

139:                                              ; preds = %131, %137, %55
  %140 = phi { i8*, i32 } [ %56, %55 ], [ %132, %131 ], [ %138, %137 ]
  %141 = getelementptr inbounds %"class.std::vector.31", %"class.std::vector.31"* %3, i64 0, i32 0
  call void @_ZNSt12_Vector_baseISt4pairIxxESaIS1_EED2Ev(%"struct.std::_Vector_base.32"* nonnull align 8 dereferenceable(24) %141) #26
  call void @llvm.lifetime.end.p0i8(i64 24, i8* nonnull %16) #25
  call void @llvm.lifetime.end.p0i8(i64 8, i8* nonnull %13) #25
  call void @llvm.lifetime.end.p0i8(i64 8, i8* nonnull %12) #25
  resume { i8*, i32 } %140
}

; Function Attrs: minsize optsize sspstrong uwtable
define linkonce_odr dso_local void @_ZNSt6vectorIS_I4EdgeSaIS0_EESaIS2_EEC2EmRKS3_(%"class.std::vector.21"* nonnull align 8 dereferenceable(24) %0, i64 %1, %"class.std::allocator.23"* nonnull align 1 dereferenceable(1) %2) unnamed_addr #5 comdat align 2 personality i8* bitcast (i32 (...)* @__gxx_personality_v0 to i8*) {
  %4 = getelementptr inbounds %"class.std::vector.21", %"class.std::vector.21"* %0, i64 0, i32 0
  %5 = tail call i64 @_ZNSt6vectorIS_I4EdgeSaIS0_EESaIS2_EE17_S_check_init_lenEmRKS3_(i64 %1, %"class.std::allocator.23"* nonnull align 1 dereferenceable(1) %2) #24
  %6 = bitcast %"class.std::vector.21"* %0 to i8*
  tail call void @llvm.memset.p0i8.i64(i8* noundef nonnull align 8 dereferenceable(24) %6, i8 0, i64 24, i1 false) #25
  tail call void @_ZNSt12_Vector_baseISt6vectorI4EdgeSaIS1_EESaIS3_EE17_M_create_storageEm(%"struct.std::_Vector_base.22"* nonnull align 8 dereferenceable(24) %4, i64 %5) #24
  invoke void @_ZNSt6vectorIS_I4EdgeSaIS0_EESaIS2_EE21_M_default_initializeEm(%"class.std::vector.21"* nonnull align 8 dereferenceable(24) %0, i64 %1) #24
          to label %7 unwind label %8

7:                                                ; preds = %3
  ret void

8:                                                ; preds = %3
  %9 = landingpad { i8*, i32 }
          cleanup
  tail call void @_ZNSt12_Vector_baseISt6vectorI4EdgeSaIS1_EESaIS3_EED2Ev(%"struct.std::_Vector_base.22"* nonnull align 8 dereferenceable(24) %4) #26
  resume { i8*, i32 } %9
}

; Function Attrs: minsize optsize sspstrong uwtable
define linkonce_odr dso_local void @_ZNSt6vectorI4EdgeSaIS0_EE9push_backERKS0_(%"class.std::vector.26"* nonnull align 8 dereferenceable(24) %0, %struct.Edge* nonnull align 8 dereferenceable(16) %1) local_unnamed_addr #5 comdat align 2 {
  %3 = getelementptr inbounds %"class.std::vector.26", %"class.std::vector.26"* %0, i64 0, i32 0, i32 0, i32 0, i32 1
  %4 = load %struct.Edge*, %struct.Edge** %3, align 8, !tbaa !89
  %5 = getelementptr inbounds %"class.std::vector.26", %"class.std::vector.26"* %0, i64 0, i32 0, i32 0, i32 0, i32 2
  %6 = load %struct.Edge*, %struct.Edge** %5, align 8, !tbaa !91
  %7 = icmp eq %struct.Edge* %4, %6
  br i1 %7, label %13, label %8

8:                                                ; preds = %2
  %9 = bitcast %struct.Edge* %4 to i8*
  %10 = bitcast %struct.Edge* %1 to i8*
  tail call void @llvm.memcpy.p0i8.p0i8.i64(i8* noundef nonnull align 8 dereferenceable(16) %9, i8* noundef nonnull align 8 dereferenceable(16) %10, i64 16, i1 false) #25, !tbaa.struct !92
  %11 = load %struct.Edge*, %struct.Edge** %3, align 8, !tbaa !89
  %12 = getelementptr inbounds %struct.Edge, %struct.Edge* %11, i64 1
  store %struct.Edge* %12, %struct.Edge** %3, align 8, !tbaa !89
  br label %14

13:                                               ; preds = %2
  tail call void @_ZNSt6vectorI4EdgeSaIS0_EE17_M_realloc_insertIJRKS0_EEEvN9__gnu_cxx17__normal_iteratorIPS0_S2_EEDpOT_(%"class.std::vector.26"* nonnull align 8 dereferenceable(24) %0, %struct.Edge* %4, %struct.Edge* nonnull align 8 dereferenceable(16) %1) #24
  br label %14

14:                                               ; preds = %13, %8
  ret void
}

; Function Attrs: minsize nounwind optsize sspstrong uwtable
define linkonce_odr dso_local void @_ZNSt6vectorIS_I4EdgeSaIS0_EESaIS2_EED2Ev(%"class.std::vector.21"* nonnull align 8 dereferenceable(24) %0) unnamed_addr #7 comdat align 2 personality i8* bitcast (i32 (...)* @__gxx_personality_v0 to i8*) {
  %2 = getelementptr inbounds %"class.std::vector.21", %"class.std::vector.21"* %0, i64 0, i32 0
  %3 = getelementptr inbounds %"class.std::vector.21", %"class.std::vector.21"* %0, i64 0, i32 0, i32 0, i32 0, i32 0
  %4 = load %"class.std::vector.26"*, %"class.std::vector.26"** %3, align 8, !tbaa !54
  %5 = getelementptr inbounds %"class.std::vector.21", %"class.std::vector.21"* %0, i64 0, i32 0, i32 0, i32 0, i32 1
  %6 = load %"class.std::vector.26"*, %"class.std::vector.26"** %5, align 8, !tbaa !52
  invoke void @_ZNSt12_Destroy_auxILb0EE9__destroyIPSt6vectorI4EdgeSaIS3_EEEEvT_S7_(%"class.std::vector.26"* %4, %"class.std::vector.26"* %6) #24
          to label %7 unwind label %8

7:                                                ; preds = %1
  tail call void @_ZNSt12_Vector_baseISt6vectorI4EdgeSaIS1_EESaIS3_EED2Ev(%"struct.std::_Vector_base.22"* nonnull align 8 dereferenceable(24) %2) #26
  ret void

8:                                                ; preds = %1
  %9 = landingpad { i8*, i32 }
          catch i8* null
  %10 = extractvalue { i8*, i32 } %9, 0
  tail call void @_ZNSt12_Vector_baseISt6vectorI4EdgeSaIS1_EESaIS3_EED2Ev(%"struct.std::_Vector_base.22"* nonnull align 8 dereferenceable(24) %2) #26
  tail call void @__clang_call_terminate(i8* %10) #27
  unreachable
}

; Function Attrs: inlinehint minsize mustprogress optsize sspstrong uwtable
declare nonnull align 8 dereferenceable(8) %"class.std::basic_ostream"* @_ZSt4endlIcSt11char_traitsIcEERSt13basic_ostreamIT_T0_ES6_(%"class.std::basic_ostream"* nonnull align 8 dereferenceable(8)) local_unnamed_addr #10

; Function Attrs: minsize nounwind optsize sspstrong uwtable
define linkonce_odr dso_local void @_ZNSt11_Deque_baseISt4pairIiiESaIS1_EED2Ev(%"class.std::_Deque_base"* nonnull align 8 dereferenceable(80) %0) unnamed_addr #7 comdat align 2 personality i32 (...)* @__gxx_personality_v0 {
  %2 = getelementptr inbounds %"class.std::_Deque_base", %"class.std::_Deque_base"* %0, i64 0, i32 0, i32 0, i32 0
  %3 = load %"struct.std::pair"**, %"struct.std::pair"*** %2, align 8, !tbaa !93
  %4 = icmp eq %"struct.std::pair"** %3, null
  br i1 %4, label %13, label %5

5:                                                ; preds = %1
  %6 = getelementptr inbounds %"class.std::_Deque_base", %"class.std::_Deque_base"* %0, i64 0, i32 0, i32 0, i32 2, i32 3
  %7 = load %"struct.std::pair"**, %"struct.std::pair"*** %6, align 8, !tbaa !95
  %8 = getelementptr inbounds %"class.std::_Deque_base", %"class.std::_Deque_base"* %0, i64 0, i32 0, i32 0, i32 3, i32 3
  %9 = load %"struct.std::pair"**, %"struct.std::pair"*** %8, align 8, !tbaa !96
  %10 = getelementptr inbounds %"struct.std::pair"*, %"struct.std::pair"** %9, i64 1
  tail call void @_ZNSt11_Deque_baseISt4pairIiiESaIS1_EE16_M_destroy_nodesEPPS1_S5_(%"class.std::_Deque_base"* nonnull align 8 dereferenceable(80) %0, %"struct.std::pair"** %7, %"struct.std::pair"** nonnull %10) #26
  %11 = bitcast %"class.std::_Deque_base"* %0 to i8**
  %12 = load i8*, i8** %11, align 8, !tbaa !93
  tail call void @_ZdlPv(i8* %12) #26
  br label %13

13:                                               ; preds = %5, %1
  ret void
}

; Function Attrs: noinline noreturn nounwind
define linkonce_odr hidden void @__clang_call_terminate(i8* %0) local_unnamed_addr #11 comdat {
  %2 = tail call i8* @__cxa_begin_catch(i8* %0) #25
  tail call void @_ZSt9terminatev() #27
  unreachable
}

declare i8* @__cxa_begin_catch(i8*) local_unnamed_addr

declare void @_ZSt9terminatev() local_unnamed_addr

; Function Attrs: minsize mustprogress nounwind optsize sspstrong uwtable
define linkonce_odr dso_local void @_ZNSt11_Deque_baseISt4pairIiiESaIS1_EE16_M_destroy_nodesEPPS1_S5_(%"class.std::_Deque_base"* nonnull align 8 dereferenceable(80) %0, %"struct.std::pair"** %1, %"struct.std::pair"** %2) local_unnamed_addr #12 comdat align 2 personality i32 (...)* @__gxx_personality_v0 {
  br label %4

4:                                                ; preds = %8, %3
  %5 = phi %"struct.std::pair"** [ %1, %3 ], [ %11, %8 ]
  %6 = icmp ult %"struct.std::pair"** %5, %2
  br i1 %6, label %8, label %7

7:                                                ; preds = %4
  ret void

8:                                                ; preds = %4
  %9 = bitcast %"struct.std::pair"** %5 to i8**
  %10 = load i8*, i8** %9, align 8, !tbaa !23
  tail call void @_ZdlPv(i8* %10) #26
  %11 = getelementptr inbounds %"struct.std::pair"*, %"struct.std::pair"** %5, i64 1
  br label %4, !llvm.loop !97
}

; Function Attrs: minsize nobuiltin nounwind optsize
declare void @_ZdlPv(i8*) local_unnamed_addr #13

; Function Attrs: minsize nounwind optsize sspstrong uwtable
define linkonce_odr dso_local void @_ZNSt8_Rb_treeIxSt4pairIKxxESt10_Select1stIS2_ESt4lessIxESaIS2_EED2Ev(%"class.std::_Rb_tree"* nonnull align 8 dereferenceable(48) %0) unnamed_addr #7 comdat align 2 personality i8* bitcast (i32 (...)* @__gxx_personality_v0 to i8*) {
  %2 = getelementptr inbounds %"class.std::_Rb_tree", %"class.std::_Rb_tree"* %0, i64 0, i32 0, i32 0, i32 0, i32 0
  %3 = getelementptr inbounds i8, i8* %2, i64 16
  %4 = bitcast i8* %3 to %"struct.std::_Rb_tree_node"**
  %5 = load %"struct.std::_Rb_tree_node"*, %"struct.std::_Rb_tree_node"** %4, align 8, !tbaa !44
  invoke void @_ZNSt8_Rb_treeIxSt4pairIKxxESt10_Select1stIS2_ESt4lessIxESaIS2_EE8_M_eraseEPSt13_Rb_tree_nodeIS2_E(%"class.std::_Rb_tree"* nonnull align 8 dereferenceable(48) %0, %"struct.std::_Rb_tree_node"* %5) #24
          to label %6 unwind label %7

6:                                                ; preds = %1
  ret void

7:                                                ; preds = %1
  %8 = landingpad { i8*, i32 }
          catch i8* null
  %9 = extractvalue { i8*, i32 } %8, 0
  tail call void @__clang_call_terminate(i8* %9) #27
  unreachable
}

; Function Attrs: minsize mustprogress optsize sspstrong uwtable
define linkonce_odr dso_local void @_ZNSt8_Rb_treeIxSt4pairIKxxESt10_Select1stIS2_ESt4lessIxESaIS2_EE8_M_eraseEPSt13_Rb_tree_nodeIS2_E(%"class.std::_Rb_tree"* nonnull align 8 dereferenceable(48) %0, %"struct.std::_Rb_tree_node"* %1) local_unnamed_addr #14 comdat align 2 personality i32 (...)* @__gxx_personality_v0 {
  br label %3

3:                                                ; preds = %6, %2
  %4 = phi %"struct.std::_Rb_tree_node"* [ %1, %2 ], [ %12, %6 ]
  %5 = icmp eq %"struct.std::_Rb_tree_node"* %4, null
  br i1 %5, label %14, label %6

6:                                                ; preds = %3
  %7 = getelementptr inbounds %"struct.std::_Rb_tree_node", %"struct.std::_Rb_tree_node"* %4, i64 0, i32 0, i32 3
  %8 = bitcast %"struct.std::_Rb_tree_node_base"** %7 to %"struct.std::_Rb_tree_node"**
  %9 = load %"struct.std::_Rb_tree_node"*, %"struct.std::_Rb_tree_node"** %8, align 8, !tbaa !98
  tail call void @_ZNSt8_Rb_treeIxSt4pairIKxxESt10_Select1stIS2_ESt4lessIxESaIS2_EE8_M_eraseEPSt13_Rb_tree_nodeIS2_E(%"class.std::_Rb_tree"* nonnull align 8 dereferenceable(48) %0, %"struct.std::_Rb_tree_node"* %9) #24
  %10 = getelementptr inbounds %"struct.std::_Rb_tree_node", %"struct.std::_Rb_tree_node"* %4, i64 0, i32 0, i32 2
  %11 = bitcast %"struct.std::_Rb_tree_node_base"** %10 to %"struct.std::_Rb_tree_node"**
  %12 = load %"struct.std::_Rb_tree_node"*, %"struct.std::_Rb_tree_node"** %11, align 8, !tbaa !99
  %13 = bitcast %"struct.std::_Rb_tree_node"* %4 to i8*
  tail call void @_ZdlPv(i8* nonnull %13) #26
  br label %3, !llvm.loop !100

14:                                               ; preds = %3
  ret void
}

; Function Attrs: minsize optsize sspstrong uwtable
define linkonce_odr dso_local void @_ZNSt6vectorIS_IxSaIxEESaIS1_EE17_M_realloc_insertIJRKS1_EEEvN9__gnu_cxx17__normal_iteratorIPS1_S3_EEDpOT_(%"class.std::vector"* nonnull align 8 dereferenceable(24) %0, %"class.std::vector.0"* %1, %"class.std::vector.0"* nonnull align 8 dereferenceable(24) %2) local_unnamed_addr #5 comdat align 2 personality i8* bitcast (i32 (...)* @__gxx_personality_v0 to i8*) {
  %4 = tail call i64 @_ZNKSt6vectorIS_IxSaIxEESaIS1_EE12_M_check_lenEmPKc(%"class.std::vector"* nonnull align 8 dereferenceable(24) %0, i64 1, i8* getelementptr inbounds ([26 x i8], [26 x i8]* @.str, i64 0, i64 0)) #24
  %5 = getelementptr inbounds %"class.std::vector", %"class.std::vector"* %0, i64 0, i32 0
  %6 = getelementptr inbounds %"class.std::vector", %"class.std::vector"* %0, i64 0, i32 0, i32 0, i32 0, i32 0
  %7 = load %"class.std::vector.0"*, %"class.std::vector.0"** %6, align 8, !tbaa !37
  %8 = getelementptr inbounds %"class.std::vector", %"class.std::vector"* %0, i64 0, i32 0, i32 0, i32 0, i32 1
  %9 = load %"class.std::vector.0"*, %"class.std::vector.0"** %8, align 8, !tbaa !19
  %10 = ptrtoint %"class.std::vector.0"* %1 to i64
  %11 = ptrtoint %"class.std::vector.0"* %7 to i64
  %12 = sub i64 %10, %11
  %13 = sdiv exact i64 %12, 24
  %14 = tail call %"class.std::vector.0"* @_ZNSt12_Vector_baseISt6vectorIxSaIxEESaIS2_EE11_M_allocateEm(%"struct.std::_Vector_base"* nonnull align 8 dereferenceable(24) %5, i64 %4) #24
  %15 = getelementptr inbounds %"class.std::vector.0", %"class.std::vector.0"* %14, i64 %13
  invoke void @_ZNSt6vectorIxSaIxEEC2ERKS1_(%"class.std::vector.0"* nonnull align 8 dereferenceable(24) %15, %"class.std::vector.0"* nonnull align 8 dereferenceable(24) %2) #24
          to label %16 unwind label %27

16:                                               ; preds = %3
  %17 = bitcast %"class.std::vector"* %0 to %"class.std::allocator"*
  %18 = tail call %"class.std::vector.0"* @_ZSt14__relocate_a_1IPSt6vectorIxSaIxEES3_SaIS2_EET0_T_S6_S5_RT1_(%"class.std::vector.0"* %7, %"class.std::vector.0"* %1, %"class.std::vector.0"* %14, %"class.std::allocator"* nonnull align 1 dereferenceable(1) %17) #26
  %19 = getelementptr inbounds %"class.std::vector.0", %"class.std::vector.0"* %18, i64 1
  %20 = tail call %"class.std::vector.0"* @_ZSt14__relocate_a_1IPSt6vectorIxSaIxEES3_SaIS2_EET0_T_S6_S5_RT1_(%"class.std::vector.0"* %1, %"class.std::vector.0"* %9, %"class.std::vector.0"* nonnull %19, %"class.std::allocator"* nonnull align 1 dereferenceable(1) %17) #26
  %21 = icmp eq %"class.std::vector.0"* %7, null
  br i1 %21, label %24, label %22

22:                                               ; preds = %16
  %23 = bitcast %"class.std::vector.0"* %7 to i8*
  tail call void @_ZdlPv(i8* nonnull %23) #26
  br label %24

24:                                               ; preds = %16, %22
  %25 = getelementptr inbounds %"class.std::vector", %"class.std::vector"* %0, i64 0, i32 0, i32 0, i32 0, i32 2
  store %"class.std::vector.0"* %14, %"class.std::vector.0"** %6, align 8, !tbaa !37
  store %"class.std::vector.0"* %20, %"class.std::vector.0"** %8, align 8, !tbaa !19
  %26 = getelementptr inbounds %"class.std::vector.0", %"class.std::vector.0"* %14, i64 %4
  store %"class.std::vector.0"* %26, %"class.std::vector.0"** %25, align 8, !tbaa !21
  ret void

27:                                               ; preds = %3
  %28 = landingpad { i8*, i32 }
          catch i8* null
  %29 = extractvalue { i8*, i32 } %28, 0
  %30 = tail call i8* @__cxa_begin_catch(i8* %29) #25
  %31 = icmp eq %"class.std::vector.0"* %14, null
  br i1 %31, label %32, label %34

32:                                               ; preds = %27
  %33 = getelementptr inbounds %"class.std::vector.0", %"class.std::vector.0"* %15, i64 0, i32 0
  tail call void @_ZNSt12_Vector_baseIxSaIxEED2Ev(%"struct.std::_Vector_base.1"* nonnull align 8 dereferenceable(24) %33) #26
  br label %39

34:                                               ; preds = %27
  invoke void @_ZNSt12_Destroy_auxILb0EE9__destroyIPSt6vectorIxSaIxEEEEvT_S6_(%"class.std::vector.0"* nonnull %14, %"class.std::vector.0"* nonnull %14) #24
          to label %37 unwind label %35

35:                                               ; preds = %34, %39
  %36 = landingpad { i8*, i32 }
          cleanup
  invoke void @__cxa_end_catch()
          to label %40 unwind label %41

37:                                               ; preds = %34
  %38 = bitcast %"class.std::vector.0"* %14 to i8*
  tail call void @_ZdlPv(i8* nonnull %38) #26
  br label %39

39:                                               ; preds = %37, %32
  invoke void @__cxa_rethrow() #28
          to label %44 unwind label %35

40:                                               ; preds = %35
  resume { i8*, i32 } %36

41:                                               ; preds = %35
  %42 = landingpad { i8*, i32 }
          catch i8* null
  %43 = extractvalue { i8*, i32 } %42, 0
  tail call void @__clang_call_terminate(i8* %43) #27
  unreachable

44:                                               ; preds = %39
  unreachable
}

; Function Attrs: minsize mustprogress optsize sspstrong uwtable
define linkonce_odr dso_local i64 @_ZNKSt6vectorIS_IxSaIxEESaIS1_EE12_M_check_lenEmPKc(%"class.std::vector"* nonnull align 8 dereferenceable(24) %0, i64 %1, i8* %2) local_unnamed_addr #14 comdat align 2 personality i32 (...)* @__gxx_personality_v0 {
  %4 = getelementptr inbounds %"class.std::vector", %"class.std::vector"* %0, i64 0, i32 0, i32 0, i32 0, i32 1
  %5 = load %"class.std::vector.0"*, %"class.std::vector.0"** %4, align 8, !tbaa !19
  %6 = getelementptr inbounds %"class.std::vector", %"class.std::vector"* %0, i64 0, i32 0, i32 0, i32 0, i32 0
  %7 = load %"class.std::vector.0"*, %"class.std::vector.0"** %6, align 8, !tbaa !37
  %8 = ptrtoint %"class.std::vector.0"* %5 to i64
  %9 = ptrtoint %"class.std::vector.0"* %7 to i64
  %10 = sub i64 %8, %9
  %11 = sdiv exact i64 %10, 24
  %12 = sub nsw i64 384307168202282325, %11
  %13 = icmp ult i64 %12, %1
  br i1 %13, label %14, label %15

14:                                               ; preds = %3
  tail call void @_ZSt20__throw_length_errorPKc(i8* %2) #29
  unreachable

15:                                               ; preds = %3
  %16 = icmp ult i64 %11, %1
  %17 = select i1 %16, i64 %1, i64 %11
  %18 = add i64 %17, %11
  %19 = icmp ult i64 %18, %11
  %20 = icmp ugt i64 %18, 384307168202282325
  %21 = or i1 %19, %20
  %22 = select i1 %21, i64 384307168202282325, i64 %18
  ret i64 %22
}

; Function Attrs: minsize mustprogress optsize sspstrong uwtable
define linkonce_odr dso_local %"class.std::vector.0"* @_ZNSt12_Vector_baseISt6vectorIxSaIxEESaIS2_EE11_M_allocateEm(%"struct.std::_Vector_base"* nonnull align 8 dereferenceable(24) %0, i64 %1) local_unnamed_addr #14 comdat align 2 {
  %3 = icmp eq i64 %1, 0
  br i1 %3, label %7, label %4

4:                                                ; preds = %2
  %5 = bitcast %"struct.std::_Vector_base"* %0 to %"class.std::allocator"*
  %6 = tail call %"class.std::vector.0"* @_ZNSt16allocator_traitsISaISt6vectorIxSaIxEEEE8allocateERS3_m(%"class.std::allocator"* nonnull align 1 dereferenceable(1) %5, i64 %1) #24
  br label %7

7:                                                ; preds = %2, %4
  %8 = phi %"class.std::vector.0"* [ %6, %4 ], [ null, %2 ]
  ret %"class.std::vector.0"* %8
}

declare void @__cxa_rethrow() local_unnamed_addr

declare void @__cxa_end_catch() local_unnamed_addr

; Function Attrs: minsize noreturn optsize
declare void @_ZSt20__throw_length_errorPKc(i8*) local_unnamed_addr #15

; Function Attrs: minsize mustprogress optsize sspstrong uwtable
define linkonce_odr dso_local %"class.std::vector.0"* @_ZNSt16allocator_traitsISaISt6vectorIxSaIxEEEE8allocateERS3_m(%"class.std::allocator"* nonnull align 1 dereferenceable(1) %0, i64 %1) local_unnamed_addr #14 comdat align 2 {
  %3 = bitcast %"class.std::allocator"* %0 to %"class.__gnu_cxx::new_allocator"*
  %4 = tail call %"class.std::vector.0"* @_ZN9__gnu_cxx13new_allocatorISt6vectorIxSaIxEEE8allocateEmPKv(%"class.__gnu_cxx::new_allocator"* nonnull align 1 dereferenceable(1) %3, i64 %1, i8* null) #24
  ret %"class.std::vector.0"* %4
}

; Function Attrs: minsize mustprogress optsize sspstrong uwtable
define linkonce_odr dso_local %"class.std::vector.0"* @_ZN9__gnu_cxx13new_allocatorISt6vectorIxSaIxEEE8allocateEmPKv(%"class.__gnu_cxx::new_allocator"* nonnull align 1 dereferenceable(1) %0, i64 %1, i8* %2) local_unnamed_addr #14 comdat align 2 {
  %4 = icmp ugt i64 %1, 384307168202282325
  br i1 %4, label %5, label %9, !prof !101

5:                                                ; preds = %3
  %6 = icmp ugt i64 %1, 768614336404564650
  br i1 %6, label %7, label %8

7:                                                ; preds = %5
  tail call void @_ZSt28__throw_bad_array_new_lengthv() #29
  unreachable

8:                                                ; preds = %5
  tail call void @_ZSt17__throw_bad_allocv() #29
  unreachable

9:                                                ; preds = %3
  %10 = mul nuw nsw i64 %1, 24
  %11 = tail call noalias nonnull i8* @_Znwm(i64 %10) #30
  %12 = bitcast i8* %11 to %"class.std::vector.0"*
  ret %"class.std::vector.0"* %12
}

; Function Attrs: minsize noreturn optsize
declare void @_ZSt28__throw_bad_array_new_lengthv() local_unnamed_addr #15

; Function Attrs: minsize noreturn optsize
declare void @_ZSt17__throw_bad_allocv() local_unnamed_addr #15

; Function Attrs: minsize nobuiltin optsize allocsize(0)
declare nonnull i8* @_Znwm(i64) local_unnamed_addr #16

; Function Attrs: inlinehint minsize mustprogress nounwind optsize sspstrong uwtable
define linkonce_odr dso_local %"class.std::vector.0"* @_ZSt14__relocate_a_1IPSt6vectorIxSaIxEES3_SaIS2_EET0_T_S6_S5_RT1_(%"class.std::vector.0"* %0, %"class.std::vector.0"* %1, %"class.std::vector.0"* %2, %"class.std::allocator"* nonnull align 1 dereferenceable(1) %3) local_unnamed_addr #17 comdat {
  br label %5

5:                                                ; preds = %9, %4
  %6 = phi %"class.std::vector.0"* [ %0, %4 ], [ %10, %9 ]
  %7 = phi %"class.std::vector.0"* [ %2, %4 ], [ %11, %9 ]
  %8 = icmp eq %"class.std::vector.0"* %6, %1
  br i1 %8, label %12, label %9

9:                                                ; preds = %5
  tail call void @_ZSt19__relocate_object_aISt6vectorIxSaIxEES2_SaIS2_EEvPT_PT0_RT1_(%"class.std::vector.0"* %7, %"class.std::vector.0"* %6, %"class.std::allocator"* nonnull align 1 dereferenceable(1) %3) #26
  %10 = getelementptr inbounds %"class.std::vector.0", %"class.std::vector.0"* %6, i64 1
  %11 = getelementptr inbounds %"class.std::vector.0", %"class.std::vector.0"* %7, i64 1
  br label %5, !llvm.loop !102

12:                                               ; preds = %5
  ret %"class.std::vector.0"* %7
}

; Function Attrs: inlinehint minsize nounwind optsize sspstrong uwtable
define linkonce_odr dso_local void @_ZSt19__relocate_object_aISt6vectorIxSaIxEES2_SaIS2_EEvPT_PT0_RT1_(%"class.std::vector.0"* noalias %0, %"class.std::vector.0"* noalias %1, %"class.std::allocator"* nonnull align 1 dereferenceable(1) %2) local_unnamed_addr #18 comdat personality i32 (...)* @__gxx_personality_v0 {
  %4 = bitcast %"class.std::vector.0"* %1 to <2 x i64*>*
  %5 = load <2 x i64*>, <2 x i64*>* %4, align 8, !tbaa !23
  %6 = bitcast %"class.std::vector.0"* %0 to <2 x i64*>*
  store <2 x i64*> %5, <2 x i64*>* %6, align 8, !tbaa !23
  %7 = getelementptr inbounds %"class.std::vector.0", %"class.std::vector.0"* %0, i64 0, i32 0, i32 0, i32 0, i32 2
  %8 = getelementptr inbounds %"class.std::vector.0", %"class.std::vector.0"* %1, i64 0, i32 0, i32 0, i32 0, i32 2
  %9 = load i64*, i64** %8, align 8, !tbaa !22
  store i64* %9, i64** %7, align 8, !tbaa !22
  %10 = bitcast %"class.std::vector.0"* %1 to i8*
  tail call void @llvm.memset.p0i8.i64(i8* noundef nonnull align 8 dereferenceable(24) %10, i8 0, i64 24, i1 false) #25
  %11 = getelementptr inbounds %"class.std::vector.0", %"class.std::vector.0"* %1, i64 0, i32 0
  tail call void @_ZNSt12_Vector_baseIxSaIxEED2Ev(%"struct.std::_Vector_base.1"* nonnull align 8 dereferenceable(24) %11) #26
  ret void
}

; Function Attrs: minsize optsize sspstrong uwtable
define linkonce_odr dso_local void @_ZNSt12_Destroy_auxILb0EE9__destroyIPSt6vectorIxSaIxEEEEvT_S6_(%"class.std::vector.0"* %0, %"class.std::vector.0"* %1) local_unnamed_addr #5 comdat align 2 personality i32 (...)* @__gxx_personality_v0 {
  br label %3

3:                                                ; preds = %6, %2
  %4 = phi %"class.std::vector.0"* [ %0, %2 ], [ %8, %6 ]
  %5 = icmp eq %"class.std::vector.0"* %4, %1
  br i1 %5, label %9, label %6

6:                                                ; preds = %3
  %7 = getelementptr inbounds %"class.std::vector.0", %"class.std::vector.0"* %4, i64 0, i32 0
  tail call void @_ZNSt12_Vector_baseIxSaIxEED2Ev(%"struct.std::_Vector_base.1"* nonnull align 8 dereferenceable(24) %7) #26
  %8 = getelementptr inbounds %"class.std::vector.0", %"class.std::vector.0"* %4, i64 1
  br label %3, !llvm.loop !103

9:                                                ; preds = %3
  ret void
}

; Function Attrs: minsize optsize sspstrong uwtable
define linkonce_odr dso_local void @_ZNSt6vectorIxSaIxEE17_M_realloc_insertIJRKxEEEvN9__gnu_cxx17__normal_iteratorIPxS1_EEDpOT_(%"class.std::vector.0"* nonnull align 8 dereferenceable(24) %0, i64* %1, i64* nonnull align 8 dereferenceable(8) %2) local_unnamed_addr #5 comdat align 2 {
  %4 = tail call i64 @_ZNKSt6vectorIxSaIxEE12_M_check_lenEmPKc(%"class.std::vector.0"* nonnull align 8 dereferenceable(24) %0, i64 1, i8* getelementptr inbounds ([26 x i8], [26 x i8]* @.str, i64 0, i64 0)) #24
  %5 = getelementptr inbounds %"class.std::vector.0", %"class.std::vector.0"* %0, i64 0, i32 0
  %6 = getelementptr inbounds %"class.std::vector.0", %"class.std::vector.0"* %0, i64 0, i32 0, i32 0, i32 0, i32 0
  %7 = load i64*, i64** %6, align 8, !tbaa !15
  %8 = getelementptr inbounds %"class.std::vector.0", %"class.std::vector.0"* %0, i64 0, i32 0, i32 0, i32 0, i32 1
  %9 = load i64*, i64** %8, align 8, !tbaa !10
  %10 = ptrtoint i64* %1 to i64
  %11 = ptrtoint i64* %7 to i64
  %12 = sub i64 %10, %11
  %13 = ashr exact i64 %12, 3
  %14 = tail call i64* @_ZNSt12_Vector_baseIxSaIxEE11_M_allocateEm(%"struct.std::_Vector_base.1"* nonnull align 8 dereferenceable(24) %5, i64 %4) #24
  %15 = getelementptr inbounds i64, i64* %14, i64 %13
  %16 = load i64, i64* %2, align 8, !tbaa !16
  store i64 %16, i64* %15, align 8, !tbaa !16
  %17 = icmp sgt i64 %12, 0
  br i1 %17, label %18, label %21

18:                                               ; preds = %3
  %19 = bitcast i64* %14 to i8*
  %20 = bitcast i64* %7 to i8*
  tail call void @llvm.memmove.p0i8.p0i8.i64(i8* align 8 %19, i8* align 8 %20, i64 %12, i1 false) #25
  br label %21

21:                                               ; preds = %3, %18
  %22 = getelementptr inbounds i64, i64* %15, i64 1
  %23 = ptrtoint i64* %9 to i64
  %24 = sub i64 %23, %10
  %25 = icmp sgt i64 %24, 0
  br i1 %25, label %26, label %29

26:                                               ; preds = %21
  %27 = bitcast i64* %22 to i8*
  %28 = bitcast i64* %1 to i8*
  tail call void @llvm.memmove.p0i8.p0i8.i64(i8* nonnull align 8 %27, i8* align 8 %28, i64 %24, i1 false) #25
  br label %29

29:                                               ; preds = %21, %26
  %30 = icmp eq i64* %7, null
  br i1 %30, label %33, label %31

31:                                               ; preds = %29
  %32 = bitcast i64* %7 to i8*
  tail call void @_ZdlPv(i8* nonnull %32) #26
  br label %33

33:                                               ; preds = %29, %31
  %34 = getelementptr inbounds %"class.std::vector.0", %"class.std::vector.0"* %0, i64 0, i32 0, i32 0, i32 0, i32 2
  %35 = ashr exact i64 %24, 3
  %36 = getelementptr inbounds i64, i64* %22, i64 %35
  store i64* %14, i64** %6, align 8, !tbaa !15
  store i64* %36, i64** %8, align 8, !tbaa !10
  %37 = getelementptr inbounds i64, i64* %14, i64 %4
  store i64* %37, i64** %34, align 8, !tbaa !22
  ret void
}

; Function Attrs: minsize mustprogress optsize sspstrong uwtable
define linkonce_odr dso_local i64 @_ZNKSt6vectorIxSaIxEE12_M_check_lenEmPKc(%"class.std::vector.0"* nonnull align 8 dereferenceable(24) %0, i64 %1, i8* %2) local_unnamed_addr #14 comdat align 2 {
  %4 = getelementptr inbounds %"class.std::vector.0", %"class.std::vector.0"* %0, i64 0, i32 0, i32 0, i32 0, i32 1
  %5 = load i64*, i64** %4, align 8, !tbaa !10
  %6 = getelementptr inbounds %"class.std::vector.0", %"class.std::vector.0"* %0, i64 0, i32 0, i32 0, i32 0, i32 0
  %7 = load i64*, i64** %6, align 8, !tbaa !15
  %8 = ptrtoint i64* %5 to i64
  %9 = ptrtoint i64* %7 to i64
  %10 = sub i64 %8, %9
  %11 = ashr exact i64 %10, 3
  %12 = sub nsw i64 1152921504606846975, %11
  %13 = icmp ult i64 %12, %1
  br i1 %13, label %14, label %15

14:                                               ; preds = %3
  tail call void @_ZSt20__throw_length_errorPKc(i8* %2) #29
  unreachable

15:                                               ; preds = %3
  %16 = icmp ult i64 %11, %1
  %17 = select i1 %16, i64 %1, i64 %11
  %18 = add i64 %17, %11
  %19 = icmp ult i64 %18, %11
  %20 = icmp ugt i64 %18, 1152921504606846975
  %21 = or i1 %19, %20
  %22 = select i1 %21, i64 1152921504606846975, i64 %18
  ret i64 %22
}

; Function Attrs: minsize mustprogress optsize sspstrong uwtable
define linkonce_odr dso_local i64* @_ZNSt12_Vector_baseIxSaIxEE11_M_allocateEm(%"struct.std::_Vector_base.1"* nonnull align 8 dereferenceable(24) %0, i64 %1) local_unnamed_addr #14 comdat align 2 {
  %3 = icmp eq i64 %1, 0
  br i1 %3, label %7, label %4

4:                                                ; preds = %2
  %5 = bitcast %"struct.std::_Vector_base.1"* %0 to %"class.std::allocator.2"*
  %6 = tail call i64* @_ZNSt16allocator_traitsISaIxEE8allocateERS0_m(%"class.std::allocator.2"* nonnull align 1 dereferenceable(1) %5, i64 %1) #24
  br label %7

7:                                                ; preds = %2, %4
  %8 = phi i64* [ %6, %4 ], [ null, %2 ]
  ret i64* %8
}

; Function Attrs: minsize mustprogress optsize sspstrong uwtable
define linkonce_odr dso_local i64* @_ZNSt16allocator_traitsISaIxEE8allocateERS0_m(%"class.std::allocator.2"* nonnull align 1 dereferenceable(1) %0, i64 %1) local_unnamed_addr #14 comdat align 2 {
  %3 = bitcast %"class.std::allocator.2"* %0 to %"class.__gnu_cxx::new_allocator.3"*
  %4 = tail call i64* @_ZN9__gnu_cxx13new_allocatorIxE8allocateEmPKv(%"class.__gnu_cxx::new_allocator.3"* nonnull align 1 dereferenceable(1) %3, i64 %1, i8* null) #24
  ret i64* %4
}

; Function Attrs: minsize mustprogress optsize sspstrong uwtable
define linkonce_odr dso_local i64* @_ZN9__gnu_cxx13new_allocatorIxE8allocateEmPKv(%"class.__gnu_cxx::new_allocator.3"* nonnull align 1 dereferenceable(1) %0, i64 %1, i8* %2) local_unnamed_addr #14 comdat align 2 {
  %4 = icmp ugt i64 %1, 1152921504606846975
  br i1 %4, label %5, label %9, !prof !101

5:                                                ; preds = %3
  %6 = icmp ugt i64 %1, 2305843009213693951
  br i1 %6, label %7, label %8

7:                                                ; preds = %5
  tail call void @_ZSt28__throw_bad_array_new_lengthv() #29
  unreachable

8:                                                ; preds = %5
  tail call void @_ZSt17__throw_bad_allocv() #29
  unreachable

9:                                                ; preds = %3
  %10 = shl nuw nsw i64 %1, 3
  %11 = tail call noalias nonnull i8* @_Znwm(i64 %10) #30
  %12 = bitcast i8* %11 to i64*
  ret i64* %12
}

; Function Attrs: argmemonly mustprogress nofree nounwind willreturn
declare void @llvm.memmove.p0i8.p0i8.i64(i8* nocapture writeonly, i8* nocapture readonly, i64, i1 immarg) #6

; Function Attrs: minsize nounwind optsize sspstrong uwtable
define linkonce_odr dso_local void @_ZNSt12_Vector_baseIxSaIxEED2Ev(%"struct.std::_Vector_base.1"* nonnull align 8 dereferenceable(24) %0) unnamed_addr #7 comdat align 2 personality i8* bitcast (i32 (...)* @__gxx_personality_v0 to i8*) {
  %2 = getelementptr inbounds %"struct.std::_Vector_base.1", %"struct.std::_Vector_base.1"* %0, i64 0, i32 0, i32 0, i32 0
  %3 = load i64*, i64** %2, align 8, !tbaa !15
  %4 = icmp eq i64* %3, null
  br i1 %4, label %7, label %5

5:                                                ; preds = %1
  %6 = bitcast i64* %3 to i8*
  tail call void @_ZdlPv(i8* nonnull %6) #26
  br label %7

7:                                                ; preds = %5, %1
  ret void
}

; Function Attrs: minsize mustprogress optsize sspstrong uwtable
define linkonce_odr dso_local void @_ZNSt12_Vector_baseIxSaIxEE17_M_create_storageEm(%"struct.std::_Vector_base.1"* nonnull align 8 dereferenceable(24) %0, i64 %1) local_unnamed_addr #14 comdat align 2 {
  %3 = tail call i64* @_ZNSt12_Vector_baseIxSaIxEE11_M_allocateEm(%"struct.std::_Vector_base.1"* nonnull align 8 dereferenceable(24) %0, i64 %1) #24
  %4 = getelementptr inbounds %"struct.std::_Vector_base.1", %"struct.std::_Vector_base.1"* %0, i64 0, i32 0, i32 0, i32 0
  store i64* %3, i64** %4, align 8, !tbaa !15
  %5 = getelementptr inbounds %"struct.std::_Vector_base.1", %"struct.std::_Vector_base.1"* %0, i64 0, i32 0, i32 0, i32 1
  store i64* %3, i64** %5, align 8, !tbaa !10
  %6 = getelementptr inbounds i64, i64* %3, i64 %1
  %7 = getelementptr inbounds %"struct.std::_Vector_base.1", %"struct.std::_Vector_base.1"* %0, i64 0, i32 0, i32 0, i32 2
  store i64* %6, i64** %7, align 8, !tbaa !22
  ret void
}

; Function Attrs: argmemonly mustprogress nofree nounwind willreturn writeonly
declare void @llvm.memset.p0i8.i64(i8* nocapture writeonly, i8, i64, i1 immarg) #19

; Function Attrs: minsize optsize sspstrong uwtable
define linkonce_odr dso_local void @_ZNSt11_Deque_baseISt4pairIiiESaIS1_EEC2Ev(%"class.std::_Deque_base"* nonnull align 8 dereferenceable(80) %0) unnamed_addr #5 comdat align 2 personality i8* bitcast (i32 (...)* @__gxx_personality_v0 to i8*) {
  %2 = bitcast %"class.std::_Deque_base"* %0 to i8*
  tail call void @llvm.memset.p0i8.i64(i8* noundef nonnull align 8 dereferenceable(80) %2, i8 0, i64 80, i1 false) #25
  tail call void @_ZNSt11_Deque_baseISt4pairIiiESaIS1_EE17_M_initialize_mapEm(%"class.std::_Deque_base"* nonnull align 8 dereferenceable(80) %0, i64 0) #24
  ret void
}

; Function Attrs: minsize optsize sspstrong uwtable
define linkonce_odr dso_local void @_ZNSt11_Deque_baseISt4pairIiiESaIS1_EE17_M_initialize_mapEm(%"class.std::_Deque_base"* nonnull align 8 dereferenceable(80) %0, i64 %1) local_unnamed_addr #5 comdat align 2 personality i8* bitcast (i32 (...)* @__gxx_personality_v0 to i8*) {
  %3 = lshr i64 %1, 6
  %4 = add nuw nsw i64 %3, 1
  %5 = icmp ugt i64 %3, 5
  %6 = select i1 %5, i64 %3, i64 5
  %7 = add nuw nsw i64 %6, 3
  %8 = getelementptr inbounds %"class.std::_Deque_base", %"class.std::_Deque_base"* %0, i64 0, i32 0, i32 0, i32 1
  store i64 %7, i64* %8, align 8, !tbaa !104
  %9 = tail call %"struct.std::pair"** @_ZNSt11_Deque_baseISt4pairIiiESaIS1_EE15_M_allocate_mapEm(%"class.std::_Deque_base"* nonnull align 8 dereferenceable(80) %0, i64 %7) #24
  %10 = getelementptr inbounds %"class.std::_Deque_base", %"class.std::_Deque_base"* %0, i64 0, i32 0, i32 0, i32 0
  store %"struct.std::pair"** %9, %"struct.std::pair"*** %10, align 8, !tbaa !93
  %11 = load i64, i64* %8, align 8, !tbaa !104
  %12 = sub i64 %11, %4
  %13 = lshr i64 %12, 1
  %14 = getelementptr inbounds %"struct.std::pair"*, %"struct.std::pair"** %9, i64 %13
  %15 = getelementptr inbounds %"struct.std::pair"*, %"struct.std::pair"** %14, i64 %4
  invoke void @_ZNSt11_Deque_baseISt4pairIiiESaIS1_EE15_M_create_nodesEPPS1_S5_(%"class.std::_Deque_base"* nonnull align 8 dereferenceable(80) %0, %"struct.std::pair"** %14, %"struct.std::pair"** nonnull %15) #24
          to label %26 unwind label %16

16:                                               ; preds = %2
  %17 = landingpad { i8*, i32 }
          catch i8* null
  %18 = extractvalue { i8*, i32 } %17, 0
  %19 = tail call i8* @__cxa_begin_catch(i8* %18) #25
  %20 = bitcast %"class.std::_Deque_base"* %0 to i8**
  %21 = load i8*, i8** %20, align 8, !tbaa !93
  tail call void @_ZdlPv(i8* %21) #26
  %22 = bitcast %"class.std::_Deque_base"* %0 to i8*
  call void @llvm.memset.p0i8.i64(i8* noundef nonnull align 8 dereferenceable(16) %22, i8 0, i64 16, i1 false)
  invoke void @__cxa_rethrow() #28
          to label %45 unwind label %23

23:                                               ; preds = %16
  %24 = landingpad { i8*, i32 }
          cleanup
  invoke void @__cxa_end_catch()
          to label %25 unwind label %42

25:                                               ; preds = %23
  resume { i8*, i32 } %24

26:                                               ; preds = %2
  %27 = getelementptr inbounds %"class.std::_Deque_base", %"class.std::_Deque_base"* %0, i64 0, i32 0, i32 0, i32 2, i32 3
  store %"struct.std::pair"** %14, %"struct.std::pair"*** %27, align 8, !tbaa !105
  %28 = load %"struct.std::pair"*, %"struct.std::pair"** %14, align 8, !tbaa !23
  %29 = getelementptr inbounds %"class.std::_Deque_base", %"class.std::_Deque_base"* %0, i64 0, i32 0, i32 0, i32 2, i32 1
  store %"struct.std::pair"* %28, %"struct.std::pair"** %29, align 8, !tbaa !106
  %30 = getelementptr inbounds %"struct.std::pair", %"struct.std::pair"* %28, i64 64
  %31 = getelementptr inbounds %"class.std::_Deque_base", %"class.std::_Deque_base"* %0, i64 0, i32 0, i32 0, i32 2, i32 2
  store %"struct.std::pair"* %30, %"struct.std::pair"** %31, align 8, !tbaa !107
  %32 = getelementptr inbounds %"struct.std::pair"*, %"struct.std::pair"** %15, i64 -1
  %33 = getelementptr inbounds %"class.std::_Deque_base", %"class.std::_Deque_base"* %0, i64 0, i32 0, i32 0, i32 3, i32 3
  store %"struct.std::pair"** %32, %"struct.std::pair"*** %33, align 8, !tbaa !105
  %34 = load %"struct.std::pair"*, %"struct.std::pair"** %32, align 8, !tbaa !23
  %35 = getelementptr inbounds %"class.std::_Deque_base", %"class.std::_Deque_base"* %0, i64 0, i32 0, i32 0, i32 3, i32 1
  store %"struct.std::pair"* %34, %"struct.std::pair"** %35, align 8, !tbaa !106
  %36 = getelementptr inbounds %"struct.std::pair", %"struct.std::pair"* %34, i64 64
  %37 = getelementptr inbounds %"class.std::_Deque_base", %"class.std::_Deque_base"* %0, i64 0, i32 0, i32 0, i32 3, i32 2
  store %"struct.std::pair"* %36, %"struct.std::pair"** %37, align 8, !tbaa !107
  %38 = getelementptr inbounds %"class.std::_Deque_base", %"class.std::_Deque_base"* %0, i64 0, i32 0, i32 0, i32 2, i32 0
  store %"struct.std::pair"* %28, %"struct.std::pair"** %38, align 8, !tbaa !108
  %39 = and i64 %1, 63
  %40 = getelementptr inbounds %"struct.std::pair", %"struct.std::pair"* %34, i64 %39
  %41 = getelementptr inbounds %"class.std::_Deque_base", %"class.std::_Deque_base"* %0, i64 0, i32 0, i32 0, i32 3, i32 0
  store %"struct.std::pair"* %40, %"struct.std::pair"** %41, align 8, !tbaa !109
  ret void

42:                                               ; preds = %23
  %43 = landingpad { i8*, i32 }
          catch i8* null
  %44 = extractvalue { i8*, i32 } %43, 0
  tail call void @__clang_call_terminate(i8* %44) #27
  unreachable

45:                                               ; preds = %16
  unreachable
}

; Function Attrs: minsize optsize sspstrong uwtable
define linkonce_odr dso_local %"struct.std::pair"** @_ZNSt11_Deque_baseISt4pairIiiESaIS1_EE15_M_allocate_mapEm(%"class.std::_Deque_base"* nonnull align 8 dereferenceable(80) %0, i64 %1) local_unnamed_addr #5 comdat align 2 personality i8* bitcast (i32 (...)* @__gxx_personality_v0 to i8*) {
  %3 = alloca %"class.std::allocator.46", align 1
  %4 = getelementptr inbounds %"class.std::allocator.46", %"class.std::allocator.46"* %3, i64 0, i32 0
  call void @llvm.lifetime.start.p0i8(i64 1, i8* nonnull %4) #25
  %5 = call %"struct.std::pair"** @_ZNSt16allocator_traitsISaIPSt4pairIiiEEE8allocateERS3_m(%"class.std::allocator.46"* nonnull align 1 dereferenceable(1) %3, i64 %1) #24
  call void @llvm.lifetime.end.p0i8(i64 1, i8* nonnull %4) #25
  ret %"struct.std::pair"** %5
}

; Function Attrs: minsize mustprogress optsize sspstrong uwtable
define linkonce_odr dso_local void @_ZNSt11_Deque_baseISt4pairIiiESaIS1_EE15_M_create_nodesEPPS1_S5_(%"class.std::_Deque_base"* nonnull align 8 dereferenceable(80) %0, %"struct.std::pair"** %1, %"struct.std::pair"** %2) local_unnamed_addr #14 comdat align 2 personality i8* bitcast (i32 (...)* @__gxx_personality_v0 to i8*) {
  br label %4

4:                                                ; preds = %9, %3
  %5 = phi %"struct.std::pair"** [ %1, %3 ], [ %10, %9 ]
  %6 = icmp ult %"struct.std::pair"** %5, %2
  br i1 %6, label %7, label %18

7:                                                ; preds = %4
  %8 = invoke %"struct.std::pair"* @_ZNSt11_Deque_baseISt4pairIiiESaIS1_EE16_M_allocate_nodeEv(%"class.std::_Deque_base"* nonnull align 8 dereferenceable(80) %0) #24
          to label %9 unwind label %11

9:                                                ; preds = %7
  store %"struct.std::pair"* %8, %"struct.std::pair"** %5, align 8, !tbaa !23
  %10 = getelementptr inbounds %"struct.std::pair"*, %"struct.std::pair"** %5, i64 1
  br label %4, !llvm.loop !110

11:                                               ; preds = %7
  %12 = landingpad { i8*, i32 }
          catch i8* null
  %13 = extractvalue { i8*, i32 } %12, 0
  %14 = tail call i8* @__cxa_begin_catch(i8* %13) #25
  tail call void @_ZNSt11_Deque_baseISt4pairIiiESaIS1_EE16_M_destroy_nodesEPPS1_S5_(%"class.std::_Deque_base"* nonnull align 8 dereferenceable(80) %0, %"struct.std::pair"** %1, %"struct.std::pair"** %5) #26
  invoke void @__cxa_rethrow() #28
          to label %22 unwind label %15

15:                                               ; preds = %11
  %16 = landingpad { i8*, i32 }
          cleanup
  invoke void @__cxa_end_catch()
          to label %17 unwind label %19

17:                                               ; preds = %15
  resume { i8*, i32 } %16

18:                                               ; preds = %4
  ret void

19:                                               ; preds = %15
  %20 = landingpad { i8*, i32 }
          catch i8* null
  %21 = extractvalue { i8*, i32 } %20, 0
  tail call void @__clang_call_terminate(i8* %21) #27
  unreachable

22:                                               ; preds = %11
  unreachable
}

; Function Attrs: minsize mustprogress optsize sspstrong uwtable
define linkonce_odr dso_local %"struct.std::pair"** @_ZNSt16allocator_traitsISaIPSt4pairIiiEEE8allocateERS3_m(%"class.std::allocator.46"* nonnull align 1 dereferenceable(1) %0, i64 %1) local_unnamed_addr #14 comdat align 2 {
  %3 = bitcast %"class.std::allocator.46"* %0 to %"class.__gnu_cxx::new_allocator.47"*
  %4 = tail call %"struct.std::pair"** @_ZN9__gnu_cxx13new_allocatorIPSt4pairIiiEE8allocateEmPKv(%"class.__gnu_cxx::new_allocator.47"* nonnull align 1 dereferenceable(1) %3, i64 %1, i8* null) #24
  ret %"struct.std::pair"** %4
}

; Function Attrs: minsize mustprogress optsize sspstrong uwtable
define linkonce_odr dso_local %"struct.std::pair"** @_ZN9__gnu_cxx13new_allocatorIPSt4pairIiiEE8allocateEmPKv(%"class.__gnu_cxx::new_allocator.47"* nonnull align 1 dereferenceable(1) %0, i64 %1, i8* %2) local_unnamed_addr #14 comdat align 2 {
  %4 = icmp ugt i64 %1, 1152921504606846975
  br i1 %4, label %5, label %9, !prof !101

5:                                                ; preds = %3
  %6 = icmp ugt i64 %1, 2305843009213693951
  br i1 %6, label %7, label %8

7:                                                ; preds = %5
  tail call void @_ZSt28__throw_bad_array_new_lengthv() #29
  unreachable

8:                                                ; preds = %5
  tail call void @_ZSt17__throw_bad_allocv() #29
  unreachable

9:                                                ; preds = %3
  %10 = shl nuw nsw i64 %1, 3
  %11 = tail call noalias nonnull i8* @_Znwm(i64 %10) #30
  %12 = bitcast i8* %11 to %"struct.std::pair"**
  ret %"struct.std::pair"** %12
}

; Function Attrs: minsize mustprogress optsize sspstrong uwtable
define linkonce_odr dso_local %"struct.std::pair"* @_ZNSt11_Deque_baseISt4pairIiiESaIS1_EE16_M_allocate_nodeEv(%"class.std::_Deque_base"* nonnull align 8 dereferenceable(80) %0) local_unnamed_addr #14 comdat align 2 {
  %2 = bitcast %"class.std::_Deque_base"* %0 to %"class.std::allocator.15"*
  %3 = tail call %"struct.std::pair"* @_ZNSt16allocator_traitsISaISt4pairIiiEEE8allocateERS2_m(%"class.std::allocator.15"* nonnull align 1 dereferenceable(1) %2, i64 64) #24
  ret %"struct.std::pair"* %3
}

; Function Attrs: minsize mustprogress optsize sspstrong uwtable
define linkonce_odr dso_local %"struct.std::pair"* @_ZNSt16allocator_traitsISaISt4pairIiiEEE8allocateERS2_m(%"class.std::allocator.15"* nonnull align 1 dereferenceable(1) %0, i64 %1) local_unnamed_addr #14 comdat align 2 {
  %3 = bitcast %"class.std::allocator.15"* %0 to %"class.__gnu_cxx::new_allocator.16"*
  %4 = tail call %"struct.std::pair"* @_ZN9__gnu_cxx13new_allocatorISt4pairIiiEE8allocateEmPKv(%"class.__gnu_cxx::new_allocator.16"* nonnull align 1 dereferenceable(1) %3, i64 %1, i8* null) #24
  ret %"struct.std::pair"* %4
}

; Function Attrs: minsize mustprogress optsize sspstrong uwtable
define linkonce_odr dso_local %"struct.std::pair"* @_ZN9__gnu_cxx13new_allocatorISt4pairIiiEE8allocateEmPKv(%"class.__gnu_cxx::new_allocator.16"* nonnull align 1 dereferenceable(1) %0, i64 %1, i8* %2) local_unnamed_addr #14 comdat align 2 {
  %4 = icmp ugt i64 %1, 1152921504606846975
  br i1 %4, label %5, label %9, !prof !101

5:                                                ; preds = %3
  %6 = icmp ugt i64 %1, 2305843009213693951
  br i1 %6, label %7, label %8

7:                                                ; preds = %5
  tail call void @_ZSt28__throw_bad_array_new_lengthv() #29
  unreachable

8:                                                ; preds = %5
  tail call void @_ZSt17__throw_bad_allocv() #29
  unreachable

9:                                                ; preds = %3
  %10 = shl nuw nsw i64 %1, 3
  %11 = tail call noalias nonnull i8* @_Znwm(i64 %10) #30
  %12 = bitcast i8* %11 to %"struct.std::pair"*
  ret %"struct.std::pair"* %12
}

; Function Attrs: minsize nounwind optsize sspstrong uwtable
define linkonce_odr dso_local void @_ZNSt12_Vector_baseISt6vectorIxSaIxEESaIS2_EED2Ev(%"struct.std::_Vector_base"* nonnull align 8 dereferenceable(24) %0) unnamed_addr #7 comdat align 2 personality i8* bitcast (i32 (...)* @__gxx_personality_v0 to i8*) {
  %2 = getelementptr inbounds %"struct.std::_Vector_base", %"struct.std::_Vector_base"* %0, i64 0, i32 0, i32 0, i32 0
  %3 = load %"class.std::vector.0"*, %"class.std::vector.0"** %2, align 8, !tbaa !37
  %4 = icmp eq %"class.std::vector.0"* %3, null
  br i1 %4, label %7, label %5

5:                                                ; preds = %1
  %6 = bitcast %"class.std::vector.0"* %3 to i8*
  tail call void @_ZdlPv(i8* nonnull %6) #26
  br label %7

7:                                                ; preds = %5, %1
  ret void
}

; Function Attrs: minsize optsize sspstrong uwtable
define linkonce_odr dso_local i64 @_ZNSt6vectorIxSaIxEE17_S_check_init_lenEmRKS0_(i64 %0, %"class.std::allocator.2"* nonnull align 1 dereferenceable(1) %1) local_unnamed_addr #5 comdat align 2 {
  %3 = icmp ugt i64 %0, 1152921504606846975
  br i1 %3, label %4, label %5

4:                                                ; preds = %2
  tail call void @_ZSt20__throw_length_errorPKc(i8* getelementptr inbounds ([49 x i8], [49 x i8]* @.str.2, i64 0, i64 0)) #29
  unreachable

5:                                                ; preds = %2
  ret i64 %0
}

; Function Attrs: minsize mustprogress optsize sspstrong uwtable
define linkonce_odr dso_local void @_ZNSt6vectorIxSaIxEE21_M_default_initializeEm(%"class.std::vector.0"* nonnull align 8 dereferenceable(24) %0, i64 %1) local_unnamed_addr #14 comdat align 2 {
  %3 = getelementptr inbounds %"class.std::vector.0", %"class.std::vector.0"* %0, i64 0, i32 0, i32 0, i32 0, i32 0
  %4 = load i64*, i64** %3, align 8, !tbaa !15
  %5 = tail call i64* @_ZNSt27__uninitialized_default_n_1ILb1EE18__uninit_default_nIPxmEET_S3_T0_(i64* %4, i64 %1) #24
  %6 = getelementptr inbounds %"class.std::vector.0", %"class.std::vector.0"* %0, i64 0, i32 0, i32 0, i32 0, i32 1
  store i64* %5, i64** %6, align 8, !tbaa !10
  ret void
}

; Function Attrs: minsize mustprogress optsize sspstrong uwtable
define linkonce_odr dso_local i64* @_ZNSt27__uninitialized_default_n_1ILb1EE18__uninit_default_nIPxmEET_S3_T0_(i64* %0, i64 %1) local_unnamed_addr #14 comdat align 2 {
  %3 = icmp eq i64 %1, 0
  br i1 %3, label %8, label %4

4:                                                ; preds = %2
  store i64 0, i64* %0, align 8, !tbaa !16
  %5 = getelementptr inbounds i64, i64* %0, i64 1
  %6 = add i64 %1, -1
  %7 = tail call i64* @_ZSt10__fill_n_aIPxmxET_S1_T0_RKT1_St26random_access_iterator_tag(i64* nonnull %5, i64 %6, i64* nonnull align 8 dereferenceable(8) %0) #24
  br label %8

8:                                                ; preds = %4, %2
  %9 = phi i64* [ %7, %4 ], [ %0, %2 ]
  ret i64* %9
}

; Function Attrs: inlinehint minsize mustprogress optsize sspstrong uwtable
define linkonce_odr dso_local i64* @_ZSt10__fill_n_aIPxmxET_S1_T0_RKT1_St26random_access_iterator_tag(i64* %0, i64 %1, i64* nonnull align 8 dereferenceable(8) %2) local_unnamed_addr #10 comdat {
  %4 = icmp eq i64 %1, 0
  br i1 %4, label %13, label %5

5:                                                ; preds = %3
  %6 = getelementptr inbounds i64, i64* %0, i64 %1
  %7 = load i64, i64* %2, align 8, !tbaa !16
  br label %8

8:                                                ; preds = %11, %5
  %9 = phi i64* [ %0, %5 ], [ %12, %11 ]
  %10 = icmp eq i64* %9, %6
  br i1 %10, label %13, label %11

11:                                               ; preds = %8
  store i64 %7, i64* %9, align 8, !tbaa !16
  %12 = getelementptr inbounds i64, i64* %9, i64 1
  br label %8, !llvm.loop !111

13:                                               ; preds = %8, %3
  %14 = phi i64* [ %0, %3 ], [ %6, %8 ]
  ret i64* %14
}

; Function Attrs: minsize mustprogress optsize sspstrong uwtable
define linkonce_odr dso_local void @_ZNSt5dequeISt4pairIiiESaIS1_EE12emplace_backIJS1_EEEvDpOT_(%"class.std::deque"* nonnull align 8 dereferenceable(80) %0, %"struct.std::pair"* nonnull align 4 dereferenceable(8) %1) local_unnamed_addr #14 comdat align 2 {
  %3 = getelementptr inbounds %"class.std::deque", %"class.std::deque"* %0, i64 0, i32 0, i32 0, i32 0, i32 3, i32 0
  %4 = load %"struct.std::pair"*, %"struct.std::pair"** %3, align 8, !tbaa !109
  %5 = getelementptr inbounds %"class.std::deque", %"class.std::deque"* %0, i64 0, i32 0, i32 0, i32 0, i32 3, i32 2
  %6 = load %"struct.std::pair"*, %"struct.std::pair"** %5, align 8, !tbaa !112
  %7 = getelementptr inbounds %"struct.std::pair", %"struct.std::pair"* %6, i64 -1
  %8 = icmp eq %"struct.std::pair"* %4, %7
  br i1 %8, label %15, label %9

9:                                                ; preds = %2
  %10 = bitcast %"struct.std::pair"* %1 to i64*
  %11 = bitcast %"struct.std::pair"* %4 to i64*
  %12 = load i64, i64* %10, align 4
  store i64 %12, i64* %11, align 4
  %13 = load %"struct.std::pair"*, %"struct.std::pair"** %3, align 8, !tbaa !109
  %14 = getelementptr inbounds %"struct.std::pair", %"struct.std::pair"* %13, i64 1
  store %"struct.std::pair"* %14, %"struct.std::pair"** %3, align 8, !tbaa !109
  br label %16

15:                                               ; preds = %2
  tail call void @_ZNSt5dequeISt4pairIiiESaIS1_EE16_M_push_back_auxIJS1_EEEvDpOT_(%"class.std::deque"* nonnull align 8 dereferenceable(80) %0, %"struct.std::pair"* nonnull align 4 dereferenceable(8) %1) #24
  br label %16

16:                                               ; preds = %15, %9
  ret void
}

; Function Attrs: minsize mustprogress optsize sspstrong uwtable
define linkonce_odr dso_local void @_ZNSt5dequeISt4pairIiiESaIS1_EE16_M_push_back_auxIJS1_EEEvDpOT_(%"class.std::deque"* nonnull align 8 dereferenceable(80) %0, %"struct.std::pair"* nonnull align 4 dereferenceable(8) %1) local_unnamed_addr #14 comdat align 2 {
  %3 = tail call i64 @_ZNKSt5dequeISt4pairIiiESaIS1_EE4sizeEv(%"class.std::deque"* nonnull align 8 dereferenceable(80) %0) #26
  %4 = icmp eq i64 %3, 1152921504606846975
  br i1 %4, label %5, label %6

5:                                                ; preds = %2
  tail call void @_ZSt20__throw_length_errorPKc(i8* getelementptr inbounds ([48 x i8], [48 x i8]* @.str.3, i64 0, i64 0)) #29
  unreachable

6:                                                ; preds = %2
  tail call void @_ZNSt5dequeISt4pairIiiESaIS1_EE22_M_reserve_map_at_backEm(%"class.std::deque"* nonnull align 8 dereferenceable(80) %0, i64 1) #24
  %7 = getelementptr inbounds %"class.std::deque", %"class.std::deque"* %0, i64 0, i32 0
  %8 = tail call %"struct.std::pair"* @_ZNSt11_Deque_baseISt4pairIiiESaIS1_EE16_M_allocate_nodeEv(%"class.std::_Deque_base"* nonnull align 8 dereferenceable(80) %7) #24
  %9 = getelementptr inbounds %"class.std::deque", %"class.std::deque"* %0, i64 0, i32 0, i32 0, i32 0, i32 3
  %10 = getelementptr inbounds %"class.std::deque", %"class.std::deque"* %0, i64 0, i32 0, i32 0, i32 0, i32 3, i32 3
  %11 = load %"struct.std::pair"**, %"struct.std::pair"*** %10, align 8, !tbaa !96
  %12 = getelementptr inbounds %"struct.std::pair"*, %"struct.std::pair"** %11, i64 1
  store %"struct.std::pair"* %8, %"struct.std::pair"** %12, align 8, !tbaa !23
  %13 = getelementptr inbounds %"struct.std::_Deque_iterator", %"struct.std::_Deque_iterator"* %9, i64 0, i32 0
  %14 = bitcast %"struct.std::_Deque_iterator"* %9 to i64**
  %15 = load i64*, i64** %14, align 8, !tbaa !109
  %16 = bitcast %"struct.std::pair"* %1 to i64*
  %17 = load i64, i64* %16, align 4
  store i64 %17, i64* %15, align 4
  %18 = load %"struct.std::pair"**, %"struct.std::pair"*** %10, align 8, !tbaa !96
  %19 = getelementptr inbounds %"struct.std::pair"*, %"struct.std::pair"** %18, i64 1
  store %"struct.std::pair"** %19, %"struct.std::pair"*** %10, align 8, !tbaa !105
  %20 = load %"struct.std::pair"*, %"struct.std::pair"** %19, align 8, !tbaa !23
  %21 = getelementptr inbounds %"class.std::deque", %"class.std::deque"* %0, i64 0, i32 0, i32 0, i32 0, i32 3, i32 1
  store %"struct.std::pair"* %20, %"struct.std::pair"** %21, align 8, !tbaa !106
  %22 = getelementptr inbounds %"struct.std::pair", %"struct.std::pair"* %20, i64 64
  %23 = getelementptr inbounds %"class.std::deque", %"class.std::deque"* %0, i64 0, i32 0, i32 0, i32 0, i32 3, i32 2
  store %"struct.std::pair"* %22, %"struct.std::pair"** %23, align 8, !tbaa !107
  store %"struct.std::pair"* %20, %"struct.std::pair"** %13, align 8, !tbaa !109
  ret void
}

; Function Attrs: minsize mustprogress nounwind optsize sspstrong uwtable
define linkonce_odr dso_local i64 @_ZNKSt5dequeISt4pairIiiESaIS1_EE4sizeEv(%"class.std::deque"* nonnull align 8 dereferenceable(80) %0) local_unnamed_addr #12 comdat align 2 {
  %2 = getelementptr inbounds %"class.std::deque", %"class.std::deque"* %0, i64 0, i32 0, i32 0, i32 0, i32 3
  %3 = getelementptr inbounds %"class.std::deque", %"class.std::deque"* %0, i64 0, i32 0, i32 0, i32 0, i32 2
  %4 = tail call i64 @_ZStmiRKSt15_Deque_iteratorISt4pairIiiERS1_PS1_ES6_(%"struct.std::_Deque_iterator"* nonnull align 8 dereferenceable(32) %2, %"struct.std::_Deque_iterator"* nonnull align 8 dereferenceable(32) %3) #26
  ret i64 %4
}

; Function Attrs: minsize mustprogress optsize sspstrong uwtable
define linkonce_odr dso_local void @_ZNSt5dequeISt4pairIiiESaIS1_EE22_M_reserve_map_at_backEm(%"class.std::deque"* nonnull align 8 dereferenceable(80) %0, i64 %1) local_unnamed_addr #14 comdat align 2 {
  %3 = add i64 %1, 1
  %4 = getelementptr inbounds %"class.std::deque", %"class.std::deque"* %0, i64 0, i32 0, i32 0, i32 0, i32 1
  %5 = load i64, i64* %4, align 8, !tbaa !104
  %6 = getelementptr inbounds %"class.std::deque", %"class.std::deque"* %0, i64 0, i32 0, i32 0, i32 0, i32 3, i32 3
  %7 = load %"struct.std::pair"**, %"struct.std::pair"*** %6, align 8, !tbaa !96
  %8 = getelementptr inbounds %"class.std::deque", %"class.std::deque"* %0, i64 0, i32 0, i32 0, i32 0, i32 0
  %9 = load %"struct.std::pair"**, %"struct.std::pair"*** %8, align 8, !tbaa !93
  %10 = ptrtoint %"struct.std::pair"** %7 to i64
  %11 = ptrtoint %"struct.std::pair"** %9 to i64
  %12 = sub i64 %10, %11
  %13 = ashr exact i64 %12, 3
  %14 = sub i64 %5, %13
  %15 = icmp ugt i64 %3, %14
  br i1 %15, label %16, label %17

16:                                               ; preds = %2
  tail call void @_ZNSt5dequeISt4pairIiiESaIS1_EE17_M_reallocate_mapEmb(%"class.std::deque"* nonnull align 8 dereferenceable(80) %0, i64 %1, i1 zeroext false) #24
  br label %17

17:                                               ; preds = %16, %2
  ret void
}

; Function Attrs: minsize mustprogress nounwind optsize sspstrong uwtable
define linkonce_odr dso_local i64 @_ZStmiRKSt15_Deque_iteratorISt4pairIiiERS1_PS1_ES6_(%"struct.std::_Deque_iterator"* nonnull align 8 dereferenceable(32) %0, %"struct.std::_Deque_iterator"* nonnull align 8 dereferenceable(32) %1) local_unnamed_addr #12 comdat {
  %3 = getelementptr inbounds %"struct.std::_Deque_iterator", %"struct.std::_Deque_iterator"* %0, i64 0, i32 3
  %4 = load %"struct.std::pair"**, %"struct.std::pair"*** %3, align 8, !tbaa !105
  %5 = getelementptr inbounds %"struct.std::_Deque_iterator", %"struct.std::_Deque_iterator"* %1, i64 0, i32 3
  %6 = load %"struct.std::pair"**, %"struct.std::pair"*** %5, align 8, !tbaa !105
  %7 = ptrtoint %"struct.std::pair"** %4 to i64
  %8 = ptrtoint %"struct.std::pair"** %6 to i64
  %9 = sub i64 %7, %8
  %10 = ashr exact i64 %9, 3
  %11 = icmp ne %"struct.std::pair"** %4, null
  %12 = sext i1 %11 to i64
  %13 = add nsw i64 %10, %12
  %14 = shl nsw i64 %13, 6
  %15 = getelementptr inbounds %"struct.std::_Deque_iterator", %"struct.std::_Deque_iterator"* %0, i64 0, i32 0
  %16 = load %"struct.std::pair"*, %"struct.std::pair"** %15, align 8, !tbaa !25
  %17 = getelementptr inbounds %"struct.std::_Deque_iterator", %"struct.std::_Deque_iterator"* %0, i64 0, i32 1
  %18 = load %"struct.std::pair"*, %"struct.std::pair"** %17, align 8, !tbaa !106
  %19 = ptrtoint %"struct.std::pair"* %16 to i64
  %20 = ptrtoint %"struct.std::pair"* %18 to i64
  %21 = sub i64 %19, %20
  %22 = ashr exact i64 %21, 3
  %23 = add nsw i64 %14, %22
  %24 = getelementptr inbounds %"struct.std::_Deque_iterator", %"struct.std::_Deque_iterator"* %1, i64 0, i32 2
  %25 = load %"struct.std::pair"*, %"struct.std::pair"** %24, align 8, !tbaa !107
  %26 = getelementptr inbounds %"struct.std::_Deque_iterator", %"struct.std::_Deque_iterator"* %1, i64 0, i32 0
  %27 = load %"struct.std::pair"*, %"struct.std::pair"** %26, align 8, !tbaa !25
  %28 = ptrtoint %"struct.std::pair"* %25 to i64
  %29 = ptrtoint %"struct.std::pair"* %27 to i64
  %30 = sub i64 %28, %29
  %31 = ashr exact i64 %30, 3
  %32 = add nsw i64 %23, %31
  ret i64 %32
}

; Function Attrs: minsize optsize sspstrong uwtable
define linkonce_odr dso_local void @_ZNSt5dequeISt4pairIiiESaIS1_EE17_M_reallocate_mapEmb(%"class.std::deque"* nonnull align 8 dereferenceable(80) %0, i64 %1, i1 zeroext %2) local_unnamed_addr #5 comdat align 2 personality i32 (...)* @__gxx_personality_v0 {
  %4 = getelementptr inbounds %"class.std::deque", %"class.std::deque"* %0, i64 0, i32 0, i32 0, i32 0, i32 3, i32 3
  %5 = load %"struct.std::pair"**, %"struct.std::pair"*** %4, align 8, !tbaa !96
  %6 = getelementptr inbounds %"class.std::deque", %"class.std::deque"* %0, i64 0, i32 0, i32 0, i32 0, i32 2, i32 3
  %7 = load %"struct.std::pair"**, %"struct.std::pair"*** %6, align 8, !tbaa !95
  %8 = ptrtoint %"struct.std::pair"** %5 to i64
  %9 = ptrtoint %"struct.std::pair"** %7 to i64
  %10 = sub i64 %8, %9
  %11 = ashr exact i64 %10, 3
  %12 = add nsw i64 %11, 1
  %13 = add i64 %12, %1
  %14 = getelementptr inbounds %"class.std::deque", %"class.std::deque"* %0, i64 0, i32 0, i32 0, i32 0, i32 1
  %15 = load i64, i64* %14, align 8, !tbaa !104
  %16 = shl i64 %13, 1
  %17 = icmp ugt i64 %15, %16
  br i1 %17, label %18, label %42

18:                                               ; preds = %3
  %19 = getelementptr inbounds %"class.std::deque", %"class.std::deque"* %0, i64 0, i32 0, i32 0, i32 0, i32 0
  %20 = load %"struct.std::pair"**, %"struct.std::pair"*** %19, align 8, !tbaa !93
  %21 = sub i64 %15, %13
  %22 = lshr i64 %21, 1
  %23 = select i1 %2, i64 %1, i64 0
  %24 = add nsw i64 %22, %23
  %25 = getelementptr inbounds %"struct.std::pair"*, %"struct.std::pair"** %20, i64 %24
  %26 = icmp ult %"struct.std::pair"** %25, %7
  %27 = getelementptr inbounds %"struct.std::pair"*, %"struct.std::pair"** %5, i64 1
  %28 = ptrtoint %"struct.std::pair"** %27 to i64
  %29 = sub i64 %28, %9
  %30 = icmp eq i64 %29, 0
  br i1 %26, label %31, label %35

31:                                               ; preds = %18
  br i1 %30, label %68, label %32

32:                                               ; preds = %31
  %33 = bitcast %"struct.std::pair"** %25 to i8*
  %34 = bitcast %"struct.std::pair"** %7 to i8*
  tail call void @llvm.memmove.p0i8.p0i8.i64(i8* align 8 %33, i8* nonnull align 8 %34, i64 %29, i1 false) #25
  br label %68

35:                                               ; preds = %18
  br i1 %30, label %68, label %36

36:                                               ; preds = %35
  %37 = ashr exact i64 %29, 3
  %38 = sub nsw i64 %12, %37
  %39 = getelementptr inbounds %"struct.std::pair"*, %"struct.std::pair"** %25, i64 %38
  %40 = bitcast %"struct.std::pair"** %39 to i8*
  %41 = bitcast %"struct.std::pair"** %7 to i8*
  tail call void @llvm.memmove.p0i8.p0i8.i64(i8* align 8 %40, i8* align 8 %41, i64 %29, i1 false) #25
  br label %68

42:                                               ; preds = %3
  %43 = getelementptr inbounds %"class.std::deque", %"class.std::deque"* %0, i64 0, i32 0
  %44 = icmp ult i64 %15, %1
  %45 = select i1 %44, i64 %1, i64 %15
  %46 = add i64 %15, 2
  %47 = add i64 %46, %45
  %48 = tail call %"struct.std::pair"** @_ZNSt11_Deque_baseISt4pairIiiESaIS1_EE15_M_allocate_mapEm(%"class.std::_Deque_base"* nonnull align 8 dereferenceable(80) %43, i64 %47) #24
  %49 = sub i64 %47, %13
  %50 = lshr i64 %49, 1
  %51 = select i1 %2, i64 %1, i64 0
  %52 = add nsw i64 %50, %51
  %53 = getelementptr inbounds %"struct.std::pair"*, %"struct.std::pair"** %48, i64 %52
  %54 = load %"struct.std::pair"**, %"struct.std::pair"*** %6, align 8, !tbaa !95
  %55 = load %"struct.std::pair"**, %"struct.std::pair"*** %4, align 8, !tbaa !96
  %56 = getelementptr inbounds %"struct.std::pair"*, %"struct.std::pair"** %55, i64 1
  %57 = ptrtoint %"struct.std::pair"** %56 to i64
  %58 = ptrtoint %"struct.std::pair"** %54 to i64
  %59 = sub i64 %57, %58
  %60 = icmp eq i64 %59, 0
  br i1 %60, label %64, label %61

61:                                               ; preds = %42
  %62 = bitcast %"struct.std::pair"** %53 to i8*
  %63 = bitcast %"struct.std::pair"** %54 to i8*
  tail call void @llvm.memmove.p0i8.p0i8.i64(i8* align 8 %62, i8* align 8 %63, i64 %59, i1 false) #25
  br label %64

64:                                               ; preds = %42, %61
  %65 = getelementptr inbounds %"class.std::deque", %"class.std::deque"* %0, i64 0, i32 0, i32 0, i32 0, i32 0
  %66 = bitcast %"class.std::deque"* %0 to i8**
  %67 = load i8*, i8** %66, align 8, !tbaa !93
  tail call void @_ZdlPv(i8* %67) #26
  store %"struct.std::pair"** %48, %"struct.std::pair"*** %65, align 8, !tbaa !93
  store i64 %47, i64* %14, align 8, !tbaa !104
  br label %68

68:                                               ; preds = %32, %31, %36, %35, %64
  %69 = phi %"struct.std::pair"** [ %53, %64 ], [ %25, %35 ], [ %25, %36 ], [ %25, %31 ], [ %25, %32 ]
  store %"struct.std::pair"** %69, %"struct.std::pair"*** %6, align 8, !tbaa !105
  %70 = load %"struct.std::pair"*, %"struct.std::pair"** %69, align 8, !tbaa !23
  %71 = getelementptr inbounds %"class.std::deque", %"class.std::deque"* %0, i64 0, i32 0, i32 0, i32 0, i32 2, i32 1
  store %"struct.std::pair"* %70, %"struct.std::pair"** %71, align 8, !tbaa !106
  %72 = getelementptr inbounds %"struct.std::pair", %"struct.std::pair"* %70, i64 64
  %73 = getelementptr inbounds %"class.std::deque", %"class.std::deque"* %0, i64 0, i32 0, i32 0, i32 0, i32 2, i32 2
  store %"struct.std::pair"* %72, %"struct.std::pair"** %73, align 8, !tbaa !107
  %74 = getelementptr inbounds %"struct.std::pair"*, %"struct.std::pair"** %69, i64 %11
  store %"struct.std::pair"** %74, %"struct.std::pair"*** %4, align 8, !tbaa !105
  %75 = load %"struct.std::pair"*, %"struct.std::pair"** %74, align 8, !tbaa !23
  %76 = getelementptr inbounds %"class.std::deque", %"class.std::deque"* %0, i64 0, i32 0, i32 0, i32 0, i32 3, i32 1
  store %"struct.std::pair"* %75, %"struct.std::pair"** %76, align 8, !tbaa !106
  %77 = getelementptr inbounds %"struct.std::pair", %"struct.std::pair"* %75, i64 64
  %78 = getelementptr inbounds %"class.std::deque", %"class.std::deque"* %0, i64 0, i32 0, i32 0, i32 0, i32 3, i32 2
  store %"struct.std::pair"* %77, %"struct.std::pair"** %78, align 8, !tbaa !107
  ret void
}

; Function Attrs: minsize mustprogress nounwind optsize sspstrong uwtable
define linkonce_odr dso_local void @_ZNSt5dequeISt4pairIiiESaIS1_EE9pop_frontEv(%"class.std::deque"* nonnull align 8 dereferenceable(80) %0) local_unnamed_addr #12 comdat align 2 personality i8* bitcast (i32 (...)* @__gxx_personality_v0 to i8*) {
  %2 = getelementptr inbounds %"class.std::deque", %"class.std::deque"* %0, i64 0, i32 0, i32 0, i32 0, i32 2, i32 0
  %3 = load %"struct.std::pair"*, %"struct.std::pair"** %2, align 8, !tbaa !108
  %4 = getelementptr inbounds %"class.std::deque", %"class.std::deque"* %0, i64 0, i32 0, i32 0, i32 0, i32 2, i32 2
  %5 = load %"struct.std::pair"*, %"struct.std::pair"** %4, align 8, !tbaa !113
  %6 = getelementptr inbounds %"struct.std::pair", %"struct.std::pair"* %5, i64 -1
  %7 = icmp eq %"struct.std::pair"* %3, %6
  br i1 %7, label %10, label %8

8:                                                ; preds = %1
  %9 = getelementptr inbounds %"struct.std::pair", %"struct.std::pair"* %3, i64 1
  store %"struct.std::pair"* %9, %"struct.std::pair"** %2, align 8, !tbaa !108
  br label %11

10:                                               ; preds = %1
  tail call void @_ZNSt5dequeISt4pairIiiESaIS1_EE16_M_pop_front_auxEv(%"class.std::deque"* nonnull align 8 dereferenceable(80) %0) #24
  br label %11

11:                                               ; preds = %10, %8
  ret void
}

; Function Attrs: minsize mustprogress nounwind optsize sspstrong uwtable
define linkonce_odr dso_local void @_ZNSt5dequeISt4pairIiiESaIS1_EE16_M_pop_front_auxEv(%"class.std::deque"* nonnull align 8 dereferenceable(80) %0) local_unnamed_addr #12 comdat align 2 personality i32 (...)* @__gxx_personality_v0 {
  %2 = getelementptr inbounds %"class.std::deque", %"class.std::deque"* %0, i64 0, i32 0, i32 0, i32 0, i32 2, i32 0
  %3 = getelementptr inbounds %"class.std::deque", %"class.std::deque"* %0, i64 0, i32 0, i32 0, i32 0, i32 2, i32 1
  %4 = bitcast %"struct.std::pair"** %3 to i8**
  %5 = load i8*, i8** %4, align 8, !tbaa !114
  tail call void @_ZdlPv(i8* %5) #26
  %6 = getelementptr inbounds %"class.std::deque", %"class.std::deque"* %0, i64 0, i32 0, i32 0, i32 0, i32 2, i32 3
  %7 = load %"struct.std::pair"**, %"struct.std::pair"*** %6, align 8, !tbaa !95
  %8 = getelementptr inbounds %"struct.std::pair"*, %"struct.std::pair"** %7, i64 1
  store %"struct.std::pair"** %8, %"struct.std::pair"*** %6, align 8, !tbaa !105
  %9 = load %"struct.std::pair"*, %"struct.std::pair"** %8, align 8, !tbaa !23
  store %"struct.std::pair"* %9, %"struct.std::pair"** %3, align 8, !tbaa !106
  %10 = getelementptr inbounds %"struct.std::pair", %"struct.std::pair"* %9, i64 64
  %11 = getelementptr inbounds %"class.std::deque", %"class.std::deque"* %0, i64 0, i32 0, i32 0, i32 0, i32 2, i32 2
  store %"struct.std::pair"* %10, %"struct.std::pair"** %11, align 8, !tbaa !107
  store %"struct.std::pair"* %9, %"struct.std::pair"** %2, align 8, !tbaa !108
  ret void
}

; Function Attrs: minsize optsize sspstrong uwtable
define linkonce_odr dso_local %"struct.std::_Rb_tree_node_base"* @_ZNSt8_Rb_treeIxSt4pairIKxxESt10_Select1stIS2_ESt4lessIxESaIS2_EE22_M_emplace_hint_uniqueIJRKSt21piecewise_construct_tSt5tupleIJRS1_EESD_IJEEEEESt17_Rb_tree_iteratorIS2_ESt23_Rb_tree_const_iteratorIS2_EDpOT_(%"class.std::_Rb_tree"* nonnull align 8 dereferenceable(48) %0, %"struct.std::_Rb_tree_node_base"* %1, %"struct.std::piecewise_construct_t"* nonnull align 1 dereferenceable(1) %2, %"class.std::tuple"* nonnull align 8 dereferenceable(8) %3, %"class.std::tuple.54"* nonnull align 1 dereferenceable(1) %4) local_unnamed_addr #5 comdat align 2 personality i8* bitcast (i32 (...)* @__gxx_personality_v0 to i8*) {
  %6 = tail call %"struct.std::_Rb_tree_node"* @_ZNSt8_Rb_treeIxSt4pairIKxxESt10_Select1stIS2_ESt4lessIxESaIS2_EE14_M_create_nodeIJRKSt21piecewise_construct_tSt5tupleIJRS1_EESD_IJEEEEEPSt13_Rb_tree_nodeIS2_EDpOT_(%"class.std::_Rb_tree"* nonnull align 8 dereferenceable(48) %0, %"struct.std::piecewise_construct_t"* nonnull align 1 dereferenceable(1) %2, %"class.std::tuple"* nonnull align 8 dereferenceable(8) %3, %"class.std::tuple.54"* nonnull align 1 dereferenceable(1) %4) #24
  %7 = getelementptr inbounds %"struct.std::_Rb_tree_node", %"struct.std::_Rb_tree_node"* %6, i64 0, i32 1
  %8 = bitcast %"struct.__gnu_cxx::__aligned_membuf"* %7 to i64*
  %9 = invoke { %"struct.std::_Rb_tree_node_base"*, %"struct.std::_Rb_tree_node_base"* } @_ZNSt8_Rb_treeIxSt4pairIKxxESt10_Select1stIS2_ESt4lessIxESaIS2_EE29_M_get_insert_hint_unique_posESt23_Rb_tree_const_iteratorIS2_ERS1_(%"class.std::_Rb_tree"* nonnull align 8 dereferenceable(48) %0, %"struct.std::_Rb_tree_node_base"* %1, i64* nonnull align 8 dereferenceable(8) %8) #24
          to label %10 unwind label %16

10:                                               ; preds = %5
  %11 = extractvalue { %"struct.std::_Rb_tree_node_base"*, %"struct.std::_Rb_tree_node_base"* } %9, 0
  %12 = extractvalue { %"struct.std::_Rb_tree_node_base"*, %"struct.std::_Rb_tree_node_base"* } %9, 1
  %13 = icmp eq %"struct.std::_Rb_tree_node_base"* %12, null
  br i1 %13, label %21, label %14

14:                                               ; preds = %10
  %15 = invoke %"struct.std::_Rb_tree_node_base"* @_ZNSt8_Rb_treeIxSt4pairIKxxESt10_Select1stIS2_ESt4lessIxESaIS2_EE14_M_insert_nodeEPSt18_Rb_tree_node_baseSA_PSt13_Rb_tree_nodeIS2_E(%"class.std::_Rb_tree"* nonnull align 8 dereferenceable(48) %0, %"struct.std::_Rb_tree_node_base"* %11, %"struct.std::_Rb_tree_node_base"* nonnull %12, %"struct.std::_Rb_tree_node"* %6) #24
          to label %23 unwind label %16

16:                                               ; preds = %14, %5
  %17 = landingpad { i8*, i32 }
          catch i8* null
  %18 = extractvalue { i8*, i32 } %17, 0
  %19 = tail call i8* @__cxa_begin_catch(i8* %18) #25
  %20 = bitcast %"struct.std::_Rb_tree_node"* %6 to i8*
  tail call void @_ZdlPv(i8* %20) #26
  invoke void @__cxa_rethrow() #28
          to label %31 unwind label %25

21:                                               ; preds = %10
  %22 = bitcast %"struct.std::_Rb_tree_node"* %6 to i8*
  tail call void @_ZdlPv(i8* %22) #26
  br label %23

23:                                               ; preds = %14, %21
  %24 = phi %"struct.std::_Rb_tree_node_base"* [ %11, %21 ], [ %15, %14 ]
  ret %"struct.std::_Rb_tree_node_base"* %24

25:                                               ; preds = %16
  %26 = landingpad { i8*, i32 }
          cleanup
  invoke void @__cxa_end_catch()
          to label %27 unwind label %28

27:                                               ; preds = %25
  resume { i8*, i32 } %26

28:                                               ; preds = %25
  %29 = landingpad { i8*, i32 }
          catch i8* null
  %30 = extractvalue { i8*, i32 } %29, 0
  tail call void @__clang_call_terminate(i8* %30) #27
  unreachable

31:                                               ; preds = %16
  unreachable
}

; Function Attrs: minsize mustprogress optsize sspstrong uwtable
define linkonce_odr dso_local %"struct.std::_Rb_tree_node_base"* @_ZNSt8_Rb_treeIxSt4pairIKxxESt10_Select1stIS2_ESt4lessIxESaIS2_EE11lower_boundERS1_(%"class.std::_Rb_tree"* nonnull align 8 dereferenceable(48) %0, i64* nonnull align 8 dereferenceable(8) %1) local_unnamed_addr #14 comdat align 2 {
  %3 = getelementptr inbounds %"class.std::_Rb_tree", %"class.std::_Rb_tree"* %0, i64 0, i32 0, i32 0, i32 0, i32 0
  %4 = getelementptr inbounds i8, i8* %3, i64 16
  %5 = bitcast i8* %4 to %"struct.std::_Rb_tree_node"**
  %6 = load %"struct.std::_Rb_tree_node"*, %"struct.std::_Rb_tree_node"** %5, align 8, !tbaa !44
  %7 = getelementptr inbounds i8, i8* %3, i64 8
  %8 = bitcast i8* %7 to %"struct.std::_Rb_tree_node_base"*
  %9 = tail call %"struct.std::_Rb_tree_node_base"* @_ZNSt8_Rb_treeIxSt4pairIKxxESt10_Select1stIS2_ESt4lessIxESaIS2_EE14_M_lower_boundEPSt13_Rb_tree_nodeIS2_EPSt18_Rb_tree_node_baseRS1_(%"class.std::_Rb_tree"* nonnull align 8 dereferenceable(48) %0, %"struct.std::_Rb_tree_node"* %6, %"struct.std::_Rb_tree_node_base"* nonnull %8, i64* nonnull align 8 dereferenceable(8) %1) #24
  ret %"struct.std::_Rb_tree_node_base"* %9
}

; Function Attrs: minsize optsize sspstrong uwtable
define linkonce_odr dso_local %"struct.std::_Rb_tree_node_base"* @_ZNSt8_Rb_treeIxSt4pairIKxxESt10_Select1stIS2_ESt4lessIxESaIS2_EE14_M_lower_boundEPSt13_Rb_tree_nodeIS2_EPSt18_Rb_tree_node_baseRS1_(%"class.std::_Rb_tree"* nonnull align 8 dereferenceable(48) %0, %"struct.std::_Rb_tree_node"* %1, %"struct.std::_Rb_tree_node_base"* %2, i64* nonnull align 8 dereferenceable(8) %3) local_unnamed_addr #5 comdat align 2 {
  %5 = load i64, i64* %3, align 8
  br label %6

6:                                                ; preds = %10, %4
  %7 = phi %"struct.std::_Rb_tree_node_base"* [ %2, %4 ], [ %18, %10 ]
  %8 = phi %"struct.std::_Rb_tree_node"* [ %1, %4 ], [ %21, %10 ]
  %9 = icmp eq %"struct.std::_Rb_tree_node"* %8, null
  br i1 %9, label %22, label %10

10:                                               ; preds = %6
  %11 = getelementptr inbounds %"struct.std::_Rb_tree_node", %"struct.std::_Rb_tree_node"* %8, i64 0, i32 1
  %12 = bitcast %"struct.__gnu_cxx::__aligned_membuf"* %11 to i64*
  %13 = load i64, i64* %12, align 8, !tbaa !16
  %14 = icmp slt i64 %13, %5
  %15 = getelementptr inbounds %"struct.std::_Rb_tree_node", %"struct.std::_Rb_tree_node"* %8, i64 0, i32 0, i32 3
  %16 = getelementptr %"struct.std::_Rb_tree_node", %"struct.std::_Rb_tree_node"* %8, i64 0, i32 0
  %17 = getelementptr inbounds %"struct.std::_Rb_tree_node", %"struct.std::_Rb_tree_node"* %8, i64 0, i32 0, i32 2
  %18 = select i1 %14, %"struct.std::_Rb_tree_node_base"* %7, %"struct.std::_Rb_tree_node_base"* %16
  %19 = select i1 %14, %"struct.std::_Rb_tree_node_base"** %15, %"struct.std::_Rb_tree_node_base"** %17
  %20 = bitcast %"struct.std::_Rb_tree_node_base"** %19 to %"struct.std::_Rb_tree_node"**
  %21 = load %"struct.std::_Rb_tree_node"*, %"struct.std::_Rb_tree_node"** %20, align 8, !tbaa !23
  br label %6, !llvm.loop !115

22:                                               ; preds = %6
  ret %"struct.std::_Rb_tree_node_base"* %7
}

; Function Attrs: minsize optsize sspstrong uwtable
define linkonce_odr dso_local %"struct.std::_Rb_tree_node"* @_ZNSt8_Rb_treeIxSt4pairIKxxESt10_Select1stIS2_ESt4lessIxESaIS2_EE14_M_create_nodeIJRKSt21piecewise_construct_tSt5tupleIJRS1_EESD_IJEEEEEPSt13_Rb_tree_nodeIS2_EDpOT_(%"class.std::_Rb_tree"* nonnull align 8 dereferenceable(48) %0, %"struct.std::piecewise_construct_t"* nonnull align 1 dereferenceable(1) %1, %"class.std::tuple"* nonnull align 8 dereferenceable(8) %2, %"class.std::tuple.54"* nonnull align 1 dereferenceable(1) %3) local_unnamed_addr #5 comdat align 2 personality i32 (...)* @__gxx_personality_v0 {
  %5 = tail call %"struct.std::_Rb_tree_node"* @_ZNSt8_Rb_treeIxSt4pairIKxxESt10_Select1stIS2_ESt4lessIxESaIS2_EE11_M_get_nodeEv(%"class.std::_Rb_tree"* nonnull align 8 dereferenceable(48) %0) #24
  %6 = getelementptr inbounds %"struct.std::_Rb_tree_node", %"struct.std::_Rb_tree_node"* %5, i64 0, i32 1
  %7 = getelementptr inbounds %"class.std::tuple", %"class.std::tuple"* %2, i64 0, i32 0, i32 0, i32 0
  %8 = load i64*, i64** %7, align 8, !tbaa !116
  %9 = bitcast %"struct.__gnu_cxx::__aligned_membuf"* %6 to i64*
  %10 = load i64, i64* %8, align 8, !tbaa !16
  store i64 %10, i64* %9, align 8, !tbaa !118
  %11 = getelementptr inbounds %"struct.std::_Rb_tree_node", %"struct.std::_Rb_tree_node"* %5, i64 0, i32 1, i32 0, i64 8
  %12 = bitcast i8* %11 to i64*
  store i64 0, i64* %12, align 8, !tbaa !120
  ret %"struct.std::_Rb_tree_node"* %5
}

; Function Attrs: minsize optsize sspstrong uwtable
define linkonce_odr dso_local { %"struct.std::_Rb_tree_node_base"*, %"struct.std::_Rb_tree_node_base"* } @_ZNSt8_Rb_treeIxSt4pairIKxxESt10_Select1stIS2_ESt4lessIxESaIS2_EE29_M_get_insert_hint_unique_posESt23_Rb_tree_const_iteratorIS2_ERS1_(%"class.std::_Rb_tree"* nonnull align 8 dereferenceable(48) %0, %"struct.std::_Rb_tree_node_base"* %1, i64* nonnull align 8 dereferenceable(8) %2) local_unnamed_addr #5 comdat align 2 {
  %4 = getelementptr inbounds %"class.std::_Rb_tree", %"class.std::_Rb_tree"* %0, i64 0, i32 0, i32 0, i32 0, i32 0
  %5 = getelementptr inbounds i8, i8* %4, i64 8
  %6 = bitcast i8* %5 to %"struct.std::_Rb_tree_node_base"*
  %7 = icmp eq %"struct.std::_Rb_tree_node_base"* %6, %1
  br i1 %7, label %8, label %26

8:                                                ; preds = %3
  %9 = getelementptr inbounds i8, i8* %4, i64 40
  %10 = bitcast i8* %9 to i64*
  %11 = load i64, i64* %10, align 8, !tbaa !47
  %12 = icmp eq i64 %11, 0
  br i1 %12, label %22, label %13

13:                                               ; preds = %8
  %14 = getelementptr inbounds i8, i8* %4, i64 32
  %15 = bitcast i8* %14 to %"struct.std::_Rb_tree_node_base"**
  %16 = load %"struct.std::_Rb_tree_node_base"*, %"struct.std::_Rb_tree_node_base"** %15, align 8, !tbaa !23
  %17 = getelementptr inbounds %"struct.std::_Rb_tree_node_base", %"struct.std::_Rb_tree_node_base"* %16, i64 1
  %18 = bitcast %"struct.std::_Rb_tree_node_base"* %17 to i64*
  %19 = load i64, i64* %18, align 8, !tbaa !16
  %20 = load i64, i64* %2, align 8, !tbaa !16
  %21 = icmp slt i64 %19, %20
  br i1 %21, label %78, label %22

22:                                               ; preds = %13, %8
  %23 = tail call { %"struct.std::_Rb_tree_node_base"*, %"struct.std::_Rb_tree_node_base"* } @_ZNSt8_Rb_treeIxSt4pairIKxxESt10_Select1stIS2_ESt4lessIxESaIS2_EE24_M_get_insert_unique_posERS1_(%"class.std::_Rb_tree"* nonnull align 8 dereferenceable(48) %0, i64* nonnull align 8 dereferenceable(8) %2) #24
  %24 = extractvalue { %"struct.std::_Rb_tree_node_base"*, %"struct.std::_Rb_tree_node_base"* } %23, 0
  %25 = extractvalue { %"struct.std::_Rb_tree_node_base"*, %"struct.std::_Rb_tree_node_base"* } %23, 1
  br label %78

26:                                               ; preds = %3
  %27 = getelementptr inbounds %"struct.std::_Rb_tree_node_base", %"struct.std::_Rb_tree_node_base"* %1, i64 1
  %28 = bitcast %"struct.std::_Rb_tree_node_base"* %27 to i64*
  %29 = load i64, i64* %2, align 8, !tbaa !16
  %30 = load i64, i64* %28, align 8, !tbaa !16
  %31 = icmp slt i64 %29, %30
  br i1 %31, label %32, label %54

32:                                               ; preds = %26
  %33 = getelementptr inbounds i8, i8* %4, i64 24
  %34 = bitcast i8* %33 to %"struct.std::_Rb_tree_node_base"**
  %35 = load %"struct.std::_Rb_tree_node_base"*, %"struct.std::_Rb_tree_node_base"** %34, align 8, !tbaa !23
  %36 = icmp eq %"struct.std::_Rb_tree_node_base"* %35, %1
  br i1 %36, label %78, label %37

37:                                               ; preds = %32
  %38 = tail call %"struct.std::_Rb_tree_node_base"* @_ZSt18_Rb_tree_decrementPSt18_Rb_tree_node_base(%"struct.std::_Rb_tree_node_base"* nonnull %1) #31
  %39 = getelementptr inbounds %"struct.std::_Rb_tree_node_base", %"struct.std::_Rb_tree_node_base"* %38, i64 1
  %40 = bitcast %"struct.std::_Rb_tree_node_base"* %39 to i64*
  %41 = load i64, i64* %40, align 8, !tbaa !16
  %42 = icmp slt i64 %41, %29
  br i1 %42, label %43, label %50

43:                                               ; preds = %37
  %44 = getelementptr inbounds %"struct.std::_Rb_tree_node_base", %"struct.std::_Rb_tree_node_base"* %38, i64 0, i32 3
  %45 = bitcast %"struct.std::_Rb_tree_node_base"** %44 to %"struct.std::_Rb_tree_node"**
  %46 = load %"struct.std::_Rb_tree_node"*, %"struct.std::_Rb_tree_node"** %45, align 8, !tbaa !98
  %47 = icmp eq %"struct.std::_Rb_tree_node"* %46, null
  %48 = select i1 %47, %"struct.std::_Rb_tree_node_base"* null, %"struct.std::_Rb_tree_node_base"* %1
  %49 = select i1 %47, %"struct.std::_Rb_tree_node_base"* %38, %"struct.std::_Rb_tree_node_base"* %1
  br label %78

50:                                               ; preds = %37
  %51 = tail call { %"struct.std::_Rb_tree_node_base"*, %"struct.std::_Rb_tree_node_base"* } @_ZNSt8_Rb_treeIxSt4pairIKxxESt10_Select1stIS2_ESt4lessIxESaIS2_EE24_M_get_insert_unique_posERS1_(%"class.std::_Rb_tree"* nonnull align 8 dereferenceable(48) %0, i64* nonnull align 8 dereferenceable(8) %2) #24
  %52 = extractvalue { %"struct.std::_Rb_tree_node_base"*, %"struct.std::_Rb_tree_node_base"* } %51, 0
  %53 = extractvalue { %"struct.std::_Rb_tree_node_base"*, %"struct.std::_Rb_tree_node_base"* } %51, 1
  br label %78

54:                                               ; preds = %26
  %55 = icmp slt i64 %30, %29
  br i1 %55, label %56, label %78

56:                                               ; preds = %54
  %57 = getelementptr inbounds i8, i8* %4, i64 32
  %58 = bitcast i8* %57 to %"struct.std::_Rb_tree_node_base"**
  %59 = load %"struct.std::_Rb_tree_node_base"*, %"struct.std::_Rb_tree_node_base"** %58, align 8, !tbaa !23
  %60 = icmp eq %"struct.std::_Rb_tree_node_base"* %59, %1
  br i1 %60, label %78, label %61

61:                                               ; preds = %56
  %62 = tail call %"struct.std::_Rb_tree_node_base"* @_ZSt18_Rb_tree_incrementPSt18_Rb_tree_node_base(%"struct.std::_Rb_tree_node_base"* nonnull %1) #31
  %63 = getelementptr inbounds %"struct.std::_Rb_tree_node_base", %"struct.std::_Rb_tree_node_base"* %62, i64 1
  %64 = bitcast %"struct.std::_Rb_tree_node_base"* %63 to i64*
  %65 = load i64, i64* %64, align 8, !tbaa !16
  %66 = icmp slt i64 %29, %65
  br i1 %66, label %67, label %74

67:                                               ; preds = %61
  %68 = getelementptr inbounds %"struct.std::_Rb_tree_node_base", %"struct.std::_Rb_tree_node_base"* %1, i64 0, i32 3
  %69 = bitcast %"struct.std::_Rb_tree_node_base"** %68 to %"struct.std::_Rb_tree_node"**
  %70 = load %"struct.std::_Rb_tree_node"*, %"struct.std::_Rb_tree_node"** %69, align 8, !tbaa !98
  %71 = icmp eq %"struct.std::_Rb_tree_node"* %70, null
  %72 = select i1 %71, %"struct.std::_Rb_tree_node_base"* null, %"struct.std::_Rb_tree_node_base"* %62
  %73 = select i1 %71, %"struct.std::_Rb_tree_node_base"* %1, %"struct.std::_Rb_tree_node_base"* %62
  br label %78

74:                                               ; preds = %61
  %75 = tail call { %"struct.std::_Rb_tree_node_base"*, %"struct.std::_Rb_tree_node_base"* } @_ZNSt8_Rb_treeIxSt4pairIKxxESt10_Select1stIS2_ESt4lessIxESaIS2_EE24_M_get_insert_unique_posERS1_(%"class.std::_Rb_tree"* nonnull align 8 dereferenceable(48) %0, i64* nonnull align 8 dereferenceable(8) %2) #24
  %76 = extractvalue { %"struct.std::_Rb_tree_node_base"*, %"struct.std::_Rb_tree_node_base"* } %75, 0
  %77 = extractvalue { %"struct.std::_Rb_tree_node_base"*, %"struct.std::_Rb_tree_node_base"* } %75, 1
  br label %78

78:                                               ; preds = %67, %43, %54, %74, %56, %50, %32, %13, %22
  %79 = phi %"struct.std::_Rb_tree_node_base"* [ %24, %22 ], [ null, %13 ], [ %52, %50 ], [ %1, %32 ], [ %76, %74 ], [ null, %56 ], [ %1, %54 ], [ %48, %43 ], [ %72, %67 ]
  %80 = phi %"struct.std::_Rb_tree_node_base"* [ %25, %22 ], [ %16, %13 ], [ %53, %50 ], [ %1, %32 ], [ %77, %74 ], [ %1, %56 ], [ null, %54 ], [ %49, %43 ], [ %73, %67 ]
  %81 = insertvalue { %"struct.std::_Rb_tree_node_base"*, %"struct.std::_Rb_tree_node_base"* } undef, %"struct.std::_Rb_tree_node_base"* %79, 0
  %82 = insertvalue { %"struct.std::_Rb_tree_node_base"*, %"struct.std::_Rb_tree_node_base"* } %81, %"struct.std::_Rb_tree_node_base"* %80, 1
  ret { %"struct.std::_Rb_tree_node_base"*, %"struct.std::_Rb_tree_node_base"* } %82
}

; Function Attrs: minsize optsize sspstrong uwtable
define linkonce_odr dso_local %"struct.std::_Rb_tree_node_base"* @_ZNSt8_Rb_treeIxSt4pairIKxxESt10_Select1stIS2_ESt4lessIxESaIS2_EE14_M_insert_nodeEPSt18_Rb_tree_node_baseSA_PSt13_Rb_tree_nodeIS2_E(%"class.std::_Rb_tree"* nonnull align 8 dereferenceable(48) %0, %"struct.std::_Rb_tree_node_base"* %1, %"struct.std::_Rb_tree_node_base"* %2, %"struct.std::_Rb_tree_node"* %3) local_unnamed_addr #5 comdat align 2 {
  %5 = icmp eq %"struct.std::_Rb_tree_node_base"* %1, null
  br i1 %5, label %6, label %19

6:                                                ; preds = %4
  %7 = getelementptr inbounds %"class.std::_Rb_tree", %"class.std::_Rb_tree"* %0, i64 0, i32 0, i32 0, i32 0, i32 0
  %8 = getelementptr inbounds i8, i8* %7, i64 8
  %9 = bitcast i8* %8 to %"struct.std::_Rb_tree_node_base"*
  %10 = icmp eq %"struct.std::_Rb_tree_node_base"* %9, %2
  br i1 %10, label %19, label %11

11:                                               ; preds = %6
  %12 = getelementptr inbounds %"struct.std::_Rb_tree_node", %"struct.std::_Rb_tree_node"* %3, i64 0, i32 1
  %13 = bitcast %"struct.__gnu_cxx::__aligned_membuf"* %12 to i64*
  %14 = getelementptr inbounds %"struct.std::_Rb_tree_node_base", %"struct.std::_Rb_tree_node_base"* %2, i64 1
  %15 = bitcast %"struct.std::_Rb_tree_node_base"* %14 to i64*
  %16 = load i64, i64* %13, align 8, !tbaa !16
  %17 = load i64, i64* %15, align 8, !tbaa !16
  %18 = icmp slt i64 %16, %17
  br label %19

19:                                               ; preds = %4, %11, %6
  %20 = phi i1 [ true, %6 ], [ %18, %11 ], [ true, %4 ]
  %21 = getelementptr %"struct.std::_Rb_tree_node", %"struct.std::_Rb_tree_node"* %3, i64 0, i32 0
  %22 = getelementptr inbounds %"class.std::_Rb_tree", %"class.std::_Rb_tree"* %0, i64 0, i32 0, i32 0, i32 0, i32 0
  %23 = getelementptr inbounds i8, i8* %22, i64 8
  %24 = bitcast i8* %23 to %"struct.std::_Rb_tree_node_base"*
  tail call void @_ZSt29_Rb_tree_insert_and_rebalancebPSt18_Rb_tree_node_baseS0_RS_(i1 zeroext %20, %"struct.std::_Rb_tree_node_base"* %21, %"struct.std::_Rb_tree_node_base"* %2, %"struct.std::_Rb_tree_node_base"* nonnull align 8 dereferenceable(32) %24) #26
  %25 = getelementptr inbounds i8, i8* %22, i64 40
  %26 = bitcast i8* %25 to i64*
  %27 = load i64, i64* %26, align 8, !tbaa !47
  %28 = add i64 %27, 1
  store i64 %28, i64* %26, align 8, !tbaa !47
  ret %"struct.std::_Rb_tree_node_base"* %21
}

; Function Attrs: minsize mustprogress optsize sspstrong uwtable
define linkonce_odr dso_local %"struct.std::_Rb_tree_node"* @_ZNSt8_Rb_treeIxSt4pairIKxxESt10_Select1stIS2_ESt4lessIxESaIS2_EE11_M_get_nodeEv(%"class.std::_Rb_tree"* nonnull align 8 dereferenceable(48) %0) local_unnamed_addr #14 comdat align 2 {
  %2 = bitcast %"class.std::_Rb_tree"* %0 to %"class.std::allocator.18"*
  %3 = tail call %"struct.std::_Rb_tree_node"* @_ZNSt16allocator_traitsISaISt13_Rb_tree_nodeISt4pairIKxxEEEE8allocateERS5_m(%"class.std::allocator.18"* nonnull align 1 dereferenceable(1) %2, i64 1) #24
  ret %"struct.std::_Rb_tree_node"* %3
}

; Function Attrs: minsize mustprogress optsize sspstrong uwtable
define linkonce_odr dso_local %"struct.std::_Rb_tree_node"* @_ZNSt16allocator_traitsISaISt13_Rb_tree_nodeISt4pairIKxxEEEE8allocateERS5_m(%"class.std::allocator.18"* nonnull align 1 dereferenceable(1) %0, i64 %1) local_unnamed_addr #14 comdat align 2 {
  %3 = bitcast %"class.std::allocator.18"* %0 to %"class.__gnu_cxx::new_allocator.19"*
  %4 = tail call %"struct.std::_Rb_tree_node"* @_ZN9__gnu_cxx13new_allocatorISt13_Rb_tree_nodeISt4pairIKxxEEE8allocateEmPKv(%"class.__gnu_cxx::new_allocator.19"* nonnull align 1 dereferenceable(1) %3, i64 %1, i8* null) #24
  ret %"struct.std::_Rb_tree_node"* %4
}

; Function Attrs: minsize mustprogress optsize sspstrong uwtable
define linkonce_odr dso_local %"struct.std::_Rb_tree_node"* @_ZN9__gnu_cxx13new_allocatorISt13_Rb_tree_nodeISt4pairIKxxEEE8allocateEmPKv(%"class.__gnu_cxx::new_allocator.19"* nonnull align 1 dereferenceable(1) %0, i64 %1, i8* %2) local_unnamed_addr #14 comdat align 2 {
  %4 = icmp ugt i64 %1, 192153584101141162
  br i1 %4, label %5, label %9, !prof !101

5:                                                ; preds = %3
  %6 = icmp ugt i64 %1, 384307168202282325
  br i1 %6, label %7, label %8

7:                                                ; preds = %5
  tail call void @_ZSt28__throw_bad_array_new_lengthv() #29
  unreachable

8:                                                ; preds = %5
  tail call void @_ZSt17__throw_bad_allocv() #29
  unreachable

9:                                                ; preds = %3
  %10 = mul nuw nsw i64 %1, 48
  %11 = tail call noalias nonnull i8* @_Znwm(i64 %10) #30
  %12 = bitcast i8* %11 to %"struct.std::_Rb_tree_node"*
  ret %"struct.std::_Rb_tree_node"* %12
}

; Function Attrs: minsize optsize sspstrong uwtable
define linkonce_odr dso_local { %"struct.std::_Rb_tree_node_base"*, %"struct.std::_Rb_tree_node_base"* } @_ZNSt8_Rb_treeIxSt4pairIKxxESt10_Select1stIS2_ESt4lessIxESaIS2_EE24_M_get_insert_unique_posERS1_(%"class.std::_Rb_tree"* nonnull align 8 dereferenceable(48) %0, i64* nonnull align 8 dereferenceable(8) %1) local_unnamed_addr #5 comdat align 2 {
  %3 = getelementptr inbounds %"class.std::_Rb_tree", %"class.std::_Rb_tree"* %0, i64 0, i32 0, i32 0, i32 0, i32 0
  %4 = getelementptr inbounds i8, i8* %3, i64 16
  %5 = bitcast i8* %4 to %"struct.std::_Rb_tree_node"**
  %6 = getelementptr inbounds i8, i8* %3, i64 8
  %7 = bitcast i8* %6 to %"struct.std::_Rb_tree_node_base"*
  %8 = load i64, i64* %1, align 8
  br label %9

9:                                                ; preds = %15, %2
  %10 = phi %"struct.std::_Rb_tree_node"** [ %5, %2 ], [ %24, %15 ]
  %11 = phi %"struct.std::_Rb_tree_node_base"* [ %7, %2 ], [ %16, %15 ]
  %12 = phi i1 [ true, %2 ], [ %20, %15 ]
  %13 = load %"struct.std::_Rb_tree_node"*, %"struct.std::_Rb_tree_node"** %10, align 8, !tbaa !23
  %14 = icmp eq %"struct.std::_Rb_tree_node"* %13, null
  br i1 %14, label %25, label %15

15:                                               ; preds = %9
  %16 = getelementptr %"struct.std::_Rb_tree_node", %"struct.std::_Rb_tree_node"* %13, i64 0, i32 0
  %17 = getelementptr inbounds %"struct.std::_Rb_tree_node", %"struct.std::_Rb_tree_node"* %13, i64 0, i32 1
  %18 = bitcast %"struct.__gnu_cxx::__aligned_membuf"* %17 to i64*
  %19 = load i64, i64* %18, align 8, !tbaa !16
  %20 = icmp slt i64 %8, %19
  %21 = getelementptr inbounds %"struct.std::_Rb_tree_node", %"struct.std::_Rb_tree_node"* %13, i64 0, i32 0, i32 2
  %22 = getelementptr inbounds %"struct.std::_Rb_tree_node", %"struct.std::_Rb_tree_node"* %13, i64 0, i32 0, i32 3
  %23 = select i1 %20, %"struct.std::_Rb_tree_node_base"** %21, %"struct.std::_Rb_tree_node_base"** %22
  %24 = bitcast %"struct.std::_Rb_tree_node_base"** %23 to %"struct.std::_Rb_tree_node"**
  br label %9, !llvm.loop !121

25:                                               ; preds = %9
  br i1 %12, label %26, label %33

26:                                               ; preds = %25
  %27 = getelementptr inbounds i8, i8* %3, i64 24
  %28 = bitcast i8* %27 to %"struct.std::_Rb_tree_node_base"**
  %29 = load %"struct.std::_Rb_tree_node_base"*, %"struct.std::_Rb_tree_node_base"** %28, align 8, !tbaa !45
  %30 = icmp eq %"struct.std::_Rb_tree_node_base"* %11, %29
  br i1 %30, label %41, label %31

31:                                               ; preds = %26
  %32 = tail call %"struct.std::_Rb_tree_node_base"* @_ZSt18_Rb_tree_decrementPSt18_Rb_tree_node_base(%"struct.std::_Rb_tree_node_base"* %11) #31
  br label %33

33:                                               ; preds = %31, %25
  %34 = phi %"struct.std::_Rb_tree_node_base"* [ %32, %31 ], [ %11, %25 ]
  %35 = getelementptr inbounds %"struct.std::_Rb_tree_node_base", %"struct.std::_Rb_tree_node_base"* %34, i64 1
  %36 = bitcast %"struct.std::_Rb_tree_node_base"* %35 to i64*
  %37 = load i64, i64* %36, align 8, !tbaa !16
  %38 = icmp slt i64 %37, %8
  %39 = select i1 %38, %"struct.std::_Rb_tree_node_base"* null, %"struct.std::_Rb_tree_node_base"* %34
  %40 = select i1 %38, %"struct.std::_Rb_tree_node_base"* %11, %"struct.std::_Rb_tree_node_base"* null
  br label %41

41:                                               ; preds = %26, %33
  %42 = phi %"struct.std::_Rb_tree_node_base"* [ %39, %33 ], [ null, %26 ]
  %43 = phi %"struct.std::_Rb_tree_node_base"* [ %40, %33 ], [ %11, %26 ]
  %44 = insertvalue { %"struct.std::_Rb_tree_node_base"*, %"struct.std::_Rb_tree_node_base"* } undef, %"struct.std::_Rb_tree_node_base"* %42, 0
  %45 = insertvalue { %"struct.std::_Rb_tree_node_base"*, %"struct.std::_Rb_tree_node_base"* } %44, %"struct.std::_Rb_tree_node_base"* %43, 1
  ret { %"struct.std::_Rb_tree_node_base"*, %"struct.std::_Rb_tree_node_base"* } %45
}

; Function Attrs: minsize mustprogress nofree nounwind optsize readonly willreturn
declare %"struct.std::_Rb_tree_node_base"* @_ZSt18_Rb_tree_decrementPSt18_Rb_tree_node_base(%"struct.std::_Rb_tree_node_base"*) local_unnamed_addr #20

; Function Attrs: minsize mustprogress nofree nounwind optsize readonly willreturn
declare %"struct.std::_Rb_tree_node_base"* @_ZSt18_Rb_tree_incrementPSt18_Rb_tree_node_base(%"struct.std::_Rb_tree_node_base"*) local_unnamed_addr #20

; Function Attrs: minsize nounwind optsize
declare void @_ZSt29_Rb_tree_insert_and_rebalancebPSt18_Rb_tree_node_baseS0_RS_(i1 zeroext, %"struct.std::_Rb_tree_node_base"*, %"struct.std::_Rb_tree_node_base"*, %"struct.std::_Rb_tree_node_base"* nonnull align 8 dereferenceable(32)) local_unnamed_addr #1

; Function Attrs: minsize optsize sspstrong uwtable
define linkonce_odr dso_local void @_ZNSt6vectorIxSaIxEE14_M_fill_insertEN9__gnu_cxx17__normal_iteratorIPxS1_EEmRKx(%"class.std::vector.0"* nonnull align 8 dereferenceable(24) %0, i64* %1, i64 %2, i64* nonnull align 8 dereferenceable(8) %3) local_unnamed_addr #5 comdat align 2 personality i8* bitcast (i32 (...)* @__gxx_personality_v0 to i8*) {
  %5 = alloca %"struct.std::vector<long long>::_Temporary_value", align 8
  %6 = icmp eq i64 %2, 0
  br i1 %6, label %123, label %7

7:                                                ; preds = %4
  %8 = getelementptr inbounds %"class.std::vector.0", %"class.std::vector.0"* %0, i64 0, i32 0, i32 0, i32 0, i32 2
  %9 = load i64*, i64** %8, align 8, !tbaa !22
  %10 = getelementptr inbounds %"class.std::vector.0", %"class.std::vector.0"* %0, i64 0, i32 0, i32 0, i32 0, i32 1
  %11 = load i64*, i64** %10, align 8, !tbaa !10
  %12 = ptrtoint i64* %9 to i64
  %13 = ptrtoint i64* %11 to i64
  %14 = sub i64 %12, %13
  %15 = ashr exact i64 %14, 3
  %16 = icmp ult i64 %15, %2
  br i1 %16, label %73, label %17

17:                                               ; preds = %7
  %18 = bitcast %"struct.std::vector<long long>::_Temporary_value"* %5 to i8*
  call void @llvm.lifetime.start.p0i8(i64 16, i8* nonnull %18) #25
  %19 = getelementptr inbounds %"struct.std::vector<long long>::_Temporary_value", %"struct.std::vector<long long>::_Temporary_value"* %5, i64 0, i32 0
  store %"class.std::vector.0"* %0, %"class.std::vector.0"** %19, align 8, !tbaa !122
  %20 = getelementptr inbounds %"struct.std::vector<long long>::_Temporary_value", %"struct.std::vector<long long>::_Temporary_value"* %5, i64 0, i32 1
  %21 = bitcast %"union.std::aligned_storage<8, 8>::type"* %20 to i64*
  %22 = load i64, i64* %3, align 8, !tbaa !16
  store i64 %22, i64* %21, align 8, !tbaa !16
  %23 = ptrtoint i64* %1 to i64
  %24 = sub i64 %13, %23
  %25 = ashr exact i64 %24, 3
  %26 = icmp ugt i64 %25, %2
  br i1 %26, label %27, label %55

27:                                               ; preds = %17
  %28 = sub i64 0, %2
  %29 = getelementptr inbounds i64, i64* %11, i64 %28
  %30 = ptrtoint i64* %29 to i64
  %31 = shl i64 %2, 3
  %32 = icmp eq i64 %31, 0
  br i1 %32, label %37, label %33

33:                                               ; preds = %27
  %34 = bitcast i64* %11 to i8*
  %35 = bitcast i64* %29 to i8*
  tail call void @llvm.memmove.p0i8.p0i8.i64(i8* align 8 %34, i8* align 8 %35, i64 %31, i1 false) #25
  %36 = load i64*, i64** %10, align 8, !tbaa !10
  br label %37

37:                                               ; preds = %33, %27
  %38 = phi i64* [ %36, %33 ], [ %11, %27 ]
  %39 = getelementptr inbounds i64, i64* %38, i64 %2
  store i64* %39, i64** %10, align 8, !tbaa !10
  %40 = sub i64 %30, %23
  %41 = icmp eq i64 %40, 0
  br i1 %41, label %48, label %42

42:                                               ; preds = %37
  %43 = ashr exact i64 %40, 3
  %44 = sub nsw i64 0, %43
  %45 = getelementptr inbounds i64, i64* %11, i64 %44
  %46 = bitcast i64* %45 to i8*
  %47 = bitcast i64* %1 to i8*
  tail call void @llvm.memmove.p0i8.p0i8.i64(i8* align 8 %46, i8* align 8 %47, i64 %40, i1 false) #25
  br label %48

48:                                               ; preds = %42, %37
  %49 = getelementptr inbounds i64, i64* %1, i64 %2
  br label %50

50:                                               ; preds = %53, %48
  %51 = phi i64* [ %1, %48 ], [ %54, %53 ]
  %52 = icmp eq i64* %51, %49
  br i1 %52, label %72, label %53

53:                                               ; preds = %50
  store i64 %22, i64* %51, align 8, !tbaa !16
  %54 = getelementptr inbounds i64, i64* %51, i64 1
  br label %50, !llvm.loop !111

55:                                               ; preds = %17
  %56 = sub i64 %2, %25
  %57 = call i64* @_ZSt10__fill_n_aIPxmxET_S1_T0_RKT1_St26random_access_iterator_tag(i64* %11, i64 %56, i64* nonnull align 8 dereferenceable(8) %21) #24
  store i64* %57, i64** %10, align 8, !tbaa !10
  %58 = icmp eq i64 %24, 0
  br i1 %58, label %63, label %59

59:                                               ; preds = %55
  %60 = bitcast i64* %57 to i8*
  %61 = bitcast i64* %1 to i8*
  call void @llvm.memmove.p0i8.p0i8.i64(i8* align 8 %60, i8* align 8 %61, i64 %24, i1 false) #25
  %62 = load i64*, i64** %10, align 8, !tbaa !10
  br label %63

63:                                               ; preds = %59, %55
  %64 = phi i64* [ %62, %59 ], [ %57, %55 ]
  %65 = getelementptr inbounds i64, i64* %64, i64 %25
  store i64* %65, i64** %10, align 8, !tbaa !10
  %66 = load i64, i64* %21, align 8, !tbaa !16
  br label %67

67:                                               ; preds = %70, %63
  %68 = phi i64* [ %1, %63 ], [ %71, %70 ]
  %69 = icmp eq i64* %68, %11
  br i1 %69, label %72, label %70

70:                                               ; preds = %67
  store i64 %66, i64* %68, align 8, !tbaa !16
  %71 = getelementptr inbounds i64, i64* %68, i64 1
  br label %67, !llvm.loop !111

72:                                               ; preds = %67, %50
  call void @llvm.lifetime.end.p0i8(i64 16, i8* nonnull %18) #25
  br label %123

73:                                               ; preds = %7
  %74 = getelementptr inbounds %"class.std::vector.0", %"class.std::vector.0"* %0, i64 0, i32 0
  %75 = tail call i64 @_ZNKSt6vectorIxSaIxEE12_M_check_lenEmPKc(%"class.std::vector.0"* nonnull align 8 dereferenceable(24) %0, i64 %2, i8* getelementptr inbounds ([23 x i8], [23 x i8]* @.str.4, i64 0, i64 0)) #24
  %76 = getelementptr inbounds %"class.std::vector.0", %"class.std::vector.0"* %0, i64 0, i32 0, i32 0, i32 0, i32 0
  %77 = load i64*, i64** %76, align 8, !tbaa !23
  %78 = ptrtoint i64* %1 to i64
  %79 = ptrtoint i64* %77 to i64
  %80 = sub i64 %78, %79
  %81 = ashr exact i64 %80, 3
  %82 = tail call i64* @_ZNSt12_Vector_baseIxSaIxEE11_M_allocateEm(%"struct.std::_Vector_base.1"* nonnull align 8 dereferenceable(24) %74, i64 %75) #24
  %83 = getelementptr inbounds i64, i64* %82, i64 %81
  %84 = invoke i64* @_ZSt10__fill_n_aIPxmxET_S1_T0_RKT1_St26random_access_iterator_tag(i64* %83, i64 %2, i64* nonnull align 8 dereferenceable(8) %3) #24
          to label %85 unwind label %113

85:                                               ; preds = %73
  %86 = load i64*, i64** %76, align 8, !tbaa !15
  %87 = ptrtoint i64* %86 to i64
  %88 = sub i64 %78, %87
  %89 = icmp eq i64 %88, 0
  br i1 %89, label %93, label %90

90:                                               ; preds = %85
  %91 = bitcast i64* %82 to i8*
  %92 = bitcast i64* %86 to i8*
  tail call void @llvm.memmove.p0i8.p0i8.i64(i8* align 8 %91, i8* align 8 %92, i64 %88, i1 false) #25
  br label %93

93:                                               ; preds = %90, %85
  %94 = ashr exact i64 %88, 3
  %95 = add nsw i64 %94, %2
  %96 = getelementptr inbounds i64, i64* %82, i64 %95
  %97 = load i64*, i64** %10, align 8, !tbaa !10
  %98 = ptrtoint i64* %97 to i64
  %99 = sub i64 %98, %78
  %100 = icmp eq i64 %99, 0
  br i1 %100, label %104, label %101

101:                                              ; preds = %93
  %102 = bitcast i64* %96 to i8*
  %103 = bitcast i64* %1 to i8*
  tail call void @llvm.memmove.p0i8.p0i8.i64(i8* align 8 %102, i8* align 8 %103, i64 %99, i1 false) #25
  br label %104

104:                                              ; preds = %101, %93
  %105 = ashr exact i64 %99, 3
  %106 = getelementptr inbounds i64, i64* %96, i64 %105
  %107 = load i64*, i64** %76, align 8, !tbaa !15
  %108 = icmp eq i64* %107, null
  br i1 %108, label %111, label %109

109:                                              ; preds = %104
  %110 = bitcast i64* %107 to i8*
  tail call void @_ZdlPv(i8* nonnull %110) #26
  br label %111

111:                                              ; preds = %104, %109
  store i64* %82, i64** %76, align 8, !tbaa !15
  store i64* %106, i64** %10, align 8, !tbaa !10
  %112 = getelementptr inbounds i64, i64* %82, i64 %75
  store i64* %112, i64** %8, align 8, !tbaa !22
  br label %123

113:                                              ; preds = %73
  %114 = landingpad { i8*, i32 }
          catch i8* null
  %115 = extractvalue { i8*, i32 } %114, 0
  %116 = tail call i8* @__cxa_begin_catch(i8* %115) #25
  %117 = icmp eq i64* %82, null
  br i1 %117, label %122, label %120

118:                                              ; preds = %122
  %119 = landingpad { i8*, i32 }
          cleanup
  invoke void @__cxa_end_catch()
          to label %124 unwind label %125

120:                                              ; preds = %113
  %121 = bitcast i64* %82 to i8*
  tail call void @_ZdlPv(i8* nonnull %121) #26
  br label %122

122:                                              ; preds = %120, %113
  invoke void @__cxa_rethrow() #28
          to label %128 unwind label %118

123:                                              ; preds = %72, %111, %4
  ret void

124:                                              ; preds = %118
  resume { i8*, i32 } %119

125:                                              ; preds = %118
  %126 = landingpad { i8*, i32 }
          catch i8* null
  %127 = extractvalue { i8*, i32 } %126, 0
  tail call void @__clang_call_terminate(i8* %127) #27
  unreachable

128:                                              ; preds = %122
  unreachable
}

; Function Attrs: minsize nounwind optsize sspstrong uwtable
define linkonce_odr dso_local void @_ZNSt12_Vector_baseISt4pairIxxESaIS1_EED2Ev(%"struct.std::_Vector_base.32"* nonnull align 8 dereferenceable(24) %0) unnamed_addr #7 comdat align 2 personality i8* bitcast (i32 (...)* @__gxx_personality_v0 to i8*) {
  %2 = getelementptr inbounds %"struct.std::_Vector_base.32", %"struct.std::_Vector_base.32"* %0, i64 0, i32 0, i32 0, i32 0
  %3 = load %"struct.std::pair.36"*, %"struct.std::pair.36"** %2, align 8, !tbaa !81
  %4 = icmp eq %"struct.std::pair.36"* %3, null
  br i1 %4, label %7, label %5

5:                                                ; preds = %1
  %6 = bitcast %"struct.std::pair.36"* %3 to i8*
  tail call void @_ZdlPv(i8* nonnull %6) #26
  br label %7

7:                                                ; preds = %5, %1
  ret void
}

; Function Attrs: minsize optsize sspstrong uwtable
define linkonce_odr dso_local void @_ZNSt6vectorISt4pairIxxESaIS1_EE12emplace_backIJRxRiEEEvDpOT_(%"class.std::vector.31"* nonnull align 8 dereferenceable(24) %0, i64* nonnull align 8 dereferenceable(8) %1, i32* nonnull align 4 dereferenceable(4) %2) local_unnamed_addr #5 comdat align 2 {
  %4 = getelementptr inbounds %"class.std::vector.31", %"class.std::vector.31"* %0, i64 0, i32 0, i32 0, i32 0, i32 1
  %5 = load %"struct.std::pair.36"*, %"struct.std::pair.36"** %4, align 8, !tbaa !59
  %6 = getelementptr inbounds %"class.std::vector.31", %"class.std::vector.31"* %0, i64 0, i32 0, i32 0, i32 0, i32 2
  %7 = load %"struct.std::pair.36"*, %"struct.std::pair.36"** %6, align 8, !tbaa !124
  %8 = icmp eq %"struct.std::pair.36"* %5, %7
  br i1 %8, label %16, label %9

9:                                                ; preds = %3
  %10 = getelementptr inbounds %"struct.std::pair.36", %"struct.std::pair.36"* %5, i64 0, i32 0
  %11 = load i64, i64* %1, align 8, !tbaa !16
  store i64 %11, i64* %10, align 8, !tbaa !84
  %12 = getelementptr inbounds %"struct.std::pair.36", %"struct.std::pair.36"* %5, i64 0, i32 1
  %13 = load i32, i32* %2, align 4, !tbaa !50
  %14 = sext i32 %13 to i64
  store i64 %14, i64* %12, align 8, !tbaa !82
  %15 = getelementptr inbounds %"struct.std::pair.36", %"struct.std::pair.36"* %5, i64 1
  store %"struct.std::pair.36"* %15, %"struct.std::pair.36"** %4, align 8, !tbaa !59
  br label %17

16:                                               ; preds = %3
  tail call void @_ZNSt6vectorISt4pairIxxESaIS1_EE17_M_realloc_insertIJRxRiEEEvN9__gnu_cxx17__normal_iteratorIPS1_S3_EEDpOT_(%"class.std::vector.31"* nonnull align 8 dereferenceable(24) %0, %"struct.std::pair.36"* %5, i64* nonnull align 8 dereferenceable(8) %1, i32* nonnull align 4 dereferenceable(4) %2) #24
  br label %17

17:                                               ; preds = %16, %9
  ret void
}

; Function Attrs: inlinehint minsize optsize sspstrong uwtable
define linkonce_odr dso_local void @_ZSt9push_heapIN9__gnu_cxx17__normal_iteratorIPSt4pairIxxESt6vectorIS3_SaIS3_EEEESt7greaterIS3_EEvT_SB_T0_(%"struct.std::pair.36"* %0, %"struct.std::pair.36"* %1) local_unnamed_addr #21 comdat {
  %3 = alloca %"struct.__gnu_cxx::__ops::_Iter_comp_val", align 1
  %4 = getelementptr inbounds %"struct.__gnu_cxx::__ops::_Iter_comp_val", %"struct.__gnu_cxx::__ops::_Iter_comp_val"* %3, i64 0, i32 0, i32 0
  call void @llvm.lifetime.start.p0i8(i64 1, i8* nonnull %4) #25
  %5 = getelementptr inbounds %"struct.std::pair.36", %"struct.std::pair.36"* %1, i64 -1, i32 0
  %6 = load i64, i64* %5, align 8
  %7 = getelementptr inbounds %"struct.std::pair.36", %"struct.std::pair.36"* %1, i64 -1, i32 1
  %8 = load i64, i64* %7, align 8
  %9 = ptrtoint %"struct.std::pair.36"* %1 to i64
  %10 = ptrtoint %"struct.std::pair.36"* %0 to i64
  %11 = sub i64 %9, %10
  %12 = ashr exact i64 %11, 4
  %13 = add nsw i64 %12, -1
  call void @_ZSt11__push_heapIN9__gnu_cxx17__normal_iteratorIPSt4pairIxxESt6vectorIS3_SaIS3_EEEElS3_NS0_5__ops14_Iter_comp_valISt7greaterIS3_EEEEvT_T0_SF_T1_RT2_(%"struct.std::pair.36"* %0, i64 %13, i64 0, i64 %6, i64 %8, %"struct.__gnu_cxx::__ops::_Iter_comp_val"* nonnull align 1 dereferenceable(1) %3) #24
  call void @llvm.lifetime.end.p0i8(i64 1, i8* nonnull %4) #25
  ret void
}

; Function Attrs: minsize optsize sspstrong uwtable
define linkonce_odr dso_local void @_ZNSt6vectorISt4pairIxxESaIS1_EE17_M_realloc_insertIJRxRiEEEvN9__gnu_cxx17__normal_iteratorIPS1_S3_EEDpOT_(%"class.std::vector.31"* nonnull align 8 dereferenceable(24) %0, %"struct.std::pair.36"* %1, i64* nonnull align 8 dereferenceable(8) %2, i32* nonnull align 4 dereferenceable(4) %3) local_unnamed_addr #5 comdat align 2 personality i8* bitcast (i32 (...)* @__gxx_personality_v0 to i8*) {
  %5 = tail call i64 @_ZNKSt6vectorISt4pairIxxESaIS1_EE12_M_check_lenEmPKc(%"class.std::vector.31"* nonnull align 8 dereferenceable(24) %0, i64 1, i8* getelementptr inbounds ([26 x i8], [26 x i8]* @.str, i64 0, i64 0)) #24
  %6 = getelementptr inbounds %"class.std::vector.31", %"class.std::vector.31"* %0, i64 0, i32 0
  %7 = getelementptr inbounds %"class.std::vector.31", %"class.std::vector.31"* %0, i64 0, i32 0, i32 0, i32 0, i32 0
  %8 = load %"struct.std::pair.36"*, %"struct.std::pair.36"** %7, align 8, !tbaa !81
  %9 = getelementptr inbounds %"class.std::vector.31", %"class.std::vector.31"* %0, i64 0, i32 0, i32 0, i32 0, i32 1
  %10 = load %"struct.std::pair.36"*, %"struct.std::pair.36"** %9, align 8, !tbaa !59
  %11 = ptrtoint %"struct.std::pair.36"* %1 to i64
  %12 = ptrtoint %"struct.std::pair.36"* %8 to i64
  %13 = sub i64 %11, %12
  %14 = ashr exact i64 %13, 4
  %15 = tail call %"struct.std::pair.36"* @_ZNSt12_Vector_baseISt4pairIxxESaIS1_EE11_M_allocateEm(%"struct.std::_Vector_base.32"* nonnull align 8 dereferenceable(24) %6, i64 %5) #24
  %16 = getelementptr inbounds %"struct.std::pair.36", %"struct.std::pair.36"* %15, i64 %14, i32 0
  %17 = load i64, i64* %2, align 8, !tbaa !16
  store i64 %17, i64* %16, align 8, !tbaa !84
  %18 = getelementptr inbounds %"struct.std::pair.36", %"struct.std::pair.36"* %15, i64 %14, i32 1
  %19 = load i32, i32* %3, align 4, !tbaa !50
  %20 = sext i32 %19 to i64
  store i64 %20, i64* %18, align 8, !tbaa !82
  br label %21

21:                                               ; preds = %25, %4
  %22 = phi %"struct.std::pair.36"* [ %8, %4 ], [ %28, %25 ]
  %23 = phi %"struct.std::pair.36"* [ %15, %4 ], [ %29, %25 ]
  %24 = icmp eq %"struct.std::pair.36"* %22, %1
  br i1 %24, label %30, label %25

25:                                               ; preds = %21
  %26 = bitcast %"struct.std::pair.36"* %23 to i8*
  %27 = bitcast %"struct.std::pair.36"* %22 to i8*
  tail call void @llvm.memcpy.p0i8.p0i8.i64(i8* noundef nonnull align 8 dereferenceable(16) %26, i8* noundef nonnull align 8 dereferenceable(16) %27, i64 16, i1 false) #25, !alias.scope !125
  %28 = getelementptr inbounds %"struct.std::pair.36", %"struct.std::pair.36"* %22, i64 1
  %29 = getelementptr inbounds %"struct.std::pair.36", %"struct.std::pair.36"* %23, i64 1
  br label %21, !llvm.loop !129

30:                                               ; preds = %21, %35
  %31 = phi %"struct.std::pair.36"* [ %38, %35 ], [ %1, %21 ]
  %32 = phi %"struct.std::pair.36"* [ %33, %35 ], [ %23, %21 ]
  %33 = getelementptr inbounds %"struct.std::pair.36", %"struct.std::pair.36"* %32, i64 1
  %34 = icmp eq %"struct.std::pair.36"* %31, %10
  br i1 %34, label %39, label %35

35:                                               ; preds = %30
  %36 = bitcast %"struct.std::pair.36"* %33 to i8*
  %37 = bitcast %"struct.std::pair.36"* %31 to i8*
  tail call void @llvm.memcpy.p0i8.p0i8.i64(i8* noundef nonnull align 8 dereferenceable(16) %36, i8* noundef nonnull align 8 dereferenceable(16) %37, i64 16, i1 false) #25, !alias.scope !130
  %38 = getelementptr inbounds %"struct.std::pair.36", %"struct.std::pair.36"* %31, i64 1
  br label %30, !llvm.loop !129

39:                                               ; preds = %30
  %40 = icmp eq %"struct.std::pair.36"* %8, null
  br i1 %40, label %43, label %41

41:                                               ; preds = %39
  %42 = bitcast %"struct.std::pair.36"* %8 to i8*
  tail call void @_ZdlPv(i8* nonnull %42) #26
  br label %43

43:                                               ; preds = %39, %41
  %44 = getelementptr inbounds %"class.std::vector.31", %"class.std::vector.31"* %0, i64 0, i32 0, i32 0, i32 0, i32 2
  store %"struct.std::pair.36"* %15, %"struct.std::pair.36"** %7, align 8, !tbaa !81
  store %"struct.std::pair.36"* %33, %"struct.std::pair.36"** %9, align 8, !tbaa !59
  %45 = getelementptr inbounds %"struct.std::pair.36", %"struct.std::pair.36"* %15, i64 %5
  store %"struct.std::pair.36"* %45, %"struct.std::pair.36"** %44, align 8, !tbaa !124
  ret void
}

; Function Attrs: minsize mustprogress optsize sspstrong uwtable
define linkonce_odr dso_local i64 @_ZNKSt6vectorISt4pairIxxESaIS1_EE12_M_check_lenEmPKc(%"class.std::vector.31"* nonnull align 8 dereferenceable(24) %0, i64 %1, i8* %2) local_unnamed_addr #14 comdat align 2 {
  %4 = getelementptr inbounds %"class.std::vector.31", %"class.std::vector.31"* %0, i64 0, i32 0, i32 0, i32 0, i32 1
  %5 = load %"struct.std::pair.36"*, %"struct.std::pair.36"** %4, align 8, !tbaa !59
  %6 = getelementptr inbounds %"class.std::vector.31", %"class.std::vector.31"* %0, i64 0, i32 0, i32 0, i32 0, i32 0
  %7 = load %"struct.std::pair.36"*, %"struct.std::pair.36"** %6, align 8, !tbaa !81
  %8 = ptrtoint %"struct.std::pair.36"* %5 to i64
  %9 = ptrtoint %"struct.std::pair.36"* %7 to i64
  %10 = sub i64 %8, %9
  %11 = ashr exact i64 %10, 4
  %12 = sub nsw i64 576460752303423487, %11
  %13 = icmp ult i64 %12, %1
  br i1 %13, label %14, label %15

14:                                               ; preds = %3
  tail call void @_ZSt20__throw_length_errorPKc(i8* %2) #29
  unreachable

15:                                               ; preds = %3
  %16 = icmp ult i64 %11, %1
  %17 = select i1 %16, i64 %1, i64 %11
  %18 = add i64 %17, %11
  %19 = icmp ult i64 %18, %11
  %20 = icmp ugt i64 %18, 576460752303423487
  %21 = or i1 %19, %20
  %22 = select i1 %21, i64 576460752303423487, i64 %18
  ret i64 %22
}

; Function Attrs: minsize mustprogress optsize sspstrong uwtable
define linkonce_odr dso_local %"struct.std::pair.36"* @_ZNSt12_Vector_baseISt4pairIxxESaIS1_EE11_M_allocateEm(%"struct.std::_Vector_base.32"* nonnull align 8 dereferenceable(24) %0, i64 %1) local_unnamed_addr #14 comdat align 2 {
  %3 = icmp eq i64 %1, 0
  br i1 %3, label %7, label %4

4:                                                ; preds = %2
  %5 = bitcast %"struct.std::_Vector_base.32"* %0 to %"class.std::allocator.33"*
  %6 = tail call %"struct.std::pair.36"* @_ZNSt16allocator_traitsISaISt4pairIxxEEE8allocateERS2_m(%"class.std::allocator.33"* nonnull align 1 dereferenceable(1) %5, i64 %1) #24
  br label %7

7:                                                ; preds = %2, %4
  %8 = phi %"struct.std::pair.36"* [ %6, %4 ], [ null, %2 ]
  ret %"struct.std::pair.36"* %8
}

; Function Attrs: minsize mustprogress optsize sspstrong uwtable
define linkonce_odr dso_local %"struct.std::pair.36"* @_ZNSt16allocator_traitsISaISt4pairIxxEEE8allocateERS2_m(%"class.std::allocator.33"* nonnull align 1 dereferenceable(1) %0, i64 %1) local_unnamed_addr #14 comdat align 2 {
  %3 = bitcast %"class.std::allocator.33"* %0 to %"class.__gnu_cxx::new_allocator.34"*
  %4 = tail call %"struct.std::pair.36"* @_ZN9__gnu_cxx13new_allocatorISt4pairIxxEE8allocateEmPKv(%"class.__gnu_cxx::new_allocator.34"* nonnull align 1 dereferenceable(1) %3, i64 %1, i8* null) #24
  ret %"struct.std::pair.36"* %4
}

; Function Attrs: minsize mustprogress optsize sspstrong uwtable
define linkonce_odr dso_local %"struct.std::pair.36"* @_ZN9__gnu_cxx13new_allocatorISt4pairIxxEE8allocateEmPKv(%"class.__gnu_cxx::new_allocator.34"* nonnull align 1 dereferenceable(1) %0, i64 %1, i8* %2) local_unnamed_addr #14 comdat align 2 {
  %4 = icmp ugt i64 %1, 576460752303423487
  br i1 %4, label %5, label %9, !prof !101

5:                                                ; preds = %3
  %6 = icmp ugt i64 %1, 1152921504606846975
  br i1 %6, label %7, label %8

7:                                                ; preds = %5
  tail call void @_ZSt28__throw_bad_array_new_lengthv() #29
  unreachable

8:                                                ; preds = %5
  tail call void @_ZSt17__throw_bad_allocv() #29
  unreachable

9:                                                ; preds = %3
  %10 = shl nuw nsw i64 %1, 4
  %11 = tail call noalias nonnull i8* @_Znwm(i64 %10) #30
  %12 = bitcast i8* %11 to %"struct.std::pair.36"*
  ret %"struct.std::pair.36"* %12
}

; Function Attrs: minsize optsize sspstrong uwtable
define linkonce_odr dso_local void @_ZSt11__push_heapIN9__gnu_cxx17__normal_iteratorIPSt4pairIxxESt6vectorIS3_SaIS3_EEEElS3_NS0_5__ops14_Iter_comp_valISt7greaterIS3_EEEEvT_T0_SF_T1_RT2_(%"struct.std::pair.36"* %0, i64 %1, i64 %2, i64 %3, i64 %4, %"struct.__gnu_cxx::__ops::_Iter_comp_val"* nonnull align 1 dereferenceable(1) %5) local_unnamed_addr #5 comdat {
  br label %7

7:                                                ; preds = %25, %6
  %8 = phi i64 [ %1, %6 ], [ %10, %25 ]
  %9 = add nsw i64 %8, -1
  %10 = sdiv i64 %9, 2
  %11 = icmp sgt i64 %8, %2
  br i1 %11, label %12, label %29

12:                                               ; preds = %7
  %13 = getelementptr inbounds %"struct.std::pair.36", %"struct.std::pair.36"* %0, i64 %10, i32 0
  %14 = load i64, i64* %13, align 8, !tbaa !84
  %15 = icmp sgt i64 %14, %3
  br i1 %15, label %16, label %19

16:                                               ; preds = %12
  %17 = getelementptr inbounds %"struct.std::pair.36", %"struct.std::pair.36"* %0, i64 %10, i32 1
  %18 = load i64, i64* %17, align 8, !tbaa !16
  br label %25

19:                                               ; preds = %12
  %20 = icmp slt i64 %14, %3
  br i1 %20, label %29, label %21

21:                                               ; preds = %19
  %22 = getelementptr inbounds %"struct.std::pair.36", %"struct.std::pair.36"* %0, i64 %10, i32 1
  %23 = load i64, i64* %22, align 8, !tbaa !82
  %24 = icmp sgt i64 %23, %4
  br i1 %24, label %25, label %29

25:                                               ; preds = %16, %21
  %26 = phi i64 [ %18, %16 ], [ %23, %21 ]
  %27 = getelementptr inbounds %"struct.std::pair.36", %"struct.std::pair.36"* %0, i64 %8, i32 0
  store i64 %14, i64* %27, align 8, !tbaa !84
  %28 = getelementptr inbounds %"struct.std::pair.36", %"struct.std::pair.36"* %0, i64 %8, i32 1
  store i64 %26, i64* %28, align 8, !tbaa !82
  br label %7, !llvm.loop !134

29:                                               ; preds = %19, %7, %21
  %30 = getelementptr inbounds %"struct.std::pair.36", %"struct.std::pair.36"* %0, i64 %8, i32 0
  store i64 %3, i64* %30, align 8, !tbaa !84
  %31 = getelementptr inbounds %"struct.std::pair.36", %"struct.std::pair.36"* %0, i64 %8, i32 1
  store i64 %4, i64* %31, align 8, !tbaa !82
  ret void
}

; Function Attrs: inlinehint minsize mustprogress nounwind optsize sspstrong uwtable
define linkonce_odr dso_local zeroext i1 @_ZStltIxxEbRKSt4pairIT_T0_ES5_(%"struct.std::pair.36"* nonnull align 8 dereferenceable(16) %0, %"struct.std::pair.36"* nonnull align 8 dereferenceable(16) %1) local_unnamed_addr #17 comdat {
  %3 = getelementptr inbounds %"struct.std::pair.36", %"struct.std::pair.36"* %0, i64 0, i32 0
  %4 = load i64, i64* %3, align 8, !tbaa !84
  %5 = getelementptr inbounds %"struct.std::pair.36", %"struct.std::pair.36"* %1, i64 0, i32 0
  %6 = load i64, i64* %5, align 8, !tbaa !84
  %7 = icmp slt i64 %4, %6
  br i1 %7, label %16, label %8

8:                                                ; preds = %2
  %9 = icmp slt i64 %6, %4
  br i1 %9, label %16, label %10

10:                                               ; preds = %8
  %11 = getelementptr inbounds %"struct.std::pair.36", %"struct.std::pair.36"* %0, i64 0, i32 1
  %12 = load i64, i64* %11, align 8, !tbaa !82
  %13 = getelementptr inbounds %"struct.std::pair.36", %"struct.std::pair.36"* %1, i64 0, i32 1
  %14 = load i64, i64* %13, align 8, !tbaa !82
  %15 = icmp slt i64 %12, %14
  br label %16

16:                                               ; preds = %8, %10, %2
  %17 = phi i1 [ true, %2 ], [ false, %8 ], [ %15, %10 ]
  ret i1 %17
}

; Function Attrs: inlinehint minsize optsize sspstrong uwtable
define linkonce_odr dso_local void @_ZSt8pop_heapIN9__gnu_cxx17__normal_iteratorIPSt4pairIxxESt6vectorIS3_SaIS3_EEEESt7greaterIS3_EEvT_SB_T0_(%"struct.std::pair.36"* %0, %"struct.std::pair.36"* %1) local_unnamed_addr #21 comdat {
  %3 = alloca %"struct.__gnu_cxx::__ops::_Iter_comp_iter", align 1
  %4 = ptrtoint %"struct.std::pair.36"* %1 to i64
  %5 = ptrtoint %"struct.std::pair.36"* %0 to i64
  %6 = sub i64 %4, %5
  %7 = icmp sgt i64 %6, 16
  br i1 %7, label %8, label %11

8:                                                ; preds = %2
  %9 = getelementptr inbounds %"struct.__gnu_cxx::__ops::_Iter_comp_iter", %"struct.__gnu_cxx::__ops::_Iter_comp_iter"* %3, i64 0, i32 0, i32 0
  call void @llvm.lifetime.start.p0i8(i64 1, i8* nonnull %9) #25
  %10 = getelementptr inbounds %"struct.std::pair.36", %"struct.std::pair.36"* %1, i64 -1
  call void @_ZSt10__pop_heapIN9__gnu_cxx17__normal_iteratorIPSt4pairIxxESt6vectorIS3_SaIS3_EEEENS0_5__ops15_Iter_comp_iterISt7greaterIS3_EEEEvT_SE_SE_RT0_(%"struct.std::pair.36"* %0, %"struct.std::pair.36"* nonnull %10, %"struct.std::pair.36"* nonnull %10, %"struct.__gnu_cxx::__ops::_Iter_comp_iter"* nonnull align 1 dereferenceable(1) %3) #24
  call void @llvm.lifetime.end.p0i8(i64 1, i8* nonnull %9) #25
  br label %11

11:                                               ; preds = %8, %2
  ret void
}

; Function Attrs: inlinehint minsize mustprogress optsize sspstrong uwtable
define linkonce_odr dso_local void @_ZSt10__pop_heapIN9__gnu_cxx17__normal_iteratorIPSt4pairIxxESt6vectorIS3_SaIS3_EEEENS0_5__ops15_Iter_comp_iterISt7greaterIS3_EEEEvT_SE_SE_RT0_(%"struct.std::pair.36"* %0, %"struct.std::pair.36"* %1, %"struct.std::pair.36"* %2, %"struct.__gnu_cxx::__ops::_Iter_comp_iter"* nonnull align 1 dereferenceable(1) %3) local_unnamed_addr #10 comdat {
  %5 = getelementptr inbounds %"struct.std::pair.36", %"struct.std::pair.36"* %2, i64 0, i32 0
  %6 = load i64, i64* %5, align 8
  %7 = getelementptr inbounds %"struct.std::pair.36", %"struct.std::pair.36"* %2, i64 0, i32 1
  %8 = load i64, i64* %7, align 8
  %9 = getelementptr inbounds %"struct.std::pair.36", %"struct.std::pair.36"* %0, i64 0, i32 0
  %10 = load i64, i64* %9, align 8, !tbaa !16
  store i64 %10, i64* %5, align 8, !tbaa !84
  %11 = getelementptr inbounds %"struct.std::pair.36", %"struct.std::pair.36"* %0, i64 0, i32 1
  %12 = load i64, i64* %11, align 8, !tbaa !16
  store i64 %12, i64* %7, align 8, !tbaa !82
  %13 = ptrtoint %"struct.std::pair.36"* %1 to i64
  %14 = ptrtoint %"struct.std::pair.36"* %0 to i64
  %15 = sub i64 %13, %14
  %16 = ashr exact i64 %15, 4
  tail call void @_ZSt13__adjust_heapIN9__gnu_cxx17__normal_iteratorIPSt4pairIxxESt6vectorIS3_SaIS3_EEEElS3_NS0_5__ops15_Iter_comp_iterISt7greaterIS3_EEEEvT_T0_SF_T1_T2_(%"struct.std::pair.36"* %0, i64 0, i64 %16, i64 %6, i64 %8) #24
  ret void
}

; Function Attrs: minsize optsize sspstrong uwtable
define linkonce_odr dso_local void @_ZSt13__adjust_heapIN9__gnu_cxx17__normal_iteratorIPSt4pairIxxESt6vectorIS3_SaIS3_EEEElS3_NS0_5__ops15_Iter_comp_iterISt7greaterIS3_EEEEvT_T0_SF_T1_T2_(%"struct.std::pair.36"* %0, i64 %1, i64 %2, i64 %3, i64 %4) local_unnamed_addr #5 comdat {
  %6 = alloca %"struct.__gnu_cxx::__ops::_Iter_comp_val", align 1
  %7 = add nsw i64 %2, -1
  %8 = sdiv i64 %7, 2
  br label %9

9:                                                ; preds = %12, %5
  %10 = phi i64 [ %1, %5 ], [ %19, %12 ]
  %11 = icmp slt i64 %10, %8
  br i1 %11, label %12, label %25

12:                                               ; preds = %9
  %13 = shl i64 %10, 1
  %14 = add i64 %13, 2
  %15 = getelementptr inbounds %"struct.std::pair.36", %"struct.std::pair.36"* %0, i64 %14
  %16 = or i64 %13, 1
  %17 = getelementptr inbounds %"struct.std::pair.36", %"struct.std::pair.36"* %0, i64 %16
  %18 = tail call zeroext i1 @_ZStltIxxEbRKSt4pairIT_T0_ES5_(%"struct.std::pair.36"* nonnull align 8 dereferenceable(16) %17, %"struct.std::pair.36"* nonnull align 8 dereferenceable(16) %15) #24
  %19 = select i1 %18, i64 %16, i64 %14
  %20 = getelementptr inbounds %"struct.std::pair.36", %"struct.std::pair.36"* %0, i64 %19, i32 0
  %21 = getelementptr inbounds %"struct.std::pair.36", %"struct.std::pair.36"* %0, i64 %10, i32 0
  %22 = bitcast i64* %20 to <2 x i64>*
  %23 = load <2 x i64>, <2 x i64>* %22, align 8, !tbaa !16
  %24 = bitcast i64* %21 to <2 x i64>*
  store <2 x i64> %23, <2 x i64>* %24, align 8, !tbaa !16
  br label %9, !llvm.loop !135

25:                                               ; preds = %9
  %26 = and i64 %2, 1
  %27 = icmp eq i64 %26, 0
  br i1 %27, label %28, label %40

28:                                               ; preds = %25
  %29 = add nsw i64 %2, -2
  %30 = sdiv i64 %29, 2
  %31 = icmp eq i64 %10, %30
  br i1 %31, label %32, label %40

32:                                               ; preds = %28
  %33 = shl i64 %10, 1
  %34 = or i64 %33, 1
  %35 = getelementptr inbounds %"struct.std::pair.36", %"struct.std::pair.36"* %0, i64 %34, i32 0
  %36 = getelementptr inbounds %"struct.std::pair.36", %"struct.std::pair.36"* %0, i64 %10, i32 0
  %37 = bitcast i64* %35 to <2 x i64>*
  %38 = load <2 x i64>, <2 x i64>* %37, align 8, !tbaa !16
  %39 = bitcast i64* %36 to <2 x i64>*
  store <2 x i64> %38, <2 x i64>* %39, align 8, !tbaa !16
  br label %40

40:                                               ; preds = %32, %28, %25
  %41 = phi i64 [ %34, %32 ], [ %10, %28 ], [ %10, %25 ]
  %42 = getelementptr inbounds %"struct.__gnu_cxx::__ops::_Iter_comp_val", %"struct.__gnu_cxx::__ops::_Iter_comp_val"* %6, i64 0, i32 0, i32 0
  call void @llvm.lifetime.start.p0i8(i64 1, i8* nonnull %42) #25
  call void @_ZSt11__push_heapIN9__gnu_cxx17__normal_iteratorIPSt4pairIxxESt6vectorIS3_SaIS3_EEEElS3_NS0_5__ops14_Iter_comp_valISt7greaterIS3_EEEEvT_T0_SF_T1_RT2_(%"struct.std::pair.36"* %0, i64 %41, i64 %1, i64 %3, i64 %4, %"struct.__gnu_cxx::__ops::_Iter_comp_val"* nonnull align 1 dereferenceable(1) %6) #24
  call void @llvm.lifetime.end.p0i8(i64 1, i8* nonnull %42) #25
  ret void
}

; Function Attrs: minsize optsize sspstrong uwtable
define linkonce_odr dso_local void @_ZNSt6vectorISt4pairIxxESaIS1_EE12emplace_backIJRxRKxEEEvDpOT_(%"class.std::vector.31"* nonnull align 8 dereferenceable(24) %0, i64* nonnull align 8 dereferenceable(8) %1, i64* nonnull align 8 dereferenceable(8) %2) local_unnamed_addr #5 comdat align 2 {
  %4 = getelementptr inbounds %"class.std::vector.31", %"class.std::vector.31"* %0, i64 0, i32 0, i32 0, i32 0, i32 1
  %5 = load %"struct.std::pair.36"*, %"struct.std::pair.36"** %4, align 8, !tbaa !59
  %6 = getelementptr inbounds %"class.std::vector.31", %"class.std::vector.31"* %0, i64 0, i32 0, i32 0, i32 0, i32 2
  %7 = load %"struct.std::pair.36"*, %"struct.std::pair.36"** %6, align 8, !tbaa !124
  %8 = icmp eq %"struct.std::pair.36"* %5, %7
  br i1 %8, label %15, label %9

9:                                                ; preds = %3
  %10 = getelementptr inbounds %"struct.std::pair.36", %"struct.std::pair.36"* %5, i64 0, i32 0
  %11 = load i64, i64* %1, align 8, !tbaa !16
  store i64 %11, i64* %10, align 8, !tbaa !84
  %12 = getelementptr inbounds %"struct.std::pair.36", %"struct.std::pair.36"* %5, i64 0, i32 1
  %13 = load i64, i64* %2, align 8, !tbaa !16
  store i64 %13, i64* %12, align 8, !tbaa !82
  %14 = getelementptr inbounds %"struct.std::pair.36", %"struct.std::pair.36"* %5, i64 1
  store %"struct.std::pair.36"* %14, %"struct.std::pair.36"** %4, align 8, !tbaa !59
  br label %16

15:                                               ; preds = %3
  tail call void @_ZNSt6vectorISt4pairIxxESaIS1_EE17_M_realloc_insertIJRxRKxEEEvN9__gnu_cxx17__normal_iteratorIPS1_S3_EEDpOT_(%"class.std::vector.31"* nonnull align 8 dereferenceable(24) %0, %"struct.std::pair.36"* %5, i64* nonnull align 8 dereferenceable(8) %1, i64* nonnull align 8 dereferenceable(8) %2) #24
  br label %16

16:                                               ; preds = %15, %9
  ret void
}

; Function Attrs: minsize optsize sspstrong uwtable
define linkonce_odr dso_local void @_ZNSt6vectorISt4pairIxxESaIS1_EE17_M_realloc_insertIJRxRKxEEEvN9__gnu_cxx17__normal_iteratorIPS1_S3_EEDpOT_(%"class.std::vector.31"* nonnull align 8 dereferenceable(24) %0, %"struct.std::pair.36"* %1, i64* nonnull align 8 dereferenceable(8) %2, i64* nonnull align 8 dereferenceable(8) %3) local_unnamed_addr #5 comdat align 2 personality i8* bitcast (i32 (...)* @__gxx_personality_v0 to i8*) {
  %5 = tail call i64 @_ZNKSt6vectorISt4pairIxxESaIS1_EE12_M_check_lenEmPKc(%"class.std::vector.31"* nonnull align 8 dereferenceable(24) %0, i64 1, i8* getelementptr inbounds ([26 x i8], [26 x i8]* @.str, i64 0, i64 0)) #24
  %6 = getelementptr inbounds %"class.std::vector.31", %"class.std::vector.31"* %0, i64 0, i32 0
  %7 = getelementptr inbounds %"class.std::vector.31", %"class.std::vector.31"* %0, i64 0, i32 0, i32 0, i32 0, i32 0
  %8 = load %"struct.std::pair.36"*, %"struct.std::pair.36"** %7, align 8, !tbaa !81
  %9 = getelementptr inbounds %"class.std::vector.31", %"class.std::vector.31"* %0, i64 0, i32 0, i32 0, i32 0, i32 1
  %10 = load %"struct.std::pair.36"*, %"struct.std::pair.36"** %9, align 8, !tbaa !59
  %11 = ptrtoint %"struct.std::pair.36"* %1 to i64
  %12 = ptrtoint %"struct.std::pair.36"* %8 to i64
  %13 = sub i64 %11, %12
  %14 = ashr exact i64 %13, 4
  %15 = tail call %"struct.std::pair.36"* @_ZNSt12_Vector_baseISt4pairIxxESaIS1_EE11_M_allocateEm(%"struct.std::_Vector_base.32"* nonnull align 8 dereferenceable(24) %6, i64 %5) #24
  %16 = getelementptr inbounds %"struct.std::pair.36", %"struct.std::pair.36"* %15, i64 %14, i32 0
  %17 = load i64, i64* %2, align 8, !tbaa !16
  store i64 %17, i64* %16, align 8, !tbaa !84
  %18 = getelementptr inbounds %"struct.std::pair.36", %"struct.std::pair.36"* %15, i64 %14, i32 1
  %19 = load i64, i64* %3, align 8, !tbaa !16
  store i64 %19, i64* %18, align 8, !tbaa !82
  br label %20

20:                                               ; preds = %24, %4
  %21 = phi %"struct.std::pair.36"* [ %8, %4 ], [ %27, %24 ]
  %22 = phi %"struct.std::pair.36"* [ %15, %4 ], [ %28, %24 ]
  %23 = icmp eq %"struct.std::pair.36"* %21, %1
  br i1 %23, label %29, label %24

24:                                               ; preds = %20
  %25 = bitcast %"struct.std::pair.36"* %22 to i8*
  %26 = bitcast %"struct.std::pair.36"* %21 to i8*
  tail call void @llvm.memcpy.p0i8.p0i8.i64(i8* noundef nonnull align 8 dereferenceable(16) %25, i8* noundef nonnull align 8 dereferenceable(16) %26, i64 16, i1 false) #25, !alias.scope !136
  %27 = getelementptr inbounds %"struct.std::pair.36", %"struct.std::pair.36"* %21, i64 1
  %28 = getelementptr inbounds %"struct.std::pair.36", %"struct.std::pair.36"* %22, i64 1
  br label %20, !llvm.loop !129

29:                                               ; preds = %20, %34
  %30 = phi %"struct.std::pair.36"* [ %37, %34 ], [ %1, %20 ]
  %31 = phi %"struct.std::pair.36"* [ %32, %34 ], [ %22, %20 ]
  %32 = getelementptr inbounds %"struct.std::pair.36", %"struct.std::pair.36"* %31, i64 1
  %33 = icmp eq %"struct.std::pair.36"* %30, %10
  br i1 %33, label %38, label %34

34:                                               ; preds = %29
  %35 = bitcast %"struct.std::pair.36"* %32 to i8*
  %36 = bitcast %"struct.std::pair.36"* %30 to i8*
  tail call void @llvm.memcpy.p0i8.p0i8.i64(i8* noundef nonnull align 8 dereferenceable(16) %35, i8* noundef nonnull align 8 dereferenceable(16) %36, i64 16, i1 false) #25, !alias.scope !140
  %37 = getelementptr inbounds %"struct.std::pair.36", %"struct.std::pair.36"* %30, i64 1
  br label %29, !llvm.loop !129

38:                                               ; preds = %29
  %39 = icmp eq %"struct.std::pair.36"* %8, null
  br i1 %39, label %42, label %40

40:                                               ; preds = %38
  %41 = bitcast %"struct.std::pair.36"* %8 to i8*
  tail call void @_ZdlPv(i8* nonnull %41) #26
  br label %42

42:                                               ; preds = %38, %40
  %43 = getelementptr inbounds %"class.std::vector.31", %"class.std::vector.31"* %0, i64 0, i32 0, i32 0, i32 0, i32 2
  store %"struct.std::pair.36"* %15, %"struct.std::pair.36"** %7, align 8, !tbaa !81
  store %"struct.std::pair.36"* %32, %"struct.std::pair.36"** %9, align 8, !tbaa !59
  %44 = getelementptr inbounds %"struct.std::pair.36", %"struct.std::pair.36"* %15, i64 %5
  store %"struct.std::pair.36"* %44, %"struct.std::pair.36"** %43, align 8, !tbaa !124
  ret void
}

; Function Attrs: minsize mustprogress optsize sspstrong uwtable
define linkonce_odr dso_local void @_ZSt9__reverseIN9__gnu_cxx17__normal_iteratorIPxSt6vectorIxSaIxEEEEEvT_S7_St26random_access_iterator_tag(i64* %0, i64* %1) local_unnamed_addr #14 comdat {
  %3 = icmp eq i64* %0, %1
  br i1 %3, label %13, label %4

4:                                                ; preds = %2, %9
  %5 = phi i64* [ %12, %9 ], [ %0, %2 ]
  %6 = phi i64* [ %7, %9 ], [ %1, %2 ]
  %7 = getelementptr inbounds i64, i64* %6, i64 -1
  %8 = icmp ult i64* %5, %7
  br i1 %8, label %9, label %13

9:                                                ; preds = %4
  %10 = load i64, i64* %5, align 8, !tbaa !16
  %11 = load i64, i64* %7, align 8, !tbaa !16
  store i64 %11, i64* %5, align 8, !tbaa !16
  store i64 %10, i64* %7, align 8, !tbaa !16
  %12 = getelementptr inbounds i64, i64* %5, i64 1
  br label %4, !llvm.loop !144

13:                                               ; preds = %4, %2
  ret void
}

; Function Attrs: minsize nounwind optsize sspstrong uwtable
define linkonce_odr dso_local void @_ZNSt12_Vector_baseINSt7__cxx1112basic_stringIcSt11char_traitsIcESaIcEEESaIS5_EED2Ev(%"struct.std::_Vector_base.42"* nonnull align 8 dereferenceable(24) %0) unnamed_addr #7 comdat align 2 personality i8* bitcast (i32 (...)* @__gxx_personality_v0 to i8*) {
  %2 = getelementptr inbounds %"struct.std::_Vector_base.42", %"struct.std::_Vector_base.42"* %0, i64 0, i32 0, i32 0, i32 0
  %3 = load %"class.std::__cxx11::basic_string"*, %"class.std::__cxx11::basic_string"** %2, align 8, !tbaa !78
  %4 = icmp eq %"class.std::__cxx11::basic_string"* %3, null
  br i1 %4, label %7, label %5

5:                                                ; preds = %1
  %6 = bitcast %"class.std::__cxx11::basic_string"* %3 to i8*
  tail call void @_ZdlPv(i8* nonnull %6) #26
  br label %7

7:                                                ; preds = %5, %1
  ret void
}

; Function Attrs: minsize mustprogress optsize sspstrong uwtable
define linkonce_odr dso_local void @_ZNSt12_Destroy_auxILb0EE9__destroyIPNSt7__cxx1112basic_stringIcSt11char_traitsIcESaIcEEEEEvT_S9_(%"class.std::__cxx11::basic_string"* %0, %"class.std::__cxx11::basic_string"* %1) local_unnamed_addr #14 comdat align 2 {
  br label %3

3:                                                ; preds = %6, %2
  %4 = phi %"class.std::__cxx11::basic_string"* [ %0, %2 ], [ %7, %6 ]
  %5 = icmp eq %"class.std::__cxx11::basic_string"* %4, %1
  br i1 %5, label %8, label %6

6:                                                ; preds = %3
  tail call void @_ZNSt7__cxx1112basic_stringIcSt11char_traitsIcESaIcEED2Ev(%"class.std::__cxx11::basic_string"* nonnull align 8 dereferenceable(32) %4) #26
  %7 = getelementptr inbounds %"class.std::__cxx11::basic_string", %"class.std::__cxx11::basic_string"* %4, i64 1
  br label %3, !llvm.loop !145

8:                                                ; preds = %3
  ret void
}

; Function Attrs: minsize optsize sspstrong uwtable
define linkonce_odr dso_local void @_ZNSt6vectorINSt7__cxx1112basic_stringIcSt11char_traitsIcESaIcEEESaIS5_EE17_M_realloc_insertIJRKS5_EEEvN9__gnu_cxx17__normal_iteratorIPS5_S7_EEDpOT_(%"class.std::vector.41"* nonnull align 8 dereferenceable(24) %0, %"class.std::__cxx11::basic_string"* %1, %"class.std::__cxx11::basic_string"* nonnull align 8 dereferenceable(32) %2) local_unnamed_addr #5 comdat align 2 personality i8* bitcast (i32 (...)* @__gxx_personality_v0 to i8*) {
  %4 = tail call i64 @_ZNKSt6vectorINSt7__cxx1112basic_stringIcSt11char_traitsIcESaIcEEESaIS5_EE12_M_check_lenEmPKc(%"class.std::vector.41"* nonnull align 8 dereferenceable(24) %0, i64 1, i8* getelementptr inbounds ([26 x i8], [26 x i8]* @.str, i64 0, i64 0)) #24
  %5 = getelementptr inbounds %"class.std::vector.41", %"class.std::vector.41"* %0, i64 0, i32 0
  %6 = getelementptr inbounds %"class.std::vector.41", %"class.std::vector.41"* %0, i64 0, i32 0, i32 0, i32 0, i32 0
  %7 = load %"class.std::__cxx11::basic_string"*, %"class.std::__cxx11::basic_string"** %6, align 8, !tbaa !78
  %8 = getelementptr inbounds %"class.std::vector.41", %"class.std::vector.41"* %0, i64 0, i32 0, i32 0, i32 0, i32 1
  %9 = load %"class.std::__cxx11::basic_string"*, %"class.std::__cxx11::basic_string"** %8, align 8, !tbaa !75
  %10 = ptrtoint %"class.std::__cxx11::basic_string"* %1 to i64
  %11 = ptrtoint %"class.std::__cxx11::basic_string"* %7 to i64
  %12 = sub i64 %10, %11
  %13 = ashr exact i64 %12, 5
  %14 = tail call %"class.std::__cxx11::basic_string"* @_ZNSt12_Vector_baseINSt7__cxx1112basic_stringIcSt11char_traitsIcESaIcEEESaIS5_EE11_M_allocateEm(%"struct.std::_Vector_base.42"* nonnull align 8 dereferenceable(24) %5, i64 %4) #24
  %15 = getelementptr inbounds %"class.std::__cxx11::basic_string", %"class.std::__cxx11::basic_string"* %14, i64 %13
  invoke void @_ZNSt7__cxx1112basic_stringIcSt11char_traitsIcESaIcEEC2ERKS4_(%"class.std::__cxx11::basic_string"* nonnull align 8 dereferenceable(32) %15, %"class.std::__cxx11::basic_string"* nonnull align 8 dereferenceable(32) %2) #24
          to label %16 unwind label %27

16:                                               ; preds = %3
  %17 = bitcast %"class.std::vector.41"* %0 to %"class.std::allocator.43"*
  %18 = tail call %"class.std::__cxx11::basic_string"* @_ZSt14__relocate_a_1IPNSt7__cxx1112basic_stringIcSt11char_traitsIcESaIcEEES6_SaIS5_EET0_T_S9_S8_RT1_(%"class.std::__cxx11::basic_string"* %7, %"class.std::__cxx11::basic_string"* %1, %"class.std::__cxx11::basic_string"* %14, %"class.std::allocator.43"* nonnull align 1 dereferenceable(1) %17) #26
  %19 = getelementptr inbounds %"class.std::__cxx11::basic_string", %"class.std::__cxx11::basic_string"* %18, i64 1
  %20 = tail call %"class.std::__cxx11::basic_string"* @_ZSt14__relocate_a_1IPNSt7__cxx1112basic_stringIcSt11char_traitsIcESaIcEEES6_SaIS5_EET0_T_S9_S8_RT1_(%"class.std::__cxx11::basic_string"* %1, %"class.std::__cxx11::basic_string"* %9, %"class.std::__cxx11::basic_string"* nonnull %19, %"class.std::allocator.43"* nonnull align 1 dereferenceable(1) %17) #26
  %21 = icmp eq %"class.std::__cxx11::basic_string"* %7, null
  br i1 %21, label %24, label %22

22:                                               ; preds = %16
  %23 = bitcast %"class.std::__cxx11::basic_string"* %7 to i8*
  tail call void @_ZdlPv(i8* nonnull %23) #26
  br label %24

24:                                               ; preds = %16, %22
  %25 = getelementptr inbounds %"class.std::vector.41", %"class.std::vector.41"* %0, i64 0, i32 0, i32 0, i32 0, i32 2
  store %"class.std::__cxx11::basic_string"* %14, %"class.std::__cxx11::basic_string"** %6, align 8, !tbaa !78
  store %"class.std::__cxx11::basic_string"* %20, %"class.std::__cxx11::basic_string"** %8, align 8, !tbaa !75
  %26 = getelementptr inbounds %"class.std::__cxx11::basic_string", %"class.std::__cxx11::basic_string"* %14, i64 %4
  store %"class.std::__cxx11::basic_string"* %26, %"class.std::__cxx11::basic_string"** %25, align 8, !tbaa !77
  ret void

27:                                               ; preds = %3
  %28 = landingpad { i8*, i32 }
          catch i8* null
  %29 = extractvalue { i8*, i32 } %28, 0
  %30 = tail call i8* @__cxa_begin_catch(i8* %29) #25
  %31 = icmp eq %"class.std::__cxx11::basic_string"* %14, null
  br i1 %31, label %32, label %33

32:                                               ; preds = %27
  tail call void @_ZNSt7__cxx1112basic_stringIcSt11char_traitsIcESaIcEED2Ev(%"class.std::__cxx11::basic_string"* nonnull align 8 dereferenceable(32) %15) #26
  br label %38

33:                                               ; preds = %27
  invoke void @_ZNSt12_Destroy_auxILb0EE9__destroyIPNSt7__cxx1112basic_stringIcSt11char_traitsIcESaIcEEEEEvT_S9_(%"class.std::__cxx11::basic_string"* nonnull %14, %"class.std::__cxx11::basic_string"* nonnull %14) #24
          to label %36 unwind label %34

34:                                               ; preds = %33, %38
  %35 = landingpad { i8*, i32 }
          cleanup
  invoke void @__cxa_end_catch()
          to label %39 unwind label %40

36:                                               ; preds = %33
  %37 = bitcast %"class.std::__cxx11::basic_string"* %14 to i8*
  tail call void @_ZdlPv(i8* nonnull %37) #26
  br label %38

38:                                               ; preds = %36, %32
  invoke void @__cxa_rethrow() #28
          to label %43 unwind label %34

39:                                               ; preds = %34
  resume { i8*, i32 } %35

40:                                               ; preds = %34
  %41 = landingpad { i8*, i32 }
          catch i8* null
  %42 = extractvalue { i8*, i32 } %41, 0
  tail call void @__clang_call_terminate(i8* %42) #27
  unreachable

43:                                               ; preds = %38
  unreachable
}

; Function Attrs: minsize optsize sspstrong uwtable
declare void @_ZNSt7__cxx1112basic_stringIcSt11char_traitsIcESaIcEEC2ERKS4_(%"class.std::__cxx11::basic_string"* nonnull align 8 dereferenceable(32), %"class.std::__cxx11::basic_string"* nonnull align 8 dereferenceable(32)) unnamed_addr #5 align 2

; Function Attrs: minsize mustprogress optsize sspstrong uwtable
define linkonce_odr dso_local i64 @_ZNKSt6vectorINSt7__cxx1112basic_stringIcSt11char_traitsIcESaIcEEESaIS5_EE12_M_check_lenEmPKc(%"class.std::vector.41"* nonnull align 8 dereferenceable(24) %0, i64 %1, i8* %2) local_unnamed_addr #14 comdat align 2 {
  %4 = getelementptr inbounds %"class.std::vector.41", %"class.std::vector.41"* %0, i64 0, i32 0, i32 0, i32 0, i32 1
  %5 = load %"class.std::__cxx11::basic_string"*, %"class.std::__cxx11::basic_string"** %4, align 8, !tbaa !75
  %6 = getelementptr inbounds %"class.std::vector.41", %"class.std::vector.41"* %0, i64 0, i32 0, i32 0, i32 0, i32 0
  %7 = load %"class.std::__cxx11::basic_string"*, %"class.std::__cxx11::basic_string"** %6, align 8, !tbaa !78
  %8 = ptrtoint %"class.std::__cxx11::basic_string"* %5 to i64
  %9 = ptrtoint %"class.std::__cxx11::basic_string"* %7 to i64
  %10 = sub i64 %8, %9
  %11 = ashr exact i64 %10, 5
  %12 = sub nsw i64 288230376151711743, %11
  %13 = icmp ult i64 %12, %1
  br i1 %13, label %14, label %15

14:                                               ; preds = %3
  tail call void @_ZSt20__throw_length_errorPKc(i8* %2) #29
  unreachable

15:                                               ; preds = %3
  %16 = icmp ult i64 %11, %1
  %17 = select i1 %16, i64 %1, i64 %11
  %18 = add i64 %17, %11
  %19 = icmp ult i64 %18, %11
  %20 = icmp ugt i64 %18, 288230376151711743
  %21 = or i1 %19, %20
  %22 = select i1 %21, i64 288230376151711743, i64 %18
  ret i64 %22
}

; Function Attrs: minsize mustprogress optsize sspstrong uwtable
define linkonce_odr dso_local %"class.std::__cxx11::basic_string"* @_ZNSt12_Vector_baseINSt7__cxx1112basic_stringIcSt11char_traitsIcESaIcEEESaIS5_EE11_M_allocateEm(%"struct.std::_Vector_base.42"* nonnull align 8 dereferenceable(24) %0, i64 %1) local_unnamed_addr #14 comdat align 2 {
  %3 = icmp eq i64 %1, 0
  br i1 %3, label %7, label %4

4:                                                ; preds = %2
  %5 = bitcast %"struct.std::_Vector_base.42"* %0 to %"class.std::allocator.43"*
  %6 = tail call %"class.std::__cxx11::basic_string"* @_ZNSt16allocator_traitsISaINSt7__cxx1112basic_stringIcSt11char_traitsIcESaIcEEEEE8allocateERS6_m(%"class.std::allocator.43"* nonnull align 1 dereferenceable(1) %5, i64 %1) #24
  br label %7

7:                                                ; preds = %2, %4
  %8 = phi %"class.std::__cxx11::basic_string"* [ %6, %4 ], [ null, %2 ]
  ret %"class.std::__cxx11::basic_string"* %8
}

; Function Attrs: minsize mustprogress optsize sspstrong uwtable
