; ModuleID = 'Project_CodeNet_C++1400/p03702/s532773763.cpp'
source_filename = "Project_CodeNet_C++1400/p03702/s532773763.cpp"
target datalayout = "e-m:e-i64:64-f80:128-n8:16:32:64-S128"
target triple = "x86_64-unknown-linux-gnu"

%"class.std::ios_base::Init" = type { i8 }
%"class.std::basic_istream" = type { i32 (...)**, i64, %"class.std::basic_ios" }
%"class.std::basic_ios" = type { %"class.std::ios_base", %"class.std::basic_ostream"*, i8, i8, %"class.std::basic_streambuf"*, %"class.std::ctype"*, %"class.std::num_put"*, %"class.std::num_get"* }
%"class.std::ios_base" = type { i32 (...)**, i64, i64, i32, i32, i32, %"struct.std::ios_base::_Callback_list"*, %"struct.std::ios_base::_Words", [8 x %"struct.std::ios_base::_Words"], i32, %"struct.std::ios_base::_Words"*, %"class.std::locale" }
%"struct.std::ios_base::_Callback_list" = type { %"struct.std::ios_base::_Callback_list"*, void (i32, %"class.std::ios_base"*, i32)*, i32, i32 }
%"struct.std::ios_base::_Words" = type { i8*, i64 }
%"class.std::locale" = type { %"class.std::locale::_Impl"* }
%"class.std::locale::_Impl" = type { i32, %"class.std::locale::facet"**, i64, %"class.std::locale::facet"**, i8** }
%"class.std::locale::facet" = type <{ i32 (...)**, i32, [4 x i8] }>
%"class.std::basic_ostream" = type { i32 (...)**, %"class.std::basic_ios" }
%"class.std::basic_streambuf" = type { i32 (...)**, i8*, i8*, i8*, i8*, i8*, i8*, %"class.std::locale" }
%"class.std::ctype" = type <{ %"class.std::locale::facet.base", [4 x i8], %struct.__locale_struct*, i8, [7 x i8], i32*, i32*, i16*, i8, [256 x i8], [256 x i8], i8, [6 x i8] }>
%"class.std::locale::facet.base" = type <{ i32 (...)**, i32 }>
%struct.__locale_struct = type { [13 x %struct.__locale_data*], i16*, i32*, i32*, [13 x i8*] }
%struct.__locale_data = type opaque
%"class.std::num_put" = type { %"class.std::locale::facet.base", [4 x i8] }
%"class.std::num_get" = type { %"class.std::locale::facet.base", [4 x i8] }
%"class.std::vector" = type { %"struct.std::_Vector_base" }
%"struct.std::_Vector_base" = type { %"struct.std::_Vector_base<long long, std::allocator<long long> >::_Vector_impl" }
%"struct.std::_Vector_base<long long, std::allocator<long long> >::_Vector_impl" = type { i64*, i64*, i64* }
%"class.std::allocator" = type { i8 }
%"class.__gnu_cxx::new_allocator" = type { i8 }

$_ZSt4acosIiEN9__gnu_cxx11__enable_ifIXsr12__is_integerIT_EE7__valueEdE6__typeES2_ = comdat any

$_ZNSaIxEC2Ev = comdat any

$_ZNSt6vectorIxSaIxEEC2EmRKS0_ = comdat any

$_ZNSaIxED2Ev = comdat any

$_ZNSt6vectorIxSaIxEEixEm = comdat any

$_ZNSt6vectorIxSaIxEED2Ev = comdat any

$_ZN9__gnu_cxx13new_allocatorIxEC2Ev = comdat any

$_ZN9__gnu_cxx13new_allocatorIxED2Ev = comdat any

$_ZNSt12_Vector_baseIxSaIxEEC2EmRKS0_ = comdat any

$_ZNSt6vectorIxSaIxEE21_M_default_initializeEm = comdat any

$_ZNSt12_Vector_baseIxSaIxEED2Ev = comdat any

$_ZNSt12_Vector_baseIxSaIxEE12_Vector_implC2ERKS0_ = comdat any

$_ZNSt12_Vector_baseIxSaIxEE17_M_create_storageEm = comdat any

$_ZNSt12_Vector_baseIxSaIxEE12_Vector_implD2Ev = comdat any

$_ZNSaIxEC2ERKS_ = comdat any

$_ZN9__gnu_cxx13new_allocatorIxEC2ERKS1_ = comdat any

$_ZNSt12_Vector_baseIxSaIxEE11_M_allocateEm = comdat any

$_ZNSt16allocator_traitsISaIxEE8allocateERS0_m = comdat any

$_ZN9__gnu_cxx13new_allocatorIxE8allocateEmPKv = comdat any

$_ZNK9__gnu_cxx13new_allocatorIxE8max_sizeEv = comdat any

$_ZSt27__uninitialized_default_n_aIPxmxET_S1_T0_RSaIT1_E = comdat any

$_ZNSt12_Vector_baseIxSaIxEE19_M_get_Tp_allocatorEv = comdat any

$_ZSt25__uninitialized_default_nIPxmET_S1_T0_ = comdat any

$_ZNSt27__uninitialized_default_n_1ILb1EE18__uninit_default_nIPxmEET_S3_T0_ = comdat any

$_ZSt6fill_nIPxmxET_S1_T0_RKT1_ = comdat any

$_ZSt10__fill_n_aIPxmxEN9__gnu_cxx11__enable_ifIXsr11__is_scalarIT1_EE7__valueET_E6__typeES4_T0_RKS3_ = comdat any

$_ZSt12__niter_baseIPxENSt11_Niter_baseIT_E13iterator_typeES2_ = comdat any

$_ZNSt10_Iter_baseIPxLb0EE7_S_baseES0_ = comdat any

$_ZNSt12_Vector_baseIxSaIxEE13_M_deallocateEPxm = comdat any

$__clang_call_terminate = comdat any

$_ZNSt16allocator_traitsISaIxEE10deallocateERS0_Pxm = comdat any

$_ZN9__gnu_cxx13new_allocatorIxE10deallocateEPxm = comdat any

$_ZSt8_DestroyIPxxEvT_S1_RSaIT0_E = comdat any

$_ZSt8_DestroyIPxEvT_S1_ = comdat any

$_ZNSt12_Destroy_auxILb1EE9__destroyIPxEEvT_S3_ = comdat any

@_ZStL8__ioinit = internal global %"class.std::ios_base::Init" zeroinitializer, align 1
@__dso_handle = external global i8
@dy = global [8 x i64] [i64 1, i64 0, i64 -1, i64 0, i64 1, i64 -1, i64 1, i64 -1], align 16
@dx = global [8 x i64] [i64 0, i64 1, i64 0, i64 -1, i64 1, i64 -1, i64 -1, i64 1], align 16
@_ZL2pi = internal global double 0.000000e+00, align 8
@_ZSt3cin = external global %"class.std::basic_istream", align 8
@_ZSt4cout = external global %"class.std::basic_ostream", align 8
@llvm.global_ctors = appending global [1 x { i32, void ()*, i8* }] [{ i32, void ()*, i8* } { i32 65535, void ()* @_GLOBAL__sub_I_s532773763.cpp, i8* null }]
@x = common global i32 0
@y = common global i32 0
@x.2 = common global i32 0
@y.3 = common global i32 0
@x.4 = common global i32 0
@y.5 = common global i32 0
@x.6 = common global i32 0
@y.7 = common global i32 0
@x.8 = common global i32 0
@y.9 = common global i32 0
@x.10 = common global i32 0
@y.11 = common global i32 0
@x.12 = common global i32 0
@y.13 = common global i32 0
@x.14 = common global i32 0
@y.15 = common global i32 0
@x.16 = common global i32 0
@y.17 = common global i32 0
@x.18 = common global i32 0
@y.19 = common global i32 0
@x.20 = common global i32 0
@y.21 = common global i32 0
@x.22 = common global i32 0
@y.23 = common global i32 0
@x.24 = common global i32 0
@y.25 = common global i32 0
@x.26 = common global i32 0
@y.27 = common global i32 0
@x.28 = common global i32 0
@y.29 = common global i32 0
@x.30 = common global i32 0
@y.31 = common global i32 0
@x.32 = common global i32 0
@y.33 = common global i32 0
@x.34 = common global i32 0
@y.35 = common global i32 0
@x.36 = common global i32 0
@y.37 = common global i32 0
@x.38 = common global i32 0
@y.39 = common global i32 0
@x.40 = common global i32 0
@y.41 = common global i32 0
@x.42 = common global i32 0
@y.43 = common global i32 0
@x.44 = common global i32 0
@y.45 = common global i32 0
@x.46 = common global i32 0
@y.47 = common global i32 0
@x.48 = common global i32 0
@y.49 = common global i32 0
@x.50 = common global i32 0
@y.51 = common global i32 0
@x.52 = common global i32 0
@y.53 = common global i32 0
@x.54 = common global i32 0
@y.55 = common global i32 0
@x.56 = common global i32 0
@y.57 = common global i32 0
@x.58 = common global i32 0
@y.59 = common global i32 0
@x.60 = common global i32 0
@y.61 = common global i32 0
@x.62 = common global i32 0
@y.63 = common global i32 0
@x.64 = common global i32 0
@y.65 = common global i32 0
@x.66 = common global i32 0
@y.67 = common global i32 0
@x.68 = common global i32 0
@y.69 = common global i32 0
@x.70 = common global i32 0
@y.71 = common global i32 0
@x.72 = common global i32 0
@y.73 = common global i32 0
@x.74 = common global i32 0
@y.75 = common global i32 0
@x.76 = common global i32 0
@y.77 = common global i32 0

; Function Attrs: noinline uwtable
define internal void @__cxx_global_var_init() #0 section ".text.startup" {
  call void @_ZNSt8ios_base4InitC1Ev(%"class.std::ios_base::Init"* @_ZStL8__ioinit)
  %1 = call i32 @__cxa_atexit(void (i8*)* bitcast (void (%"class.std::ios_base::Init"*)* @_ZNSt8ios_base4InitD1Ev to void (i8*)*), i8* getelementptr inbounds (%"class.std::ios_base::Init", %"class.std::ios_base::Init"* @_ZStL8__ioinit, i32 0, i32 0), i8* @__dso_handle) #3
  ret void
}

declare void @_ZNSt8ios_base4InitC1Ev(%"class.std::ios_base::Init"*) unnamed_addr #1

; Function Attrs: nounwind
declare void @_ZNSt8ios_base4InitD1Ev(%"class.std::ios_base::Init"*) unnamed_addr #2

; Function Attrs: nounwind
declare i32 @__cxa_atexit(void (i8*)*, i8*, i8*) #3

; Function Attrs: noinline uwtable
define internal void @__cxx_global_var_init.1() #0 section ".text.startup" {
  %1 = load i32, i32* @x.2
  %2 = load i32, i32* @y.3
  %3 = sub i32 %1, 1
  %4 = mul i32 %1, %3
  %5 = urem i32 %4, 2
  %6 = icmp eq i32 %5, 0
  %7 = icmp slt i32 %2, 10
  %8 = or i1 %6, %7
  br i1 %8, label %9, label %20

; <label>:9:                                      ; preds = %0, %20
  %10 = call double @_ZSt4acosIiEN9__gnu_cxx11__enable_ifIXsr12__is_integerIT_EE7__valueEdE6__typeES2_(i32 -1)
  store double %10, double* @_ZL2pi, align 8
  %11 = load i32, i32* @x.2
  %12 = load i32, i32* @y.3
  %13 = sub i32 %11, 1
  %14 = mul i32 %11, %13
  %15 = urem i32 %14, 2
  %16 = icmp eq i32 %15, 0
  %17 = icmp slt i32 %12, 10
  %18 = or i1 %16, %17
  br i1 %18, label %19, label %20

; <label>:19:                                     ; preds = %9
  ret void

; <label>:20:                                     ; preds = %9, %0
  %21 = call double @_ZSt4acosIiEN9__gnu_cxx11__enable_ifIXsr12__is_integerIT_EE7__valueEdE6__typeES2_(i32 -1)
  store double %21, double* @_ZL2pi, align 8
  br label %9
}

; Function Attrs: noinline nounwind uwtable
define linkonce_odr double @_ZSt4acosIiEN9__gnu_cxx11__enable_ifIXsr12__is_integerIT_EE7__valueEdE6__typeES2_(i32) #4 comdat {
  %2 = alloca i32, align 4
  store i32 %0, i32* %2, align 4
  %3 = load i32, i32* %2, align 4
  %4 = sitofp i32 %3 to double
  %5 = call double @acos(double %4) #11
  ret double %5
}

; Function Attrs: noinline norecurse uwtable
define i32 @main() #5 personality i8* bitcast (i32 (...)* @__gxx_personality_v0 to i8*) {
  %1 = alloca i32, align 4
  %2 = alloca i64, align 8
  %3 = alloca i64, align 8
  %4 = alloca i64, align 8
  %5 = alloca i64, align 8
  %6 = alloca %"class.std::vector", align 8
  %7 = alloca %"class.std::allocator", align 1
  %8 = alloca i8*
  %9 = alloca i32
  %10 = alloca i64, align 8
  %11 = alloca i64, align 8
  %12 = alloca i64, align 8
  %13 = alloca i64, align 8
  %14 = alloca %"class.std::vector", align 8
  %15 = alloca %"class.std::allocator", align 1
  %16 = alloca i64, align 8
  %17 = alloca i64, align 8
  %18 = alloca i64, align 8
  store i32 0, i32* %1, align 4
  %19 = call dereferenceable(280) %"class.std::basic_istream"* @_ZNSirsERx(%"class.std::basic_istream"* @_ZSt3cin, i64* dereferenceable(8) %2)
  %20 = call dereferenceable(280) %"class.std::basic_istream"* @_ZNSirsERx(%"class.std::basic_istream"* %19, i64* dereferenceable(8) %3)
  %21 = call dereferenceable(280) %"class.std::basic_istream"* @_ZNSirsERx(%"class.std::basic_istream"* %20, i64* dereferenceable(8) %4)
  %22 = load i64, i64* %3, align 8
  %23 = load i64, i64* %4, align 8
  %24 = sub nsw i64 %22, %23
  store i64 %24, i64* %5, align 8
  %25 = load i64, i64* %2, align 8
  call void @_ZNSaIxEC2Ev(%"class.std::allocator"* %7) #3
  invoke void @_ZNSt6vectorIxSaIxEEC2EmRKS0_(%"class.std::vector"* %6, i64 %25, %"class.std::allocator"* dereferenceable(1) %7)
          to label %26 unwind label %75

; <label>:26:                                     ; preds = %0
  %27 = load i32, i32* @x.6
  %28 = load i32, i32* @y.7
  %29 = sub i32 %27, 1
  %30 = mul i32 %27, %29
  %31 = urem i32 %30, 2
  %32 = icmp eq i32 %31, 0
  %33 = icmp slt i32 %28, 10
  %34 = or i1 %32, %33
  br i1 %34, label %35, label %344

; <label>:35:                                     ; preds = %26, %344
  call void @_ZNSaIxED2Ev(%"class.std::allocator"* %7) #3
  store i64 0, i64* %10, align 8
  %36 = load i32, i32* @x.6
  %37 = load i32, i32* @y.7
  %38 = sub i32 %36, 1
  %39 = mul i32 %36, %38
  %40 = urem i32 %39, 2
  %41 = icmp eq i32 %40, 0
  %42 = icmp slt i32 %37, 10
  %43 = or i1 %41, %42
  br i1 %43, label %44, label %344

; <label>:44:                                     ; preds = %35
  br label %45

; <label>:45:                                     ; preds = %72, %44
  %46 = load i64, i64* %10, align 8
  %47 = load i64, i64* %2, align 8
  %48 = icmp slt i64 %46, %47
  br i1 %48, label %49, label %101

; <label>:49:                                     ; preds = %45
  %50 = load i64, i64* %10, align 8
  %51 = call dereferenceable(8) i64* @_ZNSt6vectorIxSaIxEEixEm(%"class.std::vector"* %6, i64 %50) #3
  %52 = invoke dereferenceable(280) %"class.std::basic_istream"* @_ZNSirsERx(%"class.std::basic_istream"* @_ZSt3cin, i64* dereferenceable(8) %51)
          to label %53 unwind label %79

; <label>:53:                                     ; preds = %49
  %54 = load i32, i32* @x.6
  %55 = load i32, i32* @y.7
  %56 = sub i32 %54, 1
  %57 = mul i32 %54, %56
  %58 = urem i32 %57, 2
  %59 = icmp eq i32 %58, 0
  %60 = icmp slt i32 %55, 10
  %61 = or i1 %59, %60
  br i1 %61, label %62, label %345

; <label>:62:                                     ; preds = %53, %345
  %63 = load i32, i32* @x.6
  %64 = load i32, i32* @y.7
  %65 = sub i32 %63, 1
  %66 = mul i32 %63, %65
  %67 = urem i32 %66, 2
  %68 = icmp eq i32 %67, 0
  %69 = icmp slt i32 %64, 10
  %70 = or i1 %68, %69
  br i1 %70, label %71, label %345

; <label>:71:                                     ; preds = %62
  br label %72

; <label>:72:                                     ; preds = %71
  %73 = load i64, i64* %10, align 8
  %74 = add nsw i64 %73, 1
  store i64 %74, i64* %10, align 8
  br label %45

; <label>:75:                                     ; preds = %0
  %76 = landingpad { i8*, i32 }
          cleanup
  %77 = extractvalue { i8*, i32 } %76, 0
  store i8* %77, i8** %8, align 8
  %78 = extractvalue { i8*, i32 } %76, 1
  store i32 %78, i32* %9, align 4
  call void @_ZNSaIxED2Ev(%"class.std::allocator"* %7) #3
  br label %339

; <label>:79:                                     ; preds = %334, %332, %49
  %80 = load i32, i32* @x.6
  %81 = load i32, i32* @y.7
  %82 = sub i32 %80, 1
  %83 = mul i32 %80, %82
  %84 = urem i32 %83, 2
  %85 = icmp eq i32 %84, 0
  %86 = icmp slt i32 %81, 10
  %87 = or i1 %85, %86
  br i1 %87, label %88, label %346

; <label>:88:                                     ; preds = %79, %346
  %89 = landingpad { i8*, i32 }
          cleanup
  %90 = extractvalue { i8*, i32 } %89, 0
  store i8* %90, i8** %8, align 8
  %91 = extractvalue { i8*, i32 } %89, 1
  store i32 %91, i32* %9, align 4
  %92 = load i32, i32* @x.6
  %93 = load i32, i32* @y.7
  %94 = sub i32 %92, 1
  %95 = mul i32 %92, %94
  %96 = urem i32 %95, 2
  %97 = icmp eq i32 %96, 0
  %98 = icmp slt i32 %93, 10
  %99 = or i1 %97, %98
  br i1 %99, label %100, label %346

; <label>:100:                                    ; preds = %88
  br label %338

; <label>:101:                                    ; preds = %45
  store i64 10000000000, i64* %11, align 8
  store i64 -1, i64* %12, align 8
  br label %102

; <label>:102:                                    ; preds = %312, %101
  %103 = load i32, i32* @x.6
  %104 = load i32, i32* @y.7
  %105 = sub i32 %103, 1
  %106 = mul i32 %103, %105
  %107 = urem i32 %106, 2
  %108 = icmp eq i32 %107, 0
  %109 = icmp slt i32 %104, 10
  %110 = or i1 %108, %109
  br i1 %110, label %111, label %350

; <label>:111:                                    ; preds = %102, %350
  %112 = load i64, i64* %11, align 8
  %113 = load i64, i64* %12, align 8
  %114 = sub nsw i64 %112, %113
  %115 = icmp sgt i64 %114, 1
  %116 = load i32, i32* @x.6
  %117 = load i32, i32* @y.7
  %118 = sub i32 %116, 1
  %119 = mul i32 %116, %118
  %120 = urem i32 %119, 2
  %121 = icmp eq i32 %120, 0
  %122 = icmp slt i32 %117, 10
  %123 = or i1 %121, %122
  br i1 %123, label %124, label %350

; <label>:124:                                    ; preds = %111
  br i1 %115, label %125, label %313

; <label>:125:                                    ; preds = %124
  %126 = load i64, i64* %11, align 8
  %127 = load i64, i64* %12, align 8
  %128 = add nsw i64 %126, %127
  %129 = sdiv i64 %128, 2
  store i64 %129, i64* %13, align 8
  %130 = load i64, i64* %2, align 8
  call void @_ZNSaIxEC2Ev(%"class.std::allocator"* %15) #3
  invoke void @_ZNSt6vectorIxSaIxEEC2EmRKS0_(%"class.std::vector"* %14, i64 %130, %"class.std::allocator"* dereferenceable(1) %15)
          to label %131 unwind label %203

; <label>:131:                                    ; preds = %125
  %132 = load i32, i32* @x.6
  %133 = load i32, i32* @y.7
  %134 = sub i32 %132, 1
  %135 = mul i32 %132, %134
  %136 = urem i32 %135, 2
  %137 = icmp eq i32 %136, 0
  %138 = icmp slt i32 %133, 10
  %139 = or i1 %137, %138
  br i1 %139, label %140, label %368

; <label>:140:                                    ; preds = %131, %368
  call void @_ZNSaIxED2Ev(%"class.std::allocator"* %15) #3
  store i64 0, i64* %16, align 8
  %141 = load i32, i32* @x.6
  %142 = load i32, i32* @y.7
  %143 = sub i32 %141, 1
  %144 = mul i32 %141, %143
  %145 = urem i32 %144, 2
  %146 = icmp eq i32 %145, 0
  %147 = icmp slt i32 %142, 10
  %148 = or i1 %146, %147
  br i1 %148, label %149, label %368

; <label>:149:                                    ; preds = %140
  br label %150

; <label>:150:                                    ; preds = %202, %149
  %151 = load i64, i64* %16, align 8
  %152 = load i64, i64* %2, align 8
  %153 = icmp slt i64 %151, %152
  br i1 %153, label %154, label %225

; <label>:154:                                    ; preds = %150
  %155 = load i32, i32* @x.6
  %156 = load i32, i32* @y.7
  %157 = sub i32 %155, 1
  %158 = mul i32 %155, %157
  %159 = urem i32 %158, 2
  %160 = icmp eq i32 %159, 0
  %161 = icmp slt i32 %156, 10
  %162 = or i1 %160, %161
  br i1 %162, label %163, label %369

; <label>:163:                                    ; preds = %154, %369
  %164 = load i64, i64* %16, align 8
  %165 = call dereferenceable(8) i64* @_ZNSt6vectorIxSaIxEEixEm(%"class.std::vector"* %6, i64 %164) #3
  %166 = load i64, i64* %165, align 8
  %167 = load i64, i64* %4, align 8
  %168 = load i64, i64* %13, align 8
  %169 = mul nsw i64 %167, %168
  %170 = sub nsw i64 %166, %169
  %171 = load i64, i64* %16, align 8
  %172 = call dereferenceable(8) i64* @_ZNSt6vectorIxSaIxEEixEm(%"class.std::vector"* %14, i64 %171) #3
  store i64 %170, i64* %172, align 8
  %173 = load i32, i32* @x.6
  %174 = load i32, i32* @y.7
  %175 = sub i32 %173, 1
  %176 = mul i32 %173, %175
  %177 = urem i32 %176, 2
  %178 = icmp eq i32 %177, 0
  %179 = icmp slt i32 %174, 10
  %180 = or i1 %178, %179
  br i1 %180, label %181, label %369

; <label>:181:                                    ; preds = %163
  br label %182

; <label>:182:                                    ; preds = %181
  %183 = load i32, i32* @x.6
  %184 = load i32, i32* @y.7
  %185 = sub i32 %183, 1
  %186 = mul i32 %183, %185
  %187 = urem i32 %186, 2
  %188 = icmp eq i32 %187, 0
  %189 = icmp slt i32 %184, 10
  %190 = or i1 %188, %189
  br i1 %190, label %191, label %397

; <label>:191:                                    ; preds = %182, %397
  %192 = load i64, i64* %16, align 8
  %193 = add nsw i64 %192, 1
  store i64 %193, i64* %16, align 8
  %194 = load i32, i32* @x.6
  %195 = load i32, i32* @y.7
  %196 = sub i32 %194, 1
  %197 = mul i32 %194, %196
  %198 = urem i32 %197, 2
  %199 = icmp eq i32 %198, 0
  %200 = icmp slt i32 %195, 10
  %201 = or i1 %199, %200
  br i1 %201, label %202, label %397

; <label>:202:                                    ; preds = %191
  br label %150

; <label>:203:                                    ; preds = %125
  %204 = load i32, i32* @x.6
  %205 = load i32, i32* @y.7
  %206 = sub i32 %204, 1
  %207 = mul i32 %204, %206
  %208 = urem i32 %207, 2
  %209 = icmp eq i32 %208, 0
  %210 = icmp slt i32 %205, 10
  %211 = or i1 %209, %210
  br i1 %211, label %212, label %410

; <label>:212:                                    ; preds = %203, %410
  %213 = landingpad { i8*, i32 }
          cleanup
  %214 = extractvalue { i8*, i32 } %213, 0
  store i8* %214, i8** %8, align 8
  %215 = extractvalue { i8*, i32 } %213, 1
  store i32 %215, i32* %9, align 4
  call void @_ZNSaIxED2Ev(%"class.std::allocator"* %15) #3
  %216 = load i32, i32* @x.6
  %217 = load i32, i32* @y.7
  %218 = sub i32 %216, 1
  %219 = mul i32 %216, %218
  %220 = urem i32 %219, 2
  %221 = icmp eq i32 %220, 0
  %222 = icmp slt i32 %217, 10
  %223 = or i1 %221, %222
  br i1 %223, label %224, label %410

; <label>:224:                                    ; preds = %212
  br label %338

; <label>:225:                                    ; preds = %150
  store i64 0, i64* %17, align 8
  store i64 0, i64* %18, align 8
  br label %226

; <label>:226:                                    ; preds = %283, %225
  %227 = load i64, i64* %18, align 8
  %228 = load i64, i64* %2, align 8
  %229 = icmp slt i64 %227, %228
  br i1 %229, label %230, label %286

; <label>:230:                                    ; preds = %226
  %231 = load i32, i32* @x.6
  %232 = load i32, i32* @y.7
  %233 = sub i32 %231, 1
  %234 = mul i32 %231, %233
  %235 = urem i32 %234, 2
  %236 = icmp eq i32 %235, 0
  %237 = icmp slt i32 %232, 10
  %238 = or i1 %236, %237
  br i1 %238, label %239, label %414

; <label>:239:                                    ; preds = %230, %414
  %240 = load i64, i64* %18, align 8
  %241 = call dereferenceable(8) i64* @_ZNSt6vectorIxSaIxEEixEm(%"class.std::vector"* %14, i64 %240) #3
  %242 = load i64, i64* %241, align 8
  %243 = icmp sle i64 %242, 0
  %244 = load i32, i32* @x.6
  %245 = load i32, i32* @y.7
  %246 = sub i32 %244, 1
  %247 = mul i32 %244, %246
  %248 = urem i32 %247, 2
  %249 = icmp eq i32 %248, 0
  %250 = icmp slt i32 %245, 10
  %251 = or i1 %249, %250
  br i1 %251, label %252, label %414

; <label>:252:                                    ; preds = %239
  br i1 %243, label %253, label %254

; <label>:253:                                    ; preds = %252
  br label %283

; <label>:254:                                    ; preds = %252
  %255 = load i32, i32* @x.6
  %256 = load i32, i32* @y.7
  %257 = sub i32 %255, 1
  %258 = mul i32 %255, %257
  %259 = urem i32 %258, 2
  %260 = icmp eq i32 %259, 0
  %261 = icmp slt i32 %256, 10
  %262 = or i1 %260, %261
  br i1 %262, label %263, label %419

; <label>:263:                                    ; preds = %254, %419
  %264 = load i64, i64* %18, align 8
  %265 = call dereferenceable(8) i64* @_ZNSt6vectorIxSaIxEEixEm(%"class.std::vector"* %14, i64 %264) #3
  %266 = load i64, i64* %265, align 8
  %267 = load i64, i64* %5, align 8
  %268 = add nsw i64 %266, %267
  %269 = sub nsw i64 %268, 1
  %270 = load i64, i64* %5, align 8
  %271 = sdiv i64 %269, %270
  %272 = load i64, i64* %17, align 8
  %273 = add nsw i64 %272, %271
  store i64 %273, i64* %17, align 8
  %274 = load i32, i32* @x.6
  %275 = load i32, i32* @y.7
  %276 = sub i32 %274, 1
  %277 = mul i32 %274, %276
  %278 = urem i32 %277, 2
  %279 = icmp eq i32 %278, 0
  %280 = icmp slt i32 %275, 10
  %281 = or i1 %279, %280
  br i1 %281, label %282, label %419

; <label>:282:                                    ; preds = %263
  br label %283

; <label>:283:                                    ; preds = %282, %253
  %284 = load i64, i64* %18, align 8
  %285 = add nsw i64 %284, 1
  store i64 %285, i64* %18, align 8
  br label %226

; <label>:286:                                    ; preds = %226
  %287 = load i64, i64* %17, align 8
  %288 = load i64, i64* %13, align 8
  %289 = icmp sgt i64 %287, %288
  br i1 %289, label %290, label %292

; <label>:290:                                    ; preds = %286
  %291 = load i64, i64* %13, align 8
  store i64 %291, i64* %12, align 8
  br label %312

; <label>:292:                                    ; preds = %286
  %293 = load i32, i32* @x.6
  %294 = load i32, i32* @y.7
  %295 = sub i32 %293, 1
  %296 = mul i32 %293, %295
  %297 = urem i32 %296, 2
  %298 = icmp eq i32 %297, 0
  %299 = icmp slt i32 %294, 10
  %300 = or i1 %298, %299
  br i1 %300, label %301, label %457

; <label>:301:                                    ; preds = %292, %457
  %302 = load i64, i64* %13, align 8
  store i64 %302, i64* %11, align 8
  %303 = load i32, i32* @x.6
  %304 = load i32, i32* @y.7
  %305 = sub i32 %303, 1
  %306 = mul i32 %303, %305
  %307 = urem i32 %306, 2
  %308 = icmp eq i32 %307, 0
  %309 = icmp slt i32 %304, 10
  %310 = or i1 %308, %309
  br i1 %310, label %311, label %457

; <label>:311:                                    ; preds = %301
  br label %312

; <label>:312:                                    ; preds = %311, %290
  call void @_ZNSt6vectorIxSaIxEED2Ev(%"class.std::vector"* %14) #3
  br label %102

; <label>:313:                                    ; preds = %124
  %314 = load i32, i32* @x.6
  %315 = load i32, i32* @y.7
  %316 = sub i32 %314, 1
  %317 = mul i32 %314, %316
  %318 = urem i32 %317, 2
  %319 = icmp eq i32 %318, 0
  %320 = icmp slt i32 %315, 10
  %321 = or i1 %319, %320
  br i1 %321, label %322, label %459

; <label>:322:                                    ; preds = %313, %459
  %323 = load i64, i64* %11, align 8
  %324 = load i32, i32* @x.6
  %325 = load i32, i32* @y.7
  %326 = sub i32 %324, 1
  %327 = mul i32 %324, %326
  %328 = urem i32 %327, 2
  %329 = icmp eq i32 %328, 0
  %330 = icmp slt i32 %325, 10
  %331 = or i1 %329, %330
  br i1 %331, label %332, label %459

; <label>:332:                                    ; preds = %322
  %333 = invoke dereferenceable(272) %"class.std::basic_ostream"* @_ZNSolsEx(%"class.std::basic_ostream"* @_ZSt4cout, i64 %323)
          to label %334 unwind label %79

; <label>:334:                                    ; preds = %332
  %335 = invoke dereferenceable(272) %"class.std::basic_ostream"* @_ZNSolsEPFRSoS_E(%"class.std::basic_ostream"* %333, %"class.std::basic_ostream"* (%"class.std::basic_ostream"*)* @_ZSt4endlIcSt11char_traitsIcEERSt13basic_ostreamIT_T0_ES6_)
          to label %336 unwind label %79

; <label>:336:                                    ; preds = %334
  call void @_ZNSt6vectorIxSaIxEED2Ev(%"class.std::vector"* %6) #3
  %337 = load i32, i32* %1, align 4
  ret i32 %337

; <label>:338:                                    ; preds = %224, %100
  call void @_ZNSt6vectorIxSaIxEED2Ev(%"class.std::vector"* %6) #3
  br label %339

; <label>:339:                                    ; preds = %338, %75
  %340 = load i8*, i8** %8, align 8
  %341 = load i32, i32* %9, align 4
  %342 = insertvalue { i8*, i32 } undef, i8* %340, 0
  %343 = insertvalue { i8*, i32 } %342, i32 %341, 1
  resume { i8*, i32 } %343

; <label>:344:                                    ; preds = %35, %26
  call void @_ZNSaIxED2Ev(%"class.std::allocator"* %7) #3
  store i64 0, i64* %10, align 8
  br label %35

; <label>:345:                                    ; preds = %62, %53
  br label %62

; <label>:346:                                    ; preds = %88, %79
  %347 = landingpad { i8*, i32 }
          cleanup
  %348 = extractvalue { i8*, i32 } %347, 0
  store i8* %348, i8** %8, align 8
  %349 = extractvalue { i8*, i32 } %347, 1
  store i32 %349, i32* %9, align 4
  br label %88

; <label>:350:                                    ; preds = %111, %102
  %351 = load i64, i64* %11, align 8
  %352 = load i64, i64* %12, align 8
  %353 = shl i64 %351, %352
  %354 = sub i64 0, %351
  %355 = add i64 %354, %352
  %356 = sub i64 0, %351
  %357 = add i64 %356, %352
  %358 = sub i64 0, %351
  %359 = add i64 %358, %352
  %360 = sub i64 0, %351
  %361 = add i64 %360, %352
  %362 = sub i64 %351, %352
  %363 = mul i64 %362, %352
  %364 = sub i64 0, %351
  %365 = add i64 %364, %352
  %366 = sub nsw i64 %351, %352
  %367 = icmp sgt i64 %366, 1
  br label %111

; <label>:368:                                    ; preds = %140, %131
  call void @_ZNSaIxED2Ev(%"class.std::allocator"* %15) #3
  store i64 0, i64* %16, align 8
  br label %140

; <label>:369:                                    ; preds = %163, %154
  %370 = load i64, i64* %16, align 8
  %371 = call dereferenceable(8) i64* @_ZNSt6vectorIxSaIxEEixEm(%"class.std::vector"* %6, i64 %370) #3
  %372 = load i64, i64* %371, align 8
  %373 = load i64, i64* %4, align 8
  %374 = load i64, i64* %13, align 8
  %375 = sub i64 %373, %374
  %376 = mul i64 %375, %374
  %377 = shl i64 %373, %374
  %378 = shl i64 %373, %374
  %379 = shl i64 %373, %374
  %380 = sub i64 %373, %374
  %381 = mul i64 %380, %374
  %382 = sub i64 %373, %374
  %383 = mul i64 %382, %374
  %384 = mul nsw i64 %373, %374
  %385 = sub i64 0, %372
  %386 = add i64 %385, %384
  %387 = shl i64 %372, %384
  %388 = sub i64 %372, %384
  %389 = mul i64 %388, %384
  %390 = sub i64 0, %372
  %391 = add i64 %390, %384
  %392 = sub i64 %372, %384
  %393 = mul i64 %392, %384
  %394 = sub nsw i64 %372, %384
  %395 = load i64, i64* %16, align 8
  %396 = call dereferenceable(8) i64* @_ZNSt6vectorIxSaIxEEixEm(%"class.std::vector"* %14, i64 %395) #3
  store i64 %394, i64* %396, align 8
  br label %163

; <label>:397:                                    ; preds = %191, %182
  %398 = load i64, i64* %16, align 8
  %399 = sub i64 %398, 1
  %400 = mul i64 %399, 1
  %401 = shl i64 %398, 1
  %402 = shl i64 %398, 1
  %403 = sub i64 %398, 1
  %404 = mul i64 %403, 1
  %405 = sub i64 %398, 1
  %406 = mul i64 %405, 1
  %407 = sub i64 %398, 1
  %408 = mul i64 %407, 1
  %409 = add nsw i64 %398, 1
  store i64 %409, i64* %16, align 8
  br label %191

; <label>:410:                                    ; preds = %212, %203
  %411 = landingpad { i8*, i32 }
          cleanup
  %412 = extractvalue { i8*, i32 } %411, 0
  store i8* %412, i8** %8, align 8
  %413 = extractvalue { i8*, i32 } %411, 1
  store i32 %413, i32* %9, align 4
  call void @_ZNSaIxED2Ev(%"class.std::allocator"* %15) #3
  br label %212

; <label>:414:                                    ; preds = %239, %230
  %415 = load i64, i64* %18, align 8
  %416 = call dereferenceable(8) i64* @_ZNSt6vectorIxSaIxEEixEm(%"class.std::vector"* %14, i64 %415) #3
  %417 = load i64, i64* %416, align 8
  %418 = icmp sle i64 %417, 0
  br label %239

; <label>:419:                                    ; preds = %263, %254
  %420 = load i64, i64* %18, align 8
  %421 = call dereferenceable(8) i64* @_ZNSt6vectorIxSaIxEEixEm(%"class.std::vector"* %14, i64 %420) #3
  %422 = load i64, i64* %421, align 8
  %423 = load i64, i64* %5, align 8
  %424 = shl i64 %422, %423
  %425 = sub i64 0, %422
  %426 = add i64 %425, %423
  %427 = shl i64 %422, %423
  %428 = shl i64 %422, %423
  %429 = sub i64 0, %422
  %430 = add i64 %429, %423
  %431 = sub i64 %422, %423
  %432 = mul i64 %431, %423
  %433 = shl i64 %422, %423
  %434 = shl i64 %422, %423
  %435 = add nsw i64 %422, %423
  %436 = shl i64 %435, 1
  %437 = sub i64 %435, 1
  %438 = mul i64 %437, 1
  %439 = sub i64 0, %435
  %440 = add i64 %439, 1
  %441 = shl i64 %435, 1
  %442 = shl i64 %435, 1
  %443 = sub nsw i64 %435, 1
  %444 = load i64, i64* %5, align 8
  %445 = sub i64 %443, %444
  %446 = mul i64 %445, %444
  %447 = shl i64 %443, %444
  %448 = sub i64 %443, %444
  %449 = mul i64 %448, %444
  %450 = sub i64 0, %443
  %451 = add i64 %450, %444
  %452 = shl i64 %443, %444
  %453 = sdiv i64 %443, %444
  %454 = load i64, i64* %17, align 8
  %455 = shl i64 %454, %453
  %456 = add nsw i64 %454, %453
  store i64 %456, i64* %17, align 8
  br label %263

; <label>:457:                                    ; preds = %301, %292
  %458 = load i64, i64* %13, align 8
  store i64 %458, i64* %11, align 8
  br label %301

; <label>:459:                                    ; preds = %322, %313
  %460 = load i64, i64* %11, align 8
  br label %322
}

declare dereferenceable(280) %"class.std::basic_istream"* @_ZNSirsERx(%"class.std::basic_istream"*, i64* dereferenceable(8)) #1

; Function Attrs: noinline nounwind uwtable
define linkonce_odr void @_ZNSaIxEC2Ev(%"class.std::allocator"*) unnamed_addr #4 comdat align 2 {
  %2 = alloca %"class.std::allocator"*, align 8
  store %"class.std::allocator"* %0, %"class.std::allocator"** %2, align 8
  %3 = load %"class.std::allocator"*, %"class.std::allocator"** %2, align 8
  %4 = bitcast %"class.std::allocator"* %3 to %"class.__gnu_cxx::new_allocator"*
  call void @_ZN9__gnu_cxx13new_allocatorIxEC2Ev(%"class.__gnu_cxx::new_allocator"* %4) #3
  ret void
}

; Function Attrs: noinline uwtable
define linkonce_odr void @_ZNSt6vectorIxSaIxEEC2EmRKS0_(%"class.std::vector"*, i64, %"class.std::allocator"* dereferenceable(1)) unnamed_addr #0 comdat align 2 personality i8* bitcast (i32 (...)* @__gxx_personality_v0 to i8*) {
  %4 = load i32, i32* @x.10
  %5 = load i32, i32* @y.11
  %6 = sub i32 %4, 1
  %7 = mul i32 %4, %6
  %8 = urem i32 %7, 2
  %9 = icmp eq i32 %8, 0
  %10 = icmp slt i32 %5, 10
  %11 = or i1 %9, %10
  br i1 %11, label %12, label %43

; <label>:12:                                     ; preds = %3, %43
  %13 = alloca %"class.std::vector"*, align 8
  %14 = alloca i64, align 8
  %15 = alloca %"class.std::allocator"*, align 8
  %16 = alloca i8*
  %17 = alloca i32
  store %"class.std::vector"* %0, %"class.std::vector"** %13, align 8
  store i64 %1, i64* %14, align 8
  store %"class.std::allocator"* %2, %"class.std::allocator"** %15, align 8
  %18 = load %"class.std::vector"*, %"class.std::vector"** %13, align 8
  %19 = bitcast %"class.std::vector"* %18 to %"struct.std::_Vector_base"*
  %20 = load i64, i64* %14, align 8
  %21 = load %"class.std::allocator"*, %"class.std::allocator"** %15, align 8
  call void @_ZNSt12_Vector_baseIxSaIxEEC2EmRKS0_(%"struct.std::_Vector_base"* %19, i64 %20, %"class.std::allocator"* dereferenceable(1) %21)
  %22 = load i64, i64* %14, align 8
  %23 = load i32, i32* @x.10
  %24 = load i32, i32* @y.11
  %25 = sub i32 %23, 1
  %26 = mul i32 %23, %25
  %27 = urem i32 %26, 2
  %28 = icmp eq i32 %27, 0
  %29 = icmp slt i32 %24, 10
  %30 = or i1 %28, %29
  br i1 %30, label %31, label %43

; <label>:31:                                     ; preds = %12
  invoke void @_ZNSt6vectorIxSaIxEE21_M_default_initializeEm(%"class.std::vector"* %18, i64 %22)
          to label %32 unwind label %33

; <label>:32:                                     ; preds = %31
  ret void

; <label>:33:                                     ; preds = %31
  %34 = landingpad { i8*, i32 }
          cleanup
  %35 = extractvalue { i8*, i32 } %34, 0
  store i8* %35, i8** %16, align 8
  %36 = extractvalue { i8*, i32 } %34, 1
  store i32 %36, i32* %17, align 4
  %37 = bitcast %"class.std::vector"* %18 to %"struct.std::_Vector_base"*
  call void @_ZNSt12_Vector_baseIxSaIxEED2Ev(%"struct.std::_Vector_base"* %37) #3
  br label %38

; <label>:38:                                     ; preds = %33
  %39 = load i8*, i8** %16, align 8
  %40 = load i32, i32* %17, align 4
  %41 = insertvalue { i8*, i32 } undef, i8* %39, 0
  %42 = insertvalue { i8*, i32 } %41, i32 %40, 1
  resume { i8*, i32 } %42

; <label>:43:                                     ; preds = %12, %3
  %44 = alloca %"class.std::vector"*, align 8
  %45 = alloca i64, align 8
  %46 = alloca %"class.std::allocator"*, align 8
  %47 = alloca i8*
  %48 = alloca i32
  store %"class.std::vector"* %0, %"class.std::vector"** %44, align 8
  store i64 %1, i64* %45, align 8
  store %"class.std::allocator"* %2, %"class.std::allocator"** %46, align 8
  %49 = load %"class.std::vector"*, %"class.std::vector"** %44, align 8
  %50 = bitcast %"class.std::vector"* %49 to %"struct.std::_Vector_base"*
  %51 = load i64, i64* %45, align 8
  %52 = load %"class.std::allocator"*, %"class.std::allocator"** %46, align 8
  call void @_ZNSt12_Vector_baseIxSaIxEEC2EmRKS0_(%"struct.std::_Vector_base"* %50, i64 %51, %"class.std::allocator"* dereferenceable(1) %52)
  %53 = load i64, i64* %45, align 8
  br label %12
}

declare i32 @__gxx_personality_v0(...)

; Function Attrs: noinline nounwind uwtable
define linkonce_odr void @_ZNSaIxED2Ev(%"class.std::allocator"*) unnamed_addr #4 comdat align 2 {
  %2 = alloca %"class.std::allocator"*, align 8
  store %"class.std::allocator"* %0, %"class.std::allocator"** %2, align 8
  %3 = load %"class.std::allocator"*, %"class.std::allocator"** %2, align 8
  %4 = bitcast %"class.std::allocator"* %3 to %"class.__gnu_cxx::new_allocator"*
  call void @_ZN9__gnu_cxx13new_allocatorIxED2Ev(%"class.__gnu_cxx::new_allocator"* %4) #3
  ret void
}

; Function Attrs: noinline nounwind uwtable
define linkonce_odr dereferenceable(8) i64* @_ZNSt6vectorIxSaIxEEixEm(%"class.std::vector"*, i64) #4 comdat align 2 {
  %3 = alloca %"class.std::vector"*, align 8
  %4 = alloca i64, align 8
  store %"class.std::vector"* %0, %"class.std::vector"** %3, align 8
  store i64 %1, i64* %4, align 8
  %5 = load %"class.std::vector"*, %"class.std::vector"** %3, align 8
  %6 = bitcast %"class.std::vector"* %5 to %"struct.std::_Vector_base"*
  %7 = getelementptr inbounds %"struct.std::_Vector_base", %"struct.std::_Vector_base"* %6, i32 0, i32 0
  %8 = getelementptr inbounds %"struct.std::_Vector_base<long long, std::allocator<long long> >::_Vector_impl", %"struct.std::_Vector_base<long long, std::allocator<long long> >::_Vector_impl"* %7, i32 0, i32 0
  %9 = load i64*, i64** %8, align 8
  %10 = load i64, i64* %4, align 8
  %11 = getelementptr inbounds i64, i64* %9, i64 %10
  ret i64* %11
}

; Function Attrs: noinline nounwind uwtable
define linkonce_odr void @_ZNSt6vectorIxSaIxEED2Ev(%"class.std::vector"*) unnamed_addr #4 comdat align 2 personality i8* bitcast (i32 (...)* @__gxx_personality_v0 to i8*) {
  %2 = alloca %"class.std::vector"*, align 8
  %3 = alloca i8*
  %4 = alloca i32
  store %"class.std::vector"* %0, %"class.std::vector"** %2, align 8
  %5 = load %"class.std::vector"*, %"class.std::vector"** %2, align 8
  %6 = bitcast %"class.std::vector"* %5 to %"struct.std::_Vector_base"*
  %7 = getelementptr inbounds %"struct.std::_Vector_base", %"struct.std::_Vector_base"* %6, i32 0, i32 0
  %8 = getelementptr inbounds %"struct.std::_Vector_base<long long, std::allocator<long long> >::_Vector_impl", %"struct.std::_Vector_base<long long, std::allocator<long long> >::_Vector_impl"* %7, i32 0, i32 0
  %9 = load i64*, i64** %8, align 8
  %10 = bitcast %"class.std::vector"* %5 to %"struct.std::_Vector_base"*
  %11 = getelementptr inbounds %"struct.std::_Vector_base", %"struct.std::_Vector_base"* %10, i32 0, i32 0
  %12 = getelementptr inbounds %"struct.std::_Vector_base<long long, std::allocator<long long> >::_Vector_impl", %"struct.std::_Vector_base<long long, std::allocator<long long> >::_Vector_impl"* %11, i32 0, i32 1
  %13 = load i64*, i64** %12, align 8
  %14 = bitcast %"class.std::vector"* %5 to %"struct.std::_Vector_base"*
  %15 = call dereferenceable(1) %"class.std::allocator"* @_ZNSt12_Vector_baseIxSaIxEE19_M_get_Tp_allocatorEv(%"struct.std::_Vector_base"* %14) #3
  invoke void @_ZSt8_DestroyIPxxEvT_S1_RSaIT0_E(i64* %9, i64* %13, %"class.std::allocator"* dereferenceable(1) %15)
          to label %16 unwind label %36

; <label>:16:                                     ; preds = %1
  %17 = load i32, i32* @x.16
  %18 = load i32, i32* @y.17
  %19 = sub i32 %17, 1
  %20 = mul i32 %17, %19
  %21 = urem i32 %20, 2
  %22 = icmp eq i32 %21, 0
  %23 = icmp slt i32 %18, 10
  %24 = or i1 %22, %23
  br i1 %24, label %25, label %43

; <label>:25:                                     ; preds = %16, %43
  %26 = bitcast %"class.std::vector"* %5 to %"struct.std::_Vector_base"*
  call void @_ZNSt12_Vector_baseIxSaIxEED2Ev(%"struct.std::_Vector_base"* %26) #3
  %27 = load i32, i32* @x.16
  %28 = load i32, i32* @y.17
  %29 = sub i32 %27, 1
  %30 = mul i32 %27, %29
  %31 = urem i32 %30, 2
  %32 = icmp eq i32 %31, 0
  %33 = icmp slt i32 %28, 10
  %34 = or i1 %32, %33
  br i1 %34, label %35, label %43

; <label>:35:                                     ; preds = %25
  ret void

; <label>:36:                                     ; preds = %1
  %37 = landingpad { i8*, i32 }
          catch i8* null
  %38 = extractvalue { i8*, i32 } %37, 0
  store i8* %38, i8** %3, align 8
  %39 = extractvalue { i8*, i32 } %37, 1
  store i32 %39, i32* %4, align 4
  %40 = bitcast %"class.std::vector"* %5 to %"struct.std::_Vector_base"*
  call void @_ZNSt12_Vector_baseIxSaIxEED2Ev(%"struct.std::_Vector_base"* %40) #3
  br label %41

; <label>:41:                                     ; preds = %36
  %42 = load i8*, i8** %3, align 8
  call void @__clang_call_terminate(i8* %42) #12
  unreachable

; <label>:43:                                     ; preds = %25, %16
  %44 = bitcast %"class.std::vector"* %5 to %"struct.std::_Vector_base"*
  call void @_ZNSt12_Vector_baseIxSaIxEED2Ev(%"struct.std::_Vector_base"* %44) #3
  br label %25
}

declare dereferenceable(272) %"class.std::basic_ostream"* @_ZNSolsEx(%"class.std::basic_ostream"*, i64) #1

declare dereferenceable(272) %"class.std::basic_ostream"* @_ZNSolsEPFRSoS_E(%"class.std::basic_ostream"*, %"class.std::basic_ostream"* (%"class.std::basic_ostream"*)*) #1

declare dereferenceable(272) %"class.std::basic_ostream"* @_ZSt4endlIcSt11char_traitsIcEERSt13basic_ostreamIT_T0_ES6_(%"class.std::basic_ostream"* dereferenceable(272)) #1

; Function Attrs: nounwind readnone
declare double @acos(double) #6

; Function Attrs: noinline nounwind uwtable
define linkonce_odr void @_ZN9__gnu_cxx13new_allocatorIxEC2Ev(%"class.__gnu_cxx::new_allocator"*) unnamed_addr #4 comdat align 2 {
  %2 = load i32, i32* @x.18
  %3 = load i32, i32* @y.19
  %4 = sub i32 %2, 1
  %5 = mul i32 %2, %4
  %6 = urem i32 %5, 2
  %7 = icmp eq i32 %6, 0
  %8 = icmp slt i32 %3, 10
  %9 = or i1 %7, %8
  br i1 %9, label %10, label %22

; <label>:10:                                     ; preds = %1, %22
  %11 = alloca %"class.__gnu_cxx::new_allocator"*, align 8
  store %"class.__gnu_cxx::new_allocator"* %0, %"class.__gnu_cxx::new_allocator"** %11, align 8
  %12 = load %"class.__gnu_cxx::new_allocator"*, %"class.__gnu_cxx::new_allocator"** %11, align 8
  %13 = load i32, i32* @x.18
  %14 = load i32, i32* @y.19
  %15 = sub i32 %13, 1
  %16 = mul i32 %13, %15
  %17 = urem i32 %16, 2
  %18 = icmp eq i32 %17, 0
  %19 = icmp slt i32 %14, 10
  %20 = or i1 %18, %19
  br i1 %20, label %21, label %22

; <label>:21:                                     ; preds = %10
  ret void

; <label>:22:                                     ; preds = %10, %1
  %23 = alloca %"class.__gnu_cxx::new_allocator"*, align 8
  store %"class.__gnu_cxx::new_allocator"* %0, %"class.__gnu_cxx::new_allocator"** %23, align 8
  %24 = load %"class.__gnu_cxx::new_allocator"*, %"class.__gnu_cxx::new_allocator"** %23, align 8
  br label %10
}

; Function Attrs: noinline nounwind uwtable
define linkonce_odr void @_ZN9__gnu_cxx13new_allocatorIxED2Ev(%"class.__gnu_cxx::new_allocator"*) unnamed_addr #4 comdat align 2 {
  %2 = alloca %"class.__gnu_cxx::new_allocator"*, align 8
  store %"class.__gnu_cxx::new_allocator"* %0, %"class.__gnu_cxx::new_allocator"** %2, align 8
  %3 = load %"class.__gnu_cxx::new_allocator"*, %"class.__gnu_cxx::new_allocator"** %2, align 8
  ret void
}

; Function Attrs: noinline uwtable
define linkonce_odr void @_ZNSt12_Vector_baseIxSaIxEEC2EmRKS0_(%"struct.std::_Vector_base"*, i64, %"class.std::allocator"* dereferenceable(1)) unnamed_addr #0 comdat align 2 personality i8* bitcast (i32 (...)* @__gxx_personality_v0 to i8*) {
  %4 = alloca %"struct.std::_Vector_base"*, align 8
  %5 = alloca i64, align 8
  %6 = alloca %"class.std::allocator"*, align 8
  %7 = alloca i8*
  %8 = alloca i32
  store %"struct.std::_Vector_base"* %0, %"struct.std::_Vector_base"** %4, align 8
  store i64 %1, i64* %5, align 8
  store %"class.std::allocator"* %2, %"class.std::allocator"** %6, align 8
  %9 = load %"struct.std::_Vector_base"*, %"struct.std::_Vector_base"** %4, align 8
  %10 = getelementptr inbounds %"struct.std::_Vector_base", %"struct.std::_Vector_base"* %9, i32 0, i32 0
  %11 = load %"class.std::allocator"*, %"class.std::allocator"** %6, align 8
  call void @_ZNSt12_Vector_baseIxSaIxEE12_Vector_implC2ERKS0_(%"struct.std::_Vector_base<long long, std::allocator<long long> >::_Vector_impl"* %10, %"class.std::allocator"* dereferenceable(1) %11) #3
  %12 = load i64, i64* %5, align 8
  invoke void @_ZNSt12_Vector_baseIxSaIxEE17_M_create_storageEm(%"struct.std::_Vector_base"* %9, i64 %12)
          to label %13 unwind label %14

; <label>:13:                                     ; preds = %3
  ret void

; <label>:14:                                     ; preds = %3
  %15 = landingpad { i8*, i32 }
          cleanup
  %16 = extractvalue { i8*, i32 } %15, 0
  store i8* %16, i8** %7, align 8
  %17 = extractvalue { i8*, i32 } %15, 1
  store i32 %17, i32* %8, align 4
  call void @_ZNSt12_Vector_baseIxSaIxEE12_Vector_implD2Ev(%"struct.std::_Vector_base<long long, std::allocator<long long> >::_Vector_impl"* %10) #3
  br label %18

; <label>:18:                                     ; preds = %14
  %19 = load i8*, i8** %7, align 8
  %20 = load i32, i32* %8, align 4
  %21 = insertvalue { i8*, i32 } undef, i8* %19, 0
  %22 = insertvalue { i8*, i32 } %21, i32 %20, 1
  resume { i8*, i32 } %22
}

; Function Attrs: noinline uwtable
define linkonce_odr void @_ZNSt6vectorIxSaIxEE21_M_default_initializeEm(%"class.std::vector"*, i64) #0 comdat align 2 {
  %3 = load i32, i32* @x.24
  %4 = load i32, i32* @y.25
  %5 = sub i32 %3, 1
  %6 = mul i32 %3, %5
  %7 = urem i32 %6, 2
  %8 = icmp eq i32 %7, 0
  %9 = icmp slt i32 %4, 10
  %10 = or i1 %8, %9
  br i1 %10, label %11, label %35

; <label>:11:                                     ; preds = %2, %35
  %12 = alloca %"class.std::vector"*, align 8
  %13 = alloca i64, align 8
  store %"class.std::vector"* %0, %"class.std::vector"** %12, align 8
  store i64 %1, i64* %13, align 8
  %14 = load %"class.std::vector"*, %"class.std::vector"** %12, align 8
  %15 = bitcast %"class.std::vector"* %14 to %"struct.std::_Vector_base"*
  %16 = getelementptr inbounds %"struct.std::_Vector_base", %"struct.std::_Vector_base"* %15, i32 0, i32 0
  %17 = getelementptr inbounds %"struct.std::_Vector_base<long long, std::allocator<long long> >::_Vector_impl", %"struct.std::_Vector_base<long long, std::allocator<long long> >::_Vector_impl"* %16, i32 0, i32 0
  %18 = load i64*, i64** %17, align 8
  %19 = load i64, i64* %13, align 8
  %20 = bitcast %"class.std::vector"* %14 to %"struct.std::_Vector_base"*
  %21 = call dereferenceable(1) %"class.std::allocator"* @_ZNSt12_Vector_baseIxSaIxEE19_M_get_Tp_allocatorEv(%"struct.std::_Vector_base"* %20) #3
  %22 = call i64* @_ZSt27__uninitialized_default_n_aIPxmxET_S1_T0_RSaIT1_E(i64* %18, i64 %19, %"class.std::allocator"* dereferenceable(1) %21)
  %23 = bitcast %"class.std::vector"* %14 to %"struct.std::_Vector_base"*
  %24 = getelementptr inbounds %"struct.std::_Vector_base", %"struct.std::_Vector_base"* %23, i32 0, i32 0
  %25 = getelementptr inbounds %"struct.std::_Vector_base<long long, std::allocator<long long> >::_Vector_impl", %"struct.std::_Vector_base<long long, std::allocator<long long> >::_Vector_impl"* %24, i32 0, i32 1
  store i64* %22, i64** %25, align 8
  %26 = load i32, i32* @x.24
  %27 = load i32, i32* @y.25
  %28 = sub i32 %26, 1
  %29 = mul i32 %26, %28
  %30 = urem i32 %29, 2
  %31 = icmp eq i32 %30, 0
  %32 = icmp slt i32 %27, 10
  %33 = or i1 %31, %32
  br i1 %33, label %34, label %35

; <label>:34:                                     ; preds = %11
  ret void

; <label>:35:                                     ; preds = %11, %2
  %36 = alloca %"class.std::vector"*, align 8
  %37 = alloca i64, align 8
  store %"class.std::vector"* %0, %"class.std::vector"** %36, align 8
  store i64 %1, i64* %37, align 8
  %38 = load %"class.std::vector"*, %"class.std::vector"** %36, align 8
  %39 = bitcast %"class.std::vector"* %38 to %"struct.std::_Vector_base"*
  %40 = getelementptr inbounds %"struct.std::_Vector_base", %"struct.std::_Vector_base"* %39, i32 0, i32 0
  %41 = getelementptr inbounds %"struct.std::_Vector_base<long long, std::allocator<long long> >::_Vector_impl", %"struct.std::_Vector_base<long long, std::allocator<long long> >::_Vector_impl"* %40, i32 0, i32 0
  %42 = load i64*, i64** %41, align 8
  %43 = load i64, i64* %37, align 8
  %44 = bitcast %"class.std::vector"* %38 to %"struct.std::_Vector_base"*
  %45 = call dereferenceable(1) %"class.std::allocator"* @_ZNSt12_Vector_baseIxSaIxEE19_M_get_Tp_allocatorEv(%"struct.std::_Vector_base"* %44) #3
  %46 = call i64* @_ZSt27__uninitialized_default_n_aIPxmxET_S1_T0_RSaIT1_E(i64* %42, i64 %43, %"class.std::allocator"* dereferenceable(1) %45)
  %47 = bitcast %"class.std::vector"* %38 to %"struct.std::_Vector_base"*
  %48 = getelementptr inbounds %"struct.std::_Vector_base", %"struct.std::_Vector_base"* %47, i32 0, i32 0
  %49 = getelementptr inbounds %"struct.std::_Vector_base<long long, std::allocator<long long> >::_Vector_impl", %"struct.std::_Vector_base<long long, std::allocator<long long> >::_Vector_impl"* %48, i32 0, i32 1
  store i64* %46, i64** %49, align 8
  br label %11
}

; Function Attrs: noinline nounwind uwtable
define linkonce_odr void @_ZNSt12_Vector_baseIxSaIxEED2Ev(%"struct.std::_Vector_base"*) unnamed_addr #4 comdat align 2 personality i8* bitcast (i32 (...)* @__gxx_personality_v0 to i8*) {
  %2 = alloca %"struct.std::_Vector_base"*, align 8
  %3 = alloca i8*
  %4 = alloca i32
  store %"struct.std::_Vector_base"* %0, %"struct.std::_Vector_base"** %2, align 8
  %5 = load %"struct.std::_Vector_base"*, %"struct.std::_Vector_base"** %2, align 8
  %6 = getelementptr inbounds %"struct.std::_Vector_base", %"struct.std::_Vector_base"* %5, i32 0, i32 0
  %7 = getelementptr inbounds %"struct.std::_Vector_base<long long, std::allocator<long long> >::_Vector_impl", %"struct.std::_Vector_base<long long, std::allocator<long long> >::_Vector_impl"* %6, i32 0, i32 0
  %8 = load i64*, i64** %7, align 8
  %9 = getelementptr inbounds %"struct.std::_Vector_base", %"struct.std::_Vector_base"* %5, i32 0, i32 0
  %10 = getelementptr inbounds %"struct.std::_Vector_base<long long, std::allocator<long long> >::_Vector_impl", %"struct.std::_Vector_base<long long, std::allocator<long long> >::_Vector_impl"* %9, i32 0, i32 2
  %11 = load i64*, i64** %10, align 8
  %12 = getelementptr inbounds %"struct.std::_Vector_base", %"struct.std::_Vector_base"* %5, i32 0, i32 0
  %13 = getelementptr inbounds %"struct.std::_Vector_base<long long, std::allocator<long long> >::_Vector_impl", %"struct.std::_Vector_base<long long, std::allocator<long long> >::_Vector_impl"* %12, i32 0, i32 0
  %14 = load i64*, i64** %13, align 8
  %15 = ptrtoint i64* %11 to i64
  %16 = ptrtoint i64* %14 to i64
  %17 = sub i64 %15, %16
  %18 = sdiv exact i64 %17, 8
  invoke void @_ZNSt12_Vector_baseIxSaIxEE13_M_deallocateEPxm(%"struct.std::_Vector_base"* %5, i64* %8, i64 %18)
          to label %19 unwind label %21

; <label>:19:                                     ; preds = %1
  %20 = getelementptr inbounds %"struct.std::_Vector_base", %"struct.std::_Vector_base"* %5, i32 0, i32 0
  call void @_ZNSt12_Vector_baseIxSaIxEE12_Vector_implD2Ev(%"struct.std::_Vector_base<long long, std::allocator<long long> >::_Vector_impl"* %20) #3
  ret void

; <label>:21:                                     ; preds = %1
  %22 = landingpad { i8*, i32 }
          catch i8* null
  %23 = extractvalue { i8*, i32 } %22, 0
  store i8* %23, i8** %3, align 8
  %24 = extractvalue { i8*, i32 } %22, 1
  store i32 %24, i32* %4, align 4
  %25 = getelementptr inbounds %"struct.std::_Vector_base", %"struct.std::_Vector_base"* %5, i32 0, i32 0
  call void @_ZNSt12_Vector_baseIxSaIxEE12_Vector_implD2Ev(%"struct.std::_Vector_base<long long, std::allocator<long long> >::_Vector_impl"* %25) #3
  br label %26

; <label>:26:                                     ; preds = %21
  %27 = load i8*, i8** %3, align 8
  call void @__clang_call_terminate(i8* %27) #12
  unreachable
}

; Function Attrs: noinline nounwind uwtable
define linkonce_odr void @_ZNSt12_Vector_baseIxSaIxEE12_Vector_implC2ERKS0_(%"struct.std::_Vector_base<long long, std::allocator<long long> >::_Vector_impl"*, %"class.std::allocator"* dereferenceable(1)) unnamed_addr #4 comdat align 2 {
  %3 = alloca %"struct.std::_Vector_base<long long, std::allocator<long long> >::_Vector_impl"*, align 8
  %4 = alloca %"class.std::allocator"*, align 8
  store %"struct.std::_Vector_base<long long, std::allocator<long long> >::_Vector_impl"* %0, %"struct.std::_Vector_base<long long, std::allocator<long long> >::_Vector_impl"** %3, align 8
  store %"class.std::allocator"* %1, %"class.std::allocator"** %4, align 8
  %5 = load %"struct.std::_Vector_base<long long, std::allocator<long long> >::_Vector_impl"*, %"struct.std::_Vector_base<long long, std::allocator<long long> >::_Vector_impl"** %3, align 8
  %6 = bitcast %"struct.std::_Vector_base<long long, std::allocator<long long> >::_Vector_impl"* %5 to %"class.std::allocator"*
  %7 = load %"class.std::allocator"*, %"class.std::allocator"** %4, align 8
  call void @_ZNSaIxEC2ERKS_(%"class.std::allocator"* %6, %"class.std::allocator"* dereferenceable(1) %7) #3
  %8 = getelementptr inbounds %"struct.std::_Vector_base<long long, std::allocator<long long> >::_Vector_impl", %"struct.std::_Vector_base<long long, std::allocator<long long> >::_Vector_impl"* %5, i32 0, i32 0
  store i64* null, i64** %8, align 8
  %9 = getelementptr inbounds %"struct.std::_Vector_base<long long, std::allocator<long long> >::_Vector_impl", %"struct.std::_Vector_base<long long, std::allocator<long long> >::_Vector_impl"* %5, i32 0, i32 1
  store i64* null, i64** %9, align 8
  %10 = getelementptr inbounds %"struct.std::_Vector_base<long long, std::allocator<long long> >::_Vector_impl", %"struct.std::_Vector_base<long long, std::allocator<long long> >::_Vector_impl"* %5, i32 0, i32 2
  store i64* null, i64** %10, align 8
  ret void
}

; Function Attrs: noinline uwtable
define linkonce_odr void @_ZNSt12_Vector_baseIxSaIxEE17_M_create_storageEm(%"struct.std::_Vector_base"*, i64) #0 comdat align 2 {
  %3 = alloca %"struct.std::_Vector_base"*, align 8
  %4 = alloca i64, align 8
  store %"struct.std::_Vector_base"* %0, %"struct.std::_Vector_base"** %3, align 8
  store i64 %1, i64* %4, align 8
  %5 = load %"struct.std::_Vector_base"*, %"struct.std::_Vector_base"** %3, align 8
  %6 = load i64, i64* %4, align 8
  %7 = call i64* @_ZNSt12_Vector_baseIxSaIxEE11_M_allocateEm(%"struct.std::_Vector_base"* %5, i64 %6)
  %8 = getelementptr inbounds %"struct.std::_Vector_base", %"struct.std::_Vector_base"* %5, i32 0, i32 0
  %9 = getelementptr inbounds %"struct.std::_Vector_base<long long, std::allocator<long long> >::_Vector_impl", %"struct.std::_Vector_base<long long, std::allocator<long long> >::_Vector_impl"* %8, i32 0, i32 0
  store i64* %7, i64** %9, align 8
  %10 = getelementptr inbounds %"struct.std::_Vector_base", %"struct.std::_Vector_base"* %5, i32 0, i32 0
  %11 = getelementptr inbounds %"struct.std::_Vector_base<long long, std::allocator<long long> >::_Vector_impl", %"struct.std::_Vector_base<long long, std::allocator<long long> >::_Vector_impl"* %10, i32 0, i32 0
  %12 = load i64*, i64** %11, align 8
  %13 = getelementptr inbounds %"struct.std::_Vector_base", %"struct.std::_Vector_base"* %5, i32 0, i32 0
  %14 = getelementptr inbounds %"struct.std::_Vector_base<long long, std::allocator<long long> >::_Vector_impl", %"struct.std::_Vector_base<long long, std::allocator<long long> >::_Vector_impl"* %13, i32 0, i32 1
  store i64* %12, i64** %14, align 8
  %15 = getelementptr inbounds %"struct.std::_Vector_base", %"struct.std::_Vector_base"* %5, i32 0, i32 0
  %16 = getelementptr inbounds %"struct.std::_Vector_base<long long, std::allocator<long long> >::_Vector_impl", %"struct.std::_Vector_base<long long, std::allocator<long long> >::_Vector_impl"* %15, i32 0, i32 0
  %17 = load i64*, i64** %16, align 8
  %18 = load i64, i64* %4, align 8
  %19 = getelementptr inbounds i64, i64* %17, i64 %18
  %20 = getelementptr inbounds %"struct.std::_Vector_base", %"struct.std::_Vector_base"* %5, i32 0, i32 0
  %21 = getelementptr inbounds %"struct.std::_Vector_base<long long, std::allocator<long long> >::_Vector_impl", %"struct.std::_Vector_base<long long, std::allocator<long long> >::_Vector_impl"* %20, i32 0, i32 2
  store i64* %19, i64** %21, align 8
  ret void
}

; Function Attrs: noinline nounwind uwtable
define linkonce_odr void @_ZNSt12_Vector_baseIxSaIxEE12_Vector_implD2Ev(%"struct.std::_Vector_base<long long, std::allocator<long long> >::_Vector_impl"*) unnamed_addr #4 comdat align 2 {
  %2 = alloca %"struct.std::_Vector_base<long long, std::allocator<long long> >::_Vector_impl"*, align 8
  store %"struct.std::_Vector_base<long long, std::allocator<long long> >::_Vector_impl"* %0, %"struct.std::_Vector_base<long long, std::allocator<long long> >::_Vector_impl"** %2, align 8
  %3 = load %"struct.std::_Vector_base<long long, std::allocator<long long> >::_Vector_impl"*, %"struct.std::_Vector_base<long long, std::allocator<long long> >::_Vector_impl"** %2, align 8
  %4 = bitcast %"struct.std::_Vector_base<long long, std::allocator<long long> >::_Vector_impl"* %3 to %"class.std::allocator"*
  call void @_ZNSaIxED2Ev(%"class.std::allocator"* %4) #3
  ret void
}

; Function Attrs: noinline nounwind uwtable
define linkonce_odr void @_ZNSaIxEC2ERKS_(%"class.std::allocator"*, %"class.std::allocator"* dereferenceable(1)) unnamed_addr #4 comdat align 2 {
  %3 = alloca %"class.std::allocator"*, align 8
  %4 = alloca %"class.std::allocator"*, align 8
  store %"class.std::allocator"* %0, %"class.std::allocator"** %3, align 8
  store %"class.std::allocator"* %1, %"class.std::allocator"** %4, align 8
  %5 = load %"class.std::allocator"*, %"class.std::allocator"** %3, align 8
  %6 = bitcast %"class.std::allocator"* %5 to %"class.__gnu_cxx::new_allocator"*
  %7 = load %"class.std::allocator"*, %"class.std::allocator"** %4, align 8
  %8 = bitcast %"class.std::allocator"* %7 to %"class.__gnu_cxx::new_allocator"*
  call void @_ZN9__gnu_cxx13new_allocatorIxEC2ERKS1_(%"class.__gnu_cxx::new_allocator"* %6, %"class.__gnu_cxx::new_allocator"* dereferenceable(1) %8) #3
  ret void
}

; Function Attrs: noinline nounwind uwtable
define linkonce_odr void @_ZN9__gnu_cxx13new_allocatorIxEC2ERKS1_(%"class.__gnu_cxx::new_allocator"*, %"class.__gnu_cxx::new_allocator"* dereferenceable(1)) unnamed_addr #4 comdat align 2 {
  %3 = alloca %"class.__gnu_cxx::new_allocator"*, align 8
  %4 = alloca %"class.__gnu_cxx::new_allocator"*, align 8
  store %"class.__gnu_cxx::new_allocator"* %0, %"class.__gnu_cxx::new_allocator"** %3, align 8
  store %"class.__gnu_cxx::new_allocator"* %1, %"class.__gnu_cxx::new_allocator"** %4, align 8
  %5 = load %"class.__gnu_cxx::new_allocator"*, %"class.__gnu_cxx::new_allocator"** %3, align 8
  ret void
}

; Function Attrs: noinline uwtable
define linkonce_odr i64* @_ZNSt12_Vector_baseIxSaIxEE11_M_allocateEm(%"struct.std::_Vector_base"*, i64) #0 comdat align 2 {
  %3 = alloca %"struct.std::_Vector_base"*, align 8
  %4 = alloca i64, align 8
  store %"struct.std::_Vector_base"* %0, %"struct.std::_Vector_base"** %3, align 8
  store i64 %1, i64* %4, align 8
  %5 = load %"struct.std::_Vector_base"*, %"struct.std::_Vector_base"** %3, align 8
  %6 = load i64, i64* %4, align 8
  %7 = icmp ne i64 %6, 0
  br i1 %7, label %8, label %31

; <label>:8:                                      ; preds = %2
  %9 = load i32, i32* @x.38
  %10 = load i32, i32* @y.39
  %11 = sub i32 %9, 1
  %12 = mul i32 %9, %11
  %13 = urem i32 %12, 2
  %14 = icmp eq i32 %13, 0
  %15 = icmp slt i32 %10, 10
  %16 = or i1 %14, %15
  br i1 %16, label %17, label %34

; <label>:17:                                     ; preds = %8, %34
  %18 = getelementptr inbounds %"struct.std::_Vector_base", %"struct.std::_Vector_base"* %5, i32 0, i32 0
  %19 = bitcast %"struct.std::_Vector_base<long long, std::allocator<long long> >::_Vector_impl"* %18 to %"class.std::allocator"*
  %20 = load i64, i64* %4, align 8
  %21 = call i64* @_ZNSt16allocator_traitsISaIxEE8allocateERS0_m(%"class.std::allocator"* dereferenceable(1) %19, i64 %20)
  %22 = load i32, i32* @x.38
  %23 = load i32, i32* @y.39
  %24 = sub i32 %22, 1
  %25 = mul i32 %22, %24
  %26 = urem i32 %25, 2
  %27 = icmp eq i32 %26, 0
  %28 = icmp slt i32 %23, 10
  %29 = or i1 %27, %28
  br i1 %29, label %30, label %34

; <label>:30:                                     ; preds = %17
  br label %32

; <label>:31:                                     ; preds = %2
  br label %32

; <label>:32:                                     ; preds = %31, %30
  %33 = phi i64* [ %21, %30 ], [ null, %31 ]
  ret i64* %33

; <label>:34:                                     ; preds = %17, %8
  %35 = getelementptr inbounds %"struct.std::_Vector_base", %"struct.std::_Vector_base"* %5, i32 0, i32 0
  %36 = bitcast %"struct.std::_Vector_base<long long, std::allocator<long long> >::_Vector_impl"* %35 to %"class.std::allocator"*
  %37 = load i64, i64* %4, align 8
  %38 = call i64* @_ZNSt16allocator_traitsISaIxEE8allocateERS0_m(%"class.std::allocator"* dereferenceable(1) %36, i64 %37)
  br label %17
}

; Function Attrs: noinline uwtable
define linkonce_odr i64* @_ZNSt16allocator_traitsISaIxEE8allocateERS0_m(%"class.std::allocator"* dereferenceable(1), i64) #0 comdat align 2 {
  %3 = load i32, i32* @x.40
  %4 = load i32, i32* @y.41
  %5 = sub i32 %3, 1
  %6 = mul i32 %3, %5
  %7 = urem i32 %6, 2
  %8 = icmp eq i32 %7, 0
  %9 = icmp slt i32 %4, 10
  %10 = or i1 %8, %9
  br i1 %10, label %11, label %27

; <label>:11:                                     ; preds = %2, %27
  %12 = alloca %"class.std::allocator"*, align 8
  %13 = alloca i64, align 8
  store %"class.std::allocator"* %0, %"class.std::allocator"** %12, align 8
  store i64 %1, i64* %13, align 8
  %14 = load %"class.std::allocator"*, %"class.std::allocator"** %12, align 8
  %15 = bitcast %"class.std::allocator"* %14 to %"class.__gnu_cxx::new_allocator"*
  %16 = load i64, i64* %13, align 8
  %17 = call i64* @_ZN9__gnu_cxx13new_allocatorIxE8allocateEmPKv(%"class.__gnu_cxx::new_allocator"* %15, i64 %16, i8* null)
  %18 = load i32, i32* @x.40
  %19 = load i32, i32* @y.41
  %20 = sub i32 %18, 1
  %21 = mul i32 %18, %20
  %22 = urem i32 %21, 2
  %23 = icmp eq i32 %22, 0
  %24 = icmp slt i32 %19, 10
  %25 = or i1 %23, %24
  br i1 %25, label %26, label %27

; <label>:26:                                     ; preds = %11
  ret i64* %17

; <label>:27:                                     ; preds = %11, %2
  %28 = alloca %"class.std::allocator"*, align 8
  %29 = alloca i64, align 8
  store %"class.std::allocator"* %0, %"class.std::allocator"** %28, align 8
  store i64 %1, i64* %29, align 8
  %30 = load %"class.std::allocator"*, %"class.std::allocator"** %28, align 8
  %31 = bitcast %"class.std::allocator"* %30 to %"class.__gnu_cxx::new_allocator"*
  %32 = load i64, i64* %29, align 8
  %33 = call i64* @_ZN9__gnu_cxx13new_allocatorIxE8allocateEmPKv(%"class.__gnu_cxx::new_allocator"* %31, i64 %32, i8* null)
  br label %11
}

; Function Attrs: noinline uwtable
define linkonce_odr i64* @_ZN9__gnu_cxx13new_allocatorIxE8allocateEmPKv(%"class.__gnu_cxx::new_allocator"*, i64, i8*) #0 comdat align 2 {
  %4 = alloca %"class.__gnu_cxx::new_allocator"*, align 8
  %5 = alloca i64, align 8
  %6 = alloca i8*, align 8
  store %"class.__gnu_cxx::new_allocator"* %0, %"class.__gnu_cxx::new_allocator"** %4, align 8
  store i64 %1, i64* %5, align 8
  store i8* %2, i8** %6, align 8
  %7 = load %"class.__gnu_cxx::new_allocator"*, %"class.__gnu_cxx::new_allocator"** %4, align 8
  %8 = load i64, i64* %5, align 8
  %9 = call i64 @_ZNK9__gnu_cxx13new_allocatorIxE8max_sizeEv(%"class.__gnu_cxx::new_allocator"* %7) #3
  %10 = icmp ugt i64 %8, %9
  br i1 %10, label %11, label %12

; <label>:11:                                     ; preds = %3
  call void @_ZSt17__throw_bad_allocv() #13
  unreachable

; <label>:12:                                     ; preds = %3
  %13 = load i64, i64* %5, align 8
  %14 = mul i64 %13, 8
  %15 = call i8* @_Znwm(i64 %14)
  %16 = bitcast i8* %15 to i64*
  ret i64* %16
}

; Function Attrs: noinline nounwind uwtable
define linkonce_odr i64 @_ZNK9__gnu_cxx13new_allocatorIxE8max_sizeEv(%"class.__gnu_cxx::new_allocator"*) #4 comdat align 2 {
  %2 = load i32, i32* @x.44
  %3 = load i32, i32* @y.45
  %4 = sub i32 %2, 1
  %5 = mul i32 %2, %4
  %6 = urem i32 %5, 2
  %7 = icmp eq i32 %6, 0
  %8 = icmp slt i32 %3, 10
  %9 = or i1 %7, %8
  br i1 %9, label %10, label %22

; <label>:10:                                     ; preds = %1, %22
  %11 = alloca %"class.__gnu_cxx::new_allocator"*, align 8
  store %"class.__gnu_cxx::new_allocator"* %0, %"class.__gnu_cxx::new_allocator"** %11, align 8
  %12 = load %"class.__gnu_cxx::new_allocator"*, %"class.__gnu_cxx::new_allocator"** %11, align 8
  %13 = load i32, i32* @x.44
  %14 = load i32, i32* @y.45
  %15 = sub i32 %13, 1
  %16 = mul i32 %13, %15
  %17 = urem i32 %16, 2
  %18 = icmp eq i32 %17, 0
  %19 = icmp slt i32 %14, 10
  %20 = or i1 %18, %19
  br i1 %20, label %21, label %22

; <label>:21:                                     ; preds = %10
  ret i64 2305843009213693951

; <label>:22:                                     ; preds = %10, %1
  %23 = alloca %"class.__gnu_cxx::new_allocator"*, align 8
  store %"class.__gnu_cxx::new_allocator"* %0, %"class.__gnu_cxx::new_allocator"** %23, align 8
  %24 = load %"class.__gnu_cxx::new_allocator"*, %"class.__gnu_cxx::new_allocator"** %23, align 8
  br label %10
}

; Function Attrs: noreturn
declare void @_ZSt17__throw_bad_allocv() #7

; Function Attrs: nobuiltin
declare noalias i8* @_Znwm(i64) #8

; Function Attrs: noinline uwtable
define linkonce_odr i64* @_ZSt27__uninitialized_default_n_aIPxmxET_S1_T0_RSaIT1_E(i64*, i64, %"class.std::allocator"* dereferenceable(1)) #0 comdat {
  %4 = alloca i64*, align 8
  %5 = alloca i64, align 8
  %6 = alloca %"class.std::allocator"*, align 8
  store i64* %0, i64** %4, align 8
  store i64 %1, i64* %5, align 8
  store %"class.std::allocator"* %2, %"class.std::allocator"** %6, align 8
  %7 = load i64*, i64** %4, align 8
  %8 = load i64, i64* %5, align 8
  %9 = call i64* @_ZSt25__uninitialized_default_nIPxmET_S1_T0_(i64* %7, i64 %8)
  ret i64* %9
}

; Function Attrs: noinline nounwind uwtable
define linkonce_odr dereferenceable(1) %"class.std::allocator"* @_ZNSt12_Vector_baseIxSaIxEE19_M_get_Tp_allocatorEv(%"struct.std::_Vector_base"*) #4 comdat align 2 {
  %2 = load i32, i32* @x.48
  %3 = load i32, i32* @y.49
  %4 = sub i32 %2, 1
  %5 = mul i32 %2, %4
  %6 = urem i32 %5, 2
  %7 = icmp eq i32 %6, 0
  %8 = icmp slt i32 %3, 10
  %9 = or i1 %7, %8
  br i1 %9, label %10, label %24

; <label>:10:                                     ; preds = %1, %24
  %11 = alloca %"struct.std::_Vector_base"*, align 8
  store %"struct.std::_Vector_base"* %0, %"struct.std::_Vector_base"** %11, align 8
  %12 = load %"struct.std::_Vector_base"*, %"struct.std::_Vector_base"** %11, align 8
  %13 = getelementptr inbounds %"struct.std::_Vector_base", %"struct.std::_Vector_base"* %12, i32 0, i32 0
  %14 = bitcast %"struct.std::_Vector_base<long long, std::allocator<long long> >::_Vector_impl"* %13 to %"class.std::allocator"*
  %15 = load i32, i32* @x.48
  %16 = load i32, i32* @y.49
  %17 = sub i32 %15, 1
  %18 = mul i32 %15, %17
  %19 = urem i32 %18, 2
  %20 = icmp eq i32 %19, 0
  %21 = icmp slt i32 %16, 10
  %22 = or i1 %20, %21
  br i1 %22, label %23, label %24

; <label>:23:                                     ; preds = %10
  ret %"class.std::allocator"* %14

; <label>:24:                                     ; preds = %10, %1
  %25 = alloca %"struct.std::_Vector_base"*, align 8
  store %"struct.std::_Vector_base"* %0, %"struct.std::_Vector_base"** %25, align 8
  %26 = load %"struct.std::_Vector_base"*, %"struct.std::_Vector_base"** %25, align 8
  %27 = getelementptr inbounds %"struct.std::_Vector_base", %"struct.std::_Vector_base"* %26, i32 0, i32 0
  %28 = bitcast %"struct.std::_Vector_base<long long, std::allocator<long long> >::_Vector_impl"* %27 to %"class.std::allocator"*
  br label %10
}

; Function Attrs: noinline uwtable
define linkonce_odr i64* @_ZSt25__uninitialized_default_nIPxmET_S1_T0_(i64*, i64) #0 comdat {
  %3 = alloca i64*, align 8
  %4 = alloca i64, align 8
  %5 = alloca i8, align 1
  store i64* %0, i64** %3, align 8
  store i64 %1, i64* %4, align 8
  store i8 1, i8* %5, align 1
  %6 = load i64*, i64** %3, align 8
  %7 = load i64, i64* %4, align 8
  %8 = call i64* @_ZNSt27__uninitialized_default_n_1ILb1EE18__uninit_default_nIPxmEET_S3_T0_(i64* %6, i64 %7)
  ret i64* %8
}

; Function Attrs: noinline uwtable
define linkonce_odr i64* @_ZNSt27__uninitialized_default_n_1ILb1EE18__uninit_default_nIPxmEET_S3_T0_(i64*, i64) #0 comdat align 2 {
  %3 = load i32, i32* @x.52
  %4 = load i32, i32* @y.53
  %5 = sub i32 %3, 1
  %6 = mul i32 %3, %5
  %7 = urem i32 %6, 2
  %8 = icmp eq i32 %7, 0
  %9 = icmp slt i32 %4, 10
  %10 = or i1 %8, %9
  br i1 %10, label %11, label %27

; <label>:11:                                     ; preds = %2, %27
  %12 = alloca i64*, align 8
  %13 = alloca i64, align 8
  %14 = alloca i64, align 8
  store i64* %0, i64** %12, align 8
  store i64 %1, i64* %13, align 8
  %15 = load i64*, i64** %12, align 8
  %16 = load i64, i64* %13, align 8
  store i64 0, i64* %14, align 8
  %17 = call i64* @_ZSt6fill_nIPxmxET_S1_T0_RKT1_(i64* %15, i64 %16, i64* dereferenceable(8) %14)
  %18 = load i32, i32* @x.52
  %19 = load i32, i32* @y.53
  %20 = sub i32 %18, 1
  %21 = mul i32 %18, %20
  %22 = urem i32 %21, 2
  %23 = icmp eq i32 %22, 0
  %24 = icmp slt i32 %19, 10
  %25 = or i1 %23, %24
  br i1 %25, label %26, label %27

; <label>:26:                                     ; preds = %11
  ret i64* %17

; <label>:27:                                     ; preds = %11, %2
  %28 = alloca i64*, align 8
  %29 = alloca i64, align 8
  %30 = alloca i64, align 8
  store i64* %0, i64** %28, align 8
  store i64 %1, i64* %29, align 8
  %31 = load i64*, i64** %28, align 8
  %32 = load i64, i64* %29, align 8
  store i64 0, i64* %30, align 8
  %33 = call i64* @_ZSt6fill_nIPxmxET_S1_T0_RKT1_(i64* %31, i64 %32, i64* dereferenceable(8) %30)
  br label %11
}

; Function Attrs: noinline uwtable
define linkonce_odr i64* @_ZSt6fill_nIPxmxET_S1_T0_RKT1_(i64*, i64, i64* dereferenceable(8)) #0 comdat {
  %4 = alloca i64*, align 8
  %5 = alloca i64, align 8
  %6 = alloca i64*, align 8
  store i64* %0, i64** %4, align 8
  store i64 %1, i64* %5, align 8
  store i64* %2, i64** %6, align 8
  %7 = load i64*, i64** %4, align 8
  %8 = call i64* @_ZSt12__niter_baseIPxENSt11_Niter_baseIT_E13iterator_typeES2_(i64* %7)
  %9 = load i64, i64* %5, align 8
  %10 = load i64*, i64** %6, align 8
  %11 = call i64* @_ZSt10__fill_n_aIPxmxEN9__gnu_cxx11__enable_ifIXsr11__is_scalarIT1_EE7__valueET_E6__typeES4_T0_RKS3_(i64* %8, i64 %9, i64* dereferenceable(8) %10)
  ret i64* %11
}

; Function Attrs: noinline nounwind uwtable
define linkonce_odr i64* @_ZSt10__fill_n_aIPxmxEN9__gnu_cxx11__enable_ifIXsr11__is_scalarIT1_EE7__valueET_E6__typeES4_T0_RKS3_(i64*, i64, i64* dereferenceable(8)) #4 comdat {
  %4 = alloca i64*, align 8
  %5 = alloca i64, align 8
  %6 = alloca i64*, align 8
  %7 = alloca i64, align 8
  %8 = alloca i64, align 8
  store i64* %0, i64** %4, align 8
  store i64 %1, i64* %5, align 8
  store i64* %2, i64** %6, align 8
  %9 = load i64*, i64** %6, align 8
  %10 = load i64, i64* %9, align 8
  store i64 %10, i64* %7, align 8
  %11 = load i64, i64* %5, align 8
  store i64 %11, i64* %8, align 8
  br label %12

; <label>:12:                                     ; preds = %40, %3
  %13 = load i64, i64* %8, align 8
  %14 = icmp ugt i64 %13, 0
  br i1 %14, label %15, label %41

; <label>:15:                                     ; preds = %12
  %16 = load i64, i64* %7, align 8
  %17 = load i64*, i64** %4, align 8
  store i64 %16, i64* %17, align 8
  br label %18

; <label>:18:                                     ; preds = %15
  %19 = load i32, i32* @x.56
  %20 = load i32, i32* @y.57
  %21 = sub i32 %19, 1
  %22 = mul i32 %19, %21
  %23 = urem i32 %22, 2
  %24 = icmp eq i32 %23, 0
  %25 = icmp slt i32 %20, 10
  %26 = or i1 %24, %25
  br i1 %26, label %27, label %43

; <label>:27:                                     ; preds = %18, %43
  %28 = load i64, i64* %8, align 8
  %29 = add i64 %28, -1
  store i64 %29, i64* %8, align 8
  %30 = load i64*, i64** %4, align 8
  %31 = getelementptr inbounds i64, i64* %30, i32 1
  store i64* %31, i64** %4, align 8
  %32 = load i32, i32* @x.56
  %33 = load i32, i32* @y.57
  %34 = sub i32 %32, 1
  %35 = mul i32 %32, %34
  %36 = urem i32 %35, 2
  %37 = icmp eq i32 %36, 0
  %38 = icmp slt i32 %33, 10
  %39 = or i1 %37, %38
  br i1 %39, label %40, label %43

; <label>:40:                                     ; preds = %27
  br label %12

; <label>:41:                                     ; preds = %12
  %42 = load i64*, i64** %4, align 8
  ret i64* %42

; <label>:43:                                     ; preds = %27, %18
  %44 = load i64, i64* %8, align 8
  %45 = sub i64 0, %44
  %46 = add i64 %45, -1
  %47 = sub i64 0, %44
  %48 = add i64 %47, -1
  %49 = shl i64 %44, -1
  %50 = shl i64 %44, -1
  %51 = sub i64 %44, -1
  %52 = mul i64 %51, -1
  %53 = add i64 %44, -1
  store i64 %53, i64* %8, align 8
  %54 = load i64*, i64** %4, align 8
  %55 = getelementptr inbounds i64, i64* %54, i32 1
  store i64* %55, i64** %4, align 8
  br label %27
}

; Function Attrs: noinline uwtable
define linkonce_odr i64* @_ZSt12__niter_baseIPxENSt11_Niter_baseIT_E13iterator_typeES2_(i64*) #0 comdat {
  %2 = alloca i64*, align 8
  store i64* %0, i64** %2, align 8
  %3 = load i64*, i64** %2, align 8
  %4 = call i64* @_ZNSt10_Iter_baseIPxLb0EE7_S_baseES0_(i64* %3)
  ret i64* %4
}

; Function Attrs: noinline nounwind uwtable
define linkonce_odr i64* @_ZNSt10_Iter_baseIPxLb0EE7_S_baseES0_(i64*) #4 comdat align 2 {
  %2 = alloca i64*, align 8
  store i64* %0, i64** %2, align 8
  %3 = load i64*, i64** %2, align 8
  ret i64* %3
}

; Function Attrs: noinline uwtable
define linkonce_odr void @_ZNSt12_Vector_baseIxSaIxEE13_M_deallocateEPxm(%"struct.std::_Vector_base"*, i64*, i64) #0 comdat align 2 {
  %4 = alloca %"struct.std::_Vector_base"*, align 8
  %5 = alloca i64*, align 8
  %6 = alloca i64, align 8
  store %"struct.std::_Vector_base"* %0, %"struct.std::_Vector_base"** %4, align 8
  store i64* %1, i64** %5, align 8
  store i64 %2, i64* %6, align 8
  %7 = load %"struct.std::_Vector_base"*, %"struct.std::_Vector_base"** %4, align 8
  %8 = load i64*, i64** %5, align 8
  %9 = icmp ne i64* %8, null
  br i1 %9, label %10, label %15

; <label>:10:                                     ; preds = %3
  %11 = getelementptr inbounds %"struct.std::_Vector_base", %"struct.std::_Vector_base"* %7, i32 0, i32 0
  %12 = bitcast %"struct.std::_Vector_base<long long, std::allocator<long long> >::_Vector_impl"* %11 to %"class.std::allocator"*
  %13 = load i64*, i64** %5, align 8
  %14 = load i64, i64* %6, align 8
  call void @_ZNSt16allocator_traitsISaIxEE10deallocateERS0_Pxm(%"class.std::allocator"* dereferenceable(1) %12, i64* %13, i64 %14)
  br label %15

; <label>:15:                                     ; preds = %10, %3
  ret void
}

; Function Attrs: noinline noreturn nounwind
define linkonce_odr hidden void @__clang_call_terminate(i8*) #9 comdat {
  %2 = call i8* @__cxa_begin_catch(i8* %0) #3
  call void @_ZSt9terminatev() #12
  unreachable
}

declare i8* @__cxa_begin_catch(i8*)

declare void @_ZSt9terminatev()

; Function Attrs: noinline uwtable
define linkonce_odr void @_ZNSt16allocator_traitsISaIxEE10deallocateERS0_Pxm(%"class.std::allocator"* dereferenceable(1), i64*, i64) #0 comdat align 2 {
  %4 = alloca %"class.std::allocator"*, align 8
  %5 = alloca i64*, align 8
  %6 = alloca i64, align 8
  store %"class.std::allocator"* %0, %"class.std::allocator"** %4, align 8
  store i64* %1, i64** %5, align 8
  store i64 %2, i64* %6, align 8
  %7 = load %"class.std::allocator"*, %"class.std::allocator"** %4, align 8
  %8 = bitcast %"class.std::allocator"* %7 to %"class.__gnu_cxx::new_allocator"*
  %9 = load i64*, i64** %5, align 8
  %10 = load i64, i64* %6, align 8
  call void @_ZN9__gnu_cxx13new_allocatorIxE10deallocateEPxm(%"class.__gnu_cxx::new_allocator"* %8, i64* %9, i64 %10)
  ret void
}

; Function Attrs: noinline nounwind uwtable
define linkonce_odr void @_ZN9__gnu_cxx13new_allocatorIxE10deallocateEPxm(%"class.__gnu_cxx::new_allocator"*, i64*, i64) #4 comdat align 2 {
  %4 = alloca %"class.__gnu_cxx::new_allocator"*, align 8
  %5 = alloca i64*, align 8
  %6 = alloca i64, align 8
  store %"class.__gnu_cxx::new_allocator"* %0, %"class.__gnu_cxx::new_allocator"** %4, align 8
  store i64* %1, i64** %5, align 8
  store i64 %2, i64* %6, align 8
  %7 = load %"class.__gnu_cxx::new_allocator"*, %"class.__gnu_cxx::new_allocator"** %4, align 8
  %8 = load i64*, i64** %5, align 8
  %9 = bitcast i64* %8 to i8*
  call void @_ZdlPv(i8* %9) #3
  ret void
}

; Function Attrs: nobuiltin nounwind
declare void @_ZdlPv(i8*) #10

; Function Attrs: noinline uwtable
define linkonce_odr void @_ZSt8_DestroyIPxxEvT_S1_RSaIT0_E(i64*, i64*, %"class.std::allocator"* dereferenceable(1)) #0 comdat {
  %4 = alloca i64*, align 8
  %5 = alloca i64*, align 8
  %6 = alloca %"class.std::allocator"*, align 8
  store i64* %0, i64** %4, align 8
  store i64* %1, i64** %5, align 8
  store %"class.std::allocator"* %2, %"class.std::allocator"** %6, align 8
  %7 = load i64*, i64** %4, align 8
  %8 = load i64*, i64** %5, align 8
  call void @_ZSt8_DestroyIPxEvT_S1_(i64* %7, i64* %8)
  ret void
}

; Function Attrs: noinline uwtable
define linkonce_odr void @_ZSt8_DestroyIPxEvT_S1_(i64*, i64*) #0 comdat {
  %3 = alloca i64*, align 8
  %4 = alloca i64*, align 8
  store i64* %0, i64** %3, align 8
  store i64* %1, i64** %4, align 8
  %5 = load i64*, i64** %3, align 8
  %6 = load i64*, i64** %4, align 8
  call void @_ZNSt12_Destroy_auxILb1EE9__destroyIPxEEvT_S3_(i64* %5, i64* %6)
  ret void
}

; Function Attrs: noinline nounwind uwtable
define linkonce_odr void @_ZNSt12_Destroy_auxILb1EE9__destroyIPxEEvT_S3_(i64*, i64*) #4 comdat align 2 {
  %3 = alloca i64*, align 8
  %4 = alloca i64*, align 8
  store i64* %0, i64** %3, align 8
  store i64* %1, i64** %4, align 8
  ret void
}

; Function Attrs: noinline uwtable
define internal void @_GLOBAL__sub_I_s532773763.cpp() #0 section ".text.startup" {
  %1 = load i32, i32* @x.76
  %2 = load i32, i32* @y.77
  %3 = sub i32 %1, 1
  %4 = mul i32 %1, %3
  %5 = urem i32 %4, 2
  %6 = icmp eq i32 %5, 0
  %7 = icmp slt i32 %2, 10
  %8 = or i1 %6, %7
  br i1 %8, label %9, label %19

; <label>:9:                                      ; preds = %0, %19
  call void @__cxx_global_var_init()
  call void @__cxx_global_var_init.1()
  %10 = load i32, i32* @x.76
  %11 = load i32, i32* @y.77
  %12 = sub i32 %10, 1
  %13 = mul i32 %10, %12
  %14 = urem i32 %13, 2
  %15 = icmp eq i32 %14, 0
  %16 = icmp slt i32 %11, 10
  %17 = or i1 %15, %16
  br i1 %17, label %18, label %19

; <label>:18:                                     ; preds = %9
  ret void

; <label>:19:                                     ; preds = %9, %0
  call void @__cxx_global_var_init()
  call void @__cxx_global_var_init.1()
  br label %9
}

attributes #0 = { noinline uwtable "correctly-rounded-divide-sqrt-fp-math"="false" "disable-tail-calls"="false" "less-precise-fpmad"="false" "no-frame-pointer-elim"="true" "no-frame-pointer-elim-non-leaf" "no-infs-fp-math"="false" "no-jump-tables"="false" "no-nans-fp-math"="false" "no-signed-zeros-fp-math"="false" "no-trapping-math"="false" "stack-protector-buffer-size"="8" "target-cpu"="x86-64" "target-features"="+fxsr,+mmx,+sse,+sse2,+x87" "unsafe-fp-math"="false" "use-soft-float"="false" }
attributes #1 = { "correctly-rounded-divide-sqrt-fp-math"="false" "disable-tail-calls"="false" "less-precise-fpmad"="false" "no-frame-pointer-elim"="true" "no-frame-pointer-elim-non-leaf" "no-infs-fp-math"="false" "no-nans-fp-math"="false" "no-signed-zeros-fp-math"="false" "no-trapping-math"="false" "stack-protector-buffer-size"="8" "target-cpu"="x86-64" "target-features"="+fxsr,+mmx,+sse,+sse2,+x87" "unsafe-fp-math"="false" "use-soft-float"="false" }
attributes #2 = { nounwind "correctly-rounded-divide-sqrt-fp-math"="false" "disable-tail-calls"="false" "less-precise-fpmad"="false" "no-frame-pointer-elim"="true" "no-frame-pointer-elim-non-leaf" "no-infs-fp-math"="false" "no-nans-fp-math"="false" "no-signed-zeros-fp-math"="false" "no-trapping-math"="false" "stack-protector-buffer-size"="8" "target-cpu"="x86-64" "target-features"="+fxsr,+mmx,+sse,+sse2,+x87" "unsafe-fp-math"="false" "use-soft-float"="false" }
attributes #3 = { nounwind }
attributes #4 = { noinline nounwind uwtable "correctly-rounded-divide-sqrt-fp-math"="false" "disable-tail-calls"="false" "less-precise-fpmad"="false" "no-frame-pointer-elim"="true" "no-frame-pointer-elim-non-leaf" "no-infs-fp-math"="false" "no-jump-tables"="false" "no-nans-fp-math"="false" "no-signed-zeros-fp-math"="false" "no-trapping-math"="false" "stack-protector-buffer-size"="8" "target-cpu"="x86-64" "target-features"="+fxsr,+mmx,+sse,+sse2,+x87" "unsafe-fp-math"="false" "use-soft-float"="false" }
attributes #5 = { noinline norecurse uwtable "correctly-rounded-divide-sqrt-fp-math"="false" "disable-tail-calls"="false" "less-precise-fpmad"="false" "no-frame-pointer-elim"="true" "no-frame-pointer-elim-non-leaf" "no-infs-fp-math"="false" "no-jump-tables"="false" "no-nans-fp-math"="false" "no-signed-zeros-fp-math"="false" "no-trapping-math"="false" "stack-protector-buffer-size"="8" "target-cpu"="x86-64" "target-features"="+fxsr,+mmx,+sse,+sse2,+x87" "unsafe-fp-math"="false" "use-soft-float"="false" }
attributes #6 = { nounwind readnone "correctly-rounded-divide-sqrt-fp-math"="false" "disable-tail-calls"="false" "less-precise-fpmad"="false" "no-frame-pointer-elim"="true" "no-frame-pointer-elim-non-leaf" "no-infs-fp-math"="false" "no-nans-fp-math"="false" "no-signed-zeros-fp-math"="false" "no-trapping-math"="false" "stack-protector-buffer-size"="8" "target-cpu"="x86-64" "target-features"="+fxsr,+mmx,+sse,+sse2,+x87" "unsafe-fp-math"="false" "use-soft-float"="false" }
attributes #7 = { noreturn "correctly-rounded-divide-sqrt-fp-math"="false" "disable-tail-calls"="false" "less-precise-fpmad"="false" "no-frame-pointer-elim"="true" "no-frame-pointer-elim-non-leaf" "no-infs-fp-math"="false" "no-nans-fp-math"="false" "no-signed-zeros-fp-math"="false" "no-trapping-math"="false" "stack-protector-buffer-size"="8" "target-cpu"="x86-64" "target-features"="+fxsr,+mmx,+sse,+sse2,+x87" "unsafe-fp-math"="false" "use-soft-float"="false" }
attributes #8 = { nobuiltin "correctly-rounded-divide-sqrt-fp-math"="false" "disable-tail-calls"="false" "less-precise-fpmad"="false" "no-frame-pointer-elim"="true" "no-frame-pointer-elim-non-leaf" "no-infs-fp-math"="false" "no-nans-fp-math"="false" "no-signed-zeros-fp-math"="false" "no-trapping-math"="false" "stack-protector-buffer-size"="8" "target-cpu"="x86-64" "target-features"="+fxsr,+mmx,+sse,+sse2,+x87" "unsafe-fp-math"="false" "use-soft-float"="false" }
attributes #9 = { noinline noreturn nounwind }
attributes #10 = { nobuiltin nounwind "correctly-rounded-divide-sqrt-fp-math"="false" "disable-tail-calls"="false" "less-precise-fpmad"="false" "no-frame-pointer-elim"="true" "no-frame-pointer-elim-non-leaf" "no-infs-fp-math"="false" "no-nans-fp-math"="false" "no-signed-zeros-fp-math"="false" "no-trapping-math"="false" "stack-protector-buffer-size"="8" "target-cpu"="x86-64" "target-features"="+fxsr,+mmx,+sse,+sse2,+x87" "unsafe-fp-math"="false" "use-soft-float"="false" }
attributes #11 = { nounwind readnone }
attributes #12 = { noreturn nounwind }
attributes #13 = { noreturn }

!llvm.ident = !{!0}

!0 = !{!"Obfuscator-LLVM clang version 4.0.1  (based on Obfuscator-LLVM 4.0.1)"}
