; ModuleID = 'Project_CodeNet_C++1400/p03247/s938481187.cpp'
source_filename = "Project_CodeNet_C++1400/p03247/s938481187.cpp"
target datalayout = "e-m:e-i64:64-f80:128-n8:16:32:64-S128"
target triple = "x86_64-unknown-linux-gnu"

%"class.std::ios_base::Init" = type { i8 }
%"class.std::basic_istream" = type { i32 (...)**, i64, %"class.std::basic_ios" }
%"class.std::basic_ios" = type { %"class.std::ios_base", %"class.std::basic_ostream"*, i8, i8, %"class.std::basic_streambuf"*, %"class.std::ctype"*, %"class.std::num_put"*, %"class.std::num_get"* }
%"class.std::ios_base" = type { i32 (...)**, i64, i64, i32, i32, i32, %"struct.std::ios_base::_Callback_list"*, %"struct.std::ios_base::_Words", [8 x %"struct.std::ios_base::_Words"], i32, %"struct.std::ios_base::_Words"*, %"class.std::locale" }
%"struct.std::ios_base::_Callback_list" = type { %"struct.std::ios_base::_Callback_list"*, void (i32, %"class.std::ios_base"*, i32)*, i32, i32 }
%"struct.std::ios_base::_Words" = type { i8*, i64 }
%"class.std::locale" = type { %"class.std::locale::_Impl"* }
%"class.std::locale::_Impl" = type { i32, %"class.std::locale::facet"**, i64, %"class.std::locale::facet"**, i8** }
%"class.std::locale::facet" = type <{ i32 (...)**, i32, [4 x i8] }>
%"class.std::basic_ostream" = type { i32 (...)**, %"class.std::basic_ios" }
%"class.std::basic_streambuf" = type { i32 (...)**, i8*, i8*, i8*, i8*, i8*, i8*, %"class.std::locale" }
%"class.std::ctype" = type <{ %"class.std::locale::facet.base", [4 x i8], %struct.__locale_struct*, i8, [7 x i8], i32*, i32*, i16*, i8, [256 x i8], [256 x i8], i8, [6 x i8] }>
%"class.std::locale::facet.base" = type <{ i32 (...)**, i32 }>
%struct.__locale_struct = type { [13 x %struct.__locale_data*], i16*, i32*, i32*, [13 x i8*] }
%struct.__locale_data = type opaque
%"class.std::num_put" = type { %"class.std::locale::facet.base", [4 x i8] }
%"class.std::num_get" = type { %"class.std::locale::facet.base", [4 x i8] }

$_ZSt3absx = comdat any

@_ZStL8__ioinit = internal global %"class.std::ios_base::Init" zeroinitializer, align 1
@__dso_handle = external global i8
@xs = global [1010 x i32] zeroinitializer, align 16
@ys = global [1010 x i32] zeroinitializer, align 16
@n = global i32 0, align 4
@step = global [50 x i8] zeroinitializer, align 16
@_ZSt3cin = external global %"class.std::basic_istream", align 8
@_ZSt4cout = external global %"class.std::basic_ostream", align 8
@.str = private unnamed_addr constant [3 x i8] c" \0A\00", align 1
@llvm.global_ctors = appending global [1 x { i32, void ()*, i8* }] [{ i32, void ()*, i8* } { i32 65535, void ()* @_GLOBAL__sub_I_s938481187.cpp, i8* null }]
@x = common global i32 0
@y = common global i32 0
@x.1 = common global i32 0
@y.2 = common global i32 0
@x.3 = common global i32 0
@y.4 = common global i32 0
@x.5 = common global i32 0
@y.6 = common global i32 0

; Function Attrs: noinline uwtable
define internal void @__cxx_global_var_init() #0 section ".text.startup" {
  %1 = load i32, i32* @x
  %2 = load i32, i32* @y
  %3 = sub i32 %1, 1
  %4 = mul i32 %1, %3
  %5 = urem i32 %4, 2
  %6 = icmp eq i32 %5, 0
  %7 = icmp slt i32 %2, 10
  %8 = or i1 %6, %7
  br i1 %8, label %9, label %20

; <label>:9:                                      ; preds = %0, %20
  call void @_ZNSt8ios_base4InitC1Ev(%"class.std::ios_base::Init"* @_ZStL8__ioinit)
  %10 = call i32 @__cxa_atexit(void (i8*)* bitcast (void (%"class.std::ios_base::Init"*)* @_ZNSt8ios_base4InitD1Ev to void (i8*)*), i8* getelementptr inbounds (%"class.std::ios_base::Init", %"class.std::ios_base::Init"* @_ZStL8__ioinit, i32 0, i32 0), i8* @__dso_handle) #3
  %11 = load i32, i32* @x
  %12 = load i32, i32* @y
  %13 = sub i32 %11, 1
  %14 = mul i32 %11, %13
  %15 = urem i32 %14, 2
  %16 = icmp eq i32 %15, 0
  %17 = icmp slt i32 %12, 10
  %18 = or i1 %16, %17
  br i1 %18, label %19, label %20

; <label>:19:                                     ; preds = %9
  ret void

; <label>:20:                                     ; preds = %9, %0
  call void @_ZNSt8ios_base4InitC1Ev(%"class.std::ios_base::Init"* @_ZStL8__ioinit)
  %21 = call i32 @__cxa_atexit(void (i8*)* bitcast (void (%"class.std::ios_base::Init"*)* @_ZNSt8ios_base4InitD1Ev to void (i8*)*), i8* getelementptr inbounds (%"class.std::ios_base::Init", %"class.std::ios_base::Init"* @_ZStL8__ioinit, i32 0, i32 0), i8* @__dso_handle) #3
  br label %9
}

declare void @_ZNSt8ios_base4InitC1Ev(%"class.std::ios_base::Init"*) unnamed_addr #1

; Function Attrs: nounwind
declare void @_ZNSt8ios_base4InitD1Ev(%"class.std::ios_base::Init"*) unnamed_addr #2

; Function Attrs: nounwind
declare i32 @__cxa_atexit(void (i8*)*, i8*, i8*) #3

; Function Attrs: noinline norecurse uwtable
define i32 @main() #4 {
  %1 = load i32, i32* @x.1
  %2 = load i32, i32* @y.2
  %3 = sub i32 %1, 1
  %4 = mul i32 %1, %3
  %5 = urem i32 %4, 2
  %6 = icmp eq i32 %5, 0
  %7 = icmp slt i32 %2, 10
  %8 = or i1 %6, %7
  br i1 %8, label %9, label %403

; <label>:9:                                      ; preds = %0, %403
  %10 = alloca i32, align 4
  %11 = alloca i32, align 4
  %12 = alloca i32, align 4
  %13 = alloca i32, align 4
  %14 = alloca i32, align 4
  %15 = alloca i32, align 4
  %16 = alloca i64, align 8
  %17 = alloca i64, align 8
  %18 = alloca i32, align 4
  %19 = alloca i32, align 4
  %20 = alloca i64, align 8
  store i32 0, i32* %10, align 4
  %21 = call zeroext i1 @_ZNSt8ios_base15sync_with_stdioEb(i1 zeroext false)
  %22 = load i8*, i8** bitcast (%"class.std::basic_istream"* @_ZSt3cin to i8**), align 8
  %23 = getelementptr i8, i8* %22, i64 -24
  %24 = bitcast i8* %23 to i64*
  %25 = load i64, i64* %24, align 8
  %26 = getelementptr inbounds i8, i8* bitcast (%"class.std::basic_istream"* @_ZSt3cin to i8*), i64 %25
  %27 = bitcast i8* %26 to %"class.std::basic_ios"*
  %28 = call %"class.std::basic_ostream"* @_ZNSt9basic_iosIcSt11char_traitsIcEE3tieEPSo(%"class.std::basic_ios"* %27, %"class.std::basic_ostream"* null)
  %29 = call dereferenceable(280) %"class.std::basic_istream"* @_ZNSirsERi(%"class.std::basic_istream"* @_ZSt3cin, i32* dereferenceable(4) @n)
  store i32 1, i32* %11, align 4
  %30 = load i32, i32* @x.1
  %31 = load i32, i32* @y.2
  %32 = sub i32 %30, 1
  %33 = mul i32 %30, %32
  %34 = urem i32 %33, 2
  %35 = icmp eq i32 %34, 0
  %36 = icmp slt i32 %31, 10
  %37 = or i1 %35, %36
  br i1 %37, label %38, label %403

; <label>:38:                                     ; preds = %9
  br label %39

; <label>:39:                                     ; preds = %70, %38
  %40 = load i32, i32* @x.1
  %41 = load i32, i32* @y.2
  %42 = sub i32 %40, 1
  %43 = mul i32 %40, %42
  %44 = urem i32 %43, 2
  %45 = icmp eq i32 %44, 0
  %46 = icmp slt i32 %41, 10
  %47 = or i1 %45, %46
  br i1 %47, label %48, label %424

; <label>:48:                                     ; preds = %39, %424
  %49 = load i32, i32* %11, align 4
  %50 = load i32, i32* @n, align 4
  %51 = icmp sle i32 %49, %50
  %52 = load i32, i32* @x.1
  %53 = load i32, i32* @y.2
  %54 = sub i32 %52, 1
  %55 = mul i32 %52, %54
  %56 = urem i32 %55, 2
  %57 = icmp eq i32 %56, 0
  %58 = icmp slt i32 %53, 10
  %59 = or i1 %57, %58
  br i1 %59, label %60, label %424

; <label>:60:                                     ; preds = %48
  br i1 %51, label %61, label %73

; <label>:61:                                     ; preds = %60
  %62 = load i32, i32* %11, align 4
  %63 = sext i32 %62 to i64
  %64 = getelementptr inbounds [1010 x i32], [1010 x i32]* @xs, i64 0, i64 %63
  %65 = call dereferenceable(280) %"class.std::basic_istream"* @_ZNSirsERi(%"class.std::basic_istream"* @_ZSt3cin, i32* dereferenceable(4) %64)
  %66 = load i32, i32* %11, align 4
  %67 = sext i32 %66 to i64
  %68 = getelementptr inbounds [1010 x i32], [1010 x i32]* @ys, i64 0, i64 %67
  %69 = call dereferenceable(280) %"class.std::basic_istream"* @_ZNSirsERi(%"class.std::basic_istream"* %65, i32* dereferenceable(4) %68)
  br label %70

; <label>:70:                                     ; preds = %61
  %71 = load i32, i32* %11, align 4
  %72 = add nsw i32 %71, 1
  store i32 %72, i32* %11, align 4
  br label %39

; <label>:73:                                     ; preds = %60
  store i32 1, i32* %12, align 4
  br label %74

; <label>:74:                                     ; preds = %116, %73
  %75 = load i32, i32* %12, align 4
  %76 = load i32, i32* @n, align 4
  %77 = icmp sle i32 %75, %76
  br i1 %77, label %78, label %119

; <label>:78:                                     ; preds = %74
  %79 = load i32, i32* %12, align 4
  %80 = sext i32 %79 to i64
  %81 = getelementptr inbounds [1010 x i32], [1010 x i32]* @xs, i64 0, i64 %80
  %82 = load i32, i32* %81, align 4
  %83 = load i32, i32* %12, align 4
  %84 = sext i32 %83 to i64
  %85 = getelementptr inbounds [1010 x i32], [1010 x i32]* @ys, i64 0, i64 %84
  %86 = load i32, i32* %85, align 4
  %87 = add nsw i32 %82, %86
  %88 = and i32 %87, 1
  %89 = load i32, i32* getelementptr inbounds ([1010 x i32], [1010 x i32]* @xs, i64 0, i64 1), align 4
  %90 = load i32, i32* getelementptr inbounds ([1010 x i32], [1010 x i32]* @ys, i64 0, i64 1), align 4
  %91 = add nsw i32 %89, %90
  %92 = and i32 %91, 1
  %93 = icmp ne i32 %88, %92
  br i1 %93, label %94, label %97

; <label>:94:                                     ; preds = %78
  %95 = call dereferenceable(272) %"class.std::basic_ostream"* @_ZNSolsEi(%"class.std::basic_ostream"* @_ZSt4cout, i32 -1)
  %96 = call dereferenceable(272) %"class.std::basic_ostream"* @_ZNSolsEPFRSoS_E(%"class.std::basic_ostream"* %95, %"class.std::basic_ostream"* (%"class.std::basic_ostream"*)* @_ZSt4endlIcSt11char_traitsIcEERSt13basic_ostreamIT_T0_ES6_)
  store i32 0, i32* %10, align 4
  br label %383

; <label>:97:                                     ; preds = %78
  %98 = load i32, i32* @x.1
  %99 = load i32, i32* @y.2
  %100 = sub i32 %98, 1
  %101 = mul i32 %98, %100
  %102 = urem i32 %101, 2
  %103 = icmp eq i32 %102, 0
  %104 = icmp slt i32 %99, 10
  %105 = or i1 %103, %104
  br i1 %105, label %106, label %428

; <label>:106:                                    ; preds = %97, %428
  %107 = load i32, i32* @x.1
  %108 = load i32, i32* @y.2
  %109 = sub i32 %107, 1
  %110 = mul i32 %107, %109
  %111 = urem i32 %110, 2
  %112 = icmp eq i32 %111, 0
  %113 = icmp slt i32 %108, 10
  %114 = or i1 %112, %113
  br i1 %114, label %115, label %428

; <label>:115:                                    ; preds = %106
  br label %116

; <label>:116:                                    ; preds = %115
  %117 = load i32, i32* %12, align 4
  %118 = add nsw i32 %117, 1
  store i32 %118, i32* %12, align 4
  br label %74

; <label>:119:                                    ; preds = %74
  %120 = load i32, i32* getelementptr inbounds ([1010 x i32], [1010 x i32]* @xs, i64 0, i64 1), align 4
  %121 = load i32, i32* getelementptr inbounds ([1010 x i32], [1010 x i32]* @ys, i64 0, i64 1), align 4
  %122 = add nsw i32 %120, %121
  %123 = and i32 %122, 1
  %124 = xor i32 %123, 1
  store i32 %124, i32* %13, align 4
  %125 = load i32, i32* %13, align 4
  %126 = add nsw i32 39, %125
  %127 = call dereferenceable(272) %"class.std::basic_ostream"* @_ZNSolsEi(%"class.std::basic_ostream"* @_ZSt4cout, i32 %126)
  %128 = call dereferenceable(272) %"class.std::basic_ostream"* @_ZStlsISt11char_traitsIcEERSt13basic_ostreamIcT_ES5_c(%"class.std::basic_ostream"* dereferenceable(272) %127, i8 signext 10)
  %129 = load i32, i32* %13, align 4
  %130 = icmp ne i32 %129, 0
  br i1 %130, label %131, label %152

; <label>:131:                                    ; preds = %119
  %132 = load i32, i32* @x.1
  %133 = load i32, i32* @y.2
  %134 = sub i32 %132, 1
  %135 = mul i32 %132, %134
  %136 = urem i32 %135, 2
  %137 = icmp eq i32 %136, 0
  %138 = icmp slt i32 %133, 10
  %139 = or i1 %137, %138
  br i1 %139, label %140, label %429

; <label>:140:                                    ; preds = %131, %429
  %141 = call dereferenceable(272) %"class.std::basic_ostream"* @_ZNSolsEi(%"class.std::basic_ostream"* @_ZSt4cout, i32 1)
  %142 = call dereferenceable(272) %"class.std::basic_ostream"* @_ZStlsISt11char_traitsIcEERSt13basic_ostreamIcT_ES5_c(%"class.std::basic_ostream"* dereferenceable(272) %141, i8 signext 32)
  %143 = load i32, i32* @x.1
  %144 = load i32, i32* @y.2
  %145 = sub i32 %143, 1
  %146 = mul i32 %143, %145
  %147 = urem i32 %146, 2
  %148 = icmp eq i32 %147, 0
  %149 = icmp slt i32 %144, 10
  %150 = or i1 %148, %149
  br i1 %150, label %151, label %429

; <label>:151:                                    ; preds = %140
  br label %152

; <label>:152:                                    ; preds = %151, %119
  store i32 0, i32* %14, align 4
  br label %153

; <label>:153:                                    ; preds = %185, %152
  %154 = load i32, i32* @x.1
  %155 = load i32, i32* @y.2
  %156 = sub i32 %154, 1
  %157 = mul i32 %154, %156
  %158 = urem i32 %157, 2
  %159 = icmp eq i32 %158, 0
  %160 = icmp slt i32 %155, 10
  %161 = or i1 %159, %160
  br i1 %161, label %162, label %432

; <label>:162:                                    ; preds = %153, %432
  %163 = load i32, i32* %14, align 4
  %164 = icmp slt i32 %163, 39
  %165 = load i32, i32* @x.1
  %166 = load i32, i32* @y.2
  %167 = sub i32 %165, 1
  %168 = mul i32 %165, %167
  %169 = urem i32 %168, 2
  %170 = icmp eq i32 %169, 0
  %171 = icmp slt i32 %166, 10
  %172 = or i1 %170, %171
  br i1 %172, label %173, label %432

; <label>:173:                                    ; preds = %162
  br i1 %164, label %174, label %188

; <label>:174:                                    ; preds = %173
  %175 = load i32, i32* %14, align 4
  %176 = zext i32 %175 to i64
  %177 = shl i64 1, %176
  %178 = call dereferenceable(272) %"class.std::basic_ostream"* @_ZNSolsEx(%"class.std::basic_ostream"* @_ZSt4cout, i64 %177)
  %179 = load i32, i32* %14, align 4
  %180 = icmp eq i32 %179, 38
  %181 = zext i1 %180 to i64
  %182 = getelementptr inbounds [3 x i8], [3 x i8]* @.str, i64 0, i64 %181
  %183 = load i8, i8* %182, align 1
  %184 = call dereferenceable(272) %"class.std::basic_ostream"* @_ZStlsISt11char_traitsIcEERSt13basic_ostreamIcT_ES5_c(%"class.std::basic_ostream"* dereferenceable(272) %178, i8 signext %183)
  br label %185

; <label>:185:                                    ; preds = %174
  %186 = load i32, i32* %14, align 4
  %187 = add nsw i32 %186, 1
  store i32 %187, i32* %14, align 4
  br label %153

; <label>:188:                                    ; preds = %173
  store i32 1, i32* %15, align 4
  br label %189

; <label>:189:                                    ; preds = %379, %188
  %190 = load i32, i32* %15, align 4
  %191 = load i32, i32* @n, align 4
  %192 = icmp sle i32 %190, %191
  br i1 %192, label %193, label %382

; <label>:193:                                    ; preds = %189
  %194 = load i32, i32* %15, align 4
  %195 = sext i32 %194 to i64
  %196 = getelementptr inbounds [1010 x i32], [1010 x i32]* @xs, i64 0, i64 %195
  %197 = load i32, i32* %196, align 4
  %198 = sext i32 %197 to i64
  store i64 %198, i64* %16, align 8
  %199 = load i32, i32* %15, align 4
  %200 = sext i32 %199 to i64
  %201 = getelementptr inbounds [1010 x i32], [1010 x i32]* @ys, i64 0, i64 %200
  %202 = load i32, i32* %201, align 4
  %203 = sext i32 %202 to i64
  store i64 %203, i64* %17, align 8
  %204 = load i32, i32* %13, align 4
  %205 = icmp ne i32 %204, 0
  br i1 %205, label %206, label %209

; <label>:206:                                    ; preds = %193
  store i8 76, i8* getelementptr inbounds ([50 x i8], [50 x i8]* @step, i64 0, i64 0), align 16
  %207 = load i64, i64* %16, align 8
  %208 = add nsw i64 %207, 1
  store i64 %208, i64* %16, align 8
  br label %209

; <label>:209:                                    ; preds = %206, %193
  %210 = load i32, i32* @x.1
  %211 = load i32, i32* @y.2
  %212 = sub i32 %210, 1
  %213 = mul i32 %210, %212
  %214 = urem i32 %213, 2
  %215 = icmp eq i32 %214, 0
  %216 = icmp slt i32 %211, 10
  %217 = or i1 %215, %216
  br i1 %217, label %218, label %435

; <label>:218:                                    ; preds = %209, %435
  %219 = load i32, i32* %13, align 4
  %220 = add nsw i32 %219, 39
  %221 = sub nsw i32 %220, 1
  store i32 %221, i32* %18, align 4
  store i32 38, i32* %19, align 4
  %222 = load i32, i32* @x.1
  %223 = load i32, i32* @y.2
  %224 = sub i32 %222, 1
  %225 = mul i32 %222, %224
  %226 = urem i32 %225, 2
  %227 = icmp eq i32 %226, 0
  %228 = icmp slt i32 %223, 10
  %229 = or i1 %227, %228
  br i1 %229, label %230, label %435

; <label>:230:                                    ; preds = %218
  br label %231

; <label>:231:                                    ; preds = %371, %230
  %232 = load i32, i32* @x.1
  %233 = load i32, i32* @y.2
  %234 = sub i32 %232, 1
  %235 = mul i32 %232, %234
  %236 = urem i32 %235, 2
  %237 = icmp eq i32 %236, 0
  %238 = icmp slt i32 %233, 10
  %239 = or i1 %237, %238
  br i1 %239, label %240, label %446

; <label>:240:                                    ; preds = %231, %446
  %241 = load i32, i32* %19, align 4
  %242 = xor i32 %241, -1
  %243 = icmp ne i32 %242, 0
  %244 = load i32, i32* @x.1
  %245 = load i32, i32* @y.2
  %246 = sub i32 %244, 1
  %247 = mul i32 %244, %246
  %248 = urem i32 %247, 2
  %249 = icmp eq i32 %248, 0
  %250 = icmp slt i32 %245, 10
  %251 = or i1 %249, %250
  br i1 %251, label %252, label %446

; <label>:252:                                    ; preds = %240
  br i1 %243, label %253, label %376

; <label>:253:                                    ; preds = %252
  %254 = load i32, i32* %19, align 4
  %255 = zext i32 %254 to i64
  %256 = shl i64 1, %255
  store i64 %256, i64* %20, align 8
  %257 = load i64, i64* %16, align 8
  %258 = call i64 @_ZSt3absx(i64 %257)
  %259 = load i64, i64* %17, align 8
  %260 = call i64 @_ZSt3absx(i64 %259)
  %261 = icmp sgt i64 %258, %260
  br i1 %261, label %262, label %280

; <label>:262:                                    ; preds = %253
  %263 = load i64, i64* %16, align 8
  %264 = icmp sgt i64 %263, 0
  br i1 %264, label %265, label %272

; <label>:265:                                    ; preds = %262
  %266 = load i32, i32* %18, align 4
  %267 = sext i32 %266 to i64
  %268 = getelementptr inbounds [50 x i8], [50 x i8]* @step, i64 0, i64 %267
  store i8 82, i8* %268, align 1
  %269 = load i64, i64* %20, align 8
  %270 = load i64, i64* %16, align 8
  %271 = sub nsw i64 %270, %269
  store i64 %271, i64* %16, align 8
  br label %279

; <label>:272:                                    ; preds = %262
  %273 = load i32, i32* %18, align 4
  %274 = sext i32 %273 to i64
  %275 = getelementptr inbounds [50 x i8], [50 x i8]* @step, i64 0, i64 %274
  store i8 76, i8* %275, align 1
  %276 = load i64, i64* %20, align 8
  %277 = load i64, i64* %16, align 8
  %278 = add nsw i64 %277, %276
  store i64 %278, i64* %16, align 8
  br label %279

; <label>:279:                                    ; preds = %272, %265
  br label %352

; <label>:280:                                    ; preds = %253
  %281 = load i32, i32* @x.1
  %282 = load i32, i32* @y.2
  %283 = sub i32 %281, 1
  %284 = mul i32 %281, %283
  %285 = urem i32 %284, 2
  %286 = icmp eq i32 %285, 0
  %287 = icmp slt i32 %282, 10
  %288 = or i1 %286, %287
  br i1 %288, label %289, label %451

; <label>:289:                                    ; preds = %280, %451
  %290 = load i64, i64* %17, align 8
  %291 = icmp sgt i64 %290, 0
  %292 = load i32, i32* @x.1
  %293 = load i32, i32* @y.2
  %294 = sub i32 %292, 1
  %295 = mul i32 %292, %294
  %296 = urem i32 %295, 2
  %297 = icmp eq i32 %296, 0
  %298 = icmp slt i32 %293, 10
  %299 = or i1 %297, %298
  br i1 %299, label %300, label %451

; <label>:300:                                    ; preds = %289
  br i1 %291, label %301, label %326

; <label>:301:                                    ; preds = %300
  %302 = load i32, i32* @x.1
  %303 = load i32, i32* @y.2
  %304 = sub i32 %302, 1
  %305 = mul i32 %302, %304
  %306 = urem i32 %305, 2
  %307 = icmp eq i32 %306, 0
  %308 = icmp slt i32 %303, 10
  %309 = or i1 %307, %308
  br i1 %309, label %310, label %454

; <label>:310:                                    ; preds = %301, %454
  %311 = load i32, i32* %18, align 4
  %312 = sext i32 %311 to i64
  %313 = getelementptr inbounds [50 x i8], [50 x i8]* @step, i64 0, i64 %312
  store i8 85, i8* %313, align 1
  %314 = load i64, i64* %20, align 8
  %315 = load i64, i64* %17, align 8
  %316 = sub nsw i64 %315, %314
  store i64 %316, i64* %17, align 8
  %317 = load i32, i32* @x.1
  %318 = load i32, i32* @y.2
  %319 = sub i32 %317, 1
  %320 = mul i32 %317, %319
  %321 = urem i32 %320, 2
  %322 = icmp eq i32 %321, 0
  %323 = icmp slt i32 %318, 10
  %324 = or i1 %322, %323
  br i1 %324, label %325, label %454

; <label>:325:                                    ; preds = %310
  br label %333

; <label>:326:                                    ; preds = %300
  %327 = load i32, i32* %18, align 4
  %328 = sext i32 %327 to i64
  %329 = getelementptr inbounds [50 x i8], [50 x i8]* @step, i64 0, i64 %328
  store i8 68, i8* %329, align 1
  %330 = load i64, i64* %20, align 8
  %331 = load i64, i64* %17, align 8
  %332 = add nsw i64 %331, %330
  store i64 %332, i64* %17, align 8
  br label %333

; <label>:333:                                    ; preds = %326, %325
  %334 = load i32, i32* @x.1
  %335 = load i32, i32* @y.2
  %336 = sub i32 %334, 1
  %337 = mul i32 %334, %336
  %338 = urem i32 %337, 2
  %339 = icmp eq i32 %338, 0
  %340 = icmp slt i32 %335, 10
  %341 = or i1 %339, %340
  br i1 %341, label %342, label %468

; <label>:342:                                    ; preds = %333, %468
  %343 = load i32, i32* @x.1
  %344 = load i32, i32* @y.2
  %345 = sub i32 %343, 1
  %346 = mul i32 %343, %345
  %347 = urem i32 %346, 2
  %348 = icmp eq i32 %347, 0
  %349 = icmp slt i32 %344, 10
  %350 = or i1 %348, %349
  br i1 %350, label %351, label %468

; <label>:351:                                    ; preds = %342
  br label %352

; <label>:352:                                    ; preds = %351, %279
  %353 = load i32, i32* @x.1
  %354 = load i32, i32* @y.2
  %355 = sub i32 %353, 1
  %356 = mul i32 %353, %355
  %357 = urem i32 %356, 2
  %358 = icmp eq i32 %357, 0
  %359 = icmp slt i32 %354, 10
  %360 = or i1 %358, %359
  br i1 %360, label %361, label %469

; <label>:361:                                    ; preds = %352, %469
  %362 = load i32, i32* @x.1
  %363 = load i32, i32* @y.2
  %364 = sub i32 %362, 1
  %365 = mul i32 %362, %364
  %366 = urem i32 %365, 2
  %367 = icmp eq i32 %366, 0
  %368 = icmp slt i32 %363, 10
  %369 = or i1 %367, %368
  br i1 %369, label %370, label %469

; <label>:370:                                    ; preds = %361
  br label %371

; <label>:371:                                    ; preds = %370
  %372 = load i32, i32* %19, align 4
  %373 = add nsw i32 %372, -1
  store i32 %373, i32* %19, align 4
  %374 = load i32, i32* %18, align 4
  %375 = add nsw i32 %374, -1
  store i32 %375, i32* %18, align 4
  br label %231

; <label>:376:                                    ; preds = %252
  %377 = call dereferenceable(272) %"class.std::basic_ostream"* @_ZStlsISt11char_traitsIcEERSt13basic_ostreamIcT_ES5_PKc(%"class.std::basic_ostream"* dereferenceable(272) @_ZSt4cout, i8* getelementptr inbounds ([50 x i8], [50 x i8]* @step, i32 0, i32 0))
  %378 = call dereferenceable(272) %"class.std::basic_ostream"* @_ZStlsISt11char_traitsIcEERSt13basic_ostreamIcT_ES5_c(%"class.std::basic_ostream"* dereferenceable(272) %377, i8 signext 10)
  br label %379

; <label>:379:                                    ; preds = %376
  %380 = load i32, i32* %15, align 4
  %381 = add nsw i32 %380, 1
  store i32 %381, i32* %15, align 4
  br label %189

; <label>:382:                                    ; preds = %189
  store i32 0, i32* %10, align 4
  br label %383

; <label>:383:                                    ; preds = %382, %94
  %384 = load i32, i32* @x.1
  %385 = load i32, i32* @y.2
  %386 = sub i32 %384, 1
  %387 = mul i32 %384, %386
  %388 = urem i32 %387, 2
  %389 = icmp eq i32 %388, 0
  %390 = icmp slt i32 %385, 10
  %391 = or i1 %389, %390
  br i1 %391, label %392, label %470

; <label>:392:                                    ; preds = %383, %470
  %393 = load i32, i32* %10, align 4
  %394 = load i32, i32* @x.1
  %395 = load i32, i32* @y.2
  %396 = sub i32 %394, 1
  %397 = mul i32 %394, %396
  %398 = urem i32 %397, 2
  %399 = icmp eq i32 %398, 0
  %400 = icmp slt i32 %395, 10
  %401 = or i1 %399, %400
  br i1 %401, label %402, label %470

; <label>:402:                                    ; preds = %392
  ret i32 %393

; <label>:403:                                    ; preds = %9, %0
  %404 = alloca i32, align 4
  %405 = alloca i32, align 4
  %406 = alloca i32, align 4
  %407 = alloca i32, align 4
  %408 = alloca i32, align 4
  %409 = alloca i32, align 4
  %410 = alloca i64, align 8
  %411 = alloca i64, align 8
  %412 = alloca i32, align 4
  %413 = alloca i32, align 4
  %414 = alloca i64, align 8
  store i32 0, i32* %404, align 4
  %415 = call zeroext i1 @_ZNSt8ios_base15sync_with_stdioEb(i1 zeroext false)
  %416 = load i8*, i8** bitcast (%"class.std::basic_istream"* @_ZSt3cin to i8**), align 8
  %417 = getelementptr i8, i8* %416, i64 -24
  %418 = bitcast i8* %417 to i64*
  %419 = load i64, i64* %418, align 8
  %420 = getelementptr inbounds i8, i8* bitcast (%"class.std::basic_istream"* @_ZSt3cin to i8*), i64 %419
  %421 = bitcast i8* %420 to %"class.std::basic_ios"*
  %422 = call %"class.std::basic_ostream"* @_ZNSt9basic_iosIcSt11char_traitsIcEE3tieEPSo(%"class.std::basic_ios"* %421, %"class.std::basic_ostream"* null)
  %423 = call dereferenceable(280) %"class.std::basic_istream"* @_ZNSirsERi(%"class.std::basic_istream"* @_ZSt3cin, i32* dereferenceable(4) @n)
  store i32 1, i32* %405, align 4
  br label %9

; <label>:424:                                    ; preds = %48, %39
  %425 = load i32, i32* %11, align 4
  %426 = load i32, i32* @n, align 4
  %427 = icmp sle i32 %425, %426
  br label %48

; <label>:428:                                    ; preds = %106, %97
  br label %106

; <label>:429:                                    ; preds = %140, %131
  %430 = call dereferenceable(272) %"class.std::basic_ostream"* @_ZNSolsEi(%"class.std::basic_ostream"* @_ZSt4cout, i32 1)
  %431 = call dereferenceable(272) %"class.std::basic_ostream"* @_ZStlsISt11char_traitsIcEERSt13basic_ostreamIcT_ES5_c(%"class.std::basic_ostream"* dereferenceable(272) %430, i8 signext 32)
  br label %140

; <label>:432:                                    ; preds = %162, %153
  %433 = load i32, i32* %14, align 4
  %434 = icmp slt i32 %433, 39
  br label %162

; <label>:435:                                    ; preds = %218, %209
  %436 = load i32, i32* %13, align 4
  %437 = sub i32 %436, 39
  %438 = mul i32 %437, 39
  %439 = shl i32 %436, 39
  %440 = sub i32 %436, 39
  %441 = mul i32 %440, 39
  %442 = add nsw i32 %436, 39
  %443 = shl i32 %442, 1
  %444 = shl i32 %442, 1
  %445 = sub nsw i32 %442, 1
  store i32 %445, i32* %18, align 4
  store i32 38, i32* %19, align 4
  br label %218

; <label>:446:                                    ; preds = %240, %231
  %447 = load i32, i32* %19, align 4
  %448 = shl i32 %447, -1
  %449 = xor i32 %447, -1
  %450 = icmp ne i32 %449, 0
  br label %240

; <label>:451:                                    ; preds = %289, %280
  %452 = load i64, i64* %17, align 8
  %453 = icmp sgt i64 %452, 0
  br label %289

; <label>:454:                                    ; preds = %310, %301
  %455 = load i32, i32* %18, align 4
  %456 = sext i32 %455 to i64
  %457 = getelementptr inbounds [50 x i8], [50 x i8]* @step, i64 0, i64 %456
  store i8 85, i8* %457, align 1
  %458 = load i64, i64* %20, align 8
  %459 = load i64, i64* %17, align 8
  %460 = shl i64 %459, %458
  %461 = sub i64 0, %459
  %462 = add i64 %461, %458
  %463 = sub i64 0, %459
  %464 = add i64 %463, %458
  %465 = sub i64 0, %459
  %466 = add i64 %465, %458
  %467 = sub nsw i64 %459, %458
  store i64 %467, i64* %17, align 8
  br label %310

; <label>:468:                                    ; preds = %342, %333
  br label %342

; <label>:469:                                    ; preds = %361, %352
  br label %361

; <label>:470:                                    ; preds = %392, %383
  %471 = load i32, i32* %10, align 4
  br label %392
}

declare zeroext i1 @_ZNSt8ios_base15sync_with_stdioEb(i1 zeroext) #1

declare %"class.std::basic_ostream"* @_ZNSt9basic_iosIcSt11char_traitsIcEE3tieEPSo(%"class.std::basic_ios"*, %"class.std::basic_ostream"*) #1

declare dereferenceable(280) %"class.std::basic_istream"* @_ZNSirsERi(%"class.std::basic_istream"*, i32* dereferenceable(4)) #1

declare dereferenceable(272) %"class.std::basic_ostream"* @_ZNSolsEi(%"class.std::basic_ostream"*, i32) #1

declare dereferenceable(272) %"class.std::basic_ostream"* @_ZNSolsEPFRSoS_E(%"class.std::basic_ostream"*, %"class.std::basic_ostream"* (%"class.std::basic_ostream"*)*) #1

declare dereferenceable(272) %"class.std::basic_ostream"* @_ZSt4endlIcSt11char_traitsIcEERSt13basic_ostreamIT_T0_ES6_(%"class.std::basic_ostream"* dereferenceable(272)) #1

declare dereferenceable(272) %"class.std::basic_ostream"* @_ZStlsISt11char_traitsIcEERSt13basic_ostreamIcT_ES5_c(%"class.std::basic_ostream"* dereferenceable(272), i8 signext) #1

declare dereferenceable(272) %"class.std::basic_ostream"* @_ZNSolsEx(%"class.std::basic_ostream"*, i64) #1

; Function Attrs: noinline nounwind uwtable
define linkonce_odr i64 @_ZSt3absx(i64) #5 comdat {
  %2 = alloca i64, align 8
  store i64 %0, i64* %2, align 8
  %3 = load i64, i64* %2, align 8
  %4 = sub i64 0, %3
  %5 = icmp sge i64 %3, 0
  %6 = select i1 %5, i64 %3, i64 %4
  ret i64 %6
}

declare dereferenceable(272) %"class.std::basic_ostream"* @_ZStlsISt11char_traitsIcEERSt13basic_ostreamIcT_ES5_PKc(%"class.std::basic_ostream"* dereferenceable(272), i8*) #1

; Function Attrs: noinline uwtable
define internal void @_GLOBAL__sub_I_s938481187.cpp() #0 section ".text.startup" {
  call void @__cxx_global_var_init()
  ret void
}

attributes #0 = { noinline uwtable "correctly-rounded-divide-sqrt-fp-math"="false" "disable-tail-calls"="false" "less-precise-fpmad"="false" "no-frame-pointer-elim"="true" "no-frame-pointer-elim-non-leaf" "no-infs-fp-math"="false" "no-jump-tables"="false" "no-nans-fp-math"="false" "no-signed-zeros-fp-math"="false" "no-trapping-math"="false" "stack-protector-buffer-size"="8" "target-cpu"="x86-64" "target-features"="+fxsr,+mmx,+sse,+sse2,+x87" "unsafe-fp-math"="false" "use-soft-float"="false" }
attributes #1 = { "correctly-rounded-divide-sqrt-fp-math"="false" "disable-tail-calls"="false" "less-precise-fpmad"="false" "no-frame-pointer-elim"="true" "no-frame-pointer-elim-non-leaf" "no-infs-fp-math"="false" "no-nans-fp-math"="false" "no-signed-zeros-fp-math"="false" "no-trapping-math"="false" "stack-protector-buffer-size"="8" "target-cpu"="x86-64" "target-features"="+fxsr,+mmx,+sse,+sse2,+x87" "unsafe-fp-math"="false" "use-soft-float"="false" }
attributes #2 = { nounwind "correctly-rounded-divide-sqrt-fp-math"="false" "disable-tail-calls"="false" "less-precise-fpmad"="false" "no-frame-pointer-elim"="true" "no-frame-pointer-elim-non-leaf" "no-infs-fp-math"="false" "no-nans-fp-math"="false" "no-signed-zeros-fp-math"="false" "no-trapping-math"="false" "stack-protector-buffer-size"="8" "target-cpu"="x86-64" "target-features"="+fxsr,+mmx,+sse,+sse2,+x87" "unsafe-fp-math"="false" "use-soft-float"="false" }
attributes #3 = { nounwind }
attributes #4 = { noinline norecurse uwtable "correctly-rounded-divide-sqrt-fp-math"="false" "disable-tail-calls"="false" "less-precise-fpmad"="false" "no-frame-pointer-elim"="true" "no-frame-pointer-elim-non-leaf" "no-infs-fp-math"="false" "no-jump-tables"="false" "no-nans-fp-math"="false" "no-signed-zeros-fp-math"="false" "no-trapping-math"="false" "stack-protector-buffer-size"="8" "target-cpu"="x86-64" "target-features"="+fxsr,+mmx,+sse,+sse2,+x87" "unsafe-fp-math"="false" "use-soft-float"="false" }
attributes #5 = { noinline nounwind uwtable "correctly-rounded-divide-sqrt-fp-math"="false" "disable-tail-calls"="false" "less-precise-fpmad"="false" "no-frame-pointer-elim"="true" "no-frame-pointer-elim-non-leaf" "no-infs-fp-math"="false" "no-jump-tables"="false" "no-nans-fp-math"="false" "no-signed-zeros-fp-math"="false" "no-trapping-math"="false" "stack-protector-buffer-size"="8" "target-cpu"="x86-64" "target-features"="+fxsr,+mmx,+sse,+sse2,+x87" "unsafe-fp-math"="false" "use-soft-float"="false" }

!llvm.ident = !{!0}

!0 = !{!"Obfuscator-LLVM clang version 4.0.1  (based on Obfuscator-LLVM 4.0.1)"}
