; ModuleID = 'Project_CodeNet_C++1400/p03281/s118836162.cpp'
source_filename = "Project_CodeNet_C++1400/p03281/s118836162.cpp"
target datalayout = "e-m:e-p270:32:32-p271:32:32-p272:64:64-i64:64-f80:128-n8:16:32:64-S128"
target triple = "x86_64-pc-linux-gnu"

%"class.std::ios_base::Init" = type { i8 }
%"class.std::basic_ostream" = type { i32 (...)**, %"class.std::basic_ios" }
%"class.std::basic_ios" = type { %"class.std::ios_base", %"class.std::basic_ostream"*, i8, i8, %"class.std::basic_streambuf"*, %"class.std::ctype"*, %"class.std::num_put"*, %"class.std::num_get"* }
%"class.std::ios_base" = type { i32 (...)**, i64, i64, i32, i32, i32, %"struct.std::ios_base::_Callback_list"*, %"struct.std::ios_base::_Words", [8 x %"struct.std::ios_base::_Words"], i32, %"struct.std::ios_base::_Words"*, %"class.std::locale" }
%"struct.std::ios_base::_Callback_list" = type { %"struct.std::ios_base::_Callback_list"*, void (i32, %"class.std::ios_base"*, i32)*, i32, i32 }
%"struct.std::ios_base::_Words" = type { i8*, i64 }
%"class.std::locale" = type { %"class.std::locale::_Impl"* }
%"class.std::locale::_Impl" = type { i32, %"class.std::locale::facet"**, i64, %"class.std::locale::facet"**, i8** }
%"class.std::locale::facet" = type <{ i32 (...)**, i32, [4 x i8] }>
%"class.std::basic_streambuf" = type { i32 (...)**, i8*, i8*, i8*, i8*, i8*, i8*, %"class.std::locale" }
%"class.std::ctype" = type <{ %"class.std::locale::facet.base", [4 x i8], %struct.__locale_struct*, i8, [7 x i8], i32*, i32*, i16*, i8, [256 x i8], [256 x i8], i8, [6 x i8] }>
%"class.std::locale::facet.base" = type <{ i32 (...)**, i32 }>
%struct.__locale_struct = type { [13 x %struct.__locale_data*], i16*, i32*, i32*, [13 x i8*] }
%struct.__locale_data = type opaque
%"class.std::num_put" = type { %"class.std::locale::facet.base", [4 x i8] }
%"class.std::num_get" = type { %"class.std::locale::facet.base", [4 x i8] }
%"class.std::vector" = type { %"struct.std::_Vector_base" }
%"struct.std::_Vector_base" = type { %"struct.std::_Vector_base<long long, std::allocator<long long>>::_Vector_impl" }
%"struct.std::_Vector_base<long long, std::allocator<long long>>::_Vector_impl" = type { %"struct.std::_Vector_base<long long, std::allocator<long long>>::_Vector_impl_data" }
%"struct.std::_Vector_base<long long, std::allocator<long long>>::_Vector_impl_data" = type { i64*, i64*, i64* }

@_ZStL8__ioinit = internal global %"class.std::ios_base::Init" zeroinitializer, align 1
@__dso_handle = external hidden global i8
@.str = private unnamed_addr constant [5 x i8] c"%lld\00", align 1
@_ZSt4cout = external global %"class.std::basic_ostream", align 8
@.str.1 = private unnamed_addr constant [26 x i8] c"vector::_M_realloc_insert\00", align 1
@llvm.global_ctors = appending global [1 x { i32, void ()*, i8* }] [{ i32, void ()*, i8* } { i32 65535, void ()* @_GLOBAL__sub_I_s118836162.cpp, i8* null }]

declare void @_ZNSt8ios_base4InitC1Ev(%"class.std::ios_base::Init"* nonnull align 1 dereferenceable(1)) unnamed_addr #0

; Function Attrs: nounwind
declare void @_ZNSt8ios_base4InitD1Ev(%"class.std::ios_base::Init"* nonnull align 1 dereferenceable(1)) unnamed_addr #1

; Function Attrs: nofree nounwind
declare i32 @__cxa_atexit(void (i8*)*, i8*, i8*) local_unnamed_addr #2

; Function Attrs: sspstrong uwtable
define dso_local void @_Z6factorx(%"class.std::vector"* noalias nocapture sret(%"class.std::vector") align 8 %0, i64 %1) local_unnamed_addr #3 personality i8* bitcast (i32 (...)* @__gxx_personality_v0 to i8*) {
  %3 = bitcast %"class.std::vector"* %0 to i8*
  tail call void @llvm.memset.p0i8.i64(i8* noundef nonnull align 8 dereferenceable(24) %3, i8 0, i64 24, i1 false) #12
  %4 = getelementptr inbounds %"class.std::vector", %"class.std::vector"* %0, i64 0, i32 0, i32 0, i32 0, i32 1
  %5 = getelementptr inbounds %"class.std::vector", %"class.std::vector"* %0, i64 0, i32 0, i32 0, i32 0, i32 2
  %6 = getelementptr inbounds %"class.std::vector", %"class.std::vector"* %0, i64 0, i32 0, i32 0, i32 0, i32 0
  %7 = icmp slt i64 %1, 1
  br i1 %7, label %8, label %9

8:                                                ; preds = %115, %2
  ret void

9:                                                ; preds = %2, %115
  %10 = phi i64* [ %116, %115 ], [ null, %2 ]
  %11 = phi i64* [ %117, %115 ], [ null, %2 ]
  %12 = phi i64* [ %118, %115 ], [ null, %2 ]
  %13 = phi i64* [ %119, %115 ], [ null, %2 ]
  %14 = phi i64 [ %121, %115 ], [ 1, %2 ]
  %15 = phi i64 [ %120, %115 ], [ 1, %2 ]
  %16 = srem i64 %1, %15
  %17 = sdiv i64 %1, %15
  %18 = icmp eq i64 %16, 0
  br i1 %18, label %19, label %115

19:                                               ; preds = %9
  %20 = icmp eq i64* %13, %12
  br i1 %20, label %23, label %21

21:                                               ; preds = %19
  store i64 %15, i64* %13, align 8, !tbaa !5
  %22 = getelementptr inbounds i64, i64* %13, i64 1
  store i64* %22, i64** %4, align 8, !tbaa !9
  br label %59

23:                                               ; preds = %19
  %24 = ptrtoint i64* %12 to i64
  %25 = ptrtoint i64* %11 to i64
  %26 = sub i64 %24, %25
  %27 = ashr exact i64 %26, 3
  %28 = icmp eq i64 %26, 9223372036854775800
  br i1 %28, label %29, label %31

29:                                               ; preds = %23
  invoke void @_ZSt20__throw_length_errorPKc(i8* getelementptr inbounds ([26 x i8], [26 x i8]* @.str.1, i64 0, i64 0)) #13
          to label %30 unwind label %109

30:                                               ; preds = %29
  unreachable

31:                                               ; preds = %23
  %32 = icmp eq i64 %26, 0
  %33 = select i1 %32, i64 1, i64 %27
  %34 = add nsw i64 %33, %27
  %35 = icmp ult i64 %34, %27
  %36 = icmp ugt i64 %34, 1152921504606846975
  %37 = or i1 %35, %36
  %38 = select i1 %37, i64 1152921504606846975, i64 %34
  %39 = icmp eq i64 %38, 0
  br i1 %39, label %45, label %40

40:                                               ; preds = %31
  %41 = shl nuw nsw i64 %38, 3
  %42 = invoke noalias nonnull i8* @_Znwm(i64 %41) #14
          to label %43 unwind label %107

43:                                               ; preds = %40
  %44 = bitcast i8* %42 to i64*
  br label %45

45:                                               ; preds = %43, %31
  %46 = phi i64* [ %44, %43 ], [ null, %31 ]
  %47 = getelementptr inbounds i64, i64* %46, i64 %27
  store i64 %15, i64* %47, align 8, !tbaa !5
  %48 = icmp sgt i64 %26, 0
  br i1 %48, label %49, label %52

49:                                               ; preds = %45
  %50 = bitcast i64* %46 to i8*
  %51 = bitcast i64* %11 to i8*
  tail call void @llvm.memmove.p0i8.p0i8.i64(i8* align 8 %50, i8* align 8 %51, i64 %26, i1 false) #12
  br label %52

52:                                               ; preds = %45, %49
  %53 = getelementptr inbounds i64, i64* %47, i64 1
  %54 = icmp eq i64* %11, null
  br i1 %54, label %57, label %55

55:                                               ; preds = %52
  %56 = bitcast i64* %11 to i8*
  tail call void @_ZdlPv(i8* nonnull %56) #12
  br label %57

57:                                               ; preds = %55, %52
  store i64* %46, i64** %6, align 8, !tbaa !12
  store i64* %53, i64** %4, align 8, !tbaa !9
  %58 = getelementptr inbounds i64, i64* %46, i64 %38
  store i64* %58, i64** %5, align 8, !tbaa !13
  br label %59

59:                                               ; preds = %57, %21
  %60 = phi i64* [ %58, %57 ], [ %10, %21 ]
  %61 = phi i64* [ %46, %57 ], [ %11, %21 ]
  %62 = phi i64* [ %58, %57 ], [ %12, %21 ]
  %63 = phi i64* [ %53, %57 ], [ %22, %21 ]
  %64 = icmp eq i64 %15, 1
  %65 = icmp eq i64 %14, %1
  %66 = select i1 %64, i1 true, i1 %65
  br i1 %66, label %115, label %67

67:                                               ; preds = %59
  %68 = icmp eq i64* %63, %60
  br i1 %68, label %71, label %69

69:                                               ; preds = %67
  store i64 %17, i64* %63, align 8, !tbaa !5
  %70 = getelementptr inbounds i64, i64* %63, i64 1
  store i64* %70, i64** %4, align 8, !tbaa !9
  br label %115

71:                                               ; preds = %67
  %72 = ptrtoint i64* %60 to i64
  %73 = ptrtoint i64* %61 to i64
  %74 = sub i64 %72, %73
  %75 = ashr exact i64 %74, 3
  %76 = icmp eq i64 %74, 9223372036854775800
  br i1 %76, label %77, label %79

77:                                               ; preds = %71
  invoke void @_ZSt20__throw_length_errorPKc(i8* getelementptr inbounds ([26 x i8], [26 x i8]* @.str.1, i64 0, i64 0)) #13
          to label %78 unwind label %113

78:                                               ; preds = %77
  unreachable

79:                                               ; preds = %71
  %80 = icmp eq i64 %74, 0
  %81 = select i1 %80, i64 1, i64 %75
  %82 = add nsw i64 %81, %75
  %83 = icmp ult i64 %82, %75
  %84 = icmp ugt i64 %82, 1152921504606846975
  %85 = or i1 %83, %84
  %86 = select i1 %85, i64 1152921504606846975, i64 %82
  %87 = icmp eq i64 %86, 0
  br i1 %87, label %93, label %88

88:                                               ; preds = %79
  %89 = shl nuw nsw i64 %86, 3
  %90 = invoke noalias nonnull i8* @_Znwm(i64 %89) #14
          to label %91 unwind label %111

91:                                               ; preds = %88
  %92 = bitcast i8* %90 to i64*
  br label %93

93:                                               ; preds = %91, %79
  %94 = phi i64* [ %92, %91 ], [ null, %79 ]
  %95 = getelementptr inbounds i64, i64* %94, i64 %75
  store i64 %17, i64* %95, align 8, !tbaa !5
  %96 = icmp sgt i64 %74, 0
  br i1 %96, label %97, label %100

97:                                               ; preds = %93
  %98 = bitcast i64* %94 to i8*
  %99 = bitcast i64* %61 to i8*
  tail call void @llvm.memmove.p0i8.p0i8.i64(i8* align 8 %98, i8* align 8 %99, i64 %74, i1 false) #12
  br label %100

100:                                              ; preds = %93, %97
  %101 = getelementptr inbounds i64, i64* %95, i64 1
  %102 = icmp eq i64* %61, null
  br i1 %102, label %105, label %103

103:                                              ; preds = %100
  %104 = bitcast i64* %61 to i8*
  tail call void @_ZdlPv(i8* nonnull %104) #12
  br label %105

105:                                              ; preds = %103, %100
  store i64* %94, i64** %6, align 8, !tbaa !12
  store i64* %101, i64** %4, align 8, !tbaa !9
  %106 = getelementptr inbounds i64, i64* %94, i64 %86
  store i64* %106, i64** %5, align 8, !tbaa !13
  br label %115

107:                                              ; preds = %40
  %108 = landingpad { i8*, i32 }
          cleanup
  br label %123

109:                                              ; preds = %29
  %110 = landingpad { i8*, i32 }
          cleanup
  br label %123

111:                                              ; preds = %88
  %112 = landingpad { i8*, i32 }
          cleanup
  br label %123

113:                                              ; preds = %77
  %114 = landingpad { i8*, i32 }
          cleanup
  br label %123

115:                                              ; preds = %69, %105, %9, %59
  %116 = phi i64* [ %60, %69 ], [ %106, %105 ], [ %10, %9 ], [ %60, %59 ]
  %117 = phi i64* [ %61, %69 ], [ %94, %105 ], [ %11, %9 ], [ %61, %59 ]
  %118 = phi i64* [ %60, %69 ], [ %106, %105 ], [ %12, %9 ], [ %62, %59 ]
  %119 = phi i64* [ %70, %69 ], [ %101, %105 ], [ %13, %9 ], [ %63, %59 ]
  %120 = add nuw nsw i64 %15, 1
  %121 = mul nsw i64 %120, %120
  %122 = icmp sgt i64 %121, %1
  br i1 %122, label %8, label %9, !llvm.loop !14

123:                                              ; preds = %111, %113, %107, %109
  %124 = phi i64* [ %11, %107 ], [ %11, %109 ], [ %61, %111 ], [ %61, %113 ]
  %125 = phi { i8*, i32 } [ %108, %107 ], [ %110, %109 ], [ %112, %111 ], [ %114, %113 ]
  %126 = icmp eq i64* %124, null
  br i1 %126, label %129, label %127

127:                                              ; preds = %123
  %128 = bitcast i64* %124 to i8*
  tail call void @_ZdlPv(i8* nonnull %128) #12
  br label %129

129:                                              ; preds = %123, %127
  resume { i8*, i32 } %125
}

; Function Attrs: argmemonly mustprogress nofree nosync nounwind willreturn
declare void @llvm.lifetime.start.p0i8(i64 immarg, i8* nocapture) #4

declare i32 @__gxx_personality_v0(...)

; Function Attrs: argmemonly mustprogress nofree nosync nounwind willreturn
declare void @llvm.lifetime.end.p0i8(i64 immarg, i8* nocapture) #4

; Function Attrs: norecurse sspstrong uwtable
define dso_local i32 @main() local_unnamed_addr #5 personality i32 (...)* @__gxx_personality_v0 {
  %1 = alloca i64, align 8
  %2 = alloca %"class.std::vector", align 8
  %3 = bitcast i64* %1 to i8*
  call void @llvm.lifetime.start.p0i8(i64 8, i8* nonnull %3) #12
  %4 = call i32 (i8*, ...) @__isoc99_scanf(i8* getelementptr inbounds ([5 x i8], [5 x i8]* @.str, i64 0, i64 0), i64* nonnull %1)
  %5 = bitcast %"class.std::vector"* %2 to i8*
  %6 = getelementptr inbounds %"class.std::vector", %"class.std::vector"* %2, i64 0, i32 0, i32 0, i32 0, i32 1
  %7 = getelementptr inbounds %"class.std::vector", %"class.std::vector"* %2, i64 0, i32 0, i32 0, i32 0, i32 0
  %8 = load i64, i64* %1, align 8, !tbaa !5
  %9 = icmp slt i64 %8, 1
  br i1 %9, label %10, label %42

10:                                               ; preds = %62, %0
  %11 = phi i64 [ 0, %0 ], [ %64, %62 ]
  %12 = call nonnull align 8 dereferenceable(8) %"class.std::basic_ostream"* @_ZNSo9_M_insertIxEERSoT_(%"class.std::basic_ostream"* nonnull align 8 dereferenceable(8) @_ZSt4cout, i64 %11)
  %13 = bitcast %"class.std::basic_ostream"* %12 to i8**
  %14 = load i8*, i8** %13, align 8, !tbaa !16
  %15 = getelementptr i8, i8* %14, i64 -24
  %16 = bitcast i8* %15 to i64*
  %17 = load i64, i64* %16, align 8
  %18 = bitcast %"class.std::basic_ostream"* %12 to i8*
  %19 = add nsw i64 %17, 240
  %20 = getelementptr inbounds i8, i8* %18, i64 %19
  %21 = bitcast i8* %20 to %"class.std::ctype"**
  %22 = load %"class.std::ctype"*, %"class.std::ctype"** %21, align 8, !tbaa !18
  %23 = icmp eq %"class.std::ctype"* %22, null
  br i1 %23, label %24, label %25

24:                                               ; preds = %10
  call void @_ZSt16__throw_bad_castv() #13
  unreachable

25:                                               ; preds = %10
  %26 = getelementptr inbounds %"class.std::ctype", %"class.std::ctype"* %22, i64 0, i32 8
  %27 = load i8, i8* %26, align 8, !tbaa !21
  %28 = icmp eq i8 %27, 0
  br i1 %28, label %32, label %29

29:                                               ; preds = %25
  %30 = getelementptr inbounds %"class.std::ctype", %"class.std::ctype"* %22, i64 0, i32 9, i64 10
  %31 = load i8, i8* %30, align 1, !tbaa !23
  br label %38

32:                                               ; preds = %25
  call void @_ZNKSt5ctypeIcE13_M_widen_initEv(%"class.std::ctype"* nonnull align 8 dereferenceable(570) %22)
  %33 = bitcast %"class.std::ctype"* %22 to i8 (%"class.std::ctype"*, i8)***
  %34 = load i8 (%"class.std::ctype"*, i8)**, i8 (%"class.std::ctype"*, i8)*** %33, align 8, !tbaa !16
  %35 = getelementptr inbounds i8 (%"class.std::ctype"*, i8)*, i8 (%"class.std::ctype"*, i8)** %34, i64 6
  %36 = load i8 (%"class.std::ctype"*, i8)*, i8 (%"class.std::ctype"*, i8)** %35, align 8
  %37 = call signext i8 %36(%"class.std::ctype"* nonnull align 8 dereferenceable(570) %22, i8 signext 10)
  br label %38

38:                                               ; preds = %29, %32
  %39 = phi i8 [ %31, %29 ], [ %37, %32 ]
  %40 = call nonnull align 8 dereferenceable(8) %"class.std::basic_ostream"* @_ZNSo3putEc(%"class.std::basic_ostream"* nonnull align 8 dereferenceable(8) %12, i8 signext %39)
  %41 = call nonnull align 8 dereferenceable(8) %"class.std::basic_ostream"* @_ZNSo5flushEv(%"class.std::basic_ostream"* nonnull align 8 dereferenceable(8) %40)
  call void @llvm.lifetime.end.p0i8(i64 8, i8* nonnull %3) #12
  ret i32 0

42:                                               ; preds = %0, %62
  %43 = phi i64 [ %63, %62 ], [ %8, %0 ]
  %44 = phi i64 [ %65, %62 ], [ 1, %0 ]
  %45 = phi i64 [ %64, %62 ], [ 0, %0 ]
  %46 = and i64 %44, 1
  %47 = icmp eq i64 %46, 0
  br i1 %47, label %62, label %48

48:                                               ; preds = %42
  call void @llvm.lifetime.start.p0i8(i64 24, i8* nonnull %5) #12
  call void @_Z6factorx(%"class.std::vector"* nonnull sret(%"class.std::vector") align 8 %2, i64 %44)
  %49 = load i64*, i64** %6, align 8, !tbaa !9
  %50 = load i64*, i64** %7, align 8, !tbaa !12
  %51 = ptrtoint i64* %49 to i64
  %52 = ptrtoint i64* %50 to i64
  %53 = sub i64 %51, %52
  %54 = icmp eq i64 %53, 56
  %55 = icmp eq i64* %50, null
  br i1 %55, label %58, label %56

56:                                               ; preds = %48
  %57 = bitcast i64* %50 to i8*
  call void @_ZdlPv(i8* nonnull %57) #12
  br label %58

58:                                               ; preds = %48, %56
  call void @llvm.lifetime.end.p0i8(i64 24, i8* nonnull %5) #12
  %59 = zext i1 %54 to i64
  %60 = add nsw i64 %45, %59
  %61 = load i64, i64* %1, align 8, !tbaa !5
  br label %62

62:                                               ; preds = %58, %42
  %63 = phi i64 [ %43, %42 ], [ %61, %58 ]
  %64 = phi i64 [ %45, %42 ], [ %60, %58 ]
  %65 = add nuw nsw i64 %44, 1
  %66 = icmp slt i64 %44, %63
  br i1 %66, label %42, label %10, !llvm.loop !24
}

; Function Attrs: nofree nounwind
declare noundef i32 @__isoc99_scanf(i8* nocapture noundef readonly, ...) local_unnamed_addr #6

; Function Attrs: nobuiltin nounwind
declare void @_ZdlPv(i8*) local_unnamed_addr #7

; Function Attrs: noreturn
declare void @_ZSt20__throw_length_errorPKc(i8*) local_unnamed_addr #8

; Function Attrs: nobuiltin allocsize(0)
declare nonnull i8* @_Znwm(i64) local_unnamed_addr #9

; Function Attrs: argmemonly mustprogress nofree nounwind willreturn
declare void @llvm.memmove.p0i8.p0i8.i64(i8* nocapture writeonly, i8* nocapture readonly, i64, i1 immarg) #10

declare nonnull align 8 dereferenceable(8) %"class.std::basic_ostream"* @_ZNSo9_M_insertIxEERSoT_(%"class.std::basic_ostream"* nonnull align 8 dereferenceable(8), i64) local_unnamed_addr #0

declare nonnull align 8 dereferenceable(8) %"class.std::basic_ostream"* @_ZNSo3putEc(%"class.std::basic_ostream"* nonnull align 8 dereferenceable(8), i8 signext) local_unnamed_addr #0

declare nonnull align 8 dereferenceable(8) %"class.std::basic_ostream"* @_ZNSo5flushEv(%"class.std::basic_ostream"* nonnull align 8 dereferenceable(8)) local_unnamed_addr #0

; Function Attrs: noreturn
declare void @_ZSt16__throw_bad_castv() local_unnamed_addr #8

declare void @_ZNKSt5ctypeIcE13_M_widen_initEv(%"class.std::ctype"* nonnull align 8 dereferenceable(570)) local_unnamed_addr #0

; Function Attrs: sspstrong uwtable
define internal void @_GLOBAL__sub_I_s118836162.cpp() #3 section ".text.startup" {
  tail call void @_ZNSt8ios_base4InitC1Ev(%"class.std::ios_base::Init"* nonnull align 1 dereferenceable(1) @_ZStL8__ioinit)
  %1 = tail call i32 @__cxa_atexit(void (i8*)* bitcast (void (%"class.std::ios_base::Init"*)* @_ZNSt8ios_base4InitD1Ev to void (i8*)*), i8* getelementptr inbounds (%"class.std::ios_base::Init", %"class.std::ios_base::Init"* @_ZStL8__ioinit, i64 0, i32 0), i8* nonnull @__dso_handle) #12
  ret void
}

; Function Attrs: argmemonly nofree nounwind willreturn writeonly
declare void @llvm.memset.p0i8.i64(i8* nocapture writeonly, i8, i64, i1 immarg) #11

attributes #0 = { "frame-pointer"="none" "no-trapping-math"="true" "stack-protector-buffer-size"="8" "target-cpu"="x86-64" "target-features"="+cx8,+fxsr,+mmx,+sse,+sse2,+x87" "tune-cpu"="generic" }
attributes #1 = { nounwind "frame-pointer"="none" "no-trapping-math"="true" "stack-protector-buffer-size"="8" "target-cpu"="x86-64" "target-features"="+cx8,+fxsr,+mmx,+sse,+sse2,+x87" "tune-cpu"="generic" }
attributes #2 = { nofree nounwind }
attributes #3 = { sspstrong uwtable "frame-pointer"="none" "min-legal-vector-width"="0" "no-trapping-math"="true" "stack-protector-buffer-size"="8" "target-cpu"="x86-64" "target-features"="+cx8,+fxsr,+mmx,+sse,+sse2,+x87" "tune-cpu"="generic" }
attributes #4 = { argmemonly mustprogress nofree nosync nounwind willreturn }
attributes #5 = { norecurse sspstrong uwtable "frame-pointer"="none" "min-legal-vector-width"="0" "no-trapping-math"="true" "stack-protector-buffer-size"="8" "target-cpu"="x86-64" "target-features"="+cx8,+fxsr,+mmx,+sse,+sse2,+x87" "tune-cpu"="generic" }
attributes #6 = { nofree nounwind "frame-pointer"="none" "no-trapping-math"="true" "stack-protector-buffer-size"="8" "target-cpu"="x86-64" "target-features"="+cx8,+fxsr,+mmx,+sse,+sse2,+x87" "tune-cpu"="generic" }
attributes #7 = { nobuiltin nounwind "frame-pointer"="none" "no-trapping-math"="true" "stack-protector-buffer-size"="8" "target-cpu"="x86-64" "target-features"="+cx8,+fxsr,+mmx,+sse,+sse2,+x87" "tune-cpu"="generic" }
attributes #8 = { noreturn "frame-pointer"="none" "no-trapping-math"="true" "stack-protector-buffer-size"="8" "target-cpu"="x86-64" "target-features"="+cx8,+fxsr,+mmx,+sse,+sse2,+x87" "tune-cpu"="generic" }
attributes #9 = { nobuiltin allocsize(0) "frame-pointer"="none" "no-trapping-math"="true" "stack-protector-buffer-size"="8" "target-cpu"="x86-64" "target-features"="+cx8,+fxsr,+mmx,+sse,+sse2,+x87" "tune-cpu"="generic" }
attributes #10 = { argmemonly mustprogress nofree nounwind willreturn }
attributes #11 = { argmemonly nofree nounwind willreturn writeonly }
attributes #12 = { nounwind }
attributes #13 = { noreturn }
attributes #14 = { allocsize(0) }

!llvm.module.flags = !{!0, !1, !2, !3}
!llvm.ident = !{!4}

!0 = !{i32 1, !"wchar_size", i32 4}
!1 = !{i32 7, !"PIC Level", i32 2}
!2 = !{i32 7, !"PIE Level", i32 2}
!3 = !{i32 7, !"uwtable", i32 1}
!4 = !{!"clang version 13.0.0"}
!5 = !{!6, !6, i64 0}
!6 = !{!"long long", !7, i64 0}
!7 = !{!"omnipotent char", !8, i64 0}
!8 = !{!"Simple C++ TBAA"}
!9 = !{!10, !11, i64 8}
!10 = !{!"_ZTSNSt12_Vector_baseIxSaIxEE17_Vector_impl_dataE", !11, i64 0, !11, i64 8, !11, i64 16}
!11 = !{!"any pointer", !7, i64 0}
!12 = !{!10, !11, i64 0}
!13 = !{!10, !11, i64 16}
!14 = distinct !{!14, !15}
!15 = !{!"llvm.loop.mustprogress"}
!16 = !{!17, !17, i64 0}
!17 = !{!"vtable pointer", !8, i64 0}
!18 = !{!19, !11, i64 240}
!19 = !{!"_ZTSSt9basic_iosIcSt11char_traitsIcEE", !11, i64 216, !7, i64 224, !20, i64 225, !11, i64 232, !11, i64 240, !11, i64 248, !11, i64 256}
!20 = !{!"bool", !7, i64 0}
!21 = !{!22, !7, i64 56}
!22 = !{!"_ZTSSt5ctypeIcE", !11, i64 16, !20, i64 24, !11, i64 32, !11, i64 40, !11, i64 48, !7, i64 56, !7, i64 57, !7, i64 313, !7, i64 569}
!23 = !{!7, !7, i64 0}
!24 = distinct !{!24, !15}
