; ModuleID = 'Project_CodeNet_C++1400/p02855/s717504646.cpp'
source_filename = "Project_CodeNet_C++1400/p02855/s717504646.cpp"
target datalayout = "e-m:e-p270:32:32-p271:32:32-p272:64:64-i64:64-f80:128-n8:16:32:64-S128"
target triple = "x86_64-pc-linux-gnu"

%"class.std::ios_base::Init" = type { i8 }
%"class.std::basic_istream" = type { i32 (...)**, i64, %"class.std::basic_ios" }
%"class.std::basic_ios" = type { %"class.std::ios_base", %"class.std::basic_ostream"*, i8, i8, %"class.std::basic_streambuf"*, %"class.std::ctype"*, %"class.std::num_put"*, %"class.std::num_get"* }
%"class.std::ios_base" = type { i32 (...)**, i64, i64, i32, i32, i32, %"struct.std::ios_base::_Callback_list"*, %"struct.std::ios_base::_Words", [8 x %"struct.std::ios_base::_Words"], i32, %"struct.std::ios_base::_Words"*, %"class.std::locale" }
%"struct.std::ios_base::_Callback_list" = type { %"struct.std::ios_base::_Callback_list"*, void (i32, %"class.std::ios_base"*, i32)*, i32, i32 }
%"struct.std::ios_base::_Words" = type { i8*, i64 }
%"class.std::locale" = type { %"class.std::locale::_Impl"* }
%"class.std::locale::_Impl" = type { i32, %"class.std::locale::facet"**, i64, %"class.std::locale::facet"**, i8** }
%"class.std::locale::facet" = type <{ i32 (...)**, i32, [4 x i8] }>
%"class.std::basic_ostream" = type { i32 (...)**, %"class.std::basic_ios" }
%"class.std::basic_streambuf" = type { i32 (...)**, i8*, i8*, i8*, i8*, i8*, i8*, %"class.std::locale" }
%"class.std::ctype" = type <{ %"class.std::locale::facet.base", [4 x i8], %struct.__locale_struct*, i8, [7 x i8], i32*, i32*, i16*, i8, [256 x i8], [256 x i8], i8, [6 x i8] }>
%"class.std::locale::facet.base" = type <{ i32 (...)**, i32 }>
%struct.__locale_struct = type { [13 x %struct.__locale_data*], i16*, i32*, i32*, [13 x i8*] }
%struct.__locale_data = type opaque
%"class.std::num_put" = type { %"class.std::locale::facet.base", [4 x i8] }
%"class.std::num_get" = type { %"class.std::locale::facet.base", [4 x i8] }
%"class.std::queue" = type { %"class.std::deque" }
%"class.std::deque" = type { %"class.std::_Deque_base" }
%"class.std::_Deque_base" = type { %"struct.std::_Deque_base<int, std::allocator<int>>::_Deque_impl" }
%"struct.std::_Deque_base<int, std::allocator<int>>::_Deque_impl" = type { %"struct.std::_Deque_base<int, std::allocator<int>>::_Deque_impl_data" }
%"struct.std::_Deque_base<int, std::allocator<int>>::_Deque_impl_data" = type { i32**, i64, %"struct.std::_Deque_iterator", %"struct.std::_Deque_iterator" }
%"struct.std::_Deque_iterator" = type { i32*, i32*, i32*, i32** }

$_ZNSt5queueIiSt5dequeIiSaIiEEED2Ev = comdat any

$__clang_call_terminate = comdat any

$_ZNSt11_Deque_baseIiSaIiEE17_M_initialize_mapEm = comdat any

$_ZNSt5dequeIiSaIiEE16_M_push_back_auxIJRKiEEEvDpOT_ = comdat any

$_ZNSt5dequeIiSaIiEE17_M_reallocate_mapEmb = comdat any

$_ZNSt5dequeIiSaIiEE16_M_push_back_auxIJiEEEvDpOT_ = comdat any

@_ZStL8__ioinit = internal global %"class.std::ios_base::Init" zeroinitializer, align 1
@__dso_handle = external hidden global i8
@_ZSt3cin = external global %"class.std::basic_istream", align 8
@_ZSt4cout = external global %"class.std::basic_ostream", align 8
@.str = private unnamed_addr constant [48 x i8] c"cannot create std::deque larger than max_size()\00", align 1
@llvm.global_ctors = appending global [1 x { i32, void ()*, i8* }] [{ i32, void ()*, i8* } { i32 65535, void ()* @_GLOBAL__sub_I_s717504646.cpp, i8* null }]

declare void @_ZNSt8ios_base4InitC1Ev(%"class.std::ios_base::Init"* nonnull align 1 dereferenceable(1)) unnamed_addr #0

; Function Attrs: nounwind
declare void @_ZNSt8ios_base4InitD1Ev(%"class.std::ios_base::Init"* nonnull align 1 dereferenceable(1)) unnamed_addr #1

; Function Attrs: nofree nounwind
declare i32 @__cxa_atexit(void (i8*)*, i8*, i8*) local_unnamed_addr #2

; Function Attrs: norecurse sspstrong uwtable
define dso_local i32 @main() local_unnamed_addr #3 personality i8* bitcast (i32 (...)* @__gxx_personality_v0 to i8*) {
  %1 = alloca i8, align 1
  %2 = alloca i32, align 4
  %3 = alloca i32, align 4
  %4 = alloca i32, align 4
  %5 = alloca [500 x [500 x i32]], align 16
  %6 = alloca %"class.std::queue", align 8
  %7 = alloca %"class.std::queue", align 8
  %8 = alloca i8, align 1
  %9 = alloca i32, align 4
  %10 = alloca i32, align 4
  %11 = alloca i32, align 4
  %12 = bitcast i32* %2 to i8*
  call void @llvm.lifetime.start.p0i8(i64 4, i8* nonnull %12) #14
  %13 = bitcast i32* %3 to i8*
  call void @llvm.lifetime.start.p0i8(i64 4, i8* nonnull %13) #14
  %14 = bitcast i32* %4 to i8*
  call void @llvm.lifetime.start.p0i8(i64 4, i8* nonnull %14) #14
  %15 = call nonnull align 8 dereferenceable(16) %"class.std::basic_istream"* @_ZNSirsERi(%"class.std::basic_istream"* nonnull align 8 dereferenceable(16) @_ZSt3cin, i32* nonnull align 4 dereferenceable(4) %2)
  %16 = call nonnull align 8 dereferenceable(16) %"class.std::basic_istream"* @_ZNSirsERi(%"class.std::basic_istream"* nonnull align 8 dereferenceable(16) %15, i32* nonnull align 4 dereferenceable(4) %3)
  %17 = call nonnull align 8 dereferenceable(16) %"class.std::basic_istream"* @_ZNSirsERi(%"class.std::basic_istream"* nonnull align 8 dereferenceable(16) %16, i32* nonnull align 4 dereferenceable(4) %4)
  %18 = bitcast [500 x [500 x i32]]* %5 to i8*
  call void @llvm.lifetime.start.p0i8(i64 1000000, i8* nonnull %18) #14
  %19 = bitcast %"class.std::queue"* %6 to i8*
  call void @llvm.lifetime.start.p0i8(i64 80, i8* nonnull %19) #14
  %20 = getelementptr inbounds %"class.std::queue", %"class.std::queue"* %6, i64 0, i32 0, i32 0
  call void @llvm.memset.p0i8.i64(i8* noundef nonnull align 8 dereferenceable(80) %19, i8 0, i64 80, i1 false)
  call void @_ZNSt11_Deque_baseIiSaIiEE17_M_initialize_mapEm(%"class.std::_Deque_base"* nonnull align 8 dereferenceable(80) %20, i64 0)
  %21 = bitcast %"class.std::queue"* %7 to i8*
  call void @llvm.lifetime.start.p0i8(i64 80, i8* nonnull %21) #14
  %22 = getelementptr inbounds %"class.std::queue", %"class.std::queue"* %7, i64 0, i32 0, i32 0
  call void @llvm.memset.p0i8.i64(i8* noundef nonnull align 8 dereferenceable(80) %21, i8 0, i64 80, i1 false)
  invoke void @_ZNSt11_Deque_baseIiSaIiEE17_M_initialize_mapEm(%"class.std::_Deque_base"* nonnull align 8 dereferenceable(80) %22, i64 0)
          to label %23 unwind label %73

23:                                               ; preds = %0
  %24 = getelementptr inbounds %"class.std::queue", %"class.std::queue"* %6, i64 0, i32 0, i32 0, i32 0, i32 0, i32 3, i32 0
  %25 = getelementptr inbounds %"class.std::queue", %"class.std::queue"* %6, i64 0, i32 0, i32 0, i32 0, i32 0, i32 3, i32 2
  %26 = getelementptr inbounds %"class.std::queue", %"class.std::queue"* %6, i64 0, i32 0, i32 0, i32 0, i32 0, i32 3, i32 3
  %27 = getelementptr inbounds %"class.std::queue", %"class.std::queue"* %6, i64 0, i32 0, i32 0, i32 0, i32 0, i32 2, i32 3
  %28 = getelementptr inbounds %"class.std::queue", %"class.std::queue"* %6, i64 0, i32 0, i32 0, i32 0, i32 0, i32 3, i32 1
  %29 = getelementptr inbounds %"class.std::queue", %"class.std::queue"* %6, i64 0, i32 0, i32 0, i32 0, i32 0, i32 2, i32 2
  %30 = getelementptr inbounds %"class.std::queue", %"class.std::queue"* %6, i64 0, i32 0, i32 0, i32 0, i32 0, i32 2, i32 0
  %31 = getelementptr inbounds %"class.std::queue", %"class.std::queue"* %6, i64 0, i32 0, i32 0, i32 0, i32 0, i32 1
  %32 = getelementptr inbounds %"class.std::queue", %"class.std::queue"* %6, i64 0, i32 0, i32 0, i32 0, i32 0, i32 0
  %33 = bitcast %"class.std::queue"* %6 to i8**
  %34 = getelementptr inbounds %"class.std::queue", %"class.std::queue"* %6, i64 0, i32 0, i32 0, i32 0, i32 0, i32 2, i32 1
  %35 = getelementptr inbounds %"class.std::queue", %"class.std::queue"* %7, i64 0, i32 0, i32 0, i32 0, i32 0, i32 3, i32 0
  %36 = getelementptr inbounds %"class.std::queue", %"class.std::queue"* %7, i64 0, i32 0, i32 0, i32 0, i32 0, i32 3, i32 2
  %37 = getelementptr inbounds %"class.std::queue", %"class.std::queue"* %7, i64 0, i32 0, i32 0, i32 0, i32 0, i32 3, i32 3
  %38 = getelementptr inbounds %"class.std::queue", %"class.std::queue"* %7, i64 0, i32 0, i32 0, i32 0, i32 0, i32 2, i32 3
  %39 = getelementptr inbounds %"class.std::queue", %"class.std::queue"* %7, i64 0, i32 0, i32 0, i32 0, i32 0, i32 3, i32 1
  %40 = getelementptr inbounds %"class.std::queue", %"class.std::queue"* %7, i64 0, i32 0, i32 0, i32 0, i32 0, i32 2, i32 2
  %41 = getelementptr inbounds %"class.std::queue", %"class.std::queue"* %7, i64 0, i32 0, i32 0, i32 0, i32 0, i32 2, i32 0
  %42 = getelementptr inbounds %"class.std::queue", %"class.std::queue"* %7, i64 0, i32 0, i32 0, i32 0, i32 0, i32 1
  %43 = getelementptr inbounds %"class.std::queue", %"class.std::queue"* %7, i64 0, i32 0, i32 0, i32 0, i32 0, i32 0
  %44 = bitcast %"class.std::queue"* %7 to i8**
  %45 = getelementptr inbounds %"class.std::queue", %"class.std::queue"* %7, i64 0, i32 0, i32 0, i32 0, i32 0, i32 2, i32 1
  %46 = load i32, i32* %2, align 4, !tbaa !5
  %47 = icmp sgt i32 %46, 0
  %48 = load i32, i32* %3, align 4
  %49 = icmp sgt i32 %48, 0
  %50 = select i1 %47, i1 %49, i1 false
  br i1 %50, label %51, label %59

51:                                               ; preds = %23, %77
  %52 = phi i32 [ %78, %77 ], [ %46, %23 ]
  %53 = phi i32 [ %79, %77 ], [ %48, %23 ]
  %54 = phi i64 [ %80, %77 ], [ 0, %23 ]
  %55 = icmp sgt i32 %53, 0
  br i1 %55, label %56, label %77

56:                                               ; preds = %51
  %57 = trunc i64 %54 to i32
  %58 = trunc i64 %54 to i32
  br label %83

59:                                               ; preds = %77, %23
  %60 = phi i32 [ %46, %23 ], [ %78, %77 ]
  %61 = bitcast i32* %9 to i8*
  %62 = bitcast i32* %10 to i8*
  %63 = getelementptr inbounds %"class.std::queue", %"class.std::queue"* %6, i64 0, i32 0
  %64 = getelementptr inbounds %"class.std::queue", %"class.std::queue"* %7, i64 0, i32 0
  %65 = bitcast i32* %11 to i8*
  %66 = bitcast i32** %34 to i8**
  %67 = bitcast i32** %45 to i8**
  %68 = load i32*, i32** %24, align 8, !tbaa !9
  %69 = load i32*, i32** %30, align 8, !tbaa !9
  %70 = icmp eq i32* %68, %69
  br i1 %70, label %342, label %71

71:                                               ; preds = %59
  %72 = load i32*, i32** %41, align 8, !tbaa !9, !noalias !12
  br label %386

73:                                               ; preds = %0
  %74 = landingpad { i8*, i32 }
          cleanup
  br label %652

75:                                               ; preds = %337
  %76 = load i32, i32* %2, align 4, !tbaa !5
  br label %77

77:                                               ; preds = %75, %51
  %78 = phi i32 [ %76, %75 ], [ %52, %51 ]
  %79 = phi i32 [ %339, %75 ], [ %53, %51 ]
  %80 = add nuw nsw i64 %54, 1
  %81 = sext i32 %78 to i64
  %82 = icmp slt i64 %80, %81
  br i1 %82, label %51, label %59, !llvm.loop !15

83:                                               ; preds = %56, %337
  %84 = phi i64 [ 0, %56 ], [ %338, %337 ]
  %85 = getelementptr inbounds [500 x [500 x i32]], [500 x [500 x i32]]* %5, i64 0, i64 %54, i64 %84
  store i32 0, i32* %85, align 4, !tbaa !5
  call void @llvm.lifetime.start.p0i8(i64 1, i8* nonnull %8) #14
  %86 = invoke nonnull align 8 dereferenceable(16) %"class.std::basic_istream"* @_ZStrsIcSt11char_traitsIcEERSt13basic_istreamIT_T0_ES6_RS3_(%"class.std::basic_istream"* nonnull align 8 dereferenceable(16) @_ZSt3cin, i8* nonnull align 1 dereferenceable(1) %8)
          to label %87 unwind label %329

87:                                               ; preds = %83
  %88 = load i8, i8* %8, align 1, !tbaa !18
  %89 = icmp eq i8 %88, 35
  br i1 %89, label %90, label %337

90:                                               ; preds = %87
  %91 = load i32, i32* %4, align 4, !tbaa !5
  store i32 %91, i32* %85, align 4, !tbaa !5
  %92 = add nsw i32 %91, -1
  store i32 %92, i32* %4, align 4, !tbaa !5
  %93 = load i32*, i32** %24, align 8, !tbaa !19
  %94 = load i32*, i32** %25, align 8, !tbaa !22
  %95 = getelementptr inbounds i32, i32* %94, i64 -1
  %96 = icmp eq i32* %93, %95
  br i1 %96, label %99, label %97

97:                                               ; preds = %90
  store i32 %57, i32* %93, align 4, !tbaa !5
  %98 = getelementptr inbounds i32, i32* %93, i64 1
  br label %209

99:                                               ; preds = %90
  %100 = load i32**, i32*** %26, align 8, !tbaa !23
  %101 = load i32**, i32*** %27, align 8, !tbaa !23
  %102 = ptrtoint i32** %100 to i64
  %103 = ptrtoint i32** %101 to i64
  %104 = sub i64 %102, %103
  %105 = ashr exact i64 %104, 3
  %106 = icmp ne i32** %100, null
  %107 = sext i1 %106 to i64
  %108 = add nsw i64 %105, %107
  %109 = shl nsw i64 %108, 7
  %110 = load i32*, i32** %28, align 8, !tbaa !24
  %111 = ptrtoint i32* %93 to i64
  %112 = ptrtoint i32* %110 to i64
  %113 = sub i64 %111, %112
  %114 = ashr exact i64 %113, 2
  %115 = add nsw i64 %109, %114
  %116 = load i32*, i32** %29, align 8, !tbaa !25
  %117 = load i32*, i32** %30, align 8, !tbaa !9
  %118 = ptrtoint i32* %116 to i64
  %119 = ptrtoint i32* %117 to i64
  %120 = sub i64 %118, %119
  %121 = ashr exact i64 %120, 2
  %122 = add nsw i64 %115, %121
  %123 = icmp eq i64 %122, 2305843009213693951
  br i1 %123, label %124, label %126

124:                                              ; preds = %99
  invoke void @_ZSt20__throw_length_errorPKc(i8* getelementptr inbounds ([48 x i8], [48 x i8]* @.str, i64 0, i64 0)) #15
          to label %125 unwind label %331

125:                                              ; preds = %124
  unreachable

126:                                              ; preds = %99
  %127 = load i64, i64* %31, align 8, !tbaa !26
  %128 = load i32**, i32*** %32, align 8, !tbaa !27
  %129 = ptrtoint i32** %128 to i64
  %130 = sub i64 %102, %129
  %131 = ashr exact i64 %130, 3
  %132 = sub i64 %127, %131
  %133 = icmp ult i64 %132, 2
  br i1 %133, label %134, label %198

134:                                              ; preds = %126
  %135 = add nsw i64 %105, 1
  %136 = add nsw i64 %105, 2
  %137 = shl nsw i64 %136, 1
  %138 = icmp ugt i64 %127, %137
  br i1 %138, label %139, label %159

139:                                              ; preds = %134
  %140 = sub i64 %127, %136
  %141 = lshr i64 %140, 1
  %142 = getelementptr inbounds i32*, i32** %128, i64 %141
  %143 = icmp ult i32** %142, %101
  %144 = getelementptr inbounds i32*, i32** %100, i64 1
  %145 = ptrtoint i32** %144 to i64
  %146 = sub i64 %145, %103
  %147 = icmp eq i64 %146, 0
  br i1 %143, label %148, label %152

148:                                              ; preds = %139
  br i1 %147, label %191, label %149

149:                                              ; preds = %148
  %150 = bitcast i32** %142 to i8*
  %151 = bitcast i32** %101 to i8*
  call void @llvm.memmove.p0i8.p0i8.i64(i8* align 8 %150, i8* nonnull align 8 %151, i64 %146, i1 false) #14
  br label %191

152:                                              ; preds = %139
  br i1 %147, label %191, label %153

153:                                              ; preds = %152
  %154 = ashr exact i64 %146, 3
  %155 = sub nsw i64 %135, %154
  %156 = getelementptr inbounds i32*, i32** %142, i64 %155
  %157 = bitcast i32** %156 to i8*
  %158 = bitcast i32** %101 to i8*
  call void @llvm.memmove.p0i8.p0i8.i64(i8* align 8 %157, i8* align 8 %158, i64 %146, i1 false) #14
  br label %191

159:                                              ; preds = %134
  %160 = icmp eq i64 %127, 0
  %161 = select i1 %160, i64 1, i64 %127
  %162 = add i64 %127, 2
  %163 = add i64 %162, %161
  %164 = icmp ugt i64 %163, 1152921504606846975
  br i1 %164, label %165, label %171, !prof !28

165:                                              ; preds = %159
  %166 = icmp ugt i64 %163, 2305843009213693951
  br i1 %166, label %167, label %169

167:                                              ; preds = %165
  invoke void @_ZSt28__throw_bad_array_new_lengthv() #15
          to label %168 unwind label %331

168:                                              ; preds = %167
  unreachable

169:                                              ; preds = %165
  invoke void @_ZSt17__throw_bad_allocv() #15
          to label %170 unwind label %331

170:                                              ; preds = %169
  unreachable

171:                                              ; preds = %159
  %172 = shl nuw nsw i64 %163, 3
  %173 = invoke noalias nonnull i8* @_Znwm(i64 %172) #16
          to label %174 unwind label %329

174:                                              ; preds = %171
  %175 = bitcast i8* %173 to i32**
  %176 = sub nsw i64 %163, %136
  %177 = lshr i64 %176, 1
  %178 = getelementptr inbounds i32*, i32** %175, i64 %177
  %179 = load i32**, i32*** %27, align 8, !tbaa !29
  %180 = load i32**, i32*** %26, align 8, !tbaa !30
  %181 = getelementptr inbounds i32*, i32** %180, i64 1
  %182 = ptrtoint i32** %181 to i64
  %183 = ptrtoint i32** %179 to i64
  %184 = sub i64 %182, %183
  %185 = icmp eq i64 %184, 0
  br i1 %185, label %189, label %186

186:                                              ; preds = %174
  %187 = bitcast i32** %178 to i8*
  %188 = bitcast i32** %179 to i8*
  call void @llvm.memmove.p0i8.p0i8.i64(i8* nonnull align 8 %187, i8* align 8 %188, i64 %184, i1 false) #14
  br label %189

189:                                              ; preds = %186, %174
  %190 = load i8*, i8** %33, align 8, !tbaa !27
  call void @_ZdlPv(i8* %190) #14
  store i8* %173, i8** %33, align 8, !tbaa !27
  store i64 %163, i64* %31, align 8, !tbaa !26
  br label %191

191:                                              ; preds = %189, %153, %152, %149, %148
  %192 = phi i32** [ %178, %189 ], [ %142, %152 ], [ %142, %153 ], [ %142, %148 ], [ %142, %149 ]
  store i32** %192, i32*** %27, align 8, !tbaa !23
  %193 = load i32*, i32** %192, align 8, !tbaa !31
  store i32* %193, i32** %34, align 8, !tbaa !24
  %194 = getelementptr inbounds i32, i32* %193, i64 128
  store i32* %194, i32** %29, align 8, !tbaa !25
  %195 = getelementptr inbounds i32*, i32** %192, i64 %105
  store i32** %195, i32*** %26, align 8, !tbaa !23
  %196 = load i32*, i32** %195, align 8, !tbaa !31
  store i32* %196, i32** %28, align 8, !tbaa !24
  %197 = getelementptr inbounds i32, i32* %196, i64 128
  store i32* %197, i32** %25, align 8, !tbaa !25
  br label %198

198:                                              ; preds = %191, %126
  %199 = invoke noalias nonnull i8* @_Znwm(i64 512) #16
          to label %200 unwind label %329

200:                                              ; preds = %198
  %201 = load i32**, i32*** %26, align 8, !tbaa !30
  %202 = getelementptr inbounds i32*, i32** %201, i64 1
  %203 = bitcast i32** %202 to i8**
  store i8* %199, i8** %203, align 8, !tbaa !31
  %204 = load i32*, i32** %24, align 8, !tbaa !19
  store i32 %58, i32* %204, align 4, !tbaa !5
  %205 = load i32**, i32*** %26, align 8, !tbaa !30
  %206 = getelementptr inbounds i32*, i32** %205, i64 1
  store i32** %206, i32*** %26, align 8, !tbaa !23
  %207 = load i32*, i32** %206, align 8, !tbaa !31
  store i32* %207, i32** %28, align 8, !tbaa !24
  %208 = getelementptr inbounds i32, i32* %207, i64 128
  store i32* %208, i32** %25, align 8, !tbaa !25
  br label %209

209:                                              ; preds = %200, %97
  %210 = phi i32* [ %98, %97 ], [ %207, %200 ]
  store i32* %210, i32** %24, align 8, !tbaa !19
  %211 = load i32*, i32** %35, align 8, !tbaa !19
  %212 = load i32*, i32** %36, align 8, !tbaa !22
  %213 = getelementptr inbounds i32, i32* %212, i64 -1
  %214 = icmp eq i32* %211, %213
  br i1 %214, label %218, label %215

215:                                              ; preds = %209
  %216 = trunc i64 %84 to i32
  store i32 %216, i32* %211, align 4, !tbaa !5
  %217 = getelementptr inbounds i32, i32* %211, i64 1
  br label %335

218:                                              ; preds = %209
  %219 = load i32**, i32*** %37, align 8, !tbaa !23
  %220 = load i32**, i32*** %38, align 8, !tbaa !23
  %221 = ptrtoint i32** %219 to i64
  %222 = ptrtoint i32** %220 to i64
  %223 = sub i64 %221, %222
  %224 = ashr exact i64 %223, 3
  %225 = icmp ne i32** %219, null
  %226 = sext i1 %225 to i64
  %227 = add nsw i64 %224, %226
  %228 = shl nsw i64 %227, 7
  %229 = load i32*, i32** %39, align 8, !tbaa !24
  %230 = ptrtoint i32* %211 to i64
  %231 = ptrtoint i32* %229 to i64
  %232 = sub i64 %230, %231
  %233 = ashr exact i64 %232, 2
  %234 = add nsw i64 %228, %233
  %235 = load i32*, i32** %40, align 8, !tbaa !25
  %236 = load i32*, i32** %41, align 8, !tbaa !9
  %237 = ptrtoint i32* %235 to i64
  %238 = ptrtoint i32* %236 to i64
  %239 = sub i64 %237, %238
  %240 = ashr exact i64 %239, 2
  %241 = add nsw i64 %234, %240
  %242 = icmp eq i64 %241, 2305843009213693951
  br i1 %242, label %243, label %245

243:                                              ; preds = %218
  invoke void @_ZSt20__throw_length_errorPKc(i8* getelementptr inbounds ([48 x i8], [48 x i8]* @.str, i64 0, i64 0)) #15
          to label %244 unwind label %331

244:                                              ; preds = %243
  unreachable

245:                                              ; preds = %218
  %246 = load i64, i64* %42, align 8, !tbaa !26
  %247 = load i32**, i32*** %43, align 8, !tbaa !27
  %248 = ptrtoint i32** %247 to i64
  %249 = sub i64 %221, %248
  %250 = ashr exact i64 %249, 3
  %251 = sub i64 %246, %250
  %252 = icmp ult i64 %251, 2
  br i1 %252, label %253, label %317

253:                                              ; preds = %245
  %254 = add nsw i64 %224, 1
  %255 = add nsw i64 %224, 2
  %256 = shl nsw i64 %255, 1
  %257 = icmp ugt i64 %246, %256
  br i1 %257, label %258, label %278

258:                                              ; preds = %253
  %259 = sub i64 %246, %255
  %260 = lshr i64 %259, 1
  %261 = getelementptr inbounds i32*, i32** %247, i64 %260
  %262 = icmp ult i32** %261, %220
  %263 = getelementptr inbounds i32*, i32** %219, i64 1
  %264 = ptrtoint i32** %263 to i64
  %265 = sub i64 %264, %222
  %266 = icmp eq i64 %265, 0
  br i1 %262, label %267, label %271

267:                                              ; preds = %258
  br i1 %266, label %310, label %268

268:                                              ; preds = %267
  %269 = bitcast i32** %261 to i8*
  %270 = bitcast i32** %220 to i8*
  call void @llvm.memmove.p0i8.p0i8.i64(i8* align 8 %269, i8* nonnull align 8 %270, i64 %265, i1 false) #14
  br label %310

271:                                              ; preds = %258
  br i1 %266, label %310, label %272

272:                                              ; preds = %271
  %273 = ashr exact i64 %265, 3
  %274 = sub nsw i64 %254, %273
  %275 = getelementptr inbounds i32*, i32** %261, i64 %274
  %276 = bitcast i32** %275 to i8*
  %277 = bitcast i32** %220 to i8*
  call void @llvm.memmove.p0i8.p0i8.i64(i8* align 8 %276, i8* align 8 %277, i64 %265, i1 false) #14
  br label %310

278:                                              ; preds = %253
  %279 = icmp eq i64 %246, 0
  %280 = select i1 %279, i64 1, i64 %246
  %281 = add i64 %246, 2
  %282 = add i64 %281, %280
  %283 = icmp ugt i64 %282, 1152921504606846975
  br i1 %283, label %284, label %290, !prof !28

284:                                              ; preds = %278
  %285 = icmp ugt i64 %282, 2305843009213693951
  br i1 %285, label %286, label %288

286:                                              ; preds = %284
  invoke void @_ZSt28__throw_bad_array_new_lengthv() #15
          to label %287 unwind label %331

287:                                              ; preds = %286
  unreachable

288:                                              ; preds = %284
  invoke void @_ZSt17__throw_bad_allocv() #15
          to label %289 unwind label %331

289:                                              ; preds = %288
  unreachable

290:                                              ; preds = %278
  %291 = shl nuw nsw i64 %282, 3
  %292 = invoke noalias nonnull i8* @_Znwm(i64 %291) #16
          to label %293 unwind label %329

293:                                              ; preds = %290
  %294 = bitcast i8* %292 to i32**
  %295 = sub nsw i64 %282, %255
  %296 = lshr i64 %295, 1
  %297 = getelementptr inbounds i32*, i32** %294, i64 %296
  %298 = load i32**, i32*** %38, align 8, !tbaa !29
  %299 = load i32**, i32*** %37, align 8, !tbaa !30
  %300 = getelementptr inbounds i32*, i32** %299, i64 1
  %301 = ptrtoint i32** %300 to i64
  %302 = ptrtoint i32** %298 to i64
  %303 = sub i64 %301, %302
  %304 = icmp eq i64 %303, 0
  br i1 %304, label %308, label %305

305:                                              ; preds = %293
  %306 = bitcast i32** %297 to i8*
  %307 = bitcast i32** %298 to i8*
  call void @llvm.memmove.p0i8.p0i8.i64(i8* nonnull align 8 %306, i8* align 8 %307, i64 %303, i1 false) #14
  br label %308

308:                                              ; preds = %305, %293
  %309 = load i8*, i8** %44, align 8, !tbaa !27
  call void @_ZdlPv(i8* %309) #14
  store i8* %292, i8** %44, align 8, !tbaa !27
  store i64 %282, i64* %42, align 8, !tbaa !26
  br label %310

310:                                              ; preds = %308, %272, %271, %268, %267
  %311 = phi i32** [ %297, %308 ], [ %261, %271 ], [ %261, %272 ], [ %261, %267 ], [ %261, %268 ]
  store i32** %311, i32*** %38, align 8, !tbaa !23
  %312 = load i32*, i32** %311, align 8, !tbaa !31
  store i32* %312, i32** %45, align 8, !tbaa !24
  %313 = getelementptr inbounds i32, i32* %312, i64 128
  store i32* %313, i32** %40, align 8, !tbaa !25
  %314 = getelementptr inbounds i32*, i32** %311, i64 %224
  store i32** %314, i32*** %37, align 8, !tbaa !23
  %315 = load i32*, i32** %314, align 8, !tbaa !31
  store i32* %315, i32** %39, align 8, !tbaa !24
  %316 = getelementptr inbounds i32, i32* %315, i64 128
  store i32* %316, i32** %36, align 8, !tbaa !25
  br label %317

317:                                              ; preds = %310, %245
  %318 = invoke noalias nonnull i8* @_Znwm(i64 512) #16
          to label %319 unwind label %329

319:                                              ; preds = %317
  %320 = load i32**, i32*** %37, align 8, !tbaa !30
  %321 = getelementptr inbounds i32*, i32** %320, i64 1
  %322 = bitcast i32** %321 to i8**
  store i8* %318, i8** %322, align 8, !tbaa !31
  %323 = load i32*, i32** %35, align 8, !tbaa !19
  %324 = trunc i64 %84 to i32
  store i32 %324, i32* %323, align 4, !tbaa !5
  %325 = load i32**, i32*** %37, align 8, !tbaa !30
  %326 = getelementptr inbounds i32*, i32** %325, i64 1
  store i32** %326, i32*** %37, align 8, !tbaa !23
  %327 = load i32*, i32** %326, align 8, !tbaa !31
  store i32* %327, i32** %39, align 8, !tbaa !24
  %328 = getelementptr inbounds i32, i32* %327, i64 128
  store i32* %328, i32** %36, align 8, !tbaa !25
  br label %335

329:                                              ; preds = %83, %198, %317, %171, %290
  %330 = landingpad { i8*, i32 }
          cleanup
  br label %333

331:                                              ; preds = %124, %243, %167, %169, %286, %288
  %332 = landingpad { i8*, i32 }
          cleanup
  br label %333

333:                                              ; preds = %331, %329
  %334 = phi { i8*, i32 } [ %330, %329 ], [ %332, %331 ]
  call void @llvm.lifetime.end.p0i8(i64 1, i8* nonnull %8) #14
  br label %650

335:                                              ; preds = %215, %319
  %336 = phi i32* [ %327, %319 ], [ %217, %215 ]
  store i32* %336, i32** %35, align 8, !tbaa !19
  br label %337

337:                                              ; preds = %335, %87
  call void @llvm.lifetime.end.p0i8(i64 1, i8* nonnull %8) #14
  %338 = add nuw nsw i64 %84, 1
  %339 = load i32, i32* %3, align 4, !tbaa !5
  %340 = sext i32 %339 to i64
  %341 = icmp slt i64 %338, %340
  br i1 %341, label %83, label %75, !llvm.loop !32

342:                                              ; preds = %485, %59
  %343 = phi i32 [ %60, %59 ], [ %490, %485 ]
  %344 = load i32, i32* %3, align 4
  %345 = icmp sgt i32 %343, 0
  br i1 %345, label %346, label %548

346:                                              ; preds = %342
  %347 = icmp sgt i32 %344, 1
  br i1 %347, label %348, label %543

348:                                              ; preds = %346
  %349 = zext i32 %343 to i64
  %350 = zext i32 %344 to i64
  %351 = add nsw i64 %350, -1
  %352 = and i64 %351, 1
  %353 = icmp eq i32 %344, 2
  %354 = and i64 %351, -2
  %355 = icmp eq i64 %352, 0
  br label %356

356:                                              ; preds = %348, %383
  %357 = phi i64 [ 0, %348 ], [ %384, %383 ]
  br i1 %353, label %373, label %358

358:                                              ; preds = %356, %657
  %359 = phi i64 [ %658, %657 ], [ 1, %356 ]
  %360 = phi i64 [ %659, %657 ], [ %354, %356 ]
  %361 = getelementptr inbounds [500 x [500 x i32]], [500 x [500 x i32]]* %5, i64 0, i64 %357, i64 %359
  %362 = load i32, i32* %361, align 4, !tbaa !5
  %363 = icmp eq i32 %362, 0
  br i1 %363, label %364, label %368

364:                                              ; preds = %358
  %365 = add nsw i64 %359, -1
  %366 = getelementptr inbounds [500 x [500 x i32]], [500 x [500 x i32]]* %5, i64 0, i64 %357, i64 %365
  %367 = load i32, i32* %366, align 4, !tbaa !5
  store i32 %367, i32* %361, align 4, !tbaa !5
  br label %368

368:                                              ; preds = %364, %358
  %369 = add nuw nsw i64 %359, 1
  %370 = getelementptr inbounds [500 x [500 x i32]], [500 x [500 x i32]]* %5, i64 0, i64 %357, i64 %369
  %371 = load i32, i32* %370, align 4, !tbaa !5
  %372 = icmp eq i32 %371, 0
  br i1 %372, label %654, label %657

373:                                              ; preds = %657, %356
  %374 = phi i64 [ 1, %356 ], [ %658, %657 ]
  br i1 %355, label %383, label %375

375:                                              ; preds = %373
  %376 = getelementptr inbounds [500 x [500 x i32]], [500 x [500 x i32]]* %5, i64 0, i64 %357, i64 %374
  %377 = load i32, i32* %376, align 4, !tbaa !5
  %378 = icmp eq i32 %377, 0
  br i1 %378, label %379, label %383

379:                                              ; preds = %375
  %380 = add nsw i64 %374, -1
  %381 = getelementptr inbounds [500 x [500 x i32]], [500 x [500 x i32]]* %5, i64 0, i64 %357, i64 %380
  %382 = load i32, i32* %381, align 4, !tbaa !5
  store i32 %382, i32* %376, align 4, !tbaa !5
  br label %383

383:                                              ; preds = %379, %375, %373
  %384 = add nuw nsw i64 %357, 1
  %385 = icmp eq i64 %384, %349
  br i1 %385, label %493, label %356, !llvm.loop !33

386:                                              ; preds = %485, %71
  %387 = phi i32 [ %60, %71 ], [ %490, %485 ]
  %388 = phi i32* [ %72, %71 ], [ %487, %485 ]
  %389 = phi i32* [ %69, %71 ], [ %486, %485 ]
  %390 = phi i32* [ %68, %71 ], [ %488, %485 ]
  %391 = load i32, i32* %389, align 4, !tbaa !5
  call void @llvm.lifetime.start.p0i8(i64 4, i8* nonnull %61) #14
  %392 = load i32, i32* %388, align 4, !tbaa !5
  store i32 %392, i32* %9, align 4, !tbaa !5
  %393 = add nsw i32 %387, -1
  %394 = icmp slt i32 %391, %393
  br i1 %394, label %395, label %425

395:                                              ; preds = %386
  %396 = add nsw i32 %391, 1
  %397 = sext i32 %396 to i64
  %398 = sext i32 %392 to i64
  %399 = getelementptr inbounds [500 x [500 x i32]], [500 x [500 x i32]]* %5, i64 0, i64 %397, i64 %398
  %400 = load i32, i32* %399, align 4, !tbaa !5
  %401 = icmp eq i32 %400, 0
  br i1 %401, label %402, label %425

402:                                              ; preds = %395
  %403 = sext i32 %391 to i64
  %404 = getelementptr inbounds [500 x [500 x i32]], [500 x [500 x i32]]* %5, i64 0, i64 %403, i64 %398
  %405 = load i32, i32* %404, align 4, !tbaa !5
  store i32 %405, i32* %399, align 4, !tbaa !5
  call void @llvm.lifetime.start.p0i8(i64 4, i8* nonnull %62) #14
  store i32 %396, i32* %10, align 4, !tbaa !5
  %406 = load i32*, i32** %25, align 8, !tbaa !22
  %407 = getelementptr inbounds i32, i32* %406, i64 -1
  %408 = icmp eq i32* %390, %407
  br i1 %408, label %411, label %409

409:                                              ; preds = %402
  store i32 %396, i32* %390, align 4, !tbaa !5
  %410 = getelementptr inbounds i32, i32* %390, i64 1
  store i32* %410, i32** %24, align 8, !tbaa !19
  br label %412

411:                                              ; preds = %402
  invoke void @_ZNSt5dequeIiSaIiEE16_M_push_back_auxIJiEEEvDpOT_(%"class.std::deque"* nonnull align 8 dereferenceable(80) %63, i32* nonnull align 4 dereferenceable(4) %10)
          to label %412 unwind label %423

412:                                              ; preds = %409, %411
  call void @llvm.lifetime.end.p0i8(i64 4, i8* nonnull %62) #14
  %413 = load i32*, i32** %35, align 8, !tbaa !19
  %414 = load i32*, i32** %36, align 8, !tbaa !22
  %415 = getelementptr inbounds i32, i32* %414, i64 -1
  %416 = icmp eq i32* %413, %415
  br i1 %416, label %420, label %417

417:                                              ; preds = %412
  %418 = load i32, i32* %9, align 4, !tbaa !5
  store i32 %418, i32* %413, align 4, !tbaa !5
  %419 = getelementptr inbounds i32, i32* %413, i64 1
  store i32* %419, i32** %35, align 8, !tbaa !19
  br label %425

420:                                              ; preds = %412
  invoke void @_ZNSt5dequeIiSaIiEE16_M_push_back_auxIJRKiEEEvDpOT_(%"class.std::deque"* nonnull align 8 dereferenceable(80) %64, i32* nonnull align 4 dereferenceable(4) %9)
          to label %425 unwind label %421

421:                                              ; preds = %454, %420
  %422 = landingpad { i8*, i32 }
          cleanup
  br label %491

423:                                              ; preds = %411
  %424 = landingpad { i8*, i32 }
          cleanup
  call void @llvm.lifetime.end.p0i8(i64 4, i8* nonnull %62) #14
  br label %491

425:                                              ; preds = %417, %420, %395, %386
  %426 = icmp sgt i32 %391, 0
  br i1 %426, label %427, label %457

427:                                              ; preds = %425
  %428 = add nsw i32 %391, -1
  %429 = zext i32 %428 to i64
  %430 = load i32, i32* %9, align 4, !tbaa !5
  %431 = sext i32 %430 to i64
  %432 = getelementptr inbounds [500 x [500 x i32]], [500 x [500 x i32]]* %5, i64 0, i64 %429, i64 %431
  %433 = load i32, i32* %432, align 4, !tbaa !5
  %434 = icmp eq i32 %433, 0
  br i1 %434, label %435, label %457

435:                                              ; preds = %427
  %436 = zext i32 %391 to i64
  %437 = getelementptr inbounds [500 x [500 x i32]], [500 x [500 x i32]]* %5, i64 0, i64 %436, i64 %431
  %438 = load i32, i32* %437, align 4, !tbaa !5
  store i32 %438, i32* %432, align 4, !tbaa !5
  call void @llvm.lifetime.start.p0i8(i64 4, i8* nonnull %65) #14
  store i32 %428, i32* %11, align 4, !tbaa !5
  %439 = load i32*, i32** %24, align 8, !tbaa !19
  %440 = load i32*, i32** %25, align 8, !tbaa !22
  %441 = getelementptr inbounds i32, i32* %440, i64 -1
  %442 = icmp eq i32* %439, %441
  br i1 %442, label %445, label %443

443:                                              ; preds = %435
  store i32 %428, i32* %439, align 4, !tbaa !5
  %444 = getelementptr inbounds i32, i32* %439, i64 1
  store i32* %444, i32** %24, align 8, !tbaa !19
  br label %446

445:                                              ; preds = %435
  invoke void @_ZNSt5dequeIiSaIiEE16_M_push_back_auxIJiEEEvDpOT_(%"class.std::deque"* nonnull align 8 dereferenceable(80) %63, i32* nonnull align 4 dereferenceable(4) %11)
          to label %446 unwind label %455

446:                                              ; preds = %443, %445
  call void @llvm.lifetime.end.p0i8(i64 4, i8* nonnull %65) #14
  %447 = load i32*, i32** %35, align 8, !tbaa !19
  %448 = load i32*, i32** %36, align 8, !tbaa !22
  %449 = getelementptr inbounds i32, i32* %448, i64 -1
  %450 = icmp eq i32* %447, %449
  br i1 %450, label %454, label %451

451:                                              ; preds = %446
  %452 = load i32, i32* %9, align 4, !tbaa !5
  store i32 %452, i32* %447, align 4, !tbaa !5
  %453 = getelementptr inbounds i32, i32* %447, i64 1
  store i32* %453, i32** %35, align 8, !tbaa !19
  br label %457

454:                                              ; preds = %446
  invoke void @_ZNSt5dequeIiSaIiEE16_M_push_back_auxIJRKiEEEvDpOT_(%"class.std::deque"* nonnull align 8 dereferenceable(80) %64, i32* nonnull align 4 dereferenceable(4) %9)
          to label %457 unwind label %421

455:                                              ; preds = %445
  %456 = landingpad { i8*, i32 }
          cleanup
  call void @llvm.lifetime.end.p0i8(i64 4, i8* nonnull %65) #14
  br label %491

457:                                              ; preds = %451, %454, %427, %425
  %458 = load i32*, i32** %30, align 8, !tbaa !34
  %459 = load i32*, i32** %29, align 8, !tbaa !35
  %460 = getelementptr inbounds i32, i32* %459, i64 -1
  %461 = icmp eq i32* %458, %460
  br i1 %461, label %464, label %462

462:                                              ; preds = %457
  %463 = getelementptr inbounds i32, i32* %458, i64 1
  br label %470

464:                                              ; preds = %457
  %465 = load i8*, i8** %66, align 8, !tbaa !36
  call void @_ZdlPv(i8* %465) #14
  %466 = load i32**, i32*** %27, align 8, !tbaa !29
  %467 = getelementptr inbounds i32*, i32** %466, i64 1
  store i32** %467, i32*** %27, align 8, !tbaa !23
  %468 = load i32*, i32** %467, align 8, !tbaa !31
  store i32* %468, i32** %34, align 8, !tbaa !24
  %469 = getelementptr inbounds i32, i32* %468, i64 128
  store i32* %469, i32** %29, align 8, !tbaa !25
  br label %470

470:                                              ; preds = %462, %464
  %471 = phi i32* [ %463, %462 ], [ %468, %464 ]
  store i32* %471, i32** %30, align 8, !tbaa !34
  %472 = load i32*, i32** %41, align 8, !tbaa !34
  %473 = load i32*, i32** %40, align 8, !tbaa !35
  %474 = getelementptr inbounds i32, i32* %473, i64 -1
  %475 = icmp eq i32* %472, %474
  br i1 %475, label %478, label %476

476:                                              ; preds = %470
  %477 = getelementptr inbounds i32, i32* %472, i64 1
  br label %485

478:                                              ; preds = %470
  %479 = load i8*, i8** %67, align 8, !tbaa !36
  call void @_ZdlPv(i8* %479) #14
  %480 = load i32**, i32*** %38, align 8, !tbaa !29
  %481 = getelementptr inbounds i32*, i32** %480, i64 1
  store i32** %481, i32*** %38, align 8, !tbaa !23
  %482 = load i32*, i32** %481, align 8, !tbaa !31
  store i32* %482, i32** %45, align 8, !tbaa !24
  %483 = getelementptr inbounds i32, i32* %482, i64 128
  store i32* %483, i32** %40, align 8, !tbaa !25
  %484 = load i32*, i32** %30, align 8, !tbaa !9
  br label %485

485:                                              ; preds = %476, %478
  %486 = phi i32* [ %471, %476 ], [ %484, %478 ]
  %487 = phi i32* [ %477, %476 ], [ %482, %478 ]
  store i32* %487, i32** %41, align 8, !tbaa !34
  call void @llvm.lifetime.end.p0i8(i64 4, i8* nonnull %61) #14
  %488 = load i32*, i32** %24, align 8, !tbaa !9
  %489 = icmp eq i32* %488, %486
  %490 = load i32, i32* %2, align 4, !tbaa !5
  br i1 %489, label %342, label %386, !llvm.loop !37

491:                                              ; preds = %455, %423, %421
  %492 = phi { i8*, i32 } [ %422, %421 ], [ %456, %455 ], [ %424, %423 ]
  call void @llvm.lifetime.end.p0i8(i64 4, i8* nonnull %61) #14
  br label %650

493:                                              ; preds = %383
  br i1 %345, label %494, label %548

494:                                              ; preds = %493
  %495 = icmp sgt i32 %344, 1
  br i1 %495, label %496, label %543

496:                                              ; preds = %494
  %497 = zext i32 %344 to i64
  %498 = zext i32 %343 to i64
  %499 = and i64 %351, 1
  %500 = icmp eq i64 %499, 0
  %501 = add nsw i32 %344, -1
  %502 = add nsw i32 %344, -2
  %503 = zext i32 %502 to i64
  %504 = zext i32 %501 to i64
  %505 = add nsw i64 %497, -1
  %506 = icmp eq i32 %344, 2
  br label %507

507:                                              ; preds = %496, %539
  %508 = phi i64 [ 0, %496 ], [ %540, %539 ]
  br i1 %500, label %516, label %509

509:                                              ; preds = %507
  %510 = getelementptr inbounds [500 x [500 x i32]], [500 x [500 x i32]]* %5, i64 0, i64 %508, i64 %503
  %511 = load i32, i32* %510, align 4, !tbaa !5
  %512 = icmp eq i32 %511, 0
  br i1 %512, label %513, label %516

513:                                              ; preds = %509
  %514 = getelementptr inbounds [500 x [500 x i32]], [500 x [500 x i32]]* %5, i64 0, i64 %508, i64 %504
  %515 = load i32, i32* %514, align 4, !tbaa !5
  store i32 %515, i32* %510, align 4, !tbaa !5
  br label %516

516:                                              ; preds = %507, %513, %509
  %517 = phi i64 [ %497, %507 ], [ %505, %513 ], [ %505, %509 ]
  %518 = phi i32 [ %344, %507 ], [ %501, %513 ], [ %501, %509 ]
  br i1 %506, label %539, label %519

519:                                              ; preds = %516, %665
  %520 = phi i64 [ %667, %665 ], [ %517, %516 ]
  %521 = phi i32 [ %533, %665 ], [ %518, %516 ]
  %522 = add nsw i32 %521, -2
  %523 = zext i32 %522 to i64
  %524 = getelementptr inbounds [500 x [500 x i32]], [500 x [500 x i32]]* %5, i64 0, i64 %508, i64 %523
  %525 = load i32, i32* %524, align 4, !tbaa !5
  %526 = icmp eq i32 %525, 0
  br i1 %526, label %527, label %532

527:                                              ; preds = %519
  %528 = add nsw i32 %521, -1
  %529 = zext i32 %528 to i64
  %530 = getelementptr inbounds [500 x [500 x i32]], [500 x [500 x i32]]* %5, i64 0, i64 %508, i64 %529
  %531 = load i32, i32* %530, align 4, !tbaa !5
  store i32 %531, i32* %524, align 4, !tbaa !5
  br label %532

532:                                              ; preds = %527, %519
  %533 = add nsw i32 %521, -2
  %534 = add nsw i32 %521, -3
  %535 = zext i32 %534 to i64
  %536 = getelementptr inbounds [500 x [500 x i32]], [500 x [500 x i32]]* %5, i64 0, i64 %508, i64 %535
  %537 = load i32, i32* %536, align 4, !tbaa !5
  %538 = icmp eq i32 %537, 0
  br i1 %538, label %661, label %665

539:                                              ; preds = %665, %516
  %540 = add nuw nsw i64 %508, 1
  %541 = icmp eq i64 %540, %498
  br i1 %541, label %542, label %507, !llvm.loop !38

542:                                              ; preds = %539
  br i1 %345, label %543, label %548

543:                                              ; preds = %346, %494, %542
  br label %544

544:                                              ; preds = %543, %644
  %545 = phi i32 [ %645, %644 ], [ %344, %543 ]
  %546 = phi i64 [ %640, %644 ], [ 0, %543 ]
  %547 = icmp sgt i32 %545, 0
  br i1 %547, label %618, label %587

548:                                              ; preds = %639, %342, %493, %542
  %549 = load i32**, i32*** %43, align 8, !tbaa !27
  %550 = icmp eq i32** %549, null
  br i1 %550, label %567, label %551

551:                                              ; preds = %548
  %552 = bitcast i32** %549 to i8*
  %553 = load i32**, i32*** %38, align 8, !tbaa !29
  %554 = load i32**, i32*** %37, align 8, !tbaa !30
  %555 = getelementptr inbounds i32*, i32** %554, i64 1
  %556 = icmp ult i32** %553, %555
  br i1 %556, label %557, label %565

557:                                              ; preds = %551, %557
  %558 = phi i32** [ %561, %557 ], [ %553, %551 ]
  %559 = bitcast i32** %558 to i8**
  %560 = load i8*, i8** %559, align 8, !tbaa !31
  call void @_ZdlPv(i8* %560) #14
  %561 = getelementptr inbounds i32*, i32** %558, i64 1
  %562 = icmp ult i32** %558, %554
  br i1 %562, label %557, label %563, !llvm.loop !39

563:                                              ; preds = %557
  %564 = load i8*, i8** %44, align 8, !tbaa !27
  br label %565

565:                                              ; preds = %563, %551
  %566 = phi i8* [ %564, %563 ], [ %552, %551 ]
  call void @_ZdlPv(i8* %566) #14
  br label %567

567:                                              ; preds = %548, %565
  call void @llvm.lifetime.end.p0i8(i64 80, i8* nonnull %21) #14
  %568 = load i32**, i32*** %32, align 8, !tbaa !27
  %569 = icmp eq i32** %568, null
  br i1 %569, label %586, label %570

570:                                              ; preds = %567
  %571 = bitcast i32** %568 to i8*
  %572 = load i32**, i32*** %27, align 8, !tbaa !29
  %573 = load i32**, i32*** %26, align 8, !tbaa !30
  %574 = getelementptr inbounds i32*, i32** %573, i64 1
  %575 = icmp ult i32** %572, %574
  br i1 %575, label %576, label %584

576:                                              ; preds = %570, %576
  %577 = phi i32** [ %580, %576 ], [ %572, %570 ]
  %578 = bitcast i32** %577 to i8**
  %579 = load i8*, i8** %578, align 8, !tbaa !31
  call void @_ZdlPv(i8* %579) #14
  %580 = getelementptr inbounds i32*, i32** %577, i64 1
  %581 = icmp ult i32** %577, %573
  br i1 %581, label %576, label %582, !llvm.loop !39

582:                                              ; preds = %576
  %583 = load i8*, i8** %33, align 8, !tbaa !27
  br label %584

584:                                              ; preds = %582, %570
  %585 = phi i8* [ %583, %582 ], [ %571, %570 ]
  call void @_ZdlPv(i8* %585) #14
  br label %586

586:                                              ; preds = %567, %584
  call void @llvm.lifetime.end.p0i8(i64 80, i8* nonnull %19) #14
  call void @llvm.lifetime.end.p0i8(i64 1000000, i8* nonnull %18) #14
  call void @llvm.lifetime.end.p0i8(i64 4, i8* nonnull %14) #14
  call void @llvm.lifetime.end.p0i8(i64 4, i8* nonnull %13) #14
  call void @llvm.lifetime.end.p0i8(i64 4, i8* nonnull %12) #14
  ret i32 0

587:                                              ; preds = %634, %544
  %588 = load i8*, i8** bitcast (%"class.std::basic_ostream"* @_ZSt4cout to i8**), align 8, !tbaa !40
  %589 = getelementptr i8, i8* %588, i64 -24
  %590 = bitcast i8* %589 to i64*
  %591 = load i64, i64* %590, align 8
  %592 = add nsw i64 %591, 240
  %593 = getelementptr inbounds i8, i8* bitcast (%"class.std::basic_ostream"* @_ZSt4cout to i8*), i64 %592
  %594 = bitcast i8* %593 to %"class.std::ctype"**
  %595 = load %"class.std::ctype"*, %"class.std::ctype"** %594, align 8, !tbaa !42
  %596 = icmp eq %"class.std::ctype"* %595, null
  br i1 %596, label %597, label %599

597:                                              ; preds = %587
  invoke void @_ZSt16__throw_bad_castv() #15
          to label %598 unwind label %648

598:                                              ; preds = %597
  unreachable

599:                                              ; preds = %587
  %600 = getelementptr inbounds %"class.std::ctype", %"class.std::ctype"* %595, i64 0, i32 8
  %601 = load i8, i8* %600, align 8, !tbaa !45
  %602 = icmp eq i8 %601, 0
  br i1 %602, label %606, label %603

603:                                              ; preds = %599
  %604 = getelementptr inbounds %"class.std::ctype", %"class.std::ctype"* %595, i64 0, i32 9, i64 10
  %605 = load i8, i8* %604, align 1, !tbaa !18
  br label %613

606:                                              ; preds = %599
  invoke void @_ZNKSt5ctypeIcE13_M_widen_initEv(%"class.std::ctype"* nonnull align 8 dereferenceable(570) %595)
          to label %607 unwind label %646

607:                                              ; preds = %606
  %608 = bitcast %"class.std::ctype"* %595 to i8 (%"class.std::ctype"*, i8)***
  %609 = load i8 (%"class.std::ctype"*, i8)**, i8 (%"class.std::ctype"*, i8)*** %608, align 8, !tbaa !40
  %610 = getelementptr inbounds i8 (%"class.std::ctype"*, i8)*, i8 (%"class.std::ctype"*, i8)** %609, i64 6
  %611 = load i8 (%"class.std::ctype"*, i8)*, i8 (%"class.std::ctype"*, i8)** %610, align 8
  %612 = invoke signext i8 %611(%"class.std::ctype"* nonnull align 8 dereferenceable(570) %595, i8 signext 10)
          to label %613 unwind label %646

613:                                              ; preds = %607, %603
  %614 = phi i8 [ %605, %603 ], [ %612, %607 ]
  %615 = invoke nonnull align 8 dereferenceable(8) %"class.std::basic_ostream"* @_ZNSo3putEc(%"class.std::basic_ostream"* nonnull align 8 dereferenceable(8) @_ZSt4cout, i8 signext %614)
          to label %616 unwind label %646

616:                                              ; preds = %613
  %617 = invoke nonnull align 8 dereferenceable(8) %"class.std::basic_ostream"* @_ZNSo5flushEv(%"class.std::basic_ostream"* nonnull align 8 dereferenceable(8) %615)
          to label %639 unwind label %646

618:                                              ; preds = %544, %634
  %619 = phi i64 [ %636, %634 ], [ 0, %544 ]
  %620 = getelementptr inbounds [500 x [500 x i32]], [500 x [500 x i32]]* %5, i64 0, i64 %546, i64 %619
  %621 = load i32, i32* %620, align 4, !tbaa !5
  %622 = invoke nonnull align 8 dereferenceable(8) %"class.std::basic_ostream"* @_ZNSolsEi(%"class.std::basic_ostream"* nonnull align 8 dereferenceable(8) @_ZSt4cout, i32 %621)
          to label %623 unwind label %632

623:                                              ; preds = %618
  %624 = load i32, i32* %3, align 4, !tbaa !5
  %625 = add nsw i32 %624, -1
  %626 = sext i32 %625 to i64
  %627 = icmp slt i64 %619, %626
  br i1 %627, label %628, label %634

628:                                              ; preds = %623
  call void @llvm.lifetime.start.p0i8(i64 1, i8* nonnull %1)
  store i8 32, i8* %1, align 1, !tbaa !18
  %629 = invoke nonnull align 8 dereferenceable(8) %"class.std::basic_ostream"* @_ZSt16__ostream_insertIcSt11char_traitsIcEERSt13basic_ostreamIT_T0_ES6_PKS3_l(%"class.std::basic_ostream"* nonnull align 8 dereferenceable(8) @_ZSt4cout, i8* nonnull %1, i64 1)
          to label %630 unwind label %632

630:                                              ; preds = %628
  call void @llvm.lifetime.end.p0i8(i64 1, i8* nonnull %1)
  %631 = load i32, i32* %3, align 4, !tbaa !5
  br label %634

632:                                              ; preds = %628, %618
  %633 = landingpad { i8*, i32 }
          cleanup
  br label %650

634:                                              ; preds = %630, %623
  %635 = phi i32 [ %631, %630 ], [ %624, %623 ]
  %636 = add nuw nsw i64 %619, 1
  %637 = sext i32 %635 to i64
  %638 = icmp slt i64 %636, %637
  br i1 %638, label %618, label %587, !llvm.loop !47

639:                                              ; preds = %616
  %640 = add nuw nsw i64 %546, 1
  %641 = load i32, i32* %2, align 4, !tbaa !5
  %642 = sext i32 %641 to i64
  %643 = icmp slt i64 %640, %642
  br i1 %643, label %644, label %548, !llvm.loop !48

644:                                              ; preds = %639
  %645 = load i32, i32* %3, align 4, !tbaa !5
  br label %544

646:                                              ; preds = %606, %607, %613, %616
  %647 = landingpad { i8*, i32 }
          cleanup
  br label %650

648:                                              ; preds = %597
  %649 = landingpad { i8*, i32 }
          cleanup
  br label %650

650:                                              ; preds = %646, %648, %632, %491, %333
  %651 = phi { i8*, i32 } [ %334, %333 ], [ %492, %491 ], [ %633, %632 ], [ %647, %646 ], [ %649, %648 ]
  call void @_ZNSt5queueIiSt5dequeIiSaIiEEED2Ev(%"class.std::queue"* nonnull align 8 dereferenceable(80) %7) #14
  br label %652

652:                                              ; preds = %650, %73
  %653 = phi { i8*, i32 } [ %651, %650 ], [ %74, %73 ]
  call void @llvm.lifetime.end.p0i8(i64 80, i8* nonnull %21) #14
  call void @_ZNSt5queueIiSt5dequeIiSaIiEEED2Ev(%"class.std::queue"* nonnull align 8 dereferenceable(80) %6) #14
  call void @llvm.lifetime.end.p0i8(i64 80, i8* nonnull %19) #14
  call void @llvm.lifetime.end.p0i8(i64 1000000, i8* nonnull %18) #14
  call void @llvm.lifetime.end.p0i8(i64 4, i8* nonnull %14) #14
  call void @llvm.lifetime.end.p0i8(i64 4, i8* nonnull %13) #14
  call void @llvm.lifetime.end.p0i8(i64 4, i8* nonnull %12) #14
  resume { i8*, i32 } %653

654:                                              ; preds = %368
  %655 = getelementptr inbounds [500 x [500 x i32]], [500 x [500 x i32]]* %5, i64 0, i64 %357, i64 %359
  %656 = load i32, i32* %655, align 4, !tbaa !5
  store i32 %656, i32* %370, align 4, !tbaa !5
  br label %657

657:                                              ; preds = %654, %368
  %658 = add nuw nsw i64 %359, 2
  %659 = add i64 %360, -2
  %660 = icmp eq i64 %659, 0
  br i1 %660, label %373, label %358, !llvm.loop !49

661:                                              ; preds = %532
  %662 = zext i32 %533 to i64
  %663 = getelementptr inbounds [500 x [500 x i32]], [500 x [500 x i32]]* %5, i64 0, i64 %508, i64 %662
  %664 = load i32, i32* %663, align 4, !tbaa !5
  store i32 %664, i32* %536, align 4, !tbaa !5
  br label %665

665:                                              ; preds = %661, %532
  %666 = icmp sgt i64 %520, 3
  %667 = add nsw i64 %520, -2
  br i1 %666, label %519, label %539, !llvm.loop !50
}

; Function Attrs: argmemonly mustprogress nofree nosync nounwind willreturn
declare void @llvm.lifetime.start.p0i8(i64 immarg, i8* nocapture) #4

declare nonnull align 8 dereferenceable(16) %"class.std::basic_istream"* @_ZNSirsERi(%"class.std::basic_istream"* nonnull align 8 dereferenceable(16), i32* nonnull align 4 dereferenceable(4)) local_unnamed_addr #0

declare i32 @__gxx_personality_v0(...)

declare nonnull align 8 dereferenceable(16) %"class.std::basic_istream"* @_ZStrsIcSt11char_traitsIcEERSt13basic_istreamIT_T0_ES6_RS3_(%"class.std::basic_istream"* nonnull align 8 dereferenceable(16), i8* nonnull align 1 dereferenceable(1)) local_unnamed_addr #0

; Function Attrs: argmemonly mustprogress nofree nosync nounwind willreturn
declare void @llvm.lifetime.end.p0i8(i64 immarg, i8* nocapture) #4

declare nonnull align 8 dereferenceable(8) %"class.std::basic_ostream"* @_ZNSolsEi(%"class.std::basic_ostream"* nonnull align 8 dereferenceable(8), i32) local_unnamed_addr #0

; Function Attrs: inlinehint nounwind sspstrong uwtable
define linkonce_odr dso_local void @_ZNSt5queueIiSt5dequeIiSaIiEEED2Ev(%"class.std::queue"* nonnull align 8 dereferenceable(80) %0) unnamed_addr #5 comdat align 2 personality i32 (...)* @__gxx_personality_v0 {
  %2 = getelementptr inbounds %"class.std::queue", %"class.std::queue"* %0, i64 0, i32 0, i32 0, i32 0, i32 0, i32 0
  %3 = load i32**, i32*** %2, align 8, !tbaa !27
  %4 = icmp eq i32** %3, null
  br i1 %4, label %24, label %5

5:                                                ; preds = %1
  %6 = bitcast i32** %3 to i8*
  %7 = getelementptr inbounds %"class.std::queue", %"class.std::queue"* %0, i64 0, i32 0, i32 0, i32 0, i32 0, i32 2, i32 3
  %8 = load i32**, i32*** %7, align 8, !tbaa !29
  %9 = getelementptr inbounds %"class.std::queue", %"class.std::queue"* %0, i64 0, i32 0, i32 0, i32 0, i32 0, i32 3, i32 3
  %10 = load i32**, i32*** %9, align 8, !tbaa !30
  %11 = getelementptr inbounds i32*, i32** %10, i64 1
  %12 = icmp ult i32** %8, %11
  br i1 %12, label %13, label %22

13:                                               ; preds = %5, %13
  %14 = phi i32** [ %17, %13 ], [ %8, %5 ]
  %15 = bitcast i32** %14 to i8**
  %16 = load i8*, i8** %15, align 8, !tbaa !31
  tail call void @_ZdlPv(i8* %16) #14
  %17 = getelementptr inbounds i32*, i32** %14, i64 1
  %18 = icmp ult i32** %14, %10
  br i1 %18, label %13, label %19, !llvm.loop !39

19:                                               ; preds = %13
  %20 = bitcast %"class.std::queue"* %0 to i8**
  %21 = load i8*, i8** %20, align 8, !tbaa !27
  br label %22

22:                                               ; preds = %19, %5
  %23 = phi i8* [ %21, %19 ], [ %6, %5 ]
  tail call void @_ZdlPv(i8* %23) #14
  br label %24

24:                                               ; preds = %1, %22
  ret void
}

; Function Attrs: noinline noreturn nounwind
define linkonce_odr hidden void @__clang_call_terminate(i8* %0) local_unnamed_addr #6 comdat {
  %2 = tail call i8* @__cxa_begin_catch(i8* %0) #14
  tail call void @_ZSt9terminatev() #17
  unreachable
}

declare i8* @__cxa_begin_catch(i8*) local_unnamed_addr

declare void @_ZSt9terminatev() local_unnamed_addr

; Function Attrs: nobuiltin nounwind
declare void @_ZdlPv(i8*) local_unnamed_addr #7

; Function Attrs: argmemonly mustprogress nofree nounwind willreturn writeonly
declare void @llvm.memset.p0i8.i64(i8* nocapture writeonly, i8, i64, i1 immarg) #8

; Function Attrs: sspstrong uwtable
define linkonce_odr dso_local void @_ZNSt11_Deque_baseIiSaIiEE17_M_initialize_mapEm(%"class.std::_Deque_base"* nonnull align 8 dereferenceable(80) %0, i64 %1) local_unnamed_addr #9 comdat align 2 personality i8* bitcast (i32 (...)* @__gxx_personality_v0 to i8*) {
  %3 = lshr i64 %1, 7
  %4 = add nuw nsw i64 %3, 1
  %5 = icmp ugt i64 %3, 5
  %6 = select i1 %5, i64 %3, i64 5
  %7 = add nuw nsw i64 %6, 3
  %8 = getelementptr inbounds %"class.std::_Deque_base", %"class.std::_Deque_base"* %0, i64 0, i32 0, i32 0, i32 1
  store i64 %7, i64* %8, align 8, !tbaa !26
  %9 = shl nuw nsw i64 %7, 3
  %10 = tail call noalias nonnull i8* @_Znwm(i64 %9) #16
  %11 = bitcast i8* %10 to i32**
  %12 = bitcast %"class.std::_Deque_base"* %0 to i8**
  store i8* %10, i8** %12, align 8, !tbaa !27
  %13 = load i64, i64* %8, align 8, !tbaa !26
  %14 = sub i64 %13, %4
  %15 = lshr i64 %14, 1
  %16 = getelementptr inbounds i32*, i32** %11, i64 %15
  %17 = getelementptr inbounds i32*, i32** %16, i64 %4
  br label %18

18:                                               ; preds = %2, %21
  %19 = phi i32** [ %23, %21 ], [ %16, %2 ]
  %20 = invoke noalias nonnull i8* @_Znwm(i64 512) #16
          to label %21 unwind label %25

21:                                               ; preds = %18
  %22 = bitcast i32** %19 to i8**
  store i8* %20, i8** %22, align 8, !tbaa !31
  %23 = getelementptr inbounds i32*, i32** %19, i64 1
  %24 = icmp ult i32** %23, %17
  br i1 %24, label %18, label %51, !llvm.loop !51

25:                                               ; preds = %18
  %26 = landingpad { i8*, i32 }
          catch i8* null
  %27 = extractvalue { i8*, i32 } %26, 0
  %28 = tail call i8* @__cxa_begin_catch(i8* %27) #14
  %29 = icmp ugt i32** %19, %16
  br i1 %29, label %30, label %36

30:                                               ; preds = %25, %30
  %31 = phi i32** [ %34, %30 ], [ %16, %25 ]
  %32 = bitcast i32** %31 to i8**
  %33 = load i8*, i8** %32, align 8, !tbaa !31
  tail call void @_ZdlPv(i8* %33) #14
  %34 = getelementptr inbounds i32*, i32** %31, i64 1
  %35 = icmp ult i32** %34, %19
  br i1 %35, label %30, label %36, !llvm.loop !39

36:                                               ; preds = %30, %25
  invoke void @__cxa_rethrow() #15
          to label %42 unwind label %37

37:                                               ; preds = %36
  %38 = landingpad { i8*, i32 }
          catch i8* null
  invoke void @__cxa_end_catch()
          to label %43 unwind label %39

39:                                               ; preds = %37
  %40 = landingpad { i8*, i32 }
          catch i8* null
  %41 = extractvalue { i8*, i32 } %40, 0
  tail call void @__clang_call_terminate(i8* %41) #17
  unreachable

42:                                               ; preds = %36
  unreachable

43:                                               ; preds = %37
  %44 = extractvalue { i8*, i32 } %38, 0
  %45 = tail call i8* @__cxa_begin_catch(i8* %44) #14
  %46 = load i8*, i8** %12, align 8, !tbaa !27
  tail call void @_ZdlPv(i8* %46) #14
  %47 = bitcast %"class.std::_Deque_base"* %0 to i8*
  call void @llvm.memset.p0i8.i64(i8* noundef nonnull align 8 dereferenceable(16) %47, i8 0, i64 16, i1 false)
  invoke void @__cxa_rethrow() #15
          to label %70 unwind label %48

48:                                               ; preds = %43
  %49 = landingpad { i8*, i32 }
          cleanup
  invoke void @__cxa_end_catch()
          to label %50 unwind label %67

50:                                               ; preds = %48
  resume { i8*, i32 } %49

51:                                               ; preds = %21
  %52 = getelementptr inbounds %"class.std::_Deque_base", %"class.std::_Deque_base"* %0, i64 0, i32 0, i32 0, i32 2, i32 3
  store i32** %16, i32*** %52, align 8, !tbaa !23
  %53 = load i32*, i32** %16, align 8, !tbaa !31
  %54 = getelementptr inbounds %"class.std::_Deque_base", %"class.std::_Deque_base"* %0, i64 0, i32 0, i32 0, i32 2, i32 1
  store i32* %53, i32** %54, align 8, !tbaa !24
  %55 = getelementptr inbounds i32, i32* %53, i64 128
  %56 = getelementptr inbounds %"class.std::_Deque_base", %"class.std::_Deque_base"* %0, i64 0, i32 0, i32 0, i32 2, i32 2
  store i32* %55, i32** %56, align 8, !tbaa !25
  %57 = getelementptr inbounds i32*, i32** %17, i64 -1
  %58 = getelementptr inbounds %"class.std::_Deque_base", %"class.std::_Deque_base"* %0, i64 0, i32 0, i32 0, i32 3, i32 3
  store i32** %57, i32*** %58, align 8, !tbaa !23
  %59 = load i32*, i32** %57, align 8, !tbaa !31
  %60 = getelementptr inbounds %"class.std::_Deque_base", %"class.std::_Deque_base"* %0, i64 0, i32 0, i32 0, i32 3, i32 1
  store i32* %59, i32** %60, align 8, !tbaa !24
  %61 = getelementptr inbounds i32, i32* %59, i64 128
  %62 = getelementptr inbounds %"class.std::_Deque_base", %"class.std::_Deque_base"* %0, i64 0, i32 0, i32 0, i32 3, i32 2
  store i32* %61, i32** %62, align 8, !tbaa !25
  %63 = getelementptr inbounds %"class.std::_Deque_base", %"class.std::_Deque_base"* %0, i64 0, i32 0, i32 0, i32 2, i32 0
  store i32* %53, i32** %63, align 8, !tbaa !34
  %64 = and i64 %1, 127
  %65 = getelementptr inbounds i32, i32* %59, i64 %64
  %66 = getelementptr inbounds %"class.std::_Deque_base", %"class.std::_Deque_base"* %0, i64 0, i32 0, i32 0, i32 3, i32 0
  store i32* %65, i32** %66, align 8, !tbaa !19
  ret void

67:                                               ; preds = %48
  %68 = landingpad { i8*, i32 }
          catch i8* null
  %69 = extractvalue { i8*, i32 } %68, 0
  tail call void @__clang_call_terminate(i8* %69) #17
  unreachable

70:                                               ; preds = %43
  unreachable
}

declare void @__cxa_rethrow() local_unnamed_addr

declare void @__cxa_end_catch() local_unnamed_addr

; Function Attrs: noreturn
declare void @_ZSt28__throw_bad_array_new_lengthv() local_unnamed_addr #10

; Function Attrs: noreturn
declare void @_ZSt17__throw_bad_allocv() local_unnamed_addr #10

; Function Attrs: nobuiltin allocsize(0)
declare nonnull i8* @_Znwm(i64) local_unnamed_addr #11

; Function Attrs: mustprogress sspstrong uwtable
define linkonce_odr dso_local void @_ZNSt5dequeIiSaIiEE16_M_push_back_auxIJRKiEEEvDpOT_(%"class.std::deque"* nonnull align 8 dereferenceable(80) %0, i32* nonnull align 4 dereferenceable(4) %1) local_unnamed_addr #12 comdat align 2 personality i32 (...)* @__gxx_personality_v0 {
  %3 = getelementptr inbounds %"class.std::deque", %"class.std::deque"* %0, i64 0, i32 0, i32 0, i32 0, i32 3, i32 3
  %4 = load i32**, i32*** %3, align 8, !tbaa !23
  %5 = getelementptr inbounds %"class.std::deque", %"class.std::deque"* %0, i64 0, i32 0, i32 0, i32 0, i32 2, i32 3
  %6 = load i32**, i32*** %5, align 8, !tbaa !23
  %7 = ptrtoint i32** %4 to i64
  %8 = ptrtoint i32** %6 to i64
  %9 = sub i64 %7, %8
  %10 = ashr exact i64 %9, 3
  %11 = icmp ne i32** %4, null
  %12 = sext i1 %11 to i64
  %13 = add nsw i64 %10, %12
  %14 = shl nsw i64 %13, 7
  %15 = getelementptr inbounds %"class.std::deque", %"class.std::deque"* %0, i64 0, i32 0, i32 0, i32 0, i32 3, i32 0
  %16 = load i32*, i32** %15, align 8, !tbaa !9
  %17 = getelementptr inbounds %"class.std::deque", %"class.std::deque"* %0, i64 0, i32 0, i32 0, i32 0, i32 3, i32 1
  %18 = load i32*, i32** %17, align 8, !tbaa !24
  %19 = ptrtoint i32* %16 to i64
  %20 = ptrtoint i32* %18 to i64
  %21 = sub i64 %19, %20
  %22 = ashr exact i64 %21, 2
  %23 = add nsw i64 %14, %22
  %24 = getelementptr inbounds %"class.std::deque", %"class.std::deque"* %0, i64 0, i32 0, i32 0, i32 0, i32 2, i32 2
  %25 = load i32*, i32** %24, align 8, !tbaa !25
  %26 = getelementptr inbounds %"class.std::deque", %"class.std::deque"* %0, i64 0, i32 0, i32 0, i32 0, i32 2, i32 0
  %27 = load i32*, i32** %26, align 8, !tbaa !9
  %28 = ptrtoint i32* %25 to i64
  %29 = ptrtoint i32* %27 to i64
  %30 = sub i64 %28, %29
  %31 = ashr exact i64 %30, 2
  %32 = add nsw i64 %23, %31
  %33 = icmp eq i64 %32, 2305843009213693951
  br i1 %33, label %34, label %35

34:                                               ; preds = %2
  tail call void @_ZSt20__throw_length_errorPKc(i8* getelementptr inbounds ([48 x i8], [48 x i8]* @.str, i64 0, i64 0)) #15
  unreachable

35:                                               ; preds = %2
  %36 = getelementptr inbounds %"class.std::deque", %"class.std::deque"* %0, i64 0, i32 0, i32 0, i32 0, i32 1
  %37 = load i64, i64* %36, align 8, !tbaa !26
  %38 = getelementptr inbounds %"class.std::deque", %"class.std::deque"* %0, i64 0, i32 0, i32 0, i32 0, i32 0
  %39 = load i32**, i32*** %38, align 8, !tbaa !27
  %40 = ptrtoint i32** %39 to i64
  %41 = sub i64 %7, %40
  %42 = ashr exact i64 %41, 3
  %43 = sub i64 %37, %42
  %44 = icmp ult i64 %43, 2
  br i1 %44, label %45, label %46

45:                                               ; preds = %35
  tail call void @_ZNSt5dequeIiSaIiEE17_M_reallocate_mapEmb(%"class.std::deque"* nonnull align 8 dereferenceable(80) %0, i64 1, i1 zeroext false)
  br label %46

46:                                               ; preds = %35, %45
  %47 = tail call noalias nonnull i8* @_Znwm(i64 512) #16
  %48 = load i32**, i32*** %3, align 8, !tbaa !30
  %49 = getelementptr inbounds i32*, i32** %48, i64 1
  %50 = bitcast i32** %49 to i8**
  store i8* %47, i8** %50, align 8, !tbaa !31
  %51 = load i32*, i32** %15, align 8, !tbaa !19
  %52 = load i32, i32* %1, align 4, !tbaa !5
  store i32 %52, i32* %51, align 4, !tbaa !5
  %53 = load i32**, i32*** %3, align 8, !tbaa !30
  %54 = getelementptr inbounds i32*, i32** %53, i64 1
  store i32** %54, i32*** %3, align 8, !tbaa !23
  %55 = load i32*, i32** %54, align 8, !tbaa !31
  store i32* %55, i32** %17, align 8, !tbaa !24
  %56 = getelementptr inbounds i32, i32* %55, i64 128
  %57 = getelementptr inbounds %"class.std::deque", %"class.std::deque"* %0, i64 0, i32 0, i32 0, i32 0, i32 3, i32 2
  store i32* %56, i32** %57, align 8, !tbaa !25
  store i32* %55, i32** %15, align 8, !tbaa !19
  ret void
}

; Function Attrs: noreturn
declare void @_ZSt20__throw_length_errorPKc(i8*) local_unnamed_addr #10

; Function Attrs: sspstrong uwtable
define linkonce_odr dso_local void @_ZNSt5dequeIiSaIiEE17_M_reallocate_mapEmb(%"class.std::deque"* nonnull align 8 dereferenceable(80) %0, i64 %1, i1 zeroext %2) local_unnamed_addr #9 comdat align 2 personality i32 (...)* @__gxx_personality_v0 {
  %4 = getelementptr inbounds %"class.std::deque", %"class.std::deque"* %0, i64 0, i32 0, i32 0, i32 0, i32 3, i32 3
  %5 = load i32**, i32*** %4, align 8, !tbaa !30
  %6 = getelementptr inbounds %"class.std::deque", %"class.std::deque"* %0, i64 0, i32 0, i32 0, i32 0, i32 2, i32 3
  %7 = load i32**, i32*** %6, align 8, !tbaa !29
  %8 = ptrtoint i32** %5 to i64
  %9 = ptrtoint i32** %7 to i64
  %10 = sub i64 %8, %9
  %11 = ashr exact i64 %10, 3
  %12 = add nsw i64 %11, 1
  %13 = add i64 %12, %1
  %14 = getelementptr inbounds %"class.std::deque", %"class.std::deque"* %0, i64 0, i32 0, i32 0, i32 0, i32 1
  %15 = load i64, i64* %14, align 8, !tbaa !26
  %16 = shl i64 %13, 1
  %17 = icmp ugt i64 %15, %16
  br i1 %17, label %18, label %42

18:                                               ; preds = %3
  %19 = getelementptr inbounds %"class.std::deque", %"class.std::deque"* %0, i64 0, i32 0, i32 0, i32 0, i32 0
  %20 = load i32**, i32*** %19, align 8, !tbaa !27
  %21 = sub i64 %15, %13
  %22 = lshr i64 %21, 1
  %23 = select i1 %2, i64 %1, i64 0
  %24 = add nsw i64 %22, %23
  %25 = getelementptr inbounds i32*, i32** %20, i64 %24
  %26 = icmp ult i32** %25, %7
  %27 = getelementptr inbounds i32*, i32** %5, i64 1
  %28 = ptrtoint i32** %27 to i64
  %29 = sub i64 %28, %9
  %30 = icmp eq i64 %29, 0
  br i1 %26, label %31, label %35

31:                                               ; preds = %18
  br i1 %30, label %74, label %32

32:                                               ; preds = %31
  %33 = bitcast i32** %25 to i8*
  %34 = bitcast i32** %7 to i8*
  tail call void @llvm.memmove.p0i8.p0i8.i64(i8* align 8 %33, i8* nonnull align 8 %34, i64 %29, i1 false) #14
  br label %74

35:                                               ; preds = %18
  br i1 %30, label %74, label %36

36:                                               ; preds = %35
  %37 = ashr exact i64 %29, 3
  %38 = sub nsw i64 %12, %37
  %39 = getelementptr inbounds i32*, i32** %25, i64 %38
  %40 = bitcast i32** %39 to i8*
  %41 = bitcast i32** %7 to i8*
  tail call void @llvm.memmove.p0i8.p0i8.i64(i8* align 8 %40, i8* align 8 %41, i64 %29, i1 false) #14
  br label %74

42:                                               ; preds = %3
  %43 = icmp ult i64 %15, %1
  %44 = select i1 %43, i64 %1, i64 %15
  %45 = add i64 %15, 2
  %46 = add i64 %45, %44
  %47 = icmp ugt i64 %46, 1152921504606846975
  br i1 %47, label %48, label %52, !prof !28

48:                                               ; preds = %42
  %49 = icmp ugt i64 %46, 2305843009213693951
  br i1 %49, label %50, label %51

50:                                               ; preds = %48
  tail call void @_ZSt28__throw_bad_array_new_lengthv() #15
  unreachable

51:                                               ; preds = %48
  tail call void @_ZSt17__throw_bad_allocv() #15
  unreachable

52:                                               ; preds = %42
  %53 = shl nuw nsw i64 %46, 3
  %54 = tail call noalias nonnull i8* @_Znwm(i64 %53) #16
  %55 = bitcast i8* %54 to i32**
  %56 = sub i64 %46, %13
  %57 = lshr i64 %56, 1
  %58 = select i1 %2, i64 %1, i64 0
  %59 = add nsw i64 %57, %58
  %60 = getelementptr inbounds i32*, i32** %55, i64 %59
  %61 = load i32**, i32*** %6, align 8, !tbaa !29
  %62 = load i32**, i32*** %4, align 8, !tbaa !30
  %63 = getelementptr inbounds i32*, i32** %62, i64 1
  %64 = ptrtoint i32** %63 to i64
  %65 = ptrtoint i32** %61 to i64
  %66 = sub i64 %64, %65
  %67 = icmp eq i64 %66, 0
  br i1 %67, label %71, label %68

68:                                               ; preds = %52
  %69 = bitcast i32** %60 to i8*
  %70 = bitcast i32** %61 to i8*
  tail call void @llvm.memmove.p0i8.p0i8.i64(i8* nonnull align 8 %69, i8* align 8 %70, i64 %66, i1 false) #14
  br label %71

71:                                               ; preds = %52, %68
  %72 = bitcast %"class.std::deque"* %0 to i8**
  %73 = load i8*, i8** %72, align 8, !tbaa !27
  tail call void @_ZdlPv(i8* %73) #14
  store i8* %54, i8** %72, align 8, !tbaa !27
  store i64 %46, i64* %14, align 8, !tbaa !26
  br label %74

74:                                               ; preds = %32, %31, %36, %35, %71
  %75 = phi i32** [ %60, %71 ], [ %25, %35 ], [ %25, %36 ], [ %25, %31 ], [ %25, %32 ]
  store i32** %75, i32*** %6, align 8, !tbaa !23
  %76 = load i32*, i32** %75, align 8, !tbaa !31
  %77 = getelementptr inbounds %"class.std::deque", %"class.std::deque"* %0, i64 0, i32 0, i32 0, i32 0, i32 2, i32 1
  store i32* %76, i32** %77, align 8, !tbaa !24
  %78 = getelementptr inbounds i32, i32* %76, i64 128
  %79 = getelementptr inbounds %"class.std::deque", %"class.std::deque"* %0, i64 0, i32 0, i32 0, i32 0, i32 2, i32 2
  store i32* %78, i32** %79, align 8, !tbaa !25
  %80 = getelementptr inbounds i32*, i32** %75, i64 %11
  store i32** %80, i32*** %4, align 8, !tbaa !23
  %81 = load i32*, i32** %80, align 8, !tbaa !31
  %82 = getelementptr inbounds %"class.std::deque", %"class.std::deque"* %0, i64 0, i32 0, i32 0, i32 0, i32 3, i32 1
  store i32* %81, i32** %82, align 8, !tbaa !24
  %83 = getelementptr inbounds i32, i32* %81, i64 128
  %84 = getelementptr inbounds %"class.std::deque", %"class.std::deque"* %0, i64 0, i32 0, i32 0, i32 0, i32 3, i32 2
  store i32* %83, i32** %84, align 8, !tbaa !25
  ret void
}

; Function Attrs: argmemonly mustprogress nofree nounwind willreturn
declare void @llvm.memmove.p0i8.p0i8.i64(i8* nocapture writeonly, i8* nocapture readonly, i64, i1 immarg) #13

; Function Attrs: mustprogress sspstrong uwtable
define linkonce_odr dso_local void @_ZNSt5dequeIiSaIiEE16_M_push_back_auxIJiEEEvDpOT_(%"class.std::deque"* nonnull align 8 dereferenceable(80) %0, i32* nonnull align 4 dereferenceable(4) %1) local_unnamed_addr #12 comdat align 2 personality i32 (...)* @__gxx_personality_v0 {
  %3 = getelementptr inbounds %"class.std::deque", %"class.std::deque"* %0, i64 0, i32 0, i32 0, i32 0, i32 3, i32 3
  %4 = load i32**, i32*** %3, align 8, !tbaa !23
  %5 = getelementptr inbounds %"class.std::deque", %"class.std::deque"* %0, i64 0, i32 0, i32 0, i32 0, i32 2, i32 3
  %6 = load i32**, i32*** %5, align 8, !tbaa !23
  %7 = ptrtoint i32** %4 to i64
  %8 = ptrtoint i32** %6 to i64
  %9 = sub i64 %7, %8
  %10 = ashr exact i64 %9, 3
  %11 = icmp ne i32** %4, null
  %12 = sext i1 %11 to i64
  %13 = add nsw i64 %10, %12
  %14 = shl nsw i64 %13, 7
  %15 = getelementptr inbounds %"class.std::deque", %"class.std::deque"* %0, i64 0, i32 0, i32 0, i32 0, i32 3, i32 0
  %16 = load i32*, i32** %15, align 8, !tbaa !9
  %17 = getelementptr inbounds %"class.std::deque", %"class.std::deque"* %0, i64 0, i32 0, i32 0, i32 0, i32 3, i32 1
  %18 = load i32*, i32** %17, align 8, !tbaa !24
  %19 = ptrtoint i32* %16 to i64
  %20 = ptrtoint i32* %18 to i64
  %21 = sub i64 %19, %20
  %22 = ashr exact i64 %21, 2
  %23 = add nsw i64 %14, %22
  %24 = getelementptr inbounds %"class.std::deque", %"class.std::deque"* %0, i64 0, i32 0, i32 0, i32 0, i32 2, i32 2
  %25 = load i32*, i32** %24, align 8, !tbaa !25
  %26 = getelementptr inbounds %"class.std::deque", %"class.std::deque"* %0, i64 0, i32 0, i32 0, i32 0, i32 2, i32 0
  %27 = load i32*, i32** %26, align 8, !tbaa !9
  %28 = ptrtoint i32* %25 to i64
  %29 = ptrtoint i32* %27 to i64
  %30 = sub i64 %28, %29
  %31 = ashr exact i64 %30, 2
  %32 = add nsw i64 %23, %31
  %33 = icmp eq i64 %32, 2305843009213693951
  br i1 %33, label %34, label %35

34:                                               ; preds = %2
  tail call void @_ZSt20__throw_length_errorPKc(i8* getelementptr inbounds ([48 x i8], [48 x i8]* @.str, i64 0, i64 0)) #15
  unreachable

35:                                               ; preds = %2
  %36 = getelementptr inbounds %"class.std::deque", %"class.std::deque"* %0, i64 0, i32 0, i32 0, i32 0, i32 1
  %37 = load i64, i64* %36, align 8, !tbaa !26
  %38 = getelementptr inbounds %"class.std::deque", %"class.std::deque"* %0, i64 0, i32 0, i32 0, i32 0, i32 0
  %39 = load i32**, i32*** %38, align 8, !tbaa !27
  %40 = ptrtoint i32** %39 to i64
  %41 = sub i64 %7, %40
  %42 = ashr exact i64 %41, 3
  %43 = sub i64 %37, %42
  %44 = icmp ult i64 %43, 2
  br i1 %44, label %45, label %46

45:                                               ; preds = %35
  tail call void @_ZNSt5dequeIiSaIiEE17_M_reallocate_mapEmb(%"class.std::deque"* nonnull align 8 dereferenceable(80) %0, i64 1, i1 zeroext false)
  br label %46

46:                                               ; preds = %35, %45
  %47 = tail call noalias nonnull i8* @_Znwm(i64 512) #16
  %48 = load i32**, i32*** %3, align 8, !tbaa !30
  %49 = getelementptr inbounds i32*, i32** %48, i64 1
  %50 = bitcast i32** %49 to i8**
  store i8* %47, i8** %50, align 8, !tbaa !31
  %51 = load i32*, i32** %15, align 8, !tbaa !19
  %52 = load i32, i32* %1, align 4, !tbaa !5
  store i32 %52, i32* %51, align 4, !tbaa !5
  %53 = load i32**, i32*** %3, align 8, !tbaa !30
  %54 = getelementptr inbounds i32*, i32** %53, i64 1
  store i32** %54, i32*** %3, align 8, !tbaa !23
  %55 = load i32*, i32** %54, align 8, !tbaa !31
  store i32* %55, i32** %17, align 8, !tbaa !24
  %56 = getelementptr inbounds i32, i32* %55, i64 128
  %57 = getelementptr inbounds %"class.std::deque", %"class.std::deque"* %0, i64 0, i32 0, i32 0, i32 0, i32 3, i32 2
  store i32* %56, i32** %57, align 8, !tbaa !25
  store i32* %55, i32** %15, align 8, !tbaa !19
  ret void
}

declare nonnull align 8 dereferenceable(8) %"class.std::basic_ostream"* @_ZSt16__ostream_insertIcSt11char_traitsIcEERSt13basic_ostreamIT_T0_ES6_PKS3_l(%"class.std::basic_ostream"* nonnull align 8 dereferenceable(8), i8*, i64) local_unnamed_addr #0

declare nonnull align 8 dereferenceable(8) %"class.std::basic_ostream"* @_ZNSo3putEc(%"class.std::basic_ostream"* nonnull align 8 dereferenceable(8), i8 signext) local_unnamed_addr #0

declare nonnull align 8 dereferenceable(8) %"class.std::basic_ostream"* @_ZNSo5flushEv(%"class.std::basic_ostream"* nonnull align 8 dereferenceable(8)) local_unnamed_addr #0

; Function Attrs: noreturn
declare void @_ZSt16__throw_bad_castv() local_unnamed_addr #10

declare void @_ZNKSt5ctypeIcE13_M_widen_initEv(%"class.std::ctype"* nonnull align 8 dereferenceable(570)) local_unnamed_addr #0

; Function Attrs: sspstrong uwtable
define internal void @_GLOBAL__sub_I_s717504646.cpp() #9 section ".text.startup" {
  tail call void @_ZNSt8ios_base4InitC1Ev(%"class.std::ios_base::Init"* nonnull align 1 dereferenceable(1) @_ZStL8__ioinit)
  %1 = tail call i32 @__cxa_atexit(void (i8*)* bitcast (void (%"class.std::ios_base::Init"*)* @_ZNSt8ios_base4InitD1Ev to void (i8*)*), i8* getelementptr inbounds (%"class.std::ios_base::Init", %"class.std::ios_base::Init"* @_ZStL8__ioinit, i64 0, i32 0), i8* nonnull @__dso_handle) #14
  ret void
}

attributes #0 = { "frame-pointer"="none" "no-trapping-math"="true" "stack-protector-buffer-size"="8" "target-cpu"="x86-64" "target-features"="+cx8,+fxsr,+mmx,+sse,+sse2,+x87" "tune-cpu"="generic" }
attributes #1 = { nounwind "frame-pointer"="none" "no-trapping-math"="true" "stack-protector-buffer-size"="8" "target-cpu"="x86-64" "target-features"="+cx8,+fxsr,+mmx,+sse,+sse2,+x87" "tune-cpu"="generic" }
attributes #2 = { nofree nounwind }
attributes #3 = { norecurse sspstrong uwtable "frame-pointer"="none" "min-legal-vector-width"="0" "no-trapping-math"="true" "stack-protector-buffer-size"="8" "target-cpu"="x86-64" "target-features"="+cx8,+fxsr,+mmx,+sse,+sse2,+x87" "tune-cpu"="generic" }
attributes #4 = { argmemonly mustprogress nofree nosync nounwind willreturn }
attributes #5 = { inlinehint nounwind sspstrong uwtable "frame-pointer"="none" "min-legal-vector-width"="0" "no-trapping-math"="true" "stack-protector-buffer-size"="8" "target-cpu"="x86-64" "target-features"="+cx8,+fxsr,+mmx,+sse,+sse2,+x87" "tune-cpu"="generic" }
attributes #6 = { noinline noreturn nounwind }
attributes #7 = { nobuiltin nounwind "frame-pointer"="none" "no-trapping-math"="true" "stack-protector-buffer-size"="8" "target-cpu"="x86-64" "target-features"="+cx8,+fxsr,+mmx,+sse,+sse2,+x87" "tune-cpu"="generic" }
attributes #8 = { argmemonly mustprogress nofree nounwind willreturn writeonly }
attributes #9 = { sspstrong uwtable "frame-pointer"="none" "min-legal-vector-width"="0" "no-trapping-math"="true" "stack-protector-buffer-size"="8" "target-cpu"="x86-64" "target-features"="+cx8,+fxsr,+mmx,+sse,+sse2,+x87" "tune-cpu"="generic" }
attributes #10 = { noreturn "frame-pointer"="none" "no-trapping-math"="true" "stack-protector-buffer-size"="8" "target-cpu"="x86-64" "target-features"="+cx8,+fxsr,+mmx,+sse,+sse2,+x87" "tune-cpu"="generic" }
attributes #11 = { nobuiltin allocsize(0) "frame-pointer"="none" "no-trapping-math"="true" "stack-protector-buffer-size"="8" "target-cpu"="x86-64" "target-features"="+cx8,+fxsr,+mmx,+sse,+sse2,+x87" "tune-cpu"="generic" }
attributes #12 = { mustprogress sspstrong uwtable "frame-pointer"="none" "min-legal-vector-width"="0" "no-trapping-math"="true" "stack-protector-buffer-size"="8" "target-cpu"="x86-64" "target-features"="+cx8,+fxsr,+mmx,+sse,+sse2,+x87" "tune-cpu"="generic" }
attributes #13 = { argmemonly mustprogress nofree nounwind willreturn }
attributes #14 = { nounwind }
attributes #15 = { noreturn }
attributes #16 = { allocsize(0) }
attributes #17 = { noreturn nounwind }

!llvm.module.flags = !{!0, !1, !2, !3}
!llvm.ident = !{!4}

!0 = !{i32 1, !"wchar_size", i32 4}
!1 = !{i32 7, !"PIC Level", i32 2}
!2 = !{i32 7, !"PIE Level", i32 2}
!3 = !{i32 7, !"uwtable", i32 1}
!4 = !{!"clang version 13.0.0"}
!5 = !{!6, !6, i64 0}
!6 = !{!"int", !7, i64 0}
!7 = !{!"omnipotent char", !8, i64 0}
!8 = !{!"Simple C++ TBAA"}
!9 = !{!10, !11, i64 0}
!10 = !{!"_ZTSSt15_Deque_iteratorIiRiPiE", !11, i64 0, !11, i64 8, !11, i64 16, !11, i64 24}
!11 = !{!"any pointer", !7, i64 0}
!12 = !{!13}
!13 = distinct !{!13, !14, !"_ZNSt5dequeIiSaIiEE5beginEv: argument 0"}
!14 = distinct !{!14, !"_ZNSt5dequeIiSaIiEE5beginEv"}
!15 = distinct !{!15, !16, !17}
!16 = !{!"llvm.loop.mustprogress"}
!17 = !{!"llvm.loop.unswitch.partial.disable"}
!18 = !{!7, !7, i64 0}
!19 = !{!20, !11, i64 48}
!20 = !{!"_ZTSNSt11_Deque_baseIiSaIiEE16_Deque_impl_dataE", !11, i64 0, !21, i64 8, !10, i64 16, !10, i64 48}
!21 = !{!"long", !7, i64 0}
!22 = !{!20, !11, i64 64}
!23 = !{!10, !11, i64 24}
!24 = !{!10, !11, i64 8}
!25 = !{!10, !11, i64 16}
!26 = !{!20, !21, i64 8}
!27 = !{!20, !11, i64 0}
!28 = !{!"branch_weights", i32 1, i32 2000}
!29 = !{!20, !11, i64 40}
!30 = !{!20, !11, i64 72}
!31 = !{!11, !11, i64 0}
!32 = distinct !{!32, !16}
!33 = distinct !{!33, !16}
!34 = !{!20, !11, i64 16}
!35 = !{!20, !11, i64 32}
!36 = !{!20, !11, i64 24}
!37 = distinct !{!37, !16}
!38 = distinct !{!38, !16}
!39 = distinct !{!39, !16}
!40 = !{!41, !41, i64 0}
!41 = !{!"vtable pointer", !8, i64 0}
!42 = !{!43, !11, i64 240}
!43 = !{!"_ZTSSt9basic_iosIcSt11char_traitsIcEE", !11, i64 216, !7, i64 224, !44, i64 225, !11, i64 232, !11, i64 240, !11, i64 248, !11, i64 256}
!44 = !{!"bool", !7, i64 0}
!45 = !{!46, !7, i64 56}
!46 = !{!"_ZTSSt5ctypeIcE", !11, i64 16, !44, i64 24, !11, i64 32, !11, i64 40, !11, i64 48, !7, i64 56, !7, i64 57, !7, i64 313, !7, i64 569}
!47 = distinct !{!47, !16}
!48 = distinct !{!48, !16}
!49 = distinct !{!49, !16}
!50 = distinct !{!50, !16}
!51 = distinct !{!51, !16}
