; ModuleID = 'Project_CodeNet_C++1400/p03252/s603861416.cpp'
source_filename = "Project_CodeNet_C++1400/p03252/s603861416.cpp"
target datalayout = "e-m:e-p270:32:32-p271:32:32-p272:64:64-i64:64-f80:128-n8:16:32:64-S128"
target triple = "x86_64-pc-linux-gnu"

%"class.std::ios_base::Init" = type { i8 }
%"class.std::basic_istream" = type { i32 (...)**, i64, %"class.std::basic_ios" }
%"class.std::basic_ios" = type { %"class.std::ios_base", %"class.std::basic_ostream"*, i8, i8, %"class.std::basic_streambuf"*, %"class.std::ctype"*, %"class.std::num_put"*, %"class.std::num_get"* }
%"class.std::ios_base" = type { i32 (...)**, i64, i64, i32, i32, i32, %"struct.std::ios_base::_Callback_list"*, %"struct.std::ios_base::_Words", [8 x %"struct.std::ios_base::_Words"], i32, %"struct.std::ios_base::_Words"*, %"class.std::locale" }
%"struct.std::ios_base::_Callback_list" = type { %"struct.std::ios_base::_Callback_list"*, void (i32, %"class.std::ios_base"*, i32)*, i32, i32 }
%"struct.std::ios_base::_Words" = type { i8*, i64 }
%"class.std::locale" = type { %"class.std::locale::_Impl"* }
%"class.std::locale::_Impl" = type { i32, %"class.std::locale::facet"**, i64, %"class.std::locale::facet"**, i8** }
%"class.std::locale::facet" = type <{ i32 (...)**, i32, [4 x i8] }>
%"class.std::basic_ostream" = type { i32 (...)**, %"class.std::basic_ios" }
%"class.std::basic_streambuf" = type { i32 (...)**, i8*, i8*, i8*, i8*, i8*, i8*, %"class.std::locale" }
%"class.std::ctype" = type <{ %"class.std::locale::facet.base", [4 x i8], %struct.__locale_struct*, i8, [7 x i8], i32*, i32*, i16*, i8, [256 x i8], [256 x i8], i8, [6 x i8] }>
%"class.std::locale::facet.base" = type <{ i32 (...)**, i32 }>
%struct.__locale_struct = type { [13 x %struct.__locale_data*], i16*, i32*, i32*, [13 x i8*] }
%struct.__locale_data = type opaque
%"class.std::num_put" = type { %"class.std::locale::facet.base", [4 x i8] }
%"class.std::num_get" = type { %"class.std::locale::facet.base", [4 x i8] }
%"struct.std::piecewise_construct_t" = type { i8 }
%"class.std::tuple" = type { %"struct.std::_Tuple_impl" }
%"struct.std::_Tuple_impl" = type { %"struct.std::_Head_base" }
%"struct.std::_Head_base" = type { i8* }
%"class.std::tuple.14" = type { i8 }
%"class.std::__cxx11::basic_string" = type { %"struct.std::__cxx11::basic_string<char>::_Alloc_hider", i64, %union.anon }
%"struct.std::__cxx11::basic_string<char>::_Alloc_hider" = type { i8* }
%union.anon = type { i64, [8 x i8] }
%"class.std::map" = type { %"class.std::_Rb_tree" }
%"class.std::_Rb_tree" = type { %"struct.std::_Rb_tree<char, std::pair<const char, char>, std::_Select1st<std::pair<const char, char>>, std::less<char>>::_Rb_tree_impl" }
%"struct.std::_Rb_tree<char, std::pair<const char, char>, std::_Select1st<std::pair<const char, char>>, std::less<char>>::_Rb_tree_impl" = type { %"struct.std::_Rb_tree_key_compare", %"struct.std::_Rb_tree_header" }
%"struct.std::_Rb_tree_key_compare" = type { %"struct.std::less" }
%"struct.std::less" = type { i8 }
%"struct.std::_Rb_tree_header" = type { %"struct.std::_Rb_tree_node_base", i64 }
%"struct.std::_Rb_tree_node_base" = type { i32, %"struct.std::_Rb_tree_node_base"*, %"struct.std::_Rb_tree_node_base"*, %"struct.std::_Rb_tree_node_base"* }
%"class.std::set" = type { %"class.std::_Rb_tree.3" }
%"class.std::_Rb_tree.3" = type { %"struct.std::_Rb_tree<char, char, std::_Identity<char>, std::less<char>>::_Rb_tree_impl" }
%"struct.std::_Rb_tree<char, char, std::_Identity<char>, std::less<char>>::_Rb_tree_impl" = type { %"struct.std::_Rb_tree_key_compare", %"struct.std::_Rb_tree_header" }
%"struct.std::_Rb_tree_node.7" = type <{ %"struct.std::_Rb_tree_node_base", %"struct.__gnu_cxx::__aligned_membuf.8", [6 x i8] }>
%"struct.__gnu_cxx::__aligned_membuf.8" = type { [2 x i8] }
%"struct.std::_Rb_tree_node" = type <{ %"struct.std::_Rb_tree_node_base", %"struct.__gnu_cxx::__aligned_membuf", [7 x i8] }>
%"struct.__gnu_cxx::__aligned_membuf" = type { [1 x i8] }
%"struct.std::pair.10" = type { i8, i8 }

$__clang_call_terminate = comdat any

$_ZNSt8_Rb_treeIccSt9_IdentityIcESt4lessIcESaIcEED2Ev = comdat any

$_ZNSt8_Rb_treeIccSt9_IdentityIcESt4lessIcESaIcEE8_M_eraseEPSt13_Rb_tree_nodeIcE = comdat any

$_ZNSt8_Rb_treeIcSt4pairIKccESt10_Select1stIS2_ESt4lessIcESaIS2_EED2Ev = comdat any

$_ZNSt8_Rb_treeIcSt4pairIKccESt10_Select1stIS2_ESt4lessIcESaIS2_EE8_M_eraseEPSt13_Rb_tree_nodeIS2_E = comdat any

$_ZNSt8_Rb_treeIcSt4pairIKccESt10_Select1stIS2_ESt4lessIcESaIS2_EE22_M_emplace_hint_uniqueIJRKSt21piecewise_construct_tSt5tupleIJRS1_EESD_IJEEEEESt17_Rb_tree_iteratorIS2_ESt23_Rb_tree_const_iteratorIS2_EDpOT_ = comdat any

$_ZNSt8_Rb_treeIcSt4pairIKccESt10_Select1stIS2_ESt4lessIcESaIS2_EE29_M_get_insert_hint_unique_posESt23_Rb_tree_const_iteratorIS2_ERS1_ = comdat any

@_ZStL8__ioinit = internal global %"class.std::ios_base::Init" zeroinitializer, align 1
@__dso_handle = external hidden global i8
@_ZL2PI = internal global double 0.000000e+00, align 8
@_ZSt3cin = external global %"class.std::basic_istream", align 8
@_ZSt4cout = external global %"class.std::basic_ostream", align 8
@.str = private unnamed_addr constant [4 x i8] c"Yes\00", align 1
@.str.2 = private unnamed_addr constant [3 x i8] c"No\00", align 1
@_ZStL19piecewise_construct = internal constant %"struct.std::piecewise_construct_t" undef, align 1
@llvm.global_ctors = appending global [1 x { i32, void ()*, i8* }] [{ i32, void ()*, i8* } { i32 65535, void ()* @_GLOBAL__sub_I_s603861416.cpp, i8* null }]

declare void @_ZNSt8ios_base4InitC1Ev(%"class.std::ios_base::Init"* nonnull align 1 dereferenceable(1)) unnamed_addr #0

; Function Attrs: nounwind
declare void @_ZNSt8ios_base4InitD1Ev(%"class.std::ios_base::Init"* nonnull align 1 dereferenceable(1)) unnamed_addr #1

; Function Attrs: nofree nounwind
declare i32 @__cxa_atexit(void (i8*)*, i8*, i8*) local_unnamed_addr #2

; Function Attrs: argmemonly mustprogress nofree nosync nounwind willreturn
declare {}* @llvm.invariant.start.p0i8(i64 immarg, i8* nocapture) #3

; Function Attrs: norecurse sspstrong uwtable
define dso_local i32 @main() local_unnamed_addr #4 personality i8* bitcast (i32 (...)* @__gxx_personality_v0 to i8*) {
  %1 = alloca %"class.std::tuple", align 8
  %2 = alloca %"class.std::tuple.14", align 1
  %3 = alloca %"class.std::tuple", align 8
  %4 = alloca %"class.std::tuple.14", align 1
  %5 = alloca %"class.std::tuple", align 8
  %6 = alloca %"class.std::tuple.14", align 1
  %7 = alloca %"class.std::__cxx11::basic_string", align 8
  %8 = alloca %"class.std::__cxx11::basic_string", align 8
  %9 = alloca %"class.std::map", align 8
  %10 = alloca %"class.std::set", align 8
  %11 = bitcast %"class.std::__cxx11::basic_string"* %7 to i8*
  call void @llvm.lifetime.start.p0i8(i64 32, i8* nonnull %11) #13
  %12 = getelementptr inbounds %"class.std::__cxx11::basic_string", %"class.std::__cxx11::basic_string"* %7, i64 0, i32 2
  %13 = bitcast %"class.std::__cxx11::basic_string"* %7 to %union.anon**
  store %union.anon* %12, %union.anon** %13, align 8, !tbaa !5
  %14 = getelementptr inbounds %"class.std::__cxx11::basic_string", %"class.std::__cxx11::basic_string"* %7, i64 0, i32 1
  store i64 0, i64* %14, align 8, !tbaa !10
  %15 = bitcast %union.anon* %12 to i8*
  store i8 0, i8* %15, align 8, !tbaa !13
  %16 = bitcast %"class.std::__cxx11::basic_string"* %8 to i8*
  call void @llvm.lifetime.start.p0i8(i64 32, i8* nonnull %16) #13
  %17 = getelementptr inbounds %"class.std::__cxx11::basic_string", %"class.std::__cxx11::basic_string"* %8, i64 0, i32 2
  %18 = bitcast %"class.std::__cxx11::basic_string"* %8 to %union.anon**
  store %union.anon* %17, %union.anon** %18, align 8, !tbaa !5
  %19 = getelementptr inbounds %"class.std::__cxx11::basic_string", %"class.std::__cxx11::basic_string"* %8, i64 0, i32 1
  store i64 0, i64* %19, align 8, !tbaa !10
  %20 = bitcast %union.anon* %17 to i8*
  store i8 0, i8* %20, align 8, !tbaa !13
  %21 = invoke nonnull align 8 dereferenceable(16) %"class.std::basic_istream"* @_ZStrsIcSt11char_traitsIcESaIcEERSt13basic_istreamIT_T0_ES7_RNSt7__cxx1112basic_stringIS4_S5_T1_EE(%"class.std::basic_istream"* nonnull align 8 dereferenceable(16) @_ZSt3cin, %"class.std::__cxx11::basic_string"* nonnull align 8 dereferenceable(32) %7)
          to label %22 unwind label %75

22:                                               ; preds = %0
  %23 = invoke nonnull align 8 dereferenceable(16) %"class.std::basic_istream"* @_ZStrsIcSt11char_traitsIcESaIcEERSt13basic_istreamIT_T0_ES7_RNSt7__cxx1112basic_stringIS4_S5_T1_EE(%"class.std::basic_istream"* nonnull align 8 dereferenceable(16) %21, %"class.std::__cxx11::basic_string"* nonnull align 8 dereferenceable(32) %8)
          to label %24 unwind label %75

24:                                               ; preds = %22
  %25 = getelementptr inbounds %"class.std::map", %"class.std::map"* %9, i64 0, i32 0, i32 0, i32 0, i32 0, i32 0
  call void @llvm.lifetime.start.p0i8(i64 48, i8* nonnull %25) #13
  %26 = getelementptr inbounds i8, i8* %25, i64 8
  %27 = bitcast i8* %26 to i32*
  store i32 0, i32* %27, align 8, !tbaa !14
  %28 = getelementptr inbounds i8, i8* %25, i64 16
  %29 = bitcast i8* %28 to %"struct.std::_Rb_tree_node_base"**
  store %"struct.std::_Rb_tree_node_base"* null, %"struct.std::_Rb_tree_node_base"** %29, align 8, !tbaa !18
  %30 = getelementptr inbounds i8, i8* %25, i64 24
  %31 = bitcast i8* %30 to i8**
  store i8* %26, i8** %31, align 8, !tbaa !19
  %32 = getelementptr inbounds i8, i8* %25, i64 32
  %33 = bitcast i8* %32 to i8**
  store i8* %26, i8** %33, align 8, !tbaa !20
  %34 = getelementptr inbounds i8, i8* %25, i64 40
  %35 = bitcast i8* %34 to i64*
  store i64 0, i64* %35, align 8, !tbaa !21
  %36 = getelementptr inbounds %"class.std::set", %"class.std::set"* %10, i64 0, i32 0, i32 0, i32 0, i32 0, i32 0
  call void @llvm.lifetime.start.p0i8(i64 48, i8* nonnull %36) #13
  %37 = getelementptr inbounds i8, i8* %36, i64 8
  %38 = bitcast i8* %37 to i32*
  store i32 0, i32* %38, align 8, !tbaa !14
  %39 = getelementptr inbounds i8, i8* %36, i64 16
  %40 = bitcast i8* %39 to %"struct.std::_Rb_tree_node_base"**
  store %"struct.std::_Rb_tree_node_base"* null, %"struct.std::_Rb_tree_node_base"** %40, align 8, !tbaa !18
  %41 = getelementptr inbounds i8, i8* %36, i64 24
  %42 = bitcast i8* %41 to i8**
  store i8* %37, i8** %42, align 8, !tbaa !19
  %43 = getelementptr inbounds i8, i8* %36, i64 32
  %44 = bitcast i8* %43 to i8**
  store i8* %37, i8** %44, align 8, !tbaa !20
  %45 = getelementptr inbounds i8, i8* %36, i64 40
  %46 = bitcast i8* %45 to i64*
  store i64 0, i64* %46, align 8, !tbaa !21
  %47 = load i64, i64* %14, align 8, !tbaa !10
  %48 = trunc i64 %47 to i32
  %49 = getelementptr inbounds %"class.std::__cxx11::basic_string", %"class.std::__cxx11::basic_string"* %8, i64 0, i32 0, i32 0
  %50 = getelementptr inbounds %"class.std::__cxx11::basic_string", %"class.std::__cxx11::basic_string"* %7, i64 0, i32 0, i32 0
  %51 = bitcast i8* %28 to %"struct.std::_Rb_tree_node.7"**
  %52 = bitcast i8* %26 to %"struct.std::_Rb_tree_node_base"*
  %53 = getelementptr inbounds %"class.std::map", %"class.std::map"* %9, i64 0, i32 0
  %54 = bitcast %"class.std::tuple"* %5 to i8*
  %55 = getelementptr inbounds %"class.std::tuple", %"class.std::tuple"* %5, i64 0, i32 0, i32 0, i32 0
  %56 = getelementptr inbounds %"class.std::tuple.14", %"class.std::tuple.14"* %6, i64 0, i32 0
  %57 = icmp sgt i32 %48, 0
  br i1 %57, label %58, label %124

58:                                               ; preds = %24
  %59 = and i64 %47, 4294967295
  br label %77

60:                                               ; preds = %113
  %61 = load i64, i64* %14, align 8, !tbaa !10
  %62 = trunc i64 %61 to i32
  %63 = bitcast %"class.std::tuple"* %3 to i8*
  %64 = getelementptr inbounds %"class.std::tuple", %"class.std::tuple"* %3, i64 0, i32 0, i32 0, i32 0
  %65 = getelementptr inbounds %"class.std::tuple.14", %"class.std::tuple.14"* %4, i64 0, i32 0
  %66 = bitcast %"class.std::tuple"* %1 to i8*
  %67 = getelementptr inbounds %"class.std::tuple", %"class.std::tuple"* %1, i64 0, i32 0, i32 0, i32 0
  %68 = getelementptr inbounds %"class.std::tuple.14", %"class.std::tuple.14"* %2, i64 0, i32 0
  %69 = bitcast i8* %39 to %"struct.std::_Rb_tree_node"**
  %70 = bitcast i8* %37 to %"struct.std::_Rb_tree_node_base"*
  %71 = bitcast i8* %41 to %"struct.std::_Rb_tree_node_base"**
  %72 = icmp sgt i32 %62, 0
  br i1 %72, label %73, label %124

73:                                               ; preds = %60
  %74 = and i64 %61, 4294967295
  br label %136

75:                                               ; preds = %22, %0
  %76 = landingpad { i8*, i32 }
          cleanup
  br label %333

77:                                               ; preds = %120, %58
  %78 = phi %"struct.std::_Rb_tree_node.7"* [ null, %58 ], [ %121, %120 ]
  %79 = phi i64 [ 0, %58 ], [ %118, %120 ]
  %80 = load i8*, i8** %49, align 8, !tbaa !22
  %81 = getelementptr inbounds i8, i8* %80, i64 %79
  %82 = load i8, i8* %81, align 1, !tbaa !13
  %83 = load i8*, i8** %50, align 8, !tbaa !22
  %84 = getelementptr inbounds i8, i8* %83, i64 %79
  %85 = load i8, i8* %84, align 1
  %86 = icmp eq %"struct.std::_Rb_tree_node.7"* %78, null
  br i1 %86, label %109, label %87

87:                                               ; preds = %77, %87
  %88 = phi %"struct.std::_Rb_tree_node.7"* [ %99, %87 ], [ %78, %77 ]
  %89 = phi %"struct.std::_Rb_tree_node_base"* [ %96, %87 ], [ %52, %77 ]
  %90 = getelementptr inbounds %"struct.std::_Rb_tree_node.7", %"struct.std::_Rb_tree_node.7"* %88, i64 0, i32 1, i32 0, i64 0
  %91 = load i8, i8* %90, align 1, !tbaa !13
  %92 = icmp slt i8 %91, %85
  %93 = getelementptr inbounds %"struct.std::_Rb_tree_node.7", %"struct.std::_Rb_tree_node.7"* %88, i64 0, i32 0, i32 3
  %94 = getelementptr %"struct.std::_Rb_tree_node.7", %"struct.std::_Rb_tree_node.7"* %88, i64 0, i32 0
  %95 = getelementptr inbounds %"struct.std::_Rb_tree_node.7", %"struct.std::_Rb_tree_node.7"* %88, i64 0, i32 0, i32 2
  %96 = select i1 %92, %"struct.std::_Rb_tree_node_base"* %89, %"struct.std::_Rb_tree_node_base"* %94
  %97 = select i1 %92, %"struct.std::_Rb_tree_node_base"** %93, %"struct.std::_Rb_tree_node_base"** %95
  %98 = bitcast %"struct.std::_Rb_tree_node_base"** %97 to %"struct.std::_Rb_tree_node.7"**
  %99 = load %"struct.std::_Rb_tree_node.7"*, %"struct.std::_Rb_tree_node.7"** %98, align 8, !tbaa !23
  %100 = icmp eq %"struct.std::_Rb_tree_node.7"* %99, null
  br i1 %100, label %101, label %87, !llvm.loop !24

101:                                              ; preds = %87
  %102 = icmp eq %"struct.std::_Rb_tree_node_base"* %96, %52
  br i1 %102, label %109, label %103

103:                                              ; preds = %101
  %104 = select i1 %92, %"struct.std::_Rb_tree_node_base"* %89, %"struct.std::_Rb_tree_node_base"* %94
  %105 = getelementptr inbounds %"struct.std::_Rb_tree_node_base", %"struct.std::_Rb_tree_node_base"* %104, i64 1
  %106 = bitcast %"struct.std::_Rb_tree_node_base"* %105 to i8*
  %107 = load i8, i8* %106, align 1, !tbaa !13
  %108 = icmp slt i8 %85, %107
  br i1 %108, label %109, label %113

109:                                              ; preds = %103, %101, %77
  %110 = phi %"struct.std::_Rb_tree_node_base"* [ %96, %103 ], [ %52, %101 ], [ %52, %77 ]
  call void @llvm.lifetime.start.p0i8(i64 8, i8* nonnull %54) #13
  store i8* %84, i8** %55, align 8, !tbaa !23
  call void @llvm.lifetime.start.p0i8(i64 1, i8* nonnull %56) #13
  %111 = invoke %"struct.std::_Rb_tree_node_base"* @_ZNSt8_Rb_treeIcSt4pairIKccESt10_Select1stIS2_ESt4lessIcESaIS2_EE22_M_emplace_hint_uniqueIJRKSt21piecewise_construct_tSt5tupleIJRS1_EESD_IJEEEEESt17_Rb_tree_iteratorIS2_ESt23_Rb_tree_const_iteratorIS2_EDpOT_(%"class.std::_Rb_tree"* nonnull align 8 dereferenceable(48) %53, %"struct.std::_Rb_tree_node_base"* %110, %"struct.std::piecewise_construct_t"* nonnull align 1 dereferenceable(1) @_ZStL19piecewise_construct, %"class.std::tuple"* nonnull align 8 dereferenceable(8) %5, %"class.std::tuple.14"* nonnull align 1 dereferenceable(1) %6)
          to label %112 unwind label %122

112:                                              ; preds = %109
  call void @llvm.lifetime.end.p0i8(i64 1, i8* nonnull %56) #13
  call void @llvm.lifetime.end.p0i8(i64 8, i8* nonnull %54) #13
  br label %113

113:                                              ; preds = %112, %103
  %114 = phi %"struct.std::_Rb_tree_node_base"* [ %111, %112 ], [ %96, %103 ]
  %115 = getelementptr inbounds %"struct.std::_Rb_tree_node_base", %"struct.std::_Rb_tree_node_base"* %114, i64 1
  %116 = bitcast %"struct.std::_Rb_tree_node_base"* %115 to %"struct.std::pair.10"*
  %117 = getelementptr inbounds %"struct.std::pair.10", %"struct.std::pair.10"* %116, i64 0, i32 1
  store i8 %82, i8* %117, align 1, !tbaa !13
  %118 = add nuw nsw i64 %79, 1
  %119 = icmp eq i64 %118, %59
  br i1 %119, label %60, label %120, !llvm.loop !26

120:                                              ; preds = %113
  %121 = load %"struct.std::_Rb_tree_node.7"*, %"struct.std::_Rb_tree_node.7"** %51, align 8, !tbaa !18
  br label %77

122:                                              ; preds = %109
  %123 = landingpad { i8*, i32 }
          cleanup
  br label %330

124:                                              ; preds = %272, %24, %60
  %125 = phi i32 [ 1, %60 ], [ 1, %24 ], [ %188, %272 ]
  %126 = bitcast i8* %39 to %"struct.std::_Rb_tree_node"**
  %127 = load i64, i64* %46, align 8, !tbaa !21
  %128 = load i64, i64* %35, align 8, !tbaa !21
  %129 = icmp eq i64 %127, %128
  %130 = zext i1 %129 to i32
  %131 = and i32 %125, %130
  %132 = icmp eq i32 %131, 0
  %133 = select i1 %132, i8* getelementptr inbounds ([3 x i8], [3 x i8]* @.str.2, i64 0, i64 0), i8* getelementptr inbounds ([4 x i8], [4 x i8]* @.str, i64 0, i64 0)
  %134 = select i1 %132, i64 2, i64 3
  %135 = invoke nonnull align 8 dereferenceable(8) %"class.std::basic_ostream"* @_ZSt16__ostream_insertIcSt11char_traitsIcEERSt13basic_ostreamIT_T0_ES6_PKS3_l(%"class.std::basic_ostream"* nonnull align 8 dereferenceable(8) @_ZSt4cout, i8* nonnull %133, i64 %134)
          to label %277 unwind label %328

136:                                              ; preds = %73, %272
  %137 = phi i64 [ 0, %73 ], [ %273, %272 ]
  %138 = phi i32 [ 1, %73 ], [ %188, %272 ]
  %139 = load i8*, i8** %50, align 8, !tbaa !22
  %140 = getelementptr inbounds i8, i8* %139, i64 %137
  %141 = load %"struct.std::_Rb_tree_node.7"*, %"struct.std::_Rb_tree_node.7"** %51, align 8, !tbaa !18
  %142 = load i8, i8* %140, align 1
  %143 = icmp eq %"struct.std::_Rb_tree_node.7"* %141, null
  br i1 %143, label %166, label %144

144:                                              ; preds = %136, %144
  %145 = phi %"struct.std::_Rb_tree_node.7"* [ %156, %144 ], [ %141, %136 ]
  %146 = phi %"struct.std::_Rb_tree_node_base"* [ %153, %144 ], [ %52, %136 ]
  %147 = getelementptr inbounds %"struct.std::_Rb_tree_node.7", %"struct.std::_Rb_tree_node.7"* %145, i64 0, i32 1, i32 0, i64 0
  %148 = load i8, i8* %147, align 1, !tbaa !13
  %149 = icmp slt i8 %148, %142
  %150 = getelementptr inbounds %"struct.std::_Rb_tree_node.7", %"struct.std::_Rb_tree_node.7"* %145, i64 0, i32 0, i32 3
  %151 = getelementptr %"struct.std::_Rb_tree_node.7", %"struct.std::_Rb_tree_node.7"* %145, i64 0, i32 0
  %152 = getelementptr inbounds %"struct.std::_Rb_tree_node.7", %"struct.std::_Rb_tree_node.7"* %145, i64 0, i32 0, i32 2
  %153 = select i1 %149, %"struct.std::_Rb_tree_node_base"* %146, %"struct.std::_Rb_tree_node_base"* %151
  %154 = select i1 %149, %"struct.std::_Rb_tree_node_base"** %150, %"struct.std::_Rb_tree_node_base"** %152
  %155 = bitcast %"struct.std::_Rb_tree_node_base"** %154 to %"struct.std::_Rb_tree_node.7"**
  %156 = load %"struct.std::_Rb_tree_node.7"*, %"struct.std::_Rb_tree_node.7"** %155, align 8, !tbaa !23
  %157 = icmp eq %"struct.std::_Rb_tree_node.7"* %156, null
  br i1 %157, label %158, label %144, !llvm.loop !24

158:                                              ; preds = %144
  %159 = icmp eq %"struct.std::_Rb_tree_node_base"* %153, %52
  br i1 %159, label %166, label %160

160:                                              ; preds = %158
  %161 = select i1 %149, %"struct.std::_Rb_tree_node_base"* %146, %"struct.std::_Rb_tree_node_base"* %151
  %162 = getelementptr inbounds %"struct.std::_Rb_tree_node_base", %"struct.std::_Rb_tree_node_base"* %161, i64 1
  %163 = bitcast %"struct.std::_Rb_tree_node_base"* %162 to i8*
  %164 = load i8, i8* %163, align 1, !tbaa !13
  %165 = icmp slt i8 %142, %164
  br i1 %165, label %166, label %174

166:                                              ; preds = %160, %158, %136
  %167 = phi %"struct.std::_Rb_tree_node_base"* [ %153, %160 ], [ %52, %158 ], [ %52, %136 ]
  call void @llvm.lifetime.start.p0i8(i64 8, i8* nonnull %63) #13
  store i8* %140, i8** %64, align 8, !tbaa !23
  call void @llvm.lifetime.start.p0i8(i64 1, i8* nonnull %65) #13
  %168 = invoke %"struct.std::_Rb_tree_node_base"* @_ZNSt8_Rb_treeIcSt4pairIKccESt10_Select1stIS2_ESt4lessIcESaIS2_EE22_M_emplace_hint_uniqueIJRKSt21piecewise_construct_tSt5tupleIJRS1_EESD_IJEEEEESt17_Rb_tree_iteratorIS2_ESt23_Rb_tree_const_iteratorIS2_EDpOT_(%"class.std::_Rb_tree"* nonnull align 8 dereferenceable(48) %53, %"struct.std::_Rb_tree_node_base"* %167, %"struct.std::piecewise_construct_t"* nonnull align 1 dereferenceable(1) @_ZStL19piecewise_construct, %"class.std::tuple"* nonnull align 8 dereferenceable(8) %3, %"class.std::tuple.14"* nonnull align 1 dereferenceable(1) %4)
          to label %169 unwind label %275

169:                                              ; preds = %166
  call void @llvm.lifetime.end.p0i8(i64 1, i8* nonnull %65) #13
  call void @llvm.lifetime.end.p0i8(i64 8, i8* nonnull %63) #13
  %170 = load i8*, i8** %50, align 8, !tbaa !22
  %171 = load %"struct.std::_Rb_tree_node.7"*, %"struct.std::_Rb_tree_node.7"** %51, align 8, !tbaa !18
  %172 = getelementptr inbounds i8, i8* %170, i64 %137
  %173 = load i8, i8* %172, align 1
  br label %174

174:                                              ; preds = %169, %160
  %175 = phi i8 [ %173, %169 ], [ %142, %160 ]
  %176 = phi %"struct.std::_Rb_tree_node.7"* [ %171, %169 ], [ %141, %160 ]
  %177 = phi i8* [ %170, %169 ], [ %139, %160 ]
  %178 = phi %"struct.std::_Rb_tree_node_base"* [ %168, %169 ], [ %153, %160 ]
  %179 = getelementptr inbounds %"struct.std::_Rb_tree_node_base", %"struct.std::_Rb_tree_node_base"* %178, i64 1
  %180 = bitcast %"struct.std::_Rb_tree_node_base"* %179 to %"struct.std::pair.10"*
  %181 = getelementptr inbounds %"struct.std::pair.10", %"struct.std::pair.10"* %180, i64 0, i32 1
  %182 = load i8, i8* %181, align 1, !tbaa !13
  %183 = load i8*, i8** %49, align 8, !tbaa !22
  %184 = getelementptr inbounds i8, i8* %183, i64 %137
  %185 = load i8, i8* %184, align 1, !tbaa !13
  %186 = icmp eq i8 %182, %185
  %187 = zext i1 %186 to i32
  %188 = and i32 %138, %187
  %189 = getelementptr inbounds i8, i8* %177, i64 %137
  %190 = icmp eq %"struct.std::_Rb_tree_node.7"* %176, null
  br i1 %190, label %213, label %191

191:                                              ; preds = %174, %191
  %192 = phi %"struct.std::_Rb_tree_node.7"* [ %203, %191 ], [ %176, %174 ]
  %193 = phi %"struct.std::_Rb_tree_node_base"* [ %200, %191 ], [ %52, %174 ]
  %194 = getelementptr inbounds %"struct.std::_Rb_tree_node.7", %"struct.std::_Rb_tree_node.7"* %192, i64 0, i32 1, i32 0, i64 0
  %195 = load i8, i8* %194, align 1, !tbaa !13
  %196 = icmp slt i8 %195, %175
  %197 = getelementptr inbounds %"struct.std::_Rb_tree_node.7", %"struct.std::_Rb_tree_node.7"* %192, i64 0, i32 0, i32 3
  %198 = getelementptr %"struct.std::_Rb_tree_node.7", %"struct.std::_Rb_tree_node.7"* %192, i64 0, i32 0
  %199 = getelementptr inbounds %"struct.std::_Rb_tree_node.7", %"struct.std::_Rb_tree_node.7"* %192, i64 0, i32 0, i32 2
  %200 = select i1 %196, %"struct.std::_Rb_tree_node_base"* %193, %"struct.std::_Rb_tree_node_base"* %198
  %201 = select i1 %196, %"struct.std::_Rb_tree_node_base"** %197, %"struct.std::_Rb_tree_node_base"** %199
  %202 = bitcast %"struct.std::_Rb_tree_node_base"** %201 to %"struct.std::_Rb_tree_node.7"**
  %203 = load %"struct.std::_Rb_tree_node.7"*, %"struct.std::_Rb_tree_node.7"** %202, align 8, !tbaa !23
  %204 = icmp eq %"struct.std::_Rb_tree_node.7"* %203, null
  br i1 %204, label %205, label %191, !llvm.loop !24

205:                                              ; preds = %191
  %206 = icmp eq %"struct.std::_Rb_tree_node_base"* %200, %52
  br i1 %206, label %213, label %207

207:                                              ; preds = %205
  %208 = select i1 %196, %"struct.std::_Rb_tree_node_base"* %193, %"struct.std::_Rb_tree_node_base"* %198
  %209 = getelementptr inbounds %"struct.std::_Rb_tree_node_base", %"struct.std::_Rb_tree_node_base"* %208, i64 1
  %210 = bitcast %"struct.std::_Rb_tree_node_base"* %209 to i8*
  %211 = load i8, i8* %210, align 1, !tbaa !13
  %212 = icmp slt i8 %175, %211
  br i1 %212, label %213, label %217

213:                                              ; preds = %207, %205, %174
  %214 = phi %"struct.std::_Rb_tree_node_base"* [ %200, %207 ], [ %52, %205 ], [ %52, %174 ]
  call void @llvm.lifetime.start.p0i8(i64 8, i8* nonnull %66) #13
  store i8* %189, i8** %67, align 8, !tbaa !23
  call void @llvm.lifetime.start.p0i8(i64 1, i8* nonnull %68) #13
  %215 = invoke %"struct.std::_Rb_tree_node_base"* @_ZNSt8_Rb_treeIcSt4pairIKccESt10_Select1stIS2_ESt4lessIcESaIS2_EE22_M_emplace_hint_uniqueIJRKSt21piecewise_construct_tSt5tupleIJRS1_EESD_IJEEEEESt17_Rb_tree_iteratorIS2_ESt23_Rb_tree_const_iteratorIS2_EDpOT_(%"class.std::_Rb_tree"* nonnull align 8 dereferenceable(48) %53, %"struct.std::_Rb_tree_node_base"* %214, %"struct.std::piecewise_construct_t"* nonnull align 1 dereferenceable(1) @_ZStL19piecewise_construct, %"class.std::tuple"* nonnull align 8 dereferenceable(8) %1, %"class.std::tuple.14"* nonnull align 1 dereferenceable(1) %2)
          to label %216 unwind label %275

216:                                              ; preds = %213
  call void @llvm.lifetime.end.p0i8(i64 1, i8* nonnull %68) #13
  call void @llvm.lifetime.end.p0i8(i64 8, i8* nonnull %66) #13
  br label %217

217:                                              ; preds = %216, %207
  %218 = phi %"struct.std::_Rb_tree_node_base"* [ %215, %216 ], [ %200, %207 ]
  %219 = getelementptr inbounds %"struct.std::_Rb_tree_node_base", %"struct.std::_Rb_tree_node_base"* %218, i64 1
  %220 = bitcast %"struct.std::_Rb_tree_node_base"* %219 to %"struct.std::pair.10"*
  %221 = getelementptr inbounds %"struct.std::pair.10", %"struct.std::pair.10"* %220, i64 0, i32 1
  %222 = load i8, i8* %221, align 1
  %223 = load %"struct.std::_Rb_tree_node"*, %"struct.std::_Rb_tree_node"** %69, align 8, !tbaa !23
  %224 = icmp eq %"struct.std::_Rb_tree_node"* %223, null
  br i1 %224, label %238, label %225

225:                                              ; preds = %217, %225
  %226 = phi %"struct.std::_Rb_tree_node"* [ %234, %225 ], [ %223, %217 ]
  %227 = getelementptr inbounds %"struct.std::_Rb_tree_node", %"struct.std::_Rb_tree_node"* %226, i64 0, i32 1, i32 0, i64 0
  %228 = load i8, i8* %227, align 1, !tbaa !13
  %229 = icmp slt i8 %222, %228
  %230 = getelementptr inbounds %"struct.std::_Rb_tree_node", %"struct.std::_Rb_tree_node"* %226, i64 0, i32 0, i32 2
  %231 = getelementptr inbounds %"struct.std::_Rb_tree_node", %"struct.std::_Rb_tree_node"* %226, i64 0, i32 0, i32 3
  %232 = select i1 %229, %"struct.std::_Rb_tree_node_base"** %230, %"struct.std::_Rb_tree_node_base"** %231
  %233 = bitcast %"struct.std::_Rb_tree_node_base"** %232 to %"struct.std::_Rb_tree_node"**
  %234 = load %"struct.std::_Rb_tree_node"*, %"struct.std::_Rb_tree_node"** %233, align 8, !tbaa !23
  %235 = icmp eq %"struct.std::_Rb_tree_node"* %234, null
  br i1 %235, label %236, label %225, !llvm.loop !27

236:                                              ; preds = %225
  %237 = getelementptr %"struct.std::_Rb_tree_node", %"struct.std::_Rb_tree_node"* %226, i64 0, i32 0
  br i1 %229, label %238, label %244

238:                                              ; preds = %236, %217
  %239 = phi %"struct.std::_Rb_tree_node_base"* [ %237, %236 ], [ %70, %217 ]
  %240 = load %"struct.std::_Rb_tree_node_base"*, %"struct.std::_Rb_tree_node_base"** %71, align 8, !tbaa !19
  %241 = icmp eq %"struct.std::_Rb_tree_node_base"* %239, %240
  br i1 %241, label %253, label %242

242:                                              ; preds = %238
  %243 = call %"struct.std::_Rb_tree_node_base"* @_ZSt18_Rb_tree_decrementPSt18_Rb_tree_node_base(%"struct.std::_Rb_tree_node_base"* %239) #14
  br label %244

244:                                              ; preds = %242, %236
  %245 = phi %"struct.std::_Rb_tree_node_base"* [ %239, %242 ], [ %237, %236 ]
  %246 = phi %"struct.std::_Rb_tree_node_base"* [ %243, %242 ], [ %237, %236 ]
  %247 = getelementptr inbounds %"struct.std::_Rb_tree_node_base", %"struct.std::_Rb_tree_node_base"* %246, i64 1
  %248 = bitcast %"struct.std::_Rb_tree_node_base"* %247 to i8*
  %249 = load i8, i8* %248, align 1, !tbaa !13
  %250 = icmp sge i8 %249, %222
  %251 = icmp eq %"struct.std::_Rb_tree_node_base"* %245, null
  %252 = select i1 %250, i1 true, i1 %251
  br i1 %252, label %272, label %255

253:                                              ; preds = %238
  %254 = icmp eq %"struct.std::_Rb_tree_node_base"* %239, null
  br i1 %254, label %272, label %255

255:                                              ; preds = %244, %253
  %256 = phi %"struct.std::_Rb_tree_node_base"* [ %239, %253 ], [ %245, %244 ]
  %257 = icmp eq %"struct.std::_Rb_tree_node_base"* %256, %70
  br i1 %257, label %263, label %258

258:                                              ; preds = %255
  %259 = getelementptr inbounds %"struct.std::_Rb_tree_node_base", %"struct.std::_Rb_tree_node_base"* %256, i64 1
  %260 = bitcast %"struct.std::_Rb_tree_node_base"* %259 to i8*
  %261 = load i8, i8* %260, align 1, !tbaa !13
  %262 = icmp slt i8 %222, %261
  br label %263

263:                                              ; preds = %258, %255
  %264 = phi i1 [ true, %255 ], [ %262, %258 ]
  %265 = invoke noalias nonnull i8* @_Znwm(i64 40) #15
          to label %266 unwind label %275

266:                                              ; preds = %263
  %267 = getelementptr inbounds i8, i8* %265, i64 32
  %268 = load i8, i8* %221, align 1, !tbaa !13
  store i8 %268, i8* %267, align 1, !tbaa !13
  %269 = bitcast i8* %265 to %"struct.std::_Rb_tree_node_base"*
  call void @_ZSt29_Rb_tree_insert_and_rebalancebPSt18_Rb_tree_node_baseS0_RS_(i1 zeroext %264, %"struct.std::_Rb_tree_node_base"* nonnull %269, %"struct.std::_Rb_tree_node_base"* nonnull %256, %"struct.std::_Rb_tree_node_base"* nonnull align 8 dereferenceable(32) %70) #13
  %270 = load i64, i64* %46, align 8, !tbaa !21
  %271 = add i64 %270, 1
  store i64 %271, i64* %46, align 8, !tbaa !21
  br label %272

272:                                              ; preds = %266, %253, %244
  %273 = add nuw nsw i64 %137, 1
  %274 = icmp eq i64 %273, %74
  br i1 %274, label %124, label %136, !llvm.loop !28

275:                                              ; preds = %263, %213, %166
  %276 = landingpad { i8*, i32 }
          cleanup
  br label %330

277:                                              ; preds = %124
  %278 = load i8*, i8** bitcast (%"class.std::basic_ostream"* @_ZSt4cout to i8**), align 8, !tbaa !29
  %279 = getelementptr i8, i8* %278, i64 -24
  %280 = bitcast i8* %279 to i64*
  %281 = load i64, i64* %280, align 8
  %282 = add nsw i64 %281, 240
  %283 = getelementptr inbounds i8, i8* bitcast (%"class.std::basic_ostream"* @_ZSt4cout to i8*), i64 %282
  %284 = bitcast i8* %283 to %"class.std::ctype"**
  %285 = load %"class.std::ctype"*, %"class.std::ctype"** %284, align 8, !tbaa !31
  %286 = icmp eq %"class.std::ctype"* %285, null
  br i1 %286, label %287, label %289

287:                                              ; preds = %277
  invoke void @_ZSt16__throw_bad_castv() #16
          to label %288 unwind label %328

288:                                              ; preds = %287
  unreachable

289:                                              ; preds = %277
  %290 = getelementptr inbounds %"class.std::ctype", %"class.std::ctype"* %285, i64 0, i32 8
  %291 = load i8, i8* %290, align 8, !tbaa !34
  %292 = icmp eq i8 %291, 0
  br i1 %292, label %296, label %293

293:                                              ; preds = %289
  %294 = getelementptr inbounds %"class.std::ctype", %"class.std::ctype"* %285, i64 0, i32 9, i64 10
  %295 = load i8, i8* %294, align 1, !tbaa !13
  br label %303

296:                                              ; preds = %289
  invoke void @_ZNKSt5ctypeIcE13_M_widen_initEv(%"class.std::ctype"* nonnull align 8 dereferenceable(570) %285)
          to label %297 unwind label %328

297:                                              ; preds = %296
  %298 = bitcast %"class.std::ctype"* %285 to i8 (%"class.std::ctype"*, i8)***
  %299 = load i8 (%"class.std::ctype"*, i8)**, i8 (%"class.std::ctype"*, i8)*** %298, align 8, !tbaa !29
  %300 = getelementptr inbounds i8 (%"class.std::ctype"*, i8)*, i8 (%"class.std::ctype"*, i8)** %299, i64 6
  %301 = load i8 (%"class.std::ctype"*, i8)*, i8 (%"class.std::ctype"*, i8)** %300, align 8
  %302 = invoke signext i8 %301(%"class.std::ctype"* nonnull align 8 dereferenceable(570) %285, i8 signext 10)
          to label %303 unwind label %328

303:                                              ; preds = %297, %293
  %304 = phi i8 [ %295, %293 ], [ %302, %297 ]
  %305 = invoke nonnull align 8 dereferenceable(8) %"class.std::basic_ostream"* @_ZNSo3putEc(%"class.std::basic_ostream"* nonnull align 8 dereferenceable(8) @_ZSt4cout, i8 signext %304)
          to label %306 unwind label %328

306:                                              ; preds = %303
  %307 = invoke nonnull align 8 dereferenceable(8) %"class.std::basic_ostream"* @_ZNSo5flushEv(%"class.std::basic_ostream"* nonnull align 8 dereferenceable(8) %305)
          to label %308 unwind label %328

308:                                              ; preds = %306
  %309 = getelementptr inbounds %"class.std::set", %"class.std::set"* %10, i64 0, i32 0
  %310 = load %"struct.std::_Rb_tree_node"*, %"struct.std::_Rb_tree_node"** %126, align 8, !tbaa !18
  invoke void @_ZNSt8_Rb_treeIccSt9_IdentityIcESt4lessIcESaIcEE8_M_eraseEPSt13_Rb_tree_nodeIcE(%"class.std::_Rb_tree.3"* nonnull align 8 dereferenceable(48) %309, %"struct.std::_Rb_tree_node"* %310)
          to label %314 unwind label %311

311:                                              ; preds = %308
  %312 = landingpad { i8*, i32 }
          catch i8* null
  %313 = extractvalue { i8*, i32 } %312, 0
  call void @__clang_call_terminate(i8* %313) #17
  unreachable

314:                                              ; preds = %308
  call void @llvm.lifetime.end.p0i8(i64 48, i8* nonnull %36) #13
  %315 = load %"struct.std::_Rb_tree_node.7"*, %"struct.std::_Rb_tree_node.7"** %51, align 8, !tbaa !18
  invoke void @_ZNSt8_Rb_treeIcSt4pairIKccESt10_Select1stIS2_ESt4lessIcESaIS2_EE8_M_eraseEPSt13_Rb_tree_nodeIS2_E(%"class.std::_Rb_tree"* nonnull align 8 dereferenceable(48) %53, %"struct.std::_Rb_tree_node.7"* %315)
          to label %319 unwind label %316

316:                                              ; preds = %314
  %317 = landingpad { i8*, i32 }
          catch i8* null
  %318 = extractvalue { i8*, i32 } %317, 0
  call void @__clang_call_terminate(i8* %318) #17
  unreachable

319:                                              ; preds = %314
  call void @llvm.lifetime.end.p0i8(i64 48, i8* nonnull %25) #13
  %320 = load i8*, i8** %49, align 8, !tbaa !22
  %321 = icmp eq i8* %320, %20
  br i1 %321, label %323, label %322

322:                                              ; preds = %319
  call void @_ZdlPv(i8* %320) #13
  br label %323

323:                                              ; preds = %319, %322
  call void @llvm.lifetime.end.p0i8(i64 32, i8* nonnull %16) #13
  %324 = load i8*, i8** %50, align 8, !tbaa !22
  %325 = icmp eq i8* %324, %15
  br i1 %325, label %327, label %326

326:                                              ; preds = %323
  call void @_ZdlPv(i8* %324) #13
  br label %327

327:                                              ; preds = %323, %326
  call void @llvm.lifetime.end.p0i8(i64 32, i8* nonnull %11) #13
  ret i32 0

328:                                              ; preds = %306, %303, %297, %296, %287, %124
  %329 = landingpad { i8*, i32 }
          cleanup
  br label %330

330:                                              ; preds = %328, %275, %122
  %331 = phi { i8*, i32 } [ %123, %122 ], [ %276, %275 ], [ %329, %328 ]
  %332 = getelementptr inbounds %"class.std::set", %"class.std::set"* %10, i64 0, i32 0
  call void @_ZNSt8_Rb_treeIccSt9_IdentityIcESt4lessIcESaIcEED2Ev(%"class.std::_Rb_tree.3"* nonnull align 8 dereferenceable(48) %332) #13
  call void @llvm.lifetime.end.p0i8(i64 48, i8* nonnull %36) #13
  call void @_ZNSt8_Rb_treeIcSt4pairIKccESt10_Select1stIS2_ESt4lessIcESaIS2_EED2Ev(%"class.std::_Rb_tree"* nonnull align 8 dereferenceable(48) %53) #13
  call void @llvm.lifetime.end.p0i8(i64 48, i8* nonnull %25) #13
  br label %333

333:                                              ; preds = %330, %75
  %334 = phi { i8*, i32 } [ %331, %330 ], [ %76, %75 ]
  %335 = getelementptr inbounds %"class.std::__cxx11::basic_string", %"class.std::__cxx11::basic_string"* %8, i64 0, i32 0, i32 0
  %336 = load i8*, i8** %335, align 8, !tbaa !22
  %337 = icmp eq i8* %336, %20
  br i1 %337, label %339, label %338

338:                                              ; preds = %333
  call void @_ZdlPv(i8* %336) #13
  br label %339

339:                                              ; preds = %333, %338
  call void @llvm.lifetime.end.p0i8(i64 32, i8* nonnull %16) #13
  %340 = getelementptr inbounds %"class.std::__cxx11::basic_string", %"class.std::__cxx11::basic_string"* %7, i64 0, i32 0, i32 0
  %341 = load i8*, i8** %340, align 8, !tbaa !22
  %342 = icmp eq i8* %341, %15
  br i1 %342, label %344, label %343

343:                                              ; preds = %339
  call void @_ZdlPv(i8* %341) #13
  br label %344

344:                                              ; preds = %339, %343
  call void @llvm.lifetime.end.p0i8(i64 32, i8* nonnull %11) #13
  resume { i8*, i32 } %334
}

; Function Attrs: argmemonly mustprogress nofree nosync nounwind willreturn
declare void @llvm.lifetime.start.p0i8(i64 immarg, i8* nocapture) #3

declare nonnull align 8 dereferenceable(16) %"class.std::basic_istream"* @_ZStrsIcSt11char_traitsIcESaIcEERSt13basic_istreamIT_T0_ES7_RNSt7__cxx1112basic_stringIS4_S5_T1_EE(%"class.std::basic_istream"* nonnull align 8 dereferenceable(16), %"class.std::__cxx11::basic_string"* nonnull align 8 dereferenceable(32)) local_unnamed_addr #0

declare i32 @__gxx_personality_v0(...)

; Function Attrs: argmemonly mustprogress nofree nosync nounwind willreturn
declare void @llvm.lifetime.end.p0i8(i64 immarg, i8* nocapture) #3

; Function Attrs: noinline noreturn nounwind
define linkonce_odr hidden void @__clang_call_terminate(i8* %0) local_unnamed_addr #5 comdat {
  %2 = tail call i8* @__cxa_begin_catch(i8* %0) #13
  tail call void @_ZSt9terminatev() #17
  unreachable
}

declare i8* @__cxa_begin_catch(i8*) local_unnamed_addr

declare void @_ZSt9terminatev() local_unnamed_addr

; Function Attrs: nounwind sspstrong uwtable
define linkonce_odr dso_local void @_ZNSt8_Rb_treeIccSt9_IdentityIcESt4lessIcESaIcEED2Ev(%"class.std::_Rb_tree.3"* nonnull align 8 dereferenceable(48) %0) unnamed_addr #6 comdat align 2 personality i8* bitcast (i32 (...)* @__gxx_personality_v0 to i8*) {
  %2 = getelementptr inbounds %"class.std::_Rb_tree.3", %"class.std::_Rb_tree.3"* %0, i64 0, i32 0, i32 0, i32 0, i32 0
  %3 = getelementptr inbounds i8, i8* %2, i64 16
  %4 = bitcast i8* %3 to %"struct.std::_Rb_tree_node"**
  %5 = load %"struct.std::_Rb_tree_node"*, %"struct.std::_Rb_tree_node"** %4, align 8, !tbaa !18
  invoke void @_ZNSt8_Rb_treeIccSt9_IdentityIcESt4lessIcESaIcEE8_M_eraseEPSt13_Rb_tree_nodeIcE(%"class.std::_Rb_tree.3"* nonnull align 8 dereferenceable(48) %0, %"struct.std::_Rb_tree_node"* %5)
          to label %6 unwind label %7

6:                                                ; preds = %1
  ret void

7:                                                ; preds = %1
  %8 = landingpad { i8*, i32 }
          catch i8* null
  %9 = extractvalue { i8*, i32 } %8, 0
  tail call void @__clang_call_terminate(i8* %9) #17
  unreachable
}

; Function Attrs: mustprogress sspstrong uwtable
define linkonce_odr dso_local void @_ZNSt8_Rb_treeIccSt9_IdentityIcESt4lessIcESaIcEE8_M_eraseEPSt13_Rb_tree_nodeIcE(%"class.std::_Rb_tree.3"* nonnull align 8 dereferenceable(48) %0, %"struct.std::_Rb_tree_node"* %1) local_unnamed_addr #7 comdat align 2 personality i32 (...)* @__gxx_personality_v0 {
  %3 = icmp eq %"struct.std::_Rb_tree_node"* %1, null
  br i1 %3, label %14, label %4

4:                                                ; preds = %2, %4
  %5 = phi %"struct.std::_Rb_tree_node"* [ %11, %4 ], [ %1, %2 ]
  %6 = getelementptr inbounds %"struct.std::_Rb_tree_node", %"struct.std::_Rb_tree_node"* %5, i64 0, i32 0, i32 3
  %7 = bitcast %"struct.std::_Rb_tree_node_base"** %6 to %"struct.std::_Rb_tree_node"**
  %8 = load %"struct.std::_Rb_tree_node"*, %"struct.std::_Rb_tree_node"** %7, align 8, !tbaa !36
  tail call void @_ZNSt8_Rb_treeIccSt9_IdentityIcESt4lessIcESaIcEE8_M_eraseEPSt13_Rb_tree_nodeIcE(%"class.std::_Rb_tree.3"* nonnull align 8 dereferenceable(48) %0, %"struct.std::_Rb_tree_node"* %8)
  %9 = getelementptr inbounds %"struct.std::_Rb_tree_node", %"struct.std::_Rb_tree_node"* %5, i64 0, i32 0, i32 2
  %10 = bitcast %"struct.std::_Rb_tree_node_base"** %9 to %"struct.std::_Rb_tree_node"**
  %11 = load %"struct.std::_Rb_tree_node"*, %"struct.std::_Rb_tree_node"** %10, align 8, !tbaa !37
  %12 = bitcast %"struct.std::_Rb_tree_node"* %5 to i8*
  tail call void @_ZdlPv(i8* nonnull %12) #13
  %13 = icmp eq %"struct.std::_Rb_tree_node"* %11, null
  br i1 %13, label %14, label %4, !llvm.loop !38

14:                                               ; preds = %4, %2
  ret void
}

; Function Attrs: nobuiltin nounwind
declare void @_ZdlPv(i8*) local_unnamed_addr #8

; Function Attrs: nounwind sspstrong uwtable
define linkonce_odr dso_local void @_ZNSt8_Rb_treeIcSt4pairIKccESt10_Select1stIS2_ESt4lessIcESaIS2_EED2Ev(%"class.std::_Rb_tree"* nonnull align 8 dereferenceable(48) %0) unnamed_addr #6 comdat align 2 personality i8* bitcast (i32 (...)* @__gxx_personality_v0 to i8*) {
  %2 = getelementptr inbounds %"class.std::_Rb_tree", %"class.std::_Rb_tree"* %0, i64 0, i32 0, i32 0, i32 0, i32 0
  %3 = getelementptr inbounds i8, i8* %2, i64 16
  %4 = bitcast i8* %3 to %"struct.std::_Rb_tree_node.7"**
  %5 = load %"struct.std::_Rb_tree_node.7"*, %"struct.std::_Rb_tree_node.7"** %4, align 8, !tbaa !18
  invoke void @_ZNSt8_Rb_treeIcSt4pairIKccESt10_Select1stIS2_ESt4lessIcESaIS2_EE8_M_eraseEPSt13_Rb_tree_nodeIS2_E(%"class.std::_Rb_tree"* nonnull align 8 dereferenceable(48) %0, %"struct.std::_Rb_tree_node.7"* %5)
          to label %6 unwind label %7

6:                                                ; preds = %1
  ret void

7:                                                ; preds = %1
  %8 = landingpad { i8*, i32 }
          catch i8* null
  %9 = extractvalue { i8*, i32 } %8, 0
  tail call void @__clang_call_terminate(i8* %9) #17
  unreachable
}

; Function Attrs: mustprogress sspstrong uwtable
define linkonce_odr dso_local void @_ZNSt8_Rb_treeIcSt4pairIKccESt10_Select1stIS2_ESt4lessIcESaIS2_EE8_M_eraseEPSt13_Rb_tree_nodeIS2_E(%"class.std::_Rb_tree"* nonnull align 8 dereferenceable(48) %0, %"struct.std::_Rb_tree_node.7"* %1) local_unnamed_addr #7 comdat align 2 personality i32 (...)* @__gxx_personality_v0 {
  %3 = icmp eq %"struct.std::_Rb_tree_node.7"* %1, null
  br i1 %3, label %14, label %4

4:                                                ; preds = %2, %4
  %5 = phi %"struct.std::_Rb_tree_node.7"* [ %11, %4 ], [ %1, %2 ]
  %6 = getelementptr inbounds %"struct.std::_Rb_tree_node.7", %"struct.std::_Rb_tree_node.7"* %5, i64 0, i32 0, i32 3
  %7 = bitcast %"struct.std::_Rb_tree_node_base"** %6 to %"struct.std::_Rb_tree_node.7"**
  %8 = load %"struct.std::_Rb_tree_node.7"*, %"struct.std::_Rb_tree_node.7"** %7, align 8, !tbaa !36
  tail call void @_ZNSt8_Rb_treeIcSt4pairIKccESt10_Select1stIS2_ESt4lessIcESaIS2_EE8_M_eraseEPSt13_Rb_tree_nodeIS2_E(%"class.std::_Rb_tree"* nonnull align 8 dereferenceable(48) %0, %"struct.std::_Rb_tree_node.7"* %8)
  %9 = getelementptr inbounds %"struct.std::_Rb_tree_node.7", %"struct.std::_Rb_tree_node.7"* %5, i64 0, i32 0, i32 2
  %10 = bitcast %"struct.std::_Rb_tree_node_base"** %9 to %"struct.std::_Rb_tree_node.7"**
  %11 = load %"struct.std::_Rb_tree_node.7"*, %"struct.std::_Rb_tree_node.7"** %10, align 8, !tbaa !37
  %12 = bitcast %"struct.std::_Rb_tree_node.7"* %5 to i8*
  tail call void @_ZdlPv(i8* nonnull %12) #13
  %13 = icmp eq %"struct.std::_Rb_tree_node.7"* %11, null
  br i1 %13, label %14, label %4, !llvm.loop !39

14:                                               ; preds = %4, %2
  ret void
}

; Function Attrs: sspstrong uwtable
define linkonce_odr dso_local %"struct.std::_Rb_tree_node_base"* @_ZNSt8_Rb_treeIcSt4pairIKccESt10_Select1stIS2_ESt4lessIcESaIS2_EE22_M_emplace_hint_uniqueIJRKSt21piecewise_construct_tSt5tupleIJRS1_EESD_IJEEEEESt17_Rb_tree_iteratorIS2_ESt23_Rb_tree_const_iteratorIS2_EDpOT_(%"class.std::_Rb_tree"* nonnull align 8 dereferenceable(48) %0, %"struct.std::_Rb_tree_node_base"* %1, %"struct.std::piecewise_construct_t"* nonnull align 1 dereferenceable(1) %2, %"class.std::tuple"* nonnull align 8 dereferenceable(8) %3, %"class.std::tuple.14"* nonnull align 1 dereferenceable(1) %4) local_unnamed_addr #9 comdat align 2 personality i8* bitcast (i32 (...)* @__gxx_personality_v0 to i8*) {
  %6 = tail call noalias nonnull i8* @_Znwm(i64 40) #15
  %7 = getelementptr inbounds %"class.std::tuple", %"class.std::tuple"* %3, i64 0, i32 0, i32 0, i32 0
  %8 = load i8*, i8** %7, align 8, !tbaa !40
  %9 = getelementptr inbounds i8, i8* %6, i64 32
  %10 = load i8, i8* %8, align 1, !tbaa !13
  store i8 %10, i8* %9, align 1, !tbaa !42
  %11 = getelementptr inbounds i8, i8* %6, i64 33
  store i8 0, i8* %11, align 1, !tbaa !44
  %12 = invoke { %"struct.std::_Rb_tree_node_base"*, %"struct.std::_Rb_tree_node_base"* } @_ZNSt8_Rb_treeIcSt4pairIKccESt10_Select1stIS2_ESt4lessIcESaIS2_EE29_M_get_insert_hint_unique_posESt23_Rb_tree_const_iteratorIS2_ERS1_(%"class.std::_Rb_tree"* nonnull align 8 dereferenceable(48) %0, %"struct.std::_Rb_tree_node_base"* %1, i8* nonnull align 1 dereferenceable(1) %9)
          to label %13 unwind label %40

13:                                               ; preds = %5
  %14 = extractvalue { %"struct.std::_Rb_tree_node_base"*, %"struct.std::_Rb_tree_node_base"* } %12, 0
  %15 = extractvalue { %"struct.std::_Rb_tree_node_base"*, %"struct.std::_Rb_tree_node_base"* } %12, 1
  %16 = icmp eq %"struct.std::_Rb_tree_node_base"* %15, null
  br i1 %16, label %44, label %17

17:                                               ; preds = %13
  %18 = icmp eq %"struct.std::_Rb_tree_node_base"* %14, null
  br i1 %18, label %19, label %30

19:                                               ; preds = %17
  %20 = getelementptr inbounds %"class.std::_Rb_tree", %"class.std::_Rb_tree"* %0, i64 0, i32 0, i32 0, i32 0, i32 0
  %21 = getelementptr inbounds i8, i8* %20, i64 8
  %22 = bitcast i8* %21 to %"struct.std::_Rb_tree_node_base"*
  %23 = icmp eq %"struct.std::_Rb_tree_node_base"* %15, %22
  br i1 %23, label %30, label %24

24:                                               ; preds = %19
  %25 = getelementptr inbounds %"struct.std::_Rb_tree_node_base", %"struct.std::_Rb_tree_node_base"* %15, i64 1
  %26 = bitcast %"struct.std::_Rb_tree_node_base"* %25 to i8*
  %27 = load i8, i8* %9, align 1, !tbaa !13
  %28 = load i8, i8* %26, align 1, !tbaa !13
  %29 = icmp slt i8 %27, %28
  br label %30

30:                                               ; preds = %17, %24, %19
  %31 = phi i1 [ true, %19 ], [ %29, %24 ], [ true, %17 ]
  %32 = bitcast i8* %6 to %"struct.std::_Rb_tree_node_base"*
  %33 = getelementptr inbounds %"class.std::_Rb_tree", %"class.std::_Rb_tree"* %0, i64 0, i32 0, i32 0, i32 0, i32 0
  %34 = getelementptr inbounds i8, i8* %33, i64 8
  %35 = bitcast i8* %34 to %"struct.std::_Rb_tree_node_base"*
  tail call void @_ZSt29_Rb_tree_insert_and_rebalancebPSt18_Rb_tree_node_baseS0_RS_(i1 zeroext %31, %"struct.std::_Rb_tree_node_base"* nonnull %32, %"struct.std::_Rb_tree_node_base"* nonnull %15, %"struct.std::_Rb_tree_node_base"* nonnull align 8 dereferenceable(32) %35) #13
  %36 = getelementptr inbounds i8, i8* %33, i64 40
  %37 = bitcast i8* %36 to i64*
  %38 = load i64, i64* %37, align 8, !tbaa !21
  %39 = add i64 %38, 1
  store i64 %39, i64* %37, align 8, !tbaa !21
  br label %45

40:                                               ; preds = %5
  %41 = landingpad { i8*, i32 }
          catch i8* null
  %42 = extractvalue { i8*, i32 } %41, 0
  %43 = tail call i8* @__cxa_begin_catch(i8* %42) #13
  tail call void @_ZdlPv(i8* nonnull %6) #13
  invoke void @__cxa_rethrow() #16
          to label %53 unwind label %47

44:                                               ; preds = %13
  tail call void @_ZdlPv(i8* nonnull %6) #13
  br label %45

45:                                               ; preds = %44, %30
  %46 = phi %"struct.std::_Rb_tree_node_base"* [ %14, %44 ], [ %32, %30 ]
  ret %"struct.std::_Rb_tree_node_base"* %46

47:                                               ; preds = %40
  %48 = landingpad { i8*, i32 }
          cleanup
  invoke void @__cxa_end_catch()
          to label %49 unwind label %50

49:                                               ; preds = %47
  resume { i8*, i32 } %48

50:                                               ; preds = %47
  %51 = landingpad { i8*, i32 }
          catch i8* null
  %52 = extractvalue { i8*, i32 } %51, 0
  tail call void @__clang_call_terminate(i8* %52) #17
  unreachable

53:                                               ; preds = %40
  unreachable
}

; Function Attrs: sspstrong uwtable
define linkonce_odr dso_local { %"struct.std::_Rb_tree_node_base"*, %"struct.std::_Rb_tree_node_base"* } @_ZNSt8_Rb_treeIcSt4pairIKccESt10_Select1stIS2_ESt4lessIcESaIS2_EE29_M_get_insert_hint_unique_posESt23_Rb_tree_const_iteratorIS2_ERS1_(%"class.std::_Rb_tree"* nonnull align 8 dereferenceable(48) %0, %"struct.std::_Rb_tree_node_base"* %1, i8* nonnull align 1 dereferenceable(1) %2) local_unnamed_addr #9 comdat align 2 {
  %4 = getelementptr inbounds %"class.std::_Rb_tree", %"class.std::_Rb_tree"* %0, i64 0, i32 0, i32 0, i32 0, i32 0
  %5 = getelementptr inbounds i8, i8* %4, i64 8
  %6 = bitcast i8* %5 to %"struct.std::_Rb_tree_node_base"*
  %7 = icmp eq %"struct.std::_Rb_tree_node_base"* %6, %1
  br i1 %7, label %8, label %60

8:                                                ; preds = %3
  %9 = getelementptr inbounds i8, i8* %4, i64 40
  %10 = bitcast i8* %9 to i64*
  %11 = load i64, i64* %10, align 8, !tbaa !21
  %12 = icmp eq i64 %11, 0
  br i1 %12, label %13, label %15

13:                                               ; preds = %8
  %14 = load i8, i8* %2, align 1
  br label %24

15:                                               ; preds = %8
  %16 = getelementptr inbounds i8, i8* %4, i64 32
  %17 = bitcast i8* %16 to %"struct.std::_Rb_tree_node_base"**
  %18 = load %"struct.std::_Rb_tree_node_base"*, %"struct.std::_Rb_tree_node_base"** %17, align 8, !tbaa !23
  %19 = getelementptr inbounds %"struct.std::_Rb_tree_node_base", %"struct.std::_Rb_tree_node_base"* %18, i64 1
  %20 = bitcast %"struct.std::_Rb_tree_node_base"* %19 to i8*
  %21 = load i8, i8* %20, align 1, !tbaa !13
  %22 = load i8, i8* %2, align 1, !tbaa !13
  %23 = icmp slt i8 %21, %22
  br i1 %23, label %171, label %24

24:                                               ; preds = %13, %15
  %25 = phi i8 [ %14, %13 ], [ %22, %15 ]
  %26 = getelementptr inbounds i8, i8* %4, i64 16
  %27 = bitcast i8* %26 to %"struct.std::_Rb_tree_node.7"**
  %28 = load %"struct.std::_Rb_tree_node.7"*, %"struct.std::_Rb_tree_node.7"** %27, align 8, !tbaa !23
  %29 = icmp eq %"struct.std::_Rb_tree_node.7"* %28, null
  br i1 %29, label %43, label %30

30:                                               ; preds = %24, %30
  %31 = phi %"struct.std::_Rb_tree_node.7"* [ %39, %30 ], [ %28, %24 ]
  %32 = getelementptr inbounds %"struct.std::_Rb_tree_node.7", %"struct.std::_Rb_tree_node.7"* %31, i64 0, i32 1, i32 0, i64 0
  %33 = load i8, i8* %32, align 1, !tbaa !13
  %34 = icmp slt i8 %25, %33
  %35 = getelementptr inbounds %"struct.std::_Rb_tree_node.7", %"struct.std::_Rb_tree_node.7"* %31, i64 0, i32 0, i32 2
  %36 = getelementptr inbounds %"struct.std::_Rb_tree_node.7", %"struct.std::_Rb_tree_node.7"* %31, i64 0, i32 0, i32 3
  %37 = select i1 %34, %"struct.std::_Rb_tree_node_base"** %35, %"struct.std::_Rb_tree_node_base"** %36
  %38 = bitcast %"struct.std::_Rb_tree_node_base"** %37 to %"struct.std::_Rb_tree_node.7"**
  %39 = load %"struct.std::_Rb_tree_node.7"*, %"struct.std::_Rb_tree_node.7"** %38, align 8, !tbaa !23
  %40 = icmp eq %"struct.std::_Rb_tree_node.7"* %39, null
  br i1 %40, label %41, label %30, !llvm.loop !45

41:                                               ; preds = %30
  %42 = getelementptr %"struct.std::_Rb_tree_node.7", %"struct.std::_Rb_tree_node.7"* %31, i64 0, i32 0
  br i1 %34, label %43, label %51

43:                                               ; preds = %41, %24
  %44 = phi %"struct.std::_Rb_tree_node_base"* [ %42, %41 ], [ %1, %24 ]
  %45 = getelementptr inbounds i8, i8* %4, i64 24
  %46 = bitcast i8* %45 to %"struct.std::_Rb_tree_node_base"**
  %47 = load %"struct.std::_Rb_tree_node_base"*, %"struct.std::_Rb_tree_node_base"** %46, align 8, !tbaa !19
  %48 = icmp eq %"struct.std::_Rb_tree_node_base"* %44, %47
  br i1 %48, label %171, label %49

49:                                               ; preds = %43
  %50 = tail call %"struct.std::_Rb_tree_node_base"* @_ZSt18_Rb_tree_decrementPSt18_Rb_tree_node_base(%"struct.std::_Rb_tree_node_base"* %44) #14
  br label %51

51:                                               ; preds = %49, %41
  %52 = phi %"struct.std::_Rb_tree_node_base"* [ %44, %49 ], [ %42, %41 ]
  %53 = phi %"struct.std::_Rb_tree_node_base"* [ %50, %49 ], [ %42, %41 ]
  %54 = getelementptr inbounds %"struct.std::_Rb_tree_node_base", %"struct.std::_Rb_tree_node_base"* %53, i64 1
  %55 = bitcast %"struct.std::_Rb_tree_node_base"* %54 to i8*
  %56 = load i8, i8* %55, align 1, !tbaa !13
  %57 = icmp slt i8 %56, %25
  %58 = select i1 %57, %"struct.std::_Rb_tree_node_base"* null, %"struct.std::_Rb_tree_node_base"* %53
  %59 = select i1 %57, %"struct.std::_Rb_tree_node_base"* %52, %"struct.std::_Rb_tree_node_base"* null
  br label %171

60:                                               ; preds = %3
  %61 = getelementptr inbounds %"struct.std::_Rb_tree_node_base", %"struct.std::_Rb_tree_node_base"* %1, i64 1
  %62 = bitcast %"struct.std::_Rb_tree_node_base"* %61 to i8*
  %63 = load i8, i8* %2, align 1, !tbaa !13
  %64 = load i8, i8* %62, align 1, !tbaa !13
  %65 = icmp slt i8 %63, %64
  br i1 %65, label %66, label %116

66:                                               ; preds = %60
  %67 = getelementptr inbounds i8, i8* %4, i64 24
  %68 = bitcast i8* %67 to %"struct.std::_Rb_tree_node_base"**
  %69 = load %"struct.std::_Rb_tree_node_base"*, %"struct.std::_Rb_tree_node_base"** %68, align 8, !tbaa !23
  %70 = icmp eq %"struct.std::_Rb_tree_node_base"* %69, %1
  br i1 %70, label %171, label %71

71:                                               ; preds = %66
  %72 = tail call %"struct.std::_Rb_tree_node_base"* @_ZSt18_Rb_tree_decrementPSt18_Rb_tree_node_base(%"struct.std::_Rb_tree_node_base"* nonnull %1) #14
  %73 = getelementptr inbounds %"struct.std::_Rb_tree_node_base", %"struct.std::_Rb_tree_node_base"* %72, i64 1
  %74 = bitcast %"struct.std::_Rb_tree_node_base"* %73 to i8*
  %75 = load i8, i8* %74, align 1, !tbaa !13
  %76 = icmp slt i8 %75, %63
  br i1 %76, label %77, label %84

77:                                               ; preds = %71
  %78 = getelementptr inbounds %"struct.std::_Rb_tree_node_base", %"struct.std::_Rb_tree_node_base"* %72, i64 0, i32 3
  %79 = bitcast %"struct.std::_Rb_tree_node_base"** %78 to %"struct.std::_Rb_tree_node.7"**
  %80 = load %"struct.std::_Rb_tree_node.7"*, %"struct.std::_Rb_tree_node.7"** %79, align 8, !tbaa !36
  %81 = icmp eq %"struct.std::_Rb_tree_node.7"* %80, null
  %82 = select i1 %81, %"struct.std::_Rb_tree_node_base"* null, %"struct.std::_Rb_tree_node_base"* %1
  %83 = select i1 %81, %"struct.std::_Rb_tree_node_base"* %72, %"struct.std::_Rb_tree_node_base"* %1
  br label %171

84:                                               ; preds = %71
  %85 = getelementptr inbounds i8, i8* %4, i64 16
  %86 = bitcast i8* %85 to %"struct.std::_Rb_tree_node.7"**
  %87 = load %"struct.std::_Rb_tree_node.7"*, %"struct.std::_Rb_tree_node.7"** %86, align 8, !tbaa !23
  %88 = icmp eq %"struct.std::_Rb_tree_node.7"* %87, null
  br i1 %88, label %102, label %89

89:                                               ; preds = %84, %89
  %90 = phi %"struct.std::_Rb_tree_node.7"* [ %98, %89 ], [ %87, %84 ]
  %91 = getelementptr inbounds %"struct.std::_Rb_tree_node.7", %"struct.std::_Rb_tree_node.7"* %90, i64 0, i32 1, i32 0, i64 0
  %92 = load i8, i8* %91, align 1, !tbaa !13
  %93 = icmp slt i8 %63, %92
  %94 = getelementptr inbounds %"struct.std::_Rb_tree_node.7", %"struct.std::_Rb_tree_node.7"* %90, i64 0, i32 0, i32 2
  %95 = getelementptr inbounds %"struct.std::_Rb_tree_node.7", %"struct.std::_Rb_tree_node.7"* %90, i64 0, i32 0, i32 3
  %96 = select i1 %93, %"struct.std::_Rb_tree_node_base"** %94, %"struct.std::_Rb_tree_node_base"** %95
  %97 = bitcast %"struct.std::_Rb_tree_node_base"** %96 to %"struct.std::_Rb_tree_node.7"**
  %98 = load %"struct.std::_Rb_tree_node.7"*, %"struct.std::_Rb_tree_node.7"** %97, align 8, !tbaa !23
  %99 = icmp eq %"struct.std::_Rb_tree_node.7"* %98, null
  br i1 %99, label %100, label %89, !llvm.loop !45

100:                                              ; preds = %89
  %101 = getelementptr %"struct.std::_Rb_tree_node.7", %"struct.std::_Rb_tree_node.7"* %90, i64 0, i32 0
  br i1 %93, label %102, label %107

102:                                              ; preds = %100, %84
  %103 = phi %"struct.std::_Rb_tree_node_base"* [ %101, %100 ], [ %6, %84 ]
  %104 = icmp eq %"struct.std::_Rb_tree_node_base"* %103, %69
  br i1 %104, label %171, label %105

105:                                              ; preds = %102
  %106 = tail call %"struct.std::_Rb_tree_node_base"* @_ZSt18_Rb_tree_decrementPSt18_Rb_tree_node_base(%"struct.std::_Rb_tree_node_base"* %103) #14
  br label %107

107:                                              ; preds = %105, %100
  %108 = phi %"struct.std::_Rb_tree_node_base"* [ %103, %105 ], [ %101, %100 ]
  %109 = phi %"struct.std::_Rb_tree_node_base"* [ %106, %105 ], [ %101, %100 ]
  %110 = getelementptr inbounds %"struct.std::_Rb_tree_node_base", %"struct.std::_Rb_tree_node_base"* %109, i64 1
  %111 = bitcast %"struct.std::_Rb_tree_node_base"* %110 to i8*
  %112 = load i8, i8* %111, align 1, !tbaa !13
  %113 = icmp slt i8 %112, %63
  %114 = select i1 %113, %"struct.std::_Rb_tree_node_base"* null, %"struct.std::_Rb_tree_node_base"* %109
  %115 = select i1 %113, %"struct.std::_Rb_tree_node_base"* %108, %"struct.std::_Rb_tree_node_base"* null
  br label %171

116:                                              ; preds = %60
  %117 = icmp slt i8 %64, %63
  br i1 %117, label %118, label %171

118:                                              ; preds = %116
  %119 = getelementptr inbounds i8, i8* %4, i64 32
  %120 = bitcast i8* %119 to %"struct.std::_Rb_tree_node_base"**
  %121 = load %"struct.std::_Rb_tree_node_base"*, %"struct.std::_Rb_tree_node_base"** %120, align 8, !tbaa !23
  %122 = icmp eq %"struct.std::_Rb_tree_node_base"* %121, %1
  br i1 %122, label %171, label %123

123:                                              ; preds = %118
  %124 = tail call %"struct.std::_Rb_tree_node_base"* @_ZSt18_Rb_tree_incrementPSt18_Rb_tree_node_base(%"struct.std::_Rb_tree_node_base"* nonnull %1) #14
  %125 = getelementptr inbounds %"struct.std::_Rb_tree_node_base", %"struct.std::_Rb_tree_node_base"* %124, i64 1
  %126 = bitcast %"struct.std::_Rb_tree_node_base"* %125 to i8*
  %127 = load i8, i8* %126, align 1, !tbaa !13
  %128 = icmp slt i8 %63, %127
  br i1 %128, label %129, label %136

129:                                              ; preds = %123
  %130 = getelementptr inbounds %"struct.std::_Rb_tree_node_base", %"struct.std::_Rb_tree_node_base"* %1, i64 0, i32 3
  %131 = bitcast %"struct.std::_Rb_tree_node_base"** %130 to %"struct.std::_Rb_tree_node.7"**
  %132 = load %"struct.std::_Rb_tree_node.7"*, %"struct.std::_Rb_tree_node.7"** %131, align 8, !tbaa !36
  %133 = icmp eq %"struct.std::_Rb_tree_node.7"* %132, null
  %134 = select i1 %133, %"struct.std::_Rb_tree_node_base"* null, %"struct.std::_Rb_tree_node_base"* %124
  %135 = select i1 %133, %"struct.std::_Rb_tree_node_base"* %1, %"struct.std::_Rb_tree_node_base"* %124
  br label %171

136:                                              ; preds = %123
  %137 = getelementptr inbounds i8, i8* %4, i64 16
  %138 = bitcast i8* %137 to %"struct.std::_Rb_tree_node.7"**
  %139 = load %"struct.std::_Rb_tree_node.7"*, %"struct.std::_Rb_tree_node.7"** %138, align 8, !tbaa !23
  %140 = icmp eq %"struct.std::_Rb_tree_node.7"* %139, null
  br i1 %140, label %154, label %141

141:                                              ; preds = %136, %141
  %142 = phi %"struct.std::_Rb_tree_node.7"* [ %150, %141 ], [ %139, %136 ]
  %143 = getelementptr inbounds %"struct.std::_Rb_tree_node.7", %"struct.std::_Rb_tree_node.7"* %142, i64 0, i32 1, i32 0, i64 0
  %144 = load i8, i8* %143, align 1, !tbaa !13
  %145 = icmp slt i8 %63, %144
  %146 = getelementptr inbounds %"struct.std::_Rb_tree_node.7", %"struct.std::_Rb_tree_node.7"* %142, i64 0, i32 0, i32 2
  %147 = getelementptr inbounds %"struct.std::_Rb_tree_node.7", %"struct.std::_Rb_tree_node.7"* %142, i64 0, i32 0, i32 3
  %148 = select i1 %145, %"struct.std::_Rb_tree_node_base"** %146, %"struct.std::_Rb_tree_node_base"** %147
  %149 = bitcast %"struct.std::_Rb_tree_node_base"** %148 to %"struct.std::_Rb_tree_node.7"**
  %150 = load %"struct.std::_Rb_tree_node.7"*, %"struct.std::_Rb_tree_node.7"** %149, align 8, !tbaa !23
  %151 = icmp eq %"struct.std::_Rb_tree_node.7"* %150, null
  br i1 %151, label %152, label %141, !llvm.loop !45

152:                                              ; preds = %141
  %153 = getelementptr %"struct.std::_Rb_tree_node.7", %"struct.std::_Rb_tree_node.7"* %142, i64 0, i32 0
  br i1 %145, label %154, label %162

154:                                              ; preds = %152, %136
  %155 = phi %"struct.std::_Rb_tree_node_base"* [ %153, %152 ], [ %6, %136 ]
  %156 = getelementptr inbounds i8, i8* %4, i64 24
  %157 = bitcast i8* %156 to %"struct.std::_Rb_tree_node_base"**
  %158 = load %"struct.std::_Rb_tree_node_base"*, %"struct.std::_Rb_tree_node_base"** %157, align 8, !tbaa !19
  %159 = icmp eq %"struct.std::_Rb_tree_node_base"* %155, %158
  br i1 %159, label %171, label %160

160:                                              ; preds = %154
  %161 = tail call %"struct.std::_Rb_tree_node_base"* @_ZSt18_Rb_tree_decrementPSt18_Rb_tree_node_base(%"struct.std::_Rb_tree_node_base"* %155) #14
  br label %162

162:                                              ; preds = %160, %152
  %163 = phi %"struct.std::_Rb_tree_node_base"* [ %155, %160 ], [ %153, %152 ]
  %164 = phi %"struct.std::_Rb_tree_node_base"* [ %161, %160 ], [ %153, %152 ]
  %165 = getelementptr inbounds %"struct.std::_Rb_tree_node_base", %"struct.std::_Rb_tree_node_base"* %164, i64 1
  %166 = bitcast %"struct.std::_Rb_tree_node_base"* %165 to i8*
  %167 = load i8, i8* %166, align 1, !tbaa !13
  %168 = icmp slt i8 %167, %63
  %169 = select i1 %168, %"struct.std::_Rb_tree_node_base"* null, %"struct.std::_Rb_tree_node_base"* %164
  %170 = select i1 %168, %"struct.std::_Rb_tree_node_base"* %163, %"struct.std::_Rb_tree_node_base"* null
  br label %171

171:                                              ; preds = %162, %154, %107, %102, %51, %43, %129, %77, %116, %118, %66, %15
  %172 = phi %"struct.std::_Rb_tree_node_base"* [ null, %15 ], [ %1, %66 ], [ null, %118 ], [ %1, %116 ], [ %82, %77 ], [ %134, %129 ], [ %58, %51 ], [ null, %43 ], [ %114, %107 ], [ null, %102 ], [ %169, %162 ], [ null, %154 ]
  %173 = phi %"struct.std::_Rb_tree_node_base"* [ %18, %15 ], [ %1, %66 ], [ %1, %118 ], [ null, %116 ], [ %83, %77 ], [ %135, %129 ], [ %59, %51 ], [ %44, %43 ], [ %115, %107 ], [ %69, %102 ], [ %170, %162 ], [ %155, %154 ]
  %174 = insertvalue { %"struct.std::_Rb_tree_node_base"*, %"struct.std::_Rb_tree_node_base"* } undef, %"struct.std::_Rb_tree_node_base"* %172, 0
  %175 = insertvalue { %"struct.std::_Rb_tree_node_base"*, %"struct.std::_Rb_tree_node_base"* } %174, %"struct.std::_Rb_tree_node_base"* %173, 1
  ret { %"struct.std::_Rb_tree_node_base"*, %"struct.std::_Rb_tree_node_base"* } %175
}

declare void @__cxa_rethrow() local_unnamed_addr

declare void @__cxa_end_catch() local_unnamed_addr

; Function Attrs: nobuiltin allocsize(0)
declare nonnull i8* @_Znwm(i64) local_unnamed_addr #10

; Function Attrs: mustprogress nofree nounwind readonly willreturn
declare %"struct.std::_Rb_tree_node_base"* @_ZSt18_Rb_tree_decrementPSt18_Rb_tree_node_base(%"struct.std::_Rb_tree_node_base"*) local_unnamed_addr #11

; Function Attrs: mustprogress nofree nounwind readonly willreturn
declare %"struct.std::_Rb_tree_node_base"* @_ZSt18_Rb_tree_incrementPSt18_Rb_tree_node_base(%"struct.std::_Rb_tree_node_base"*) local_unnamed_addr #11

; Function Attrs: nounwind
declare void @_ZSt29_Rb_tree_insert_and_rebalancebPSt18_Rb_tree_node_baseS0_RS_(i1 zeroext, %"struct.std::_Rb_tree_node_base"*, %"struct.std::_Rb_tree_node_base"*, %"struct.std::_Rb_tree_node_base"* nonnull align 8 dereferenceable(32)) local_unnamed_addr #1

declare nonnull align 8 dereferenceable(8) %"class.std::basic_ostream"* @_ZSt16__ostream_insertIcSt11char_traitsIcEERSt13basic_ostreamIT_T0_ES6_PKS3_l(%"class.std::basic_ostream"* nonnull align 8 dereferenceable(8), i8*, i64) local_unnamed_addr #0

declare nonnull align 8 dereferenceable(8) %"class.std::basic_ostream"* @_ZNSo3putEc(%"class.std::basic_ostream"* nonnull align 8 dereferenceable(8), i8 signext) local_unnamed_addr #0

declare nonnull align 8 dereferenceable(8) %"class.std::basic_ostream"* @_ZNSo5flushEv(%"class.std::basic_ostream"* nonnull align 8 dereferenceable(8)) local_unnamed_addr #0

; Function Attrs: noreturn
declare void @_ZSt16__throw_bad_castv() local_unnamed_addr #12

declare void @_ZNKSt5ctypeIcE13_M_widen_initEv(%"class.std::ctype"* nonnull align 8 dereferenceable(570)) local_unnamed_addr #0

; Function Attrs: sspstrong uwtable
define internal void @_GLOBAL__sub_I_s603861416.cpp() #9 section ".text.startup" {
  tail call void @_ZNSt8ios_base4InitC1Ev(%"class.std::ios_base::Init"* nonnull align 1 dereferenceable(1) @_ZStL8__ioinit)
  %1 = tail call i32 @__cxa_atexit(void (i8*)* bitcast (void (%"class.std::ios_base::Init"*)* @_ZNSt8ios_base4InitD1Ev to void (i8*)*), i8* getelementptr inbounds (%"class.std::ios_base::Init", %"class.std::ios_base::Init"* @_ZStL8__ioinit, i64 0, i32 0), i8* nonnull @__dso_handle) #13
  store double 0x400921FB54442D18, double* @_ZL2PI, align 8, !tbaa !46
  %2 = tail call {}* @llvm.invariant.start.p0i8(i64 8, i8* bitcast (double* @_ZL2PI to i8*)) #13
  ret void
}

attributes #0 = { "frame-pointer"="none" "no-trapping-math"="true" "stack-protector-buffer-size"="8" "target-cpu"="x86-64" "target-features"="+cx8,+fxsr,+mmx,+sse,+sse2,+x87" "tune-cpu"="generic" }
attributes #1 = { nounwind "frame-pointer"="none" "no-trapping-math"="true" "stack-protector-buffer-size"="8" "target-cpu"="x86-64" "target-features"="+cx8,+fxsr,+mmx,+sse,+sse2,+x87" "tune-cpu"="generic" }
attributes #2 = { nofree nounwind }
attributes #3 = { argmemonly mustprogress nofree nosync nounwind willreturn }
attributes #4 = { norecurse sspstrong uwtable "frame-pointer"="none" "min-legal-vector-width"="0" "no-trapping-math"="true" "stack-protector-buffer-size"="8" "target-cpu"="x86-64" "target-features"="+cx8,+fxsr,+mmx,+sse,+sse2,+x87" "tune-cpu"="generic" }
attributes #5 = { noinline noreturn nounwind }
attributes #6 = { nounwind sspstrong uwtable "frame-pointer"="none" "min-legal-vector-width"="0" "no-trapping-math"="true" "stack-protector-buffer-size"="8" "target-cpu"="x86-64" "target-features"="+cx8,+fxsr,+mmx,+sse,+sse2,+x87" "tune-cpu"="generic" }
attributes #7 = { mustprogress sspstrong uwtable "frame-pointer"="none" "min-legal-vector-width"="0" "no-trapping-math"="true" "stack-protector-buffer-size"="8" "target-cpu"="x86-64" "target-features"="+cx8,+fxsr,+mmx,+sse,+sse2,+x87" "tune-cpu"="generic" }
attributes #8 = { nobuiltin nounwind "frame-pointer"="none" "no-trapping-math"="true" "stack-protector-buffer-size"="8" "target-cpu"="x86-64" "target-features"="+cx8,+fxsr,+mmx,+sse,+sse2,+x87" "tune-cpu"="generic" }
attributes #9 = { sspstrong uwtable "frame-pointer"="none" "min-legal-vector-width"="0" "no-trapping-math"="true" "stack-protector-buffer-size"="8" "target-cpu"="x86-64" "target-features"="+cx8,+fxsr,+mmx,+sse,+sse2,+x87" "tune-cpu"="generic" }
attributes #10 = { nobuiltin allocsize(0) "frame-pointer"="none" "no-trapping-math"="true" "stack-protector-buffer-size"="8" "target-cpu"="x86-64" "target-features"="+cx8,+fxsr,+mmx,+sse,+sse2,+x87" "tune-cpu"="generic" }
attributes #11 = { mustprogress nofree nounwind readonly willreturn "frame-pointer"="none" "no-trapping-math"="true" "stack-protector-buffer-size"="8" "target-cpu"="x86-64" "target-features"="+cx8,+fxsr,+mmx,+sse,+sse2,+x87" "tune-cpu"="generic" }
attributes #12 = { noreturn "frame-pointer"="none" "no-trapping-math"="true" "stack-protector-buffer-size"="8" "target-cpu"="x86-64" "target-features"="+cx8,+fxsr,+mmx,+sse,+sse2,+x87" "tune-cpu"="generic" }
attributes #13 = { nounwind }
attributes #14 = { nounwind readonly willreturn }
attributes #15 = { allocsize(0) }
attributes #16 = { noreturn }
attributes #17 = { noreturn nounwind }

!llvm.module.flags = !{!0, !1, !2, !3}
!llvm.ident = !{!4}

!0 = !{i32 1, !"wchar_size", i32 4}
!1 = !{i32 7, !"PIC Level", i32 2}
!2 = !{i32 7, !"PIE Level", i32 2}
!3 = !{i32 7, !"uwtable", i32 1}
!4 = !{!"clang version 13.0.0"}
!5 = !{!6, !7, i64 0}
!6 = !{!"_ZTSNSt7__cxx1112basic_stringIcSt11char_traitsIcESaIcEE12_Alloc_hiderE", !7, i64 0}
!7 = !{!"any pointer", !8, i64 0}
!8 = !{!"omnipotent char", !9, i64 0}
!9 = !{!"Simple C++ TBAA"}
!10 = !{!11, !12, i64 8}
!11 = !{!"_ZTSNSt7__cxx1112basic_stringIcSt11char_traitsIcESaIcEEE", !6, i64 0, !12, i64 8, !8, i64 16}
!12 = !{!"long", !8, i64 0}
!13 = !{!8, !8, i64 0}
!14 = !{!15, !17, i64 0}
!15 = !{!"_ZTSSt15_Rb_tree_header", !16, i64 0, !12, i64 32}
!16 = !{!"_ZTSSt18_Rb_tree_node_base", !17, i64 0, !7, i64 8, !7, i64 16, !7, i64 24}
!17 = !{!"_ZTSSt14_Rb_tree_color", !8, i64 0}
!18 = !{!15, !7, i64 8}
!19 = !{!15, !7, i64 16}
!20 = !{!15, !7, i64 24}
!21 = !{!15, !12, i64 32}
!22 = !{!11, !7, i64 0}
!23 = !{!7, !7, i64 0}
!24 = distinct !{!24, !25}
!25 = !{!"llvm.loop.mustprogress"}
!26 = distinct !{!26, !25}
!27 = distinct !{!27, !25}
!28 = distinct !{!28, !25}
!29 = !{!30, !30, i64 0}
!30 = !{!"vtable pointer", !9, i64 0}
!31 = !{!32, !7, i64 240}
!32 = !{!"_ZTSSt9basic_iosIcSt11char_traitsIcEE", !7, i64 216, !8, i64 224, !33, i64 225, !7, i64 232, !7, i64 240, !7, i64 248, !7, i64 256}
!33 = !{!"bool", !8, i64 0}
!34 = !{!35, !8, i64 56}
!35 = !{!"_ZTSSt5ctypeIcE", !7, i64 16, !33, i64 24, !7, i64 32, !7, i64 40, !7, i64 48, !8, i64 56, !8, i64 57, !8, i64 313, !8, i64 569}
!36 = !{!16, !7, i64 24}
!37 = !{!16, !7, i64 16}
!38 = distinct !{!38, !25}
!39 = distinct !{!39, !25}
!40 = !{!41, !7, i64 0}
!41 = !{!"_ZTSSt10_Head_baseILm0ERKcLb0EE", !7, i64 0}
!42 = !{!43, !8, i64 0}
!43 = !{!"_ZTSSt4pairIKccE", !8, i64 0, !8, i64 1}
!44 = !{!43, !8, i64 1}
!45 = distinct !{!45, !25}
!46 = !{!47, !47, i64 0}
!47 = !{!"double", !8, i64 0}
