; ModuleID = 'Project_CodeNet_C++1400/p03232/s874621220.cpp'
source_filename = "Project_CodeNet_C++1400/p03232/s874621220.cpp"
target datalayout = "e-m:e-i64:64-f80:128-n8:16:32:64-S128"
target triple = "x86_64-unknown-linux-gnu"

%"class.std::ios_base::Init" = type { i8 }
%"class.std::basic_istream" = type { i32 (...)**, i64, %"class.std::basic_ios" }
%"class.std::basic_ios" = type { %"class.std::ios_base", %"class.std::basic_ostream"*, i8, i8, %"class.std::basic_streambuf"*, %"class.std::ctype"*, %"class.std::num_put"*, %"class.std::num_get"* }
%"class.std::ios_base" = type { i32 (...)**, i64, i64, i32, i32, i32, %"struct.std::ios_base::_Callback_list"*, %"struct.std::ios_base::_Words", [8 x %"struct.std::ios_base::_Words"], i32, %"struct.std::ios_base::_Words"*, %"class.std::locale" }
%"struct.std::ios_base::_Callback_list" = type { %"struct.std::ios_base::_Callback_list"*, void (i32, %"class.std::ios_base"*, i32)*, i32, i32 }
%"struct.std::ios_base::_Words" = type { i8*, i64 }
%"class.std::locale" = type { %"class.std::locale::_Impl"* }
%"class.std::locale::_Impl" = type { i32, %"class.std::locale::facet"**, i64, %"class.std::locale::facet"**, i8** }
%"class.std::locale::facet" = type <{ i32 (...)**, i32, [4 x i8] }>
%"class.std::basic_ostream" = type { i32 (...)**, %"class.std::basic_ios" }
%"class.std::basic_streambuf" = type { i32 (...)**, i8*, i8*, i8*, i8*, i8*, i8*, %"class.std::locale" }
%"class.std::ctype" = type <{ %"class.std::locale::facet.base", [4 x i8], %struct.__locale_struct*, i8, [7 x i8], i32*, i32*, i16*, i8, [256 x i8], [256 x i8], i8, [6 x i8] }>
%"class.std::locale::facet.base" = type <{ i32 (...)**, i32 }>
%struct.__locale_struct = type { [13 x %struct.__locale_data*], i16*, i32*, i32*, [13 x i8*] }
%struct.__locale_data = type opaque
%"class.std::num_put" = type { %"class.std::locale::facet.base", [4 x i8] }
%"class.std::num_get" = type { %"class.std::locale::facet.base", [4 x i8] }
%"class.std::vector" = type { %"struct.std::_Vector_base" }
%"struct.std::_Vector_base" = type { %"struct.std::_Vector_base<long long, std::allocator<long long> >::_Vector_impl" }
%"struct.std::_Vector_base<long long, std::allocator<long long> >::_Vector_impl" = type { i64*, i64*, i64* }
%"class.std::allocator" = type { i8 }
%"class.__gnu_cxx::__normal_iterator" = type { i64* }
%"class.__gnu_cxx::new_allocator" = type { i8 }

$_Z7ext_gcdIxET_S0_S0_RS0_S1_ = comdat any

$_ZNSaIxEC2Ev = comdat any

$_ZNSt6vectorIxSaIxEEC2EmRKS0_ = comdat any

$_ZNSaIxED2Ev = comdat any

$_ZNSt6vectorIxSaIxEE5beginEv = comdat any

$_ZNSt6vectorIxSaIxEE3endEv = comdat any

$_ZN9__gnu_cxxneIPxSt6vectorIxSaIxEEEEbRKNS_17__normal_iteratorIT_T0_EESA_ = comdat any

$_ZNK9__gnu_cxx17__normal_iteratorIPxSt6vectorIxSaIxEEEdeEv = comdat any

$_ZN9__gnu_cxx17__normal_iteratorIPxSt6vectorIxSaIxEEEppEv = comdat any

$_ZNSt6vectorIxSaIxEEixEm = comdat any

$_ZNSt6vectorIxSaIxEED2Ev = comdat any

$_ZN9__gnu_cxx13new_allocatorIxEC2Ev = comdat any

$_ZN9__gnu_cxx13new_allocatorIxED2Ev = comdat any

$_ZNSt12_Vector_baseIxSaIxEEC2EmRKS0_ = comdat any

$_ZNSt6vectorIxSaIxEE21_M_default_initializeEm = comdat any

$_ZNSt12_Vector_baseIxSaIxEED2Ev = comdat any

$_ZNSt12_Vector_baseIxSaIxEE12_Vector_implC2ERKS0_ = comdat any

$_ZNSt12_Vector_baseIxSaIxEE17_M_create_storageEm = comdat any

$_ZNSt12_Vector_baseIxSaIxEE12_Vector_implD2Ev = comdat any

$_ZNSaIxEC2ERKS_ = comdat any

$_ZN9__gnu_cxx13new_allocatorIxEC2ERKS1_ = comdat any

$_ZNSt12_Vector_baseIxSaIxEE11_M_allocateEm = comdat any

$_ZNSt16allocator_traitsISaIxEE8allocateERS0_m = comdat any

$_ZN9__gnu_cxx13new_allocatorIxE8allocateEmPKv = comdat any

$_ZNK9__gnu_cxx13new_allocatorIxE8max_sizeEv = comdat any

$_ZSt27__uninitialized_default_n_aIPxmxET_S1_T0_RSaIT1_E = comdat any

$_ZNSt12_Vector_baseIxSaIxEE19_M_get_Tp_allocatorEv = comdat any

$_ZSt25__uninitialized_default_nIPxmET_S1_T0_ = comdat any

$_ZNSt27__uninitialized_default_n_1ILb1EE18__uninit_default_nIPxmEET_S3_T0_ = comdat any

$_ZSt6fill_nIPxmxET_S1_T0_RKT1_ = comdat any

$_ZSt10__fill_n_aIPxmxEN9__gnu_cxx11__enable_ifIXsr11__is_scalarIT1_EE7__valueET_E6__typeES4_T0_RKS3_ = comdat any

$_ZSt12__niter_baseIPxENSt11_Niter_baseIT_E13iterator_typeES2_ = comdat any

$_ZNSt10_Iter_baseIPxLb0EE7_S_baseES0_ = comdat any

$_ZNSt12_Vector_baseIxSaIxEE13_M_deallocateEPxm = comdat any

$__clang_call_terminate = comdat any

$_ZNSt16allocator_traitsISaIxEE10deallocateERS0_Pxm = comdat any

$_ZN9__gnu_cxx13new_allocatorIxE10deallocateEPxm = comdat any

$_ZSt8_DestroyIPxxEvT_S1_RSaIT0_E = comdat any

$_ZSt8_DestroyIPxEvT_S1_ = comdat any

$_ZNSt12_Destroy_auxILb1EE9__destroyIPxEEvT_S3_ = comdat any

$_ZN9__gnu_cxx17__normal_iteratorIPxSt6vectorIxSaIxEEEC2ERKS1_ = comdat any

$_ZNK9__gnu_cxx17__normal_iteratorIPxSt6vectorIxSaIxEEE4baseEv = comdat any

@_ZStL8__ioinit = internal global %"class.std::ios_base::Init" zeroinitializer, align 1
@__dso_handle = external global i8
@_ZSt3cin = external global %"class.std::basic_istream", align 8
@_ZSt4cout = external global %"class.std::basic_ostream", align 8
@llvm.global_ctors = appending global [1 x { i32, void ()*, i8* }] [{ i32, void ()*, i8* } { i32 65535, void ()* @_GLOBAL__sub_I_s874621220.cpp, i8* null }]
@x = common global i32 0
@y = common global i32 0
@x.1 = common global i32 0
@y.2 = common global i32 0
@x.3 = common global i32 0
@y.4 = common global i32 0
@x.5 = common global i32 0
@y.6 = common global i32 0
@x.7 = common global i32 0
@y.8 = common global i32 0
@x.9 = common global i32 0
@y.10 = common global i32 0
@x.11 = common global i32 0
@y.12 = common global i32 0
@x.13 = common global i32 0
@y.14 = common global i32 0
@x.15 = common global i32 0
@y.16 = common global i32 0
@x.17 = common global i32 0
@y.18 = common global i32 0
@x.19 = common global i32 0
@y.20 = common global i32 0
@x.21 = common global i32 0
@y.22 = common global i32 0
@x.23 = common global i32 0
@y.24 = common global i32 0
@x.25 = common global i32 0
@y.26 = common global i32 0
@x.27 = common global i32 0
@y.28 = common global i32 0
@x.29 = common global i32 0
@y.30 = common global i32 0
@x.31 = common global i32 0
@y.32 = common global i32 0
@x.33 = common global i32 0
@y.34 = common global i32 0
@x.35 = common global i32 0
@y.36 = common global i32 0
@x.37 = common global i32 0
@y.38 = common global i32 0
@x.39 = common global i32 0
@y.40 = common global i32 0
@x.41 = common global i32 0
@y.42 = common global i32 0
@x.43 = common global i32 0
@y.44 = common global i32 0
@x.45 = common global i32 0
@y.46 = common global i32 0
@x.47 = common global i32 0
@y.48 = common global i32 0
@x.49 = common global i32 0
@y.50 = common global i32 0
@x.51 = common global i32 0
@y.52 = common global i32 0
@x.53 = common global i32 0
@y.54 = common global i32 0
@x.55 = common global i32 0
@y.56 = common global i32 0
@x.57 = common global i32 0
@y.58 = common global i32 0
@x.59 = common global i32 0
@y.60 = common global i32 0
@x.61 = common global i32 0
@y.62 = common global i32 0
@x.63 = common global i32 0
@y.64 = common global i32 0
@x.65 = common global i32 0
@y.66 = common global i32 0
@x.67 = common global i32 0
@y.68 = common global i32 0
@x.69 = common global i32 0
@y.70 = common global i32 0
@x.71 = common global i32 0
@y.72 = common global i32 0
@x.73 = common global i32 0
@y.74 = common global i32 0
@x.75 = common global i32 0
@y.76 = common global i32 0
@x.77 = common global i32 0
@y.78 = common global i32 0
@x.79 = common global i32 0
@y.80 = common global i32 0
@x.81 = common global i32 0
@y.82 = common global i32 0
@x.83 = common global i32 0
@y.84 = common global i32 0
@x.85 = common global i32 0
@y.86 = common global i32 0
@x.87 = common global i32 0
@y.88 = common global i32 0
@x.89 = common global i32 0
@y.90 = common global i32 0

; Function Attrs: noinline uwtable
define internal void @__cxx_global_var_init() #0 section ".text.startup" {
  call void @_ZNSt8ios_base4InitC1Ev(%"class.std::ios_base::Init"* @_ZStL8__ioinit)
  %1 = call i32 @__cxa_atexit(void (i8*)* bitcast (void (%"class.std::ios_base::Init"*)* @_ZNSt8ios_base4InitD1Ev to void (i8*)*), i8* getelementptr inbounds (%"class.std::ios_base::Init", %"class.std::ios_base::Init"* @_ZStL8__ioinit, i32 0, i32 0), i8* @__dso_handle) #3
  ret void
}

declare void @_ZNSt8ios_base4InitC1Ev(%"class.std::ios_base::Init"*) unnamed_addr #1

; Function Attrs: nounwind
declare void @_ZNSt8ios_base4InitD1Ev(%"class.std::ios_base::Init"*) unnamed_addr #2

; Function Attrs: nounwind
declare i32 @__cxa_atexit(void (i8*)*, i8*, i8*) #3

; Function Attrs: noinline uwtable
define i64 @_Z6modinvx(i64) #0 {
  %2 = alloca i64
  %3 = alloca i64, align 8
  %4 = alloca i64, align 8
  %5 = alloca i64, align 8
  store i64 %0, i64* %3, align 8
  %6 = load i64, i64* %3, align 8
  %7 = call i64 @_Z7ext_gcdIxET_S0_S0_RS0_S1_(i64 %6, i64 1000000007, i64* dereferenceable(8) %4, i64* dereferenceable(8) %5)
  %8 = load i64, i64* %4, align 8
  store i64 %8, i64* %2
  %9 = alloca i32
  store i32 610583971, i32* %9
  %10 = alloca i64
  br label %11

; <label>:11:                                     ; preds = %1, %44
  %12 = load i32, i32* %9
  switch i32 %12, label %13 [
    i32 610583971, label %14
    i32 7273300, label %18
    i32 -1989465495, label %29
    i32 -758728717, label %32
    i32 -2082271972, label %37
    i32 -136148288, label %42
  ]

; <label>:13:                                     ; preds = %11
  br label %44

; <label>:14:                                     ; preds = %11
  %15 = load volatile i64, i64* %2
  %16 = icmp slt i64 %15, 0
  %17 = select i1 %16, i32 7273300, i32 -1989465495
  store i32 %17, i32* %9
  br label %44

; <label>:18:                                     ; preds = %11
  %19 = load i64, i64* %4, align 8
  %20 = sub i64 0, 9842606819538926
  %21 = sub i64 %20, %19
  %22 = add i64 %21, 9842606819538926
  %23 = sub nsw i64 0, %19
  %24 = srem i64 %22, 1000000007
  %25 = add i64 1000000007, -846150635451962925
  %26 = sub i64 %25, %24
  %27 = sub i64 %26, -846150635451962925
  %28 = sub nsw i64 1000000007, %24
  store i32 -758728717, i32* %9
  store i64 %27, i64* %10
  br label %44

; <label>:29:                                     ; preds = %11
  %30 = load i64, i64* %4, align 8
  %31 = srem i64 %30, 1000000007
  store i32 -758728717, i32* %9
  store i64 %31, i64* %10
  br label %44

; <label>:32:                                     ; preds = %11
  %33 = load i64, i64* %10
  store i64 %33, i64* %4, align 8
  %34 = load i64, i64* %4, align 8
  %35 = icmp sge i64 %34, 1000000007
  %36 = select i1 %35, i32 -2082271972, i32 -136148288
  store i32 %36, i32* %9
  br label %44

; <label>:37:                                     ; preds = %11
  %38 = load i64, i64* %4, align 8
  %39 = sub i64 0, 1000000007
  %40 = add i64 %38, %39
  %41 = sub nsw i64 %38, 1000000007
  store i64 %40, i64* %4, align 8
  store i32 -136148288, i32* %9
  br label %44

; <label>:42:                                     ; preds = %11
  %43 = load i64, i64* %4, align 8
  ret i64 %43

; <label>:44:                                     ; preds = %37, %32, %29, %18, %14, %13
  br label %11
}

; Function Attrs: noinline nounwind uwtable
define linkonce_odr i64 @_Z7ext_gcdIxET_S0_S0_RS0_S1_(i64, i64, i64* dereferenceable(8), i64* dereferenceable(8)) #4 comdat {
  %5 = alloca i64*
  %6 = alloca i64*
  %7 = alloca i64*
  %8 = alloca i64*
  %9 = alloca i64*
  %10 = alloca i64*
  %11 = alloca i64**
  %12 = alloca i64**
  %13 = alloca i64*
  %14 = alloca i64*
  %15 = alloca i1
  %16 = alloca i1
  %17 = load i32, i32* @x.3
  %18 = load i32, i32* @y.4
  %19 = add i32 %17, -1681455474
  %20 = sub i32 %19, 1
  %21 = sub i32 %20, -1681455474
  %22 = sub i32 %17, 1
  %23 = mul i32 %17, %21
  %24 = urem i32 %23, 2
  %25 = icmp eq i32 %24, 0
  store i1 %25, i1* %16
  %26 = icmp slt i32 %18, 10
  store i1 %26, i1* %15
  %27 = alloca i32
  store i32 1642467999, i32* %27
  br label %28

; <label>:28:                                     ; preds = %4, %161
  %29 = load i32, i32* %27
  switch i32 %29, label %30 [
    i32 1642467999, label %31
    i32 2081512660, label %39
    i32 -597114055, label %74
    i32 -551573385, label %75
    i32 -1688246748, label %80
    i32 869392195, label %145
    i32 868232596, label %148
  ]

; <label>:30:                                     ; preds = %28
  br label %161

; <label>:31:                                     ; preds = %28
  %32 = load volatile i1, i1* %16
  %33 = load volatile i1, i1* %15
  %34 = and i1 %32, %33
  %35 = xor i1 %32, %33
  %36 = or i1 %34, %35
  %37 = or i1 %32, %33
  %38 = select i1 %36, i32 2081512660, i32 868232596
  store i32 %38, i32* %27
  br label %161

; <label>:39:                                     ; preds = %28
  %40 = alloca i64, align 8
  store i64* %40, i64** %14
  %41 = alloca i64, align 8
  store i64* %41, i64** %13
  %42 = alloca i64*, align 8
  store i64** %42, i64*** %12
  %43 = alloca i64*, align 8
  store i64** %43, i64*** %11
  %44 = alloca i64, align 8
  store i64* %44, i64** %10
  %45 = alloca i64, align 8
  store i64* %45, i64** %9
  %46 = alloca i64, align 8
  store i64* %46, i64** %8
  %47 = alloca i64, align 8
  store i64* %47, i64** %7
  %48 = alloca i64, align 8
  store i64* %48, i64** %6
  %49 = alloca i64, align 8
  store i64* %49, i64** %5
  %50 = load volatile i64*, i64** %14
  store i64 %0, i64* %50, align 8
  %51 = load volatile i64*, i64** %13
  store i64 %1, i64* %51, align 8
  %52 = load volatile i64**, i64*** %12
  store i64* %2, i64** %52, align 8
  %53 = load volatile i64**, i64*** %11
  store i64* %3, i64** %53, align 8
  %54 = load volatile i64**, i64*** %12
  %55 = load i64*, i64** %54, align 8
  store i64 1, i64* %55, align 8
  %56 = load volatile i64**, i64*** %11
  %57 = load i64*, i64** %56, align 8
  store i64 0, i64* %57, align 8
  %58 = load volatile i64*, i64** %10
  store i64 0, i64* %58, align 8
  %59 = load volatile i64*, i64** %9
  store i64 1, i64* %59, align 8
  %60 = load i32, i32* @x.3
  %61 = load i32, i32* @y.4
  %62 = sub i32 0, 1
  %63 = add i32 %60, %62
  %64 = sub i32 %60, 1
  %65 = mul i32 %60, %63
  %66 = urem i32 %65, 2
  %67 = icmp eq i32 %66, 0
  %68 = icmp slt i32 %61, 10
  %69 = and i1 %67, %68
  %70 = xor i1 %67, %68
  %71 = or i1 %69, %70
  %72 = or i1 %67, %68
  %73 = select i1 %71, i32 -597114055, i32 868232596
  store i32 %73, i32* %27
  br label %161

; <label>:74:                                     ; preds = %28
  store i32 -551573385, i32* %27
  br label %161

; <label>:75:                                     ; preds = %28
  %76 = load volatile i64*, i64** %13
  %77 = load i64, i64* %76, align 8
  %78 = icmp ne i64 %77, 0
  %79 = select i1 %78, i32 -1688246748, i32 869392195
  store i32 %79, i32* %27
  br label %161

; <label>:80:                                     ; preds = %28
  %81 = load volatile i64*, i64** %14
  %82 = load i64, i64* %81, align 8
  %83 = load volatile i64*, i64** %13
  %84 = load i64, i64* %83, align 8
  %85 = sdiv i64 %82, %84
  %86 = load volatile i64*, i64** %6
  store i64 %85, i64* %86, align 8
  %87 = load volatile i64**, i64*** %12
  %88 = load i64*, i64** %87, align 8
  %89 = load i64, i64* %88, align 8
  %90 = load volatile i64*, i64** %6
  %91 = load i64, i64* %90, align 8
  %92 = load volatile i64*, i64** %10
  %93 = load i64, i64* %92, align 8
  %94 = mul nsw i64 %91, %93
  %95 = add i64 %89, 645149698175946492
  %96 = sub i64 %95, %94
  %97 = sub i64 %96, 645149698175946492
  %98 = sub nsw i64 %89, %94
  %99 = load volatile i64*, i64** %8
  store i64 %97, i64* %99, align 8
  %100 = load volatile i64**, i64*** %11
  %101 = load i64*, i64** %100, align 8
  %102 = load i64, i64* %101, align 8
  %103 = load volatile i64*, i64** %6
  %104 = load i64, i64* %103, align 8
  %105 = load volatile i64*, i64** %9
  %106 = load i64, i64* %105, align 8
  %107 = mul nsw i64 %104, %106
  %108 = add i64 %102, -6151493786887168627
  %109 = sub i64 %108, %107
  %110 = sub i64 %109, -6151493786887168627
  %111 = sub nsw i64 %102, %107
  %112 = load volatile i64*, i64** %7
  store i64 %110, i64* %112, align 8
  %113 = load volatile i64*, i64** %14
  %114 = load i64, i64* %113, align 8
  %115 = load volatile i64*, i64** %6
  %116 = load i64, i64* %115, align 8
  %117 = load volatile i64*, i64** %13
  %118 = load i64, i64* %117, align 8
  %119 = mul nsw i64 %116, %118
  %120 = add i64 %114, -4144842378873182977
  %121 = sub i64 %120, %119
  %122 = sub i64 %121, -4144842378873182977
  %123 = sub nsw i64 %114, %119
  %124 = load volatile i64*, i64** %5
  store i64 %122, i64* %124, align 8
  %125 = load volatile i64*, i64** %10
  %126 = load i64, i64* %125, align 8
  %127 = load volatile i64**, i64*** %12
  %128 = load i64*, i64** %127, align 8
  store i64 %126, i64* %128, align 8
  %129 = load volatile i64*, i64** %9
  %130 = load i64, i64* %129, align 8
  %131 = load volatile i64**, i64*** %11
  %132 = load i64*, i64** %131, align 8
  store i64 %130, i64* %132, align 8
  %133 = load volatile i64*, i64** %13
  %134 = load i64, i64* %133, align 8
  %135 = load volatile i64*, i64** %14
  store i64 %134, i64* %135, align 8
  %136 = load volatile i64*, i64** %8
  %137 = load i64, i64* %136, align 8
  %138 = load volatile i64*, i64** %10
  store i64 %137, i64* %138, align 8
  %139 = load volatile i64*, i64** %7
  %140 = load i64, i64* %139, align 8
  %141 = load volatile i64*, i64** %9
  store i64 %140, i64* %141, align 8
  %142 = load volatile i64*, i64** %5
  %143 = load i64, i64* %142, align 8
  %144 = load volatile i64*, i64** %13
  store i64 %143, i64* %144, align 8
  store i32 -551573385, i32* %27
  br label %161

; <label>:145:                                    ; preds = %28
  %146 = load volatile i64*, i64** %14
  %147 = load i64, i64* %146, align 8
  ret i64 %147

; <label>:148:                                    ; preds = %28
  %149 = alloca i64, align 8
  %150 = alloca i64, align 8
  %151 = alloca i64*, align 8
  %152 = alloca i64*, align 8
  %153 = alloca i64, align 8
  %154 = alloca i64, align 8
  %155 = alloca i64, align 8
  %156 = alloca i64, align 8
  %157 = alloca i64, align 8
  %158 = alloca i64, align 8
  store i64 %0, i64* %149, align 8
  store i64 %1, i64* %150, align 8
  store i64* %2, i64** %151, align 8
  store i64* %3, i64** %152, align 8
  %159 = load i64*, i64** %151, align 8
  store i64 1, i64* %159, align 8
  %160 = load i64*, i64** %152, align 8
  store i64 0, i64* %160, align 8
  store i64 0, i64* %153, align 8
  store i64 1, i64* %154, align 8
  store i32 2081512660, i32* %27
  br label %161

; <label>:161:                                    ; preds = %148, %80, %75, %74, %39, %31, %30
  br label %28
}

; Function Attrs: noinline norecurse uwtable
define i32 @main() #5 personality i8* bitcast (i32 (...)* @__gxx_personality_v0 to i8*) {
  %1 = alloca i32, align 4
  %2 = alloca i32, align 4
  %3 = alloca %"class.std::vector", align 8
  %4 = alloca %"class.std::allocator", align 1
  %5 = alloca i8*
  %6 = alloca i32
  %7 = alloca %"class.std::vector"*, align 8
  %8 = alloca %"class.__gnu_cxx::__normal_iterator", align 8
  %9 = alloca %"class.__gnu_cxx::__normal_iterator", align 8
  %10 = alloca i64*, align 8
  %11 = alloca %"class.std::vector", align 8
  %12 = alloca %"class.std::allocator", align 1
  %13 = alloca i32, align 4
  %14 = alloca i64, align 8
  %15 = alloca i64, align 8
  %16 = alloca i32, align 4
  %17 = alloca i32, align 4
  %18 = alloca i32, align 4
  store i32 0, i32* %1, align 4
  %19 = call dereferenceable(280) %"class.std::basic_istream"* @_ZNSirsERi(%"class.std::basic_istream"* @_ZSt3cin, i32* dereferenceable(4) %2)
  %20 = load i32, i32* %2, align 4
  %21 = sext i32 %20 to i64
  call void @_ZNSaIxEC2Ev(%"class.std::allocator"* %4) #3
  invoke void @_ZNSt6vectorIxSaIxEEC2EmRKS0_(%"class.std::vector"* %3, i64 %21, %"class.std::allocator"* dereferenceable(1) %4)
          to label %22 unwind label %121

; <label>:22:                                     ; preds = %0
  call void @_ZNSaIxED2Ev(%"class.std::allocator"* %4) #3
  store %"class.std::vector"* %3, %"class.std::vector"** %7, align 8
  %23 = load %"class.std::vector"*, %"class.std::vector"** %7, align 8
  %24 = call i64* @_ZNSt6vectorIxSaIxEE5beginEv(%"class.std::vector"* %23) #3
  %25 = getelementptr inbounds %"class.__gnu_cxx::__normal_iterator", %"class.__gnu_cxx::__normal_iterator"* %8, i32 0, i32 0
  store i64* %24, i64** %25, align 8
  %26 = load %"class.std::vector"*, %"class.std::vector"** %7, align 8
  %27 = call i64* @_ZNSt6vectorIxSaIxEE3endEv(%"class.std::vector"* %26) #3
  %28 = getelementptr inbounds %"class.__gnu_cxx::__normal_iterator", %"class.__gnu_cxx::__normal_iterator"* %9, i32 0, i32 0
  store i64* %27, i64** %28, align 8
  br label %29

; <label>:29:                                     ; preds = %119, %22
  %30 = load i32, i32* @x.5
  %31 = load i32, i32* @y.6
  %32 = add i32 %30, 464421035
  %33 = sub i32 %32, 1
  %34 = sub i32 %33, 464421035
  %35 = sub i32 %30, 1
  %36 = mul i32 %30, %34
  %37 = urem i32 %36, 2
  %38 = icmp eq i32 %37, 0
  %39 = icmp slt i32 %31, 10
  %40 = and i1 %38, %39
  %41 = xor i1 %38, %39
  %42 = or i1 %40, %41
  %43 = or i1 %38, %39
  br i1 %42, label %44, label %733

; <label>:44:                                     ; preds = %29, %733
  %45 = call zeroext i1 @_ZN9__gnu_cxxneIPxSt6vectorIxSaIxEEEEbRKNS_17__normal_iteratorIT_T0_EESA_(%"class.__gnu_cxx::__normal_iterator"* dereferenceable(8) %8, %"class.__gnu_cxx::__normal_iterator"* dereferenceable(8) %9) #3
  %46 = load i32, i32* @x.5
  %47 = load i32, i32* @y.6
  %48 = sub i32 %46, 1541126547
  %49 = sub i32 %48, 1
  %50 = add i32 %49, 1541126547
  %51 = sub i32 %46, 1
  %52 = mul i32 %46, %50
  %53 = urem i32 %52, 2
  %54 = icmp eq i32 %53, 0
  %55 = icmp slt i32 %47, 10
  %56 = xor i1 %54, true
  %57 = xor i1 %55, true
  %58 = xor i1 true, true
  %59 = and i1 %56, true
  %60 = and i1 %54, %58
  %61 = and i1 %57, true
  %62 = and i1 %55, %58
  %63 = or i1 %59, %60
  %64 = or i1 %61, %62
  %65 = xor i1 %63, %64
  %66 = or i1 %56, %57
  %67 = xor i1 %66, true
  %68 = or i1 true, %58
  %69 = and i1 %67, %68
  %70 = or i1 %65, %69
  %71 = or i1 %54, %55
  br i1 %70, label %72, label %733

; <label>:72:                                     ; preds = %44
  br i1 %45, label %73, label %129

; <label>:73:                                     ; preds = %72
  %74 = load i32, i32* @x.5
  %75 = load i32, i32* @y.6
  %76 = sub i32 %74, 542311241
  %77 = sub i32 %76, 1
  %78 = add i32 %77, 542311241
  %79 = sub i32 %74, 1
  %80 = mul i32 %74, %78
  %81 = urem i32 %80, 2
  %82 = icmp eq i32 %81, 0
  %83 = icmp slt i32 %75, 10
  %84 = xor i1 %82, true
  %85 = xor i1 %83, true
  %86 = xor i1 true, true
  %87 = and i1 %84, true
  %88 = and i1 %82, %86
  %89 = and i1 %85, true
  %90 = and i1 %83, %86
  %91 = or i1 %87, %88
  %92 = or i1 %89, %90
  %93 = xor i1 %91, %92
  %94 = or i1 %84, %85
  %95 = xor i1 %94, true
  %96 = or i1 true, %86
  %97 = and i1 %95, %96
  %98 = or i1 %93, %97
  %99 = or i1 %82, %83
  br i1 %98, label %100, label %735

; <label>:100:                                    ; preds = %73, %735
  %101 = call dereferenceable(8) i64* @_ZNK9__gnu_cxx17__normal_iteratorIPxSt6vectorIxSaIxEEEdeEv(%"class.__gnu_cxx::__normal_iterator"* %8) #3
  store i64* %101, i64** %10, align 8
  %102 = load i64*, i64** %10, align 8
  %103 = load i32, i32* @x.5
  %104 = load i32, i32* @y.6
  %105 = sub i32 0, 1
  %106 = add i32 %103, %105
  %107 = sub i32 %103, 1
  %108 = mul i32 %103, %106
  %109 = urem i32 %108, 2
  %110 = icmp eq i32 %109, 0
  %111 = icmp slt i32 %104, 10
  %112 = and i1 %110, %111
  %113 = xor i1 %110, %111
  %114 = or i1 %112, %113
  %115 = or i1 %110, %111
  br i1 %114, label %116, label %735

; <label>:116:                                    ; preds = %100
  %117 = invoke dereferenceable(280) %"class.std::basic_istream"* @_ZNSirsERx(%"class.std::basic_istream"* @_ZSt3cin, i64* dereferenceable(8) %102)
          to label %118 unwind label %125

; <label>:118:                                    ; preds = %116
  br label %119

; <label>:119:                                    ; preds = %118
  %120 = call dereferenceable(8) %"class.__gnu_cxx::__normal_iterator"* @_ZN9__gnu_cxx17__normal_iteratorIPxSt6vectorIxSaIxEEEppEv(%"class.__gnu_cxx::__normal_iterator"* %8) #3
  br label %29

; <label>:121:                                    ; preds = %0
  %122 = landingpad { i8*, i32 }
          cleanup
  %123 = extractvalue { i8*, i32 } %122, 0
  store i8* %123, i8** %5, align 8
  %124 = extractvalue { i8*, i32 } %122, 1
  store i32 %124, i32* %6, align 4
  call void @_ZNSaIxED2Ev(%"class.std::allocator"* %4) #3
  br label %728

; <label>:125:                                    ; preds = %116
  %126 = landingpad { i8*, i32 }
          cleanup
  %127 = extractvalue { i8*, i32 } %126, 0
  store i8* %127, i8** %5, align 8
  %128 = extractvalue { i8*, i32 } %126, 1
  store i32 %128, i32* %6, align 4
  br label %727

; <label>:129:                                    ; preds = %72
  %130 = load i32, i32* %2, align 4
  %131 = sub i32 0, %130
  %132 = sub i32 0, 2
  %133 = add i32 %131, %132
  %134 = sub i32 0, %133
  %135 = add nsw i32 %130, 2
  %136 = sext i32 %134 to i64
  call void @_ZNSaIxEC2Ev(%"class.std::allocator"* %12) #3
  invoke void @_ZNSt6vectorIxSaIxEEC2EmRKS0_(%"class.std::vector"* %11, i64 %136, %"class.std::allocator"* dereferenceable(1) %12)
          to label %137 unwind label %309

; <label>:137:                                    ; preds = %129
  %138 = load i32, i32* @x.5
  %139 = load i32, i32* @y.6
  %140 = sub i32 %138, -1314319891
  %141 = sub i32 %140, 1
  %142 = add i32 %141, -1314319891
  %143 = sub i32 %138, 1
  %144 = mul i32 %138, %142
  %145 = urem i32 %144, 2
  %146 = icmp eq i32 %145, 0
  %147 = icmp slt i32 %139, 10
  %148 = and i1 %146, %147
  %149 = xor i1 %146, %147
  %150 = or i1 %148, %149
  %151 = or i1 %146, %147
  br i1 %150, label %152, label %738

; <label>:152:                                    ; preds = %137, %738
  call void @_ZNSaIxED2Ev(%"class.std::allocator"* %12) #3
  store i32 1, i32* %13, align 4
  %153 = load i32, i32* @x.5
  %154 = load i32, i32* @y.6
  %155 = add i32 %153, 1374711738
  %156 = sub i32 %155, 1
  %157 = sub i32 %156, 1374711738
  %158 = sub i32 %153, 1
  %159 = mul i32 %153, %157
  %160 = urem i32 %159, 2
  %161 = icmp eq i32 %160, 0
  %162 = icmp slt i32 %154, 10
  %163 = xor i1 %161, true
  %164 = xor i1 %162, true
  %165 = xor i1 false, true
  %166 = and i1 %163, false
  %167 = and i1 %161, %165
  %168 = and i1 %164, false
  %169 = and i1 %162, %165
  %170 = or i1 %166, %167
  %171 = or i1 %168, %169
  %172 = xor i1 %170, %171
  %173 = or i1 %163, %164
  %174 = xor i1 %173, true
  %175 = or i1 false, %165
  %176 = and i1 %174, %175
  %177 = or i1 %172, %176
  %178 = or i1 %161, %162
  br i1 %177, label %179, label %738

; <label>:179:                                    ; preds = %152
  br label %180

; <label>:180:                                    ; preds = %308, %179
  %181 = load i32, i32* %13, align 4
  %182 = load i32, i32* %2, align 4
  %183 = sub i32 %182, 291288805
  %184 = add i32 %183, 1
  %185 = add i32 %184, 291288805
  %186 = add nsw i32 %182, 1
  %187 = icmp sle i32 %181, %185
  br i1 %187, label %188, label %317

; <label>:188:                                    ; preds = %180
  %189 = load i32, i32* @x.5
  %190 = load i32, i32* @y.6
  %191 = sub i32 %189, 835837249
  %192 = sub i32 %191, 1
  %193 = add i32 %192, 835837249
  %194 = sub i32 %189, 1
  %195 = mul i32 %189, %193
  %196 = urem i32 %195, 2
  %197 = icmp eq i32 %196, 0
  %198 = icmp slt i32 %190, 10
  %199 = xor i1 %197, true
  %200 = xor i1 %198, true
  %201 = xor i1 true, true
  %202 = and i1 %199, true
  %203 = and i1 %197, %201
  %204 = and i1 %200, true
  %205 = and i1 %198, %201
  %206 = or i1 %202, %203
  %207 = or i1 %204, %205
  %208 = xor i1 %206, %207
  %209 = or i1 %199, %200
  %210 = xor i1 %209, true
  %211 = or i1 true, %201
  %212 = and i1 %210, %211
  %213 = or i1 %208, %212
  %214 = or i1 %197, %198
  br i1 %213, label %215, label %739

; <label>:215:                                    ; preds = %188, %739
  %216 = load i32, i32* %13, align 4
  %217 = sext i32 %216 to i64
  %218 = load i32, i32* @x.5
  %219 = load i32, i32* @y.6
  %220 = add i32 %218, -228679275
  %221 = sub i32 %220, 1
  %222 = sub i32 %221, -228679275
  %223 = sub i32 %218, 1
  %224 = mul i32 %218, %222
  %225 = urem i32 %224, 2
  %226 = icmp eq i32 %225, 0
  %227 = icmp slt i32 %219, 10
  %228 = xor i1 %226, true
  %229 = xor i1 %227, true
  %230 = xor i1 false, true
  %231 = and i1 %228, false
  %232 = and i1 %226, %230
  %233 = and i1 %229, false
  %234 = and i1 %227, %230
  %235 = or i1 %231, %232
  %236 = or i1 %233, %234
  %237 = xor i1 %235, %236
  %238 = or i1 %228, %229
  %239 = xor i1 %238, true
  %240 = or i1 false, %230
  %241 = and i1 %239, %240
  %242 = or i1 %237, %241
  %243 = or i1 %226, %227
  br i1 %242, label %244, label %739

; <label>:244:                                    ; preds = %215
  %245 = invoke i64 @_Z6modinvx(i64 %217)
          to label %246 unwind label %313

; <label>:246:                                    ; preds = %244
  %247 = load i32, i32* %13, align 4
  %248 = sext i32 %247 to i64
  %249 = call dereferenceable(8) i64* @_ZNSt6vectorIxSaIxEEixEm(%"class.std::vector"* %11, i64 %248) #3
  store i64 %245, i64* %249, align 8
  br label %250

; <label>:250:                                    ; preds = %246
  %251 = load i32, i32* @x.5
  %252 = load i32, i32* @y.6
  %253 = sub i32 0, 1
  %254 = add i32 %251, %253
  %255 = sub i32 %251, 1
  %256 = mul i32 %251, %254
  %257 = urem i32 %256, 2
  %258 = icmp eq i32 %257, 0
  %259 = icmp slt i32 %252, 10
  %260 = xor i1 %258, true
  %261 = xor i1 %259, true
  %262 = xor i1 false, true
  %263 = and i1 %260, false
  %264 = and i1 %258, %262
  %265 = and i1 %261, false
  %266 = and i1 %259, %262
  %267 = or i1 %263, %264
  %268 = or i1 %265, %266
  %269 = xor i1 %267, %268
  %270 = or i1 %260, %261
  %271 = xor i1 %270, true
  %272 = or i1 false, %262
  %273 = and i1 %271, %272
  %274 = or i1 %269, %273
  %275 = or i1 %258, %259
  br i1 %274, label %276, label %742

; <label>:276:                                    ; preds = %250, %742
  %277 = load i32, i32* %13, align 4
  %278 = add i32 %277, -611870300
  %279 = add i32 %278, 1
  %280 = sub i32 %279, -611870300
  %281 = add nsw i32 %277, 1
  store i32 %280, i32* %13, align 4
  %282 = load i32, i32* @x.5
  %283 = load i32, i32* @y.6
  %284 = add i32 %282, 864854348
  %285 = sub i32 %284, 1
  %286 = sub i32 %285, 864854348
  %287 = sub i32 %282, 1
  %288 = mul i32 %282, %286
  %289 = urem i32 %288, 2
  %290 = icmp eq i32 %289, 0
  %291 = icmp slt i32 %283, 10
  %292 = xor i1 %290, true
  %293 = xor i1 %291, true
  %294 = xor i1 true, true
  %295 = and i1 %292, true
  %296 = and i1 %290, %294
  %297 = and i1 %293, true
  %298 = and i1 %291, %294
  %299 = or i1 %295, %296
  %300 = or i1 %297, %298
  %301 = xor i1 %299, %300
  %302 = or i1 %292, %293
  %303 = xor i1 %302, true
  %304 = or i1 true, %294
  %305 = and i1 %303, %304
  %306 = or i1 %301, %305
  %307 = or i1 %290, %291
  br i1 %306, label %308, label %742

; <label>:308:                                    ; preds = %276
  br label %180

; <label>:309:                                    ; preds = %129
  %310 = landingpad { i8*, i32 }
          cleanup
  %311 = extractvalue { i8*, i32 } %310, 0
  store i8* %311, i8** %5, align 8
  %312 = extractvalue { i8*, i32 } %310, 1
  store i32 %312, i32* %6, align 4
  call void @_ZNSaIxED2Ev(%"class.std::allocator"* %12) #3
  br label %727

; <label>:313:                                    ; preds = %681, %679, %244
  %314 = landingpad { i8*, i32 }
          cleanup
  %315 = extractvalue { i8*, i32 } %314, 0
  store i8* %315, i8** %5, align 8
  %316 = extractvalue { i8*, i32 } %314, 1
  store i32 %316, i32* %6, align 4
  call void @_ZNSt6vectorIxSaIxEED2Ev(%"class.std::vector"* %11) #3
  br label %727

; <label>:317:                                    ; preds = %180
  store i64 0, i64* %14, align 8
  store i64 0, i64* %15, align 8
  store i32 1, i32* %16, align 4
  br label %318

; <label>:318:                                    ; preds = %380, %317
  %319 = load i32, i32* %16, align 4
  %320 = load i32, i32* %2, align 4
  %321 = icmp sle i32 %319, %320
  br i1 %321, label %322, label %381

; <label>:322:                                    ; preds = %318
  %323 = load i32, i32* %16, align 4
  %324 = sext i32 %323 to i64
  %325 = call dereferenceable(8) i64* @_ZNSt6vectorIxSaIxEEixEm(%"class.std::vector"* %11, i64 %324) #3
  %326 = load i64, i64* %325, align 8
  %327 = load i64, i64* %14, align 8
  %328 = sub i64 %327, 8110852037398857596
  %329 = add i64 %328, %326
  %330 = add i64 %329, 8110852037398857596
  %331 = add nsw i64 %327, %326
  store i64 %330, i64* %14, align 8
  %332 = load i64, i64* %14, align 8
  %333 = srem i64 %332, 1000000007
  store i64 %333, i64* %14, align 8
  br label %334

; <label>:334:                                    ; preds = %322
  %335 = load i32, i32* @x.5
  %336 = load i32, i32* @y.6
  %337 = sub i32 %335, 1270875195
  %338 = sub i32 %337, 1
  %339 = add i32 %338, 1270875195
  %340 = sub i32 %335, 1
  %341 = mul i32 %335, %339
  %342 = urem i32 %341, 2
  %343 = icmp eq i32 %342, 0
  %344 = icmp slt i32 %336, 10
  %345 = xor i1 %343, true
  %346 = xor i1 %344, true
  %347 = xor i1 false, true
  %348 = and i1 %345, false
  %349 = and i1 %343, %347
  %350 = and i1 %346, false
  %351 = and i1 %344, %347
  %352 = or i1 %348, %349
  %353 = or i1 %350, %351
  %354 = xor i1 %352, %353
  %355 = or i1 %345, %346
  %356 = xor i1 %355, true
  %357 = or i1 false, %347
  %358 = and i1 %356, %357
  %359 = or i1 %354, %358
  %360 = or i1 %343, %344
  br i1 %359, label %361, label %760

; <label>:361:                                    ; preds = %334, %760
  %362 = load i32, i32* %16, align 4
  %363 = add i32 %362, -1465089001
  %364 = add i32 %363, 1
  %365 = sub i32 %364, -1465089001
  %366 = add nsw i32 %362, 1
  store i32 %365, i32* %16, align 4
  %367 = load i32, i32* @x.5
  %368 = load i32, i32* @y.6
  %369 = sub i32 0, 1
  %370 = add i32 %367, %369
  %371 = sub i32 %367, 1
  %372 = mul i32 %367, %370
  %373 = urem i32 %372, 2
  %374 = icmp eq i32 %373, 0
  %375 = icmp slt i32 %368, 10
  %376 = and i1 %374, %375
  %377 = xor i1 %374, %375
  %378 = or i1 %376, %377
  %379 = or i1 %374, %375
  br i1 %378, label %380, label %760

; <label>:380:                                    ; preds = %361
  br label %318

; <label>:381:                                    ; preds = %318
  %382 = load i32, i32* @x.5
  %383 = load i32, i32* @y.6
  %384 = add i32 %382, 911944015
  %385 = sub i32 %384, 1
  %386 = sub i32 %385, 911944015
  %387 = sub i32 %382, 1
  %388 = mul i32 %382, %386
  %389 = urem i32 %388, 2
  %390 = icmp eq i32 %389, 0
  %391 = icmp slt i32 %383, 10
  %392 = xor i1 %390, true
  %393 = xor i1 %391, true
  %394 = xor i1 false, true
  %395 = and i1 %392, false
  %396 = and i1 %390, %394
  %397 = and i1 %393, false
  %398 = and i1 %391, %394
  %399 = or i1 %395, %396
  %400 = or i1 %397, %398
  %401 = xor i1 %399, %400
  %402 = or i1 %392, %393
  %403 = xor i1 %402, true
  %404 = or i1 false, %394
  %405 = and i1 %403, %404
  %406 = or i1 %401, %405
  %407 = or i1 %390, %391
  br i1 %406, label %408, label %787

; <label>:408:                                    ; preds = %381, %787
  store i32 0, i32* %17, align 4
  %409 = load i32, i32* @x.5
  %410 = load i32, i32* @y.6
  %411 = sub i32 0, 1
  %412 = add i32 %409, %411
  %413 = sub i32 %409, 1
  %414 = mul i32 %409, %412
  %415 = urem i32 %414, 2
  %416 = icmp eq i32 %415, 0
  %417 = icmp slt i32 %410, 10
  %418 = and i1 %416, %417
  %419 = xor i1 %416, %417
  %420 = or i1 %418, %419
  %421 = or i1 %416, %417
  br i1 %420, label %422, label %787

; <label>:422:                                    ; preds = %408
  br label %423

; <label>:423:                                    ; preds = %531, %422
  %424 = load i32, i32* @x.5
  %425 = load i32, i32* @y.6
  %426 = sub i32 0, 1
  %427 = add i32 %424, %426
  %428 = sub i32 %424, 1
  %429 = mul i32 %424, %427
  %430 = urem i32 %429, 2
  %431 = icmp eq i32 %430, 0
  %432 = icmp slt i32 %425, 10
  %433 = xor i1 %431, true
  %434 = xor i1 %432, true
  %435 = xor i1 true, true
  %436 = and i1 %433, true
  %437 = and i1 %431, %435
  %438 = and i1 %434, true
  %439 = and i1 %432, %435
  %440 = or i1 %436, %437
  %441 = or i1 %438, %439
  %442 = xor i1 %440, %441
  %443 = or i1 %433, %434
  %444 = xor i1 %443, true
  %445 = or i1 true, %435
  %446 = and i1 %444, %445
  %447 = or i1 %442, %446
  %448 = or i1 %431, %432
  br i1 %447, label %449, label %788

; <label>:449:                                    ; preds = %423, %788
  %450 = load i32, i32* %17, align 4
  %451 = load i32, i32* %2, align 4
  %452 = icmp slt i32 %450, %451
  %453 = load i32, i32* @x.5
  %454 = load i32, i32* @y.6
  %455 = sub i32 %453, 1710814363
  %456 = sub i32 %455, 1
  %457 = add i32 %456, 1710814363
  %458 = sub i32 %453, 1
  %459 = mul i32 %453, %457
  %460 = urem i32 %459, 2
  %461 = icmp eq i32 %460, 0
  %462 = icmp slt i32 %454, 10
  %463 = xor i1 %461, true
  %464 = xor i1 %462, true
  %465 = xor i1 false, true
  %466 = and i1 %463, false
  %467 = and i1 %461, %465
  %468 = and i1 %464, false
  %469 = and i1 %462, %465
  %470 = or i1 %466, %467
  %471 = or i1 %468, %469
  %472 = xor i1 %470, %471
  %473 = or i1 %463, %464
  %474 = xor i1 %473, true
  %475 = or i1 false, %465
  %476 = and i1 %474, %475
  %477 = or i1 %472, %476
  %478 = or i1 %461, %462
  br i1 %477, label %479, label %788

; <label>:479:                                    ; preds = %449
  br i1 %452, label %480, label %537

; <label>:480:                                    ; preds = %479
  %481 = load i64, i64* %14, align 8
  %482 = load i32, i32* %17, align 4
  %483 = sext i32 %482 to i64
  %484 = call dereferenceable(8) i64* @_ZNSt6vectorIxSaIxEEixEm(%"class.std::vector"* %3, i64 %483) #3
  %485 = load i64, i64* %484, align 8
  %486 = mul nsw i64 %481, %485
  %487 = load i64, i64* %15, align 8
  %488 = sub i64 %487, 5447247425361137165
  %489 = add i64 %488, %486
  %490 = add i64 %489, 5447247425361137165
  %491 = add nsw i64 %487, %486
  store i64 %490, i64* %15, align 8
  %492 = load i64, i64* %15, align 8
  %493 = srem i64 %492, 1000000007
  store i64 %493, i64* %15, align 8
  %494 = load i32, i32* %17, align 4
  %495 = sub i32 %494, -1361441151
  %496 = add i32 %495, 2
  %497 = add i32 %496, -1361441151
  %498 = add nsw i32 %494, 2
  %499 = sext i32 %497 to i64
  %500 = call dereferenceable(8) i64* @_ZNSt6vectorIxSaIxEEixEm(%"class.std::vector"* %11, i64 %499) #3
  %501 = load i64, i64* %500, align 8
  %502 = load i32, i32* %2, align 4
  %503 = load i32, i32* %17, align 4
  %504 = add i32 %502, 918878854
  %505 = sub i32 %504, %503
  %506 = sub i32 %505, 918878854
  %507 = sub nsw i32 %502, %503
  %508 = sext i32 %506 to i64
  %509 = call dereferenceable(8) i64* @_ZNSt6vectorIxSaIxEEixEm(%"class.std::vector"* %11, i64 %508) #3
  %510 = load i64, i64* %509, align 8
  %511 = add i64 %501, -105703618449890075
  %512 = sub i64 %511, %510
  %513 = sub i64 %512, -105703618449890075
  %514 = sub nsw i64 %501, %510
  %515 = load i64, i64* %14, align 8
  %516 = sub i64 %515, -7553047145607832042
  %517 = add i64 %516, %513
  %518 = add i64 %517, -7553047145607832042
  %519 = add nsw i64 %515, %513
  store i64 %518, i64* %14, align 8
  %520 = load i64, i64* %14, align 8
  %521 = icmp slt i64 %520, 0
  br i1 %521, label %522, label %528

; <label>:522:                                    ; preds = %480
  %523 = load i64, i64* %14, align 8
  %524 = sub i64 %523, 8400730543417997005
  %525 = add i64 %524, 1000000007
  %526 = add i64 %525, 8400730543417997005
  %527 = add nsw i64 %523, 1000000007
  store i64 %526, i64* %14, align 8
  br label %528

; <label>:528:                                    ; preds = %522, %480
  %529 = load i64, i64* %14, align 8
  %530 = srem i64 %529, 1000000007
  store i64 %530, i64* %14, align 8
  br label %531

; <label>:531:                                    ; preds = %528
  %532 = load i32, i32* %17, align 4
  %533 = sub i32 %532, 1101006570
  %534 = add i32 %533, 1
  %535 = add i32 %534, 1101006570
  %536 = add nsw i32 %532, 1
  store i32 %535, i32* %17, align 4
  br label %423

; <label>:537:                                    ; preds = %479
  store i32 1, i32* %18, align 4
  br label %538

; <label>:538:                                    ; preds = %631, %537
  %539 = load i32, i32* @x.5
  %540 = load i32, i32* @y.6
  %541 = add i32 %539, -397333514
  %542 = sub i32 %541, 1
  %543 = sub i32 %542, -397333514
  %544 = sub i32 %539, 1
  %545 = mul i32 %539, %543
  %546 = urem i32 %545, 2
  %547 = icmp eq i32 %546, 0
  %548 = icmp slt i32 %540, 10
  %549 = xor i1 %547, true
  %550 = xor i1 %548, true
  %551 = xor i1 false, true
  %552 = and i1 %549, false
  %553 = and i1 %547, %551
  %554 = and i1 %550, false
  %555 = and i1 %548, %551
  %556 = or i1 %552, %553
  %557 = or i1 %554, %555
  %558 = xor i1 %556, %557
  %559 = or i1 %549, %550
  %560 = xor i1 %559, true
  %561 = or i1 false, %551
  %562 = and i1 %560, %561
  %563 = or i1 %558, %562
  %564 = or i1 %547, %548
  br i1 %563, label %565, label %792

; <label>:565:                                    ; preds = %538, %792
  %566 = load i32, i32* %18, align 4
  %567 = load i32, i32* %2, align 4
  %568 = icmp sle i32 %566, %567
  %569 = load i32, i32* @x.5
  %570 = load i32, i32* @y.6
  %571 = sub i32 %569, 621037585
  %572 = sub i32 %571, 1
  %573 = add i32 %572, 621037585
  %574 = sub i32 %569, 1
  %575 = mul i32 %569, %573
  %576 = urem i32 %575, 2
  %577 = icmp eq i32 %576, 0
  %578 = icmp slt i32 %570, 10
  %579 = xor i1 %577, true
  %580 = xor i1 %578, true
  %581 = xor i1 true, true
  %582 = and i1 %579, true
  %583 = and i1 %577, %581
  %584 = and i1 %580, true
  %585 = and i1 %578, %581
  %586 = or i1 %582, %583
  %587 = or i1 %584, %585
  %588 = xor i1 %586, %587
  %589 = or i1 %579, %580
  %590 = xor i1 %589, true
  %591 = or i1 true, %581
  %592 = and i1 %590, %591
  %593 = or i1 %588, %592
  %594 = or i1 %577, %578
  br i1 %593, label %595, label %792

; <label>:595:                                    ; preds = %565
  br i1 %568, label %596, label %637

; <label>:596:                                    ; preds = %595
  %597 = load i32, i32* @x.5
  %598 = load i32, i32* @y.6
  %599 = sub i32 0, 1
  %600 = add i32 %597, %599
  %601 = sub i32 %597, 1
  %602 = mul i32 %597, %600
  %603 = urem i32 %602, 2
  %604 = icmp eq i32 %603, 0
  %605 = icmp slt i32 %598, 10
  %606 = and i1 %604, %605
  %607 = xor i1 %604, %605
  %608 = or i1 %606, %607
  %609 = or i1 %604, %605
  br i1 %608, label %610, label %796

; <label>:610:                                    ; preds = %596, %796
  %611 = load i32, i32* %18, align 4
  %612 = sext i32 %611 to i64
  %613 = load i64, i64* %15, align 8
  %614 = mul nsw i64 %613, %612
  store i64 %614, i64* %15, align 8
  %615 = load i64, i64* %15, align 8
  %616 = srem i64 %615, 1000000007
  store i64 %616, i64* %15, align 8
  %617 = load i32, i32* @x.5
  %618 = load i32, i32* @y.6
  %619 = sub i32 0, 1
  %620 = add i32 %617, %619
  %621 = sub i32 %617, 1
  %622 = mul i32 %617, %620
  %623 = urem i32 %622, 2
  %624 = icmp eq i32 %623, 0
  %625 = icmp slt i32 %618, 10
  %626 = and i1 %624, %625
  %627 = xor i1 %624, %625
  %628 = or i1 %626, %627
  %629 = or i1 %624, %625
  br i1 %628, label %630, label %796

; <label>:630:                                    ; preds = %610
  br label %631

; <label>:631:                                    ; preds = %630
  %632 = load i32, i32* %18, align 4
  %633 = sub i32 %632, 2077949943
  %634 = add i32 %633, 1
  %635 = add i32 %634, 2077949943
  %636 = add nsw i32 %632, 1
  store i32 %635, i32* %18, align 4
  br label %538

; <label>:637:                                    ; preds = %595
  %638 = load i32, i32* @x.5
  %639 = load i32, i32* @y.6
  %640 = sub i32 0, 1
  %641 = add i32 %638, %640
  %642 = sub i32 %638, 1
  %643 = mul i32 %638, %641
  %644 = urem i32 %643, 2
  %645 = icmp eq i32 %644, 0
  %646 = icmp slt i32 %639, 10
  %647 = xor i1 %645, true
  %648 = xor i1 %646, true
  %649 = xor i1 true, true
  %650 = and i1 %647, true
  %651 = and i1 %645, %649
  %652 = and i1 %648, true
  %653 = and i1 %646, %649
  %654 = or i1 %650, %651
  %655 = or i1 %652, %653
  %656 = xor i1 %654, %655
  %657 = or i1 %647, %648
  %658 = xor i1 %657, true
  %659 = or i1 true, %649
  %660 = and i1 %658, %659
  %661 = or i1 %656, %660
  %662 = or i1 %645, %646
  br i1 %661, label %663, label %865

; <label>:663:                                    ; preds = %637, %865
  %664 = load i64, i64* %15, align 8
  %665 = load i32, i32* @x.5
  %666 = load i32, i32* @y.6
  %667 = sub i32 %665, 1636263368
  %668 = sub i32 %667, 1
  %669 = add i32 %668, 1636263368
  %670 = sub i32 %665, 1
  %671 = mul i32 %665, %669
  %672 = urem i32 %671, 2
  %673 = icmp eq i32 %672, 0
  %674 = icmp slt i32 %666, 10
  %675 = and i1 %673, %674
  %676 = xor i1 %673, %674
  %677 = or i1 %675, %676
  %678 = or i1 %673, %674
  br i1 %677, label %679, label %865

; <label>:679:                                    ; preds = %663
  %680 = invoke dereferenceable(272) %"class.std::basic_ostream"* @_ZNSolsEx(%"class.std::basic_ostream"* @_ZSt4cout, i64 %664)
          to label %681 unwind label %313

; <label>:681:                                    ; preds = %679
  %682 = invoke dereferenceable(272) %"class.std::basic_ostream"* @_ZNSolsEPFRSoS_E(%"class.std::basic_ostream"* %680, %"class.std::basic_ostream"* (%"class.std::basic_ostream"*)* @_ZSt4endlIcSt11char_traitsIcEERSt13basic_ostreamIT_T0_ES6_)
          to label %683 unwind label %313

; <label>:683:                                    ; preds = %681
  %684 = load i32, i32* @x.5
  %685 = load i32, i32* @y.6
  %686 = add i32 %684, -223889304
  %687 = sub i32 %686, 1
  %688 = sub i32 %687, -223889304
  %689 = sub i32 %684, 1
  %690 = mul i32 %684, %688
  %691 = urem i32 %690, 2
  %692 = icmp eq i32 %691, 0
  %693 = icmp slt i32 %685, 10
  %694 = and i1 %692, %693
  %695 = xor i1 %692, %693
  %696 = or i1 %694, %695
  %697 = or i1 %692, %693
  br i1 %696, label %698, label %867

; <label>:698:                                    ; preds = %683, %867
  call void @_ZNSt6vectorIxSaIxEED2Ev(%"class.std::vector"* %11) #3
  call void @_ZNSt6vectorIxSaIxEED2Ev(%"class.std::vector"* %3) #3
  %699 = load i32, i32* %1, align 4
  %700 = load i32, i32* @x.5
  %701 = load i32, i32* @y.6
  %702 = add i32 %700, -1083536224
  %703 = sub i32 %702, 1
  %704 = sub i32 %703, -1083536224
  %705 = sub i32 %700, 1
  %706 = mul i32 %700, %704
  %707 = urem i32 %706, 2
  %708 = icmp eq i32 %707, 0
  %709 = icmp slt i32 %701, 10
  %710 = xor i1 %708, true
  %711 = xor i1 %709, true
  %712 = xor i1 false, true
  %713 = and i1 %710, false
  %714 = and i1 %708, %712
  %715 = and i1 %711, false
  %716 = and i1 %709, %712
  %717 = or i1 %713, %714
  %718 = or i1 %715, %716
  %719 = xor i1 %717, %718
  %720 = or i1 %710, %711
  %721 = xor i1 %720, true
  %722 = or i1 false, %712
  %723 = and i1 %721, %722
  %724 = or i1 %719, %723
  %725 = or i1 %708, %709
  br i1 %724, label %726, label %867

; <label>:726:                                    ; preds = %698
  ret i32 %699

; <label>:727:                                    ; preds = %313, %309, %125
  call void @_ZNSt6vectorIxSaIxEED2Ev(%"class.std::vector"* %3) #3
  br label %728

; <label>:728:                                    ; preds = %727, %121
  %729 = load i8*, i8** %5, align 8
  %730 = load i32, i32* %6, align 4
  %731 = insertvalue { i8*, i32 } undef, i8* %729, 0
  %732 = insertvalue { i8*, i32 } %731, i32 %730, 1
  resume { i8*, i32 } %732

; <label>:733:                                    ; preds = %44, %29
  %734 = call zeroext i1 @_ZN9__gnu_cxxneIPxSt6vectorIxSaIxEEEEbRKNS_17__normal_iteratorIT_T0_EESA_(%"class.__gnu_cxx::__normal_iterator"* dereferenceable(8) %8, %"class.__gnu_cxx::__normal_iterator"* dereferenceable(8) %9) #3
  br label %44

; <label>:735:                                    ; preds = %100, %73
  %736 = call dereferenceable(8) i64* @_ZNK9__gnu_cxx17__normal_iteratorIPxSt6vectorIxSaIxEEEdeEv(%"class.__gnu_cxx::__normal_iterator"* %8) #3
  store i64* %736, i64** %10, align 8
  %737 = load i64*, i64** %10, align 8
  br label %100

; <label>:738:                                    ; preds = %152, %137
  call void @_ZNSaIxED2Ev(%"class.std::allocator"* %12) #3
  store i32 1, i32* %13, align 4
  br label %152

; <label>:739:                                    ; preds = %215, %188
  %740 = load i32, i32* %13, align 4
  %741 = sext i32 %740 to i64
  br label %215

; <label>:742:                                    ; preds = %276, %250
  %743 = load i32, i32* %13, align 4
  %744 = add i32 %743, -2022380319
  %745 = sub i32 %744, 1
  %746 = sub i32 %745, -2022380319
  %747 = sub i32 %743, 1
  %748 = mul i32 %746, 1
  %749 = add i32 0, -1173301692
  %750 = sub i32 %749, %743
  %751 = sub i32 %750, -1173301692
  %752 = sub i32 0, %743
  %753 = add i32 %751, -394886324
  %754 = add i32 %753, 1
  %755 = sub i32 %754, -394886324
  %756 = add i32 %751, 1
  %757 = sub i32 0, 1
  %758 = sub i32 %743, %757
  %759 = add nsw i32 %743, 1
  store i32 %758, i32* %13, align 4
  br label %276

; <label>:760:                                    ; preds = %361, %334
  %761 = load i32, i32* %16, align 4
  %762 = add i32 0, 697242452
  %763 = sub i32 %762, %761
  %764 = sub i32 %763, 697242452
  %765 = sub i32 0, %761
  %766 = sub i32 0, %764
  %767 = sub i32 0, 1
  %768 = add i32 %766, %767
  %769 = sub i32 0, %768
  %770 = add i32 %764, 1
  %771 = add i32 %761, -47316133
  %772 = sub i32 %771, 1
  %773 = sub i32 %772, -47316133
  %774 = sub i32 %761, 1
  %775 = mul i32 %773, 1
  %776 = sub i32 0, %761
  %777 = add i32 0, %776
  %778 = sub i32 0, %761
  %779 = sub i32 0, %777
  %780 = sub i32 0, 1
  %781 = add i32 %779, %780
  %782 = sub i32 0, %781
  %783 = add i32 %777, 1
  %784 = sub i32 0, 1
  %785 = sub i32 %761, %784
  %786 = add nsw i32 %761, 1
  store i32 %785, i32* %16, align 4
  br label %361

; <label>:787:                                    ; preds = %408, %381
  store i32 0, i32* %17, align 4
  br label %408

; <label>:788:                                    ; preds = %449, %423
  %789 = load i32, i32* %17, align 4
  %790 = load i32, i32* %2, align 4
  %791 = icmp slt i32 %789, %790
  br label %449

; <label>:792:                                    ; preds = %565, %538
  %793 = load i32, i32* %18, align 4
  %794 = load i32, i32* %2, align 4
  %795 = icmp sle i32 %793, %794
  br label %565

; <label>:796:                                    ; preds = %610, %596
  %797 = load i32, i32* %18, align 4
  %798 = sext i32 %797 to i64
  %799 = load i64, i64* %15, align 8
  %800 = sub i64 0, 8704214116824104137
  %801 = sub i64 %800, %799
  %802 = add i64 %801, 8704214116824104137
  %803 = sub i64 0, %799
  %804 = add i64 %802, 6291957024263393720
  %805 = add i64 %804, %798
  %806 = sub i64 %805, 6291957024263393720
  %807 = add i64 %802, %798
  %808 = sub i64 0, 8670423595774797641
  %809 = sub i64 %808, %799
  %810 = add i64 %809, 8670423595774797641
  %811 = sub i64 0, %799
  %812 = sub i64 0, %810
  %813 = sub i64 0, %798
  %814 = add i64 %812, %813
  %815 = sub i64 0, %814
  %816 = add i64 %810, %798
  %817 = shl i64 %799, %798
  %818 = shl i64 %799, %798
  %819 = sub i64 %799, 4928814341678042613
  %820 = sub i64 %819, %798
  %821 = add i64 %820, 4928814341678042613
  %822 = sub i64 %799, %798
  %823 = mul i64 %821, %798
  %824 = mul nsw i64 %799, %798
  store i64 %824, i64* %15, align 8
  %825 = load i64, i64* %15, align 8
  %826 = add i64 0, 2133163323074827470
  %827 = sub i64 %826, %825
  %828 = sub i64 %827, 2133163323074827470
  %829 = sub i64 0, %825
  %830 = add i64 %828, 4481056670502792124
  %831 = add i64 %830, 1000000007
  %832 = sub i64 %831, 4481056670502792124
  %833 = add i64 %828, 1000000007
  %834 = shl i64 %825, 1000000007
  %835 = add i64 0, 2668450311415753632
  %836 = sub i64 %835, %825
  %837 = sub i64 %836, 2668450311415753632
  %838 = sub i64 0, %825
  %839 = sub i64 %837, -783722472563351582
  %840 = add i64 %839, 1000000007
  %841 = add i64 %840, -783722472563351582
  %842 = add i64 %837, 1000000007
  %843 = sub i64 0, 1338012371685608074
  %844 = sub i64 %843, %825
  %845 = add i64 %844, 1338012371685608074
  %846 = sub i64 0, %825
  %847 = add i64 %845, -4853871048002339143
  %848 = add i64 %847, 1000000007
  %849 = sub i64 %848, -4853871048002339143
  %850 = add i64 %845, 1000000007
  %851 = sub i64 0, 5978458809222441825
  %852 = sub i64 %851, %825
  %853 = add i64 %852, 5978458809222441825
  %854 = sub i64 0, %825
  %855 = sub i64 %853, 4970966845818610575
  %856 = add i64 %855, 1000000007
  %857 = add i64 %856, 4970966845818610575
  %858 = add i64 %853, 1000000007
  %859 = add i64 %825, 6282517769367006171
  %860 = sub i64 %859, 1000000007
  %861 = sub i64 %860, 6282517769367006171
  %862 = sub i64 %825, 1000000007
  %863 = mul i64 %861, 1000000007
  %864 = srem i64 %825, 1000000007
  store i64 %864, i64* %15, align 8
  br label %610

; <label>:865:                                    ; preds = %663, %637
  %866 = load i64, i64* %15, align 8
  br label %663

; <label>:867:                                    ; preds = %698, %683
  call void @_ZNSt6vectorIxSaIxEED2Ev(%"class.std::vector"* %11) #3
  call void @_ZNSt6vectorIxSaIxEED2Ev(%"class.std::vector"* %3) #3
  %868 = load i32, i32* %1, align 4
  br label %698
}

declare dereferenceable(280) %"class.std::basic_istream"* @_ZNSirsERi(%"class.std::basic_istream"*, i32* dereferenceable(4)) #1

; Function Attrs: noinline nounwind uwtable
define linkonce_odr void @_ZNSaIxEC2Ev(%"class.std::allocator"*) unnamed_addr #4 comdat align 2 {
  %2 = alloca i1
  %3 = alloca i1
  %4 = load i32, i32* @x.7
  %5 = load i32, i32* @y.8
  %6 = sub i32 %4, 599329275
  %7 = sub i32 %6, 1
  %8 = add i32 %7, 599329275
  %9 = sub i32 %4, 1
  %10 = mul i32 %4, %8
  %11 = urem i32 %10, 2
  %12 = icmp eq i32 %11, 0
  store i1 %12, i1* %3
  %13 = icmp slt i32 %5, 10
  store i1 %13, i1* %2
  %14 = alloca i32
  store i32 982907779, i32* %14
  br label %15

; <label>:15:                                     ; preds = %1, %61
  %16 = load i32, i32* %14
  switch i32 %16, label %17 [
    i32 982907779, label %18
    i32 -1996410215, label %38
    i32 -1743413715, label %56
    i32 -1628381378, label %57
  ]

; <label>:17:                                     ; preds = %15
  br label %61

; <label>:18:                                     ; preds = %15
  %19 = load volatile i1, i1* %3
  %20 = load volatile i1, i1* %2
  %21 = xor i1 %19, true
  %22 = xor i1 %20, true
  %23 = xor i1 true, true
  %24 = and i1 %21, true
  %25 = and i1 %19, %23
  %26 = and i1 %22, true
  %27 = and i1 %20, %23
  %28 = or i1 %24, %25
  %29 = or i1 %26, %27
  %30 = xor i1 %28, %29
  %31 = or i1 %21, %22
  %32 = xor i1 %31, true
  %33 = or i1 true, %23
  %34 = and i1 %32, %33
  %35 = or i1 %30, %34
  %36 = or i1 %19, %20
  %37 = select i1 %35, i32 -1996410215, i32 -1628381378
  store i32 %37, i32* %14
  br label %61

; <label>:38:                                     ; preds = %15
  %39 = alloca %"class.std::allocator"*, align 8
  store %"class.std::allocator"* %0, %"class.std::allocator"** %39, align 8
  %40 = load %"class.std::allocator"*, %"class.std::allocator"** %39, align 8
  %41 = bitcast %"class.std::allocator"* %40 to %"class.__gnu_cxx::new_allocator"*
  call void @_ZN9__gnu_cxx13new_allocatorIxEC2Ev(%"class.__gnu_cxx::new_allocator"* %41) #3
  %42 = load i32, i32* @x.7
  %43 = load i32, i32* @y.8
  %44 = sub i32 0, 1
  %45 = add i32 %42, %44
  %46 = sub i32 %42, 1
  %47 = mul i32 %42, %45
  %48 = urem i32 %47, 2
  %49 = icmp eq i32 %48, 0
  %50 = icmp slt i32 %43, 10
  %51 = and i1 %49, %50
  %52 = xor i1 %49, %50
  %53 = or i1 %51, %52
  %54 = or i1 %49, %50
  %55 = select i1 %53, i32 -1743413715, i32 -1628381378
  store i32 %55, i32* %14
  br label %61

; <label>:56:                                     ; preds = %15
  ret void

; <label>:57:                                     ; preds = %15
  %58 = alloca %"class.std::allocator"*, align 8
  store %"class.std::allocator"* %0, %"class.std::allocator"** %58, align 8
  %59 = load %"class.std::allocator"*, %"class.std::allocator"** %58, align 8
  %60 = bitcast %"class.std::allocator"* %59 to %"class.__gnu_cxx::new_allocator"*
  call void @_ZN9__gnu_cxx13new_allocatorIxEC2Ev(%"class.__gnu_cxx::new_allocator"* %60) #3
  store i32 -1996410215, i32* %14
  br label %61

; <label>:61:                                     ; preds = %57, %38, %18, %17
  br label %15
}

; Function Attrs: noinline uwtable
define linkonce_odr void @_ZNSt6vectorIxSaIxEEC2EmRKS0_(%"class.std::vector"*, i64, %"class.std::allocator"* dereferenceable(1)) unnamed_addr #0 comdat align 2 personality i8* bitcast (i32 (...)* @__gxx_personality_v0 to i8*) {
  %4 = alloca %"class.std::vector"*, align 8
  %5 = alloca i64, align 8
  %6 = alloca %"class.std::allocator"*, align 8
  %7 = alloca i8*
  %8 = alloca i32
  store %"class.std::vector"* %0, %"class.std::vector"** %4, align 8
  store i64 %1, i64* %5, align 8
  store %"class.std::allocator"* %2, %"class.std::allocator"** %6, align 8
  %9 = load %"class.std::vector"*, %"class.std::vector"** %4, align 8
  %10 = bitcast %"class.std::vector"* %9 to %"struct.std::_Vector_base"*
  %11 = load i64, i64* %5, align 8
  %12 = load %"class.std::allocator"*, %"class.std::allocator"** %6, align 8
  call void @_ZNSt12_Vector_baseIxSaIxEEC2EmRKS0_(%"struct.std::_Vector_base"* %10, i64 %11, %"class.std::allocator"* dereferenceable(1) %12)
  %13 = load i64, i64* %5, align 8
  invoke void @_ZNSt6vectorIxSaIxEE21_M_default_initializeEm(%"class.std::vector"* %9, i64 %13)
          to label %14 unwind label %15

; <label>:14:                                     ; preds = %3
  ret void

; <label>:15:                                     ; preds = %3
  %16 = load i32, i32* @x.9
  %17 = load i32, i32* @y.10
  %18 = sub i32 %16, -1984754601
  %19 = sub i32 %18, 1
  %20 = add i32 %19, -1984754601
  %21 = sub i32 %16, 1
  %22 = mul i32 %16, %20
  %23 = urem i32 %22, 2
  %24 = icmp eq i32 %23, 0
  %25 = icmp slt i32 %17, 10
  %26 = xor i1 %24, true
  %27 = xor i1 %25, true
  %28 = xor i1 true, true
  %29 = and i1 %26, true
  %30 = and i1 %24, %28
  %31 = and i1 %27, true
  %32 = and i1 %25, %28
  %33 = or i1 %29, %30
  %34 = or i1 %31, %32
  %35 = xor i1 %33, %34
  %36 = or i1 %26, %27
  %37 = xor i1 %36, true
  %38 = or i1 true, %28
  %39 = and i1 %37, %38
  %40 = or i1 %35, %39
  %41 = or i1 %24, %25
  br i1 %40, label %42, label %79

; <label>:42:                                     ; preds = %15, %79
  %43 = landingpad { i8*, i32 }
          cleanup
  %44 = extractvalue { i8*, i32 } %43, 0
  store i8* %44, i8** %7, align 8
  %45 = extractvalue { i8*, i32 } %43, 1
  store i32 %45, i32* %8, align 4
  %46 = bitcast %"class.std::vector"* %9 to %"struct.std::_Vector_base"*
  call void @_ZNSt12_Vector_baseIxSaIxEED2Ev(%"struct.std::_Vector_base"* %46) #3
  %47 = load i32, i32* @x.9
  %48 = load i32, i32* @y.10
  %49 = add i32 %47, 646274554
  %50 = sub i32 %49, 1
  %51 = sub i32 %50, 646274554
  %52 = sub i32 %47, 1
  %53 = mul i32 %47, %51
  %54 = urem i32 %53, 2
  %55 = icmp eq i32 %54, 0
  %56 = icmp slt i32 %48, 10
  %57 = xor i1 %55, true
  %58 = xor i1 %56, true
  %59 = xor i1 true, true
  %60 = and i1 %57, true
  %61 = and i1 %55, %59
  %62 = and i1 %58, true
  %63 = and i1 %56, %59
  %64 = or i1 %60, %61
  %65 = or i1 %62, %63
  %66 = xor i1 %64, %65
  %67 = or i1 %57, %58
  %68 = xor i1 %67, true
  %69 = or i1 true, %59
  %70 = and i1 %68, %69
  %71 = or i1 %66, %70
  %72 = or i1 %55, %56
  br i1 %71, label %73, label %79

; <label>:73:                                     ; preds = %42
  br label %74

; <label>:74:                                     ; preds = %73
  %75 = load i8*, i8** %7, align 8
  %76 = load i32, i32* %8, align 4
  %77 = insertvalue { i8*, i32 } undef, i8* %75, 0
  %78 = insertvalue { i8*, i32 } %77, i32 %76, 1
  resume { i8*, i32 } %78

; <label>:79:                                     ; preds = %42, %15
  %80 = landingpad { i8*, i32 }
          cleanup
  %81 = extractvalue { i8*, i32 } %80, 0
  store i8* %81, i8** %7, align 8
  %82 = extractvalue { i8*, i32 } %80, 1
  store i32 %82, i32* %8, align 4
  %83 = bitcast %"class.std::vector"* %9 to %"struct.std::_Vector_base"*
  call void @_ZNSt12_Vector_baseIxSaIxEED2Ev(%"struct.std::_Vector_base"* %83) #3
  br label %42
}

declare i32 @__gxx_personality_v0(...)

; Function Attrs: noinline nounwind uwtable
define linkonce_odr void @_ZNSaIxED2Ev(%"class.std::allocator"*) unnamed_addr #4 comdat align 2 {
  %2 = alloca %"class.std::allocator"*, align 8
  store %"class.std::allocator"* %0, %"class.std::allocator"** %2, align 8
  %3 = load %"class.std::allocator"*, %"class.std::allocator"** %2, align 8
  %4 = bitcast %"class.std::allocator"* %3 to %"class.__gnu_cxx::new_allocator"*
  call void @_ZN9__gnu_cxx13new_allocatorIxED2Ev(%"class.__gnu_cxx::new_allocator"* %4) #3
  ret void
}

; Function Attrs: noinline nounwind uwtable
define linkonce_odr i64* @_ZNSt6vectorIxSaIxEE5beginEv(%"class.std::vector"*) #4 comdat align 2 {
  %2 = alloca i64*
  %3 = alloca i1
  %4 = alloca i1
  %5 = load i32, i32* @x.13
  %6 = load i32, i32* @y.14
  %7 = add i32 %5, 1615834054
  %8 = sub i32 %7, 1
  %9 = sub i32 %8, 1615834054
  %10 = sub i32 %5, 1
  %11 = mul i32 %5, %9
  %12 = urem i32 %11, 2
  %13 = icmp eq i32 %12, 0
  store i1 %13, i1* %4
  %14 = icmp slt i32 %6, 10
  store i1 %14, i1* %3
  %15 = alloca i32
  store i32 -1033763985, i32* %15
  br label %16

; <label>:16:                                     ; preds = %1, %61
  %17 = load i32, i32* %15
  switch i32 %17, label %18 [
    i32 -1033763985, label %19
    i32 145057733, label %27
    i32 311882155, label %50
    i32 -1649093188, label %52
  ]

; <label>:18:                                     ; preds = %16
  br label %61

; <label>:19:                                     ; preds = %16
  %20 = load volatile i1, i1* %4
  %21 = load volatile i1, i1* %3
  %22 = and i1 %20, %21
  %23 = xor i1 %20, %21
  %24 = or i1 %22, %23
  %25 = or i1 %20, %21
  %26 = select i1 %24, i32 145057733, i32 -1649093188
  store i32 %26, i32* %15
  br label %61

; <label>:27:                                     ; preds = %16
  %28 = alloca %"class.__gnu_cxx::__normal_iterator", align 8
  %29 = alloca %"class.std::vector"*, align 8
  store %"class.std::vector"* %0, %"class.std::vector"** %29, align 8
  %30 = load %"class.std::vector"*, %"class.std::vector"** %29, align 8
  %31 = bitcast %"class.std::vector"* %30 to %"struct.std::_Vector_base"*
  %32 = getelementptr inbounds %"struct.std::_Vector_base", %"struct.std::_Vector_base"* %31, i32 0, i32 0
  %33 = getelementptr inbounds %"struct.std::_Vector_base<long long, std::allocator<long long> >::_Vector_impl", %"struct.std::_Vector_base<long long, std::allocator<long long> >::_Vector_impl"* %32, i32 0, i32 0
  call void @_ZN9__gnu_cxx17__normal_iteratorIPxSt6vectorIxSaIxEEEC2ERKS1_(%"class.__gnu_cxx::__normal_iterator"* %28, i64** dereferenceable(8) %33) #3
  %34 = getelementptr inbounds %"class.__gnu_cxx::__normal_iterator", %"class.__gnu_cxx::__normal_iterator"* %28, i32 0, i32 0
  %35 = load i64*, i64** %34, align 8
  store i64* %35, i64** %2
  %36 = load i32, i32* @x.13
  %37 = load i32, i32* @y.14
  %38 = sub i32 0, 1
  %39 = add i32 %36, %38
  %40 = sub i32 %36, 1
  %41 = mul i32 %36, %39
  %42 = urem i32 %41, 2
  %43 = icmp eq i32 %42, 0
  %44 = icmp slt i32 %37, 10
  %45 = and i1 %43, %44
  %46 = xor i1 %43, %44
  %47 = or i1 %45, %46
  %48 = or i1 %43, %44
  %49 = select i1 %47, i32 311882155, i32 -1649093188
  store i32 %49, i32* %15
  br label %61

; <label>:50:                                     ; preds = %16
  %51 = load volatile i64*, i64** %2
  ret i64* %51

; <label>:52:                                     ; preds = %16
  %53 = alloca %"class.__gnu_cxx::__normal_iterator", align 8
  %54 = alloca %"class.std::vector"*, align 8
  store %"class.std::vector"* %0, %"class.std::vector"** %54, align 8
  %55 = load %"class.std::vector"*, %"class.std::vector"** %54, align 8
  %56 = bitcast %"class.std::vector"* %55 to %"struct.std::_Vector_base"*
  %57 = getelementptr inbounds %"struct.std::_Vector_base", %"struct.std::_Vector_base"* %56, i32 0, i32 0
  %58 = getelementptr inbounds %"struct.std::_Vector_base<long long, std::allocator<long long> >::_Vector_impl", %"struct.std::_Vector_base<long long, std::allocator<long long> >::_Vector_impl"* %57, i32 0, i32 0
  call void @_ZN9__gnu_cxx17__normal_iteratorIPxSt6vectorIxSaIxEEEC2ERKS1_(%"class.__gnu_cxx::__normal_iterator"* %53, i64** dereferenceable(8) %58) #3
  %59 = getelementptr inbounds %"class.__gnu_cxx::__normal_iterator", %"class.__gnu_cxx::__normal_iterator"* %53, i32 0, i32 0
  %60 = load i64*, i64** %59, align 8
  store i32 145057733, i32* %15
  br label %61

; <label>:61:                                     ; preds = %52, %27, %19, %18
  br label %16
}

; Function Attrs: noinline nounwind uwtable
define linkonce_odr i64* @_ZNSt6vectorIxSaIxEE3endEv(%"class.std::vector"*) #4 comdat align 2 {
  %2 = alloca i64*
  %3 = alloca i1
  %4 = alloca i1
  %5 = load i32, i32* @x.15
  %6 = load i32, i32* @y.16
  %7 = sub i32 0, 1
  %8 = add i32 %5, %7
  %9 = sub i32 %5, 1
  %10 = mul i32 %5, %8
  %11 = urem i32 %10, 2
  %12 = icmp eq i32 %11, 0
  store i1 %12, i1* %4
  %13 = icmp slt i32 %6, 10
  store i1 %13, i1* %3
  %14 = alloca i32
  store i32 -1763783778, i32* %14
  br label %15

; <label>:15:                                     ; preds = %1, %60
  %16 = load i32, i32* %14
  switch i32 %16, label %17 [
    i32 -1763783778, label %18
    i32 -1076168605, label %26
    i32 1187766856, label %49
    i32 -2084920229, label %51
  ]

; <label>:17:                                     ; preds = %15
  br label %60

; <label>:18:                                     ; preds = %15
  %19 = load volatile i1, i1* %4
  %20 = load volatile i1, i1* %3
  %21 = and i1 %19, %20
  %22 = xor i1 %19, %20
  %23 = or i1 %21, %22
  %24 = or i1 %19, %20
  %25 = select i1 %23, i32 -1076168605, i32 -2084920229
  store i32 %25, i32* %14
  br label %60

; <label>:26:                                     ; preds = %15
  %27 = alloca %"class.__gnu_cxx::__normal_iterator", align 8
  %28 = alloca %"class.std::vector"*, align 8
  store %"class.std::vector"* %0, %"class.std::vector"** %28, align 8
  %29 = load %"class.std::vector"*, %"class.std::vector"** %28, align 8
  %30 = bitcast %"class.std::vector"* %29 to %"struct.std::_Vector_base"*
  %31 = getelementptr inbounds %"struct.std::_Vector_base", %"struct.std::_Vector_base"* %30, i32 0, i32 0
  %32 = getelementptr inbounds %"struct.std::_Vector_base<long long, std::allocator<long long> >::_Vector_impl", %"struct.std::_Vector_base<long long, std::allocator<long long> >::_Vector_impl"* %31, i32 0, i32 1
  call void @_ZN9__gnu_cxx17__normal_iteratorIPxSt6vectorIxSaIxEEEC2ERKS1_(%"class.__gnu_cxx::__normal_iterator"* %27, i64** dereferenceable(8) %32) #3
  %33 = getelementptr inbounds %"class.__gnu_cxx::__normal_iterator", %"class.__gnu_cxx::__normal_iterator"* %27, i32 0, i32 0
  %34 = load i64*, i64** %33, align 8
  store i64* %34, i64** %2
  %35 = load i32, i32* @x.15
  %36 = load i32, i32* @y.16
  %37 = sub i32 0, 1
  %38 = add i32 %35, %37
  %39 = sub i32 %35, 1
  %40 = mul i32 %35, %38
  %41 = urem i32 %40, 2
  %42 = icmp eq i32 %41, 0
  %43 = icmp slt i32 %36, 10
  %44 = and i1 %42, %43
  %45 = xor i1 %42, %43
  %46 = or i1 %44, %45
  %47 = or i1 %42, %43
  %48 = select i1 %46, i32 1187766856, i32 -2084920229
  store i32 %48, i32* %14
  br label %60

; <label>:49:                                     ; preds = %15
  %50 = load volatile i64*, i64** %2
  ret i64* %50

; <label>:51:                                     ; preds = %15
  %52 = alloca %"class.__gnu_cxx::__normal_iterator", align 8
  %53 = alloca %"class.std::vector"*, align 8
  store %"class.std::vector"* %0, %"class.std::vector"** %53, align 8
  %54 = load %"class.std::vector"*, %"class.std::vector"** %53, align 8
  %55 = bitcast %"class.std::vector"* %54 to %"struct.std::_Vector_base"*
  %56 = getelementptr inbounds %"struct.std::_Vector_base", %"struct.std::_Vector_base"* %55, i32 0, i32 0
  %57 = getelementptr inbounds %"struct.std::_Vector_base<long long, std::allocator<long long> >::_Vector_impl", %"struct.std::_Vector_base<long long, std::allocator<long long> >::_Vector_impl"* %56, i32 0, i32 1
  call void @_ZN9__gnu_cxx17__normal_iteratorIPxSt6vectorIxSaIxEEEC2ERKS1_(%"class.__gnu_cxx::__normal_iterator"* %52, i64** dereferenceable(8) %57) #3
  %58 = getelementptr inbounds %"class.__gnu_cxx::__normal_iterator", %"class.__gnu_cxx::__normal_iterator"* %52, i32 0, i32 0
  %59 = load i64*, i64** %58, align 8
  store i32 -1076168605, i32* %14
  br label %60

; <label>:60:                                     ; preds = %51, %26, %18, %17
  br label %15
}

; Function Attrs: noinline nounwind uwtable
define linkonce_odr zeroext i1 @_ZN9__gnu_cxxneIPxSt6vectorIxSaIxEEEEbRKNS_17__normal_iteratorIT_T0_EESA_(%"class.__gnu_cxx::__normal_iterator"* dereferenceable(8), %"class.__gnu_cxx::__normal_iterator"* dereferenceable(8)) #4 comdat {
  %3 = alloca %"class.__gnu_cxx::__normal_iterator"*, align 8
  %4 = alloca %"class.__gnu_cxx::__normal_iterator"*, align 8
  store %"class.__gnu_cxx::__normal_iterator"* %0, %"class.__gnu_cxx::__normal_iterator"** %3, align 8
  store %"class.__gnu_cxx::__normal_iterator"* %1, %"class.__gnu_cxx::__normal_iterator"** %4, align 8
  %5 = load %"class.__gnu_cxx::__normal_iterator"*, %"class.__gnu_cxx::__normal_iterator"** %3, align 8
  %6 = call dereferenceable(8) i64** @_ZNK9__gnu_cxx17__normal_iteratorIPxSt6vectorIxSaIxEEE4baseEv(%"class.__gnu_cxx::__normal_iterator"* %5) #3
  %7 = load i64*, i64** %6, align 8
  %8 = load %"class.__gnu_cxx::__normal_iterator"*, %"class.__gnu_cxx::__normal_iterator"** %4, align 8
  %9 = call dereferenceable(8) i64** @_ZNK9__gnu_cxx17__normal_iteratorIPxSt6vectorIxSaIxEEE4baseEv(%"class.__gnu_cxx::__normal_iterator"* %8) #3
  %10 = load i64*, i64** %9, align 8
  %11 = icmp ne i64* %7, %10
  ret i1 %11
}

; Function Attrs: noinline nounwind uwtable
define linkonce_odr dereferenceable(8) i64* @_ZNK9__gnu_cxx17__normal_iteratorIPxSt6vectorIxSaIxEEEdeEv(%"class.__gnu_cxx::__normal_iterator"*) #4 comdat align 2 {
  %2 = alloca i64*
  %3 = alloca i1
  %4 = alloca i1
  %5 = load i32, i32* @x.19
  %6 = load i32, i32* @y.20
  %7 = sub i32 0, 1
  %8 = add i32 %5, %7
  %9 = sub i32 %5, 1
  %10 = mul i32 %5, %8
  %11 = urem i32 %10, 2
  %12 = icmp eq i32 %11, 0
  store i1 %12, i1* %4
  %13 = icmp slt i32 %6, 10
  store i1 %13, i1* %3
  %14 = alloca i32
  store i32 -2142231578, i32* %14
  br label %15

; <label>:15:                                     ; preds = %1, %77
  %16 = load i32, i32* %14
  switch i32 %16, label %17 [
    i32 -2142231578, label %18
    i32 -1554086526, label %38
    i32 -239062345, label %70
    i32 1950901216, label %72
  ]

; <label>:17:                                     ; preds = %15
  br label %77

; <label>:18:                                     ; preds = %15
  %19 = load volatile i1, i1* %4
  %20 = load volatile i1, i1* %3
  %21 = xor i1 %19, true
  %22 = xor i1 %20, true
  %23 = xor i1 false, true
  %24 = and i1 %21, false
  %25 = and i1 %19, %23
  %26 = and i1 %22, false
  %27 = and i1 %20, %23
  %28 = or i1 %24, %25
  %29 = or i1 %26, %27
  %30 = xor i1 %28, %29
  %31 = or i1 %21, %22
  %32 = xor i1 %31, true
  %33 = or i1 false, %23
  %34 = and i1 %32, %33
  %35 = or i1 %30, %34
  %36 = or i1 %19, %20
  %37 = select i1 %35, i32 -1554086526, i32 1950901216
  store i32 %37, i32* %14
  br label %77

; <label>:38:                                     ; preds = %15
  %39 = alloca %"class.__gnu_cxx::__normal_iterator"*, align 8
  store %"class.__gnu_cxx::__normal_iterator"* %0, %"class.__gnu_cxx::__normal_iterator"** %39, align 8
  %40 = load %"class.__gnu_cxx::__normal_iterator"*, %"class.__gnu_cxx::__normal_iterator"** %39, align 8
  %41 = getelementptr inbounds %"class.__gnu_cxx::__normal_iterator", %"class.__gnu_cxx::__normal_iterator"* %40, i32 0, i32 0
  %42 = load i64*, i64** %41, align 8
  store i64* %42, i64** %2
  %43 = load i32, i32* @x.19
  %44 = load i32, i32* @y.20
  %45 = sub i32 %43, -182886359
  %46 = sub i32 %45, 1
  %47 = add i32 %46, -182886359
  %48 = sub i32 %43, 1
  %49 = mul i32 %43, %47
  %50 = urem i32 %49, 2
  %51 = icmp eq i32 %50, 0
  %52 = icmp slt i32 %44, 10
  %53 = xor i1 %51, true
  %54 = xor i1 %52, true
  %55 = xor i1 true, true
  %56 = and i1 %53, true
  %57 = and i1 %51, %55
  %58 = and i1 %54, true
  %59 = and i1 %52, %55
  %60 = or i1 %56, %57
  %61 = or i1 %58, %59
  %62 = xor i1 %60, %61
  %63 = or i1 %53, %54
  %64 = xor i1 %63, true
  %65 = or i1 true, %55
  %66 = and i1 %64, %65
  %67 = or i1 %62, %66
  %68 = or i1 %51, %52
  %69 = select i1 %67, i32 -239062345, i32 1950901216
  store i32 %69, i32* %14
  br label %77

; <label>:70:                                     ; preds = %15
  %71 = load volatile i64*, i64** %2
  ret i64* %71

; <label>:72:                                     ; preds = %15
  %73 = alloca %"class.__gnu_cxx::__normal_iterator"*, align 8
  store %"class.__gnu_cxx::__normal_iterator"* %0, %"class.__gnu_cxx::__normal_iterator"** %73, align 8
  %74 = load %"class.__gnu_cxx::__normal_iterator"*, %"class.__gnu_cxx::__normal_iterator"** %73, align 8
  %75 = getelementptr inbounds %"class.__gnu_cxx::__normal_iterator", %"class.__gnu_cxx::__normal_iterator"* %74, i32 0, i32 0
  %76 = load i64*, i64** %75, align 8
  store i32 -1554086526, i32* %14
  br label %77

; <label>:77:                                     ; preds = %72, %38, %18, %17
  br label %15
}

declare dereferenceable(280) %"class.std::basic_istream"* @_ZNSirsERx(%"class.std::basic_istream"*, i64* dereferenceable(8)) #1

; Function Attrs: noinline nounwind uwtable
define linkonce_odr dereferenceable(8) %"class.__gnu_cxx::__normal_iterator"* @_ZN9__gnu_cxx17__normal_iteratorIPxSt6vectorIxSaIxEEEppEv(%"class.__gnu_cxx::__normal_iterator"*) #4 comdat align 2 {
  %2 = alloca %"class.__gnu_cxx::__normal_iterator"*, align 8
  store %"class.__gnu_cxx::__normal_iterator"* %0, %"class.__gnu_cxx::__normal_iterator"** %2, align 8
  %3 = load %"class.__gnu_cxx::__normal_iterator"*, %"class.__gnu_cxx::__normal_iterator"** %2, align 8
  %4 = getelementptr inbounds %"class.__gnu_cxx::__normal_iterator", %"class.__gnu_cxx::__normal_iterator"* %3, i32 0, i32 0
  %5 = load i64*, i64** %4, align 8
  %6 = getelementptr inbounds i64, i64* %5, i32 1
  store i64* %6, i64** %4, align 8
  ret %"class.__gnu_cxx::__normal_iterator"* %3
}

; Function Attrs: noinline nounwind uwtable
define linkonce_odr dereferenceable(8) i64* @_ZNSt6vectorIxSaIxEEixEm(%"class.std::vector"*, i64) #4 comdat align 2 {
  %3 = alloca %"class.std::vector"*, align 8
  %4 = alloca i64, align 8
  store %"class.std::vector"* %0, %"class.std::vector"** %3, align 8
  store i64 %1, i64* %4, align 8
  %5 = load %"class.std::vector"*, %"class.std::vector"** %3, align 8
  %6 = bitcast %"class.std::vector"* %5 to %"struct.std::_Vector_base"*
  %7 = getelementptr inbounds %"struct.std::_Vector_base", %"struct.std::_Vector_base"* %6, i32 0, i32 0
  %8 = getelementptr inbounds %"struct.std::_Vector_base<long long, std::allocator<long long> >::_Vector_impl", %"struct.std::_Vector_base<long long, std::allocator<long long> >::_Vector_impl"* %7, i32 0, i32 0
  %9 = load i64*, i64** %8, align 8
  %10 = load i64, i64* %4, align 8
  %11 = getelementptr inbounds i64, i64* %9, i64 %10
  ret i64* %11
}

declare dereferenceable(272) %"class.std::basic_ostream"* @_ZNSolsEx(%"class.std::basic_ostream"*, i64) #1

declare dereferenceable(272) %"class.std::basic_ostream"* @_ZNSolsEPFRSoS_E(%"class.std::basic_ostream"*, %"class.std::basic_ostream"* (%"class.std::basic_ostream"*)*) #1

declare dereferenceable(272) %"class.std::basic_ostream"* @_ZSt4endlIcSt11char_traitsIcEERSt13basic_ostreamIT_T0_ES6_(%"class.std::basic_ostream"* dereferenceable(272)) #1

; Function Attrs: noinline nounwind uwtable
define linkonce_odr void @_ZNSt6vectorIxSaIxEED2Ev(%"class.std::vector"*) unnamed_addr #4 comdat align 2 personality i8* bitcast (i32 (...)* @__gxx_personality_v0 to i8*) {
  %2 = alloca %"class.std::vector"*, align 8
  %3 = alloca i8*
  %4 = alloca i32
  store %"class.std::vector"* %0, %"class.std::vector"** %2, align 8
  %5 = load %"class.std::vector"*, %"class.std::vector"** %2, align 8
  %6 = bitcast %"class.std::vector"* %5 to %"struct.std::_Vector_base"*
  %7 = getelementptr inbounds %"struct.std::_Vector_base", %"struct.std::_Vector_base"* %6, i32 0, i32 0
  %8 = getelementptr inbounds %"struct.std::_Vector_base<long long, std::allocator<long long> >::_Vector_impl", %"struct.std::_Vector_base<long long, std::allocator<long long> >::_Vector_impl"* %7, i32 0, i32 0
  %9 = load i64*, i64** %8, align 8
  %10 = bitcast %"class.std::vector"* %5 to %"struct.std::_Vector_base"*
  %11 = getelementptr inbounds %"struct.std::_Vector_base", %"struct.std::_Vector_base"* %10, i32 0, i32 0
  %12 = getelementptr inbounds %"struct.std::_Vector_base<long long, std::allocator<long long> >::_Vector_impl", %"struct.std::_Vector_base<long long, std::allocator<long long> >::_Vector_impl"* %11, i32 0, i32 1
  %13 = load i64*, i64** %12, align 8
  %14 = bitcast %"class.std::vector"* %5 to %"struct.std::_Vector_base"*
  %15 = call dereferenceable(1) %"class.std::allocator"* @_ZNSt12_Vector_baseIxSaIxEE19_M_get_Tp_allocatorEv(%"struct.std::_Vector_base"* %14) #3
  invoke void @_ZSt8_DestroyIPxxEvT_S1_RSaIT0_E(i64* %9, i64* %13, %"class.std::allocator"* dereferenceable(1) %15)
          to label %16 unwind label %18

; <label>:16:                                     ; preds = %1
  %17 = bitcast %"class.std::vector"* %5 to %"struct.std::_Vector_base"*
  call void @_ZNSt12_Vector_baseIxSaIxEED2Ev(%"struct.std::_Vector_base"* %17) #3
  ret void

; <label>:18:                                     ; preds = %1
  %19 = landingpad { i8*, i32 }
          catch i8* null
  %20 = extractvalue { i8*, i32 } %19, 0
  store i8* %20, i8** %3, align 8
  %21 = extractvalue { i8*, i32 } %19, 1
  store i32 %21, i32* %4, align 4
  %22 = bitcast %"class.std::vector"* %5 to %"struct.std::_Vector_base"*
  call void @_ZNSt12_Vector_baseIxSaIxEED2Ev(%"struct.std::_Vector_base"* %22) #3
  br label %23

; <label>:23:                                     ; preds = %18
  %24 = load i32, i32* @x.25
  %25 = load i32, i32* @y.26
  %26 = sub i32 %24, 884201564
  %27 = sub i32 %26, 1
  %28 = add i32 %27, 884201564
  %29 = sub i32 %24, 1
  %30 = mul i32 %24, %28
  %31 = urem i32 %30, 2
  %32 = icmp eq i32 %31, 0
  %33 = icmp slt i32 %25, 10
  %34 = xor i1 %32, true
  %35 = xor i1 %33, true
  %36 = xor i1 false, true
  %37 = and i1 %34, false
  %38 = and i1 %32, %36
  %39 = and i1 %35, false
  %40 = and i1 %33, %36
  %41 = or i1 %37, %38
  %42 = or i1 %39, %40
  %43 = xor i1 %41, %42
  %44 = or i1 %34, %35
  %45 = xor i1 %44, true
  %46 = or i1 false, %36
  %47 = and i1 %45, %46
  %48 = or i1 %43, %47
  %49 = or i1 %32, %33
  br i1 %48, label %50, label %79

; <label>:50:                                     ; preds = %23, %79
  %51 = load i8*, i8** %3, align 8
  call void @__clang_call_terminate(i8* %51) #10
  %52 = load i32, i32* @x.25
  %53 = load i32, i32* @y.26
  %54 = sub i32 %52, 697098009
  %55 = sub i32 %54, 1
  %56 = add i32 %55, 697098009
  %57 = sub i32 %52, 1
  %58 = mul i32 %52, %56
  %59 = urem i32 %58, 2
  %60 = icmp eq i32 %59, 0
  %61 = icmp slt i32 %53, 10
  %62 = xor i1 %60, true
  %63 = xor i1 %61, true
  %64 = xor i1 false, true
  %65 = and i1 %62, false
  %66 = and i1 %60, %64
  %67 = and i1 %63, false
  %68 = and i1 %61, %64
  %69 = or i1 %65, %66
  %70 = or i1 %67, %68
  %71 = xor i1 %69, %70
  %72 = or i1 %62, %63
  %73 = xor i1 %72, true
  %74 = or i1 false, %64
  %75 = and i1 %73, %74
  %76 = or i1 %71, %75
  %77 = or i1 %60, %61
  br i1 %76, label %78, label %79

; <label>:78:                                     ; preds = %50
  unreachable

; <label>:79:                                     ; preds = %50, %23
  %80 = load i8*, i8** %3, align 8
  call void @__clang_call_terminate(i8* %80) #10
  br label %50
}

; Function Attrs: noinline nounwind uwtable
define linkonce_odr void @_ZN9__gnu_cxx13new_allocatorIxEC2Ev(%"class.__gnu_cxx::new_allocator"*) unnamed_addr #4 comdat align 2 {
  %2 = alloca %"class.__gnu_cxx::new_allocator"*, align 8
  store %"class.__gnu_cxx::new_allocator"* %0, %"class.__gnu_cxx::new_allocator"** %2, align 8
  %3 = load %"class.__gnu_cxx::new_allocator"*, %"class.__gnu_cxx::new_allocator"** %2, align 8
  ret void
}

; Function Attrs: noinline nounwind uwtable
define linkonce_odr void @_ZN9__gnu_cxx13new_allocatorIxED2Ev(%"class.__gnu_cxx::new_allocator"*) unnamed_addr #4 comdat align 2 {
  %2 = alloca %"class.__gnu_cxx::new_allocator"*, align 8
  store %"class.__gnu_cxx::new_allocator"* %0, %"class.__gnu_cxx::new_allocator"** %2, align 8
  %3 = load %"class.__gnu_cxx::new_allocator"*, %"class.__gnu_cxx::new_allocator"** %2, align 8
  ret void
}

; Function Attrs: noinline uwtable
define linkonce_odr void @_ZNSt12_Vector_baseIxSaIxEEC2EmRKS0_(%"struct.std::_Vector_base"*, i64, %"class.std::allocator"* dereferenceable(1)) unnamed_addr #0 comdat align 2 personality i8* bitcast (i32 (...)* @__gxx_personality_v0 to i8*) {
  %4 = load i32, i32* @x.31
  %5 = load i32, i32* @y.32
  %6 = add i32 %4, 139907966
  %7 = sub i32 %6, 1
  %8 = sub i32 %7, 139907966
  %9 = sub i32 %4, 1
  %10 = mul i32 %4, %8
  %11 = urem i32 %10, 2
  %12 = icmp eq i32 %11, 0
  %13 = icmp slt i32 %5, 10
  %14 = and i1 %12, %13
  %15 = xor i1 %12, %13
  %16 = or i1 %14, %15
  %17 = or i1 %12, %13
  br i1 %16, label %18, label %94

; <label>:18:                                     ; preds = %3, %94
  %19 = alloca %"struct.std::_Vector_base"*, align 8
  %20 = alloca i64, align 8
  %21 = alloca %"class.std::allocator"*, align 8
  %22 = alloca i8*
  %23 = alloca i32
  store %"struct.std::_Vector_base"* %0, %"struct.std::_Vector_base"** %19, align 8
  store i64 %1, i64* %20, align 8
  store %"class.std::allocator"* %2, %"class.std::allocator"** %21, align 8
  %24 = load %"struct.std::_Vector_base"*, %"struct.std::_Vector_base"** %19, align 8
  %25 = getelementptr inbounds %"struct.std::_Vector_base", %"struct.std::_Vector_base"* %24, i32 0, i32 0
  %26 = load %"class.std::allocator"*, %"class.std::allocator"** %21, align 8
  call void @_ZNSt12_Vector_baseIxSaIxEE12_Vector_implC2ERKS0_(%"struct.std::_Vector_base<long long, std::allocator<long long> >::_Vector_impl"* %25, %"class.std::allocator"* dereferenceable(1) %26) #3
  %27 = load i64, i64* %20, align 8
  %28 = load i32, i32* @x.31
  %29 = load i32, i32* @y.32
  %30 = sub i32 %28, 1966942351
  %31 = sub i32 %30, 1
  %32 = add i32 %31, 1966942351
  %33 = sub i32 %28, 1
  %34 = mul i32 %28, %32
  %35 = urem i32 %34, 2
  %36 = icmp eq i32 %35, 0
  %37 = icmp slt i32 %29, 10
  %38 = and i1 %36, %37
  %39 = xor i1 %36, %37
  %40 = or i1 %38, %39
  %41 = or i1 %36, %37
  br i1 %40, label %42, label %94

; <label>:42:                                     ; preds = %18
  invoke void @_ZNSt12_Vector_baseIxSaIxEE17_M_create_storageEm(%"struct.std::_Vector_base"* %24, i64 %27)
          to label %43 unwind label %44

; <label>:43:                                     ; preds = %42
  ret void

; <label>:44:                                     ; preds = %42
  %45 = load i32, i32* @x.31
  %46 = load i32, i32* @y.32
  %47 = sub i32 0, 1
  %48 = add i32 %45, %47
  %49 = sub i32 %45, 1
  %50 = mul i32 %45, %48
  %51 = urem i32 %50, 2
  %52 = icmp eq i32 %51, 0
  %53 = icmp slt i32 %46, 10
  %54 = and i1 %52, %53
  %55 = xor i1 %52, %53
  %56 = or i1 %54, %55
  %57 = or i1 %52, %53
  br i1 %56, label %58, label %104

; <label>:58:                                     ; preds = %44, %104
  %59 = landingpad { i8*, i32 }
          cleanup
  %60 = extractvalue { i8*, i32 } %59, 0
  store i8* %60, i8** %22, align 8
  %61 = extractvalue { i8*, i32 } %59, 1
  store i32 %61, i32* %23, align 4
  call void @_ZNSt12_Vector_baseIxSaIxEE12_Vector_implD2Ev(%"struct.std::_Vector_base<long long, std::allocator<long long> >::_Vector_impl"* %25) #3
  %62 = load i32, i32* @x.31
  %63 = load i32, i32* @y.32
  %64 = sub i32 %62, -1518956921
  %65 = sub i32 %64, 1
  %66 = add i32 %65, -1518956921
  %67 = sub i32 %62, 1
  %68 = mul i32 %62, %66
  %69 = urem i32 %68, 2
  %70 = icmp eq i32 %69, 0
  %71 = icmp slt i32 %63, 10
  %72 = xor i1 %70, true
  %73 = xor i1 %71, true
  %74 = xor i1 true, true
  %75 = and i1 %72, true
  %76 = and i1 %70, %74
  %77 = and i1 %73, true
  %78 = and i1 %71, %74
  %79 = or i1 %75, %76
  %80 = or i1 %77, %78
  %81 = xor i1 %79, %80
  %82 = or i1 %72, %73
  %83 = xor i1 %82, true
  %84 = or i1 true, %74
  %85 = and i1 %83, %84
  %86 = or i1 %81, %85
  %87 = or i1 %70, %71
  br i1 %86, label %88, label %104

; <label>:88:                                     ; preds = %58
  br label %89

; <label>:89:                                     ; preds = %88
  %90 = load i8*, i8** %22, align 8
  %91 = load i32, i32* %23, align 4
  %92 = insertvalue { i8*, i32 } undef, i8* %90, 0
  %93 = insertvalue { i8*, i32 } %92, i32 %91, 1
  resume { i8*, i32 } %93

; <label>:94:                                     ; preds = %18, %3
  %95 = alloca %"struct.std::_Vector_base"*, align 8
  %96 = alloca i64, align 8
  %97 = alloca %"class.std::allocator"*, align 8
  %98 = alloca i8*
  %99 = alloca i32
  store %"struct.std::_Vector_base"* %0, %"struct.std::_Vector_base"** %95, align 8
  store i64 %1, i64* %96, align 8
  store %"class.std::allocator"* %2, %"class.std::allocator"** %97, align 8
  %100 = load %"struct.std::_Vector_base"*, %"struct.std::_Vector_base"** %95, align 8
  %101 = getelementptr inbounds %"struct.std::_Vector_base", %"struct.std::_Vector_base"* %100, i32 0, i32 0
  %102 = load %"class.std::allocator"*, %"class.std::allocator"** %97, align 8
  call void @_ZNSt12_Vector_baseIxSaIxEE12_Vector_implC2ERKS0_(%"struct.std::_Vector_base<long long, std::allocator<long long> >::_Vector_impl"* %101, %"class.std::allocator"* dereferenceable(1) %102) #3
  %103 = load i64, i64* %96, align 8
  br label %18

; <label>:104:                                    ; preds = %58, %44
  %105 = landingpad { i8*, i32 }
          cleanup
  %106 = extractvalue { i8*, i32 } %105, 0
  store i8* %106, i8** %22, align 8
  %107 = extractvalue { i8*, i32 } %105, 1
  store i32 %107, i32* %23, align 4
  call void @_ZNSt12_Vector_baseIxSaIxEE12_Vector_implD2Ev(%"struct.std::_Vector_base<long long, std::allocator<long long> >::_Vector_impl"* %25) #3
  br label %58
}

; Function Attrs: noinline uwtable
define linkonce_odr void @_ZNSt6vectorIxSaIxEE21_M_default_initializeEm(%"class.std::vector"*, i64) #0 comdat align 2 {
  %3 = alloca %"class.std::vector"*, align 8
  %4 = alloca i64, align 8
  store %"class.std::vector"* %0, %"class.std::vector"** %3, align 8
  store i64 %1, i64* %4, align 8
  %5 = load %"class.std::vector"*, %"class.std::vector"** %3, align 8
  %6 = bitcast %"class.std::vector"* %5 to %"struct.std::_Vector_base"*
  %7 = getelementptr inbounds %"struct.std::_Vector_base", %"struct.std::_Vector_base"* %6, i32 0, i32 0
  %8 = getelementptr inbounds %"struct.std::_Vector_base<long long, std::allocator<long long> >::_Vector_impl", %"struct.std::_Vector_base<long long, std::allocator<long long> >::_Vector_impl"* %7, i32 0, i32 0
  %9 = load i64*, i64** %8, align 8
  %10 = load i64, i64* %4, align 8
  %11 = bitcast %"class.std::vector"* %5 to %"struct.std::_Vector_base"*
  %12 = call dereferenceable(1) %"class.std::allocator"* @_ZNSt12_Vector_baseIxSaIxEE19_M_get_Tp_allocatorEv(%"struct.std::_Vector_base"* %11) #3
  %13 = call i64* @_ZSt27__uninitialized_default_n_aIPxmxET_S1_T0_RSaIT1_E(i64* %9, i64 %10, %"class.std::allocator"* dereferenceable(1) %12)
  %14 = bitcast %"class.std::vector"* %5 to %"struct.std::_Vector_base"*
  %15 = getelementptr inbounds %"struct.std::_Vector_base", %"struct.std::_Vector_base"* %14, i32 0, i32 0
  %16 = getelementptr inbounds %"struct.std::_Vector_base<long long, std::allocator<long long> >::_Vector_impl", %"struct.std::_Vector_base<long long, std::allocator<long long> >::_Vector_impl"* %15, i32 0, i32 1
  store i64* %13, i64** %16, align 8
  ret void
}

; Function Attrs: noinline nounwind uwtable
define linkonce_odr void @_ZNSt12_Vector_baseIxSaIxEED2Ev(%"struct.std::_Vector_base"*) unnamed_addr #4 comdat align 2 personality i8* bitcast (i32 (...)* @__gxx_personality_v0 to i8*) {
  %2 = load i32, i32* @x.35
  %3 = load i32, i32* @y.36
  %4 = sub i32 %2, 481314877
  %5 = sub i32 %4, 1
  %6 = add i32 %5, 481314877
  %7 = sub i32 %2, 1
  %8 = mul i32 %2, %6
  %9 = urem i32 %8, 2
  %10 = icmp eq i32 %9, 0
  %11 = icmp slt i32 %3, 10
  %12 = and i1 %10, %11
  %13 = xor i1 %10, %11
  %14 = or i1 %12, %13
  %15 = or i1 %10, %11
  br i1 %14, label %16, label %114

; <label>:16:                                     ; preds = %1, %114
  %17 = alloca %"struct.std::_Vector_base"*, align 8
  %18 = alloca i8*
  %19 = alloca i32
  store %"struct.std::_Vector_base"* %0, %"struct.std::_Vector_base"** %17, align 8
  %20 = load %"struct.std::_Vector_base"*, %"struct.std::_Vector_base"** %17, align 8
  %21 = getelementptr inbounds %"struct.std::_Vector_base", %"struct.std::_Vector_base"* %20, i32 0, i32 0
  %22 = getelementptr inbounds %"struct.std::_Vector_base<long long, std::allocator<long long> >::_Vector_impl", %"struct.std::_Vector_base<long long, std::allocator<long long> >::_Vector_impl"* %21, i32 0, i32 0
  %23 = load i64*, i64** %22, align 8
  %24 = getelementptr inbounds %"struct.std::_Vector_base", %"struct.std::_Vector_base"* %20, i32 0, i32 0
  %25 = getelementptr inbounds %"struct.std::_Vector_base<long long, std::allocator<long long> >::_Vector_impl", %"struct.std::_Vector_base<long long, std::allocator<long long> >::_Vector_impl"* %24, i32 0, i32 2
  %26 = load i64*, i64** %25, align 8
  %27 = getelementptr inbounds %"struct.std::_Vector_base", %"struct.std::_Vector_base"* %20, i32 0, i32 0
  %28 = getelementptr inbounds %"struct.std::_Vector_base<long long, std::allocator<long long> >::_Vector_impl", %"struct.std::_Vector_base<long long, std::allocator<long long> >::_Vector_impl"* %27, i32 0, i32 0
  %29 = load i64*, i64** %28, align 8
  %30 = ptrtoint i64* %26 to i64
  %31 = ptrtoint i64* %29 to i64
  %32 = sub i64 0, %31
  %33 = add i64 %30, %32
  %34 = sub i64 %30, %31
  %35 = sdiv exact i64 %33, 8
  %36 = load i32, i32* @x.35
  %37 = load i32, i32* @y.36
  %38 = add i32 %36, -1031399611
  %39 = sub i32 %38, 1
  %40 = sub i32 %39, -1031399611
  %41 = sub i32 %36, 1
  %42 = mul i32 %36, %40
  %43 = urem i32 %42, 2
  %44 = icmp eq i32 %43, 0
  %45 = icmp slt i32 %37, 10
  %46 = and i1 %44, %45
  %47 = xor i1 %44, %45
  %48 = or i1 %46, %47
  %49 = or i1 %44, %45
  br i1 %48, label %50, label %114

; <label>:50:                                     ; preds = %16
  invoke void @_ZNSt12_Vector_baseIxSaIxEE13_M_deallocateEPxm(%"struct.std::_Vector_base"* %20, i64* %23, i64 %35)
          to label %51 unwind label %53

; <label>:51:                                     ; preds = %50
  %52 = getelementptr inbounds %"struct.std::_Vector_base", %"struct.std::_Vector_base"* %20, i32 0, i32 0
  call void @_ZNSt12_Vector_baseIxSaIxEE12_Vector_implD2Ev(%"struct.std::_Vector_base<long long, std::allocator<long long> >::_Vector_impl"* %52) #3
  ret void

; <label>:53:                                     ; preds = %50
  %54 = load i32, i32* @x.35
  %55 = load i32, i32* @y.36
  %56 = sub i32 %54, -999060322
  %57 = sub i32 %56, 1
  %58 = add i32 %57, -999060322
  %59 = sub i32 %54, 1
  %60 = mul i32 %54, %58
  %61 = urem i32 %60, 2
  %62 = icmp eq i32 %61, 0
  %63 = icmp slt i32 %55, 10
  %64 = xor i1 %62, true
  %65 = xor i1 %63, true
  %66 = xor i1 false, true
  %67 = and i1 %64, false
  %68 = and i1 %62, %66
  %69 = and i1 %65, false
  %70 = and i1 %63, %66
  %71 = or i1 %67, %68
  %72 = or i1 %69, %70
  %73 = xor i1 %71, %72
  %74 = or i1 %64, %65
  %75 = xor i1 %74, true
  %76 = or i1 false, %66
  %77 = and i1 %75, %76
  %78 = or i1 %73, %77
  %79 = or i1 %62, %63
  br i1 %78, label %80, label %159

; <label>:80:                                     ; preds = %53, %159
  %81 = landingpad { i8*, i32 }
          catch i8* null
  %82 = extractvalue { i8*, i32 } %81, 0
  store i8* %82, i8** %18, align 8
  %83 = extractvalue { i8*, i32 } %81, 1
  store i32 %83, i32* %19, align 4
  %84 = getelementptr inbounds %"struct.std::_Vector_base", %"struct.std::_Vector_base"* %20, i32 0, i32 0
  call void @_ZNSt12_Vector_baseIxSaIxEE12_Vector_implD2Ev(%"struct.std::_Vector_base<long long, std::allocator<long long> >::_Vector_impl"* %84) #3
  %85 = load i32, i32* @x.35
  %86 = load i32, i32* @y.36
  %87 = sub i32 %85, 1751780318
  %88 = sub i32 %87, 1
  %89 = add i32 %88, 1751780318
  %90 = sub i32 %85, 1
  %91 = mul i32 %85, %89
  %92 = urem i32 %91, 2
  %93 = icmp eq i32 %92, 0
  %94 = icmp slt i32 %86, 10
  %95 = xor i1 %93, true
  %96 = xor i1 %94, true
  %97 = xor i1 false, true
  %98 = and i1 %95, false
  %99 = and i1 %93, %97
  %100 = and i1 %96, false
  %101 = and i1 %94, %97
  %102 = or i1 %98, %99
  %103 = or i1 %100, %101
  %104 = xor i1 %102, %103
  %105 = or i1 %95, %96
  %106 = xor i1 %105, true
  %107 = or i1 false, %97
  %108 = and i1 %106, %107
  %109 = or i1 %104, %108
  %110 = or i1 %93, %94
  br i1 %109, label %111, label %159

; <label>:111:                                    ; preds = %80
  br label %112

; <label>:112:                                    ; preds = %111
  %113 = load i8*, i8** %18, align 8
  call void @__clang_call_terminate(i8* %113) #10
  unreachable

; <label>:114:                                    ; preds = %16, %1
  %115 = alloca %"struct.std::_Vector_base"*, align 8
  %116 = alloca i8*
  %117 = alloca i32
  store %"struct.std::_Vector_base"* %0, %"struct.std::_Vector_base"** %115, align 8
  %118 = load %"struct.std::_Vector_base"*, %"struct.std::_Vector_base"** %115, align 8
  %119 = getelementptr inbounds %"struct.std::_Vector_base", %"struct.std::_Vector_base"* %118, i32 0, i32 0
  %120 = getelementptr inbounds %"struct.std::_Vector_base<long long, std::allocator<long long> >::_Vector_impl", %"struct.std::_Vector_base<long long, std::allocator<long long> >::_Vector_impl"* %119, i32 0, i32 0
  %121 = load i64*, i64** %120, align 8
  %122 = getelementptr inbounds %"struct.std::_Vector_base", %"struct.std::_Vector_base"* %118, i32 0, i32 0
  %123 = getelementptr inbounds %"struct.std::_Vector_base<long long, std::allocator<long long> >::_Vector_impl", %"struct.std::_Vector_base<long long, std::allocator<long long> >::_Vector_impl"* %122, i32 0, i32 2
  %124 = load i64*, i64** %123, align 8
  %125 = getelementptr inbounds %"struct.std::_Vector_base", %"struct.std::_Vector_base"* %118, i32 0, i32 0
  %126 = getelementptr inbounds %"struct.std::_Vector_base<long long, std::allocator<long long> >::_Vector_impl", %"struct.std::_Vector_base<long long, std::allocator<long long> >::_Vector_impl"* %125, i32 0, i32 0
  %127 = load i64*, i64** %126, align 8
  %128 = ptrtoint i64* %124 to i64
  %129 = ptrtoint i64* %127 to i64
  %130 = sub i64 0, %129
  %131 = add i64 %128, %130
  %132 = sub i64 %128, %129
  %133 = mul i64 %131, %129
  %134 = add i64 %128, -1285248474993638309
  %135 = sub i64 %134, %129
  %136 = sub i64 %135, -1285248474993638309
  %137 = sub i64 %128, %129
  %138 = mul i64 %136, %129
  %139 = add i64 %128, 2633622850207410859
  %140 = sub i64 %139, %129
  %141 = sub i64 %140, 2633622850207410859
  %142 = sub i64 %128, %129
  %143 = sub i64 %141, 7999657056843401417
  %144 = sub i64 %143, 8
  %145 = add i64 %144, 7999657056843401417
  %146 = sub i64 %141, 8
  %147 = mul i64 %145, 8
  %148 = add i64 0, -2704637412696278419
  %149 = sub i64 %148, %141
  %150 = sub i64 %149, -2704637412696278419
  %151 = sub i64 0, %141
  %152 = sub i64 0, %150
  %153 = sub i64 0, 8
  %154 = add i64 %152, %153
  %155 = sub i64 0, %154
  %156 = add i64 %150, 8
  %157 = shl i64 %141, 8
  %158 = sdiv exact i64 %141, 8
  br label %16

; <label>:159:                                    ; preds = %80, %53
  %160 = landingpad { i8*, i32 }
          catch i8* null
  %161 = extractvalue { i8*, i32 } %160, 0
  store i8* %161, i8** %18, align 8
  %162 = extractvalue { i8*, i32 } %160, 1
  store i32 %162, i32* %19, align 4
  %163 = getelementptr inbounds %"struct.std::_Vector_base", %"struct.std::_Vector_base"* %20, i32 0, i32 0
  call void @_ZNSt12_Vector_baseIxSaIxEE12_Vector_implD2Ev(%"struct.std::_Vector_base<long long, std::allocator<long long> >::_Vector_impl"* %163) #3
  br label %80
}

; Function Attrs: noinline nounwind uwtable
define linkonce_odr void @_ZNSt12_Vector_baseIxSaIxEE12_Vector_implC2ERKS0_(%"struct.std::_Vector_base<long long, std::allocator<long long> >::_Vector_impl"*, %"class.std::allocator"* dereferenceable(1)) unnamed_addr #4 comdat align 2 {
  %3 = alloca %"struct.std::_Vector_base<long long, std::allocator<long long> >::_Vector_impl"*, align 8
  %4 = alloca %"class.std::allocator"*, align 8
  store %"struct.std::_Vector_base<long long, std::allocator<long long> >::_Vector_impl"* %0, %"struct.std::_Vector_base<long long, std::allocator<long long> >::_Vector_impl"** %3, align 8
  store %"class.std::allocator"* %1, %"class.std::allocator"** %4, align 8
  %5 = load %"struct.std::_Vector_base<long long, std::allocator<long long> >::_Vector_impl"*, %"struct.std::_Vector_base<long long, std::allocator<long long> >::_Vector_impl"** %3, align 8
  %6 = bitcast %"struct.std::_Vector_base<long long, std::allocator<long long> >::_Vector_impl"* %5 to %"class.std::allocator"*
  %7 = load %"class.std::allocator"*, %"class.std::allocator"** %4, align 8
  call void @_ZNSaIxEC2ERKS_(%"class.std::allocator"* %6, %"class.std::allocator"* dereferenceable(1) %7) #3
  %8 = getelementptr inbounds %"struct.std::_Vector_base<long long, std::allocator<long long> >::_Vector_impl", %"struct.std::_Vector_base<long long, std::allocator<long long> >::_Vector_impl"* %5, i32 0, i32 0
  store i64* null, i64** %8, align 8
  %9 = getelementptr inbounds %"struct.std::_Vector_base<long long, std::allocator<long long> >::_Vector_impl", %"struct.std::_Vector_base<long long, std::allocator<long long> >::_Vector_impl"* %5, i32 0, i32 1
  store i64* null, i64** %9, align 8
  %10 = getelementptr inbounds %"struct.std::_Vector_base<long long, std::allocator<long long> >::_Vector_impl", %"struct.std::_Vector_base<long long, std::allocator<long long> >::_Vector_impl"* %5, i32 0, i32 2
  store i64* null, i64** %10, align 8
  ret void
}

; Function Attrs: noinline uwtable
define linkonce_odr void @_ZNSt12_Vector_baseIxSaIxEE17_M_create_storageEm(%"struct.std::_Vector_base"*, i64) #0 comdat align 2 {
  %3 = alloca %"struct.std::_Vector_base"*, align 8
  %4 = alloca i64, align 8
  store %"struct.std::_Vector_base"* %0, %"struct.std::_Vector_base"** %3, align 8
  store i64 %1, i64* %4, align 8
  %5 = load %"struct.std::_Vector_base"*, %"struct.std::_Vector_base"** %3, align 8
  %6 = load i64, i64* %4, align 8
  %7 = call i64* @_ZNSt12_Vector_baseIxSaIxEE11_M_allocateEm(%"struct.std::_Vector_base"* %5, i64 %6)
  %8 = getelementptr inbounds %"struct.std::_Vector_base", %"struct.std::_Vector_base"* %5, i32 0, i32 0
  %9 = getelementptr inbounds %"struct.std::_Vector_base<long long, std::allocator<long long> >::_Vector_impl", %"struct.std::_Vector_base<long long, std::allocator<long long> >::_Vector_impl"* %8, i32 0, i32 0
  store i64* %7, i64** %9, align 8
  %10 = getelementptr inbounds %"struct.std::_Vector_base", %"struct.std::_Vector_base"* %5, i32 0, i32 0
  %11 = getelementptr inbounds %"struct.std::_Vector_base<long long, std::allocator<long long> >::_Vector_impl", %"struct.std::_Vector_base<long long, std::allocator<long long> >::_Vector_impl"* %10, i32 0, i32 0
  %12 = load i64*, i64** %11, align 8
  %13 = getelementptr inbounds %"struct.std::_Vector_base", %"struct.std::_Vector_base"* %5, i32 0, i32 0
  %14 = getelementptr inbounds %"struct.std::_Vector_base<long long, std::allocator<long long> >::_Vector_impl", %"struct.std::_Vector_base<long long, std::allocator<long long> >::_Vector_impl"* %13, i32 0, i32 1
  store i64* %12, i64** %14, align 8
  %15 = getelementptr inbounds %"struct.std::_Vector_base", %"struct.std::_Vector_base"* %5, i32 0, i32 0
  %16 = getelementptr inbounds %"struct.std::_Vector_base<long long, std::allocator<long long> >::_Vector_impl", %"struct.std::_Vector_base<long long, std::allocator<long long> >::_Vector_impl"* %15, i32 0, i32 0
  %17 = load i64*, i64** %16, align 8
  %18 = load i64, i64* %4, align 8
  %19 = getelementptr inbounds i64, i64* %17, i64 %18
  %20 = getelementptr inbounds %"struct.std::_Vector_base", %"struct.std::_Vector_base"* %5, i32 0, i32 0
  %21 = getelementptr inbounds %"struct.std::_Vector_base<long long, std::allocator<long long> >::_Vector_impl", %"struct.std::_Vector_base<long long, std::allocator<long long> >::_Vector_impl"* %20, i32 0, i32 2
  store i64* %19, i64** %21, align 8
  ret void
}

; Function Attrs: noinline nounwind uwtable
define linkonce_odr void @_ZNSt12_Vector_baseIxSaIxEE12_Vector_implD2Ev(%"struct.std::_Vector_base<long long, std::allocator<long long> >::_Vector_impl"*) unnamed_addr #4 comdat align 2 {
  %2 = alloca %"struct.std::_Vector_base<long long, std::allocator<long long> >::_Vector_impl"*, align 8
  store %"struct.std::_Vector_base<long long, std::allocator<long long> >::_Vector_impl"* %0, %"struct.std::_Vector_base<long long, std::allocator<long long> >::_Vector_impl"** %2, align 8
  %3 = load %"struct.std::_Vector_base<long long, std::allocator<long long> >::_Vector_impl"*, %"struct.std::_Vector_base<long long, std::allocator<long long> >::_Vector_impl"** %2, align 8
  %4 = bitcast %"struct.std::_Vector_base<long long, std::allocator<long long> >::_Vector_impl"* %3 to %"class.std::allocator"*
  call void @_ZNSaIxED2Ev(%"class.std::allocator"* %4) #3
  ret void
}

; Function Attrs: noinline nounwind uwtable
define linkonce_odr void @_ZNSaIxEC2ERKS_(%"class.std::allocator"*, %"class.std::allocator"* dereferenceable(1)) unnamed_addr #4 comdat align 2 {
  %3 = alloca %"class.std::allocator"*, align 8
  %4 = alloca %"class.std::allocator"*, align 8
  store %"class.std::allocator"* %0, %"class.std::allocator"** %3, align 8
  store %"class.std::allocator"* %1, %"class.std::allocator"** %4, align 8
  %5 = load %"class.std::allocator"*, %"class.std::allocator"** %3, align 8
  %6 = bitcast %"class.std::allocator"* %5 to %"class.__gnu_cxx::new_allocator"*
  %7 = load %"class.std::allocator"*, %"class.std::allocator"** %4, align 8
  %8 = bitcast %"class.std::allocator"* %7 to %"class.__gnu_cxx::new_allocator"*
  call void @_ZN9__gnu_cxx13new_allocatorIxEC2ERKS1_(%"class.__gnu_cxx::new_allocator"* %6, %"class.__gnu_cxx::new_allocator"* dereferenceable(1) %8) #3
  ret void
}

; Function Attrs: noinline nounwind uwtable
define linkonce_odr void @_ZN9__gnu_cxx13new_allocatorIxEC2ERKS1_(%"class.__gnu_cxx::new_allocator"*, %"class.__gnu_cxx::new_allocator"* dereferenceable(1)) unnamed_addr #4 comdat align 2 {
  %3 = alloca i1
  %4 = alloca i1
  %5 = load i32, i32* @x.45
  %6 = load i32, i32* @y.46
  %7 = sub i32 %5, 184861478
  %8 = sub i32 %7, 1
  %9 = add i32 %8, 184861478
  %10 = sub i32 %5, 1
  %11 = mul i32 %5, %9
  %12 = urem i32 %11, 2
  %13 = icmp eq i32 %12, 0
  store i1 %13, i1* %4
  %14 = icmp slt i32 %6, 10
  store i1 %14, i1* %3
  %15 = alloca i32
  store i32 75760978, i32* %15
  br label %16

; <label>:16:                                     ; preds = %2, %75
  %17 = load i32, i32* %15
  switch i32 %17, label %18 [
    i32 75760978, label %19
    i32 1718204171, label %39
    i32 1330143428, label %70
    i32 -1472113839, label %71
  ]

; <label>:18:                                     ; preds = %16
  br label %75

; <label>:19:                                     ; preds = %16
  %20 = load volatile i1, i1* %4
  %21 = load volatile i1, i1* %3
  %22 = xor i1 %20, true
  %23 = xor i1 %21, true
  %24 = xor i1 true, true
  %25 = and i1 %22, true
  %26 = and i1 %20, %24
  %27 = and i1 %23, true
  %28 = and i1 %21, %24
  %29 = or i1 %25, %26
  %30 = or i1 %27, %28
  %31 = xor i1 %29, %30
  %32 = or i1 %22, %23
  %33 = xor i1 %32, true
  %34 = or i1 true, %24
  %35 = and i1 %33, %34
  %36 = or i1 %31, %35
  %37 = or i1 %20, %21
  %38 = select i1 %36, i32 1718204171, i32 -1472113839
  store i32 %38, i32* %15
  br label %75

; <label>:39:                                     ; preds = %16
  %40 = alloca %"class.__gnu_cxx::new_allocator"*, align 8
  %41 = alloca %"class.__gnu_cxx::new_allocator"*, align 8
  store %"class.__gnu_cxx::new_allocator"* %0, %"class.__gnu_cxx::new_allocator"** %40, align 8
  store %"class.__gnu_cxx::new_allocator"* %1, %"class.__gnu_cxx::new_allocator"** %41, align 8
  %42 = load %"class.__gnu_cxx::new_allocator"*, %"class.__gnu_cxx::new_allocator"** %40, align 8
  %43 = load i32, i32* @x.45
  %44 = load i32, i32* @y.46
  %45 = add i32 %43, -131934382
  %46 = sub i32 %45, 1
  %47 = sub i32 %46, -131934382
  %48 = sub i32 %43, 1
  %49 = mul i32 %43, %47
  %50 = urem i32 %49, 2
  %51 = icmp eq i32 %50, 0
  %52 = icmp slt i32 %44, 10
  %53 = xor i1 %51, true
  %54 = xor i1 %52, true
  %55 = xor i1 true, true
  %56 = and i1 %53, true
  %57 = and i1 %51, %55
  %58 = and i1 %54, true
  %59 = and i1 %52, %55
  %60 = or i1 %56, %57
  %61 = or i1 %58, %59
  %62 = xor i1 %60, %61
  %63 = or i1 %53, %54
  %64 = xor i1 %63, true
  %65 = or i1 true, %55
  %66 = and i1 %64, %65
  %67 = or i1 %62, %66
  %68 = or i1 %51, %52
  %69 = select i1 %67, i32 1330143428, i32 -1472113839
  store i32 %69, i32* %15
  br label %75

; <label>:70:                                     ; preds = %16
  ret void

; <label>:71:                                     ; preds = %16
  %72 = alloca %"class.__gnu_cxx::new_allocator"*, align 8
  %73 = alloca %"class.__gnu_cxx::new_allocator"*, align 8
  store %"class.__gnu_cxx::new_allocator"* %0, %"class.__gnu_cxx::new_allocator"** %72, align 8
  store %"class.__gnu_cxx::new_allocator"* %1, %"class.__gnu_cxx::new_allocator"** %73, align 8
  %74 = load %"class.__gnu_cxx::new_allocator"*, %"class.__gnu_cxx::new_allocator"** %72, align 8
  store i32 1718204171, i32* %15
  br label %75

; <label>:75:                                     ; preds = %71, %39, %19, %18
  br label %16
}

; Function Attrs: noinline uwtable
define linkonce_odr i64* @_ZNSt12_Vector_baseIxSaIxEE11_M_allocateEm(%"struct.std::_Vector_base"*, i64) #0 comdat align 2 {
  %3 = alloca i1
  %4 = alloca %"struct.std::_Vector_base"*
  %5 = alloca i64*
  %6 = alloca i1
  %7 = alloca i1
  %8 = load i32, i32* @x.47
  %9 = load i32, i32* @y.48
  %10 = sub i32 %8, 326322460
  %11 = sub i32 %10, 1
  %12 = add i32 %11, 326322460
  %13 = sub i32 %8, 1
  %14 = mul i32 %8, %12
  %15 = urem i32 %14, 2
  %16 = icmp eq i32 %15, 0
  store i1 %16, i1* %7
  %17 = icmp slt i32 %9, 10
  store i1 %17, i1* %6
  %18 = alloca i32
  store i32 -685594598, i32* %18
  %19 = alloca i64*
  br label %20

; <label>:20:                                     ; preds = %2, %85
  %21 = load i32, i32* %18
  switch i32 %21, label %22 [
    i32 -685594598, label %23
    i32 842175252, label %31
    i32 58217150, label %66
    i32 1727649883, label %69
    i32 1164120518, label %76
    i32 -472933359, label %77
    i32 472920621, label %79
  ]

; <label>:22:                                     ; preds = %20
  br label %85

; <label>:23:                                     ; preds = %20
  %24 = load volatile i1, i1* %7
  %25 = load volatile i1, i1* %6
  %26 = and i1 %24, %25
  %27 = xor i1 %24, %25
  %28 = or i1 %26, %27
  %29 = or i1 %24, %25
  %30 = select i1 %28, i32 842175252, i32 472920621
  store i32 %30, i32* %18
  br label %85

; <label>:31:                                     ; preds = %20
  %32 = alloca %"struct.std::_Vector_base"*, align 8
  %33 = alloca i64, align 8
  store i64* %33, i64** %5
  store %"struct.std::_Vector_base"* %0, %"struct.std::_Vector_base"** %32, align 8
  %34 = load volatile i64*, i64** %5
  store i64 %1, i64* %34, align 8
  %35 = load %"struct.std::_Vector_base"*, %"struct.std::_Vector_base"** %32, align 8
  store %"struct.std::_Vector_base"* %35, %"struct.std::_Vector_base"** %4
  %36 = load volatile i64*, i64** %5
  %37 = load i64, i64* %36, align 8
  %38 = icmp ne i64 %37, 0
  store i1 %38, i1* %3
  %39 = load i32, i32* @x.47
  %40 = load i32, i32* @y.48
  %41 = add i32 %39, 1836851735
  %42 = sub i32 %41, 1
  %43 = sub i32 %42, 1836851735
  %44 = sub i32 %39, 1
  %45 = mul i32 %39, %43
  %46 = urem i32 %45, 2
  %47 = icmp eq i32 %46, 0
  %48 = icmp slt i32 %40, 10
  %49 = xor i1 %47, true
  %50 = xor i1 %48, true
  %51 = xor i1 false, true
  %52 = and i1 %49, false
  %53 = and i1 %47, %51
  %54 = and i1 %50, false
  %55 = and i1 %48, %51
  %56 = or i1 %52, %53
  %57 = or i1 %54, %55
  %58 = xor i1 %56, %57
  %59 = or i1 %49, %50
  %60 = xor i1 %59, true
  %61 = or i1 false, %51
  %62 = and i1 %60, %61
  %63 = or i1 %58, %62
  %64 = or i1 %47, %48
  %65 = select i1 %63, i32 58217150, i32 472920621
  store i32 %65, i32* %18
  br label %85

; <label>:66:                                     ; preds = %20
  %67 = load volatile i1, i1* %3
  %68 = select i1 %67, i32 1727649883, i32 1164120518
  store i32 %68, i32* %18
  br label %85

; <label>:69:                                     ; preds = %20
  %70 = load volatile %"struct.std::_Vector_base"*, %"struct.std::_Vector_base"** %4
  %71 = getelementptr inbounds %"struct.std::_Vector_base", %"struct.std::_Vector_base"* %70, i32 0, i32 0
  %72 = bitcast %"struct.std::_Vector_base<long long, std::allocator<long long> >::_Vector_impl"* %71 to %"class.std::allocator"*
  %73 = load volatile i64*, i64** %5
  %74 = load i64, i64* %73, align 8
  %75 = call i64* @_ZNSt16allocator_traitsISaIxEE8allocateERS0_m(%"class.std::allocator"* dereferenceable(1) %72, i64 %74)
  store i32 -472933359, i32* %18
  store i64* %75, i64** %19
  br label %85

; <label>:76:                                     ; preds = %20
  store i32 -472933359, i32* %18
  store i64* null, i64** %19
  br label %85

; <label>:77:                                     ; preds = %20
  %78 = load i64*, i64** %19
  ret i64* %78

; <label>:79:                                     ; preds = %20
  %80 = alloca %"struct.std::_Vector_base"*, align 8
  %81 = alloca i64, align 8
  store %"struct.std::_Vector_base"* %0, %"struct.std::_Vector_base"** %80, align 8
  store i64 %1, i64* %81, align 8
  %82 = load %"struct.std::_Vector_base"*, %"struct.std::_Vector_base"** %80, align 8
  %83 = load i64, i64* %81, align 8
  %84 = icmp ne i64 %83, 0
  store i32 842175252, i32* %18
  br label %85

; <label>:85:                                     ; preds = %79, %76, %69, %66, %31, %23, %22
  br label %20
}

; Function Attrs: noinline uwtable
define linkonce_odr i64* @_ZNSt16allocator_traitsISaIxEE8allocateERS0_m(%"class.std::allocator"* dereferenceable(1), i64) #0 comdat align 2 {
  %3 = alloca i64*
  %4 = alloca i1
  %5 = alloca i1
  %6 = load i32, i32* @x.49
  %7 = load i32, i32* @y.50
  %8 = sub i32 0, 1
  %9 = add i32 %6, %8
  %10 = sub i32 %6, 1
  %11 = mul i32 %6, %9
  %12 = urem i32 %11, 2
  %13 = icmp eq i32 %12, 0
  store i1 %13, i1* %5
  %14 = icmp slt i32 %7, 10
  store i1 %14, i1* %4
  %15 = alloca i32
  store i32 -1921948333, i32* %15
  br label %16

; <label>:16:                                     ; preds = %2, %70
  %17 = load i32, i32* %15
  switch i32 %17, label %18 [
    i32 -1921948333, label %19
    i32 -2018447188, label %39
    i32 -1218276359, label %61
    i32 -407317875, label %63
  ]

; <label>:18:                                     ; preds = %16
  br label %70

; <label>:19:                                     ; preds = %16
  %20 = load volatile i1, i1* %5
  %21 = load volatile i1, i1* %4
  %22 = xor i1 %20, true
  %23 = xor i1 %21, true
  %24 = xor i1 true, true
  %25 = and i1 %22, true
  %26 = and i1 %20, %24
  %27 = and i1 %23, true
  %28 = and i1 %21, %24
  %29 = or i1 %25, %26
  %30 = or i1 %27, %28
  %31 = xor i1 %29, %30
  %32 = or i1 %22, %23
  %33 = xor i1 %32, true
  %34 = or i1 true, %24
  %35 = and i1 %33, %34
  %36 = or i1 %31, %35
  %37 = or i1 %20, %21
  %38 = select i1 %36, i32 -2018447188, i32 -407317875
  store i32 %38, i32* %15
  br label %70

; <label>:39:                                     ; preds = %16
  %40 = alloca %"class.std::allocator"*, align 8
  %41 = alloca i64, align 8
  store %"class.std::allocator"* %0, %"class.std::allocator"** %40, align 8
  store i64 %1, i64* %41, align 8
  %42 = load %"class.std::allocator"*, %"class.std::allocator"** %40, align 8
  %43 = bitcast %"class.std::allocator"* %42 to %"class.__gnu_cxx::new_allocator"*
  %44 = load i64, i64* %41, align 8
  %45 = call i64* @_ZN9__gnu_cxx13new_allocatorIxE8allocateEmPKv(%"class.__gnu_cxx::new_allocator"* %43, i64 %44, i8* null)
  store i64* %45, i64** %3
  %46 = load i32, i32* @x.49
  %47 = load i32, i32* @y.50
  %48 = sub i32 %46, -1878860348
  %49 = sub i32 %48, 1
  %50 = add i32 %49, -1878860348
  %51 = sub i32 %46, 1
  %52 = mul i32 %46, %50
  %53 = urem i32 %52, 2
  %54 = icmp eq i32 %53, 0
  %55 = icmp slt i32 %47, 10
  %56 = and i1 %54, %55
  %57 = xor i1 %54, %55
  %58 = or i1 %56, %57
  %59 = or i1 %54, %55
  %60 = select i1 %58, i32 -1218276359, i32 -407317875
  store i32 %60, i32* %15
  br label %70

; <label>:61:                                     ; preds = %16
  %62 = load volatile i64*, i64** %3
  ret i64* %62

; <label>:63:                                     ; preds = %16
  %64 = alloca %"class.std::allocator"*, align 8
  %65 = alloca i64, align 8
  store %"class.std::allocator"* %0, %"class.std::allocator"** %64, align 8
  store i64 %1, i64* %65, align 8
  %66 = load %"class.std::allocator"*, %"class.std::allocator"** %64, align 8
  %67 = bitcast %"class.std::allocator"* %66 to %"class.__gnu_cxx::new_allocator"*
  %68 = load i64, i64* %65, align 8
  %69 = call i64* @_ZN9__gnu_cxx13new_allocatorIxE8allocateEmPKv(%"class.__gnu_cxx::new_allocator"* %67, i64 %68, i8* null)
  store i32 -2018447188, i32* %15
  br label %70

; <label>:70:                                     ; preds = %63, %39, %19, %18
  br label %16
}

; Function Attrs: noinline uwtable
define linkonce_odr i64* @_ZN9__gnu_cxx13new_allocatorIxE8allocateEmPKv(%"class.__gnu_cxx::new_allocator"*, i64, i8*) #0 comdat align 2 {
  %4 = alloca i64*
  %5 = alloca i64
  %6 = alloca i64
  %7 = alloca %"class.__gnu_cxx::new_allocator"*, align 8
  %8 = alloca i64, align 8
  %9 = alloca i8*, align 8
  store %"class.__gnu_cxx::new_allocator"* %0, %"class.__gnu_cxx::new_allocator"** %7, align 8
  store i64 %1, i64* %8, align 8
  store i8* %2, i8** %9, align 8
  %10 = load %"class.__gnu_cxx::new_allocator"*, %"class.__gnu_cxx::new_allocator"** %7, align 8
  %11 = load i64, i64* %8, align 8
  store i64 %11, i64* %6
  %12 = call i64 @_ZNK9__gnu_cxx13new_allocatorIxE8max_sizeEv(%"class.__gnu_cxx::new_allocator"* %10) #3
  store i64 %12, i64* %5
  %13 = alloca i32
  store i32 -1639393033, i32* %13
  br label %14

; <label>:14:                                     ; preds = %3, %106
  %15 = load i32, i32* %13
  switch i32 %15, label %16 [
    i32 -1639393033, label %17
    i32 -775099012, label %22
    i32 -2078684682, label %23
    i32 1156937864, label %51
    i32 -464017039, label %83
    i32 860890720, label %85
  ]

; <label>:16:                                     ; preds = %14
  br label %106

; <label>:17:                                     ; preds = %14
  %18 = load volatile i64, i64* %6
  %19 = load volatile i64, i64* %5
  %20 = icmp ugt i64 %18, %19
  %21 = select i1 %20, i32 -775099012, i32 -2078684682
  store i32 %21, i32* %13
  br label %106

; <label>:22:                                     ; preds = %14
  call void @_ZSt17__throw_bad_allocv() #11
  unreachable

; <label>:23:                                     ; preds = %14
  %24 = load i32, i32* @x.51
  %25 = load i32, i32* @y.52
  %26 = add i32 %24, -1598887996
  %27 = sub i32 %26, 1
  %28 = sub i32 %27, -1598887996
  %29 = sub i32 %24, 1
  %30 = mul i32 %24, %28
  %31 = urem i32 %30, 2
  %32 = icmp eq i32 %31, 0
  %33 = icmp slt i32 %25, 10
  %34 = xor i1 %32, true
  %35 = xor i1 %33, true
  %36 = xor i1 true, true
  %37 = and i1 %34, true
  %38 = and i1 %32, %36
  %39 = and i1 %35, true
  %40 = and i1 %33, %36
  %41 = or i1 %37, %38
  %42 = or i1 %39, %40
  %43 = xor i1 %41, %42
  %44 = or i1 %34, %35
  %45 = xor i1 %44, true
  %46 = or i1 true, %36
  %47 = and i1 %45, %46
  %48 = or i1 %43, %47
  %49 = or i1 %32, %33
  %50 = select i1 %48, i32 1156937864, i32 860890720
  store i32 %50, i32* %13
  br label %106

; <label>:51:                                     ; preds = %14
  %52 = load i64, i64* %8, align 8
  %53 = mul i64 %52, 8
  %54 = call i8* @_Znwm(i64 %53)
  %55 = bitcast i8* %54 to i64*
  store i64* %55, i64** %4
  %56 = load i32, i32* @x.51
  %57 = load i32, i32* @y.52
  %58 = sub i32 %56, -1217257845
  %59 = sub i32 %58, 1
  %60 = add i32 %59, -1217257845
  %61 = sub i32 %56, 1
  %62 = mul i32 %56, %60
  %63 = urem i32 %62, 2
  %64 = icmp eq i32 %63, 0
  %65 = icmp slt i32 %57, 10
  %66 = xor i1 %64, true
  %67 = xor i1 %65, true
  %68 = xor i1 true, true
  %69 = and i1 %66, true
  %70 = and i1 %64, %68
  %71 = and i1 %67, true
  %72 = and i1 %65, %68
  %73 = or i1 %69, %70
  %74 = or i1 %71, %72
  %75 = xor i1 %73, %74
  %76 = or i1 %66, %67
  %77 = xor i1 %76, true
  %78 = or i1 true, %68
  %79 = and i1 %77, %78
  %80 = or i1 %75, %79
  %81 = or i1 %64, %65
  %82 = select i1 %80, i32 -464017039, i32 860890720
  store i32 %82, i32* %13
  br label %106

; <label>:83:                                     ; preds = %14
  %84 = load volatile i64*, i64** %4
  ret i64* %84

; <label>:85:                                     ; preds = %14
  %86 = load i64, i64* %8, align 8
  %87 = sub i64 0, 3544725570930206486
  %88 = sub i64 %87, %86
  %89 = add i64 %88, 3544725570930206486
  %90 = sub i64 0, %86
  %91 = add i64 %89, 933408713001958330
  %92 = add i64 %91, 8
  %93 = sub i64 %92, 933408713001958330
  %94 = add i64 %89, 8
  %95 = sub i64 0, %86
  %96 = add i64 0, %95
  %97 = sub i64 0, %86
  %98 = add i64 %96, 3963223670456590242
  %99 = add i64 %98, 8
  %100 = sub i64 %99, 3963223670456590242
  %101 = add i64 %96, 8
  %102 = shl i64 %86, 8
  %103 = mul i64 %86, 8
  %104 = call i8* @_Znwm(i64 %103)
  %105 = bitcast i8* %104 to i64*
  store i32 1156937864, i32* %13
  br label %106

; <label>:106:                                    ; preds = %85, %51, %23, %17, %16
  br label %14
}

; Function Attrs: noinline nounwind uwtable
define linkonce_odr i64 @_ZNK9__gnu_cxx13new_allocatorIxE8max_sizeEv(%"class.__gnu_cxx::new_allocator"*) #4 comdat align 2 {
  %2 = alloca %"class.__gnu_cxx::new_allocator"*, align 8
  store %"class.__gnu_cxx::new_allocator"* %0, %"class.__gnu_cxx::new_allocator"** %2, align 8
  %3 = load %"class.__gnu_cxx::new_allocator"*, %"class.__gnu_cxx::new_allocator"** %2, align 8
  ret i64 2305843009213693951
}

; Function Attrs: noreturn
declare void @_ZSt17__throw_bad_allocv() #6

; Function Attrs: nobuiltin
declare noalias i8* @_Znwm(i64) #7

; Function Attrs: noinline uwtable
define linkonce_odr i64* @_ZSt27__uninitialized_default_n_aIPxmxET_S1_T0_RSaIT1_E(i64*, i64, %"class.std::allocator"* dereferenceable(1)) #0 comdat {
  %4 = alloca i64*, align 8
  %5 = alloca i64, align 8
  %6 = alloca %"class.std::allocator"*, align 8
  store i64* %0, i64** %4, align 8
  store i64 %1, i64* %5, align 8
  store %"class.std::allocator"* %2, %"class.std::allocator"** %6, align 8
  %7 = load i64*, i64** %4, align 8
  %8 = load i64, i64* %5, align 8
  %9 = call i64* @_ZSt25__uninitialized_default_nIPxmET_S1_T0_(i64* %7, i64 %8)
  ret i64* %9
}

; Function Attrs: noinline nounwind uwtable
define linkonce_odr dereferenceable(1) %"class.std::allocator"* @_ZNSt12_Vector_baseIxSaIxEE19_M_get_Tp_allocatorEv(%"struct.std::_Vector_base"*) #4 comdat align 2 {
  %2 = alloca %"struct.std::_Vector_base"*, align 8
  store %"struct.std::_Vector_base"* %0, %"struct.std::_Vector_base"** %2, align 8
  %3 = load %"struct.std::_Vector_base"*, %"struct.std::_Vector_base"** %2, align 8
  %4 = getelementptr inbounds %"struct.std::_Vector_base", %"struct.std::_Vector_base"* %3, i32 0, i32 0
  %5 = bitcast %"struct.std::_Vector_base<long long, std::allocator<long long> >::_Vector_impl"* %4 to %"class.std::allocator"*
  ret %"class.std::allocator"* %5
}

; Function Attrs: noinline uwtable
define linkonce_odr i64* @_ZSt25__uninitialized_default_nIPxmET_S1_T0_(i64*, i64) #0 comdat {
  %3 = alloca i64*
  %4 = alloca i1
  %5 = alloca i1
  %6 = load i32, i32* @x.59
  %7 = load i32, i32* @y.60
  %8 = add i32 %6, 1516293070
  %9 = sub i32 %8, 1
  %10 = sub i32 %9, 1516293070
  %11 = sub i32 %6, 1
  %12 = mul i32 %6, %10
  %13 = urem i32 %12, 2
  %14 = icmp eq i32 %13, 0
  store i1 %14, i1* %5
  %15 = icmp slt i32 %7, 10
  store i1 %15, i1* %4
  %16 = alloca i32
  store i32 1373780496, i32* %16
  br label %17

; <label>:17:                                     ; preds = %2, %70
  %18 = load i32, i32* %16
  switch i32 %18, label %19 [
    i32 1373780496, label %20
    i32 -1905315705, label %28
    i32 1911631681, label %61
    i32 -1597622376, label %63
  ]

; <label>:19:                                     ; preds = %17
  br label %70

; <label>:20:                                     ; preds = %17
  %21 = load volatile i1, i1* %5
  %22 = load volatile i1, i1* %4
  %23 = and i1 %21, %22
  %24 = xor i1 %21, %22
  %25 = or i1 %23, %24
  %26 = or i1 %21, %22
  %27 = select i1 %25, i32 -1905315705, i32 -1597622376
  store i32 %27, i32* %16
  br label %70

; <label>:28:                                     ; preds = %17
  %29 = alloca i64*, align 8
  %30 = alloca i64, align 8
  %31 = alloca i8, align 1
  store i64* %0, i64** %29, align 8
  store i64 %1, i64* %30, align 8
  store i8 1, i8* %31, align 1
  %32 = load i64*, i64** %29, align 8
  %33 = load i64, i64* %30, align 8
  %34 = call i64* @_ZNSt27__uninitialized_default_n_1ILb1EE18__uninit_default_nIPxmEET_S3_T0_(i64* %32, i64 %33)
  store i64* %34, i64** %3
  %35 = load i32, i32* @x.59
  %36 = load i32, i32* @y.60
  %37 = sub i32 0, 1
  %38 = add i32 %35, %37
  %39 = sub i32 %35, 1
  %40 = mul i32 %35, %38
  %41 = urem i32 %40, 2
  %42 = icmp eq i32 %41, 0
  %43 = icmp slt i32 %36, 10
  %44 = xor i1 %42, true
  %45 = xor i1 %43, true
  %46 = xor i1 true, true
  %47 = and i1 %44, true
  %48 = and i1 %42, %46
  %49 = and i1 %45, true
  %50 = and i1 %43, %46
  %51 = or i1 %47, %48
  %52 = or i1 %49, %50
  %53 = xor i1 %51, %52
  %54 = or i1 %44, %45
  %55 = xor i1 %54, true
  %56 = or i1 true, %46
  %57 = and i1 %55, %56
  %58 = or i1 %53, %57
  %59 = or i1 %42, %43
  %60 = select i1 %58, i32 1911631681, i32 -1597622376
  store i32 %60, i32* %16
  br label %70

; <label>:61:                                     ; preds = %17
  %62 = load volatile i64*, i64** %3
  ret i64* %62

; <label>:63:                                     ; preds = %17
  %64 = alloca i64*, align 8
  %65 = alloca i64, align 8
  %66 = alloca i8, align 1
  store i64* %0, i64** %64, align 8
  store i64 %1, i64* %65, align 8
  store i8 1, i8* %66, align 1
  %67 = load i64*, i64** %64, align 8
  %68 = load i64, i64* %65, align 8
  %69 = call i64* @_ZNSt27__uninitialized_default_n_1ILb1EE18__uninit_default_nIPxmEET_S3_T0_(i64* %67, i64 %68)
  store i32 -1905315705, i32* %16
  br label %70

; <label>:70:                                     ; preds = %63, %28, %20, %19
  br label %17
}

; Function Attrs: noinline uwtable
define linkonce_odr i64* @_ZNSt27__uninitialized_default_n_1ILb1EE18__uninit_default_nIPxmEET_S3_T0_(i64*, i64) #0 comdat align 2 {
  %3 = alloca i64*, align 8
  %4 = alloca i64, align 8
  %5 = alloca i64, align 8
  store i64* %0, i64** %3, align 8
  store i64 %1, i64* %4, align 8
  %6 = load i64*, i64** %3, align 8
  %7 = load i64, i64* %4, align 8
  store i64 0, i64* %5, align 8
  %8 = call i64* @_ZSt6fill_nIPxmxET_S1_T0_RKT1_(i64* %6, i64 %7, i64* dereferenceable(8) %5)
  ret i64* %8
}

; Function Attrs: noinline uwtable
define linkonce_odr i64* @_ZSt6fill_nIPxmxET_S1_T0_RKT1_(i64*, i64, i64* dereferenceable(8)) #0 comdat {
  %4 = alloca i64*, align 8
  %5 = alloca i64, align 8
  %6 = alloca i64*, align 8
  store i64* %0, i64** %4, align 8
  store i64 %1, i64* %5, align 8
  store i64* %2, i64** %6, align 8
  %7 = load i64*, i64** %4, align 8
  %8 = call i64* @_ZSt12__niter_baseIPxENSt11_Niter_baseIT_E13iterator_typeES2_(i64* %7)
  %9 = load i64, i64* %5, align 8
  %10 = load i64*, i64** %6, align 8
  %11 = call i64* @_ZSt10__fill_n_aIPxmxEN9__gnu_cxx11__enable_ifIXsr11__is_scalarIT1_EE7__valueET_E6__typeES4_T0_RKS3_(i64* %8, i64 %9, i64* dereferenceable(8) %10)
  ret i64* %11
}

; Function Attrs: noinline nounwind uwtable
define linkonce_odr i64* @_ZSt10__fill_n_aIPxmxEN9__gnu_cxx11__enable_ifIXsr11__is_scalarIT1_EE7__valueET_E6__typeES4_T0_RKS3_(i64*, i64, i64* dereferenceable(8)) #4 comdat {
  %4 = alloca i64*
  %5 = alloca i64*, align 8
  %6 = alloca i64, align 8
  %7 = alloca i64*, align 8
  %8 = alloca i64, align 8
  %9 = alloca i64, align 8
  store i64* %0, i64** %5, align 8
  store i64 %1, i64* %6, align 8
  store i64* %2, i64** %7, align 8
  %10 = load i64*, i64** %7, align 8
  %11 = load i64, i64* %10, align 8
  store i64 %11, i64* %8, align 8
  %12 = load i64, i64* %6, align 8
  store i64 %12, i64* %9, align 8
  %13 = alloca i32
  store i32 -21366183, i32* %13
  br label %14

; <label>:14:                                     ; preds = %3, %165
  %15 = load i32, i32* %13
  switch i32 %15, label %16 [
    i32 -21366183, label %17
    i32 -481726766, label %21
    i32 1790870696, label %24
    i32 242497412, label %52
    i32 -1796690379, label %74
    i32 883932784, label %75
    i32 -1171907254, label %103
    i32 1076018915, label %119
    i32 -564680243, label %121
    i32 -893073071, label %163
  ]

; <label>:16:                                     ; preds = %14
  br label %165

; <label>:17:                                     ; preds = %14
  %18 = load i64, i64* %9, align 8
  %19 = icmp ugt i64 %18, 0
  %20 = select i1 %19, i32 -481726766, i32 883932784
  store i32 %20, i32* %13
  br label %165

; <label>:21:                                     ; preds = %14
  %22 = load i64, i64* %8, align 8
  %23 = load i64*, i64** %5, align 8
  store i64 %22, i64* %23, align 8
  store i32 1790870696, i32* %13
  br label %165

; <label>:24:                                     ; preds = %14
  %25 = load i32, i32* @x.65
  %26 = load i32, i32* @y.66
  %27 = sub i32 %25, 766302923
  %28 = sub i32 %27, 1
  %29 = add i32 %28, 766302923
  %30 = sub i32 %25, 1
  %31 = mul i32 %25, %29
  %32 = urem i32 %31, 2
  %33 = icmp eq i32 %32, 0
  %34 = icmp slt i32 %26, 10
  %35 = xor i1 %33, true
  %36 = xor i1 %34, true
  %37 = xor i1 true, true
  %38 = and i1 %35, true
  %39 = and i1 %33, %37
  %40 = and i1 %36, true
  %41 = and i1 %34, %37
  %42 = or i1 %38, %39
  %43 = or i1 %40, %41
  %44 = xor i1 %42, %43
  %45 = or i1 %35, %36
  %46 = xor i1 %45, true
  %47 = or i1 true, %37
  %48 = and i1 %46, %47
  %49 = or i1 %44, %48
  %50 = or i1 %33, %34
  %51 = select i1 %49, i32 242497412, i32 -564680243
  store i32 %51, i32* %13
  br label %165

; <label>:52:                                     ; preds = %14
  %53 = load i64, i64* %9, align 8
  %54 = sub i64 %53, -3971549918424141806
  %55 = add i64 %54, -1
  %56 = add i64 %55, -3971549918424141806
  %57 = add i64 %53, -1
  store i64 %56, i64* %9, align 8
  %58 = load i64*, i64** %5, align 8
  %59 = getelementptr inbounds i64, i64* %58, i32 1
  store i64* %59, i64** %5, align 8
  %60 = load i32, i32* @x.65
  %61 = load i32, i32* @y.66
  %62 = sub i32 0, 1
  %63 = add i32 %60, %62
  %64 = sub i32 %60, 1
  %65 = mul i32 %60, %63
  %66 = urem i32 %65, 2
  %67 = icmp eq i32 %66, 0
  %68 = icmp slt i32 %61, 10
  %69 = and i1 %67, %68
  %70 = xor i1 %67, %68
  %71 = or i1 %69, %70
  %72 = or i1 %67, %68
  %73 = select i1 %71, i32 -1796690379, i32 -564680243
  store i32 %73, i32* %13
  br label %165

; <label>:74:                                     ; preds = %14
  store i32 -21366183, i32* %13
  br label %165

; <label>:75:                                     ; preds = %14
  %76 = load i32, i32* @x.65
  %77 = load i32, i32* @y.66
  %78 = add i32 %76, 38755636
  %79 = sub i32 %78, 1
  %80 = sub i32 %79, 38755636
  %81 = sub i32 %76, 1
  %82 = mul i32 %76, %80
  %83 = urem i32 %82, 2
  %84 = icmp eq i32 %83, 0
  %85 = icmp slt i32 %77, 10
  %86 = xor i1 %84, true
  %87 = xor i1 %85, true
  %88 = xor i1 false, true
  %89 = and i1 %86, false
  %90 = and i1 %84, %88
  %91 = and i1 %87, false
  %92 = and i1 %85, %88
  %93 = or i1 %89, %90
  %94 = or i1 %91, %92
  %95 = xor i1 %93, %94
  %96 = or i1 %86, %87
  %97 = xor i1 %96, true
  %98 = or i1 false, %88
  %99 = and i1 %97, %98
  %100 = or i1 %95, %99
  %101 = or i1 %84, %85
  %102 = select i1 %100, i32 -1171907254, i32 -893073071
  store i32 %102, i32* %13
  br label %165

; <label>:103:                                    ; preds = %14
  %104 = load i64*, i64** %5, align 8
  store i64* %104, i64** %4
  %105 = load i32, i32* @x.65
  %106 = load i32, i32* @y.66
  %107 = sub i32 0, 1
  %108 = add i32 %105, %107
  %109 = sub i32 %105, 1
  %110 = mul i32 %105, %108
  %111 = urem i32 %110, 2
  %112 = icmp eq i32 %111, 0
  %113 = icmp slt i32 %106, 10
  %114 = and i1 %112, %113
  %115 = xor i1 %112, %113
  %116 = or i1 %114, %115
  %117 = or i1 %112, %113
  %118 = select i1 %116, i32 1076018915, i32 -893073071
  store i32 %118, i32* %13
  br label %165

; <label>:119:                                    ; preds = %14
  %120 = load volatile i64*, i64** %4
  ret i64* %120

; <label>:121:                                    ; preds = %14
  %122 = load i64, i64* %9, align 8
  %123 = shl i64 %122, -1
  %124 = sub i64 %122, -4321944903755012428
  %125 = sub i64 %124, -1
  %126 = add i64 %125, -4321944903755012428
  %127 = sub i64 %122, -1
  %128 = mul i64 %126, -1
  %129 = sub i64 %122, -6287815389356680598
  %130 = sub i64 %129, -1
  %131 = add i64 %130, -6287815389356680598
  %132 = sub i64 %122, -1
  %133 = mul i64 %131, -1
  %134 = add i64 0, 6952615631447166750
  %135 = sub i64 %134, %122
  %136 = sub i64 %135, 6952615631447166750
  %137 = sub i64 0, %122
  %138 = sub i64 0, %136
  %139 = sub i64 0, -1
  %140 = add i64 %138, %139
  %141 = sub i64 0, %140
  %142 = add i64 %136, -1
  %143 = add i64 0, -7708906257661870965
  %144 = sub i64 %143, %122
  %145 = sub i64 %144, -7708906257661870965
  %146 = sub i64 0, %122
  %147 = sub i64 %145, -7523285878921989151
  %148 = add i64 %147, -1
  %149 = add i64 %148, -7523285878921989151
  %150 = add i64 %145, -1
  %151 = sub i64 0, 2387573452094817070
  %152 = sub i64 %151, %122
  %153 = add i64 %152, 2387573452094817070
  %154 = sub i64 0, %122
  %155 = sub i64 0, -1
  %156 = sub i64 %153, %155
  %157 = add i64 %153, -1
  %158 = sub i64 0, -1
  %159 = sub i64 %122, %158
  %160 = add i64 %122, -1
  store i64 %159, i64* %9, align 8
  %161 = load i64*, i64** %5, align 8
  %162 = getelementptr inbounds i64, i64* %161, i32 1
  store i64* %162, i64** %5, align 8
  store i32 242497412, i32* %13
  br label %165

; <label>:163:                                    ; preds = %14
  %164 = load i64*, i64** %5, align 8
  store i32 -1171907254, i32* %13
  br label %165

; <label>:165:                                    ; preds = %163, %121, %103, %75, %74, %52, %24, %21, %17, %16
  br label %14
}

; Function Attrs: noinline uwtable
define linkonce_odr i64* @_ZSt12__niter_baseIPxENSt11_Niter_baseIT_E13iterator_typeES2_(i64*) #0 comdat {
  %2 = alloca i64*, align 8
  store i64* %0, i64** %2, align 8
  %3 = load i64*, i64** %2, align 8
  %4 = call i64* @_ZNSt10_Iter_baseIPxLb0EE7_S_baseES0_(i64* %3)
  ret i64* %4
}

; Function Attrs: noinline nounwind uwtable
define linkonce_odr i64* @_ZNSt10_Iter_baseIPxLb0EE7_S_baseES0_(i64*) #4 comdat align 2 {
  %2 = alloca i64*, align 8
  store i64* %0, i64** %2, align 8
  %3 = load i64*, i64** %2, align 8
  ret i64* %3
}

; Function Attrs: noinline uwtable
define linkonce_odr void @_ZNSt12_Vector_baseIxSaIxEE13_M_deallocateEPxm(%"struct.std::_Vector_base"*, i64*, i64) #0 comdat align 2 {
  %4 = alloca i64*
  %5 = alloca %"struct.std::_Vector_base"*
  %6 = alloca %"struct.std::_Vector_base"*, align 8
  %7 = alloca i64*, align 8
  %8 = alloca i64, align 8
  store %"struct.std::_Vector_base"* %0, %"struct.std::_Vector_base"** %6, align 8
  store i64* %1, i64** %7, align 8
  store i64 %2, i64* %8, align 8
  %9 = load %"struct.std::_Vector_base"*, %"struct.std::_Vector_base"** %6, align 8
  store %"struct.std::_Vector_base"* %9, %"struct.std::_Vector_base"** %5
  %10 = load i64*, i64** %7, align 8
  store i64* %10, i64** %4
  %11 = alloca i32
  store i32 343425371, i32* %11
  br label %12

; <label>:12:                                     ; preds = %3, %26
  %13 = load i32, i32* %11
  switch i32 %13, label %14 [
    i32 343425371, label %15
    i32 2122795527, label %19
    i32 217157037, label %25
  ]

; <label>:14:                                     ; preds = %12
  br label %26

; <label>:15:                                     ; preds = %12
  %16 = load volatile i64*, i64** %4
  %17 = icmp ne i64* %16, null
  %18 = select i1 %17, i32 2122795527, i32 217157037
  store i32 %18, i32* %11
  br label %26

; <label>:19:                                     ; preds = %12
  %20 = load volatile %"struct.std::_Vector_base"*, %"struct.std::_Vector_base"** %5
  %21 = getelementptr inbounds %"struct.std::_Vector_base", %"struct.std::_Vector_base"* %20, i32 0, i32 0
  %22 = bitcast %"struct.std::_Vector_base<long long, std::allocator<long long> >::_Vector_impl"* %21 to %"class.std::allocator"*
  %23 = load i64*, i64** %7, align 8
  %24 = load i64, i64* %8, align 8
  call void @_ZNSt16allocator_traitsISaIxEE10deallocateERS0_Pxm(%"class.std::allocator"* dereferenceable(1) %22, i64* %23, i64 %24)
  store i32 217157037, i32* %11
  br label %26

; <label>:25:                                     ; preds = %12
  ret void

; <label>:26:                                     ; preds = %19, %15, %14
  br label %12
}

; Function Attrs: noinline noreturn nounwind
define linkonce_odr hidden void @__clang_call_terminate(i8*) #8 comdat {
  %2 = call i8* @__cxa_begin_catch(i8* %0) #3
  call void @_ZSt9terminatev() #10
  unreachable
}

declare i8* @__cxa_begin_catch(i8*)

declare void @_ZSt9terminatev()

; Function Attrs: noinline uwtable
define linkonce_odr void @_ZNSt16allocator_traitsISaIxEE10deallocateERS0_Pxm(%"class.std::allocator"* dereferenceable(1), i64*, i64) #0 comdat align 2 {
  %4 = alloca %"class.std::allocator"*, align 8
  %5 = alloca i64*, align 8
  %6 = alloca i64, align 8
  store %"class.std::allocator"* %0, %"class.std::allocator"** %4, align 8
  store i64* %1, i64** %5, align 8
  store i64 %2, i64* %6, align 8
  %7 = load %"class.std::allocator"*, %"class.std::allocator"** %4, align 8
  %8 = bitcast %"class.std::allocator"* %7 to %"class.__gnu_cxx::new_allocator"*
  %9 = load i64*, i64** %5, align 8
  %10 = load i64, i64* %6, align 8
  call void @_ZN9__gnu_cxx13new_allocatorIxE10deallocateEPxm(%"class.__gnu_cxx::new_allocator"* %8, i64* %9, i64 %10)
  ret void
}

; Function Attrs: noinline nounwind uwtable
define linkonce_odr void @_ZN9__gnu_cxx13new_allocatorIxE10deallocateEPxm(%"class.__gnu_cxx::new_allocator"*, i64*, i64) #4 comdat align 2 {
  %4 = alloca %"class.__gnu_cxx::new_allocator"*, align 8
  %5 = alloca i64*, align 8
  %6 = alloca i64, align 8
  store %"class.__gnu_cxx::new_allocator"* %0, %"class.__gnu_cxx::new_allocator"** %4, align 8
  store i64* %1, i64** %5, align 8
  store i64 %2, i64* %6, align 8
  %7 = load %"class.__gnu_cxx::new_allocator"*, %"class.__gnu_cxx::new_allocator"** %4, align 8
  %8 = load i64*, i64** %5, align 8
  %9 = bitcast i64* %8 to i8*
  call void @_ZdlPv(i8* %9) #3
  ret void
}

; Function Attrs: nobuiltin nounwind
declare void @_ZdlPv(i8*) #9

; Function Attrs: noinline uwtable
define linkonce_odr void @_ZSt8_DestroyIPxxEvT_S1_RSaIT0_E(i64*, i64*, %"class.std::allocator"* dereferenceable(1)) #0 comdat {
  %4 = alloca i1
  %5 = alloca i1
  %6 = load i32, i32* @x.79
  %7 = load i32, i32* @y.80
  %8 = add i32 %6, -1214509195
  %9 = sub i32 %8, 1
  %10 = sub i32 %9, -1214509195
  %11 = sub i32 %6, 1
  %12 = mul i32 %6, %10
  %13 = urem i32 %12, 2
  %14 = icmp eq i32 %13, 0
  store i1 %14, i1* %5
  %15 = icmp slt i32 %7, 10
  store i1 %15, i1* %4
  %16 = alloca i32
  store i32 -120530982, i32* %16
  br label %17

; <label>:17:                                     ; preds = %3, %80
  %18 = load i32, i32* %16
  switch i32 %18, label %19 [
    i32 -120530982, label %20
    i32 -513291113, label %40
    i32 1847786412, label %73
    i32 543243934, label %74
  ]

; <label>:19:                                     ; preds = %17
  br label %80

; <label>:20:                                     ; preds = %17
  %21 = load volatile i1, i1* %5
  %22 = load volatile i1, i1* %4
  %23 = xor i1 %21, true
  %24 = xor i1 %22, true
  %25 = xor i1 false, true
  %26 = and i1 %23, false
  %27 = and i1 %21, %25
  %28 = and i1 %24, false
  %29 = and i1 %22, %25
  %30 = or i1 %26, %27
  %31 = or i1 %28, %29
  %32 = xor i1 %30, %31
  %33 = or i1 %23, %24
  %34 = xor i1 %33, true
  %35 = or i1 false, %25
  %36 = and i1 %34, %35
  %37 = or i1 %32, %36
  %38 = or i1 %21, %22
  %39 = select i1 %37, i32 -513291113, i32 543243934
  store i32 %39, i32* %16
  br label %80

; <label>:40:                                     ; preds = %17
  %41 = alloca i64*, align 8
  %42 = alloca i64*, align 8
  %43 = alloca %"class.std::allocator"*, align 8
  store i64* %0, i64** %41, align 8
  store i64* %1, i64** %42, align 8
  store %"class.std::allocator"* %2, %"class.std::allocator"** %43, align 8
  %44 = load i64*, i64** %41, align 8
  %45 = load i64*, i64** %42, align 8
  call void @_ZSt8_DestroyIPxEvT_S1_(i64* %44, i64* %45)
  %46 = load i32, i32* @x.79
  %47 = load i32, i32* @y.80
  %48 = sub i32 %46, -1056608960
  %49 = sub i32 %48, 1
  %50 = add i32 %49, -1056608960
  %51 = sub i32 %46, 1
  %52 = mul i32 %46, %50
  %53 = urem i32 %52, 2
  %54 = icmp eq i32 %53, 0
  %55 = icmp slt i32 %47, 10
  %56 = xor i1 %54, true
  %57 = xor i1 %55, true
  %58 = xor i1 false, true
  %59 = and i1 %56, false
  %60 = and i1 %54, %58
  %61 = and i1 %57, false
  %62 = and i1 %55, %58
  %63 = or i1 %59, %60
  %64 = or i1 %61, %62
  %65 = xor i1 %63, %64
  %66 = or i1 %56, %57
  %67 = xor i1 %66, true
  %68 = or i1 false, %58
  %69 = and i1 %67, %68
  %70 = or i1 %65, %69
  %71 = or i1 %54, %55
  %72 = select i1 %70, i32 1847786412, i32 543243934
  store i32 %72, i32* %16
  br label %80

; <label>:73:                                     ; preds = %17
  ret void

; <label>:74:                                     ; preds = %17
  %75 = alloca i64*, align 8
  %76 = alloca i64*, align 8
  %77 = alloca %"class.std::allocator"*, align 8
  store i64* %0, i64** %75, align 8
  store i64* %1, i64** %76, align 8
  store %"class.std::allocator"* %2, %"class.std::allocator"** %77, align 8
  %78 = load i64*, i64** %75, align 8
  %79 = load i64*, i64** %76, align 8
  call void @_ZSt8_DestroyIPxEvT_S1_(i64* %78, i64* %79)
  store i32 -513291113, i32* %16
  br label %80

; <label>:80:                                     ; preds = %74, %40, %20, %19
  br label %17
}

; Function Attrs: noinline uwtable
define linkonce_odr void @_ZSt8_DestroyIPxEvT_S1_(i64*, i64*) #0 comdat {
  %3 = alloca i1
  %4 = alloca i1
  %5 = load i32, i32* @x.81
  %6 = load i32, i32* @y.82
  %7 = sub i32 0, 1
  %8 = add i32 %5, %7
  %9 = sub i32 %5, 1
  %10 = mul i32 %5, %8
  %11 = urem i32 %10, 2
  %12 = icmp eq i32 %11, 0
  store i1 %12, i1* %4
  %13 = icmp slt i32 %6, 10
  store i1 %13, i1* %3
  %14 = alloca i32
  store i32 -1761411885, i32* %14
  br label %15

; <label>:15:                                     ; preds = %2, %75
  %16 = load i32, i32* %14
  switch i32 %16, label %17 [
    i32 -1761411885, label %18
    i32 1095995642, label %38
    i32 -1643379808, label %69
    i32 -912325967, label %70
  ]

; <label>:17:                                     ; preds = %15
  br label %75

; <label>:18:                                     ; preds = %15
  %19 = load volatile i1, i1* %4
  %20 = load volatile i1, i1* %3
  %21 = xor i1 %19, true
  %22 = xor i1 %20, true
  %23 = xor i1 false, true
  %24 = and i1 %21, false
  %25 = and i1 %19, %23
  %26 = and i1 %22, false
  %27 = and i1 %20, %23
  %28 = or i1 %24, %25
  %29 = or i1 %26, %27
  %30 = xor i1 %28, %29
  %31 = or i1 %21, %22
  %32 = xor i1 %31, true
  %33 = or i1 false, %23
  %34 = and i1 %32, %33
  %35 = or i1 %30, %34
  %36 = or i1 %19, %20
  %37 = select i1 %35, i32 1095995642, i32 -912325967
  store i32 %37, i32* %14
  br label %75

; <label>:38:                                     ; preds = %15
  %39 = alloca i64*, align 8
  %40 = alloca i64*, align 8
  store i64* %0, i64** %39, align 8
  store i64* %1, i64** %40, align 8
  %41 = load i64*, i64** %39, align 8
  %42 = load i64*, i64** %40, align 8
  call void @_ZNSt12_Destroy_auxILb1EE9__destroyIPxEEvT_S3_(i64* %41, i64* %42)
  %43 = load i32, i32* @x.81
  %44 = load i32, i32* @y.82
  %45 = sub i32 0, 1
  %46 = add i32 %43, %45
  %47 = sub i32 %43, 1
  %48 = mul i32 %43, %46
  %49 = urem i32 %48, 2
  %50 = icmp eq i32 %49, 0
  %51 = icmp slt i32 %44, 10
  %52 = xor i1 %50, true
  %53 = xor i1 %51, true
  %54 = xor i1 true, true
  %55 = and i1 %52, true
  %56 = and i1 %50, %54
  %57 = and i1 %53, true
  %58 = and i1 %51, %54
  %59 = or i1 %55, %56
  %60 = or i1 %57, %58
  %61 = xor i1 %59, %60
  %62 = or i1 %52, %53
  %63 = xor i1 %62, true
  %64 = or i1 true, %54
  %65 = and i1 %63, %64
  %66 = or i1 %61, %65
  %67 = or i1 %50, %51
  %68 = select i1 %66, i32 -1643379808, i32 -912325967
  store i32 %68, i32* %14
  br label %75

; <label>:69:                                     ; preds = %15
  ret void

; <label>:70:                                     ; preds = %15
  %71 = alloca i64*, align 8
  %72 = alloca i64*, align 8
  store i64* %0, i64** %71, align 8
  store i64* %1, i64** %72, align 8
  %73 = load i64*, i64** %71, align 8
  %74 = load i64*, i64** %72, align 8
  call void @_ZNSt12_Destroy_auxILb1EE9__destroyIPxEEvT_S3_(i64* %73, i64* %74)
  store i32 1095995642, i32* %14
  br label %75

; <label>:75:                                     ; preds = %70, %38, %18, %17
  br label %15
}

; Function Attrs: noinline nounwind uwtable
define linkonce_odr void @_ZNSt12_Destroy_auxILb1EE9__destroyIPxEEvT_S3_(i64*, i64*) #4 comdat align 2 {
  %3 = alloca i64*, align 8
  %4 = alloca i64*, align 8
  store i64* %0, i64** %3, align 8
  store i64* %1, i64** %4, align 8
  ret void
}

; Function Attrs: noinline nounwind uwtable
define linkonce_odr void @_ZN9__gnu_cxx17__normal_iteratorIPxSt6vectorIxSaIxEEEC2ERKS1_(%"class.__gnu_cxx::__normal_iterator"*, i64** dereferenceable(8)) unnamed_addr #4 comdat align 2 {
  %3 = alloca %"class.__gnu_cxx::__normal_iterator"*, align 8
  %4 = alloca i64**, align 8
  store %"class.__gnu_cxx::__normal_iterator"* %0, %"class.__gnu_cxx::__normal_iterator"** %3, align 8
  store i64** %1, i64*** %4, align 8
  %5 = load %"class.__gnu_cxx::__normal_iterator"*, %"class.__gnu_cxx::__normal_iterator"** %3, align 8
  %6 = getelementptr inbounds %"class.__gnu_cxx::__normal_iterator", %"class.__gnu_cxx::__normal_iterator"* %5, i32 0, i32 0
  %7 = load i64**, i64*** %4, align 8
  %8 = load i64*, i64** %7, align 8
  store i64* %8, i64** %6, align 8
  ret void
}

; Function Attrs: noinline nounwind uwtable
define linkonce_odr dereferenceable(8) i64** @_ZNK9__gnu_cxx17__normal_iteratorIPxSt6vectorIxSaIxEEE4baseEv(%"class.__gnu_cxx::__normal_iterator"*) #4 comdat align 2 {
  %2 = alloca %"class.__gnu_cxx::__normal_iterator"*, align 8
  store %"class.__gnu_cxx::__normal_iterator"* %0, %"class.__gnu_cxx::__normal_iterator"** %2, align 8
  %3 = load %"class.__gnu_cxx::__normal_iterator"*, %"class.__gnu_cxx::__normal_iterator"** %2, align 8
  %4 = getelementptr inbounds %"class.__gnu_cxx::__normal_iterator", %"class.__gnu_cxx::__normal_iterator"* %3, i32 0, i32 0
  ret i64** %4
}

; Function Attrs: noinline uwtable
define internal void @_GLOBAL__sub_I_s874621220.cpp() #0 section ".text.startup" {
  call void @__cxx_global_var_init()
  ret void
}

attributes #0 = { noinline uwtable "correctly-rounded-divide-sqrt-fp-math"="false" "disable-tail-calls"="false" "less-precise-fpmad"="false" "no-frame-pointer-elim"="true" "no-frame-pointer-elim-non-leaf" "no-infs-fp-math"="false" "no-jump-tables"="false" "no-nans-fp-math"="false" "no-signed-zeros-fp-math"="false" "no-trapping-math"="false" "stack-protector-buffer-size"="8" "target-cpu"="x86-64" "target-features"="+fxsr,+mmx,+sse,+sse2,+x87" "unsafe-fp-math"="false" "use-soft-float"="false" }
attributes #1 = { "correctly-rounded-divide-sqrt-fp-math"="false" "disable-tail-calls"="false" "less-precise-fpmad"="false" "no-frame-pointer-elim"="true" "no-frame-pointer-elim-non-leaf" "no-infs-fp-math"="false" "no-nans-fp-math"="false" "no-signed-zeros-fp-math"="false" "no-trapping-math"="false" "stack-protector-buffer-size"="8" "target-cpu"="x86-64" "target-features"="+fxsr,+mmx,+sse,+sse2,+x87" "unsafe-fp-math"="false" "use-soft-float"="false" }
attributes #2 = { nounwind "correctly-rounded-divide-sqrt-fp-math"="false" "disable-tail-calls"="false" "less-precise-fpmad"="false" "no-frame-pointer-elim"="true" "no-frame-pointer-elim-non-leaf" "no-infs-fp-math"="false" "no-nans-fp-math"="false" "no-signed-zeros-fp-math"="false" "no-trapping-math"="false" "stack-protector-buffer-size"="8" "target-cpu"="x86-64" "target-features"="+fxsr,+mmx,+sse,+sse2,+x87" "unsafe-fp-math"="false" "use-soft-float"="false" }
attributes #3 = { nounwind }
attributes #4 = { noinline nounwind uwtable "correctly-rounded-divide-sqrt-fp-math"="false" "disable-tail-calls"="false" "less-precise-fpmad"="false" "no-frame-pointer-elim"="true" "no-frame-pointer-elim-non-leaf" "no-infs-fp-math"="false" "no-jump-tables"="false" "no-nans-fp-math"="false" "no-signed-zeros-fp-math"="false" "no-trapping-math"="false" "stack-protector-buffer-size"="8" "target-cpu"="x86-64" "target-features"="+fxsr,+mmx,+sse,+sse2,+x87" "unsafe-fp-math"="false" "use-soft-float"="false" }
attributes #5 = { noinline norecurse uwtable "correctly-rounded-divide-sqrt-fp-math"="false" "disable-tail-calls"="false" "less-precise-fpmad"="false" "no-frame-pointer-elim"="true" "no-frame-pointer-elim-non-leaf" "no-infs-fp-math"="false" "no-jump-tables"="false" "no-nans-fp-math"="false" "no-signed-zeros-fp-math"="false" "no-trapping-math"="false" "stack-protector-buffer-size"="8" "target-cpu"="x86-64" "target-features"="+fxsr,+mmx,+sse,+sse2,+x87" "unsafe-fp-math"="false" "use-soft-float"="false" }
attributes #6 = { noreturn "correctly-rounded-divide-sqrt-fp-math"="false" "disable-tail-calls"="false" "less-precise-fpmad"="false" "no-frame-pointer-elim"="true" "no-frame-pointer-elim-non-leaf" "no-infs-fp-math"="false" "no-nans-fp-math"="false" "no-signed-zeros-fp-math"="false" "no-trapping-math"="false" "stack-protector-buffer-size"="8" "target-cpu"="x86-64" "target-features"="+fxsr,+mmx,+sse,+sse2,+x87" "unsafe-fp-math"="false" "use-soft-float"="false" }
attributes #7 = { nobuiltin "correctly-rounded-divide-sqrt-fp-math"="false" "disable-tail-calls"="false" "less-precise-fpmad"="false" "no-frame-pointer-elim"="true" "no-frame-pointer-elim-non-leaf" "no-infs-fp-math"="false" "no-nans-fp-math"="false" "no-signed-zeros-fp-math"="false" "no-trapping-math"="false" "stack-protector-buffer-size"="8" "target-cpu"="x86-64" "target-features"="+fxsr,+mmx,+sse,+sse2,+x87" "unsafe-fp-math"="false" "use-soft-float"="false" }
attributes #8 = { noinline noreturn nounwind }
attributes #9 = { nobuiltin nounwind "correctly-rounded-divide-sqrt-fp-math"="false" "disable-tail-calls"="false" "less-precise-fpmad"="false" "no-frame-pointer-elim"="true" "no-frame-pointer-elim-non-leaf" "no-infs-fp-math"="false" "no-nans-fp-math"="false" "no-signed-zeros-fp-math"="false" "no-trapping-math"="false" "stack-protector-buffer-size"="8" "target-cpu"="x86-64" "target-features"="+fxsr,+mmx,+sse,+sse2,+x87" "unsafe-fp-math"="false" "use-soft-float"="false" }
attributes #10 = { noreturn nounwind }
attributes #11 = { noreturn }

!llvm.ident = !{!0}

!0 = !{!"Obfuscator-LLVM clang version 4.0.1  (based on Obfuscator-LLVM 4.0.1)"}
