; ModuleID = 'Project_CodeNet_C++1400/p04045/s740672016.cpp'
source_filename = "Project_CodeNet_C++1400/p04045/s740672016.cpp"
target datalayout = "e-m:e-i64:64-f80:128-n8:16:32:64-S128"
target triple = "x86_64-unknown-linux-gnu"

%"class.std::ios_base::Init" = type { i8 }
%"class.std::basic_istream" = type { i32 (...)**, i64, %"class.std::basic_ios" }
%"class.std::basic_ios" = type { %"class.std::ios_base", %"class.std::basic_ostream"*, i8, i8, %"class.std::basic_streambuf"*, %"class.std::ctype"*, %"class.std::num_put"*, %"class.std::num_get"* }
%"class.std::ios_base" = type { i32 (...)**, i64, i64, i32, i32, i32, %"struct.std::ios_base::_Callback_list"*, %"struct.std::ios_base::_Words", [8 x %"struct.std::ios_base::_Words"], i32, %"struct.std::ios_base::_Words"*, %"class.std::locale" }
%"struct.std::ios_base::_Callback_list" = type { %"struct.std::ios_base::_Callback_list"*, void (i32, %"class.std::ios_base"*, i32)*, i32, i32 }
%"struct.std::ios_base::_Words" = type { i8*, i64 }
%"class.std::locale" = type { %"class.std::locale::_Impl"* }
%"class.std::locale::_Impl" = type { i32, %"class.std::locale::facet"**, i64, %"class.std::locale::facet"**, i8** }
%"class.std::locale::facet" = type <{ i32 (...)**, i32, [4 x i8] }>
%"class.std::basic_ostream" = type { i32 (...)**, %"class.std::basic_ios" }
%"class.std::basic_streambuf" = type { i32 (...)**, i8*, i8*, i8*, i8*, i8*, i8*, %"class.std::locale" }
%"class.std::ctype" = type <{ %"class.std::locale::facet.base", [4 x i8], %struct.__locale_struct*, i8, [7 x i8], i32*, i32*, i16*, i8, [256 x i8], [256 x i8], i8, [6 x i8] }>
%"class.std::locale::facet.base" = type <{ i32 (...)**, i32 }>
%struct.__locale_struct = type { [13 x %struct.__locale_data*], i16*, i32*, i32*, [13 x i8*] }
%struct.__locale_data = type opaque
%"class.std::num_put" = type { %"class.std::locale::facet.base", [4 x i8] }
%"class.std::num_get" = type { %"class.std::locale::facet.base", [4 x i8] }
%"class.std::vector" = type { %"struct.std::_Vector_base" }
%"struct.std::_Vector_base" = type { %"struct.std::_Vector_base<int, std::allocator<int> >::_Vector_impl" }
%"struct.std::_Vector_base<int, std::allocator<int> >::_Vector_impl" = type { i32*, i32*, i32* }
%"class.std::allocator" = type { i8 }
%"class.std::__cxx11::basic_string" = type { %"struct.std::__cxx11::basic_string<char, std::char_traits<char>, std::allocator<char> >::_Alloc_hider", i64, %union.anon }
%"struct.std::__cxx11::basic_string<char, std::char_traits<char>, std::allocator<char> >::_Alloc_hider" = type { i8* }
%union.anon = type { i64, [8 x i8] }
%"class.__gnu_cxx::new_allocator" = type { i8 }
%struct.__va_list_tag = type { i32, i32, i8*, i8* }
%"class.std::allocator.0" = type { i8 }
%"struct.std::__false_type" = type { i8 }
%"struct.std::forward_iterator_tag" = type { i8 }
%"struct.std::random_access_iterator_tag" = type { i8 }

$_ZNSaIiEC2Ev = comdat any

$_ZNSt6vectorIiSaIiEEC2EmRKiRKS0_ = comdat any

$_ZNSaIiED2Ev = comdat any

$_ZNSt6vectorIiSaIiEEixEm = comdat any

$_ZNSt7__cxx119to_stringEi = comdat any

$_ZNSt6vectorIiSaIiEED2Ev = comdat any

$_ZN9__gnu_cxx12__to_xstringINSt7__cxx1112basic_stringIcSt11char_traitsIcESaIcEEEcEET_PFiPT0_mPKS8_P13__va_list_tagEmSB_z = comdat any

$_ZNSt7__cxx1112basic_stringIcSt11char_traitsIcESaIcEEC2IPcvEET_S7_RKS3_ = comdat any

$_ZNSt7__cxx1112basic_stringIcSt11char_traitsIcESaIcEE12_M_constructIPcEEvT_S7_ = comdat any

$_ZNSt7__cxx1112basic_stringIcSt11char_traitsIcESaIcEE12_Alloc_hiderD2Ev = comdat any

$_ZNSt7__cxx1112basic_stringIcSt11char_traitsIcESaIcEE16_M_construct_auxIPcEEvT_S7_St12__false_type = comdat any

$_ZNSt7__cxx1112basic_stringIcSt11char_traitsIcESaIcEE12_M_constructIPcEEvT_S7_St20forward_iterator_tag = comdat any

$_ZN9__gnu_cxx17__is_null_pointerIcEEbPT_ = comdat any

$_ZSt8distanceIPcENSt15iterator_traitsIT_E15difference_typeES2_S2_ = comdat any

$__clang_call_terminate = comdat any

$_ZSt10__distanceIPcENSt15iterator_traitsIT_E15difference_typeES2_S2_St26random_access_iterator_tag = comdat any

$_ZSt19__iterator_categoryIPcENSt15iterator_traitsIT_E17iterator_categoryERKS2_ = comdat any

$_ZN9__gnu_cxx13new_allocatorIiEC2Ev = comdat any

$_ZN9__gnu_cxx13new_allocatorIiED2Ev = comdat any

$_ZNSt12_Vector_baseIiSaIiEEC2EmRKS0_ = comdat any

$_ZNSt6vectorIiSaIiEE18_M_fill_initializeEmRKi = comdat any

$_ZNSt12_Vector_baseIiSaIiEED2Ev = comdat any

$_ZNSt12_Vector_baseIiSaIiEE12_Vector_implC2ERKS0_ = comdat any

$_ZNSt12_Vector_baseIiSaIiEE17_M_create_storageEm = comdat any

$_ZNSt12_Vector_baseIiSaIiEE12_Vector_implD2Ev = comdat any

$_ZNSaIiEC2ERKS_ = comdat any

$_ZN9__gnu_cxx13new_allocatorIiEC2ERKS1_ = comdat any

$_ZNSt12_Vector_baseIiSaIiEE11_M_allocateEm = comdat any

$_ZNSt16allocator_traitsISaIiEE8allocateERS0_m = comdat any

$_ZN9__gnu_cxx13new_allocatorIiE8allocateEmPKv = comdat any

$_ZNK9__gnu_cxx13new_allocatorIiE8max_sizeEv = comdat any

$_ZSt24__uninitialized_fill_n_aIPimiiET_S1_T0_RKT1_RSaIT2_E = comdat any

$_ZNSt12_Vector_baseIiSaIiEE19_M_get_Tp_allocatorEv = comdat any

$_ZSt20uninitialized_fill_nIPimiET_S1_T0_RKT1_ = comdat any

$_ZNSt22__uninitialized_fill_nILb1EE15__uninit_fill_nIPimiEET_S3_T0_RKT1_ = comdat any

$_ZSt6fill_nIPimiET_S1_T0_RKT1_ = comdat any

$_ZSt10__fill_n_aIPimiEN9__gnu_cxx11__enable_ifIXsr11__is_scalarIT1_EE7__valueET_E6__typeES4_T0_RKS3_ = comdat any

$_ZSt12__niter_baseIPiENSt11_Niter_baseIT_E13iterator_typeES2_ = comdat any

$_ZNSt10_Iter_baseIPiLb0EE7_S_baseES0_ = comdat any

$_ZNSt12_Vector_baseIiSaIiEE13_M_deallocateEPim = comdat any

$_ZNSt16allocator_traitsISaIiEE10deallocateERS0_Pim = comdat any

$_ZN9__gnu_cxx13new_allocatorIiE10deallocateEPim = comdat any

$_ZSt8_DestroyIPiiEvT_S1_RSaIT0_E = comdat any

$_ZSt8_DestroyIPiEvT_S1_ = comdat any

$_ZNSt12_Destroy_auxILb1EE9__destroyIPiEEvT_S3_ = comdat any

@_ZStL8__ioinit = internal global %"class.std::ios_base::Init" zeroinitializer, align 1
@__dso_handle = external global i8
@_ZSt3cin = external global %"class.std::basic_istream", align 8
@_ZSt4cout = external global %"class.std::basic_ostream", align 8
@.str = private unnamed_addr constant [3 x i8] c"%d\00", align 1
@.str.1 = private unnamed_addr constant [42 x i8] c"basic_string::_M_construct null not valid\00", align 1
@llvm.global_ctors = appending global [1 x { i32, void ()*, i8* }] [{ i32, void ()*, i8* } { i32 65535, void ()* @_GLOBAL__sub_I_s740672016.cpp, i8* null }]
@x = common global i32 0
@y = common global i32 0
@x.2 = common global i32 0
@y.3 = common global i32 0
@x.4 = common global i32 0
@y.5 = common global i32 0
@x.6 = common global i32 0
@y.7 = common global i32 0
@x.8 = common global i32 0
@y.9 = common global i32 0
@x.10 = common global i32 0
@y.11 = common global i32 0
@x.12 = common global i32 0
@y.13 = common global i32 0
@x.14 = common global i32 0
@y.15 = common global i32 0
@x.16 = common global i32 0
@y.17 = common global i32 0
@x.18 = common global i32 0
@y.19 = common global i32 0
@x.20 = common global i32 0
@y.21 = common global i32 0
@x.22 = common global i32 0
@y.23 = common global i32 0
@x.24 = common global i32 0
@y.25 = common global i32 0
@x.26 = common global i32 0
@y.27 = common global i32 0
@x.28 = common global i32 0
@y.29 = common global i32 0
@x.30 = common global i32 0
@y.31 = common global i32 0
@x.32 = common global i32 0
@y.33 = common global i32 0
@x.34 = common global i32 0
@y.35 = common global i32 0
@x.36 = common global i32 0
@y.37 = common global i32 0
@x.38 = common global i32 0
@y.39 = common global i32 0
@x.40 = common global i32 0
@y.41 = common global i32 0
@x.42 = common global i32 0
@y.43 = common global i32 0
@x.44 = common global i32 0
@y.45 = common global i32 0
@x.46 = common global i32 0
@y.47 = common global i32 0
@x.48 = common global i32 0
@y.49 = common global i32 0
@x.50 = common global i32 0
@y.51 = common global i32 0
@x.52 = common global i32 0
@y.53 = common global i32 0
@x.54 = common global i32 0
@y.55 = common global i32 0
@x.56 = common global i32 0
@y.57 = common global i32 0
@x.58 = common global i32 0
@y.59 = common global i32 0
@x.60 = common global i32 0
@y.61 = common global i32 0
@x.62 = common global i32 0
@y.63 = common global i32 0
@x.64 = common global i32 0
@y.65 = common global i32 0
@x.66 = common global i32 0
@y.67 = common global i32 0
@x.68 = common global i32 0
@y.69 = common global i32 0
@x.70 = common global i32 0
@y.71 = common global i32 0
@x.72 = common global i32 0
@y.73 = common global i32 0
@x.74 = common global i32 0
@y.75 = common global i32 0
@x.76 = common global i32 0
@y.77 = common global i32 0
@x.78 = common global i32 0
@y.79 = common global i32 0
@x.80 = common global i32 0
@y.81 = common global i32 0
@x.82 = common global i32 0
@y.83 = common global i32 0
@x.84 = common global i32 0
@y.85 = common global i32 0
@x.86 = common global i32 0
@y.87 = common global i32 0
@x.88 = common global i32 0
@y.89 = common global i32 0
@x.90 = common global i32 0
@y.91 = common global i32 0
@x.92 = common global i32 0
@y.93 = common global i32 0
@x.94 = common global i32 0
@y.95 = common global i32 0

; Function Attrs: noinline uwtable
define internal void @__cxx_global_var_init() #0 section ".text.startup" {
  call void @_ZNSt8ios_base4InitC1Ev(%"class.std::ios_base::Init"* @_ZStL8__ioinit)
  %1 = call i32 @__cxa_atexit(void (i8*)* bitcast (void (%"class.std::ios_base::Init"*)* @_ZNSt8ios_base4InitD1Ev to void (i8*)*), i8* getelementptr inbounds (%"class.std::ios_base::Init", %"class.std::ios_base::Init"* @_ZStL8__ioinit, i32 0, i32 0), i8* @__dso_handle) #3
  ret void
}

declare void @_ZNSt8ios_base4InitC1Ev(%"class.std::ios_base::Init"*) unnamed_addr #1

; Function Attrs: nounwind
declare void @_ZNSt8ios_base4InitD1Ev(%"class.std::ios_base::Init"*) unnamed_addr #2

; Function Attrs: nounwind
declare i32 @__cxa_atexit(void (i8*)*, i8*, i8*) #3

; Function Attrs: noinline norecurse uwtable
define i32 @main() #4 personality i8* bitcast (i32 (...)* @__gxx_personality_v0 to i8*) {
  %1 = load i32, i32* @x.2
  %2 = load i32, i32* @y.3
  %3 = sub i32 0, 1
  %4 = add i32 %1, %3
  %5 = sub i32 %1, 1
  %6 = mul i32 %1, %4
  %7 = urem i32 %6, 2
  %8 = icmp eq i32 %7, 0
  %9 = icmp slt i32 %2, 10
  %10 = and i1 %8, %9
  %11 = xor i1 %8, %9
  %12 = or i1 %10, %11
  %13 = or i1 %8, %9
  br i1 %12, label %14, label %597

; <label>:14:                                     ; preds = %0, %597
  %15 = alloca i32, align 4
  %16 = alloca i32, align 4
  %17 = alloca i32, align 4
  %18 = alloca %"class.std::vector", align 8
  %19 = alloca i32, align 4
  %20 = alloca %"class.std::allocator", align 1
  %21 = alloca i8*
  %22 = alloca i32
  %23 = alloca i32, align 4
  %24 = alloca i8, align 1
  %25 = alloca i32, align 4
  %26 = alloca %"class.std::__cxx11::basic_string", align 8
  %27 = alloca i32, align 4
  %28 = alloca i32
  store i32 0, i32* %15, align 4
  %29 = call dereferenceable(280) %"class.std::basic_istream"* @_ZNSirsERi(%"class.std::basic_istream"* @_ZSt3cin, i32* dereferenceable(4) %16)
  %30 = call dereferenceable(280) %"class.std::basic_istream"* @_ZNSirsERi(%"class.std::basic_istream"* %29, i32* dereferenceable(4) %17)
  %31 = load i32, i32* %17, align 4
  %32 = sext i32 %31 to i64
  store i32 0, i32* %19, align 4
  call void @_ZNSaIiEC2Ev(%"class.std::allocator"* %20) #3
  %33 = load i32, i32* @x.2
  %34 = load i32, i32* @y.3
  %35 = sub i32 0, 1
  %36 = add i32 %33, %35
  %37 = sub i32 %33, 1
  %38 = mul i32 %33, %36
  %39 = urem i32 %38, 2
  %40 = icmp eq i32 %39, 0
  %41 = icmp slt i32 %34, 10
  %42 = xor i1 %40, true
  %43 = xor i1 %41, true
  %44 = xor i1 true, true
  %45 = and i1 %42, true
  %46 = and i1 %40, %44
  %47 = and i1 %43, true
  %48 = and i1 %41, %44
  %49 = or i1 %45, %46
  %50 = or i1 %47, %48
  %51 = xor i1 %49, %50
  %52 = or i1 %42, %43
  %53 = xor i1 %52, true
  %54 = or i1 true, %44
  %55 = and i1 %53, %54
  %56 = or i1 %51, %55
  %57 = or i1 %40, %41
  br i1 %56, label %58, label %597

; <label>:58:                                     ; preds = %14
  invoke void @_ZNSt6vectorIiSaIiEEC2EmRKiRKS0_(%"class.std::vector"* %18, i64 %32, i32* dereferenceable(4) %19, %"class.std::allocator"* dereferenceable(1) %20)
          to label %59 unwind label %76

; <label>:59:                                     ; preds = %58
  call void @_ZNSaIiED2Ev(%"class.std::allocator"* %20) #3
  store i32 0, i32* %23, align 4
  br label %60

; <label>:60:                                     ; preds = %70, %59
  %61 = load i32, i32* %23, align 4
  %62 = load i32, i32* %17, align 4
  %63 = icmp slt i32 %61, %62
  br i1 %63, label %64, label %126

; <label>:64:                                     ; preds = %60
  %65 = load i32, i32* %23, align 4
  %66 = sext i32 %65 to i64
  %67 = call dereferenceable(4) i32* @_ZNSt6vectorIiSaIiEEixEm(%"class.std::vector"* %18, i64 %66) #3
  %68 = invoke dereferenceable(280) %"class.std::basic_istream"* @_ZNSirsERi(%"class.std::basic_istream"* @_ZSt3cin, i32* dereferenceable(4) %67)
          to label %69 unwind label %80

; <label>:69:                                     ; preds = %64
  br label %70

; <label>:70:                                     ; preds = %69
  %71 = load i32, i32* %23, align 4
  %72 = sub i32 %71, -1827941035
  %73 = add i32 %72, 1
  %74 = add i32 %73, -1827941035
  %75 = add nsw i32 %71, 1
  store i32 %74, i32* %23, align 4
  br label %60

; <label>:76:                                     ; preds = %58
  %77 = landingpad { i8*, i32 }
          cleanup
  %78 = extractvalue { i8*, i32 } %77, 0
  store i8* %78, i8** %21, align 8
  %79 = extractvalue { i8*, i32 } %77, 1
  store i32 %79, i32* %22, align 4
  call void @_ZNSaIiED2Ev(%"class.std::allocator"* %20) #3
  br label %549

; <label>:80:                                     ; preds = %502, %469, %188, %64
  %81 = load i32, i32* @x.2
  %82 = load i32, i32* @y.3
  %83 = sub i32 %81, 2096929532
  %84 = sub i32 %83, 1
  %85 = add i32 %84, 2096929532
  %86 = sub i32 %81, 1
  %87 = mul i32 %81, %85
  %88 = urem i32 %87, 2
  %89 = icmp eq i32 %88, 0
  %90 = icmp slt i32 %82, 10
  %91 = xor i1 %89, true
  %92 = xor i1 %90, true
  %93 = xor i1 false, true
  %94 = and i1 %91, false
  %95 = and i1 %89, %93
  %96 = and i1 %92, false
  %97 = and i1 %90, %93
  %98 = or i1 %94, %95
  %99 = or i1 %96, %97
  %100 = xor i1 %98, %99
  %101 = or i1 %91, %92
  %102 = xor i1 %101, true
  %103 = or i1 false, %93
  %104 = and i1 %102, %103
  %105 = or i1 %100, %104
  %106 = or i1 %89, %90
  br i1 %105, label %107, label %616

; <label>:107:                                    ; preds = %80, %616
  %108 = landingpad { i8*, i32 }
          cleanup
  %109 = extractvalue { i8*, i32 } %108, 0
  store i8* %109, i8** %21, align 8
  %110 = extractvalue { i8*, i32 } %108, 1
  store i32 %110, i32* %22, align 4
  %111 = load i32, i32* @x.2
  %112 = load i32, i32* @y.3
  %113 = sub i32 %111, -237039601
  %114 = sub i32 %113, 1
  %115 = add i32 %114, -237039601
  %116 = sub i32 %111, 1
  %117 = mul i32 %111, %115
  %118 = urem i32 %117, 2
  %119 = icmp eq i32 %118, 0
  %120 = icmp slt i32 %112, 10
  %121 = and i1 %119, %120
  %122 = xor i1 %119, %120
  %123 = or i1 %121, %122
  %124 = or i1 %119, %120
  br i1 %123, label %125, label %616

; <label>:125:                                    ; preds = %107
  br label %548

; <label>:126:                                    ; preds = %60
  br label %127

; <label>:127:                                    ; preds = %547, %126
  br label %128

; <label>:128:                                    ; preds = %127
  store i8 0, i8* %24, align 1
  store i32 0, i32* %25, align 4
  br label %129

; <label>:129:                                    ; preds = %460, %128
  %130 = load i32, i32* %25, align 4
  %131 = load i32, i32* %17, align 4
  %132 = icmp slt i32 %130, %131
  br i1 %132, label %133, label %466

; <label>:133:                                    ; preds = %129
  %134 = load i32, i32* @x.2
  %135 = load i32, i32* @y.3
  %136 = add i32 %134, 530233932
  %137 = sub i32 %136, 1
  %138 = sub i32 %137, 530233932
  %139 = sub i32 %134, 1
  %140 = mul i32 %134, %138
  %141 = urem i32 %140, 2
  %142 = icmp eq i32 %141, 0
  %143 = icmp slt i32 %135, 10
  %144 = xor i1 %142, true
  %145 = xor i1 %143, true
  %146 = xor i1 false, true
  %147 = and i1 %144, false
  %148 = and i1 %142, %146
  %149 = and i1 %145, false
  %150 = and i1 %143, %146
  %151 = or i1 %147, %148
  %152 = or i1 %149, %150
  %153 = xor i1 %151, %152
  %154 = or i1 %144, %145
  %155 = xor i1 %154, true
  %156 = or i1 false, %146
  %157 = and i1 %155, %156
  %158 = or i1 %153, %157
  %159 = or i1 %142, %143
  br i1 %158, label %160, label %620

; <label>:160:                                    ; preds = %133, %620
  %161 = load i32, i32* %16, align 4
  %162 = load i32, i32* @x.2
  %163 = load i32, i32* @y.3
  %164 = sub i32 %162, -589741260
  %165 = sub i32 %164, 1
  %166 = add i32 %165, -589741260
  %167 = sub i32 %162, 1
  %168 = mul i32 %162, %166
  %169 = urem i32 %168, 2
  %170 = icmp eq i32 %169, 0
  %171 = icmp slt i32 %163, 10
  %172 = xor i1 %170, true
  %173 = xor i1 %171, true
  %174 = xor i1 false, true
  %175 = and i1 %172, false
  %176 = and i1 %170, %174
  %177 = and i1 %173, false
  %178 = and i1 %171, %174
  %179 = or i1 %175, %176
  %180 = or i1 %177, %178
  %181 = xor i1 %179, %180
  %182 = or i1 %172, %173
  %183 = xor i1 %182, true
  %184 = or i1 false, %174
  %185 = and i1 %183, %184
  %186 = or i1 %181, %185
  %187 = or i1 %170, %171
  br i1 %186, label %188, label %620

; <label>:188:                                    ; preds = %160
  invoke void @_ZNSt7__cxx119to_stringEi(%"class.std::__cxx11::basic_string"* sret %26, i32 %161)
          to label %189 unwind label %80

; <label>:189:                                    ; preds = %188
  %190 = load i32, i32* @x.2
  %191 = load i32, i32* @y.3
  %192 = sub i32 %190, -1129450256
  %193 = sub i32 %192, 1
  %194 = add i32 %193, -1129450256
  %195 = sub i32 %190, 1
  %196 = mul i32 %190, %194
  %197 = urem i32 %196, 2
  %198 = icmp eq i32 %197, 0
  %199 = icmp slt i32 %191, 10
  %200 = xor i1 %198, true
  %201 = xor i1 %199, true
  %202 = xor i1 true, true
  %203 = and i1 %200, true
  %204 = and i1 %198, %202
  %205 = and i1 %201, true
  %206 = and i1 %199, %202
  %207 = or i1 %203, %204
  %208 = or i1 %205, %206
  %209 = xor i1 %207, %208
  %210 = or i1 %200, %201
  %211 = xor i1 %210, true
  %212 = or i1 true, %202
  %213 = and i1 %211, %212
  %214 = or i1 %209, %213
  %215 = or i1 %198, %199
  br i1 %214, label %216, label %622

; <label>:216:                                    ; preds = %189, %622
  store i32 0, i32* %27, align 4
  %217 = load i32, i32* @x.2
  %218 = load i32, i32* @y.3
  %219 = add i32 %217, 224626405
  %220 = sub i32 %219, 1
  %221 = sub i32 %220, 224626405
  %222 = sub i32 %217, 1
  %223 = mul i32 %217, %221
  %224 = urem i32 %223, 2
  %225 = icmp eq i32 %224, 0
  %226 = icmp slt i32 %218, 10
  %227 = xor i1 %225, true
  %228 = xor i1 %226, true
  %229 = xor i1 false, true
  %230 = and i1 %227, false
  %231 = and i1 %225, %229
  %232 = and i1 %228, false
  %233 = and i1 %226, %229
  %234 = or i1 %230, %231
  %235 = or i1 %232, %233
  %236 = xor i1 %234, %235
  %237 = or i1 %227, %228
  %238 = xor i1 %237, true
  %239 = or i1 false, %229
  %240 = and i1 %238, %239
  %241 = or i1 %236, %240
  %242 = or i1 %225, %226
  br i1 %241, label %243, label %622

; <label>:243:                                    ; preds = %216
  br label %244

; <label>:244:                                    ; preds = %375, %243
  %245 = load i32, i32* %27, align 4
  %246 = call i64 @_ZNKSt7__cxx1112basic_stringIcSt11char_traitsIcESaIcEE4sizeEv(%"class.std::__cxx11::basic_string"* %26) #3
  %247 = trunc i64 %246 to i32
  %248 = icmp slt i32 %245, %247
  br i1 %248, label %249, label %376

; <label>:249:                                    ; preds = %244
  %250 = load i32, i32* %27, align 4
  %251 = sext i32 %250 to i64
  %252 = invoke dereferenceable(1) i8* @_ZNSt7__cxx1112basic_stringIcSt11char_traitsIcESaIcEEixEm(%"class.std::__cxx11::basic_string"* %26, i64 %251)
          to label %253 unwind label %271

; <label>:253:                                    ; preds = %249
  %254 = load i8, i8* %252, align 1
  %255 = sext i8 %254 to i32
  %256 = add i32 %255, -1966543036
  %257 = sub i32 %256, 48
  %258 = sub i32 %257, -1966543036
  %259 = sub nsw i32 %255, 48
  %260 = load i32, i32* %25, align 4
  %261 = sext i32 %260 to i64
  %262 = call dereferenceable(4) i32* @_ZNSt6vectorIiSaIiEEixEm(%"class.std::vector"* %18, i64 %261) #3
  %263 = load i32, i32* %262, align 4
  %264 = icmp eq i32 %258, %263
  br i1 %264, label %265, label %275

; <label>:265:                                    ; preds = %253
  %266 = load i32, i32* %16, align 4
  %267 = add i32 %266, -2094645880
  %268 = add i32 %267, 1
  %269 = sub i32 %268, -2094645880
  %270 = add nsw i32 %266, 1
  store i32 %269, i32* %16, align 4
  store i8 1, i8* %24, align 1
  br label %376

; <label>:271:                                    ; preds = %249
  %272 = landingpad { i8*, i32 }
          cleanup
  %273 = extractvalue { i8*, i32 } %272, 0
  store i8* %273, i8** %21, align 8
  %274 = extractvalue { i8*, i32 } %272, 1
  store i32 %274, i32* %22, align 4
  call void @_ZNSt7__cxx1112basic_stringIcSt11char_traitsIcESaIcEED1Ev(%"class.std::__cxx11::basic_string"* %26) #3
  br label %548

; <label>:275:                                    ; preds = %253
  %276 = load i32, i32* @x.2
  %277 = load i32, i32* @y.3
  %278 = sub i32 0, 1
  %279 = add i32 %276, %278
  %280 = sub i32 %276, 1
  %281 = mul i32 %276, %279
  %282 = urem i32 %281, 2
  %283 = icmp eq i32 %282, 0
  %284 = icmp slt i32 %277, 10
  %285 = xor i1 %283, true
  %286 = xor i1 %284, true
  %287 = xor i1 true, true
  %288 = and i1 %285, true
  %289 = and i1 %283, %287
  %290 = and i1 %286, true
  %291 = and i1 %284, %287
  %292 = or i1 %288, %289
  %293 = or i1 %290, %291
  %294 = xor i1 %292, %293
  %295 = or i1 %285, %286
  %296 = xor i1 %295, true
  %297 = or i1 true, %287
  %298 = and i1 %296, %297
  %299 = or i1 %294, %298
  %300 = or i1 %283, %284
  br i1 %299, label %301, label %623

; <label>:301:                                    ; preds = %275, %623
  %302 = load i32, i32* @x.2
  %303 = load i32, i32* @y.3
  %304 = sub i32 %302, 2043350478
  %305 = sub i32 %304, 1
  %306 = add i32 %305, 2043350478
  %307 = sub i32 %302, 1
  %308 = mul i32 %302, %306
  %309 = urem i32 %308, 2
  %310 = icmp eq i32 %309, 0
  %311 = icmp slt i32 %303, 10
  %312 = and i1 %310, %311
  %313 = xor i1 %310, %311
  %314 = or i1 %312, %313
  %315 = or i1 %310, %311
  br i1 %314, label %316, label %623

; <label>:316:                                    ; preds = %301
  br label %317

; <label>:317:                                    ; preds = %316
  %318 = load i32, i32* @x.2
  %319 = load i32, i32* @y.3
  %320 = sub i32 %318, -1403707790
  %321 = sub i32 %320, 1
  %322 = add i32 %321, -1403707790
  %323 = sub i32 %318, 1
  %324 = mul i32 %318, %322
  %325 = urem i32 %324, 2
  %326 = icmp eq i32 %325, 0
  %327 = icmp slt i32 %319, 10
  %328 = xor i1 %326, true
  %329 = xor i1 %327, true
  %330 = xor i1 false, true
  %331 = and i1 %328, false
  %332 = and i1 %326, %330
  %333 = and i1 %329, false
  %334 = and i1 %327, %330
  %335 = or i1 %331, %332
  %336 = or i1 %333, %334
  %337 = xor i1 %335, %336
  %338 = or i1 %328, %329
  %339 = xor i1 %338, true
  %340 = or i1 false, %330
  %341 = and i1 %339, %340
  %342 = or i1 %337, %341
  %343 = or i1 %326, %327
  br i1 %342, label %344, label %624

; <label>:344:                                    ; preds = %317, %624
  %345 = load i32, i32* %27, align 4
  %346 = add i32 %345, -81831289
  %347 = add i32 %346, 1
  %348 = sub i32 %347, -81831289
  %349 = add nsw i32 %345, 1
  store i32 %348, i32* %27, align 4
  %350 = load i32, i32* @x.2
  %351 = load i32, i32* @y.3
  %352 = sub i32 0, 1
  %353 = add i32 %350, %352
  %354 = sub i32 %350, 1
  %355 = mul i32 %350, %353
  %356 = urem i32 %355, 2
  %357 = icmp eq i32 %356, 0
  %358 = icmp slt i32 %351, 10
  %359 = xor i1 %357, true
  %360 = xor i1 %358, true
  %361 = xor i1 true, true
  %362 = and i1 %359, true
  %363 = and i1 %357, %361
  %364 = and i1 %360, true
  %365 = and i1 %358, %361
  %366 = or i1 %362, %363
  %367 = or i1 %364, %365
  %368 = xor i1 %366, %367
  %369 = or i1 %359, %360
  %370 = xor i1 %369, true
  %371 = or i1 true, %361
  %372 = and i1 %370, %371
  %373 = or i1 %368, %372
  %374 = or i1 %357, %358
  br i1 %373, label %375, label %624

; <label>:375:                                    ; preds = %344
  br label %244

; <label>:376:                                    ; preds = %265, %244
  %377 = load i32, i32* @x.2
  %378 = load i32, i32* @y.3
  %379 = sub i32 0, 1
  %380 = add i32 %377, %379
  %381 = sub i32 %377, 1
  %382 = mul i32 %377, %380
  %383 = urem i32 %382, 2
  %384 = icmp eq i32 %383, 0
  %385 = icmp slt i32 %378, 10
  %386 = xor i1 %384, true
  %387 = xor i1 %385, true
  %388 = xor i1 false, true
  %389 = and i1 %386, false
  %390 = and i1 %384, %388
  %391 = and i1 %387, false
  %392 = and i1 %385, %388
  %393 = or i1 %389, %390
  %394 = or i1 %391, %392
  %395 = xor i1 %393, %394
  %396 = or i1 %386, %387
  %397 = xor i1 %396, true
  %398 = or i1 false, %388
  %399 = and i1 %397, %398
  %400 = or i1 %395, %399
  %401 = or i1 %384, %385
  br i1 %400, label %402, label %642

; <label>:402:                                    ; preds = %376, %642
  %403 = load i8, i8* %24, align 1
  %404 = trunc i8 %403 to i1
  %405 = load i32, i32* @x.2
  %406 = load i32, i32* @y.3
  %407 = sub i32 0, 1
  %408 = add i32 %405, %407
  %409 = sub i32 %405, 1
  %410 = mul i32 %405, %408
  %411 = urem i32 %410, 2
  %412 = icmp eq i32 %411, 0
  %413 = icmp slt i32 %406, 10
  %414 = and i1 %412, %413
  %415 = xor i1 %412, %413
  %416 = or i1 %414, %415
  %417 = or i1 %412, %413
  br i1 %416, label %418, label %642

; <label>:418:                                    ; preds = %402
  br i1 %404, label %419, label %450

; <label>:419:                                    ; preds = %418
  %420 = load i32, i32* @x.2
  %421 = load i32, i32* @y.3
  %422 = add i32 %420, 384224142
  %423 = sub i32 %422, 1
  %424 = sub i32 %423, 384224142
  %425 = sub i32 %420, 1
  %426 = mul i32 %420, %424
  %427 = urem i32 %426, 2
  %428 = icmp eq i32 %427, 0
  %429 = icmp slt i32 %421, 10
  %430 = and i1 %428, %429
  %431 = xor i1 %428, %429
  %432 = or i1 %430, %431
  %433 = or i1 %428, %429
  br i1 %432, label %434, label %645

; <label>:434:                                    ; preds = %419, %645
  store i32 7, i32* %28, align 4
  %435 = load i32, i32* @x.2
  %436 = load i32, i32* @y.3
  %437 = add i32 %435, 1507964184
  %438 = sub i32 %437, 1
  %439 = sub i32 %438, 1507964184
  %440 = sub i32 %435, 1
  %441 = mul i32 %435, %439
  %442 = urem i32 %441, 2
  %443 = icmp eq i32 %442, 0
  %444 = icmp slt i32 %436, 10
  %445 = and i1 %443, %444
  %446 = xor i1 %443, %444
  %447 = or i1 %445, %446
  %448 = or i1 %443, %444
  br i1 %447, label %449, label %645

; <label>:449:                                    ; preds = %434
  br label %451

; <label>:450:                                    ; preds = %418
  store i32 0, i32* %28, align 4
  br label %451

; <label>:451:                                    ; preds = %450, %449
  call void @_ZNSt7__cxx1112basic_stringIcSt11char_traitsIcESaIcEED1Ev(%"class.std::__cxx11::basic_string"* %26) #3
  %452 = load i32, i32* %28, align 4
  br label %453

; <label>:453:                                    ; preds = %451
  %454 = icmp slt i32 %452, 7
  br i1 %454, label %457, label %455

; <label>:455:                                    ; preds = %453
  %456 = icmp eq i32 %452, 7
  br i1 %456, label %466, label %554

; <label>:457:                                    ; preds = %453
  %458 = icmp eq i32 %452, 0
  br i1 %458, label %459, label %554

; <label>:459:                                    ; preds = %457
  br label %460

; <label>:460:                                    ; preds = %459
  %461 = load i32, i32* %25, align 4
  %462 = add i32 %461, -1866833582
  %463 = add i32 %462, 1
  %464 = sub i32 %463, -1866833582
  %465 = add nsw i32 %461, 1
  store i32 %464, i32* %25, align 4
  br label %129

; <label>:466:                                    ; preds = %455, %129
  %467 = load i8, i8* %24, align 1
  %468 = trunc i8 %467 to i1
  br i1 %468, label %547, label %469

; <label>:469:                                    ; preds = %466
  %470 = load i32, i32* %16, align 4
  %471 = invoke dereferenceable(272) %"class.std::basic_ostream"* @_ZNSolsEi(%"class.std::basic_ostream"* @_ZSt4cout, i32 %470)
          to label %472 unwind label %80

; <label>:472:                                    ; preds = %469
  %473 = load i32, i32* @x.2
  %474 = load i32, i32* @y.3
  %475 = add i32 %473, 678713818
  %476 = sub i32 %475, 1
  %477 = sub i32 %476, 678713818
  %478 = sub i32 %473, 1
  %479 = mul i32 %473, %477
  %480 = urem i32 %479, 2
  %481 = icmp eq i32 %480, 0
  %482 = icmp slt i32 %474, 10
  %483 = and i1 %481, %482
  %484 = xor i1 %481, %482
  %485 = or i1 %483, %484
  %486 = or i1 %481, %482
  br i1 %485, label %487, label %646

; <label>:487:                                    ; preds = %472, %646
  %488 = load i32, i32* @x.2
  %489 = load i32, i32* @y.3
  %490 = sub i32 %488, 833954587
  %491 = sub i32 %490, 1
  %492 = add i32 %491, 833954587
  %493 = sub i32 %488, 1
  %494 = mul i32 %488, %492
  %495 = urem i32 %494, 2
  %496 = icmp eq i32 %495, 0
  %497 = icmp slt i32 %489, 10
  %498 = and i1 %496, %497
  %499 = xor i1 %496, %497
  %500 = or i1 %498, %499
  %501 = or i1 %496, %497
  br i1 %500, label %502, label %646

; <label>:502:                                    ; preds = %487
  %503 = invoke dereferenceable(272) %"class.std::basic_ostream"* @_ZNSolsEPFRSoS_E(%"class.std::basic_ostream"* %471, %"class.std::basic_ostream"* (%"class.std::basic_ostream"*)* @_ZSt4endlIcSt11char_traitsIcEERSt13basic_ostreamIT_T0_ES6_)
          to label %504 unwind label %80

; <label>:504:                                    ; preds = %502
  %505 = load i32, i32* @x.2
  %506 = load i32, i32* @y.3
  %507 = sub i32 0, 1
  %508 = add i32 %505, %507
  %509 = sub i32 %505, 1
  %510 = mul i32 %505, %508
  %511 = urem i32 %510, 2
  %512 = icmp eq i32 %511, 0
  %513 = icmp slt i32 %506, 10
  %514 = and i1 %512, %513
  %515 = xor i1 %512, %513
  %516 = or i1 %514, %515
  %517 = or i1 %512, %513
  br i1 %516, label %518, label %647

; <label>:518:                                    ; preds = %504, %647
  store i32 0, i32* %15, align 4
  store i32 1, i32* %28, align 4
  call void @_ZNSt6vectorIiSaIiEED2Ev(%"class.std::vector"* %18) #3
  %519 = load i32, i32* %15, align 4
  %520 = load i32, i32* @x.2
  %521 = load i32, i32* @y.3
  %522 = add i32 %520, -1796758693
  %523 = sub i32 %522, 1
  %524 = sub i32 %523, -1796758693
  %525 = sub i32 %520, 1
  %526 = mul i32 %520, %524
  %527 = urem i32 %526, 2
  %528 = icmp eq i32 %527, 0
  %529 = icmp slt i32 %521, 10
  %530 = xor i1 %528, true
  %531 = xor i1 %529, true
  %532 = xor i1 true, true
  %533 = and i1 %530, true
  %534 = and i1 %528, %532
  %535 = and i1 %531, true
  %536 = and i1 %529, %532
  %537 = or i1 %533, %534
  %538 = or i1 %535, %536
  %539 = xor i1 %537, %538
  %540 = or i1 %530, %531
  %541 = xor i1 %540, true
  %542 = or i1 true, %532
  %543 = and i1 %541, %542
  %544 = or i1 %539, %543
  %545 = or i1 %528, %529
  br i1 %544, label %546, label %647

; <label>:546:                                    ; preds = %518
  ret i32 %519

; <label>:547:                                    ; preds = %466
  br label %127

; <label>:548:                                    ; preds = %271, %125
  call void @_ZNSt6vectorIiSaIiEED2Ev(%"class.std::vector"* %18) #3
  br label %549

; <label>:549:                                    ; preds = %548, %76
  %550 = load i8*, i8** %21, align 8
  %551 = load i32, i32* %22, align 4
  %552 = insertvalue { i8*, i32 } undef, i8* %550, 0
  %553 = insertvalue { i8*, i32 } %552, i32 %551, 1
  resume { i8*, i32 } %553

; <label>:554:                                    ; preds = %455, %457
  br label %555

; <label>:555:                                    ; preds = %554
  %556 = load i32, i32* @x.2
  %557 = load i32, i32* @y.3
  %558 = sub i32 0, 1
  %559 = add i32 %556, %558
  %560 = sub i32 %556, 1
  %561 = mul i32 %556, %559
  %562 = urem i32 %561, 2
  %563 = icmp eq i32 %562, 0
  %564 = icmp slt i32 %557, 10
  %565 = and i1 %563, %564
  %566 = xor i1 %563, %564
  %567 = or i1 %565, %566
  %568 = or i1 %563, %564
  br i1 %567, label %569, label %649

; <label>:569:                                    ; preds = %555, %649
  %570 = load i32, i32* @x.2
  %571 = load i32, i32* @y.3
  %572 = add i32 %570, -117463858
  %573 = sub i32 %572, 1
  %574 = sub i32 %573, -117463858
  %575 = sub i32 %570, 1
  %576 = mul i32 %570, %574
  %577 = urem i32 %576, 2
  %578 = icmp eq i32 %577, 0
  %579 = icmp slt i32 %571, 10
  %580 = xor i1 %578, true
  %581 = xor i1 %579, true
  %582 = xor i1 true, true
  %583 = and i1 %580, true
  %584 = and i1 %578, %582
  %585 = and i1 %581, true
  %586 = and i1 %579, %582
  %587 = or i1 %583, %584
  %588 = or i1 %585, %586
  %589 = xor i1 %587, %588
  %590 = or i1 %580, %581
  %591 = xor i1 %590, true
  %592 = or i1 true, %582
  %593 = and i1 %591, %592
  %594 = or i1 %589, %593
  %595 = or i1 %578, %579
  br i1 %594, label %596, label %649

; <label>:596:                                    ; preds = %569
  unreachable

; <label>:597:                                    ; preds = %14, %0
  %598 = alloca i32, align 4
  %599 = alloca i32, align 4
  %600 = alloca i32, align 4
  %601 = alloca %"class.std::vector", align 8
  %602 = alloca i32, align 4
  %603 = alloca %"class.std::allocator", align 1
  %604 = alloca i8*
  %605 = alloca i32
  %606 = alloca i32, align 4
  %607 = alloca i8, align 1
  %608 = alloca i32, align 4
  %609 = alloca %"class.std::__cxx11::basic_string", align 8
  %610 = alloca i32, align 4
  %611 = alloca i32
  store i32 0, i32* %598, align 4
  %612 = call dereferenceable(280) %"class.std::basic_istream"* @_ZNSirsERi(%"class.std::basic_istream"* @_ZSt3cin, i32* dereferenceable(4) %599)
  %613 = call dereferenceable(280) %"class.std::basic_istream"* @_ZNSirsERi(%"class.std::basic_istream"* %612, i32* dereferenceable(4) %600)
  %614 = load i32, i32* %600, align 4
  %615 = sext i32 %614 to i64
  store i32 0, i32* %602, align 4
  call void @_ZNSaIiEC2Ev(%"class.std::allocator"* %603) #3
  br label %14

; <label>:616:                                    ; preds = %107, %80
  %617 = landingpad { i8*, i32 }
          cleanup
  %618 = extractvalue { i8*, i32 } %617, 0
  store i8* %618, i8** %21, align 8
  %619 = extractvalue { i8*, i32 } %617, 1
  store i32 %619, i32* %22, align 4
  br label %107

; <label>:620:                                    ; preds = %160, %133
  %621 = load i32, i32* %16, align 4
  br label %160

; <label>:622:                                    ; preds = %216, %189
  store i32 0, i32* %27, align 4
  br label %216

; <label>:623:                                    ; preds = %301, %275
  br label %301

; <label>:624:                                    ; preds = %344, %317
  %625 = load i32, i32* %27, align 4
  %626 = shl i32 %625, 1
  %627 = shl i32 %625, 1
  %628 = sub i32 %625, 497089745
  %629 = sub i32 %628, 1
  %630 = add i32 %629, 497089745
  %631 = sub i32 %625, 1
  %632 = mul i32 %630, 1
  %633 = sub i32 0, 1
  %634 = add i32 %625, %633
  %635 = sub i32 %625, 1
  %636 = mul i32 %634, 1
  %637 = shl i32 %625, 1
  %638 = sub i32 %625, -296409457
  %639 = add i32 %638, 1
  %640 = add i32 %639, -296409457
  %641 = add nsw i32 %625, 1
  store i32 %640, i32* %27, align 4
  br label %344

; <label>:642:                                    ; preds = %402, %376
  %643 = load i8, i8* %24, align 1
  %644 = trunc i8 %643 to i1
  br label %402

; <label>:645:                                    ; preds = %434, %419
  store i32 7, i32* %28, align 4
  br label %434

; <label>:646:                                    ; preds = %487, %472
  br label %487

; <label>:647:                                    ; preds = %518, %504
  store i32 0, i32* %15, align 4
  store i32 1, i32* %28, align 4
  call void @_ZNSt6vectorIiSaIiEED2Ev(%"class.std::vector"* %18) #3
  %648 = load i32, i32* %15, align 4
  br label %518

; <label>:649:                                    ; preds = %569, %555
  br label %569
}

declare dereferenceable(280) %"class.std::basic_istream"* @_ZNSirsERi(%"class.std::basic_istream"*, i32* dereferenceable(4)) #1

; Function Attrs: noinline nounwind uwtable
define linkonce_odr void @_ZNSaIiEC2Ev(%"class.std::allocator"*) unnamed_addr #5 comdat align 2 {
  %2 = alloca %"class.std::allocator"*, align 8
  store %"class.std::allocator"* %0, %"class.std::allocator"** %2, align 8
  %3 = load %"class.std::allocator"*, %"class.std::allocator"** %2, align 8
  %4 = bitcast %"class.std::allocator"* %3 to %"class.__gnu_cxx::new_allocator"*
  call void @_ZN9__gnu_cxx13new_allocatorIiEC2Ev(%"class.__gnu_cxx::new_allocator"* %4) #3
  ret void
}

; Function Attrs: noinline uwtable
define linkonce_odr void @_ZNSt6vectorIiSaIiEEC2EmRKiRKS0_(%"class.std::vector"*, i64, i32* dereferenceable(4), %"class.std::allocator"* dereferenceable(1)) unnamed_addr #0 comdat align 2 personality i8* bitcast (i32 (...)* @__gxx_personality_v0 to i8*) {
  %5 = load i32, i32* @x.6
  %6 = load i32, i32* @y.7
  %7 = add i32 %5, 926964027
  %8 = sub i32 %7, 1
  %9 = sub i32 %8, 926964027
  %10 = sub i32 %5, 1
  %11 = mul i32 %5, %9
  %12 = urem i32 %11, 2
  %13 = icmp eq i32 %12, 0
  %14 = icmp slt i32 %6, 10
  %15 = and i1 %13, %14
  %16 = xor i1 %13, %14
  %17 = or i1 %15, %16
  %18 = or i1 %13, %14
  br i1 %17, label %19, label %117

; <label>:19:                                     ; preds = %4, %117
  %20 = alloca %"class.std::vector"*, align 8
  %21 = alloca i64, align 8
  %22 = alloca i32*, align 8
  %23 = alloca %"class.std::allocator"*, align 8
  %24 = alloca i8*
  %25 = alloca i32
  store %"class.std::vector"* %0, %"class.std::vector"** %20, align 8
  store i64 %1, i64* %21, align 8
  store i32* %2, i32** %22, align 8
  store %"class.std::allocator"* %3, %"class.std::allocator"** %23, align 8
  %26 = load %"class.std::vector"*, %"class.std::vector"** %20, align 8
  %27 = bitcast %"class.std::vector"* %26 to %"struct.std::_Vector_base"*
  %28 = load i64, i64* %21, align 8
  %29 = load %"class.std::allocator"*, %"class.std::allocator"** %23, align 8
  call void @_ZNSt12_Vector_baseIiSaIiEEC2EmRKS0_(%"struct.std::_Vector_base"* %27, i64 %28, %"class.std::allocator"* dereferenceable(1) %29)
  %30 = load i64, i64* %21, align 8
  %31 = load i32*, i32** %22, align 8
  %32 = load i32, i32* @x.6
  %33 = load i32, i32* @y.7
  %34 = sub i32 0, 1
  %35 = add i32 %32, %34
  %36 = sub i32 %32, 1
  %37 = mul i32 %32, %35
  %38 = urem i32 %37, 2
  %39 = icmp eq i32 %38, 0
  %40 = icmp slt i32 %33, 10
  %41 = and i1 %39, %40
  %42 = xor i1 %39, %40
  %43 = or i1 %41, %42
  %44 = or i1 %39, %40
  br i1 %43, label %45, label %117

; <label>:45:                                     ; preds = %19
  invoke void @_ZNSt6vectorIiSaIiEE18_M_fill_initializeEmRKi(%"class.std::vector"* %26, i64 %30, i32* dereferenceable(4) %31)
          to label %46 unwind label %77

; <label>:46:                                     ; preds = %45
  %47 = load i32, i32* @x.6
  %48 = load i32, i32* @y.7
  %49 = sub i32 %47, -1580647085
  %50 = sub i32 %49, 1
  %51 = add i32 %50, -1580647085
  %52 = sub i32 %47, 1
  %53 = mul i32 %47, %51
  %54 = urem i32 %53, 2
  %55 = icmp eq i32 %54, 0
  %56 = icmp slt i32 %48, 10
  %57 = and i1 %55, %56
  %58 = xor i1 %55, %56
  %59 = or i1 %57, %58
  %60 = or i1 %55, %56
  br i1 %59, label %61, label %130

; <label>:61:                                     ; preds = %46, %130
  %62 = load i32, i32* @x.6
  %63 = load i32, i32* @y.7
  %64 = sub i32 %62, -1242602508
  %65 = sub i32 %64, 1
  %66 = add i32 %65, -1242602508
  %67 = sub i32 %62, 1
  %68 = mul i32 %62, %66
  %69 = urem i32 %68, 2
  %70 = icmp eq i32 %69, 0
  %71 = icmp slt i32 %63, 10
  %72 = and i1 %70, %71
  %73 = xor i1 %70, %71
  %74 = or i1 %72, %73
  %75 = or i1 %70, %71
  br i1 %74, label %76, label %130

; <label>:76:                                     ; preds = %61
  ret void

; <label>:77:                                     ; preds = %45
  %78 = load i32, i32* @x.6
  %79 = load i32, i32* @y.7
  %80 = add i32 %78, 1649516442
  %81 = sub i32 %80, 1
  %82 = sub i32 %81, 1649516442
  %83 = sub i32 %78, 1
  %84 = mul i32 %78, %82
  %85 = urem i32 %84, 2
  %86 = icmp eq i32 %85, 0
  %87 = icmp slt i32 %79, 10
  %88 = and i1 %86, %87
  %89 = xor i1 %86, %87
  %90 = or i1 %88, %89
  %91 = or i1 %86, %87
  br i1 %90, label %92, label %131

; <label>:92:                                     ; preds = %77, %131
  %93 = landingpad { i8*, i32 }
          cleanup
  %94 = extractvalue { i8*, i32 } %93, 0
  store i8* %94, i8** %24, align 8
  %95 = extractvalue { i8*, i32 } %93, 1
  store i32 %95, i32* %25, align 4
  %96 = bitcast %"class.std::vector"* %26 to %"struct.std::_Vector_base"*
  call void @_ZNSt12_Vector_baseIiSaIiEED2Ev(%"struct.std::_Vector_base"* %96) #3
  %97 = load i32, i32* @x.6
  %98 = load i32, i32* @y.7
  %99 = sub i32 %97, 1003068180
  %100 = sub i32 %99, 1
  %101 = add i32 %100, 1003068180
  %102 = sub i32 %97, 1
  %103 = mul i32 %97, %101
  %104 = urem i32 %103, 2
  %105 = icmp eq i32 %104, 0
  %106 = icmp slt i32 %98, 10
  %107 = and i1 %105, %106
  %108 = xor i1 %105, %106
  %109 = or i1 %107, %108
  %110 = or i1 %105, %106
  br i1 %109, label %111, label %131

; <label>:111:                                    ; preds = %92
  br label %112

; <label>:112:                                    ; preds = %111
  %113 = load i8*, i8** %24, align 8
  %114 = load i32, i32* %25, align 4
  %115 = insertvalue { i8*, i32 } undef, i8* %113, 0
  %116 = insertvalue { i8*, i32 } %115, i32 %114, 1
  resume { i8*, i32 } %116

; <label>:117:                                    ; preds = %19, %4
  %118 = alloca %"class.std::vector"*, align 8
  %119 = alloca i64, align 8
  %120 = alloca i32*, align 8
  %121 = alloca %"class.std::allocator"*, align 8
  %122 = alloca i8*
  %123 = alloca i32
  store %"class.std::vector"* %0, %"class.std::vector"** %118, align 8
  store i64 %1, i64* %119, align 8
  store i32* %2, i32** %120, align 8
  store %"class.std::allocator"* %3, %"class.std::allocator"** %121, align 8
  %124 = load %"class.std::vector"*, %"class.std::vector"** %118, align 8
  %125 = bitcast %"class.std::vector"* %124 to %"struct.std::_Vector_base"*
  %126 = load i64, i64* %119, align 8
  %127 = load %"class.std::allocator"*, %"class.std::allocator"** %121, align 8
  call void @_ZNSt12_Vector_baseIiSaIiEEC2EmRKS0_(%"struct.std::_Vector_base"* %125, i64 %126, %"class.std::allocator"* dereferenceable(1) %127)
  %128 = load i64, i64* %119, align 8
  %129 = load i32*, i32** %120, align 8
  br label %19

; <label>:130:                                    ; preds = %61, %46
  br label %61

; <label>:131:                                    ; preds = %92, %77
  %132 = landingpad { i8*, i32 }
          cleanup
  %133 = extractvalue { i8*, i32 } %132, 0
  store i8* %133, i8** %24, align 8
  %134 = extractvalue { i8*, i32 } %132, 1
  store i32 %134, i32* %25, align 4
  %135 = bitcast %"class.std::vector"* %26 to %"struct.std::_Vector_base"*
  call void @_ZNSt12_Vector_baseIiSaIiEED2Ev(%"struct.std::_Vector_base"* %135) #3
  br label %92
}

declare i32 @__gxx_personality_v0(...)

; Function Attrs: noinline nounwind uwtable
define linkonce_odr void @_ZNSaIiED2Ev(%"class.std::allocator"*) unnamed_addr #5 comdat align 2 {
  %2 = alloca %"class.std::allocator"*, align 8
  store %"class.std::allocator"* %0, %"class.std::allocator"** %2, align 8
  %3 = load %"class.std::allocator"*, %"class.std::allocator"** %2, align 8
  %4 = bitcast %"class.std::allocator"* %3 to %"class.__gnu_cxx::new_allocator"*
  call void @_ZN9__gnu_cxx13new_allocatorIiED2Ev(%"class.__gnu_cxx::new_allocator"* %4) #3
  ret void
}

; Function Attrs: noinline nounwind uwtable
define linkonce_odr dereferenceable(4) i32* @_ZNSt6vectorIiSaIiEEixEm(%"class.std::vector"*, i64) #5 comdat align 2 {
  %3 = alloca %"class.std::vector"*, align 8
  %4 = alloca i64, align 8
  store %"class.std::vector"* %0, %"class.std::vector"** %3, align 8
  store i64 %1, i64* %4, align 8
  %5 = load %"class.std::vector"*, %"class.std::vector"** %3, align 8
  %6 = bitcast %"class.std::vector"* %5 to %"struct.std::_Vector_base"*
  %7 = getelementptr inbounds %"struct.std::_Vector_base", %"struct.std::_Vector_base"* %6, i32 0, i32 0
  %8 = getelementptr inbounds %"struct.std::_Vector_base<int, std::allocator<int> >::_Vector_impl", %"struct.std::_Vector_base<int, std::allocator<int> >::_Vector_impl"* %7, i32 0, i32 0
  %9 = load i32*, i32** %8, align 8
  %10 = load i64, i64* %4, align 8
  %11 = getelementptr inbounds i32, i32* %9, i64 %10
  ret i32* %11
}

; Function Attrs: noinline uwtable
define linkonce_odr void @_ZNSt7__cxx119to_stringEi(%"class.std::__cxx11::basic_string"* noalias sret, i32) #0 comdat {
  %3 = alloca i32, align 4
  store i32 %1, i32* %3, align 4
  %4 = load i32, i32* %3, align 4
  call void (%"class.std::__cxx11::basic_string"*, i32 (i8*, i64, i8*, %struct.__va_list_tag*)*, i64, i8*, ...) @_ZN9__gnu_cxx12__to_xstringINSt7__cxx1112basic_stringIcSt11char_traitsIcESaIcEEEcEET_PFiPT0_mPKS8_P13__va_list_tagEmSB_z(%"class.std::__cxx11::basic_string"* sret %0, i32 (i8*, i64, i8*, %struct.__va_list_tag*)* @vsnprintf, i64 16, i8* getelementptr inbounds ([3 x i8], [3 x i8]* @.str, i32 0, i32 0), i32 %4)
  ret void
}

; Function Attrs: nounwind
declare i64 @_ZNKSt7__cxx1112basic_stringIcSt11char_traitsIcESaIcEE4sizeEv(%"class.std::__cxx11::basic_string"*) #2

declare dereferenceable(1) i8* @_ZNSt7__cxx1112basic_stringIcSt11char_traitsIcESaIcEEixEm(%"class.std::__cxx11::basic_string"*, i64) #1

; Function Attrs: nounwind
declare void @_ZNSt7__cxx1112basic_stringIcSt11char_traitsIcESaIcEED1Ev(%"class.std::__cxx11::basic_string"*) unnamed_addr #2

declare dereferenceable(272) %"class.std::basic_ostream"* @_ZNSolsEi(%"class.std::basic_ostream"*, i32) #1

declare dereferenceable(272) %"class.std::basic_ostream"* @_ZNSolsEPFRSoS_E(%"class.std::basic_ostream"*, %"class.std::basic_ostream"* (%"class.std::basic_ostream"*)*) #1

declare dereferenceable(272) %"class.std::basic_ostream"* @_ZSt4endlIcSt11char_traitsIcEERSt13basic_ostreamIT_T0_ES6_(%"class.std::basic_ostream"* dereferenceable(272)) #1

; Function Attrs: noinline nounwind uwtable
define linkonce_odr void @_ZNSt6vectorIiSaIiEED2Ev(%"class.std::vector"*) unnamed_addr #5 comdat align 2 personality i8* bitcast (i32 (...)* @__gxx_personality_v0 to i8*) {
  %2 = load i32, i32* @x.14
  %3 = load i32, i32* @y.15
  %4 = sub i32 0, 1
  %5 = add i32 %2, %4
  %6 = sub i32 %2, 1
  %7 = mul i32 %2, %5
  %8 = urem i32 %7, 2
  %9 = icmp eq i32 %8, 0
  %10 = icmp slt i32 %3, 10
  %11 = and i1 %9, %10
  %12 = xor i1 %9, %10
  %13 = or i1 %11, %12
  %14 = or i1 %9, %10
  br i1 %13, label %15, label %95

; <label>:15:                                     ; preds = %1, %95
  %16 = alloca %"class.std::vector"*, align 8
  %17 = alloca i8*
  %18 = alloca i32
  store %"class.std::vector"* %0, %"class.std::vector"** %16, align 8
  %19 = load %"class.std::vector"*, %"class.std::vector"** %16, align 8
  %20 = bitcast %"class.std::vector"* %19 to %"struct.std::_Vector_base"*
  %21 = getelementptr inbounds %"struct.std::_Vector_base", %"struct.std::_Vector_base"* %20, i32 0, i32 0
  %22 = getelementptr inbounds %"struct.std::_Vector_base<int, std::allocator<int> >::_Vector_impl", %"struct.std::_Vector_base<int, std::allocator<int> >::_Vector_impl"* %21, i32 0, i32 0
  %23 = load i32*, i32** %22, align 8
  %24 = bitcast %"class.std::vector"* %19 to %"struct.std::_Vector_base"*
  %25 = getelementptr inbounds %"struct.std::_Vector_base", %"struct.std::_Vector_base"* %24, i32 0, i32 0
  %26 = getelementptr inbounds %"struct.std::_Vector_base<int, std::allocator<int> >::_Vector_impl", %"struct.std::_Vector_base<int, std::allocator<int> >::_Vector_impl"* %25, i32 0, i32 1
  %27 = load i32*, i32** %26, align 8
  %28 = bitcast %"class.std::vector"* %19 to %"struct.std::_Vector_base"*
  %29 = call dereferenceable(1) %"class.std::allocator"* @_ZNSt12_Vector_baseIiSaIiEE19_M_get_Tp_allocatorEv(%"struct.std::_Vector_base"* %28) #3
  %30 = load i32, i32* @x.14
  %31 = load i32, i32* @y.15
  %32 = sub i32 %30, 872150823
  %33 = sub i32 %32, 1
  %34 = add i32 %33, 872150823
  %35 = sub i32 %30, 1
  %36 = mul i32 %30, %34
  %37 = urem i32 %36, 2
  %38 = icmp eq i32 %37, 0
  %39 = icmp slt i32 %31, 10
  %40 = and i1 %38, %39
  %41 = xor i1 %38, %39
  %42 = or i1 %40, %41
  %43 = or i1 %38, %39
  br i1 %42, label %44, label %95

; <label>:44:                                     ; preds = %15
  invoke void @_ZSt8_DestroyIPiiEvT_S1_RSaIT0_E(i32* %23, i32* %27, %"class.std::allocator"* dereferenceable(1) %29)
          to label %45 unwind label %47

; <label>:45:                                     ; preds = %44
  %46 = bitcast %"class.std::vector"* %19 to %"struct.std::_Vector_base"*
  call void @_ZNSt12_Vector_baseIiSaIiEED2Ev(%"struct.std::_Vector_base"* %46) #3
  ret void

; <label>:47:                                     ; preds = %44
  %48 = load i32, i32* @x.14
  %49 = load i32, i32* @y.15
  %50 = add i32 %48, 315603350
  %51 = sub i32 %50, 1
  %52 = sub i32 %51, 315603350
  %53 = sub i32 %48, 1
  %54 = mul i32 %48, %52
  %55 = urem i32 %54, 2
  %56 = icmp eq i32 %55, 0
  %57 = icmp slt i32 %49, 10
  %58 = xor i1 %56, true
  %59 = xor i1 %57, true
  %60 = xor i1 false, true
  %61 = and i1 %58, false
  %62 = and i1 %56, %60
  %63 = and i1 %59, false
  %64 = and i1 %57, %60
  %65 = or i1 %61, %62
  %66 = or i1 %63, %64
  %67 = xor i1 %65, %66
  %68 = or i1 %58, %59
  %69 = xor i1 %68, true
  %70 = or i1 false, %60
  %71 = and i1 %69, %70
  %72 = or i1 %67, %71
  %73 = or i1 %56, %57
  br i1 %72, label %74, label %110

; <label>:74:                                     ; preds = %47, %110
  %75 = landingpad { i8*, i32 }
          catch i8* null
  %76 = extractvalue { i8*, i32 } %75, 0
  store i8* %76, i8** %17, align 8
  %77 = extractvalue { i8*, i32 } %75, 1
  store i32 %77, i32* %18, align 4
  %78 = bitcast %"class.std::vector"* %19 to %"struct.std::_Vector_base"*
  call void @_ZNSt12_Vector_baseIiSaIiEED2Ev(%"struct.std::_Vector_base"* %78) #3
  %79 = load i32, i32* @x.14
  %80 = load i32, i32* @y.15
  %81 = sub i32 0, 1
  %82 = add i32 %79, %81
  %83 = sub i32 %79, 1
  %84 = mul i32 %79, %82
  %85 = urem i32 %84, 2
  %86 = icmp eq i32 %85, 0
  %87 = icmp slt i32 %80, 10
  %88 = and i1 %86, %87
  %89 = xor i1 %86, %87
  %90 = or i1 %88, %89
  %91 = or i1 %86, %87
  br i1 %90, label %92, label %110

; <label>:92:                                     ; preds = %74
  br label %93

; <label>:93:                                     ; preds = %92
  %94 = load i8*, i8** %17, align 8
  call void @__clang_call_terminate(i8* %94) #10
  unreachable

; <label>:95:                                     ; preds = %15, %1
  %96 = alloca %"class.std::vector"*, align 8
  %97 = alloca i8*
  %98 = alloca i32
  store %"class.std::vector"* %0, %"class.std::vector"** %96, align 8
  %99 = load %"class.std::vector"*, %"class.std::vector"** %96, align 8
  %100 = bitcast %"class.std::vector"* %99 to %"struct.std::_Vector_base"*
  %101 = getelementptr inbounds %"struct.std::_Vector_base", %"struct.std::_Vector_base"* %100, i32 0, i32 0
  %102 = getelementptr inbounds %"struct.std::_Vector_base<int, std::allocator<int> >::_Vector_impl", %"struct.std::_Vector_base<int, std::allocator<int> >::_Vector_impl"* %101, i32 0, i32 0
  %103 = load i32*, i32** %102, align 8
  %104 = bitcast %"class.std::vector"* %99 to %"struct.std::_Vector_base"*
  %105 = getelementptr inbounds %"struct.std::_Vector_base", %"struct.std::_Vector_base"* %104, i32 0, i32 0
  %106 = getelementptr inbounds %"struct.std::_Vector_base<int, std::allocator<int> >::_Vector_impl", %"struct.std::_Vector_base<int, std::allocator<int> >::_Vector_impl"* %105, i32 0, i32 1
  %107 = load i32*, i32** %106, align 8
  %108 = bitcast %"class.std::vector"* %99 to %"struct.std::_Vector_base"*
  %109 = call dereferenceable(1) %"class.std::allocator"* @_ZNSt12_Vector_baseIiSaIiEE19_M_get_Tp_allocatorEv(%"struct.std::_Vector_base"* %108) #3
  br label %15

; <label>:110:                                    ; preds = %74, %47
  %111 = landingpad { i8*, i32 }
          catch i8* null
  %112 = extractvalue { i8*, i32 } %111, 0
  store i8* %112, i8** %17, align 8
  %113 = extractvalue { i8*, i32 } %111, 1
  store i32 %113, i32* %18, align 4
  %114 = bitcast %"class.std::vector"* %19 to %"struct.std::_Vector_base"*
  call void @_ZNSt12_Vector_baseIiSaIiEED2Ev(%"struct.std::_Vector_base"* %114) #3
  br label %74
}

; Function Attrs: noinline uwtable
define linkonce_odr void @_ZN9__gnu_cxx12__to_xstringINSt7__cxx1112basic_stringIcSt11char_traitsIcESaIcEEEcEET_PFiPT0_mPKS8_P13__va_list_tagEmSB_z(%"class.std::__cxx11::basic_string"* noalias sret, i32 (i8*, i64, i8*, %struct.__va_list_tag*)*, i64, i8*, ...) #0 comdat personality i8* bitcast (i32 (...)* @__gxx_personality_v0 to i8*) {
  %5 = load i32, i32* @x.16
  %6 = load i32, i32* @y.17
  %7 = sub i32 0, 1
  %8 = add i32 %5, %7
  %9 = sub i32 %5, 1
  %10 = mul i32 %5, %8
  %11 = urem i32 %10, 2
  %12 = icmp eq i32 %11, 0
  %13 = icmp slt i32 %6, 10
  %14 = and i1 %12, %13
  %15 = xor i1 %12, %13
  %16 = or i1 %14, %15
  %17 = or i1 %12, %13
  br i1 %16, label %18, label %136

; <label>:18:                                     ; preds = %4, %136
  %19 = alloca i32 (i8*, i64, i8*, %struct.__va_list_tag*)*, align 8
  %20 = alloca i64, align 8
  %21 = alloca i8*, align 8
  %22 = alloca i8*, align 8
  %23 = alloca [1 x %struct.__va_list_tag], align 16
  %24 = alloca i32, align 4
  %25 = alloca %"class.std::allocator.0", align 1
  %26 = alloca i8*
  %27 = alloca i32
  store i32 (i8*, i64, i8*, %struct.__va_list_tag*)* %1, i32 (i8*, i64, i8*, %struct.__va_list_tag*)** %19, align 8
  store i64 %2, i64* %20, align 8
  store i8* %3, i8** %21, align 8
  %28 = load i64, i64* %20, align 8
  %29 = mul i64 1, %28
  %30 = alloca i8, i64 %29, align 16
  store i8* %30, i8** %22, align 8
  %31 = getelementptr inbounds [1 x %struct.__va_list_tag], [1 x %struct.__va_list_tag]* %23, i32 0, i32 0
  %32 = bitcast %struct.__va_list_tag* %31 to i8*
  call void @llvm.va_start(i8* %32)
  %33 = load i32 (i8*, i64, i8*, %struct.__va_list_tag*)*, i32 (i8*, i64, i8*, %struct.__va_list_tag*)** %19, align 8
  %34 = load i8*, i8** %22, align 8
  %35 = load i64, i64* %20, align 8
  %36 = load i8*, i8** %21, align 8
  %37 = getelementptr inbounds [1 x %struct.__va_list_tag], [1 x %struct.__va_list_tag]* %23, i32 0, i32 0
  %38 = call i32 %33(i8* %34, i64 %35, i8* %36, %struct.__va_list_tag* %37)
  store i32 %38, i32* %24, align 4
  %39 = getelementptr inbounds [1 x %struct.__va_list_tag], [1 x %struct.__va_list_tag]* %23, i32 0, i32 0
  %40 = bitcast %struct.__va_list_tag* %39 to i8*
  call void @llvm.va_end(i8* %40)
  %41 = load i8*, i8** %22, align 8
  %42 = load i8*, i8** %22, align 8
  %43 = load i32, i32* %24, align 4
  %44 = sext i32 %43 to i64
  %45 = getelementptr inbounds i8, i8* %42, i64 %44
  call void @_ZNSaIcEC1Ev(%"class.std::allocator.0"* %25) #3
  %46 = load i32, i32* @x.16
  %47 = load i32, i32* @y.17
  %48 = add i32 %46, 216731180
  %49 = sub i32 %48, 1
  %50 = sub i32 %49, 216731180
  %51 = sub i32 %46, 1
  %52 = mul i32 %46, %50
  %53 = urem i32 %52, 2
  %54 = icmp eq i32 %53, 0
  %55 = icmp slt i32 %47, 10
  %56 = xor i1 %54, true
  %57 = xor i1 %55, true
  %58 = xor i1 false, true
  %59 = and i1 %56, false
  %60 = and i1 %54, %58
  %61 = and i1 %57, false
  %62 = and i1 %55, %58
  %63 = or i1 %59, %60
  %64 = or i1 %61, %62
  %65 = xor i1 %63, %64
  %66 = or i1 %56, %57
  %67 = xor i1 %66, true
  %68 = or i1 false, %58
  %69 = and i1 %67, %68
  %70 = or i1 %65, %69
  %71 = or i1 %54, %55
  br i1 %70, label %72, label %136

; <label>:72:                                     ; preds = %18
  invoke void @_ZNSt7__cxx1112basic_stringIcSt11char_traitsIcESaIcEEC2IPcvEET_S7_RKS3_(%"class.std::__cxx11::basic_string"* %0, i8* %41, i8* %45, %"class.std::allocator.0"* dereferenceable(1) %25)
          to label %73 unwind label %74

; <label>:73:                                     ; preds = %72
  call void @_ZNSaIcED1Ev(%"class.std::allocator.0"* %25) #3
  ret void

; <label>:74:                                     ; preds = %72
  %75 = landingpad { i8*, i32 }
          cleanup
  %76 = extractvalue { i8*, i32 } %75, 0
  store i8* %76, i8** %26, align 8
  %77 = extractvalue { i8*, i32 } %75, 1
  store i32 %77, i32* %27, align 4
  call void @_ZNSaIcED1Ev(%"class.std::allocator.0"* %25) #3
  br label %78

; <label>:78:                                     ; preds = %74
  %79 = load i32, i32* @x.16
  %80 = load i32, i32* @y.17
  %81 = add i32 %79, -1673040412
  %82 = sub i32 %81, 1
  %83 = sub i32 %82, -1673040412
  %84 = sub i32 %79, 1
  %85 = mul i32 %79, %83
  %86 = urem i32 %85, 2
  %87 = icmp eq i32 %86, 0
  %88 = icmp slt i32 %80, 10
  %89 = xor i1 %87, true
  %90 = xor i1 %88, true
  %91 = xor i1 true, true
  %92 = and i1 %89, true
  %93 = and i1 %87, %91
  %94 = and i1 %90, true
  %95 = and i1 %88, %91
  %96 = or i1 %92, %93
  %97 = or i1 %94, %95
  %98 = xor i1 %96, %97
  %99 = or i1 %89, %90
  %100 = xor i1 %99, true
  %101 = or i1 true, %91
  %102 = and i1 %100, %101
  %103 = or i1 %98, %102
  %104 = or i1 %87, %88
  br i1 %103, label %105, label %174

; <label>:105:                                    ; preds = %78, %174
  %106 = load i8*, i8** %26, align 8
  %107 = load i32, i32* %27, align 4
  %108 = insertvalue { i8*, i32 } undef, i8* %106, 0
  %109 = insertvalue { i8*, i32 } %108, i32 %107, 1
  %110 = load i32, i32* @x.16
  %111 = load i32, i32* @y.17
  %112 = sub i32 0, 1
  %113 = add i32 %110, %112
  %114 = sub i32 %110, 1
  %115 = mul i32 %110, %113
  %116 = urem i32 %115, 2
  %117 = icmp eq i32 %116, 0
  %118 = icmp slt i32 %111, 10
  %119 = xor i1 %117, true
  %120 = xor i1 %118, true
  %121 = xor i1 false, true
  %122 = and i1 %119, false
  %123 = and i1 %117, %121
  %124 = and i1 %120, false
  %125 = and i1 %118, %121
  %126 = or i1 %122, %123
  %127 = or i1 %124, %125
  %128 = xor i1 %126, %127
  %129 = or i1 %119, %120
  %130 = xor i1 %129, true
  %131 = or i1 false, %121
  %132 = and i1 %130, %131
  %133 = or i1 %128, %132
  %134 = or i1 %117, %118
  br i1 %133, label %135, label %174

; <label>:135:                                    ; preds = %105
  resume { i8*, i32 } %109

; <label>:136:                                    ; preds = %18, %4
  %137 = alloca i32 (i8*, i64, i8*, %struct.__va_list_tag*)*, align 8
  %138 = alloca i64, align 8
  %139 = alloca i8*, align 8
  %140 = alloca i8*, align 8
  %141 = alloca [1 x %struct.__va_list_tag], align 16
  %142 = alloca i32, align 4
  %143 = alloca %"class.std::allocator.0", align 1
  %144 = alloca i8*
  %145 = alloca i32
  store i32 (i8*, i64, i8*, %struct.__va_list_tag*)* %1, i32 (i8*, i64, i8*, %struct.__va_list_tag*)** %137, align 8
  store i64 %2, i64* %138, align 8
  store i8* %3, i8** %139, align 8
  %146 = load i64, i64* %138, align 8
  %147 = sub i64 1, -6471101293918608837
  %148 = sub i64 %147, %146
  %149 = add i64 %148, -6471101293918608837
  %150 = sub i64 1, %146
  %151 = mul i64 %149, %146
  %152 = sub i64 0, %146
  %153 = add i64 1, %152
  %154 = sub i64 1, %146
  %155 = mul i64 %153, %146
  %156 = shl i64 1, %146
  %157 = mul i64 1, %146
  %158 = alloca i8, i64 %157, align 16
  store i8* %158, i8** %140, align 8
  %159 = getelementptr inbounds [1 x %struct.__va_list_tag], [1 x %struct.__va_list_tag]* %141, i32 0, i32 0
  %160 = bitcast %struct.__va_list_tag* %159 to i8*
  call void @llvm.va_start(i8* %160)
  %161 = load i32 (i8*, i64, i8*, %struct.__va_list_tag*)*, i32 (i8*, i64, i8*, %struct.__va_list_tag*)** %137, align 8
  %162 = load i8*, i8** %140, align 8
  %163 = load i64, i64* %138, align 8
  %164 = load i8*, i8** %139, align 8
  %165 = getelementptr inbounds [1 x %struct.__va_list_tag], [1 x %struct.__va_list_tag]* %141, i32 0, i32 0
  %166 = call i32 %161(i8* %162, i64 %163, i8* %164, %struct.__va_list_tag* %165)
  store i32 %166, i32* %142, align 4
  %167 = getelementptr inbounds [1 x %struct.__va_list_tag], [1 x %struct.__va_list_tag]* %141, i32 0, i32 0
  %168 = bitcast %struct.__va_list_tag* %167 to i8*
  call void @llvm.va_end(i8* %168)
  %169 = load i8*, i8** %140, align 8
  %170 = load i8*, i8** %140, align 8
  %171 = load i32, i32* %142, align 4
  %172 = sext i32 %171 to i64
  %173 = getelementptr inbounds i8, i8* %170, i64 %172
  call void @_ZNSaIcEC1Ev(%"class.std::allocator.0"* %143) #3
  br label %18

; <label>:174:                                    ; preds = %105, %78
  %175 = load i8*, i8** %26, align 8
  %176 = load i32, i32* %27, align 4
  %177 = insertvalue { i8*, i32 } undef, i8* %175, 0
  %178 = insertvalue { i8*, i32 } %177, i32 %176, 1
  br label %105
}

; Function Attrs: nounwind
declare i32 @vsnprintf(i8*, i64, i8*, %struct.__va_list_tag*) #2

; Function Attrs: nounwind
declare void @llvm.va_start(i8*) #3

; Function Attrs: nounwind
declare void @llvm.va_end(i8*) #3

; Function Attrs: nounwind
declare void @_ZNSaIcEC1Ev(%"class.std::allocator.0"*) unnamed_addr #2

; Function Attrs: noinline uwtable
define linkonce_odr void @_ZNSt7__cxx1112basic_stringIcSt11char_traitsIcESaIcEEC2IPcvEET_S7_RKS3_(%"class.std::__cxx11::basic_string"*, i8*, i8*, %"class.std::allocator.0"* dereferenceable(1)) unnamed_addr #0 comdat align 2 personality i8* bitcast (i32 (...)* @__gxx_personality_v0 to i8*) {
  %5 = alloca %"class.std::__cxx11::basic_string"*, align 8
  %6 = alloca i8*, align 8
  %7 = alloca i8*, align 8
  %8 = alloca %"class.std::allocator.0"*, align 8
  %9 = alloca i8*
  %10 = alloca i32
  store %"class.std::__cxx11::basic_string"* %0, %"class.std::__cxx11::basic_string"** %5, align 8
  store i8* %1, i8** %6, align 8
  store i8* %2, i8** %7, align 8
  store %"class.std::allocator.0"* %3, %"class.std::allocator.0"** %8, align 8
  %11 = load %"class.std::__cxx11::basic_string"*, %"class.std::__cxx11::basic_string"** %5, align 8
  %12 = getelementptr inbounds %"class.std::__cxx11::basic_string", %"class.std::__cxx11::basic_string"* %11, i32 0, i32 0
  %13 = call i8* @_ZNSt7__cxx1112basic_stringIcSt11char_traitsIcESaIcEE13_M_local_dataEv(%"class.std::__cxx11::basic_string"* %11)
  %14 = load %"class.std::allocator.0"*, %"class.std::allocator.0"** %8, align 8
  call void @_ZNSt7__cxx1112basic_stringIcSt11char_traitsIcESaIcEE12_Alloc_hiderC1EPcRKS3_(%"struct.std::__cxx11::basic_string<char, std::char_traits<char>, std::allocator<char> >::_Alloc_hider"* %12, i8* %13, %"class.std::allocator.0"* dereferenceable(1) %14)
  %15 = load i8*, i8** %6, align 8
  %16 = load i8*, i8** %7, align 8
  invoke void @_ZNSt7__cxx1112basic_stringIcSt11char_traitsIcESaIcEE12_M_constructIPcEEvT_S7_(%"class.std::__cxx11::basic_string"* %11, i8* %15, i8* %16)
          to label %17 unwind label %18

; <label>:17:                                     ; preds = %4
  ret void

; <label>:18:                                     ; preds = %4
  %19 = load i32, i32* @x.18
  %20 = load i32, i32* @y.19
  %21 = add i32 %19, -18518928
  %22 = sub i32 %21, 1
  %23 = sub i32 %22, -18518928
  %24 = sub i32 %19, 1
  %25 = mul i32 %19, %23
  %26 = urem i32 %25, 2
  %27 = icmp eq i32 %26, 0
  %28 = icmp slt i32 %20, 10
  %29 = and i1 %27, %28
  %30 = xor i1 %27, %28
  %31 = or i1 %29, %30
  %32 = or i1 %27, %28
  br i1 %31, label %33, label %85

; <label>:33:                                     ; preds = %18, %85
  %34 = landingpad { i8*, i32 }
          cleanup
  %35 = extractvalue { i8*, i32 } %34, 0
  store i8* %35, i8** %9, align 8
  %36 = extractvalue { i8*, i32 } %34, 1
  store i32 %36, i32* %10, align 4
  call void @_ZNSt7__cxx1112basic_stringIcSt11char_traitsIcESaIcEE12_Alloc_hiderD2Ev(%"struct.std::__cxx11::basic_string<char, std::char_traits<char>, std::allocator<char> >::_Alloc_hider"* %12) #3
  %37 = load i32, i32* @x.18
  %38 = load i32, i32* @y.19
  %39 = sub i32 0, 1
  %40 = add i32 %37, %39
  %41 = sub i32 %37, 1
  %42 = mul i32 %37, %40
  %43 = urem i32 %42, 2
  %44 = icmp eq i32 %43, 0
  %45 = icmp slt i32 %38, 10
  %46 = and i1 %44, %45
  %47 = xor i1 %44, %45
  %48 = or i1 %46, %47
  %49 = or i1 %44, %45
  br i1 %48, label %50, label %85

; <label>:50:                                     ; preds = %33
  br label %51

; <label>:51:                                     ; preds = %50
  %52 = load i32, i32* @x.18
  %53 = load i32, i32* @y.19
  %54 = sub i32 0, 1
  %55 = add i32 %52, %54
  %56 = sub i32 %52, 1
  %57 = mul i32 %52, %55
  %58 = urem i32 %57, 2
  %59 = icmp eq i32 %58, 0
  %60 = icmp slt i32 %53, 10
  %61 = and i1 %59, %60
  %62 = xor i1 %59, %60
  %63 = or i1 %61, %62
  %64 = or i1 %59, %60
  br i1 %63, label %65, label %89

; <label>:65:                                     ; preds = %51, %89
  %66 = load i8*, i8** %9, align 8
  %67 = load i32, i32* %10, align 4
  %68 = insertvalue { i8*, i32 } undef, i8* %66, 0
  %69 = insertvalue { i8*, i32 } %68, i32 %67, 1
  %70 = load i32, i32* @x.18
  %71 = load i32, i32* @y.19
  %72 = add i32 %70, 2052933590
  %73 = sub i32 %72, 1
  %74 = sub i32 %73, 2052933590
  %75 = sub i32 %70, 1
  %76 = mul i32 %70, %74
  %77 = urem i32 %76, 2
  %78 = icmp eq i32 %77, 0
  %79 = icmp slt i32 %71, 10
  %80 = and i1 %78, %79
  %81 = xor i1 %78, %79
  %82 = or i1 %80, %81
  %83 = or i1 %78, %79
  br i1 %82, label %84, label %89

; <label>:84:                                     ; preds = %65
  resume { i8*, i32 } %69

; <label>:85:                                     ; preds = %33, %18
  %86 = landingpad { i8*, i32 }
          cleanup
  %87 = extractvalue { i8*, i32 } %86, 0
  store i8* %87, i8** %9, align 8
  %88 = extractvalue { i8*, i32 } %86, 1
  store i32 %88, i32* %10, align 4
  call void @_ZNSt7__cxx1112basic_stringIcSt11char_traitsIcESaIcEE12_Alloc_hiderD2Ev(%"struct.std::__cxx11::basic_string<char, std::char_traits<char>, std::allocator<char> >::_Alloc_hider"* %12) #3
  br label %33

; <label>:89:                                     ; preds = %65, %51
  %90 = load i8*, i8** %9, align 8
  %91 = load i32, i32* %10, align 4
  %92 = insertvalue { i8*, i32 } undef, i8* %90, 0
  %93 = insertvalue { i8*, i32 } %92, i32 %91, 1
  br label %65
}

; Function Attrs: nounwind
declare void @_ZNSaIcED1Ev(%"class.std::allocator.0"*) unnamed_addr #2

declare i8* @_ZNSt7__cxx1112basic_stringIcSt11char_traitsIcESaIcEE13_M_local_dataEv(%"class.std::__cxx11::basic_string"*) #1

declare void @_ZNSt7__cxx1112basic_stringIcSt11char_traitsIcESaIcEE12_Alloc_hiderC1EPcRKS3_(%"struct.std::__cxx11::basic_string<char, std::char_traits<char>, std::allocator<char> >::_Alloc_hider"*, i8*, %"class.std::allocator.0"* dereferenceable(1)) unnamed_addr #1

; Function Attrs: noinline uwtable
define linkonce_odr void @_ZNSt7__cxx1112basic_stringIcSt11char_traitsIcESaIcEE12_M_constructIPcEEvT_S7_(%"class.std::__cxx11::basic_string"*, i8*, i8*) #0 comdat align 2 {
  %4 = alloca %"class.std::__cxx11::basic_string"*, align 8
  %5 = alloca i8*, align 8
  %6 = alloca i8*, align 8
  %7 = alloca %"struct.std::__false_type", align 1
  store %"class.std::__cxx11::basic_string"* %0, %"class.std::__cxx11::basic_string"** %4, align 8
  store i8* %1, i8** %5, align 8
  store i8* %2, i8** %6, align 8
  %8 = load %"class.std::__cxx11::basic_string"*, %"class.std::__cxx11::basic_string"** %4, align 8
  %9 = load i8*, i8** %5, align 8
  %10 = load i8*, i8** %6, align 8
  call void @_ZNSt7__cxx1112basic_stringIcSt11char_traitsIcESaIcEE16_M_construct_auxIPcEEvT_S7_St12__false_type(%"class.std::__cxx11::basic_string"* %8, i8* %9, i8* %10)
  ret void
}

; Function Attrs: noinline nounwind uwtable
define linkonce_odr void @_ZNSt7__cxx1112basic_stringIcSt11char_traitsIcESaIcEE12_Alloc_hiderD2Ev(%"struct.std::__cxx11::basic_string<char, std::char_traits<char>, std::allocator<char> >::_Alloc_hider"*) unnamed_addr #5 comdat align 2 {
  %2 = alloca %"struct.std::__cxx11::basic_string<char, std::char_traits<char>, std::allocator<char> >::_Alloc_hider"*, align 8
  store %"struct.std::__cxx11::basic_string<char, std::char_traits<char>, std::allocator<char> >::_Alloc_hider"* %0, %"struct.std::__cxx11::basic_string<char, std::char_traits<char>, std::allocator<char> >::_Alloc_hider"** %2, align 8
  %3 = load %"struct.std::__cxx11::basic_string<char, std::char_traits<char>, std::allocator<char> >::_Alloc_hider"*, %"struct.std::__cxx11::basic_string<char, std::char_traits<char>, std::allocator<char> >::_Alloc_hider"** %2, align 8
  %4 = bitcast %"struct.std::__cxx11::basic_string<char, std::char_traits<char>, std::allocator<char> >::_Alloc_hider"* %3 to %"class.std::allocator.0"*
  call void @_ZNSaIcED2Ev(%"class.std::allocator.0"* %4) #3
  ret void
}

; Function Attrs: noinline uwtable
define linkonce_odr void @_ZNSt7__cxx1112basic_stringIcSt11char_traitsIcESaIcEE16_M_construct_auxIPcEEvT_S7_St12__false_type(%"class.std::__cxx11::basic_string"*, i8*, i8*) #0 comdat align 2 {
  %4 = alloca %"struct.std::__false_type", align 1
  %5 = alloca %"class.std::__cxx11::basic_string"*, align 8
  %6 = alloca i8*, align 8
  %7 = alloca i8*, align 8
  %8 = alloca %"struct.std::forward_iterator_tag", align 1
  %9 = alloca %"struct.std::random_access_iterator_tag", align 1
  store %"class.std::__cxx11::basic_string"* %0, %"class.std::__cxx11::basic_string"** %5, align 8
  store i8* %1, i8** %6, align 8
  store i8* %2, i8** %7, align 8
  %10 = load %"class.std::__cxx11::basic_string"*, %"class.std::__cxx11::basic_string"** %5, align 8
  %11 = load i8*, i8** %6, align 8
  %12 = load i8*, i8** %7, align 8
  %13 = bitcast %"struct.std::random_access_iterator_tag"* %9 to %"struct.std::forward_iterator_tag"*
  call void @_ZNSt7__cxx1112basic_stringIcSt11char_traitsIcESaIcEE12_M_constructIPcEEvT_S7_St20forward_iterator_tag(%"class.std::__cxx11::basic_string"* %10, i8* %11, i8* %12)
  ret void
}

; Function Attrs: noinline uwtable
define linkonce_odr void @_ZNSt7__cxx1112basic_stringIcSt11char_traitsIcESaIcEE12_M_constructIPcEEvT_S7_St20forward_iterator_tag(%"class.std::__cxx11::basic_string"*, i8*, i8*) #0 comdat align 2 personality i8* bitcast (i32 (...)* @__gxx_personality_v0 to i8*) {
  %4 = alloca %"struct.std::forward_iterator_tag", align 1
  %5 = alloca %"class.std::__cxx11::basic_string"*, align 8
  %6 = alloca i8*, align 8
  %7 = alloca i8*, align 8
  %8 = alloca i64, align 8
  %9 = alloca i8*
  %10 = alloca i32
  store %"class.std::__cxx11::basic_string"* %0, %"class.std::__cxx11::basic_string"** %5, align 8
  store i8* %1, i8** %6, align 8
  store i8* %2, i8** %7, align 8
  %11 = load %"class.std::__cxx11::basic_string"*, %"class.std::__cxx11::basic_string"** %5, align 8
  %12 = load i8*, i8** %6, align 8
  %13 = call zeroext i1 @_ZN9__gnu_cxx17__is_null_pointerIcEEbPT_(i8* %12)
  br i1 %13, label %14, label %61

; <label>:14:                                     ; preds = %3
  %15 = load i8*, i8** %6, align 8
  %16 = load i8*, i8** %7, align 8
  %17 = icmp ne i8* %15, %16
  br i1 %17, label %18, label %61

; <label>:18:                                     ; preds = %14
  %19 = load i32, i32* @x.26
  %20 = load i32, i32* @y.27
  %21 = sub i32 %19, 1071969610
  %22 = sub i32 %21, 1
  %23 = add i32 %22, 1071969610
  %24 = sub i32 %19, 1
  %25 = mul i32 %19, %23
  %26 = urem i32 %25, 2
  %27 = icmp eq i32 %26, 0
  %28 = icmp slt i32 %20, 10
  %29 = and i1 %27, %28
  %30 = xor i1 %27, %28
  %31 = or i1 %29, %30
  %32 = or i1 %27, %28
  br i1 %31, label %33, label %291

; <label>:33:                                     ; preds = %18, %291
  call void @_ZSt19__throw_logic_errorPKc(i8* getelementptr inbounds ([42 x i8], [42 x i8]* @.str.1, i32 0, i32 0)) #11
  %34 = load i32, i32* @x.26
  %35 = load i32, i32* @y.27
  %36 = sub i32 %34, 925145697
  %37 = sub i32 %36, 1
  %38 = add i32 %37, 925145697
  %39 = sub i32 %34, 1
  %40 = mul i32 %34, %38
  %41 = urem i32 %40, 2
  %42 = icmp eq i32 %41, 0
  %43 = icmp slt i32 %35, 10
  %44 = xor i1 %42, true
  %45 = xor i1 %43, true
  %46 = xor i1 false, true
  %47 = and i1 %44, false
  %48 = and i1 %42, %46
  %49 = and i1 %45, false
  %50 = and i1 %43, %46
  %51 = or i1 %47, %48
  %52 = or i1 %49, %50
  %53 = xor i1 %51, %52
  %54 = or i1 %44, %45
  %55 = xor i1 %54, true
  %56 = or i1 false, %46
  %57 = and i1 %55, %56
  %58 = or i1 %53, %57
  %59 = or i1 %42, %43
  br i1 %58, label %60, label %291

; <label>:60:                                     ; preds = %33
  unreachable

; <label>:61:                                     ; preds = %14, %3
  %62 = load i8*, i8** %6, align 8
  %63 = load i8*, i8** %7, align 8
  %64 = call i64 @_ZSt8distanceIPcENSt15iterator_traitsIT_E15difference_typeES2_S2_(i8* %62, i8* %63)
  store i64 %64, i64* %8, align 8
  %65 = load i64, i64* %8, align 8
  %66 = icmp ugt i64 %65, 15
  br i1 %66, label %67, label %70

; <label>:67:                                     ; preds = %61
  %68 = call i8* @_ZNSt7__cxx1112basic_stringIcSt11char_traitsIcESaIcEE9_M_createERmm(%"class.std::__cxx11::basic_string"* %11, i64* dereferenceable(8) %8, i64 0)
  call void @_ZNSt7__cxx1112basic_stringIcSt11char_traitsIcESaIcEE7_M_dataEPc(%"class.std::__cxx11::basic_string"* %11, i8* %68)
  %69 = load i64, i64* %8, align 8
  call void @_ZNSt7__cxx1112basic_stringIcSt11char_traitsIcESaIcEE11_M_capacityEm(%"class.std::__cxx11::basic_string"* %11, i64 %69)
  br label %70

; <label>:70:                                     ; preds = %67, %61
  %71 = invoke i8* @_ZNKSt7__cxx1112basic_stringIcSt11char_traitsIcESaIcEE7_M_dataEv(%"class.std::__cxx11::basic_string"* %11)
          to label %72 unwind label %115

; <label>:72:                                     ; preds = %70
  %73 = load i32, i32* @x.26
  %74 = load i32, i32* @y.27
  %75 = sub i32 0, 1
  %76 = add i32 %73, %75
  %77 = sub i32 %73, 1
  %78 = mul i32 %73, %76
  %79 = urem i32 %78, 2
  %80 = icmp eq i32 %79, 0
  %81 = icmp slt i32 %74, 10
  %82 = xor i1 %80, true
  %83 = xor i1 %81, true
  %84 = xor i1 true, true
  %85 = and i1 %82, true
  %86 = and i1 %80, %84
  %87 = and i1 %83, true
  %88 = and i1 %81, %84
  %89 = or i1 %85, %86
  %90 = or i1 %87, %88
  %91 = xor i1 %89, %90
  %92 = or i1 %82, %83
  %93 = xor i1 %92, true
  %94 = or i1 true, %84
  %95 = and i1 %93, %94
  %96 = or i1 %91, %95
  %97 = or i1 %80, %81
  br i1 %96, label %98, label %292

; <label>:98:                                     ; preds = %72, %292
  %99 = load i8*, i8** %6, align 8
  %100 = load i8*, i8** %7, align 8
  call void @_ZNSt7__cxx1112basic_stringIcSt11char_traitsIcESaIcEE13_S_copy_charsEPcS5_S5_(i8* %71, i8* %99, i8* %100) #3
  %101 = load i32, i32* @x.26
  %102 = load i32, i32* @y.27
  %103 = sub i32 0, 1
  %104 = add i32 %101, %103
  %105 = sub i32 %101, 1
  %106 = mul i32 %101, %104
  %107 = urem i32 %106, 2
  %108 = icmp eq i32 %107, 0
  %109 = icmp slt i32 %102, 10
  %110 = and i1 %108, %109
  %111 = xor i1 %108, %109
  %112 = or i1 %110, %111
  %113 = or i1 %108, %109
  br i1 %112, label %114, label %292

; <label>:114:                                    ; preds = %98
  br label %210

; <label>:115:                                    ; preds = %70
  %116 = load i32, i32* @x.26
  %117 = load i32, i32* @y.27
  %118 = sub i32 0, 1
  %119 = add i32 %116, %118
  %120 = sub i32 %116, 1
  %121 = mul i32 %116, %119
  %122 = urem i32 %121, 2
  %123 = icmp eq i32 %122, 0
  %124 = icmp slt i32 %117, 10
  %125 = xor i1 %123, true
  %126 = xor i1 %124, true
  %127 = xor i1 true, true
  %128 = and i1 %125, true
  %129 = and i1 %123, %127
  %130 = and i1 %126, true
  %131 = and i1 %124, %127
  %132 = or i1 %128, %129
  %133 = or i1 %130, %131
  %134 = xor i1 %132, %133
  %135 = or i1 %125, %126
  %136 = xor i1 %135, true
  %137 = or i1 true, %127
  %138 = and i1 %136, %137
  %139 = or i1 %134, %138
  %140 = or i1 %123, %124
  br i1 %139, label %141, label %295

; <label>:141:                                    ; preds = %115, %295
  %142 = landingpad { i8*, i32 }
          catch i8* null
  %143 = extractvalue { i8*, i32 } %142, 0
  store i8* %143, i8** %9, align 8
  %144 = extractvalue { i8*, i32 } %142, 1
  store i32 %144, i32* %10, align 4
  %145 = load i32, i32* @x.26
  %146 = load i32, i32* @y.27
  %147 = add i32 %145, -814418726
  %148 = sub i32 %147, 1
  %149 = sub i32 %148, -814418726
  %150 = sub i32 %145, 1
  %151 = mul i32 %145, %149
  %152 = urem i32 %151, 2
  %153 = icmp eq i32 %152, 0
  %154 = icmp slt i32 %146, 10
  %155 = and i1 %153, %154
  %156 = xor i1 %153, %154
  %157 = or i1 %155, %156
  %158 = or i1 %153, %154
  br i1 %157, label %159, label %295

; <label>:159:                                    ; preds = %141
  br label %160

; <label>:160:                                    ; preds = %159
  %161 = load i32, i32* @x.26
  %162 = load i32, i32* @y.27
  %163 = sub i32 0, 1
  %164 = add i32 %161, %163
  %165 = sub i32 %161, 1
  %166 = mul i32 %161, %164
  %167 = urem i32 %166, 2
  %168 = icmp eq i32 %167, 0
  %169 = icmp slt i32 %162, 10
  %170 = and i1 %168, %169
  %171 = xor i1 %168, %169
  %172 = or i1 %170, %171
  %173 = or i1 %168, %169
  br i1 %172, label %174, label %299

; <label>:174:                                    ; preds = %160, %299
  %175 = load i8*, i8** %9, align 8
  %176 = call i8* @__cxa_begin_catch(i8* %175) #3
  %177 = load i32, i32* @x.26
  %178 = load i32, i32* @y.27
  %179 = add i32 %177, -36462141
  %180 = sub i32 %179, 1
  %181 = sub i32 %180, -36462141
  %182 = sub i32 %177, 1
  %183 = mul i32 %177, %181
  %184 = urem i32 %183, 2
  %185 = icmp eq i32 %184, 0
  %186 = icmp slt i32 %178, 10
  %187 = xor i1 %185, true
  %188 = xor i1 %186, true
  %189 = xor i1 true, true
  %190 = and i1 %187, true
  %191 = and i1 %185, %189
  %192 = and i1 %188, true
  %193 = and i1 %186, %189
  %194 = or i1 %190, %191
  %195 = or i1 %192, %193
  %196 = xor i1 %194, %195
  %197 = or i1 %187, %188
  %198 = xor i1 %197, true
  %199 = or i1 true, %189
  %200 = and i1 %198, %199
  %201 = or i1 %196, %200
  %202 = or i1 %185, %186
  br i1 %201, label %203, label %299

; <label>:203:                                    ; preds = %174
  invoke void @_ZNSt7__cxx1112basic_stringIcSt11char_traitsIcESaIcEE10_M_disposeEv(%"class.std::__cxx11::basic_string"* %11)
          to label %204 unwind label %205

; <label>:204:                                    ; preds = %203
  invoke void @__cxa_rethrow() #11
          to label %290 unwind label %205

; <label>:205:                                    ; preds = %204, %203
  %206 = landingpad { i8*, i32 }
          cleanup
  %207 = extractvalue { i8*, i32 } %206, 0
  store i8* %207, i8** %9, align 8
  %208 = extractvalue { i8*, i32 } %206, 1
  store i32 %208, i32* %10, align 4
  invoke void @__cxa_end_catch()
          to label %209 unwind label %258

; <label>:209:                                    ; preds = %205
  br label %212

; <label>:210:                                    ; preds = %114
  %211 = load i64, i64* %8, align 8
  call void @_ZNSt7__cxx1112basic_stringIcSt11char_traitsIcESaIcEE13_M_set_lengthEm(%"class.std::__cxx11::basic_string"* %11, i64 %211)
  ret void

; <label>:212:                                    ; preds = %209
  %213 = load i32, i32* @x.26
  %214 = load i32, i32* @y.27
  %215 = sub i32 0, 1
  %216 = add i32 %213, %215
  %217 = sub i32 %213, 1
  %218 = mul i32 %213, %216
  %219 = urem i32 %218, 2
  %220 = icmp eq i32 %219, 0
  %221 = icmp slt i32 %214, 10
  %222 = and i1 %220, %221
  %223 = xor i1 %220, %221
  %224 = or i1 %222, %223
  %225 = or i1 %220, %221
  br i1 %224, label %226, label %302

; <label>:226:                                    ; preds = %212, %302
  %227 = load i8*, i8** %9, align 8
  %228 = load i32, i32* %10, align 4
  %229 = insertvalue { i8*, i32 } undef, i8* %227, 0
  %230 = insertvalue { i8*, i32 } %229, i32 %228, 1
  %231 = load i32, i32* @x.26
  %232 = load i32, i32* @y.27
  %233 = add i32 %231, -2139998619
  %234 = sub i32 %233, 1
  %235 = sub i32 %234, -2139998619
  %236 = sub i32 %231, 1
  %237 = mul i32 %231, %235
  %238 = urem i32 %237, 2
  %239 = icmp eq i32 %238, 0
  %240 = icmp slt i32 %232, 10
  %241 = xor i1 %239, true
  %242 = xor i1 %240, true
  %243 = xor i1 false, true
  %244 = and i1 %241, false
  %245 = and i1 %239, %243
  %246 = and i1 %242, false
  %247 = and i1 %240, %243
  %248 = or i1 %244, %245
  %249 = or i1 %246, %247
  %250 = xor i1 %248, %249
  %251 = or i1 %241, %242
  %252 = xor i1 %251, true
  %253 = or i1 false, %243
  %254 = and i1 %252, %253
  %255 = or i1 %250, %254
  %256 = or i1 %239, %240
  br i1 %255, label %257, label %302

; <label>:257:                                    ; preds = %226
  resume { i8*, i32 } %230

; <label>:258:                                    ; preds = %205
  %259 = load i32, i32* @x.26
  %260 = load i32, i32* @y.27
  %261 = sub i32 0, 1
  %262 = add i32 %259, %261
  %263 = sub i32 %259, 1
  %264 = mul i32 %259, %262
  %265 = urem i32 %264, 2
  %266 = icmp eq i32 %265, 0
  %267 = icmp slt i32 %260, 10
  %268 = and i1 %266, %267
  %269 = xor i1 %266, %267
  %270 = or i1 %268, %269
  %271 = or i1 %266, %267
  br i1 %270, label %272, label %307

; <label>:272:                                    ; preds = %258, %307
  %273 = landingpad { i8*, i32 }
          catch i8* null
  %274 = extractvalue { i8*, i32 } %273, 0
  call void @__clang_call_terminate(i8* %274) #10
  %275 = load i32, i32* @x.26
  %276 = load i32, i32* @y.27
  %277 = sub i32 %275, -1913667187
  %278 = sub i32 %277, 1
  %279 = add i32 %278, -1913667187
  %280 = sub i32 %275, 1
  %281 = mul i32 %275, %279
  %282 = urem i32 %281, 2
  %283 = icmp eq i32 %282, 0
  %284 = icmp slt i32 %276, 10
  %285 = and i1 %283, %284
  %286 = xor i1 %283, %284
  %287 = or i1 %285, %286
  %288 = or i1 %283, %284
  br i1 %287, label %289, label %307

; <label>:289:                                    ; preds = %272
  unreachable

; <label>:290:                                    ; preds = %204
  unreachable

; <label>:291:                                    ; preds = %33, %18
  call void @_ZSt19__throw_logic_errorPKc(i8* getelementptr inbounds ([42 x i8], [42 x i8]* @.str.1, i32 0, i32 0)) #11
  br label %33

; <label>:292:                                    ; preds = %98, %72
  %293 = load i8*, i8** %6, align 8
  %294 = load i8*, i8** %7, align 8
  call void @_ZNSt7__cxx1112basic_stringIcSt11char_traitsIcESaIcEE13_S_copy_charsEPcS5_S5_(i8* %71, i8* %293, i8* %294) #3
  br label %98

; <label>:295:                                    ; preds = %141, %115
  %296 = landingpad { i8*, i32 }
          catch i8* null
  %297 = extractvalue { i8*, i32 } %296, 0
  store i8* %297, i8** %9, align 8
  %298 = extractvalue { i8*, i32 } %296, 1
  store i32 %298, i32* %10, align 4
  br label %141

; <label>:299:                                    ; preds = %174, %160
  %300 = load i8*, i8** %9, align 8
  %301 = call i8* @__cxa_begin_catch(i8* %300) #3
  br label %174

; <label>:302:                                    ; preds = %226, %212
  %303 = load i8*, i8** %9, align 8
  %304 = load i32, i32* %10, align 4
  %305 = insertvalue { i8*, i32 } undef, i8* %303, 0
  %306 = insertvalue { i8*, i32 } %305, i32 %304, 1
  br label %226

; <label>:307:                                    ; preds = %272, %258
  %308 = landingpad { i8*, i32 }
          catch i8* null
  %309 = extractvalue { i8*, i32 } %308, 0
  call void @__clang_call_terminate(i8* %309) #10
  br label %272
}

; Function Attrs: noinline nounwind uwtable
define linkonce_odr zeroext i1 @_ZN9__gnu_cxx17__is_null_pointerIcEEbPT_(i8*) #5 comdat {
  %2 = alloca i8*, align 8
  store i8* %0, i8** %2, align 8
  %3 = load i8*, i8** %2, align 8
  %4 = icmp eq i8* %3, null
  ret i1 %4
}

; Function Attrs: noreturn
declare void @_ZSt19__throw_logic_errorPKc(i8*) #6

; Function Attrs: noinline uwtable
define linkonce_odr i64 @_ZSt8distanceIPcENSt15iterator_traitsIT_E15difference_typeES2_S2_(i8*, i8*) #0 comdat {
  %3 = alloca i64
  %4 = alloca i1
  %5 = alloca i1
  %6 = load i32, i32* @x.30
  %7 = load i32, i32* @y.31
  %8 = sub i32 0, 1
  %9 = add i32 %6, %8
  %10 = sub i32 %6, 1
  %11 = mul i32 %6, %9
  %12 = urem i32 %11, 2
  %13 = icmp eq i32 %12, 0
  store i1 %13, i1* %5
  %14 = icmp slt i32 %7, 10
  store i1 %14, i1* %4
  %15 = alloca i32
  store i32 1186502515, i32* %15
  br label %16

; <label>:16:                                     ; preds = %2, %72
  %17 = load i32, i32* %15
  switch i32 %17, label %18 [
    i32 1186502515, label %19
    i32 2099063067, label %39
    i32 -1230948987, label %62
    i32 706154968, label %64
  ]

; <label>:18:                                     ; preds = %16
  br label %72

; <label>:19:                                     ; preds = %16
  %20 = load volatile i1, i1* %5
  %21 = load volatile i1, i1* %4
  %22 = xor i1 %20, true
  %23 = xor i1 %21, true
  %24 = xor i1 false, true
  %25 = and i1 %22, false
  %26 = and i1 %20, %24
  %27 = and i1 %23, false
  %28 = and i1 %21, %24
  %29 = or i1 %25, %26
  %30 = or i1 %27, %28
  %31 = xor i1 %29, %30
  %32 = or i1 %22, %23
  %33 = xor i1 %32, true
  %34 = or i1 false, %24
  %35 = and i1 %33, %34
  %36 = or i1 %31, %35
  %37 = or i1 %20, %21
  %38 = select i1 %36, i32 2099063067, i32 706154968
  store i32 %38, i32* %15
  br label %72

; <label>:39:                                     ; preds = %16
  %40 = alloca i8*, align 8
  %41 = alloca i8*, align 8
  %42 = alloca %"struct.std::random_access_iterator_tag", align 1
  %43 = alloca %"struct.std::random_access_iterator_tag", align 1
  store i8* %0, i8** %40, align 8
  store i8* %1, i8** %41, align 8
  %44 = load i8*, i8** %40, align 8
  %45 = load i8*, i8** %41, align 8
  call void @_ZSt19__iterator_categoryIPcENSt15iterator_traitsIT_E17iterator_categoryERKS2_(i8** dereferenceable(8) %40)
  %46 = call i64 @_ZSt10__distanceIPcENSt15iterator_traitsIT_E15difference_typeES2_S2_St26random_access_iterator_tag(i8* %44, i8* %45)
  store i64 %46, i64* %3
  %47 = load i32, i32* @x.30
  %48 = load i32, i32* @y.31
  %49 = add i32 %47, -1965624031
  %50 = sub i32 %49, 1
  %51 = sub i32 %50, -1965624031
  %52 = sub i32 %47, 1
  %53 = mul i32 %47, %51
  %54 = urem i32 %53, 2
  %55 = icmp eq i32 %54, 0
  %56 = icmp slt i32 %48, 10
  %57 = and i1 %55, %56
  %58 = xor i1 %55, %56
  %59 = or i1 %57, %58
  %60 = or i1 %55, %56
  %61 = select i1 %59, i32 -1230948987, i32 706154968
  store i32 %61, i32* %15
  br label %72

; <label>:62:                                     ; preds = %16
  %63 = load volatile i64, i64* %3
  ret i64 %63

; <label>:64:                                     ; preds = %16
  %65 = alloca i8*, align 8
  %66 = alloca i8*, align 8
  %67 = alloca %"struct.std::random_access_iterator_tag", align 1
  %68 = alloca %"struct.std::random_access_iterator_tag", align 1
  store i8* %0, i8** %65, align 8
  store i8* %1, i8** %66, align 8
  %69 = load i8*, i8** %65, align 8
  %70 = load i8*, i8** %66, align 8
  call void @_ZSt19__iterator_categoryIPcENSt15iterator_traitsIT_E17iterator_categoryERKS2_(i8** dereferenceable(8) %65)
  %71 = call i64 @_ZSt10__distanceIPcENSt15iterator_traitsIT_E15difference_typeES2_S2_St26random_access_iterator_tag(i8* %69, i8* %70)
  store i32 2099063067, i32* %15
  br label %72

; <label>:72:                                     ; preds = %64, %39, %19, %18
  br label %16
}

declare void @_ZNSt7__cxx1112basic_stringIcSt11char_traitsIcESaIcEE7_M_dataEPc(%"class.std::__cxx11::basic_string"*, i8*) #1

declare i8* @_ZNSt7__cxx1112basic_stringIcSt11char_traitsIcESaIcEE9_M_createERmm(%"class.std::__cxx11::basic_string"*, i64* dereferenceable(8), i64) #1

declare void @_ZNSt7__cxx1112basic_stringIcSt11char_traitsIcESaIcEE11_M_capacityEm(%"class.std::__cxx11::basic_string"*, i64) #1

; Function Attrs: nounwind
declare void @_ZNSt7__cxx1112basic_stringIcSt11char_traitsIcESaIcEE13_S_copy_charsEPcS5_S5_(i8*, i8*, i8*) #2

declare i8* @_ZNKSt7__cxx1112basic_stringIcSt11char_traitsIcESaIcEE7_M_dataEv(%"class.std::__cxx11::basic_string"*) #1

declare i8* @__cxa_begin_catch(i8*)

declare void @_ZNSt7__cxx1112basic_stringIcSt11char_traitsIcESaIcEE10_M_disposeEv(%"class.std::__cxx11::basic_string"*) #1

declare void @__cxa_rethrow()

declare void @__cxa_end_catch()

; Function Attrs: noinline noreturn nounwind
define linkonce_odr hidden void @__clang_call_terminate(i8*) #7 comdat {
  %2 = call i8* @__cxa_begin_catch(i8* %0) #3
  call void @_ZSt9terminatev() #10
  unreachable
}

declare void @_ZSt9terminatev()

declare void @_ZNSt7__cxx1112basic_stringIcSt11char_traitsIcESaIcEE13_M_set_lengthEm(%"class.std::__cxx11::basic_string"*, i64) #1

; Function Attrs: noinline nounwind uwtable
define linkonce_odr i64 @_ZSt10__distanceIPcENSt15iterator_traitsIT_E15difference_typeES2_S2_St26random_access_iterator_tag(i8*, i8*) #5 comdat {
  %3 = alloca %"struct.std::random_access_iterator_tag", align 1
  %4 = alloca i8*, align 8
  %5 = alloca i8*, align 8
  store i8* %0, i8** %4, align 8
  store i8* %1, i8** %5, align 8
  %6 = load i8*, i8** %5, align 8
  %7 = load i8*, i8** %4, align 8
  %8 = ptrtoint i8* %6 to i64
  %9 = ptrtoint i8* %7 to i64
  %10 = sub i64 0, %9
  %11 = add i64 %8, %10
  %12 = sub i64 %8, %9
  ret i64 %11
}

; Function Attrs: noinline nounwind uwtable
define linkonce_odr void @_ZSt19__iterator_categoryIPcENSt15iterator_traitsIT_E17iterator_categoryERKS2_(i8** dereferenceable(8)) #5 comdat {
  %2 = alloca i1
  %3 = alloca i1
  %4 = load i32, i32* @x.36
  %5 = load i32, i32* @y.37
  %6 = add i32 %4, 1574361611
  %7 = sub i32 %6, 1
  %8 = sub i32 %7, 1574361611
  %9 = sub i32 %4, 1
  %10 = mul i32 %4, %8
  %11 = urem i32 %10, 2
  %12 = icmp eq i32 %11, 0
  store i1 %12, i1* %3
  %13 = icmp slt i32 %5, 10
  store i1 %13, i1* %2
  %14 = alloca i32
  store i32 723142158, i32* %14
  br label %15

; <label>:15:                                     ; preds = %1, %60
  %16 = load i32, i32* %14
  switch i32 %16, label %17 [
    i32 723142158, label %18
    i32 -1912396861, label %26
    i32 1752381712, label %56
    i32 7645215, label %57
  ]

; <label>:17:                                     ; preds = %15
  br label %60

; <label>:18:                                     ; preds = %15
  %19 = load volatile i1, i1* %3
  %20 = load volatile i1, i1* %2
  %21 = and i1 %19, %20
  %22 = xor i1 %19, %20
  %23 = or i1 %21, %22
  %24 = or i1 %19, %20
  %25 = select i1 %23, i32 -1912396861, i32 7645215
  store i32 %25, i32* %14
  br label %60

; <label>:26:                                     ; preds = %15
  %27 = alloca %"struct.std::random_access_iterator_tag", align 1
  %28 = alloca i8**, align 8
  store i8** %0, i8*** %28, align 8
  %29 = load i32, i32* @x.36
  %30 = load i32, i32* @y.37
  %31 = sub i32 %29, -175631459
  %32 = sub i32 %31, 1
  %33 = add i32 %32, -175631459
  %34 = sub i32 %29, 1
  %35 = mul i32 %29, %33
  %36 = urem i32 %35, 2
  %37 = icmp eq i32 %36, 0
  %38 = icmp slt i32 %30, 10
  %39 = xor i1 %37, true
  %40 = xor i1 %38, true
  %41 = xor i1 false, true
  %42 = and i1 %39, false
  %43 = and i1 %37, %41
  %44 = and i1 %40, false
  %45 = and i1 %38, %41
  %46 = or i1 %42, %43
  %47 = or i1 %44, %45
  %48 = xor i1 %46, %47
  %49 = or i1 %39, %40
  %50 = xor i1 %49, true
  %51 = or i1 false, %41
  %52 = and i1 %50, %51
  %53 = or i1 %48, %52
  %54 = or i1 %37, %38
  %55 = select i1 %53, i32 1752381712, i32 7645215
  store i32 %55, i32* %14
  br label %60

; <label>:56:                                     ; preds = %15
  ret void

; <label>:57:                                     ; preds = %15
  %58 = alloca %"struct.std::random_access_iterator_tag", align 1
  %59 = alloca i8**, align 8
  store i8** %0, i8*** %59, align 8
  store i32 -1912396861, i32* %14
  br label %60

; <label>:60:                                     ; preds = %57, %26, %18, %17
  br label %15
}

; Function Attrs: nounwind
declare void @_ZNSaIcED2Ev(%"class.std::allocator.0"*) unnamed_addr #2

; Function Attrs: noinline nounwind uwtable
define linkonce_odr void @_ZN9__gnu_cxx13new_allocatorIiEC2Ev(%"class.__gnu_cxx::new_allocator"*) unnamed_addr #5 comdat align 2 {
  %2 = alloca %"class.__gnu_cxx::new_allocator"*, align 8
  store %"class.__gnu_cxx::new_allocator"* %0, %"class.__gnu_cxx::new_allocator"** %2, align 8
  %3 = load %"class.__gnu_cxx::new_allocator"*, %"class.__gnu_cxx::new_allocator"** %2, align 8
  ret void
}

; Function Attrs: noinline nounwind uwtable
define linkonce_odr void @_ZN9__gnu_cxx13new_allocatorIiED2Ev(%"class.__gnu_cxx::new_allocator"*) unnamed_addr #5 comdat align 2 {
  %2 = alloca %"class.__gnu_cxx::new_allocator"*, align 8
  store %"class.__gnu_cxx::new_allocator"* %0, %"class.__gnu_cxx::new_allocator"** %2, align 8
  %3 = load %"class.__gnu_cxx::new_allocator"*, %"class.__gnu_cxx::new_allocator"** %2, align 8
  ret void
}

; Function Attrs: noinline uwtable
define linkonce_odr void @_ZNSt12_Vector_baseIiSaIiEEC2EmRKS0_(%"struct.std::_Vector_base"*, i64, %"class.std::allocator"* dereferenceable(1)) unnamed_addr #0 comdat align 2 personality i8* bitcast (i32 (...)* @__gxx_personality_v0 to i8*) {
  %4 = alloca %"struct.std::_Vector_base"*, align 8
  %5 = alloca i64, align 8
  %6 = alloca %"class.std::allocator"*, align 8
  %7 = alloca i8*
  %8 = alloca i32
  store %"struct.std::_Vector_base"* %0, %"struct.std::_Vector_base"** %4, align 8
  store i64 %1, i64* %5, align 8
  store %"class.std::allocator"* %2, %"class.std::allocator"** %6, align 8
  %9 = load %"struct.std::_Vector_base"*, %"struct.std::_Vector_base"** %4, align 8
  %10 = getelementptr inbounds %"struct.std::_Vector_base", %"struct.std::_Vector_base"* %9, i32 0, i32 0
  %11 = load %"class.std::allocator"*, %"class.std::allocator"** %6, align 8
  call void @_ZNSt12_Vector_baseIiSaIiEE12_Vector_implC2ERKS0_(%"struct.std::_Vector_base<int, std::allocator<int> >::_Vector_impl"* %10, %"class.std::allocator"* dereferenceable(1) %11) #3
  %12 = load i64, i64* %5, align 8
  invoke void @_ZNSt12_Vector_baseIiSaIiEE17_M_create_storageEm(%"struct.std::_Vector_base"* %9, i64 %12)
          to label %13 unwind label %67

; <label>:13:                                     ; preds = %3
  %14 = load i32, i32* @x.42
  %15 = load i32, i32* @y.43
  %16 = sub i32 %14, -779150764
  %17 = sub i32 %16, 1
  %18 = add i32 %17, -779150764
  %19 = sub i32 %14, 1
  %20 = mul i32 %14, %18
  %21 = urem i32 %20, 2
  %22 = icmp eq i32 %21, 0
  %23 = icmp slt i32 %15, 10
  %24 = xor i1 %22, true
  %25 = xor i1 %23, true
  %26 = xor i1 false, true
  %27 = and i1 %24, false
  %28 = and i1 %22, %26
  %29 = and i1 %25, false
  %30 = and i1 %23, %26
  %31 = or i1 %27, %28
  %32 = or i1 %29, %30
  %33 = xor i1 %31, %32
  %34 = or i1 %24, %25
  %35 = xor i1 %34, true
  %36 = or i1 false, %26
  %37 = and i1 %35, %36
  %38 = or i1 %33, %37
  %39 = or i1 %22, %23
  br i1 %38, label %40, label %76

; <label>:40:                                     ; preds = %13, %76
  %41 = load i32, i32* @x.42
  %42 = load i32, i32* @y.43
  %43 = sub i32 0, 1
  %44 = add i32 %41, %43
  %45 = sub i32 %41, 1
  %46 = mul i32 %41, %44
  %47 = urem i32 %46, 2
  %48 = icmp eq i32 %47, 0
  %49 = icmp slt i32 %42, 10
  %50 = xor i1 %48, true
  %51 = xor i1 %49, true
  %52 = xor i1 true, true
  %53 = and i1 %50, true
  %54 = and i1 %48, %52
  %55 = and i1 %51, true
  %56 = and i1 %49, %52
  %57 = or i1 %53, %54
  %58 = or i1 %55, %56
  %59 = xor i1 %57, %58
  %60 = or i1 %50, %51
  %61 = xor i1 %60, true
  %62 = or i1 true, %52
  %63 = and i1 %61, %62
  %64 = or i1 %59, %63
  %65 = or i1 %48, %49
  br i1 %64, label %66, label %76

; <label>:66:                                     ; preds = %40
  ret void

; <label>:67:                                     ; preds = %3
  %68 = landingpad { i8*, i32 }
          cleanup
  %69 = extractvalue { i8*, i32 } %68, 0
  store i8* %69, i8** %7, align 8
  %70 = extractvalue { i8*, i32 } %68, 1
  store i32 %70, i32* %8, align 4
  call void @_ZNSt12_Vector_baseIiSaIiEE12_Vector_implD2Ev(%"struct.std::_Vector_base<int, std::allocator<int> >::_Vector_impl"* %10) #3
  br label %71

; <label>:71:                                     ; preds = %67
  %72 = load i8*, i8** %7, align 8
  %73 = load i32, i32* %8, align 4
  %74 = insertvalue { i8*, i32 } undef, i8* %72, 0
  %75 = insertvalue { i8*, i32 } %74, i32 %73, 1
  resume { i8*, i32 } %75

; <label>:76:                                     ; preds = %40, %13
  br label %40
}

; Function Attrs: noinline uwtable
define linkonce_odr void @_ZNSt6vectorIiSaIiEE18_M_fill_initializeEmRKi(%"class.std::vector"*, i64, i32* dereferenceable(4)) #0 comdat align 2 {
  %4 = alloca %"class.std::vector"*, align 8
  %5 = alloca i64, align 8
  %6 = alloca i32*, align 8
  store %"class.std::vector"* %0, %"class.std::vector"** %4, align 8
  store i64 %1, i64* %5, align 8
  store i32* %2, i32** %6, align 8
  %7 = load %"class.std::vector"*, %"class.std::vector"** %4, align 8
  %8 = bitcast %"class.std::vector"* %7 to %"struct.std::_Vector_base"*
  %9 = getelementptr inbounds %"struct.std::_Vector_base", %"struct.std::_Vector_base"* %8, i32 0, i32 0
  %10 = getelementptr inbounds %"struct.std::_Vector_base<int, std::allocator<int> >::_Vector_impl", %"struct.std::_Vector_base<int, std::allocator<int> >::_Vector_impl"* %9, i32 0, i32 0
  %11 = load i32*, i32** %10, align 8
  %12 = load i64, i64* %5, align 8
  %13 = load i32*, i32** %6, align 8
  %14 = bitcast %"class.std::vector"* %7 to %"struct.std::_Vector_base"*
  %15 = call dereferenceable(1) %"class.std::allocator"* @_ZNSt12_Vector_baseIiSaIiEE19_M_get_Tp_allocatorEv(%"struct.std::_Vector_base"* %14) #3
  %16 = call i32* @_ZSt24__uninitialized_fill_n_aIPimiiET_S1_T0_RKT1_RSaIT2_E(i32* %11, i64 %12, i32* dereferenceable(4) %13, %"class.std::allocator"* dereferenceable(1) %15)
  %17 = bitcast %"class.std::vector"* %7 to %"struct.std::_Vector_base"*
  %18 = getelementptr inbounds %"struct.std::_Vector_base", %"struct.std::_Vector_base"* %17, i32 0, i32 0
  %19 = getelementptr inbounds %"struct.std::_Vector_base<int, std::allocator<int> >::_Vector_impl", %"struct.std::_Vector_base<int, std::allocator<int> >::_Vector_impl"* %18, i32 0, i32 1
  store i32* %16, i32** %19, align 8
  ret void
}

; Function Attrs: noinline nounwind uwtable
define linkonce_odr void @_ZNSt12_Vector_baseIiSaIiEED2Ev(%"struct.std::_Vector_base"*) unnamed_addr #5 comdat align 2 personality i8* bitcast (i32 (...)* @__gxx_personality_v0 to i8*) {
  %2 = alloca %"struct.std::_Vector_base"*, align 8
  %3 = alloca i8*
  %4 = alloca i32
  store %"struct.std::_Vector_base"* %0, %"struct.std::_Vector_base"** %2, align 8
  %5 = load %"struct.std::_Vector_base"*, %"struct.std::_Vector_base"** %2, align 8
  %6 = getelementptr inbounds %"struct.std::_Vector_base", %"struct.std::_Vector_base"* %5, i32 0, i32 0
  %7 = getelementptr inbounds %"struct.std::_Vector_base<int, std::allocator<int> >::_Vector_impl", %"struct.std::_Vector_base<int, std::allocator<int> >::_Vector_impl"* %6, i32 0, i32 0
  %8 = load i32*, i32** %7, align 8
  %9 = getelementptr inbounds %"struct.std::_Vector_base", %"struct.std::_Vector_base"* %5, i32 0, i32 0
  %10 = getelementptr inbounds %"struct.std::_Vector_base<int, std::allocator<int> >::_Vector_impl", %"struct.std::_Vector_base<int, std::allocator<int> >::_Vector_impl"* %9, i32 0, i32 2
  %11 = load i32*, i32** %10, align 8
  %12 = getelementptr inbounds %"struct.std::_Vector_base", %"struct.std::_Vector_base"* %5, i32 0, i32 0
  %13 = getelementptr inbounds %"struct.std::_Vector_base<int, std::allocator<int> >::_Vector_impl", %"struct.std::_Vector_base<int, std::allocator<int> >::_Vector_impl"* %12, i32 0, i32 0
  %14 = load i32*, i32** %13, align 8
  %15 = ptrtoint i32* %11 to i64
  %16 = ptrtoint i32* %14 to i64
  %17 = sub i64 0, %16
  %18 = add i64 %15, %17
  %19 = sub i64 %15, %16
  %20 = sdiv exact i64 %18, 4
  invoke void @_ZNSt12_Vector_baseIiSaIiEE13_M_deallocateEPim(%"struct.std::_Vector_base"* %5, i32* %8, i64 %20)
          to label %21 unwind label %76

; <label>:21:                                     ; preds = %1
  %22 = load i32, i32* @x.46
  %23 = load i32, i32* @y.47
  %24 = add i32 %22, -1401440185
  %25 = sub i32 %24, 1
  %26 = sub i32 %25, -1401440185
  %27 = sub i32 %22, 1
  %28 = mul i32 %22, %26
  %29 = urem i32 %28, 2
  %30 = icmp eq i32 %29, 0
  %31 = icmp slt i32 %23, 10
  %32 = xor i1 %30, true
  %33 = xor i1 %31, true
  %34 = xor i1 true, true
  %35 = and i1 %32, true
  %36 = and i1 %30, %34
  %37 = and i1 %33, true
  %38 = and i1 %31, %34
  %39 = or i1 %35, %36
  %40 = or i1 %37, %38
  %41 = xor i1 %39, %40
  %42 = or i1 %32, %33
  %43 = xor i1 %42, true
  %44 = or i1 true, %34
  %45 = and i1 %43, %44
  %46 = or i1 %41, %45
  %47 = or i1 %30, %31
  br i1 %46, label %48, label %125

; <label>:48:                                     ; preds = %21, %125
  %49 = getelementptr inbounds %"struct.std::_Vector_base", %"struct.std::_Vector_base"* %5, i32 0, i32 0
  call void @_ZNSt12_Vector_baseIiSaIiEE12_Vector_implD2Ev(%"struct.std::_Vector_base<int, std::allocator<int> >::_Vector_impl"* %49) #3
  %50 = load i32, i32* @x.46
  %51 = load i32, i32* @y.47
  %52 = sub i32 0, 1
  %53 = add i32 %50, %52
  %54 = sub i32 %50, 1
  %55 = mul i32 %50, %53
  %56 = urem i32 %55, 2
  %57 = icmp eq i32 %56, 0
  %58 = icmp slt i32 %51, 10
  %59 = xor i1 %57, true
  %60 = xor i1 %58, true
  %61 = xor i1 true, true
  %62 = and i1 %59, true
  %63 = and i1 %57, %61
  %64 = and i1 %60, true
  %65 = and i1 %58, %61
  %66 = or i1 %62, %63
  %67 = or i1 %64, %65
  %68 = xor i1 %66, %67
  %69 = or i1 %59, %60
  %70 = xor i1 %69, true
  %71 = or i1 true, %61
  %72 = and i1 %70, %71
  %73 = or i1 %68, %72
  %74 = or i1 %57, %58
  br i1 %73, label %75, label %125

; <label>:75:                                     ; preds = %48
  ret void

; <label>:76:                                     ; preds = %1
  %77 = load i32, i32* @x.46
  %78 = load i32, i32* @y.47
  %79 = sub i32 %77, 1296037474
  %80 = sub i32 %79, 1
  %81 = add i32 %80, 1296037474
  %82 = sub i32 %77, 1
  %83 = mul i32 %77, %81
  %84 = urem i32 %83, 2
  %85 = icmp eq i32 %84, 0
  %86 = icmp slt i32 %78, 10
  %87 = xor i1 %85, true
  %88 = xor i1 %86, true
  %89 = xor i1 false, true
  %90 = and i1 %87, false
  %91 = and i1 %85, %89
  %92 = and i1 %88, false
  %93 = and i1 %86, %89
  %94 = or i1 %90, %91
  %95 = or i1 %92, %93
  %96 = xor i1 %94, %95
  %97 = or i1 %87, %88
  %98 = xor i1 %97, true
  %99 = or i1 false, %89
  %100 = and i1 %98, %99
  %101 = or i1 %96, %100
  %102 = or i1 %85, %86
  br i1 %101, label %103, label %127

; <label>:103:                                    ; preds = %76, %127
  %104 = landingpad { i8*, i32 }
          catch i8* null
  %105 = extractvalue { i8*, i32 } %104, 0
  store i8* %105, i8** %3, align 8
  %106 = extractvalue { i8*, i32 } %104, 1
  store i32 %106, i32* %4, align 4
  %107 = getelementptr inbounds %"struct.std::_Vector_base", %"struct.std::_Vector_base"* %5, i32 0, i32 0
  call void @_ZNSt12_Vector_baseIiSaIiEE12_Vector_implD2Ev(%"struct.std::_Vector_base<int, std::allocator<int> >::_Vector_impl"* %107) #3
  %108 = load i32, i32* @x.46
  %109 = load i32, i32* @y.47
  %110 = sub i32 %108, -308814580
  %111 = sub i32 %110, 1
  %112 = add i32 %111, -308814580
  %113 = sub i32 %108, 1
  %114 = mul i32 %108, %112
  %115 = urem i32 %114, 2
  %116 = icmp eq i32 %115, 0
  %117 = icmp slt i32 %109, 10
  %118 = and i1 %116, %117
  %119 = xor i1 %116, %117
  %120 = or i1 %118, %119
  %121 = or i1 %116, %117
  br i1 %120, label %122, label %127

; <label>:122:                                    ; preds = %103
  br label %123

; <label>:123:                                    ; preds = %122
  %124 = load i8*, i8** %3, align 8
  call void @__clang_call_terminate(i8* %124) #10
  unreachable

; <label>:125:                                    ; preds = %48, %21
  %126 = getelementptr inbounds %"struct.std::_Vector_base", %"struct.std::_Vector_base"* %5, i32 0, i32 0
  call void @_ZNSt12_Vector_baseIiSaIiEE12_Vector_implD2Ev(%"struct.std::_Vector_base<int, std::allocator<int> >::_Vector_impl"* %126) #3
  br label %48

; <label>:127:                                    ; preds = %103, %76
  %128 = landingpad { i8*, i32 }
          catch i8* null
  %129 = extractvalue { i8*, i32 } %128, 0
  store i8* %129, i8** %3, align 8
  %130 = extractvalue { i8*, i32 } %128, 1
  store i32 %130, i32* %4, align 4
  %131 = getelementptr inbounds %"struct.std::_Vector_base", %"struct.std::_Vector_base"* %5, i32 0, i32 0
  call void @_ZNSt12_Vector_baseIiSaIiEE12_Vector_implD2Ev(%"struct.std::_Vector_base<int, std::allocator<int> >::_Vector_impl"* %131) #3
  br label %103
}

; Function Attrs: noinline nounwind uwtable
define linkonce_odr void @_ZNSt12_Vector_baseIiSaIiEE12_Vector_implC2ERKS0_(%"struct.std::_Vector_base<int, std::allocator<int> >::_Vector_impl"*, %"class.std::allocator"* dereferenceable(1)) unnamed_addr #5 comdat align 2 {
  %3 = alloca %"struct.std::_Vector_base<int, std::allocator<int> >::_Vector_impl"*, align 8
  %4 = alloca %"class.std::allocator"*, align 8
  store %"struct.std::_Vector_base<int, std::allocator<int> >::_Vector_impl"* %0, %"struct.std::_Vector_base<int, std::allocator<int> >::_Vector_impl"** %3, align 8
  store %"class.std::allocator"* %1, %"class.std::allocator"** %4, align 8
  %5 = load %"struct.std::_Vector_base<int, std::allocator<int> >::_Vector_impl"*, %"struct.std::_Vector_base<int, std::allocator<int> >::_Vector_impl"** %3, align 8
  %6 = bitcast %"struct.std::_Vector_base<int, std::allocator<int> >::_Vector_impl"* %5 to %"class.std::allocator"*
  %7 = load %"class.std::allocator"*, %"class.std::allocator"** %4, align 8
  call void @_ZNSaIiEC2ERKS_(%"class.std::allocator"* %6, %"class.std::allocator"* dereferenceable(1) %7) #3
  %8 = getelementptr inbounds %"struct.std::_Vector_base<int, std::allocator<int> >::_Vector_impl", %"struct.std::_Vector_base<int, std::allocator<int> >::_Vector_impl"* %5, i32 0, i32 0
  store i32* null, i32** %8, align 8
  %9 = getelementptr inbounds %"struct.std::_Vector_base<int, std::allocator<int> >::_Vector_impl", %"struct.std::_Vector_base<int, std::allocator<int> >::_Vector_impl"* %5, i32 0, i32 1
  store i32* null, i32** %9, align 8
  %10 = getelementptr inbounds %"struct.std::_Vector_base<int, std::allocator<int> >::_Vector_impl", %"struct.std::_Vector_base<int, std::allocator<int> >::_Vector_impl"* %5, i32 0, i32 2
  store i32* null, i32** %10, align 8
  ret void
}

; Function Attrs: noinline uwtable
define linkonce_odr void @_ZNSt12_Vector_baseIiSaIiEE17_M_create_storageEm(%"struct.std::_Vector_base"*, i64) #0 comdat align 2 {
  %3 = alloca %"struct.std::_Vector_base"*, align 8
  %4 = alloca i64, align 8
  store %"struct.std::_Vector_base"* %0, %"struct.std::_Vector_base"** %3, align 8
  store i64 %1, i64* %4, align 8
  %5 = load %"struct.std::_Vector_base"*, %"struct.std::_Vector_base"** %3, align 8
  %6 = load i64, i64* %4, align 8
  %7 = call i32* @_ZNSt12_Vector_baseIiSaIiEE11_M_allocateEm(%"struct.std::_Vector_base"* %5, i64 %6)
  %8 = getelementptr inbounds %"struct.std::_Vector_base", %"struct.std::_Vector_base"* %5, i32 0, i32 0
  %9 = getelementptr inbounds %"struct.std::_Vector_base<int, std::allocator<int> >::_Vector_impl", %"struct.std::_Vector_base<int, std::allocator<int> >::_Vector_impl"* %8, i32 0, i32 0
  store i32* %7, i32** %9, align 8
  %10 = getelementptr inbounds %"struct.std::_Vector_base", %"struct.std::_Vector_base"* %5, i32 0, i32 0
  %11 = getelementptr inbounds %"struct.std::_Vector_base<int, std::allocator<int> >::_Vector_impl", %"struct.std::_Vector_base<int, std::allocator<int> >::_Vector_impl"* %10, i32 0, i32 0
  %12 = load i32*, i32** %11, align 8
  %13 = getelementptr inbounds %"struct.std::_Vector_base", %"struct.std::_Vector_base"* %5, i32 0, i32 0
  %14 = getelementptr inbounds %"struct.std::_Vector_base<int, std::allocator<int> >::_Vector_impl", %"struct.std::_Vector_base<int, std::allocator<int> >::_Vector_impl"* %13, i32 0, i32 1
  store i32* %12, i32** %14, align 8
  %15 = getelementptr inbounds %"struct.std::_Vector_base", %"struct.std::_Vector_base"* %5, i32 0, i32 0
  %16 = getelementptr inbounds %"struct.std::_Vector_base<int, std::allocator<int> >::_Vector_impl", %"struct.std::_Vector_base<int, std::allocator<int> >::_Vector_impl"* %15, i32 0, i32 0
  %17 = load i32*, i32** %16, align 8
  %18 = load i64, i64* %4, align 8
  %19 = getelementptr inbounds i32, i32* %17, i64 %18
  %20 = getelementptr inbounds %"struct.std::_Vector_base", %"struct.std::_Vector_base"* %5, i32 0, i32 0
  %21 = getelementptr inbounds %"struct.std::_Vector_base<int, std::allocator<int> >::_Vector_impl", %"struct.std::_Vector_base<int, std::allocator<int> >::_Vector_impl"* %20, i32 0, i32 2
  store i32* %19, i32** %21, align 8
  ret void
}

; Function Attrs: noinline nounwind uwtable
define linkonce_odr void @_ZNSt12_Vector_baseIiSaIiEE12_Vector_implD2Ev(%"struct.std::_Vector_base<int, std::allocator<int> >::_Vector_impl"*) unnamed_addr #5 comdat align 2 {
  %2 = alloca %"struct.std::_Vector_base<int, std::allocator<int> >::_Vector_impl"*, align 8
  store %"struct.std::_Vector_base<int, std::allocator<int> >::_Vector_impl"* %0, %"struct.std::_Vector_base<int, std::allocator<int> >::_Vector_impl"** %2, align 8
  %3 = load %"struct.std::_Vector_base<int, std::allocator<int> >::_Vector_impl"*, %"struct.std::_Vector_base<int, std::allocator<int> >::_Vector_impl"** %2, align 8
  %4 = bitcast %"struct.std::_Vector_base<int, std::allocator<int> >::_Vector_impl"* %3 to %"class.std::allocator"*
  call void @_ZNSaIiED2Ev(%"class.std::allocator"* %4) #3
  ret void
}

; Function Attrs: noinline nounwind uwtable
define linkonce_odr void @_ZNSaIiEC2ERKS_(%"class.std::allocator"*, %"class.std::allocator"* dereferenceable(1)) unnamed_addr #5 comdat align 2 {
  %3 = alloca %"class.std::allocator"*, align 8
  %4 = alloca %"class.std::allocator"*, align 8
  store %"class.std::allocator"* %0, %"class.std::allocator"** %3, align 8
  store %"class.std::allocator"* %1, %"class.std::allocator"** %4, align 8
  %5 = load %"class.std::allocator"*, %"class.std::allocator"** %3, align 8
  %6 = bitcast %"class.std::allocator"* %5 to %"class.__gnu_cxx::new_allocator"*
  %7 = load %"class.std::allocator"*, %"class.std::allocator"** %4, align 8
  %8 = bitcast %"class.std::allocator"* %7 to %"class.__gnu_cxx::new_allocator"*
  call void @_ZN9__gnu_cxx13new_allocatorIiEC2ERKS1_(%"class.__gnu_cxx::new_allocator"* %6, %"class.__gnu_cxx::new_allocator"* dereferenceable(1) %8) #3
  ret void
}

; Function Attrs: noinline nounwind uwtable
define linkonce_odr void @_ZN9__gnu_cxx13new_allocatorIiEC2ERKS1_(%"class.__gnu_cxx::new_allocator"*, %"class.__gnu_cxx::new_allocator"* dereferenceable(1)) unnamed_addr #5 comdat align 2 {
  %3 = alloca %"class.__gnu_cxx::new_allocator"*, align 8
  %4 = alloca %"class.__gnu_cxx::new_allocator"*, align 8
  store %"class.__gnu_cxx::new_allocator"* %0, %"class.__gnu_cxx::new_allocator"** %3, align 8
  store %"class.__gnu_cxx::new_allocator"* %1, %"class.__gnu_cxx::new_allocator"** %4, align 8
  %5 = load %"class.__gnu_cxx::new_allocator"*, %"class.__gnu_cxx::new_allocator"** %3, align 8
  ret void
}

; Function Attrs: noinline uwtable
define linkonce_odr i32* @_ZNSt12_Vector_baseIiSaIiEE11_M_allocateEm(%"struct.std::_Vector_base"*, i64) #0 comdat align 2 {
  %3 = alloca i32*
  %4 = alloca i64
  %5 = alloca %"struct.std::_Vector_base"*
  %6 = alloca %"struct.std::_Vector_base"*, align 8
  %7 = alloca i64, align 8
  store %"struct.std::_Vector_base"* %0, %"struct.std::_Vector_base"** %6, align 8
  store i64 %1, i64* %7, align 8
  %8 = load %"struct.std::_Vector_base"*, %"struct.std::_Vector_base"** %6, align 8
  store %"struct.std::_Vector_base"* %8, %"struct.std::_Vector_base"** %5
  %9 = load i64, i64* %7, align 8
  store i64 %9, i64* %4
  %10 = alloca i32
  store i32 1552661518, i32* %10
  %11 = alloca i32*
  br label %12

; <label>:12:                                     ; preds = %2, %117
  %13 = load i32, i32* %10
  switch i32 %13, label %14 [
    i32 1552661518, label %15
    i32 -378851296, label %19
    i32 656598923, label %25
    i32 114640811, label %53
    i32 1426472372, label %81
    i32 1342349643, label %82
    i32 1216888098, label %98
    i32 -1907725338, label %113
    i32 1642238463, label %115
    i32 885600977, label %116
  ]

; <label>:14:                                     ; preds = %12
  br label %117

; <label>:15:                                     ; preds = %12
  %16 = load volatile i64, i64* %4
  %17 = icmp ne i64 %16, 0
  %18 = select i1 %17, i32 -378851296, i32 656598923
  store i32 %18, i32* %10
  br label %117

; <label>:19:                                     ; preds = %12
  %20 = load volatile %"struct.std::_Vector_base"*, %"struct.std::_Vector_base"** %5
  %21 = getelementptr inbounds %"struct.std::_Vector_base", %"struct.std::_Vector_base"* %20, i32 0, i32 0
  %22 = bitcast %"struct.std::_Vector_base<int, std::allocator<int> >::_Vector_impl"* %21 to %"class.std::allocator"*
  %23 = load i64, i64* %7, align 8
  %24 = call i32* @_ZNSt16allocator_traitsISaIiEE8allocateERS0_m(%"class.std::allocator"* dereferenceable(1) %22, i64 %23)
  store i32 1342349643, i32* %10
  store i32* %24, i32** %11
  br label %117

; <label>:25:                                     ; preds = %12
  %26 = load i32, i32* @x.58
  %27 = load i32, i32* @y.59
  %28 = add i32 %26, 585520461
  %29 = sub i32 %28, 1
  %30 = sub i32 %29, 585520461
  %31 = sub i32 %26, 1
  %32 = mul i32 %26, %30
  %33 = urem i32 %32, 2
  %34 = icmp eq i32 %33, 0
  %35 = icmp slt i32 %27, 10
  %36 = xor i1 %34, true
  %37 = xor i1 %35, true
  %38 = xor i1 false, true
  %39 = and i1 %36, false
  %40 = and i1 %34, %38
  %41 = and i1 %37, false
  %42 = and i1 %35, %38
  %43 = or i1 %39, %40
  %44 = or i1 %41, %42
  %45 = xor i1 %43, %44
  %46 = or i1 %36, %37
  %47 = xor i1 %46, true
  %48 = or i1 false, %38
  %49 = and i1 %47, %48
  %50 = or i1 %45, %49
  %51 = or i1 %34, %35
  %52 = select i1 %50, i32 114640811, i32 1642238463
  store i32 %52, i32* %10
  br label %117

; <label>:53:                                     ; preds = %12
  %54 = load i32, i32* @x.58
  %55 = load i32, i32* @y.59
  %56 = add i32 %54, 1330120887
  %57 = sub i32 %56, 1
  %58 = sub i32 %57, 1330120887
  %59 = sub i32 %54, 1
  %60 = mul i32 %54, %58
  %61 = urem i32 %60, 2
  %62 = icmp eq i32 %61, 0
  %63 = icmp slt i32 %55, 10
  %64 = xor i1 %62, true
  %65 = xor i1 %63, true
  %66 = xor i1 true, true
  %67 = and i1 %64, true
  %68 = and i1 %62, %66
  %69 = and i1 %65, true
  %70 = and i1 %63, %66
  %71 = or i1 %67, %68
  %72 = or i1 %69, %70
  %73 = xor i1 %71, %72
  %74 = or i1 %64, %65
  %75 = xor i1 %74, true
  %76 = or i1 true, %66
  %77 = and i1 %75, %76
  %78 = or i1 %73, %77
  %79 = or i1 %62, %63
  %80 = select i1 %78, i32 1426472372, i32 1642238463
  store i32 %80, i32* %10
  br label %117

; <label>:81:                                     ; preds = %12
  store i32 1342349643, i32* %10
  store i32* null, i32** %11
  br label %117

; <label>:82:                                     ; preds = %12
  %83 = load i32*, i32** %11
  store i32* %83, i32** %3
  %84 = load i32, i32* @x.58
  %85 = load i32, i32* @y.59
  %86 = sub i32 0, 1
  %87 = add i32 %84, %86
  %88 = sub i32 %84, 1
  %89 = mul i32 %84, %87
  %90 = urem i32 %89, 2
  %91 = icmp eq i32 %90, 0
  %92 = icmp slt i32 %85, 10
  %93 = and i1 %91, %92
  %94 = xor i1 %91, %92
  %95 = or i1 %93, %94
  %96 = or i1 %91, %92
  %97 = select i1 %95, i32 1216888098, i32 885600977
  store i32 %97, i32* %10
  br label %117

; <label>:98:                                     ; preds = %12
  %99 = load i32, i32* @x.58
  %100 = load i32, i32* @y.59
  %101 = sub i32 0, 1
  %102 = add i32 %99, %101
  %103 = sub i32 %99, 1
  %104 = mul i32 %99, %102
  %105 = urem i32 %104, 2
  %106 = icmp eq i32 %105, 0
  %107 = icmp slt i32 %100, 10
  %108 = and i1 %106, %107
  %109 = xor i1 %106, %107
  %110 = or i1 %108, %109
  %111 = or i1 %106, %107
  %112 = select i1 %110, i32 -1907725338, i32 885600977
  store i32 %112, i32* %10
  br label %117

; <label>:113:                                    ; preds = %12
  %114 = load volatile i32*, i32** %3
  ret i32* %114

; <label>:115:                                    ; preds = %12
  store i32 114640811, i32* %10
  br label %117

; <label>:116:                                    ; preds = %12
  store i32 1216888098, i32* %10
  br label %117

; <label>:117:                                    ; preds = %116, %115, %98, %82, %81, %53, %25, %19, %15, %14
  br label %12
}

; Function Attrs: noinline uwtable
define linkonce_odr i32* @_ZNSt16allocator_traitsISaIiEE8allocateERS0_m(%"class.std::allocator"* dereferenceable(1), i64) #0 comdat align 2 {
  %3 = alloca %"class.std::allocator"*, align 8
  %4 = alloca i64, align 8
  store %"class.std::allocator"* %0, %"class.std::allocator"** %3, align 8
  store i64 %1, i64* %4, align 8
  %5 = load %"class.std::allocator"*, %"class.std::allocator"** %3, align 8
  %6 = bitcast %"class.std::allocator"* %5 to %"class.__gnu_cxx::new_allocator"*
  %7 = load i64, i64* %4, align 8
  %8 = call i32* @_ZN9__gnu_cxx13new_allocatorIiE8allocateEmPKv(%"class.__gnu_cxx::new_allocator"* %6, i64 %7, i8* null)
  ret i32* %8
}

; Function Attrs: noinline uwtable
define linkonce_odr i32* @_ZN9__gnu_cxx13new_allocatorIiE8allocateEmPKv(%"class.__gnu_cxx::new_allocator"*, i64, i8*) #0 comdat align 2 {
  %4 = alloca i1
  %5 = alloca i64*
  %6 = alloca i1
  %7 = alloca i1
  %8 = load i32, i32* @x.62
  %9 = load i32, i32* @y.63
  %10 = add i32 %8, -244262834
  %11 = sub i32 %10, 1
  %12 = sub i32 %11, -244262834
  %13 = sub i32 %8, 1
  %14 = mul i32 %8, %12
  %15 = urem i32 %14, 2
  %16 = icmp eq i32 %15, 0
  store i1 %16, i1* %7
  %17 = icmp slt i32 %9, 10
  store i1 %17, i1* %6
  %18 = alloca i32
  store i32 2043256946, i32* %18
  br label %19

; <label>:19:                                     ; preds = %3, %116
  %20 = load i32, i32* %18
  switch i32 %20, label %21 [
    i32 2043256946, label %22
    i32 34034331, label %30
    i32 -1267507380, label %66
    i32 -206333918, label %69
    i32 -1964490169, label %85
    i32 -2047905996, label %100
    i32 -1912124624, label %101
    i32 -70389431, label %107
    i32 451714499, label %115
  ]

; <label>:21:                                     ; preds = %19
  br label %116

; <label>:22:                                     ; preds = %19
  %23 = load volatile i1, i1* %7
  %24 = load volatile i1, i1* %6
  %25 = and i1 %23, %24
  %26 = xor i1 %23, %24
  %27 = or i1 %25, %26
  %28 = or i1 %23, %24
  %29 = select i1 %27, i32 34034331, i32 -70389431
  store i32 %29, i32* %18
  br label %116

; <label>:30:                                     ; preds = %19
  %31 = alloca %"class.__gnu_cxx::new_allocator"*, align 8
  %32 = alloca i64, align 8
  store i64* %32, i64** %5
  %33 = alloca i8*, align 8
  store %"class.__gnu_cxx::new_allocator"* %0, %"class.__gnu_cxx::new_allocator"** %31, align 8
  %34 = load volatile i64*, i64** %5
  store i64 %1, i64* %34, align 8
  store i8* %2, i8** %33, align 8
  %35 = load %"class.__gnu_cxx::new_allocator"*, %"class.__gnu_cxx::new_allocator"** %31, align 8
  %36 = load volatile i64*, i64** %5
  %37 = load i64, i64* %36, align 8
  %38 = call i64 @_ZNK9__gnu_cxx13new_allocatorIiE8max_sizeEv(%"class.__gnu_cxx::new_allocator"* %35) #3
  %39 = icmp ugt i64 %37, %38
  store i1 %39, i1* %4
  %40 = load i32, i32* @x.62
  %41 = load i32, i32* @y.63
  %42 = sub i32 0, 1
  %43 = add i32 %40, %42
  %44 = sub i32 %40, 1
  %45 = mul i32 %40, %43
  %46 = urem i32 %45, 2
  %47 = icmp eq i32 %46, 0
  %48 = icmp slt i32 %41, 10
  %49 = xor i1 %47, true
  %50 = xor i1 %48, true
  %51 = xor i1 false, true
  %52 = and i1 %49, false
  %53 = and i1 %47, %51
  %54 = and i1 %50, false
  %55 = and i1 %48, %51
  %56 = or i1 %52, %53
  %57 = or i1 %54, %55
  %58 = xor i1 %56, %57
  %59 = or i1 %49, %50
  %60 = xor i1 %59, true
  %61 = or i1 false, %51
  %62 = and i1 %60, %61
  %63 = or i1 %58, %62
  %64 = or i1 %47, %48
  %65 = select i1 %63, i32 -1267507380, i32 -70389431
  store i32 %65, i32* %18
  br label %116

; <label>:66:                                     ; preds = %19
  %67 = load volatile i1, i1* %4
  %68 = select i1 %67, i32 -206333918, i32 -1912124624
  store i32 %68, i32* %18
  br label %116

; <label>:69:                                     ; preds = %19
  %70 = load i32, i32* @x.62
  %71 = load i32, i32* @y.63
  %72 = add i32 %70, 1070225254
  %73 = sub i32 %72, 1
  %74 = sub i32 %73, 1070225254
  %75 = sub i32 %70, 1
  %76 = mul i32 %70, %74
  %77 = urem i32 %76, 2
  %78 = icmp eq i32 %77, 0
  %79 = icmp slt i32 %71, 10
  %80 = and i1 %78, %79
  %81 = xor i1 %78, %79
  %82 = or i1 %80, %81
  %83 = or i1 %78, %79
  %84 = select i1 %82, i32 -1964490169, i32 451714499
  store i32 %84, i32* %18
  br label %116

; <label>:85:                                     ; preds = %19
  call void @_ZSt17__throw_bad_allocv() #11
  %86 = load i32, i32* @x.62
  %87 = load i32, i32* @y.63
  %88 = sub i32 0, 1
  %89 = add i32 %86, %88
  %90 = sub i32 %86, 1
  %91 = mul i32 %86, %89
  %92 = urem i32 %91, 2
  %93 = icmp eq i32 %92, 0
  %94 = icmp slt i32 %87, 10
  %95 = and i1 %93, %94
  %96 = xor i1 %93, %94
  %97 = or i1 %95, %96
  %98 = or i1 %93, %94
  %99 = select i1 %97, i32 -2047905996, i32 451714499
  store i32 %99, i32* %18
  br label %116

; <label>:100:                                    ; preds = %19
  unreachable

; <label>:101:                                    ; preds = %19
  %102 = load volatile i64*, i64** %5
  %103 = load i64, i64* %102, align 8
  %104 = mul i64 %103, 4
  %105 = call i8* @_Znwm(i64 %104)
  %106 = bitcast i8* %105 to i32*
  ret i32* %106

; <label>:107:                                    ; preds = %19
  %108 = alloca %"class.__gnu_cxx::new_allocator"*, align 8
  %109 = alloca i64, align 8
  %110 = alloca i8*, align 8
  store %"class.__gnu_cxx::new_allocator"* %0, %"class.__gnu_cxx::new_allocator"** %108, align 8
  store i64 %1, i64* %109, align 8
  store i8* %2, i8** %110, align 8
  %111 = load %"class.__gnu_cxx::new_allocator"*, %"class.__gnu_cxx::new_allocator"** %108, align 8
  %112 = load i64, i64* %109, align 8
  %113 = call i64 @_ZNK9__gnu_cxx13new_allocatorIiE8max_sizeEv(%"class.__gnu_cxx::new_allocator"* %111) #3
  %114 = icmp ugt i64 %112, %113
  store i32 34034331, i32* %18
  br label %116

; <label>:115:                                    ; preds = %19
  call void @_ZSt17__throw_bad_allocv() #11
  store i32 -1964490169, i32* %18
  br label %116

; <label>:116:                                    ; preds = %115, %107, %85, %69, %66, %30, %22, %21
  br label %19
}

; Function Attrs: noinline nounwind uwtable
define linkonce_odr i64 @_ZNK9__gnu_cxx13new_allocatorIiE8max_sizeEv(%"class.__gnu_cxx::new_allocator"*) #5 comdat align 2 {
  %2 = alloca i1
  %3 = alloca i1
  %4 = load i32, i32* @x.64
  %5 = load i32, i32* @y.65
  %6 = sub i32 %4, 1508139258
  %7 = sub i32 %6, 1
  %8 = add i32 %7, 1508139258
  %9 = sub i32 %4, 1
  %10 = mul i32 %4, %8
  %11 = urem i32 %10, 2
  %12 = icmp eq i32 %11, 0
  store i1 %12, i1* %3
  %13 = icmp slt i32 %5, 10
  store i1 %13, i1* %2
  %14 = alloca i32
  store i32 582913155, i32* %14
  br label %15

; <label>:15:                                     ; preds = %1, %60
  %16 = load i32, i32* %14
  switch i32 %16, label %17 [
    i32 582913155, label %18
    i32 1581193257, label %38
    i32 1688945831, label %56
    i32 2108395286, label %57
  ]

; <label>:17:                                     ; preds = %15
  br label %60

; <label>:18:                                     ; preds = %15
  %19 = load volatile i1, i1* %3
  %20 = load volatile i1, i1* %2
  %21 = xor i1 %19, true
  %22 = xor i1 %20, true
  %23 = xor i1 true, true
  %24 = and i1 %21, true
  %25 = and i1 %19, %23
  %26 = and i1 %22, true
  %27 = and i1 %20, %23
  %28 = or i1 %24, %25
  %29 = or i1 %26, %27
  %30 = xor i1 %28, %29
  %31 = or i1 %21, %22
  %32 = xor i1 %31, true
  %33 = or i1 true, %23
  %34 = and i1 %32, %33
  %35 = or i1 %30, %34
  %36 = or i1 %19, %20
  %37 = select i1 %35, i32 1581193257, i32 2108395286
  store i32 %37, i32* %14
  br label %60

; <label>:38:                                     ; preds = %15
  %39 = alloca %"class.__gnu_cxx::new_allocator"*, align 8
  store %"class.__gnu_cxx::new_allocator"* %0, %"class.__gnu_cxx::new_allocator"** %39, align 8
  %40 = load %"class.__gnu_cxx::new_allocator"*, %"class.__gnu_cxx::new_allocator"** %39, align 8
  %41 = load i32, i32* @x.64
  %42 = load i32, i32* @y.65
  %43 = sub i32 %41, -519434780
  %44 = sub i32 %43, 1
  %45 = add i32 %44, -519434780
  %46 = sub i32 %41, 1
  %47 = mul i32 %41, %45
  %48 = urem i32 %47, 2
  %49 = icmp eq i32 %48, 0
  %50 = icmp slt i32 %42, 10
  %51 = and i1 %49, %50
  %52 = xor i1 %49, %50
  %53 = or i1 %51, %52
  %54 = or i1 %49, %50
  %55 = select i1 %53, i32 1688945831, i32 2108395286
  store i32 %55, i32* %14
  br label %60

; <label>:56:                                     ; preds = %15
  ret i64 4611686018427387903

; <label>:57:                                     ; preds = %15
  %58 = alloca %"class.__gnu_cxx::new_allocator"*, align 8
  store %"class.__gnu_cxx::new_allocator"* %0, %"class.__gnu_cxx::new_allocator"** %58, align 8
  %59 = load %"class.__gnu_cxx::new_allocator"*, %"class.__gnu_cxx::new_allocator"** %58, align 8
  store i32 1581193257, i32* %14
  br label %60

; <label>:60:                                     ; preds = %57, %38, %18, %17
  br label %15
}

; Function Attrs: noreturn
declare void @_ZSt17__throw_bad_allocv() #6

; Function Attrs: nobuiltin
declare noalias i8* @_Znwm(i64) #8

; Function Attrs: noinline uwtable
define linkonce_odr i32* @_ZSt24__uninitialized_fill_n_aIPimiiET_S1_T0_RKT1_RSaIT2_E(i32*, i64, i32* dereferenceable(4), %"class.std::allocator"* dereferenceable(1)) #0 comdat {
  %5 = alloca i32*
  %6 = alloca i1
  %7 = alloca i1
  %8 = load i32, i32* @x.66
  %9 = load i32, i32* @y.67
  %10 = sub i32 %8, 1230790179
  %11 = sub i32 %10, 1
  %12 = add i32 %11, 1230790179
  %13 = sub i32 %8, 1
  %14 = mul i32 %8, %12
  %15 = urem i32 %14, 2
  %16 = icmp eq i32 %15, 0
  store i1 %16, i1* %7
  %17 = icmp slt i32 %9, 10
  store i1 %17, i1* %6
  %18 = alloca i32
  store i32 344567404, i32* %18
  br label %19

; <label>:19:                                     ; preds = %4, %65
  %20 = load i32, i32* %18
  switch i32 %20, label %21 [
    i32 344567404, label %22
    i32 -775193997, label %30
    i32 848875835, label %54
    i32 -1057550991, label %56
  ]

; <label>:21:                                     ; preds = %19
  br label %65

; <label>:22:                                     ; preds = %19
  %23 = load volatile i1, i1* %7
  %24 = load volatile i1, i1* %6
  %25 = and i1 %23, %24
  %26 = xor i1 %23, %24
  %27 = or i1 %25, %26
  %28 = or i1 %23, %24
  %29 = select i1 %27, i32 -775193997, i32 -1057550991
  store i32 %29, i32* %18
  br label %65

; <label>:30:                                     ; preds = %19
  %31 = alloca i32*, align 8
  %32 = alloca i64, align 8
  %33 = alloca i32*, align 8
  %34 = alloca %"class.std::allocator"*, align 8
  store i32* %0, i32** %31, align 8
  store i64 %1, i64* %32, align 8
  store i32* %2, i32** %33, align 8
  store %"class.std::allocator"* %3, %"class.std::allocator"** %34, align 8
  %35 = load i32*, i32** %31, align 8
  %36 = load i64, i64* %32, align 8
  %37 = load i32*, i32** %33, align 8
  %38 = call i32* @_ZSt20uninitialized_fill_nIPimiET_S1_T0_RKT1_(i32* %35, i64 %36, i32* dereferenceable(4) %37)
  store i32* %38, i32** %5
  %39 = load i32, i32* @x.66
  %40 = load i32, i32* @y.67
  %41 = add i32 %39, -809685984
  %42 = sub i32 %41, 1
  %43 = sub i32 %42, -809685984
  %44 = sub i32 %39, 1
  %45 = mul i32 %39, %43
  %46 = urem i32 %45, 2
  %47 = icmp eq i32 %46, 0
  %48 = icmp slt i32 %40, 10
  %49 = and i1 %47, %48
  %50 = xor i1 %47, %48
  %51 = or i1 %49, %50
  %52 = or i1 %47, %48
  %53 = select i1 %51, i32 848875835, i32 -1057550991
  store i32 %53, i32* %18
  br label %65

; <label>:54:                                     ; preds = %19
  %55 = load volatile i32*, i32** %5
  ret i32* %55

; <label>:56:                                     ; preds = %19
  %57 = alloca i32*, align 8
  %58 = alloca i64, align 8
  %59 = alloca i32*, align 8
  %60 = alloca %"class.std::allocator"*, align 8
  store i32* %0, i32** %57, align 8
  store i64 %1, i64* %58, align 8
  store i32* %2, i32** %59, align 8
  store %"class.std::allocator"* %3, %"class.std::allocator"** %60, align 8
  %61 = load i32*, i32** %57, align 8
  %62 = load i64, i64* %58, align 8
  %63 = load i32*, i32** %59, align 8
  %64 = call i32* @_ZSt20uninitialized_fill_nIPimiET_S1_T0_RKT1_(i32* %61, i64 %62, i32* dereferenceable(4) %63)
  store i32 -775193997, i32* %18
  br label %65

; <label>:65:                                     ; preds = %56, %30, %22, %21
  br label %19
}

; Function Attrs: noinline nounwind uwtable
define linkonce_odr dereferenceable(1) %"class.std::allocator"* @_ZNSt12_Vector_baseIiSaIiEE19_M_get_Tp_allocatorEv(%"struct.std::_Vector_base"*) #5 comdat align 2 {
  %2 = alloca %"struct.std::_Vector_base"*, align 8
  store %"struct.std::_Vector_base"* %0, %"struct.std::_Vector_base"** %2, align 8
  %3 = load %"struct.std::_Vector_base"*, %"struct.std::_Vector_base"** %2, align 8
  %4 = getelementptr inbounds %"struct.std::_Vector_base", %"struct.std::_Vector_base"* %3, i32 0, i32 0
  %5 = bitcast %"struct.std::_Vector_base<int, std::allocator<int> >::_Vector_impl"* %4 to %"class.std::allocator"*
  ret %"class.std::allocator"* %5
}

; Function Attrs: noinline uwtable
define linkonce_odr i32* @_ZSt20uninitialized_fill_nIPimiET_S1_T0_RKT1_(i32*, i64, i32* dereferenceable(4)) #0 comdat {
  %4 = alloca i32*
  %5 = alloca i1
  %6 = alloca i1
  %7 = load i32, i32* @x.70
  %8 = load i32, i32* @y.71
  %9 = sub i32 %7, 1379674732
  %10 = sub i32 %9, 1
  %11 = add i32 %10, 1379674732
  %12 = sub i32 %7, 1
  %13 = mul i32 %7, %11
  %14 = urem i32 %13, 2
  %15 = icmp eq i32 %14, 0
  store i1 %15, i1* %6
  %16 = icmp slt i32 %8, 10
  store i1 %16, i1* %5
  %17 = alloca i32
  store i32 -1583061458, i32* %17
  br label %18

; <label>:18:                                     ; preds = %3, %76
  %19 = load i32, i32* %17
  switch i32 %19, label %20 [
    i32 -1583061458, label %21
    i32 -1011359644, label %29
    i32 196986174, label %65
    i32 -856703546, label %67
  ]

; <label>:20:                                     ; preds = %18
  br label %76

; <label>:21:                                     ; preds = %18
  %22 = load volatile i1, i1* %6
  %23 = load volatile i1, i1* %5
  %24 = and i1 %22, %23
  %25 = xor i1 %22, %23
  %26 = or i1 %24, %25
  %27 = or i1 %22, %23
  %28 = select i1 %26, i32 -1011359644, i32 -856703546
  store i32 %28, i32* %17
  br label %76

; <label>:29:                                     ; preds = %18
  %30 = alloca i32*, align 8
  %31 = alloca i64, align 8
  %32 = alloca i32*, align 8
  %33 = alloca i8, align 1
  store i32* %0, i32** %30, align 8
  store i64 %1, i64* %31, align 8
  store i32* %2, i32** %32, align 8
  store i8 1, i8* %33, align 1
  %34 = load i32*, i32** %30, align 8
  %35 = load i64, i64* %31, align 8
  %36 = load i32*, i32** %32, align 8
  %37 = call i32* @_ZNSt22__uninitialized_fill_nILb1EE15__uninit_fill_nIPimiEET_S3_T0_RKT1_(i32* %34, i64 %35, i32* dereferenceable(4) %36)
  store i32* %37, i32** %4
  %38 = load i32, i32* @x.70
  %39 = load i32, i32* @y.71
  %40 = sub i32 %38, 291260302
  %41 = sub i32 %40, 1
  %42 = add i32 %41, 291260302
  %43 = sub i32 %38, 1
  %44 = mul i32 %38, %42
  %45 = urem i32 %44, 2
  %46 = icmp eq i32 %45, 0
  %47 = icmp slt i32 %39, 10
  %48 = xor i1 %46, true
  %49 = xor i1 %47, true
  %50 = xor i1 true, true
  %51 = and i1 %48, true
  %52 = and i1 %46, %50
  %53 = and i1 %49, true
  %54 = and i1 %47, %50
  %55 = or i1 %51, %52
  %56 = or i1 %53, %54
  %57 = xor i1 %55, %56
  %58 = or i1 %48, %49
  %59 = xor i1 %58, true
  %60 = or i1 true, %50
  %61 = and i1 %59, %60
  %62 = or i1 %57, %61
  %63 = or i1 %46, %47
  %64 = select i1 %62, i32 196986174, i32 -856703546
  store i32 %64, i32* %17
  br label %76

; <label>:65:                                     ; preds = %18
  %66 = load volatile i32*, i32** %4
  ret i32* %66

; <label>:67:                                     ; preds = %18
  %68 = alloca i32*, align 8
  %69 = alloca i64, align 8
  %70 = alloca i32*, align 8
  %71 = alloca i8, align 1
  store i32* %0, i32** %68, align 8
  store i64 %1, i64* %69, align 8
  store i32* %2, i32** %70, align 8
  store i8 1, i8* %71, align 1
  %72 = load i32*, i32** %68, align 8
  %73 = load i64, i64* %69, align 8
  %74 = load i32*, i32** %70, align 8
  %75 = call i32* @_ZNSt22__uninitialized_fill_nILb1EE15__uninit_fill_nIPimiEET_S3_T0_RKT1_(i32* %72, i64 %73, i32* dereferenceable(4) %74)
  store i32 -1011359644, i32* %17
  br label %76

; <label>:76:                                     ; preds = %67, %29, %21, %20
  br label %18
}

; Function Attrs: noinline uwtable
define linkonce_odr i32* @_ZNSt22__uninitialized_fill_nILb1EE15__uninit_fill_nIPimiEET_S3_T0_RKT1_(i32*, i64, i32* dereferenceable(4)) #0 comdat align 2 {
  %4 = alloca i32*
  %5 = alloca i1
  %6 = alloca i1
  %7 = load i32, i32* @x.72
  %8 = load i32, i32* @y.73
  %9 = sub i32 0, 1
  %10 = add i32 %7, %9
  %11 = sub i32 %7, 1
  %12 = mul i32 %7, %10
  %13 = urem i32 %12, 2
  %14 = icmp eq i32 %13, 0
  store i1 %14, i1* %6
  %15 = icmp slt i32 %8, 10
  store i1 %15, i1* %5
  %16 = alloca i32
  store i32 1145203384, i32* %16
  br label %17

; <label>:17:                                     ; preds = %3, %73
  %18 = load i32, i32* %16
  switch i32 %18, label %19 [
    i32 1145203384, label %20
    i32 2140493282, label %28
    i32 1793896308, label %63
    i32 1828294135, label %65
  ]

; <label>:19:                                     ; preds = %17
  br label %73

; <label>:20:                                     ; preds = %17
  %21 = load volatile i1, i1* %6
  %22 = load volatile i1, i1* %5
  %23 = and i1 %21, %22
  %24 = xor i1 %21, %22
  %25 = or i1 %23, %24
  %26 = or i1 %21, %22
  %27 = select i1 %25, i32 2140493282, i32 1828294135
  store i32 %27, i32* %16
  br label %73

; <label>:28:                                     ; preds = %17
  %29 = alloca i32*, align 8
  %30 = alloca i64, align 8
  %31 = alloca i32*, align 8
  store i32* %0, i32** %29, align 8
  store i64 %1, i64* %30, align 8
  store i32* %2, i32** %31, align 8
  %32 = load i32*, i32** %29, align 8
  %33 = load i64, i64* %30, align 8
  %34 = load i32*, i32** %31, align 8
  %35 = call i32* @_ZSt6fill_nIPimiET_S1_T0_RKT1_(i32* %32, i64 %33, i32* dereferenceable(4) %34)
  store i32* %35, i32** %4
  %36 = load i32, i32* @x.72
  %37 = load i32, i32* @y.73
  %38 = sub i32 %36, -232319992
  %39 = sub i32 %38, 1
  %40 = add i32 %39, -232319992
  %41 = sub i32 %36, 1
  %42 = mul i32 %36, %40
  %43 = urem i32 %42, 2
  %44 = icmp eq i32 %43, 0
  %45 = icmp slt i32 %37, 10
  %46 = xor i1 %44, true
  %47 = xor i1 %45, true
  %48 = xor i1 false, true
  %49 = and i1 %46, false
  %50 = and i1 %44, %48
  %51 = and i1 %47, false
  %52 = and i1 %45, %48
  %53 = or i1 %49, %50
  %54 = or i1 %51, %52
  %55 = xor i1 %53, %54
  %56 = or i1 %46, %47
  %57 = xor i1 %56, true
  %58 = or i1 false, %48
  %59 = and i1 %57, %58
  %60 = or i1 %55, %59
  %61 = or i1 %44, %45
  %62 = select i1 %60, i32 1793896308, i32 1828294135
  store i32 %62, i32* %16
  br label %73

; <label>:63:                                     ; preds = %17
  %64 = load volatile i32*, i32** %4
  ret i32* %64

; <label>:65:                                     ; preds = %17
  %66 = alloca i32*, align 8
  %67 = alloca i64, align 8
  %68 = alloca i32*, align 8
  store i32* %0, i32** %66, align 8
  store i64 %1, i64* %67, align 8
  store i32* %2, i32** %68, align 8
  %69 = load i32*, i32** %66, align 8
  %70 = load i64, i64* %67, align 8
  %71 = load i32*, i32** %68, align 8
  %72 = call i32* @_ZSt6fill_nIPimiET_S1_T0_RKT1_(i32* %69, i64 %70, i32* dereferenceable(4) %71)
  store i32 2140493282, i32* %16
  br label %73

; <label>:73:                                     ; preds = %65, %28, %20, %19
  br label %17
}

; Function Attrs: noinline uwtable
define linkonce_odr i32* @_ZSt6fill_nIPimiET_S1_T0_RKT1_(i32*, i64, i32* dereferenceable(4)) #0 comdat {
  %4 = alloca i32*, align 8
  %5 = alloca i64, align 8
  %6 = alloca i32*, align 8
  store i32* %0, i32** %4, align 8
  store i64 %1, i64* %5, align 8
  store i32* %2, i32** %6, align 8
  %7 = load i32*, i32** %4, align 8
  %8 = call i32* @_ZSt12__niter_baseIPiENSt11_Niter_baseIT_E13iterator_typeES2_(i32* %7)
  %9 = load i64, i64* %5, align 8
  %10 = load i32*, i32** %6, align 8
  %11 = call i32* @_ZSt10__fill_n_aIPimiEN9__gnu_cxx11__enable_ifIXsr11__is_scalarIT1_EE7__valueET_E6__typeES4_T0_RKS3_(i32* %8, i64 %9, i32* dereferenceable(4) %10)
  ret i32* %11
}

; Function Attrs: noinline nounwind uwtable
define linkonce_odr i32* @_ZSt10__fill_n_aIPimiEN9__gnu_cxx11__enable_ifIXsr11__is_scalarIT1_EE7__valueET_E6__typeES4_T0_RKS3_(i32*, i64, i32* dereferenceable(4)) #5 comdat {
  %4 = alloca i64*
  %5 = alloca i32*
  %6 = alloca i32**
  %7 = alloca i1
  %8 = alloca i1
  %9 = load i32, i32* @x.76
  %10 = load i32, i32* @y.77
  %11 = add i32 %9, 1883121812
  %12 = sub i32 %11, 1
  %13 = sub i32 %12, 1883121812
  %14 = sub i32 %9, 1
  %15 = mul i32 %9, %13
  %16 = urem i32 %15, 2
  %17 = icmp eq i32 %16, 0
  store i1 %17, i1* %8
  %18 = icmp slt i32 %10, 10
  store i1 %18, i1* %7
  %19 = alloca i32
  store i32 -1978063832, i32* %19
  br label %20

; <label>:20:                                     ; preds = %3, %147
  %21 = load i32, i32* %19
  switch i32 %21, label %22 [
    i32 -1978063832, label %23
    i32 -804289463, label %43
    i32 -1930573464, label %69
    i32 -2034714811, label %70
    i32 404895847, label %75
    i32 1361851287, label %80
    i32 1564957428, label %95
    i32 1077004268, label %123
    i32 1527714612, label %124
    i32 -1143447294, label %127
    i32 -574798538, label %136
  ]

; <label>:22:                                     ; preds = %20
  br label %147

; <label>:23:                                     ; preds = %20
  %24 = load volatile i1, i1* %8
  %25 = load volatile i1, i1* %7
  %26 = xor i1 %24, true
  %27 = xor i1 %25, true
  %28 = xor i1 false, true
  %29 = and i1 %26, false
  %30 = and i1 %24, %28
  %31 = and i1 %27, false
  %32 = and i1 %25, %28
  %33 = or i1 %29, %30
  %34 = or i1 %31, %32
  %35 = xor i1 %33, %34
  %36 = or i1 %26, %27
  %37 = xor i1 %36, true
  %38 = or i1 false, %28
  %39 = and i1 %37, %38
  %40 = or i1 %35, %39
  %41 = or i1 %24, %25
  %42 = select i1 %40, i32 -804289463, i32 -1143447294
  store i32 %42, i32* %19
  br label %147

; <label>:43:                                     ; preds = %20
  %44 = alloca i32*, align 8
  store i32** %44, i32*** %6
  %45 = alloca i64, align 8
  %46 = alloca i32*, align 8
  %47 = alloca i32, align 4
  store i32* %47, i32** %5
  %48 = alloca i64, align 8
  store i64* %48, i64** %4
  %49 = load volatile i32**, i32*** %6
  store i32* %0, i32** %49, align 8
  store i64 %1, i64* %45, align 8
  store i32* %2, i32** %46, align 8
  %50 = load i32*, i32** %46, align 8
  %51 = load i32, i32* %50, align 4
  %52 = load volatile i32*, i32** %5
  store i32 %51, i32* %52, align 4
  %53 = load i64, i64* %45, align 8
  %54 = load volatile i64*, i64** %4
  store i64 %53, i64* %54, align 8
  %55 = load i32, i32* @x.76
  %56 = load i32, i32* @y.77
  %57 = sub i32 0, 1
  %58 = add i32 %55, %57
  %59 = sub i32 %55, 1
  %60 = mul i32 %55, %58
  %61 = urem i32 %60, 2
  %62 = icmp eq i32 %61, 0
  %63 = icmp slt i32 %56, 10
  %64 = and i1 %62, %63
  %65 = xor i1 %62, %63
  %66 = or i1 %64, %65
  %67 = or i1 %62, %63
  %68 = select i1 %66, i32 -1930573464, i32 -1143447294
  store i32 %68, i32* %19
  br label %147

; <label>:69:                                     ; preds = %20
  store i32 -2034714811, i32* %19
  br label %147

; <label>:70:                                     ; preds = %20
  %71 = load volatile i64*, i64** %4
  %72 = load i64, i64* %71, align 8
  %73 = icmp ugt i64 %72, 0
  %74 = select i1 %73, i32 404895847, i32 1527714612
  store i32 %74, i32* %19
  br label %147

; <label>:75:                                     ; preds = %20
  %76 = load volatile i32*, i32** %5
  %77 = load i32, i32* %76, align 4
  %78 = load volatile i32**, i32*** %6
  %79 = load i32*, i32** %78, align 8
  store i32 %77, i32* %79, align 4
  store i32 1361851287, i32* %19
  br label %147

; <label>:80:                                     ; preds = %20
  %81 = load i32, i32* @x.76
  %82 = load i32, i32* @y.77
  %83 = sub i32 0, 1
  %84 = add i32 %81, %83
  %85 = sub i32 %81, 1
  %86 = mul i32 %81, %84
  %87 = urem i32 %86, 2
  %88 = icmp eq i32 %87, 0
  %89 = icmp slt i32 %82, 10
  %90 = and i1 %88, %89
  %91 = xor i1 %88, %89
  %92 = or i1 %90, %91
  %93 = or i1 %88, %89
  %94 = select i1 %92, i32 1564957428, i32 -574798538
  store i32 %94, i32* %19
  br label %147

; <label>:95:                                     ; preds = %20
  %96 = load volatile i64*, i64** %4
  %97 = load i64, i64* %96, align 8
  %98 = sub i64 0, %97
  %99 = sub i64 0, -1
  %100 = add i64 %98, %99
  %101 = sub i64 0, %100
  %102 = add i64 %97, -1
  %103 = load volatile i64*, i64** %4
  store i64 %101, i64* %103, align 8
  %104 = load volatile i32**, i32*** %6
  %105 = load i32*, i32** %104, align 8
  %106 = getelementptr inbounds i32, i32* %105, i32 1
  %107 = load volatile i32**, i32*** %6
  store i32* %106, i32** %107, align 8
  %108 = load i32, i32* @x.76
  %109 = load i32, i32* @y.77
  %110 = sub i32 %108, -1425644831
  %111 = sub i32 %110, 1
  %112 = add i32 %111, -1425644831
  %113 = sub i32 %108, 1
  %114 = mul i32 %108, %112
  %115 = urem i32 %114, 2
  %116 = icmp eq i32 %115, 0
  %117 = icmp slt i32 %109, 10
  %118 = and i1 %116, %117
  %119 = xor i1 %116, %117
  %120 = or i1 %118, %119
  %121 = or i1 %116, %117
  %122 = select i1 %120, i32 1077004268, i32 -574798538
  store i32 %122, i32* %19
  br label %147

; <label>:123:                                    ; preds = %20
  store i32 -2034714811, i32* %19
  br label %147

; <label>:124:                                    ; preds = %20
  %125 = load volatile i32**, i32*** %6
  %126 = load i32*, i32** %125, align 8
  ret i32* %126

; <label>:127:                                    ; preds = %20
  %128 = alloca i32*, align 8
  %129 = alloca i64, align 8
  %130 = alloca i32*, align 8
  %131 = alloca i32, align 4
  %132 = alloca i64, align 8
  store i32* %0, i32** %128, align 8
  store i64 %1, i64* %129, align 8
  store i32* %2, i32** %130, align 8
  %133 = load i32*, i32** %130, align 8
  %134 = load i32, i32* %133, align 4
  store i32 %134, i32* %131, align 4
  %135 = load i64, i64* %129, align 8
  store i64 %135, i64* %132, align 8
  store i32 -804289463, i32* %19
  br label %147

; <label>:136:                                    ; preds = %20
  %137 = load volatile i64*, i64** %4
  %138 = load i64, i64* %137, align 8
  %139 = sub i64 0, -1
  %140 = sub i64 %138, %139
  %141 = add i64 %138, -1
  %142 = load volatile i64*, i64** %4
  store i64 %140, i64* %142, align 8
  %143 = load volatile i32**, i32*** %6
  %144 = load i32*, i32** %143, align 8
  %145 = getelementptr inbounds i32, i32* %144, i32 1
  %146 = load volatile i32**, i32*** %6
  store i32* %145, i32** %146, align 8
  store i32 1564957428, i32* %19
  br label %147

; <label>:147:                                    ; preds = %136, %127, %123, %95, %80, %75, %70, %69, %43, %23, %22
  br label %20
}

; Function Attrs: noinline uwtable
define linkonce_odr i32* @_ZSt12__niter_baseIPiENSt11_Niter_baseIT_E13iterator_typeES2_(i32*) #0 comdat {
  %2 = alloca i32*, align 8
  store i32* %0, i32** %2, align 8
  %3 = load i32*, i32** %2, align 8
  %4 = call i32* @_ZNSt10_Iter_baseIPiLb0EE7_S_baseES0_(i32* %3)
  ret i32* %4
}

; Function Attrs: noinline nounwind uwtable
define linkonce_odr i32* @_ZNSt10_Iter_baseIPiLb0EE7_S_baseES0_(i32*) #5 comdat align 2 {
  %2 = alloca i32*, align 8
  store i32* %0, i32** %2, align 8
  %3 = load i32*, i32** %2, align 8
  ret i32* %3
}

; Function Attrs: noinline uwtable
define linkonce_odr void @_ZNSt12_Vector_baseIiSaIiEE13_M_deallocateEPim(%"struct.std::_Vector_base"*, i32*, i64) #0 comdat align 2 {
  %4 = alloca i32*
  %5 = alloca %"struct.std::_Vector_base"*
  %6 = alloca %"struct.std::_Vector_base"*, align 8
  %7 = alloca i32*, align 8
  %8 = alloca i64, align 8
  store %"struct.std::_Vector_base"* %0, %"struct.std::_Vector_base"** %6, align 8
  store i32* %1, i32** %7, align 8
  store i64 %2, i64* %8, align 8
  %9 = load %"struct.std::_Vector_base"*, %"struct.std::_Vector_base"** %6, align 8
  store %"struct.std::_Vector_base"* %9, %"struct.std::_Vector_base"** %5
  %10 = load i32*, i32** %7, align 8
  store i32* %10, i32** %4
  %11 = alloca i32
  store i32 -1928437649, i32* %11
  br label %12

; <label>:12:                                     ; preds = %3, %83
  %13 = load i32, i32* %11
  switch i32 %13, label %14 [
    i32 -1928437649, label %15
    i32 -1031937006, label %19
    i32 1275005683, label %25
    i32 -163776393, label %53
    i32 -1767777309, label %81
    i32 1876976977, label %82
  ]

; <label>:14:                                     ; preds = %12
  br label %83

; <label>:15:                                     ; preds = %12
  %16 = load volatile i32*, i32** %4
  %17 = icmp ne i32* %16, null
  %18 = select i1 %17, i32 -1031937006, i32 1275005683
  store i32 %18, i32* %11
  br label %83

; <label>:19:                                     ; preds = %12
  %20 = load volatile %"struct.std::_Vector_base"*, %"struct.std::_Vector_base"** %5
  %21 = getelementptr inbounds %"struct.std::_Vector_base", %"struct.std::_Vector_base"* %20, i32 0, i32 0
  %22 = bitcast %"struct.std::_Vector_base<int, std::allocator<int> >::_Vector_impl"* %21 to %"class.std::allocator"*
  %23 = load i32*, i32** %7, align 8
  %24 = load i64, i64* %8, align 8
  call void @_ZNSt16allocator_traitsISaIiEE10deallocateERS0_Pim(%"class.std::allocator"* dereferenceable(1) %22, i32* %23, i64 %24)
  store i32 1275005683, i32* %11
  br label %83

; <label>:25:                                     ; preds = %12
  %26 = load i32, i32* @x.82
  %27 = load i32, i32* @y.83
  %28 = sub i32 %26, -276209985
  %29 = sub i32 %28, 1
  %30 = add i32 %29, -276209985
  %31 = sub i32 %26, 1
  %32 = mul i32 %26, %30
  %33 = urem i32 %32, 2
  %34 = icmp eq i32 %33, 0
  %35 = icmp slt i32 %27, 10
  %36 = xor i1 %34, true
  %37 = xor i1 %35, true
  %38 = xor i1 false, true
  %39 = and i1 %36, false
  %40 = and i1 %34, %38
  %41 = and i1 %37, false
  %42 = and i1 %35, %38
  %43 = or i1 %39, %40
  %44 = or i1 %41, %42
  %45 = xor i1 %43, %44
  %46 = or i1 %36, %37
  %47 = xor i1 %46, true
  %48 = or i1 false, %38
  %49 = and i1 %47, %48
  %50 = or i1 %45, %49
  %51 = or i1 %34, %35
  %52 = select i1 %50, i32 -163776393, i32 1876976977
  store i32 %52, i32* %11
  br label %83

; <label>:53:                                     ; preds = %12
  %54 = load i32, i32* @x.82
  %55 = load i32, i32* @y.83
  %56 = sub i32 %54, 2016609492
  %57 = sub i32 %56, 1
  %58 = add i32 %57, 2016609492
  %59 = sub i32 %54, 1
  %60 = mul i32 %54, %58
  %61 = urem i32 %60, 2
  %62 = icmp eq i32 %61, 0
  %63 = icmp slt i32 %55, 10
  %64 = xor i1 %62, true
  %65 = xor i1 %63, true
  %66 = xor i1 false, true
  %67 = and i1 %64, false
  %68 = and i1 %62, %66
  %69 = and i1 %65, false
  %70 = and i1 %63, %66
  %71 = or i1 %67, %68
  %72 = or i1 %69, %70
  %73 = xor i1 %71, %72
  %74 = or i1 %64, %65
  %75 = xor i1 %74, true
  %76 = or i1 false, %66
  %77 = and i1 %75, %76
  %78 = or i1 %73, %77
  %79 = or i1 %62, %63
  %80 = select i1 %78, i32 -1767777309, i32 1876976977
  store i32 %80, i32* %11
  br label %83

; <label>:81:                                     ; preds = %12
  ret void

; <label>:82:                                     ; preds = %12
  store i32 -163776393, i32* %11
  br label %83

; <label>:83:                                     ; preds = %82, %53, %25, %19, %15, %14
  br label %12
}

; Function Attrs: noinline uwtable
define linkonce_odr void @_ZNSt16allocator_traitsISaIiEE10deallocateERS0_Pim(%"class.std::allocator"* dereferenceable(1), i32*, i64) #0 comdat align 2 {
  %4 = alloca i1
  %5 = alloca i1
  %6 = load i32, i32* @x.84
  %7 = load i32, i32* @y.85
  %8 = add i32 %6, 770364012
  %9 = sub i32 %8, 1
  %10 = sub i32 %9, 770364012
  %11 = sub i32 %6, 1
  %12 = mul i32 %6, %10
  %13 = urem i32 %12, 2
  %14 = icmp eq i32 %13, 0
  store i1 %14, i1* %5
  %15 = icmp slt i32 %7, 10
  store i1 %15, i1* %4
  %16 = alloca i32
  store i32 -26312172, i32* %16
  br label %17

; <label>:17:                                     ; preds = %3, %72
  %18 = load i32, i32* %16
  switch i32 %18, label %19 [
    i32 -26312172, label %20
    i32 375539012, label %40
    i32 -18310127, label %63
    i32 154410340, label %64
  ]

; <label>:19:                                     ; preds = %17
  br label %72

; <label>:20:                                     ; preds = %17
  %21 = load volatile i1, i1* %5
  %22 = load volatile i1, i1* %4
  %23 = xor i1 %21, true
  %24 = xor i1 %22, true
  %25 = xor i1 false, true
  %26 = and i1 %23, false
  %27 = and i1 %21, %25
  %28 = and i1 %24, false
  %29 = and i1 %22, %25
  %30 = or i1 %26, %27
  %31 = or i1 %28, %29
  %32 = xor i1 %30, %31
  %33 = or i1 %23, %24
  %34 = xor i1 %33, true
  %35 = or i1 false, %25
  %36 = and i1 %34, %35
  %37 = or i1 %32, %36
  %38 = or i1 %21, %22
  %39 = select i1 %37, i32 375539012, i32 154410340
  store i32 %39, i32* %16
  br label %72

; <label>:40:                                     ; preds = %17
  %41 = alloca %"class.std::allocator"*, align 8
  %42 = alloca i32*, align 8
  %43 = alloca i64, align 8
  store %"class.std::allocator"* %0, %"class.std::allocator"** %41, align 8
  store i32* %1, i32** %42, align 8
  store i64 %2, i64* %43, align 8
  %44 = load %"class.std::allocator"*, %"class.std::allocator"** %41, align 8
  %45 = bitcast %"class.std::allocator"* %44 to %"class.__gnu_cxx::new_allocator"*
  %46 = load i32*, i32** %42, align 8
  %47 = load i64, i64* %43, align 8
  call void @_ZN9__gnu_cxx13new_allocatorIiE10deallocateEPim(%"class.__gnu_cxx::new_allocator"* %45, i32* %46, i64 %47)
  %48 = load i32, i32* @x.84
  %49 = load i32, i32* @y.85
  %50 = add i32 %48, 1058960974
  %51 = sub i32 %50, 1
  %52 = sub i32 %51, 1058960974
  %53 = sub i32 %48, 1
  %54 = mul i32 %48, %52
  %55 = urem i32 %54, 2
  %56 = icmp eq i32 %55, 0
  %57 = icmp slt i32 %49, 10
  %58 = and i1 %56, %57
  %59 = xor i1 %56, %57
  %60 = or i1 %58, %59
  %61 = or i1 %56, %57
  %62 = select i1 %60, i32 -18310127, i32 154410340
  store i32 %62, i32* %16
  br label %72

; <label>:63:                                     ; preds = %17
  ret void

; <label>:64:                                     ; preds = %17
  %65 = alloca %"class.std::allocator"*, align 8
  %66 = alloca i32*, align 8
  %67 = alloca i64, align 8
  store %"class.std::allocator"* %0, %"class.std::allocator"** %65, align 8
  store i32* %1, i32** %66, align 8
  store i64 %2, i64* %67, align 8
  %68 = load %"class.std::allocator"*, %"class.std::allocator"** %65, align 8
  %69 = bitcast %"class.std::allocator"* %68 to %"class.__gnu_cxx::new_allocator"*
  %70 = load i32*, i32** %66, align 8
  %71 = load i64, i64* %67, align 8
  call void @_ZN9__gnu_cxx13new_allocatorIiE10deallocateEPim(%"class.__gnu_cxx::new_allocator"* %69, i32* %70, i64 %71)
  store i32 375539012, i32* %16
  br label %72

; <label>:72:                                     ; preds = %64, %40, %20, %19
  br label %17
}

; Function Attrs: noinline nounwind uwtable
define linkonce_odr void @_ZN9__gnu_cxx13new_allocatorIiE10deallocateEPim(%"class.__gnu_cxx::new_allocator"*, i32*, i64) #5 comdat align 2 {
  %4 = alloca %"class.__gnu_cxx::new_allocator"*, align 8
  %5 = alloca i32*, align 8
  %6 = alloca i64, align 8
  store %"class.__gnu_cxx::new_allocator"* %0, %"class.__gnu_cxx::new_allocator"** %4, align 8
  store i32* %1, i32** %5, align 8
  store i64 %2, i64* %6, align 8
  %7 = load %"class.__gnu_cxx::new_allocator"*, %"class.__gnu_cxx::new_allocator"** %4, align 8
  %8 = load i32*, i32** %5, align 8
  %9 = bitcast i32* %8 to i8*
  call void @_ZdlPv(i8* %9) #3
  ret void
}

; Function Attrs: nobuiltin nounwind
declare void @_ZdlPv(i8*) #9

; Function Attrs: noinline uwtable
define linkonce_odr void @_ZSt8_DestroyIPiiEvT_S1_RSaIT0_E(i32*, i32*, %"class.std::allocator"* dereferenceable(1)) #0 comdat {
  %4 = alloca i1
  %5 = alloca i1
  %6 = load i32, i32* @x.88
  %7 = load i32, i32* @y.89
  %8 = sub i32 0, 1
  %9 = add i32 %6, %8
  %10 = sub i32 %6, 1
  %11 = mul i32 %6, %9
  %12 = urem i32 %11, 2
  %13 = icmp eq i32 %12, 0
  store i1 %13, i1* %5
  %14 = icmp slt i32 %7, 10
  store i1 %14, i1* %4
  %15 = alloca i32
  store i32 590926598, i32* %15
  br label %16

; <label>:16:                                     ; preds = %3, %54
  %17 = load i32, i32* %15
  switch i32 %17, label %18 [
    i32 590926598, label %19
    i32 1634024181, label %27
    i32 1071357563, label %47
    i32 2132749073, label %48
  ]

; <label>:18:                                     ; preds = %16
  br label %54

; <label>:19:                                     ; preds = %16
  %20 = load volatile i1, i1* %5
  %21 = load volatile i1, i1* %4
  %22 = and i1 %20, %21
  %23 = xor i1 %20, %21
  %24 = or i1 %22, %23
  %25 = or i1 %20, %21
  %26 = select i1 %24, i32 1634024181, i32 2132749073
  store i32 %26, i32* %15
  br label %54

; <label>:27:                                     ; preds = %16
  %28 = alloca i32*, align 8
  %29 = alloca i32*, align 8
  %30 = alloca %"class.std::allocator"*, align 8
  store i32* %0, i32** %28, align 8
  store i32* %1, i32** %29, align 8
  store %"class.std::allocator"* %2, %"class.std::allocator"** %30, align 8
  %31 = load i32*, i32** %28, align 8
  %32 = load i32*, i32** %29, align 8
  call void @_ZSt8_DestroyIPiEvT_S1_(i32* %31, i32* %32)
  %33 = load i32, i32* @x.88
  %34 = load i32, i32* @y.89
  %35 = sub i32 0, 1
  %36 = add i32 %33, %35
  %37 = sub i32 %33, 1
  %38 = mul i32 %33, %36
  %39 = urem i32 %38, 2
  %40 = icmp eq i32 %39, 0
  %41 = icmp slt i32 %34, 10
  %42 = and i1 %40, %41
  %43 = xor i1 %40, %41
  %44 = or i1 %42, %43
  %45 = or i1 %40, %41
  %46 = select i1 %44, i32 1071357563, i32 2132749073
  store i32 %46, i32* %15
  br label %54

; <label>:47:                                     ; preds = %16
  ret void

; <label>:48:                                     ; preds = %16
  %49 = alloca i32*, align 8
  %50 = alloca i32*, align 8
  %51 = alloca %"class.std::allocator"*, align 8
  store i32* %0, i32** %49, align 8
  store i32* %1, i32** %50, align 8
  store %"class.std::allocator"* %2, %"class.std::allocator"** %51, align 8
  %52 = load i32*, i32** %49, align 8
  %53 = load i32*, i32** %50, align 8
  call void @_ZSt8_DestroyIPiEvT_S1_(i32* %52, i32* %53)
  store i32 1634024181, i32* %15
  br label %54

; <label>:54:                                     ; preds = %48, %27, %19, %18
  br label %16
}

; Function Attrs: noinline uwtable
define linkonce_odr void @_ZSt8_DestroyIPiEvT_S1_(i32*, i32*) #0 comdat {
  %3 = alloca i1
  %4 = alloca i1
  %5 = load i32, i32* @x.90
  %6 = load i32, i32* @y.91
  %7 = sub i32 %5, 2055436709
  %8 = sub i32 %7, 1
  %9 = add i32 %8, 2055436709
  %10 = sub i32 %5, 1
  %11 = mul i32 %5, %9
  %12 = urem i32 %11, 2
  %13 = icmp eq i32 %12, 0
  store i1 %13, i1* %4
  %14 = icmp slt i32 %6, 10
  store i1 %14, i1* %3
  %15 = alloca i32
  store i32 1444777748, i32* %15
  br label %16

; <label>:16:                                     ; preds = %2, %64
  %17 = load i32, i32* %15
  switch i32 %17, label %18 [
    i32 1444777748, label %19
    i32 568505133, label %39
    i32 -369988921, label %58
    i32 1093242352, label %59
  ]

; <label>:18:                                     ; preds = %16
  br label %64

; <label>:19:                                     ; preds = %16
  %20 = load volatile i1, i1* %4
  %21 = load volatile i1, i1* %3
  %22 = xor i1 %20, true
  %23 = xor i1 %21, true
  %24 = xor i1 false, true
  %25 = and i1 %22, false
  %26 = and i1 %20, %24
  %27 = and i1 %23, false
  %28 = and i1 %21, %24
  %29 = or i1 %25, %26
  %30 = or i1 %27, %28
  %31 = xor i1 %29, %30
  %32 = or i1 %22, %23
  %33 = xor i1 %32, true
  %34 = or i1 false, %24
  %35 = and i1 %33, %34
  %36 = or i1 %31, %35
  %37 = or i1 %20, %21
  %38 = select i1 %36, i32 568505133, i32 1093242352
  store i32 %38, i32* %15
  br label %64

; <label>:39:                                     ; preds = %16
  %40 = alloca i32*, align 8
  %41 = alloca i32*, align 8
  store i32* %0, i32** %40, align 8
  store i32* %1, i32** %41, align 8
  %42 = load i32*, i32** %40, align 8
  %43 = load i32*, i32** %41, align 8
  call void @_ZNSt12_Destroy_auxILb1EE9__destroyIPiEEvT_S3_(i32* %42, i32* %43)
  %44 = load i32, i32* @x.90
  %45 = load i32, i32* @y.91
  %46 = sub i32 0, 1
  %47 = add i32 %44, %46
  %48 = sub i32 %44, 1
  %49 = mul i32 %44, %47
  %50 = urem i32 %49, 2
  %51 = icmp eq i32 %50, 0
  %52 = icmp slt i32 %45, 10
  %53 = and i1 %51, %52
  %54 = xor i1 %51, %52
  %55 = or i1 %53, %54
  %56 = or i1 %51, %52
  %57 = select i1 %55, i32 -369988921, i32 1093242352
  store i32 %57, i32* %15
  br label %64

; <label>:58:                                     ; preds = %16
  ret void

; <label>:59:                                     ; preds = %16
  %60 = alloca i32*, align 8
  %61 = alloca i32*, align 8
  store i32* %0, i32** %60, align 8
  store i32* %1, i32** %61, align 8
  %62 = load i32*, i32** %60, align 8
  %63 = load i32*, i32** %61, align 8
  call void @_ZNSt12_Destroy_auxILb1EE9__destroyIPiEEvT_S3_(i32* %62, i32* %63)
  store i32 568505133, i32* %15
  br label %64

; <label>:64:                                     ; preds = %59, %39, %19, %18
  br label %16
}

; Function Attrs: noinline nounwind uwtable
define linkonce_odr void @_ZNSt12_Destroy_auxILb1EE9__destroyIPiEEvT_S3_(i32*, i32*) #5 comdat align 2 {
  %3 = alloca i32*, align 8
  %4 = alloca i32*, align 8
  store i32* %0, i32** %3, align 8
  store i32* %1, i32** %4, align 8
  ret void
}

; Function Attrs: noinline uwtable
define internal void @_GLOBAL__sub_I_s740672016.cpp() #0 section ".text.startup" {
  call void @__cxx_global_var_init()
  ret void
}

attributes #0 = { noinline uwtable "correctly-rounded-divide-sqrt-fp-math"="false" "disable-tail-calls"="false" "less-precise-fpmad"="false" "no-frame-pointer-elim"="true" "no-frame-pointer-elim-non-leaf" "no-infs-fp-math"="false" "no-jump-tables"="false" "no-nans-fp-math"="false" "no-signed-zeros-fp-math"="false" "no-trapping-math"="false" "stack-protector-buffer-size"="8" "target-cpu"="x86-64" "target-features"="+fxsr,+mmx,+sse,+sse2,+x87" "unsafe-fp-math"="false" "use-soft-float"="false" }
attributes #1 = { "correctly-rounded-divide-sqrt-fp-math"="false" "disable-tail-calls"="false" "less-precise-fpmad"="false" "no-frame-pointer-elim"="true" "no-frame-pointer-elim-non-leaf" "no-infs-fp-math"="false" "no-nans-fp-math"="false" "no-signed-zeros-fp-math"="false" "no-trapping-math"="false" "stack-protector-buffer-size"="8" "target-cpu"="x86-64" "target-features"="+fxsr,+mmx,+sse,+sse2,+x87" "unsafe-fp-math"="false" "use-soft-float"="false" }
attributes #2 = { nounwind "correctly-rounded-divide-sqrt-fp-math"="false" "disable-tail-calls"="false" "less-precise-fpmad"="false" "no-frame-pointer-elim"="true" "no-frame-pointer-elim-non-leaf" "no-infs-fp-math"="false" "no-nans-fp-math"="false" "no-signed-zeros-fp-math"="false" "no-trapping-math"="false" "stack-protector-buffer-size"="8" "target-cpu"="x86-64" "target-features"="+fxsr,+mmx,+sse,+sse2,+x87" "unsafe-fp-math"="false" "use-soft-float"="false" }
attributes #3 = { nounwind }
attributes #4 = { noinline norecurse uwtable "correctly-rounded-divide-sqrt-fp-math"="false" "disable-tail-calls"="false" "less-precise-fpmad"="false" "no-frame-pointer-elim"="true" "no-frame-pointer-elim-non-leaf" "no-infs-fp-math"="false" "no-jump-tables"="false" "no-nans-fp-math"="false" "no-signed-zeros-fp-math"="false" "no-trapping-math"="false" "stack-protector-buffer-size"="8" "target-cpu"="x86-64" "target-features"="+fxsr,+mmx,+sse,+sse2,+x87" "unsafe-fp-math"="false" "use-soft-float"="false" }
attributes #5 = { noinline nounwind uwtable "correctly-rounded-divide-sqrt-fp-math"="false" "disable-tail-calls"="false" "less-precise-fpmad"="false" "no-frame-pointer-elim"="true" "no-frame-pointer-elim-non-leaf" "no-infs-fp-math"="false" "no-jump-tables"="false" "no-nans-fp-math"="false" "no-signed-zeros-fp-math"="false" "no-trapping-math"="false" "stack-protector-buffer-size"="8" "target-cpu"="x86-64" "target-features"="+fxsr,+mmx,+sse,+sse2,+x87" "unsafe-fp-math"="false" "use-soft-float"="false" }
attributes #6 = { noreturn "correctly-rounded-divide-sqrt-fp-math"="false" "disable-tail-calls"="false" "less-precise-fpmad"="false" "no-frame-pointer-elim"="true" "no-frame-pointer-elim-non-leaf" "no-infs-fp-math"="false" "no-nans-fp-math"="false" "no-signed-zeros-fp-math"="false" "no-trapping-math"="false" "stack-protector-buffer-size"="8" "target-cpu"="x86-64" "target-features"="+fxsr,+mmx,+sse,+sse2,+x87" "unsafe-fp-math"="false" "use-soft-float"="false" }
attributes #7 = { noinline noreturn nounwind }
attributes #8 = { nobuiltin "correctly-rounded-divide-sqrt-fp-math"="false" "disable-tail-calls"="false" "less-precise-fpmad"="false" "no-frame-pointer-elim"="true" "no-frame-pointer-elim-non-leaf" "no-infs-fp-math"="false" "no-nans-fp-math"="false" "no-signed-zeros-fp-math"="false" "no-trapping-math"="false" "stack-protector-buffer-size"="8" "target-cpu"="x86-64" "target-features"="+fxsr,+mmx,+sse,+sse2,+x87" "unsafe-fp-math"="false" "use-soft-float"="false" }
attributes #9 = { nobuiltin nounwind "correctly-rounded-divide-sqrt-fp-math"="false" "disable-tail-calls"="false" "less-precise-fpmad"="false" "no-frame-pointer-elim"="true" "no-frame-pointer-elim-non-leaf" "no-infs-fp-math"="false" "no-nans-fp-math"="false" "no-signed-zeros-fp-math"="false" "no-trapping-math"="false" "stack-protector-buffer-size"="8" "target-cpu"="x86-64" "target-features"="+fxsr,+mmx,+sse,+sse2,+x87" "unsafe-fp-math"="false" "use-soft-float"="false" }
attributes #10 = { noreturn nounwind }
attributes #11 = { noreturn }

!llvm.ident = !{!0}

!0 = !{!"Obfuscator-LLVM clang version 4.0.1  (based on Obfuscator-LLVM 4.0.1)"}
