; ModuleID = 'Project_CodeNet_C++1400/p03561/s800264177.cpp'
source_filename = "Project_CodeNet_C++1400/p03561/s800264177.cpp"
target datalayout = "e-m:e-p270:32:32-p271:32:32-p272:64:64-i64:64-f80:128-n8:16:32:64-S128"
target triple = "x86_64-pc-linux-gnu"

%"class.std::ios_base::Init" = type { i8 }
%"class.std::basic_ostream" = type { i32 (...)**, %"class.std::basic_ios" }
%"class.std::basic_ios" = type { %"class.std::ios_base", %"class.std::basic_ostream"*, i8, i8, %"class.std::basic_streambuf"*, %"class.std::ctype"*, %"class.std::num_put"*, %"class.std::num_get"* }
%"class.std::ios_base" = type { i32 (...)**, i64, i64, i32, i32, i32, %"struct.std::ios_base::_Callback_list"*, %"struct.std::ios_base::_Words", [8 x %"struct.std::ios_base::_Words"], i32, %"struct.std::ios_base::_Words"*, %"class.std::locale" }
%"struct.std::ios_base::_Callback_list" = type { %"struct.std::ios_base::_Callback_list"*, void (i32, %"class.std::ios_base"*, i32)*, i32, i32 }
%"struct.std::ios_base::_Words" = type { i8*, i64 }
%"class.std::locale" = type { %"class.std::locale::_Impl"* }
%"class.std::locale::_Impl" = type { i32, %"class.std::locale::facet"**, i64, %"class.std::locale::facet"**, i8** }
%"class.std::locale::facet" = type <{ i32 (...)**, i32, [4 x i8] }>
%"class.std::basic_streambuf" = type { i32 (...)**, i8*, i8*, i8*, i8*, i8*, i8*, %"class.std::locale" }
%"class.std::ctype" = type <{ %"class.std::locale::facet.base", [4 x i8], %struct.__locale_struct*, i8, [7 x i8], i32*, i32*, i16*, i8, [256 x i8], [256 x i8], i8, [6 x i8] }>
%"class.std::locale::facet.base" = type <{ i32 (...)**, i32 }>
%struct.__locale_struct = type { [13 x %struct.__locale_data*], i16*, i32*, i32*, [13 x i8*] }
%struct.__locale_data = type opaque
%"class.std::num_put" = type { %"class.std::locale::facet.base", [4 x i8] }
%"class.std::num_get" = type { %"class.std::locale::facet.base", [4 x i8] }
%"class.std::basic_istream" = type { i32 (...)**, i64, %"class.std::basic_ios" }
%"class.std::__cxx11::basic_string" = type { %"struct.std::__cxx11::basic_string<char>::_Alloc_hider", i64, %union.anon }
%"struct.std::__cxx11::basic_string<char>::_Alloc_hider" = type { i8* }
%union.anon = type { i64, [8 x i8] }
%"class.std::vector" = type { %"struct.std::_Vector_base" }
%"struct.std::_Vector_base" = type { %"struct.std::_Vector_base<int, std::allocator<int>>::_Vector_impl" }
%"struct.std::_Vector_base<int, std::allocator<int>>::_Vector_impl" = type { %"struct.std::_Vector_base<int, std::allocator<int>>::_Vector_impl_data" }
%"struct.std::_Vector_base<int, std::allocator<int>>::_Vector_impl_data" = type { i32*, i32*, i32* }
%"class.std::vector.3" = type { %"struct.std::_Vector_base.4" }
%"struct.std::_Vector_base.4" = type { %"struct.std::_Vector_base<std::vector<int>, std::allocator<std::vector<int>>>::_Vector_impl" }
%"struct.std::_Vector_base<std::vector<int>, std::allocator<std::vector<int>>>::_Vector_impl" = type { %"struct.std::_Vector_base<std::vector<int>, std::allocator<std::vector<int>>>::_Vector_impl_data" }
%"struct.std::_Vector_base<std::vector<int>, std::allocator<std::vector<int>>>::_Vector_impl_data" = type { %"class.std::vector"*, %"class.std::vector"*, %"class.std::vector"* }
%"class.std::function" = type { %"class.std::_Function_base", void (%"union.std::_Any_data"*, %"class.std::vector"*)* }
%"class.std::_Function_base" = type { %"union.std::_Any_data", i1 (%"union.std::_Any_data"*, %"union.std::_Any_data"*, i32)* }
%"union.std::_Any_data" = type { %"union.std::_Nocopy_types" }
%"union.std::_Nocopy_types" = type { { i64, i64 } }
%"class.std::allocator.0" = type { i8 }
%"class.__gnu_cxx::new_allocator.1" = type { i8 }
%class.anon = type { %"class.std::vector.3"*, i32*, i32*, %"class.std::function"* }
%"class.std::type_info" = type { i32 (...)**, i8* }
%"class.std::allocator.5" = type { i8 }
%"class.__gnu_cxx::new_allocator.6" = type { i8 }
%"struct.__gnu_cxx::__ops::_Iter_less_iter" = type { i8 }
%"struct.__gnu_cxx::__ops::_Iter_less_val" = type { i8 }

$_ZNKSt8functionIFvSt6vectorIiSaIiEEEEclES2_ = comdat any

$_ZNSt6vectorIiSaIiEEC2EmRKS0_ = comdat any

$_ZNSt6vectorIiSaIiEEC2ERKS1_ = comdat any

$_ZNSt14_Function_baseD2Ev = comdat any

$_ZNSt6vectorIS_IiSaIiEESaIS1_EED2Ev = comdat any

$_ZNSt6vectorIiSaIiEE9push_backERKi = comdat any

$__clang_call_terminate = comdat any

$_ZNSt12_Vector_baseISt6vectorIiSaIiEESaIS2_EED2Ev = comdat any

$_ZNSt12_Destroy_auxILb0EE9__destroyIPSt6vectorIiSaIiEEEEvT_S6_ = comdat any

$_ZNSt6vectorIiSaIiEE17_M_realloc_insertIJRKiEEEvN9__gnu_cxx17__normal_iteratorIPiS1_EEDpOT_ = comdat any

$_ZNKSt6vectorIiSaIiEE12_M_check_lenEmPKc = comdat any

$_ZNSt12_Vector_baseIiSaIiEE11_M_allocateEm = comdat any

$_ZNSt16allocator_traitsISaIiEE8allocateERS0_m = comdat any

$_ZN9__gnu_cxx13new_allocatorIiE8allocateEmPKv = comdat any

$_ZNSt12_Vector_baseIiSaIiEED2Ev = comdat any

$_ZNSt12_Vector_baseIiSaIiEE17_M_create_storageEm = comdat any

$_ZNSt6vectorIS_IiSaIiEESaIS1_EE9push_backERKS1_ = comdat any

$_ZNSt6vectorIS_IiSaIiEESaIS1_EE17_M_realloc_insertIJRKS1_EEEvN9__gnu_cxx17__normal_iteratorIPS1_S3_EEDpOT_ = comdat any

$_ZNKSt6vectorIS_IiSaIiEESaIS1_EE12_M_check_lenEmPKc = comdat any

$_ZNSt12_Vector_baseISt6vectorIiSaIiEESaIS2_EE11_M_allocateEm = comdat any

$_ZNSt16allocator_traitsISaISt6vectorIiSaIiEEEE8allocateERS3_m = comdat any

$_ZN9__gnu_cxx13new_allocatorISt6vectorIiSaIiEEE8allocateEmPKv = comdat any

$_ZSt14__relocate_a_1IPSt6vectorIiSaIiEES3_SaIS2_EET0_T_S6_S5_RT1_ = comdat any

$_ZSt19__relocate_object_aISt6vectorIiSaIiEES2_SaIS2_EEvPT_PT0_RT1_ = comdat any

$_ZNSt6vectorIiSaIiEE17_S_check_init_lenEmRKS0_ = comdat any

$_ZNSt6vectorIiSaIiEE21_M_default_initializeEm = comdat any

$_ZNSt27__uninitialized_default_n_1ILb1EE18__uninit_default_nIPimEET_S3_T0_ = comdat any

$_ZSt10__fill_n_aIPimiET_S1_T0_RKT1_St26random_access_iterator_tag = comdat any

$_ZSt6__sortIN9__gnu_cxx17__normal_iteratorIPSt6vectorIiSaIiEES2_IS4_SaIS4_EEEENS0_5__ops15_Iter_less_iterEEvT_SB_T0_ = comdat any

$_ZSt16__introsort_loopIN9__gnu_cxx17__normal_iteratorIPSt6vectorIiSaIiEES2_IS4_SaIS4_EEEElNS0_5__ops15_Iter_less_iterEEvT_SB_T0_T1_ = comdat any

$_ZSt22__final_insertion_sortIN9__gnu_cxx17__normal_iteratorIPSt6vectorIiSaIiEES2_IS4_SaIS4_EEEENS0_5__ops15_Iter_less_iterEEvT_SB_T0_ = comdat any

$_ZSt14__partial_sortIN9__gnu_cxx17__normal_iteratorIPSt6vectorIiSaIiEES2_IS4_SaIS4_EEEENS0_5__ops15_Iter_less_iterEEvT_SB_SB_T0_ = comdat any

$_ZSt27__unguarded_partition_pivotIN9__gnu_cxx17__normal_iteratorIPSt6vectorIiSaIiEES2_IS4_SaIS4_EEEENS0_5__ops15_Iter_less_iterEET_SB_SB_T0_ = comdat any

$_ZSt13__heap_selectIN9__gnu_cxx17__normal_iteratorIPSt6vectorIiSaIiEES2_IS4_SaIS4_EEEENS0_5__ops15_Iter_less_iterEEvT_SB_SB_T0_ = comdat any

$_ZSt11__sort_heapIN9__gnu_cxx17__normal_iteratorIPSt6vectorIiSaIiEES2_IS4_SaIS4_EEEENS0_5__ops15_Iter_less_iterEEvT_SB_RT0_ = comdat any

$_ZSt11__make_heapIN9__gnu_cxx17__normal_iteratorIPSt6vectorIiSaIiEES2_IS4_SaIS4_EEEENS0_5__ops15_Iter_less_iterEEvT_SB_RT0_ = comdat any

$_ZSt10__pop_heapIN9__gnu_cxx17__normal_iteratorIPSt6vectorIiSaIiEES2_IS4_SaIS4_EEEENS0_5__ops15_Iter_less_iterEEvT_SB_SB_RT0_ = comdat any

$_ZSt13__adjust_heapIN9__gnu_cxx17__normal_iteratorIPSt6vectorIiSaIiEES2_IS4_SaIS4_EEEElS4_NS0_5__ops15_Iter_less_iterEEvT_T0_SC_T1_T2_ = comdat any

$_ZSt11__push_heapIN9__gnu_cxx17__normal_iteratorIPSt6vectorIiSaIiEES2_IS4_SaIS4_EEEElS4_NS0_5__ops14_Iter_less_valEEvT_T0_SC_T1_RT2_ = comdat any

$_ZNSt6vectorIiSaIiEE14_M_move_assignEOS1_St17integral_constantIbLb1EE = comdat any

$_ZNSt12_Vector_baseIiSaIiEE17_Vector_impl_data12_M_swap_dataERS2_ = comdat any

$_ZStltIiSaIiEEbRKSt6vectorIT_T0_ES6_ = comdat any

$_ZSt30__lexicographical_compare_implIPKiS1_N9__gnu_cxx5__ops15_Iter_less_iterEEbT_S5_T0_S6_T1_ = comdat any

$_ZSt22__move_median_to_firstIN9__gnu_cxx17__normal_iteratorIPSt6vectorIiSaIiEES2_IS4_SaIS4_EEEENS0_5__ops15_Iter_less_iterEEvT_SB_SB_SB_T0_ = comdat any

$_ZSt21__unguarded_partitionIN9__gnu_cxx17__normal_iteratorIPSt6vectorIiSaIiEES2_IS4_SaIS4_EEEENS0_5__ops15_Iter_less_iterEET_SB_SB_SB_T0_ = comdat any

$_ZSt16__insertion_sortIN9__gnu_cxx17__normal_iteratorIPSt6vectorIiSaIiEES2_IS4_SaIS4_EEEENS0_5__ops15_Iter_less_iterEEvT_SB_T0_ = comdat any

$_ZSt26__unguarded_insertion_sortIN9__gnu_cxx17__normal_iteratorIPSt6vectorIiSaIiEES2_IS4_SaIS4_EEEENS0_5__ops15_Iter_less_iterEEvT_SB_T0_ = comdat any

$_ZSt25__unguarded_linear_insertIN9__gnu_cxx17__normal_iteratorIPSt6vectorIiSaIiEES2_IS4_SaIS4_EEEENS0_5__ops14_Val_less_iterEEvT_T0_ = comdat any

$_ZSt22__copy_move_backward_aILb1EN9__gnu_cxx17__normal_iteratorIPSt6vectorIiSaIiEES2_IS4_SaIS4_EEEES8_ET1_T0_SA_S9_ = comdat any

$_ZNSt20__copy_move_backwardILb1ELb0ESt26random_access_iterator_tagE13__copy_move_bIPSt6vectorIiSaIiEES6_EET0_T_S8_S7_ = comdat any

$_ZNSt6vectorIiSaIiEE12emplace_backIJiEEEvDpOT_ = comdat any

$_ZNSt6vectorIiSaIiEE17_M_realloc_insertIJiEEEvN9__gnu_cxx17__normal_iteratorIPiS1_EEDpOT_ = comdat any

@_ZStL8__ioinit = internal global %"class.std::ios_base::Init" zeroinitializer, align 1
@__dso_handle = external hidden global i8
@_ZSt4cerr = external global %"class.std::basic_ostream", align 8
@_ZSt3cin = external global %"class.std::basic_istream", align 8
@_ZSt4cout = external global %"class.std::basic_ostream", align 8
@.str = private unnamed_addr constant [2 x i8] c"\0A\00", align 1
@.str.1 = private unnamed_addr constant [2 x i8] c" \00", align 1
@.str.2 = private unnamed_addr constant [26 x i8] c"vector::_M_realloc_insert\00", align 1
@_ZTVN10__cxxabiv117__class_type_infoE = external global i8*
@"_ZTSZ11solve_naiveiiE3$_0" = internal constant [22 x i8] c"Z11solve_naiveiiE3$_0\00", align 1
@"_ZTIZ11solve_naiveiiE3$_0" = internal constant { i8*, i8* } { i8* bitcast (i8** getelementptr inbounds (i8*, i8** @_ZTVN10__cxxabiv117__class_type_infoE, i64 2) to i8*), i8* getelementptr inbounds ([22 x i8], [22 x i8]* @"_ZTSZ11solve_naiveiiE3$_0", i32 0, i32 0) }, align 8
@.str.3 = private unnamed_addr constant [49 x i8] c"cannot create std::vector larger than max_size()\00", align 1
@llvm.global_ctors = appending global [1 x { i32, void ()*, i8* }] [{ i32, void ()*, i8* } { i32 65535, void ()* @_GLOBAL__sub_I_s800264177.cpp, i8* null }]

; Function Attrs: minsize optsize
declare void @_ZNSt8ios_base4InitC1Ev(%"class.std::ios_base::Init"* nonnull align 1 dereferenceable(1)) unnamed_addr #0

; Function Attrs: minsize nounwind optsize
declare void @_ZNSt8ios_base4InitD1Ev(%"class.std::ios_base::Init"* nonnull align 1 dereferenceable(1)) unnamed_addr #1

; Function Attrs: nofree nounwind
declare i32 @__cxa_atexit(void (i8*)*, i8*, i8*) local_unnamed_addr #2

; Function Attrs: minsize mustprogress optsize sspstrong uwtable
define dso_local void @_Z8dbgprintRKNSt7__cxx1112basic_stringIcSt11char_traitsIcESaIcEEE(%"class.std::__cxx11::basic_string"* nocapture nonnull readnone align 8 dereferenceable(32) %0) local_unnamed_addr #3 {
  %2 = tail call nonnull align 8 dereferenceable(8) %"class.std::basic_ostream"* @_ZSt4endlIcSt11char_traitsIcEERSt13basic_ostreamIT_T0_ES6_(%"class.std::basic_ostream"* nonnull align 8 dereferenceable(8) @_ZSt4cerr) #21
  ret void
}

; Function Attrs: inlinehint minsize mustprogress optsize sspstrong uwtable
declare nonnull align 8 dereferenceable(8) %"class.std::basic_ostream"* @_ZSt4endlIcSt11char_traitsIcEERSt13basic_ostreamIT_T0_ES6_(%"class.std::basic_ostream"* nonnull align 8 dereferenceable(8)) local_unnamed_addr #4

; Function Attrs: minsize optsize sspstrong uwtable
define dso_local void @_Z11solve_naiveii(%"class.std::vector"* noalias sret(%"class.std::vector") align 8 %0, i32 %1, i32 %2) local_unnamed_addr #5 personality i8* bitcast (i32 (...)* @__gxx_personality_v0 to i8*) {
  %4 = alloca i32, align 4
  %5 = alloca i32, align 4
  %6 = alloca %"class.std::vector.3", align 8
  %7 = alloca %"class.std::function", align 8
  %8 = alloca %"class.std::vector", align 8
  %9 = alloca %"class.std::allocator.0", align 1
  store i32 %1, i32* %4, align 4, !tbaa !5
  store i32 %2, i32* %5, align 4, !tbaa !5
  %10 = bitcast %"class.std::vector.3"* %6 to i8*
  call void @llvm.lifetime.start.p0i8(i64 24, i8* nonnull %10) #22
  call void @llvm.memset.p0i8.i64(i8* noundef nonnull align 8 dereferenceable(24) %10, i8 0, i64 24, i1 false) #22
  %11 = bitcast %"class.std::function"* %7 to i8*
  call void @llvm.lifetime.start.p0i8(i64 32, i8* nonnull %11) #22
  %12 = getelementptr inbounds %"class.std::function", %"class.std::function"* %7, i64 0, i32 0, i32 1
  store i1 (%"union.std::_Any_data"*, %"union.std::_Any_data"*, i32)* null, i1 (%"union.std::_Any_data"*, %"union.std::_Any_data"*, i32)** %12, align 8, !tbaa !9
  %13 = invoke noalias nonnull dereferenceable(32) i8* @_Znwm(i64 32) #23
          to label %17 unwind label %14

14:                                               ; preds = %3
  %15 = landingpad { i8*, i32 }
          cleanup
  %16 = getelementptr inbounds %"class.std::function", %"class.std::function"* %7, i64 0, i32 0
  call void @_ZNSt14_Function_baseD2Ev(%"class.std::_Function_base"* nonnull align 8 dereferenceable(24) %16) #24
  br label %60

17:                                               ; preds = %3
  %18 = bitcast i8* %13 to %"class.std::vector.3"**
  store %"class.std::vector.3"* %6, %"class.std::vector.3"** %18, align 16, !tbaa.struct !12
  %19 = getelementptr inbounds i8, i8* %13, i64 8
  %20 = bitcast i8* %19 to i32**
  store i32* %5, i32** %20, align 8, !tbaa.struct !14
  %21 = getelementptr inbounds i8, i8* %13, i64 16
  %22 = bitcast i8* %21 to i32**
  store i32* %4, i32** %22, align 16, !tbaa.struct !15
  %23 = getelementptr inbounds i8, i8* %13, i64 24
  %24 = bitcast i8* %23 to %"class.std::function"**
  store %"class.std::function"* %7, %"class.std::function"** %24, align 8, !tbaa.struct !16
  %25 = bitcast %"class.std::function"* %7 to i8**
  store i8* %13, i8** %25, align 8, !tbaa !13
  %26 = getelementptr inbounds %"class.std::function", %"class.std::function"* %7, i64 0, i32 1
  store void (%"union.std::_Any_data"*, %"class.std::vector"*)* @"_ZNSt17_Function_handlerIFvSt6vectorIiSaIiEEEZ11solve_naiveiiE3$_0E9_M_invokeERKSt9_Any_dataOS2_", void (%"union.std::_Any_data"*, %"class.std::vector"*)** %26, align 8, !tbaa !17
  store i1 (%"union.std::_Any_data"*, %"union.std::_Any_data"*, i32)* @"_ZNSt17_Function_handlerIFvSt6vectorIiSaIiEEEZ11solve_naiveiiE3$_0E10_M_managerERSt9_Any_dataRKS6_St18_Manager_operation", i1 (%"union.std::_Any_data"*, %"union.std::_Any_data"*, i32)** %12, align 8, !tbaa !9
  %27 = getelementptr inbounds %"class.std::allocator.0", %"class.std::allocator.0"* %9, i64 0, i32 0
  call void @llvm.lifetime.start.p0i8(i64 1, i8* nonnull %27) #22
  invoke void @_ZNSt6vectorIiSaIiEEC2EmRKS0_(%"class.std::vector"* nonnull align 8 dereferenceable(24) %8, i64 0, %"class.std::allocator.0"* nonnull align 1 dereferenceable(1) %9) #21
          to label %28 unwind label %48

28:                                               ; preds = %17
  invoke void @_ZNKSt8functionIFvSt6vectorIiSaIiEEEEclES2_(%"class.std::function"* nonnull align 8 dereferenceable(32) %7, %"class.std::vector"* nonnull %8) #21
          to label %29 unwind label %50

29:                                               ; preds = %28
  %30 = getelementptr inbounds %"class.std::vector", %"class.std::vector"* %8, i64 0, i32 0
  call void @_ZNSt12_Vector_baseIiSaIiEED2Ev(%"struct.std::_Vector_base"* nonnull align 8 dereferenceable(24) %30) #24
  call void @llvm.lifetime.end.p0i8(i64 1, i8* nonnull %27) #22
  %31 = getelementptr inbounds %"class.std::vector.3", %"class.std::vector.3"* %6, i64 0, i32 0, i32 0, i32 0, i32 0
  %32 = load %"class.std::vector"*, %"class.std::vector"** %31, align 8, !tbaa !13
  %33 = getelementptr inbounds %"class.std::vector.3", %"class.std::vector.3"* %6, i64 0, i32 0, i32 0, i32 0, i32 1
  %34 = load %"class.std::vector"*, %"class.std::vector"** %33, align 8, !tbaa !13
  invoke void @_ZSt6__sortIN9__gnu_cxx17__normal_iteratorIPSt6vectorIiSaIiEES2_IS4_SaIS4_EEEENS0_5__ops15_Iter_less_iterEEvT_SB_T0_(%"class.std::vector"* %32, %"class.std::vector"* %34) #21
          to label %35 unwind label %55

35:                                               ; preds = %29
  %36 = load %"class.std::vector"*, %"class.std::vector"** %33, align 8, !tbaa !19
  %37 = load %"class.std::vector"*, %"class.std::vector"** %31, align 8, !tbaa !21
  %38 = ptrtoint %"class.std::vector"* %36 to i64
  %39 = ptrtoint %"class.std::vector"* %37 to i64
  %40 = sub i64 %38, %39
  %41 = sdiv exact i64 %40, 24
  %42 = add nsw i64 %41, 1
  %43 = lshr i64 %42, 1
  %44 = add nsw i64 %43, -1
  %45 = getelementptr inbounds %"class.std::vector", %"class.std::vector"* %37, i64 %44
  invoke void @_ZNSt6vectorIiSaIiEEC2ERKS1_(%"class.std::vector"* nonnull align 8 dereferenceable(24) %0, %"class.std::vector"* nonnull align 8 dereferenceable(24) %45) #21
          to label %46 unwind label %55

46:                                               ; preds = %35
  %47 = getelementptr inbounds %"class.std::function", %"class.std::function"* %7, i64 0, i32 0
  call void @_ZNSt14_Function_baseD2Ev(%"class.std::_Function_base"* nonnull align 8 dereferenceable(32) %47) #24
  call void @llvm.lifetime.end.p0i8(i64 32, i8* nonnull %11) #22
  call void @_ZNSt6vectorIS_IiSaIiEESaIS1_EED2Ev(%"class.std::vector.3"* nonnull align 8 dereferenceable(24) %6) #24
  call void @llvm.lifetime.end.p0i8(i64 24, i8* nonnull %10) #22
  ret void

48:                                               ; preds = %17
  %49 = landingpad { i8*, i32 }
          cleanup
  br label %53

50:                                               ; preds = %28
  %51 = landingpad { i8*, i32 }
          cleanup
  %52 = getelementptr inbounds %"class.std::vector", %"class.std::vector"* %8, i64 0, i32 0
  call void @_ZNSt12_Vector_baseIiSaIiEED2Ev(%"struct.std::_Vector_base"* nonnull align 8 dereferenceable(24) %52) #24
  br label %53

53:                                               ; preds = %50, %48
  %54 = phi { i8*, i32 } [ %51, %50 ], [ %49, %48 ]
  call void @llvm.lifetime.end.p0i8(i64 1, i8* nonnull %27) #22
  br label %57

55:                                               ; preds = %29, %35
  %56 = landingpad { i8*, i32 }
          cleanup
  br label %57

57:                                               ; preds = %55, %53
  %58 = phi { i8*, i32 } [ %56, %55 ], [ %54, %53 ]
  %59 = getelementptr inbounds %"class.std::function", %"class.std::function"* %7, i64 0, i32 0
  call void @_ZNSt14_Function_baseD2Ev(%"class.std::_Function_base"* nonnull align 8 dereferenceable(32) %59) #24
  br label %60

60:                                               ; preds = %14, %57
  %61 = phi { i8*, i32 } [ %58, %57 ], [ %15, %14 ]
  call void @llvm.lifetime.end.p0i8(i64 32, i8* nonnull %11) #22
  call void @_ZNSt6vectorIS_IiSaIiEESaIS1_EED2Ev(%"class.std::vector.3"* nonnull align 8 dereferenceable(24) %6) #24
  call void @llvm.lifetime.end.p0i8(i64 24, i8* nonnull %10) #22
  resume { i8*, i32 } %61
}

; Function Attrs: argmemonly mustprogress nofree nosync nounwind willreturn
declare void @llvm.lifetime.start.p0i8(i64 immarg, i8* nocapture) #6

declare i32 @__gxx_personality_v0(...)

; Function Attrs: minsize mustprogress optsize sspstrong uwtable
define linkonce_odr dso_local void @_ZNKSt8functionIFvSt6vectorIiSaIiEEEEclES2_(%"class.std::function"* nonnull align 8 dereferenceable(32) %0, %"class.std::vector"* %1) local_unnamed_addr #3 comdat align 2 {
  %3 = getelementptr inbounds %"class.std::function", %"class.std::function"* %0, i64 0, i32 0, i32 1
  %4 = load i1 (%"union.std::_Any_data"*, %"union.std::_Any_data"*, i32)*, i1 (%"union.std::_Any_data"*, %"union.std::_Any_data"*, i32)** %3, align 8, !tbaa !9
  %5 = icmp eq i1 (%"union.std::_Any_data"*, %"union.std::_Any_data"*, i32)* %4, null
  br i1 %5, label %6, label %7

6:                                                ; preds = %2
  tail call void @_ZSt25__throw_bad_function_callv() #25
  unreachable

7:                                                ; preds = %2
  %8 = getelementptr inbounds %"class.std::function", %"class.std::function"* %0, i64 0, i32 1
  %9 = load void (%"union.std::_Any_data"*, %"class.std::vector"*)*, void (%"union.std::_Any_data"*, %"class.std::vector"*)** %8, align 8, !tbaa !17
  %10 = getelementptr inbounds %"class.std::function", %"class.std::function"* %0, i64 0, i32 0, i32 0
  tail call void %9(%"union.std::_Any_data"* nonnull align 8 dereferenceable(16) %10, %"class.std::vector"* nonnull align 8 dereferenceable(24) %1) #21
  ret void
}

; Function Attrs: minsize optsize sspstrong uwtable
define linkonce_odr dso_local void @_ZNSt6vectorIiSaIiEEC2EmRKS0_(%"class.std::vector"* nonnull align 8 dereferenceable(24) %0, i64 %1, %"class.std::allocator.0"* nonnull align 1 dereferenceable(1) %2) unnamed_addr #5 comdat align 2 personality i8* bitcast (i32 (...)* @__gxx_personality_v0 to i8*) {
  %4 = getelementptr inbounds %"class.std::vector", %"class.std::vector"* %0, i64 0, i32 0
  %5 = tail call i64 @_ZNSt6vectorIiSaIiEE17_S_check_init_lenEmRKS0_(i64 %1, %"class.std::allocator.0"* nonnull align 1 dereferenceable(1) %2) #21
  %6 = bitcast %"class.std::vector"* %0 to i8*
  tail call void @llvm.memset.p0i8.i64(i8* noundef nonnull align 8 dereferenceable(24) %6, i8 0, i64 24, i1 false) #22
  tail call void @_ZNSt12_Vector_baseIiSaIiEE17_M_create_storageEm(%"struct.std::_Vector_base"* nonnull align 8 dereferenceable(24) %4, i64 %5) #21
  invoke void @_ZNSt6vectorIiSaIiEE21_M_default_initializeEm(%"class.std::vector"* nonnull align 8 dereferenceable(24) %0, i64 %1) #21
          to label %7 unwind label %8

7:                                                ; preds = %3
  ret void

8:                                                ; preds = %3
  %9 = landingpad { i8*, i32 }
          cleanup
  tail call void @_ZNSt12_Vector_baseIiSaIiEED2Ev(%"struct.std::_Vector_base"* nonnull align 8 dereferenceable(24) %4) #24
  resume { i8*, i32 } %9
}

; Function Attrs: argmemonly mustprogress nofree nosync nounwind willreturn
declare void @llvm.lifetime.end.p0i8(i64 immarg, i8* nocapture) #6

; Function Attrs: minsize optsize sspstrong uwtable
define linkonce_odr dso_local void @_ZNSt6vectorIiSaIiEEC2ERKS1_(%"class.std::vector"* nonnull align 8 dereferenceable(24) %0, %"class.std::vector"* nonnull align 8 dereferenceable(24) %1) unnamed_addr #5 comdat align 2 personality i8* bitcast (i32 (...)* @__gxx_personality_v0 to i8*) {
  %3 = getelementptr inbounds %"class.std::vector", %"class.std::vector"* %0, i64 0, i32 0
  %4 = getelementptr inbounds %"class.std::vector", %"class.std::vector"* %1, i64 0, i32 0, i32 0, i32 0, i32 1
  %5 = load i32*, i32** %4, align 8, !tbaa !22
  %6 = getelementptr inbounds %"class.std::vector", %"class.std::vector"* %1, i64 0, i32 0, i32 0, i32 0, i32 0
  %7 = load i32*, i32** %6, align 8, !tbaa !24
  %8 = ptrtoint i32* %5 to i64
  %9 = ptrtoint i32* %7 to i64
  %10 = sub i64 %8, %9
  %11 = ashr exact i64 %10, 2
  %12 = bitcast %"class.std::vector"* %0 to i8*
  tail call void @llvm.memset.p0i8.i64(i8* noundef nonnull align 8 dereferenceable(24) %12, i8 0, i64 24, i1 false) #22
  tail call void @_ZNSt12_Vector_baseIiSaIiEE17_M_create_storageEm(%"struct.std::_Vector_base"* nonnull align 8 dereferenceable(24) %3, i64 %11) #21
  %13 = load i32*, i32** %6, align 8, !tbaa !13
  %14 = load i32*, i32** %4, align 8, !tbaa !13
  %15 = getelementptr inbounds %"class.std::vector", %"class.std::vector"* %0, i64 0, i32 0, i32 0, i32 0, i32 0
  %16 = load i32*, i32** %15, align 8, !tbaa !24
  %17 = ptrtoint i32* %14 to i64
  %18 = ptrtoint i32* %13 to i64
  %19 = sub i64 %17, %18
  %20 = icmp eq i64 %19, 0
  br i1 %20, label %24, label %21

21:                                               ; preds = %2
  %22 = bitcast i32* %16 to i8*
  %23 = bitcast i32* %13 to i8*
  tail call void @llvm.memmove.p0i8.p0i8.i64(i8* align 4 %22, i8* align 4 %23, i64 %19, i1 false) #22
  br label %24

24:                                               ; preds = %21, %2
  %25 = ashr exact i64 %19, 2
  %26 = getelementptr inbounds i32, i32* %16, i64 %25
  %27 = getelementptr inbounds %"class.std::vector", %"class.std::vector"* %0, i64 0, i32 0, i32 0, i32 0, i32 1
  store i32* %26, i32** %27, align 8, !tbaa !22
  ret void
}

; Function Attrs: minsize nounwind optsize sspstrong uwtable
define linkonce_odr dso_local void @_ZNSt14_Function_baseD2Ev(%"class.std::_Function_base"* nonnull align 8 dereferenceable(24) %0) unnamed_addr #7 comdat align 2 personality i8* bitcast (i32 (...)* @__gxx_personality_v0 to i8*) {
  %2 = getelementptr inbounds %"class.std::_Function_base", %"class.std::_Function_base"* %0, i64 0, i32 1
  %3 = load i1 (%"union.std::_Any_data"*, %"union.std::_Any_data"*, i32)*, i1 (%"union.std::_Any_data"*, %"union.std::_Any_data"*, i32)** %2, align 8, !tbaa !9
  %4 = icmp eq i1 (%"union.std::_Any_data"*, %"union.std::_Any_data"*, i32)* %3, null
  br i1 %4, label %8, label %5

5:                                                ; preds = %1
  %6 = getelementptr inbounds %"class.std::_Function_base", %"class.std::_Function_base"* %0, i64 0, i32 0
  %7 = invoke zeroext i1 %3(%"union.std::_Any_data"* nonnull align 8 dereferenceable(16) %6, %"union.std::_Any_data"* nonnull align 8 dereferenceable(16) %6, i32 3) #21
          to label %8 unwind label %9

8:                                                ; preds = %5, %1
  ret void

9:                                                ; preds = %5
  %10 = landingpad { i8*, i32 }
          catch i8* null
  %11 = extractvalue { i8*, i32 } %10, 0
  tail call void @__clang_call_terminate(i8* %11) #26
  unreachable
}

; Function Attrs: minsize nounwind optsize sspstrong uwtable
define linkonce_odr dso_local void @_ZNSt6vectorIS_IiSaIiEESaIS1_EED2Ev(%"class.std::vector.3"* nonnull align 8 dereferenceable(24) %0) unnamed_addr #7 comdat align 2 personality i8* bitcast (i32 (...)* @__gxx_personality_v0 to i8*) {
  %2 = getelementptr inbounds %"class.std::vector.3", %"class.std::vector.3"* %0, i64 0, i32 0
  %3 = getelementptr inbounds %"class.std::vector.3", %"class.std::vector.3"* %0, i64 0, i32 0, i32 0, i32 0, i32 0
  %4 = load %"class.std::vector"*, %"class.std::vector"** %3, align 8, !tbaa !21
  %5 = getelementptr inbounds %"class.std::vector.3", %"class.std::vector.3"* %0, i64 0, i32 0, i32 0, i32 0, i32 1
  %6 = load %"class.std::vector"*, %"class.std::vector"** %5, align 8, !tbaa !19
  invoke void @_ZNSt12_Destroy_auxILb0EE9__destroyIPSt6vectorIiSaIiEEEEvT_S6_(%"class.std::vector"* %4, %"class.std::vector"* %6) #21
          to label %7 unwind label %8

7:                                                ; preds = %1
  tail call void @_ZNSt12_Vector_baseISt6vectorIiSaIiEESaIS2_EED2Ev(%"struct.std::_Vector_base.4"* nonnull align 8 dereferenceable(24) %2) #24
  ret void

8:                                                ; preds = %1
  %9 = landingpad { i8*, i32 }
          catch i8* null
  %10 = extractvalue { i8*, i32 } %9, 0
  tail call void @_ZNSt12_Vector_baseISt6vectorIiSaIiEESaIS2_EED2Ev(%"struct.std::_Vector_base.4"* nonnull align 8 dereferenceable(24) %2) #24
  tail call void @__clang_call_terminate(i8* %10) #26
  unreachable
}

; Function Attrs: minsize optsize sspstrong uwtable
define dso_local void @_Z5solveii(%"class.std::vector"* noalias sret(%"class.std::vector") align 8 %0, i32 %1, i32 %2) local_unnamed_addr #5 personality i8* bitcast (i32 (...)* @__gxx_personality_v0 to i8*) {
  %4 = alloca i32, align 4
  %5 = alloca i32, align 4
  %6 = alloca i32, align 4
  store i32 %1, i32* %4, align 4, !tbaa !5
  %7 = bitcast %"class.std::vector"* %0 to i8*
  tail call void @llvm.memset.p0i8.i64(i8* noundef nonnull align 8 dereferenceable(24) %7, i8 0, i64 24, i1 false) #22
  %8 = and i32 %1, 1
  %9 = icmp eq i32 %8, 0
  br i1 %9, label %15, label %10

10:                                               ; preds = %3
  %11 = bitcast i32* %6 to i8*
  %12 = call i32 @llvm.smax.i32(i32 %2, i32 0)
  %13 = add nsw i32 %1, 1
  %14 = sdiv i32 %13, 2
  br label %29

15:                                               ; preds = %3
  %16 = bitcast i32* %5 to i8*
  %17 = call i32 @llvm.smax.i32(i32 %2, i32 0)
  %18 = sdiv i32 %1, 2
  br label %19

19:                                               ; preds = %15, %25
  %20 = phi i32 [ %26, %25 ], [ 0, %15 ]
  %21 = icmp eq i32 %20, %17
  br i1 %21, label %71, label %22

22:                                               ; preds = %19
  call void @llvm.lifetime.start.p0i8(i64 4, i8* nonnull %16) #22
  %23 = icmp eq i32 %20, 0
  %24 = select i1 %23, i32 %18, i32 %1
  store i32 %24, i32* %5, align 4, !tbaa !5
  invoke void @_ZNSt6vectorIiSaIiEE12emplace_backIJiEEEvDpOT_(%"class.std::vector"* nonnull align 8 dereferenceable(24) %0, i32* nonnull align 4 dereferenceable(4) %5) #21
          to label %25 unwind label %27

25:                                               ; preds = %22
  call void @llvm.lifetime.end.p0i8(i64 4, i8* nonnull %16) #22
  %26 = add nuw i32 %20, 1
  br label %19, !llvm.loop !25

27:                                               ; preds = %22
  %28 = landingpad { i8*, i32 }
          cleanup
  call void @llvm.lifetime.end.p0i8(i64 4, i8* nonnull %16) #22
  br label %72

29:                                               ; preds = %10, %38
  %30 = phi i32 [ %39, %38 ], [ 0, %10 ]
  %31 = icmp eq i32 %30, %12
  br i1 %31, label %32, label %37

32:                                               ; preds = %29
  %33 = sdiv i32 %2, 2
  %34 = getelementptr inbounds %"class.std::vector", %"class.std::vector"* %0, i64 0, i32 0, i32 0, i32 0, i32 1
  %35 = getelementptr inbounds %"class.std::vector", %"class.std::vector"* %0, i64 0, i32 0, i32 0, i32 0, i32 0
  %36 = sext i32 %2 to i64
  br label %42

37:                                               ; preds = %29
  call void @llvm.lifetime.start.p0i8(i64 4, i8* nonnull %11) #22
  store i32 %14, i32* %6, align 4, !tbaa !5
  invoke void @_ZNSt6vectorIiSaIiEE12emplace_backIJiEEEvDpOT_(%"class.std::vector"* nonnull align 8 dereferenceable(24) %0, i32* nonnull align 4 dereferenceable(4) %6) #21
          to label %38 unwind label %40

38:                                               ; preds = %37
  call void @llvm.lifetime.end.p0i8(i64 4, i8* nonnull %11) #22
  %39 = add nuw i32 %30, 1
  br label %29, !llvm.loop !27

40:                                               ; preds = %37
  %41 = landingpad { i8*, i32 }
          cleanup
  call void @llvm.lifetime.end.p0i8(i64 4, i8* nonnull %11) #22
  br label %72

42:                                               ; preds = %63, %32
  %43 = phi i32 [ %33, %32 ], [ %64, %63 ]
  %44 = icmp eq i32 %43, 0
  %45 = load i32*, i32** %34, align 8, !tbaa !13
  br i1 %44, label %65, label %46

46:                                               ; preds = %42
  %47 = getelementptr inbounds i32, i32* %45, i64 -1
  %48 = load i32, i32* %47, align 4, !tbaa !5
  %49 = add nsw i32 %48, -1
  store i32 %49, i32* %47, align 4, !tbaa !5
  %50 = icmp eq i32 %48, 1
  br i1 %50, label %51, label %52

51:                                               ; preds = %46
  store i32* %47, i32** %34, align 8, !tbaa !22
  br label %63

52:                                               ; preds = %46, %60
  %53 = load i32*, i32** %34, align 8, !tbaa !22
  %54 = load i32*, i32** %35, align 8, !tbaa !24
  %55 = ptrtoint i32* %53 to i64
  %56 = ptrtoint i32* %54 to i64
  %57 = sub i64 %55, %56
  %58 = ashr exact i64 %57, 2
  %59 = icmp ult i64 %58, %36
  br i1 %59, label %60, label %63

60:                                               ; preds = %52
  invoke void @_ZNSt6vectorIiSaIiEE9push_backERKi(%"class.std::vector"* nonnull align 8 dereferenceable(24) %0, i32* nonnull align 4 dereferenceable(4) %4) #21
          to label %52 unwind label %61, !llvm.loop !28

61:                                               ; preds = %60
  %62 = landingpad { i8*, i32 }
          cleanup
  br label %72

63:                                               ; preds = %52, %51
  %64 = add nsw i32 %43, -1
  br label %42, !llvm.loop !29

65:                                               ; preds = %42, %70
  %66 = phi i32* [ %67, %70 ], [ %45, %42 ]
  %67 = getelementptr inbounds i32, i32* %66, i64 -1
  %68 = load i32, i32* %67, align 4, !tbaa !5
  %69 = icmp eq i32 %68, 0
  br i1 %69, label %70, label %71

70:                                               ; preds = %65
  store i32* %67, i32** %34, align 8, !tbaa !22
  br label %65, !llvm.loop !30

71:                                               ; preds = %65, %19
  ret void

72:                                               ; preds = %61, %40, %27
  %73 = phi { i8*, i32 } [ %28, %27 ], [ %41, %40 ], [ %62, %61 ]
  %74 = getelementptr inbounds %"class.std::vector", %"class.std::vector"* %0, i64 0, i32 0
  call void @_ZNSt12_Vector_baseIiSaIiEED2Ev(%"struct.std::_Vector_base"* nonnull align 8 dereferenceable(24) %74) #24
  resume { i8*, i32 } %73
}

; Function Attrs: minsize optsize sspstrong uwtable
define linkonce_odr dso_local void @_ZNSt6vectorIiSaIiEE9push_backERKi(%"class.std::vector"* nonnull align 8 dereferenceable(24) %0, i32* nonnull align 4 dereferenceable(4) %1) local_unnamed_addr #5 comdat align 2 {
  %3 = getelementptr inbounds %"class.std::vector", %"class.std::vector"* %0, i64 0, i32 0, i32 0, i32 0, i32 1
  %4 = load i32*, i32** %3, align 8, !tbaa !22
  %5 = getelementptr inbounds %"class.std::vector", %"class.std::vector"* %0, i64 0, i32 0, i32 0, i32 0, i32 2
  %6 = load i32*, i32** %5, align 8, !tbaa !31
  %7 = icmp eq i32* %4, %6
  br i1 %7, label %11, label %8

8:                                                ; preds = %2
  %9 = load i32, i32* %1, align 4, !tbaa !5
  store i32 %9, i32* %4, align 4, !tbaa !5
  %10 = getelementptr inbounds i32, i32* %4, i64 1
  store i32* %10, i32** %3, align 8, !tbaa !22
  br label %12

11:                                               ; preds = %2
  tail call void @_ZNSt6vectorIiSaIiEE17_M_realloc_insertIJRKiEEEvN9__gnu_cxx17__normal_iteratorIPiS1_EEDpOT_(%"class.std::vector"* nonnull align 8 dereferenceable(24) %0, i32* %4, i32* nonnull align 4 dereferenceable(4) %1) #21
  br label %12

12:                                               ; preds = %11, %8
  ret void
}

; Function Attrs: minsize norecurse optsize sspstrong uwtable
define dso_local i32 @main() local_unnamed_addr #8 personality i8* bitcast (i32 (...)* @__gxx_personality_v0 to i8*) {
  %1 = alloca i32, align 4
  %2 = alloca i32, align 4
  %3 = alloca %"class.std::vector", align 8
  %4 = load i8*, i8** bitcast (%"class.std::basic_istream"* @_ZSt3cin to i8**), align 8, !tbaa !32
  %5 = getelementptr i8, i8* %4, i64 -24
  %6 = bitcast i8* %5 to i64*
  %7 = load i64, i64* %6, align 8
  %8 = add nsw i64 %7, 216
  %9 = getelementptr inbounds i8, i8* bitcast (%"class.std::basic_istream"* @_ZSt3cin to i8*), i64 %8
  %10 = bitcast i8* %9 to %"class.std::basic_ostream"**
  store %"class.std::basic_ostream"* null, %"class.std::basic_ostream"** %10, align 8, !tbaa !34
  %11 = tail call zeroext i1 @_ZNSt8ios_base15sync_with_stdioEb(i1 zeroext false) #21
  %12 = bitcast i32* %1 to i8*
  call void @llvm.lifetime.start.p0i8(i64 4, i8* nonnull %12) #22
  %13 = bitcast i32* %2 to i8*
  call void @llvm.lifetime.start.p0i8(i64 4, i8* nonnull %13) #22
  %14 = call nonnull align 8 dereferenceable(16) %"class.std::basic_istream"* @_ZNSirsERi(%"class.std::basic_istream"* nonnull align 8 dereferenceable(16) @_ZSt3cin, i32* nonnull align 4 dereferenceable(4) %1) #21
  %15 = call nonnull align 8 dereferenceable(16) %"class.std::basic_istream"* @_ZNSirsERi(%"class.std::basic_istream"* nonnull align 8 dereferenceable(16) %14, i32* nonnull align 4 dereferenceable(4) %2) #21
  %16 = bitcast %"class.std::vector"* %3 to i8*
  call void @llvm.lifetime.start.p0i8(i64 24, i8* nonnull %16) #22
  %17 = load i32, i32* %1, align 4, !tbaa !5
  %18 = load i32, i32* %2, align 4, !tbaa !5
  call void @_Z5solveii(%"class.std::vector"* nonnull sret(%"class.std::vector") align 8 %3, i32 %17, i32 %18) #21
  %19 = getelementptr inbounds %"class.std::vector", %"class.std::vector"* %3, i64 0, i32 0, i32 0, i32 0, i32 1
  %20 = getelementptr inbounds %"class.std::vector", %"class.std::vector"* %3, i64 0, i32 0, i32 0, i32 0, i32 0
  br label %21

21:                                               ; preds = %44, %0
  %22 = phi i64 [ %45, %44 ], [ 0, %0 ]
  %23 = load i32*, i32** %19, align 8, !tbaa !22
  %24 = load i32*, i32** %20, align 8, !tbaa !24
  %25 = ptrtoint i32* %23 to i64
  %26 = ptrtoint i32* %24 to i64
  %27 = sub i64 %25, %26
  %28 = shl i64 %27, 30
  %29 = ashr i64 %28, 32
  %30 = icmp slt i64 %22, %29
  br i1 %30, label %33, label %31

31:                                               ; preds = %21
  %32 = getelementptr inbounds %"class.std::vector", %"class.std::vector"* %3, i64 0, i32 0
  call void @_ZNSt12_Vector_baseIiSaIiEED2Ev(%"struct.std::_Vector_base"* nonnull align 8 dereferenceable(24) %32) #24
  call void @llvm.lifetime.end.p0i8(i64 24, i8* nonnull %16) #22
  call void @llvm.lifetime.end.p0i8(i64 4, i8* nonnull %13) #22
  call void @llvm.lifetime.end.p0i8(i64 4, i8* nonnull %12) #22
  ret i32 0

33:                                               ; preds = %21
  %34 = getelementptr inbounds i32, i32* %24, i64 %22
  %35 = load i32, i32* %34, align 4, !tbaa !5
  %36 = invoke nonnull align 8 dereferenceable(8) %"class.std::basic_ostream"* @_ZNSolsEi(%"class.std::basic_ostream"* nonnull align 8 dereferenceable(8) @_ZSt4cout, i32 %35) #21
          to label %37 unwind label %46

37:                                               ; preds = %33
  %38 = load i32, i32* %2, align 4, !tbaa !5
  %39 = add nsw i32 %38, -1
  %40 = zext i32 %39 to i64
  %41 = icmp eq i64 %22, %40
  %42 = select i1 %41, i8* getelementptr inbounds ([2 x i8], [2 x i8]* @.str, i64 0, i64 0), i8* getelementptr inbounds ([2 x i8], [2 x i8]* @.str.1, i64 0, i64 0)
  %43 = invoke nonnull align 8 dereferenceable(8) %"class.std::basic_ostream"* @_ZStlsISt11char_traitsIcEERSt13basic_ostreamIcT_ES5_PKc(%"class.std::basic_ostream"* nonnull align 8 dereferenceable(8) %36, i8* %42) #21
          to label %44 unwind label %46

44:                                               ; preds = %37
  %45 = add nuw nsw i64 %22, 1
  br label %21, !llvm.loop !37

46:                                               ; preds = %37, %33
  %47 = landingpad { i8*, i32 }
          cleanup
  %48 = getelementptr inbounds %"class.std::vector", %"class.std::vector"* %3, i64 0, i32 0
  call void @_ZNSt12_Vector_baseIiSaIiEED2Ev(%"struct.std::_Vector_base"* nonnull align 8 dereferenceable(24) %48) #24
  call void @llvm.lifetime.end.p0i8(i64 24, i8* nonnull %16) #22
  call void @llvm.lifetime.end.p0i8(i64 4, i8* nonnull %13) #22
  call void @llvm.lifetime.end.p0i8(i64 4, i8* nonnull %12) #22
  resume { i8*, i32 } %47
}

; Function Attrs: minsize optsize
declare zeroext i1 @_ZNSt8ios_base15sync_with_stdioEb(i1 zeroext) local_unnamed_addr #0

; Function Attrs: minsize optsize
declare nonnull align 8 dereferenceable(16) %"class.std::basic_istream"* @_ZNSirsERi(%"class.std::basic_istream"* nonnull align 8 dereferenceable(16), i32* nonnull align 4 dereferenceable(4)) local_unnamed_addr #0

; Function Attrs: inlinehint minsize mustprogress optsize sspstrong uwtable
declare nonnull align 8 dereferenceable(8) %"class.std::basic_ostream"* @_ZStlsISt11char_traitsIcEERSt13basic_ostreamIcT_ES5_PKc(%"class.std::basic_ostream"* nonnull align 8 dereferenceable(8), i8*) local_unnamed_addr #4

; Function Attrs: minsize optsize
declare nonnull align 8 dereferenceable(8) %"class.std::basic_ostream"* @_ZNSolsEi(%"class.std::basic_ostream"* nonnull align 8 dereferenceable(8), i32) local_unnamed_addr #0

; Function Attrs: noinline noreturn nounwind
define linkonce_odr hidden void @__clang_call_terminate(i8* %0) local_unnamed_addr #9 comdat {
  %2 = tail call i8* @__cxa_begin_catch(i8* %0) #22
  tail call void @_ZSt9terminatev() #26
  unreachable
}

declare i8* @__cxa_begin_catch(i8*) local_unnamed_addr

declare void @_ZSt9terminatev() local_unnamed_addr

; Function Attrs: minsize nounwind optsize sspstrong uwtable
define linkonce_odr dso_local void @_ZNSt12_Vector_baseISt6vectorIiSaIiEESaIS2_EED2Ev(%"struct.std::_Vector_base.4"* nonnull align 8 dereferenceable(24) %0) unnamed_addr #7 comdat align 2 personality i8* bitcast (i32 (...)* @__gxx_personality_v0 to i8*) {
  %2 = getelementptr inbounds %"struct.std::_Vector_base.4", %"struct.std::_Vector_base.4"* %0, i64 0, i32 0, i32 0, i32 0
  %3 = load %"class.std::vector"*, %"class.std::vector"** %2, align 8, !tbaa !21
  %4 = icmp eq %"class.std::vector"* %3, null
  br i1 %4, label %7, label %5

5:                                                ; preds = %1
  %6 = bitcast %"class.std::vector"* %3 to i8*
  tail call void @_ZdlPv(i8* nonnull %6) #24
  br label %7

7:                                                ; preds = %5, %1
  ret void
}

; Function Attrs: minsize optsize sspstrong uwtable
define linkonce_odr dso_local void @_ZNSt12_Destroy_auxILb0EE9__destroyIPSt6vectorIiSaIiEEEEvT_S6_(%"class.std::vector"* %0, %"class.std::vector"* %1) local_unnamed_addr #5 comdat align 2 personality i32 (...)* @__gxx_personality_v0 {
  br label %3

3:                                                ; preds = %6, %2
  %4 = phi %"class.std::vector"* [ %0, %2 ], [ %8, %6 ]
  %5 = icmp eq %"class.std::vector"* %4, %1
  br i1 %5, label %9, label %6

6:                                                ; preds = %3
  %7 = getelementptr inbounds %"class.std::vector", %"class.std::vector"* %4, i64 0, i32 0
  tail call void @_ZNSt12_Vector_baseIiSaIiEED2Ev(%"struct.std::_Vector_base"* nonnull align 8 dereferenceable(24) %7) #24
  %8 = getelementptr inbounds %"class.std::vector", %"class.std::vector"* %4, i64 1
  br label %3, !llvm.loop !38

9:                                                ; preds = %3
  ret void
}

; Function Attrs: minsize nobuiltin nounwind optsize
declare void @_ZdlPv(i8*) local_unnamed_addr #10

; Function Attrs: minsize optsize sspstrong uwtable
define linkonce_odr dso_local void @_ZNSt6vectorIiSaIiEE17_M_realloc_insertIJRKiEEEvN9__gnu_cxx17__normal_iteratorIPiS1_EEDpOT_(%"class.std::vector"* nonnull align 8 dereferenceable(24) %0, i32* %1, i32* nonnull align 4 dereferenceable(4) %2) local_unnamed_addr #5 comdat align 2 {
  %4 = tail call i64 @_ZNKSt6vectorIiSaIiEE12_M_check_lenEmPKc(%"class.std::vector"* nonnull align 8 dereferenceable(24) %0, i64 1, i8* getelementptr inbounds ([26 x i8], [26 x i8]* @.str.2, i64 0, i64 0)) #21
  %5 = getelementptr inbounds %"class.std::vector", %"class.std::vector"* %0, i64 0, i32 0
  %6 = getelementptr inbounds %"class.std::vector", %"class.std::vector"* %0, i64 0, i32 0, i32 0, i32 0, i32 0
  %7 = load i32*, i32** %6, align 8, !tbaa !24
  %8 = getelementptr inbounds %"class.std::vector", %"class.std::vector"* %0, i64 0, i32 0, i32 0, i32 0, i32 1
  %9 = load i32*, i32** %8, align 8, !tbaa !22
  %10 = ptrtoint i32* %1 to i64
  %11 = ptrtoint i32* %7 to i64
  %12 = sub i64 %10, %11
  %13 = ashr exact i64 %12, 2
  %14 = tail call i32* @_ZNSt12_Vector_baseIiSaIiEE11_M_allocateEm(%"struct.std::_Vector_base"* nonnull align 8 dereferenceable(24) %5, i64 %4) #21
  %15 = getelementptr inbounds i32, i32* %14, i64 %13
  %16 = load i32, i32* %2, align 4, !tbaa !5
  store i32 %16, i32* %15, align 4, !tbaa !5
  %17 = icmp sgt i64 %12, 0
  br i1 %17, label %18, label %21

18:                                               ; preds = %3
  %19 = bitcast i32* %14 to i8*
  %20 = bitcast i32* %7 to i8*
  tail call void @llvm.memmove.p0i8.p0i8.i64(i8* align 4 %19, i8* align 4 %20, i64 %12, i1 false) #22
  br label %21

21:                                               ; preds = %3, %18
  %22 = getelementptr inbounds i32, i32* %15, i64 1
  %23 = ptrtoint i32* %9 to i64
  %24 = sub i64 %23, %10
  %25 = icmp sgt i64 %24, 0
  br i1 %25, label %26, label %29

26:                                               ; preds = %21
  %27 = bitcast i32* %22 to i8*
  %28 = bitcast i32* %1 to i8*
  tail call void @llvm.memmove.p0i8.p0i8.i64(i8* nonnull align 4 %27, i8* align 4 %28, i64 %24, i1 false) #22
  br label %29

29:                                               ; preds = %21, %26
  %30 = icmp eq i32* %7, null
  br i1 %30, label %33, label %31

31:                                               ; preds = %29
  %32 = bitcast i32* %7 to i8*
  tail call void @_ZdlPv(i8* nonnull %32) #24
  br label %33

33:                                               ; preds = %29, %31
  %34 = getelementptr inbounds %"class.std::vector", %"class.std::vector"* %0, i64 0, i32 0, i32 0, i32 0, i32 2
  %35 = ashr exact i64 %24, 2
  %36 = getelementptr inbounds i32, i32* %22, i64 %35
  store i32* %14, i32** %6, align 8, !tbaa !24
  store i32* %36, i32** %8, align 8, !tbaa !22
  %37 = getelementptr inbounds i32, i32* %14, i64 %4
  store i32* %37, i32** %34, align 8, !tbaa !31
  ret void
}

; Function Attrs: minsize mustprogress optsize sspstrong uwtable
define linkonce_odr dso_local i64 @_ZNKSt6vectorIiSaIiEE12_M_check_lenEmPKc(%"class.std::vector"* nonnull align 8 dereferenceable(24) %0, i64 %1, i8* %2) local_unnamed_addr #3 comdat align 2 personality i32 (...)* @__gxx_personality_v0 {
  %4 = getelementptr inbounds %"class.std::vector", %"class.std::vector"* %0, i64 0, i32 0, i32 0, i32 0, i32 1
  %5 = load i32*, i32** %4, align 8, !tbaa !22
  %6 = getelementptr inbounds %"class.std::vector", %"class.std::vector"* %0, i64 0, i32 0, i32 0, i32 0, i32 0
  %7 = load i32*, i32** %6, align 8, !tbaa !24
  %8 = ptrtoint i32* %5 to i64
  %9 = ptrtoint i32* %7 to i64
  %10 = sub i64 %8, %9
  %11 = ashr exact i64 %10, 2
  %12 = sub nsw i64 2305843009213693951, %11
  %13 = icmp ult i64 %12, %1
  br i1 %13, label %14, label %15

14:                                               ; preds = %3
  tail call void @_ZSt20__throw_length_errorPKc(i8* %2) #25
  unreachable

15:                                               ; preds = %3
  %16 = icmp ult i64 %11, %1
  %17 = select i1 %16, i64 %1, i64 %11
  %18 = add i64 %17, %11
  %19 = icmp ult i64 %18, %11
  %20 = icmp ugt i64 %18, 2305843009213693951
  %21 = or i1 %19, %20
  %22 = select i1 %21, i64 2305843009213693951, i64 %18
  ret i64 %22
}

; Function Attrs: minsize mustprogress optsize sspstrong uwtable
define linkonce_odr dso_local i32* @_ZNSt12_Vector_baseIiSaIiEE11_M_allocateEm(%"struct.std::_Vector_base"* nonnull align 8 dereferenceable(24) %0, i64 %1) local_unnamed_addr #3 comdat align 2 {
  %3 = icmp eq i64 %1, 0
  br i1 %3, label %7, label %4

4:                                                ; preds = %2
  %5 = bitcast %"struct.std::_Vector_base"* %0 to %"class.std::allocator.0"*
  %6 = tail call i32* @_ZNSt16allocator_traitsISaIiEE8allocateERS0_m(%"class.std::allocator.0"* nonnull align 1 dereferenceable(1) %5, i64 %1) #21
  br label %7

7:                                                ; preds = %2, %4
  %8 = phi i32* [ %6, %4 ], [ null, %2 ]
  ret i32* %8
}

; Function Attrs: minsize noreturn optsize
declare void @_ZSt20__throw_length_errorPKc(i8*) local_unnamed_addr #11

; Function Attrs: minsize mustprogress optsize sspstrong uwtable
define linkonce_odr dso_local i32* @_ZNSt16allocator_traitsISaIiEE8allocateERS0_m(%"class.std::allocator.0"* nonnull align 1 dereferenceable(1) %0, i64 %1) local_unnamed_addr #3 comdat align 2 {
  %3 = bitcast %"class.std::allocator.0"* %0 to %"class.__gnu_cxx::new_allocator.1"*
  %4 = tail call i32* @_ZN9__gnu_cxx13new_allocatorIiE8allocateEmPKv(%"class.__gnu_cxx::new_allocator.1"* nonnull align 1 dereferenceable(1) %3, i64 %1, i8* null) #21
  ret i32* %4
}

; Function Attrs: minsize mustprogress optsize sspstrong uwtable
define linkonce_odr dso_local i32* @_ZN9__gnu_cxx13new_allocatorIiE8allocateEmPKv(%"class.__gnu_cxx::new_allocator.1"* nonnull align 1 dereferenceable(1) %0, i64 %1, i8* %2) local_unnamed_addr #3 comdat align 2 {
  %4 = icmp ugt i64 %1, 2305843009213693951
  br i1 %4, label %5, label %9, !prof !39

5:                                                ; preds = %3
  %6 = icmp ugt i64 %1, 4611686018427387903
  br i1 %6, label %7, label %8

7:                                                ; preds = %5
  tail call void @_ZSt28__throw_bad_array_new_lengthv() #25
  unreachable

8:                                                ; preds = %5
  tail call void @_ZSt17__throw_bad_allocv() #25
  unreachable

9:                                                ; preds = %3
  %10 = shl nuw nsw i64 %1, 2
  %11 = tail call noalias nonnull i8* @_Znwm(i64 %10) #27
  %12 = bitcast i8* %11 to i32*
  ret i32* %12
}

; Function Attrs: minsize noreturn optsize
declare void @_ZSt28__throw_bad_array_new_lengthv() local_unnamed_addr #11

; Function Attrs: minsize noreturn optsize
declare void @_ZSt17__throw_bad_allocv() local_unnamed_addr #11

; Function Attrs: minsize nobuiltin optsize allocsize(0)
declare nonnull i8* @_Znwm(i64) local_unnamed_addr #12

; Function Attrs: argmemonly mustprogress nofree nounwind willreturn
declare void @llvm.memmove.p0i8.p0i8.i64(i8* nocapture writeonly, i8* nocapture readonly, i64, i1 immarg) #13

; Function Attrs: minsize noreturn optsize
declare void @_ZSt25__throw_bad_function_callv() local_unnamed_addr #11

; Function Attrs: minsize nounwind optsize sspstrong uwtable
define linkonce_odr dso_local void @_ZNSt12_Vector_baseIiSaIiEED2Ev(%"struct.std::_Vector_base"* nonnull align 8 dereferenceable(24) %0) unnamed_addr #7 comdat align 2 personality i8* bitcast (i32 (...)* @__gxx_personality_v0 to i8*) {
  %2 = getelementptr inbounds %"struct.std::_Vector_base", %"struct.std::_Vector_base"* %0, i64 0, i32 0, i32 0, i32 0
  %3 = load i32*, i32** %2, align 8, !tbaa !24
  %4 = icmp eq i32* %3, null
  br i1 %4, label %7, label %5

5:                                                ; preds = %1
  %6 = bitcast i32* %3 to i8*
  tail call void @_ZdlPv(i8* nonnull %6) #24
  br label %7

7:                                                ; preds = %5, %1
  ret void
}

; Function Attrs: minsize mustprogress optsize sspstrong uwtable
define linkonce_odr dso_local void @_ZNSt12_Vector_baseIiSaIiEE17_M_create_storageEm(%"struct.std::_Vector_base"* nonnull align 8 dereferenceable(24) %0, i64 %1) local_unnamed_addr #3 comdat align 2 {
  %3 = tail call i32* @_ZNSt12_Vector_baseIiSaIiEE11_M_allocateEm(%"struct.std::_Vector_base"* nonnull align 8 dereferenceable(24) %0, i64 %1) #21
  %4 = getelementptr inbounds %"struct.std::_Vector_base", %"struct.std::_Vector_base"* %0, i64 0, i32 0, i32 0, i32 0
  store i32* %3, i32** %4, align 8, !tbaa !24
  %5 = getelementptr inbounds %"struct.std::_Vector_base", %"struct.std::_Vector_base"* %0, i64 0, i32 0, i32 0, i32 1
  store i32* %3, i32** %5, align 8, !tbaa !22
  %6 = getelementptr inbounds i32, i32* %3, i64 %1
  %7 = getelementptr inbounds %"struct.std::_Vector_base", %"struct.std::_Vector_base"* %0, i64 0, i32 0, i32 0, i32 2
  store i32* %6, i32** %7, align 8, !tbaa !31
  ret void
}

; Function Attrs: argmemonly mustprogress nofree nounwind willreturn
declare void @llvm.memcpy.p0i8.p0i8.i64(i8* noalias nocapture writeonly, i8* noalias nocapture readonly, i64, i1 immarg) #13

; Function Attrs: minsize optsize sspstrong uwtable
define internal void @"_ZNSt17_Function_handlerIFvSt6vectorIiSaIiEEEZ11solve_naiveiiE3$_0E9_M_invokeERKSt9_Any_dataOS2_"(%"union.std::_Any_data"* nocapture nonnull readonly align 8 dereferenceable(16) %0, %"class.std::vector"* nocapture nonnull align 8 dereferenceable(24) %1) #5 align 2 personality i32 (...)* @__gxx_personality_v0 {
  %3 = alloca i32, align 4
  %4 = alloca %"class.std::vector", align 8
  %5 = alloca %"class.std::vector", align 8
  %6 = bitcast %"union.std::_Any_data"* %0 to %class.anon**
  %7 = load %class.anon*, %class.anon** %6, align 8, !tbaa !13
  %8 = bitcast %"class.std::vector"* %5 to i8*
  call void @llvm.lifetime.start.p0i8(i64 24, i8* nonnull %8)
  %9 = getelementptr inbounds %"class.std::vector", %"class.std::vector"* %5, i64 0, i32 0, i32 0, i32 0, i32 0
  %10 = getelementptr inbounds %"class.std::vector", %"class.std::vector"* %1, i64 0, i32 0, i32 0, i32 0, i32 0
  %11 = load i32*, i32** %10, align 8, !tbaa !24
  store i32* %11, i32** %9, align 8, !tbaa !24
  %12 = getelementptr inbounds %"class.std::vector", %"class.std::vector"* %5, i64 0, i32 0, i32 0, i32 0, i32 1
  %13 = getelementptr inbounds %"class.std::vector", %"class.std::vector"* %1, i64 0, i32 0, i32 0, i32 0, i32 1
  %14 = load i32*, i32** %13, align 8, !tbaa !22
  store i32* %14, i32** %12, align 8, !tbaa !22
  %15 = getelementptr inbounds %"class.std::vector", %"class.std::vector"* %5, i64 0, i32 0, i32 0, i32 0, i32 2
  %16 = getelementptr inbounds %"class.std::vector", %"class.std::vector"* %1, i64 0, i32 0, i32 0, i32 0, i32 2
  %17 = load i32*, i32** %16, align 8, !tbaa !31
  store i32* %17, i32** %15, align 8, !tbaa !31
  %18 = bitcast %"class.std::vector"* %1 to i8*
  tail call void @llvm.memset.p0i8.i64(i8* noundef nonnull align 8 dereferenceable(24) %18, i8 0, i64 24, i1 false) #22
  %19 = bitcast %"class.std::vector"* %4 to i8*
  call void @llvm.lifetime.start.p0i8(i64 24, i8* nonnull %19)
  %20 = icmp eq i32* %14, %11
  br i1 %20, label %27, label %21

21:                                               ; preds = %2
  %22 = getelementptr inbounds %class.anon, %class.anon* %7, i64 0, i32 0
  %23 = load %"class.std::vector.3"*, %"class.std::vector.3"** %22, align 8, !tbaa !40
  invoke void @_ZNSt6vectorIS_IiSaIiEESaIS1_EE9push_backERKS1_(%"class.std::vector.3"* nonnull align 8 dereferenceable(24) %23, %"class.std::vector"* nonnull align 8 dereferenceable(24) %5) #21
          to label %24 unwind label %63

24:                                               ; preds = %21
  %25 = load i32*, i32** %12, align 8, !tbaa !22
  %26 = load i32*, i32** %9, align 8, !tbaa !24
  br label %27

27:                                               ; preds = %24, %2
  %28 = phi i32* [ %26, %24 ], [ %11, %2 ]
  %29 = phi i32* [ %25, %24 ], [ %11, %2 ]
  %30 = ptrtoint i32* %29 to i64
  %31 = ptrtoint i32* %28 to i64
  %32 = sub i64 %30, %31
  %33 = ashr exact i64 %32, 2
  %34 = getelementptr inbounds %class.anon, %class.anon* %7, i64 0, i32 1
  %35 = load i32*, i32** %34, align 8, !tbaa !42
  %36 = load i32, i32* %35, align 4, !tbaa !5
  %37 = sext i32 %36 to i64
  %38 = icmp ult i64 %33, %37
  br i1 %38, label %39, label %68

39:                                               ; preds = %27
  %40 = bitcast i32* %3 to i8*
  call void @llvm.lifetime.start.p0i8(i64 4, i8* nonnull %40) #22
  %41 = getelementptr inbounds %class.anon, %class.anon* %7, i64 0, i32 2
  %42 = getelementptr inbounds %class.anon, %class.anon* %7, i64 0, i32 3
  %43 = getelementptr inbounds %"class.std::vector", %"class.std::vector"* %4, i64 0, i32 0
  br label %44

44:                                               ; preds = %54, %39
  %45 = phi i32 [ 1, %39 ], [ %58, %54 ]
  store i32 %45, i32* %3, align 4, !tbaa !5
  %46 = load i32*, i32** %41, align 8, !tbaa !43
  %47 = load i32, i32* %46, align 4, !tbaa !5
  %48 = icmp sgt i32 %45, %47
  br i1 %48, label %49, label %50

49:                                               ; preds = %44
  call void @llvm.lifetime.end.p0i8(i64 4, i8* nonnull %40) #22
  br label %68

50:                                               ; preds = %44
  invoke void @_ZNSt6vectorIiSaIiEE9push_backERKi(%"class.std::vector"* nonnull align 8 dereferenceable(24) %5, i32* nonnull align 4 dereferenceable(4) %3) #21
          to label %51 unwind label %61

51:                                               ; preds = %50
  %52 = load %"class.std::function"*, %"class.std::function"** %42, align 8, !tbaa !44
  invoke void @_ZNSt6vectorIiSaIiEEC2ERKS1_(%"class.std::vector"* nonnull align 8 dereferenceable(24) %4, %"class.std::vector"* nonnull align 8 dereferenceable(24) %5) #21
          to label %53 unwind label %61

53:                                               ; preds = %51
  invoke void @_ZNKSt8functionIFvSt6vectorIiSaIiEEEEclES2_(%"class.std::function"* nonnull align 8 dereferenceable(32) %52, %"class.std::vector"* nonnull %4) #21
          to label %54 unwind label %59

54:                                               ; preds = %53
  call void @_ZNSt12_Vector_baseIiSaIiEED2Ev(%"struct.std::_Vector_base"* nonnull align 8 dereferenceable(24) %43) #24
  %55 = load i32*, i32** %12, align 8, !tbaa !22
  %56 = getelementptr inbounds i32, i32* %55, i64 -1
  store i32* %56, i32** %12, align 8, !tbaa !22
  %57 = load i32, i32* %3, align 4, !tbaa !5
  %58 = add nsw i32 %57, 1
  br label %44, !llvm.loop !45

59:                                               ; preds = %53
  %60 = landingpad { i8*, i32 }
          cleanup
  call void @_ZNSt12_Vector_baseIiSaIiEED2Ev(%"struct.std::_Vector_base"* nonnull align 8 dereferenceable(24) %43) #24
  call void @llvm.lifetime.end.p0i8(i64 4, i8* nonnull %40) #22
  br label %65

61:                                               ; preds = %51, %50
  %62 = landingpad { i8*, i32 }
          cleanup
  br label %65

63:                                               ; preds = %21
  %64 = landingpad { i8*, i32 }
          cleanup
  br label %65

65:                                               ; preds = %63, %61, %59
  %66 = phi { i8*, i32 } [ %60, %59 ], [ %62, %61 ], [ %64, %63 ]
  %67 = getelementptr inbounds %"class.std::vector", %"class.std::vector"* %5, i64 0, i32 0
  call void @_ZNSt12_Vector_baseIiSaIiEED2Ev(%"struct.std::_Vector_base"* nonnull align 8 dereferenceable(24) %67) #24
  resume { i8*, i32 } %66

68:                                               ; preds = %27, %49
  call void @llvm.lifetime.end.p0i8(i64 24, i8* nonnull %19)
  %69 = getelementptr inbounds %"class.std::vector", %"class.std::vector"* %5, i64 0, i32 0
  call void @_ZNSt12_Vector_baseIiSaIiEED2Ev(%"struct.std::_Vector_base"* nonnull align 8 dereferenceable(24) %69) #24
  call void @llvm.lifetime.end.p0i8(i64 24, i8* nonnull %8)
  ret void
}

; Function Attrs: minsize mustprogress optsize sspstrong uwtable
define internal zeroext i1 @"_ZNSt17_Function_handlerIFvSt6vectorIiSaIiEEEZ11solve_naiveiiE3$_0E10_M_managerERSt9_Any_dataRKS6_St18_Manager_operation"(%"union.std::_Any_data"* nocapture nonnull align 8 dereferenceable(16) %0, %"union.std::_Any_data"* nocapture nonnull readonly align 8 dereferenceable(16) %1, i32 %2) #3 align 2 personality i32 (...)* @__gxx_personality_v0 {
  switch i32 %2, label %18 [
    i32 0, label %4
    i32 1, label %6
    i32 3, label %15
    i32 2, label %10
  ]

4:                                                ; preds = %3
  %5 = bitcast %"union.std::_Any_data"* %0 to %"class.std::type_info"**
  store %"class.std::type_info"* bitcast ({ i8*, i8* }* @"_ZTIZ11solve_naiveiiE3$_0" to %"class.std::type_info"*), %"class.std::type_info"** %5, align 8, !tbaa !13
  br label %18

6:                                                ; preds = %3
  %7 = bitcast %"union.std::_Any_data"* %1 to %class.anon**
  %8 = load %class.anon*, %class.anon** %7, align 8, !tbaa !13
  %9 = bitcast %"union.std::_Any_data"* %0 to %class.anon**
  store %class.anon* %8, %class.anon** %9, align 8, !tbaa !13
  br label %18

10:                                               ; preds = %3
  %11 = tail call noalias nonnull dereferenceable(32) i8* @_Znwm(i64 32) #23
  %12 = bitcast %"union.std::_Any_data"* %1 to i8**
  %13 = load i8*, i8** %12, align 8, !tbaa !13
  tail call void @llvm.memcpy.p0i8.p0i8.i64(i8* noundef nonnull align 16 dereferenceable(32) %11, i8* noundef nonnull align 8 dereferenceable(32) %13, i64 32, i1 false), !tbaa.struct !12
  %14 = bitcast %"union.std::_Any_data"* %0 to i8**
  store i8* %11, i8** %14, align 8, !tbaa !13
  br label %18

15:                                               ; preds = %3
  %16 = bitcast %"union.std::_Any_data"* %0 to i8**
  %17 = load i8*, i8** %16, align 8, !tbaa !13
  tail call void @_ZdlPv(i8* %17) #28
  br label %18

18:                                               ; preds = %3, %15, %10, %6, %4
  ret i1 false
}

; Function Attrs: minsize optsize sspstrong uwtable
define linkonce_odr dso_local void @_ZNSt6vectorIS_IiSaIiEESaIS1_EE9push_backERKS1_(%"class.std::vector.3"* nonnull align 8 dereferenceable(24) %0, %"class.std::vector"* nonnull align 8 dereferenceable(24) %1) local_unnamed_addr #5 comdat align 2 {
  %3 = getelementptr inbounds %"class.std::vector.3", %"class.std::vector.3"* %0, i64 0, i32 0, i32 0, i32 0, i32 1
  %4 = load %"class.std::vector"*, %"class.std::vector"** %3, align 8, !tbaa !19
  %5 = getelementptr inbounds %"class.std::vector.3", %"class.std::vector.3"* %0, i64 0, i32 0, i32 0, i32 0, i32 2
  %6 = load %"class.std::vector"*, %"class.std::vector"** %5, align 8, !tbaa !46
  %7 = icmp eq %"class.std::vector"* %4, %6
  br i1 %7, label %11, label %8

8:                                                ; preds = %2
  tail call void @_ZNSt6vectorIiSaIiEEC2ERKS1_(%"class.std::vector"* nonnull align 8 dereferenceable(24) %4, %"class.std::vector"* nonnull align 8 dereferenceable(24) %1) #21
  %9 = load %"class.std::vector"*, %"class.std::vector"** %3, align 8, !tbaa !19
  %10 = getelementptr inbounds %"class.std::vector", %"class.std::vector"* %9, i64 1
  store %"class.std::vector"* %10, %"class.std::vector"** %3, align 8, !tbaa !19
  br label %12

11:                                               ; preds = %2
  tail call void @_ZNSt6vectorIS_IiSaIiEESaIS1_EE17_M_realloc_insertIJRKS1_EEEvN9__gnu_cxx17__normal_iteratorIPS1_S3_EEDpOT_(%"class.std::vector.3"* nonnull align 8 dereferenceable(24) %0, %"class.std::vector"* %4, %"class.std::vector"* nonnull align 8 dereferenceable(24) %1) #21
  br label %12

12:                                               ; preds = %11, %8
  ret void
}

; Function Attrs: minsize optsize sspstrong uwtable
define linkonce_odr dso_local void @_ZNSt6vectorIS_IiSaIiEESaIS1_EE17_M_realloc_insertIJRKS1_EEEvN9__gnu_cxx17__normal_iteratorIPS1_S3_EEDpOT_(%"class.std::vector.3"* nonnull align 8 dereferenceable(24) %0, %"class.std::vector"* %1, %"class.std::vector"* nonnull align 8 dereferenceable(24) %2) local_unnamed_addr #5 comdat align 2 personality i8* bitcast (i32 (...)* @__gxx_personality_v0 to i8*) {
  %4 = tail call i64 @_ZNKSt6vectorIS_IiSaIiEESaIS1_EE12_M_check_lenEmPKc(%"class.std::vector.3"* nonnull align 8 dereferenceable(24) %0, i64 1, i8* getelementptr inbounds ([26 x i8], [26 x i8]* @.str.2, i64 0, i64 0)) #21
  %5 = getelementptr inbounds %"class.std::vector.3", %"class.std::vector.3"* %0, i64 0, i32 0
  %6 = getelementptr inbounds %"class.std::vector.3", %"class.std::vector.3"* %0, i64 0, i32 0, i32 0, i32 0, i32 0
  %7 = load %"class.std::vector"*, %"class.std::vector"** %6, align 8, !tbaa !21
  %8 = getelementptr inbounds %"class.std::vector.3", %"class.std::vector.3"* %0, i64 0, i32 0, i32 0, i32 0, i32 1
  %9 = load %"class.std::vector"*, %"class.std::vector"** %8, align 8, !tbaa !19
  %10 = ptrtoint %"class.std::vector"* %1 to i64
  %11 = ptrtoint %"class.std::vector"* %7 to i64
  %12 = sub i64 %10, %11
  %13 = sdiv exact i64 %12, 24
  %14 = tail call %"class.std::vector"* @_ZNSt12_Vector_baseISt6vectorIiSaIiEESaIS2_EE11_M_allocateEm(%"struct.std::_Vector_base.4"* nonnull align 8 dereferenceable(24) %5, i64 %4) #21
  %15 = getelementptr inbounds %"class.std::vector", %"class.std::vector"* %14, i64 %13
  invoke void @_ZNSt6vectorIiSaIiEEC2ERKS1_(%"class.std::vector"* nonnull align 8 dereferenceable(24) %15, %"class.std::vector"* nonnull align 8 dereferenceable(24) %2) #21
          to label %16 unwind label %27

16:                                               ; preds = %3
  %17 = bitcast %"class.std::vector.3"* %0 to %"class.std::allocator.5"*
  %18 = tail call %"class.std::vector"* @_ZSt14__relocate_a_1IPSt6vectorIiSaIiEES3_SaIS2_EET0_T_S6_S5_RT1_(%"class.std::vector"* %7, %"class.std::vector"* %1, %"class.std::vector"* %14, %"class.std::allocator.5"* nonnull align 1 dereferenceable(1) %17) #24
  %19 = getelementptr inbounds %"class.std::vector", %"class.std::vector"* %18, i64 1
  %20 = tail call %"class.std::vector"* @_ZSt14__relocate_a_1IPSt6vectorIiSaIiEES3_SaIS2_EET0_T_S6_S5_RT1_(%"class.std::vector"* %1, %"class.std::vector"* %9, %"class.std::vector"* nonnull %19, %"class.std::allocator.5"* nonnull align 1 dereferenceable(1) %17) #24
  %21 = icmp eq %"class.std::vector"* %7, null
  br i1 %21, label %24, label %22

22:                                               ; preds = %16
  %23 = bitcast %"class.std::vector"* %7 to i8*
  tail call void @_ZdlPv(i8* nonnull %23) #24
  br label %24

24:                                               ; preds = %16, %22
  %25 = getelementptr inbounds %"class.std::vector.3", %"class.std::vector.3"* %0, i64 0, i32 0, i32 0, i32 0, i32 2
  store %"class.std::vector"* %14, %"class.std::vector"** %6, align 8, !tbaa !21
  store %"class.std::vector"* %20, %"class.std::vector"** %8, align 8, !tbaa !19
  %26 = getelementptr inbounds %"class.std::vector", %"class.std::vector"* %14, i64 %4
  store %"class.std::vector"* %26, %"class.std::vector"** %25, align 8, !tbaa !46
  ret void

27:                                               ; preds = %3
  %28 = landingpad { i8*, i32 }
          catch i8* null
  %29 = extractvalue { i8*, i32 } %28, 0
  %30 = tail call i8* @__cxa_begin_catch(i8* %29) #22
  %31 = icmp eq %"class.std::vector"* %14, null
  br i1 %31, label %32, label %34

32:                                               ; preds = %27
  %33 = getelementptr inbounds %"class.std::vector", %"class.std::vector"* %15, i64 0, i32 0
  tail call void @_ZNSt12_Vector_baseIiSaIiEED2Ev(%"struct.std::_Vector_base"* nonnull align 8 dereferenceable(24) %33) #24
  br label %39

34:                                               ; preds = %27
  invoke void @_ZNSt12_Destroy_auxILb0EE9__destroyIPSt6vectorIiSaIiEEEEvT_S6_(%"class.std::vector"* nonnull %14, %"class.std::vector"* nonnull %14) #21
          to label %37 unwind label %35

35:                                               ; preds = %34, %39
  %36 = landingpad { i8*, i32 }
          cleanup
  invoke void @__cxa_end_catch()
          to label %40 unwind label %41

37:                                               ; preds = %34
  %38 = bitcast %"class.std::vector"* %14 to i8*
  tail call void @_ZdlPv(i8* nonnull %38) #24
  br label %39

39:                                               ; preds = %37, %32
  invoke void @__cxa_rethrow() #29
          to label %44 unwind label %35

40:                                               ; preds = %35
  resume { i8*, i32 } %36

41:                                               ; preds = %35
  %42 = landingpad { i8*, i32 }
          catch i8* null
  %43 = extractvalue { i8*, i32 } %42, 0
  tail call void @__clang_call_terminate(i8* %43) #26
  unreachable

44:                                               ; preds = %39
  unreachable
}

; Function Attrs: minsize mustprogress optsize sspstrong uwtable
define linkonce_odr dso_local i64 @_ZNKSt6vectorIS_IiSaIiEESaIS1_EE12_M_check_lenEmPKc(%"class.std::vector.3"* nonnull align 8 dereferenceable(24) %0, i64 %1, i8* %2) local_unnamed_addr #3 comdat align 2 {
  %4 = getelementptr inbounds %"class.std::vector.3", %"class.std::vector.3"* %0, i64 0, i32 0, i32 0, i32 0, i32 1
  %5 = load %"class.std::vector"*, %"class.std::vector"** %4, align 8, !tbaa !19
  %6 = getelementptr inbounds %"class.std::vector.3", %"class.std::vector.3"* %0, i64 0, i32 0, i32 0, i32 0, i32 0
  %7 = load %"class.std::vector"*, %"class.std::vector"** %6, align 8, !tbaa !21
  %8 = ptrtoint %"class.std::vector"* %5 to i64
  %9 = ptrtoint %"class.std::vector"* %7 to i64
  %10 = sub i64 %8, %9
  %11 = sdiv exact i64 %10, 24
  %12 = sub nsw i64 384307168202282325, %11
  %13 = icmp ult i64 %12, %1
  br i1 %13, label %14, label %15

14:                                               ; preds = %3
  tail call void @_ZSt20__throw_length_errorPKc(i8* %2) #25
  unreachable

15:                                               ; preds = %3
  %16 = icmp ult i64 %11, %1
  %17 = select i1 %16, i64 %1, i64 %11
  %18 = add i64 %17, %11
  %19 = icmp ult i64 %18, %11
  %20 = icmp ugt i64 %18, 384307168202282325
  %21 = or i1 %19, %20
  %22 = select i1 %21, i64 384307168202282325, i64 %18
  ret i64 %22
}

; Function Attrs: minsize mustprogress optsize sspstrong uwtable
define linkonce_odr dso_local %"class.std::vector"* @_ZNSt12_Vector_baseISt6vectorIiSaIiEESaIS2_EE11_M_allocateEm(%"struct.std::_Vector_base.4"* nonnull align 8 dereferenceable(24) %0, i64 %1) local_unnamed_addr #3 comdat align 2 {
  %3 = icmp eq i64 %1, 0
  br i1 %3, label %7, label %4

4:                                                ; preds = %2
  %5 = bitcast %"struct.std::_Vector_base.4"* %0 to %"class.std::allocator.5"*
  %6 = tail call %"class.std::vector"* @_ZNSt16allocator_traitsISaISt6vectorIiSaIiEEEE8allocateERS3_m(%"class.std::allocator.5"* nonnull align 1 dereferenceable(1) %5, i64 %1) #21
  br label %7

7:                                                ; preds = %2, %4
  %8 = phi %"class.std::vector"* [ %6, %4 ], [ null, %2 ]
  ret %"class.std::vector"* %8
}

declare void @__cxa_rethrow() local_unnamed_addr

declare void @__cxa_end_catch() local_unnamed_addr

; Function Attrs: minsize mustprogress optsize sspstrong uwtable
define linkonce_odr dso_local %"class.std::vector"* @_ZNSt16allocator_traitsISaISt6vectorIiSaIiEEEE8allocateERS3_m(%"class.std::allocator.5"* nonnull align 1 dereferenceable(1) %0, i64 %1) local_unnamed_addr #3 comdat align 2 {
  %3 = bitcast %"class.std::allocator.5"* %0 to %"class.__gnu_cxx::new_allocator.6"*
  %4 = tail call %"class.std::vector"* @_ZN9__gnu_cxx13new_allocatorISt6vectorIiSaIiEEE8allocateEmPKv(%"class.__gnu_cxx::new_allocator.6"* nonnull align 1 dereferenceable(1) %3, i64 %1, i8* null) #21
  ret %"class.std::vector"* %4
}

; Function Attrs: minsize mustprogress optsize sspstrong uwtable
define linkonce_odr dso_local %"class.std::vector"* @_ZN9__gnu_cxx13new_allocatorISt6vectorIiSaIiEEE8allocateEmPKv(%"class.__gnu_cxx::new_allocator.6"* nonnull align 1 dereferenceable(1) %0, i64 %1, i8* %2) local_unnamed_addr #3 comdat align 2 {
  %4 = icmp ugt i64 %1, 384307168202282325
  br i1 %4, label %5, label %9, !prof !39

5:                                                ; preds = %3
  %6 = icmp ugt i64 %1, 768614336404564650
  br i1 %6, label %7, label %8

7:                                                ; preds = %5
  tail call void @_ZSt28__throw_bad_array_new_lengthv() #25
  unreachable

8:                                                ; preds = %5
  tail call void @_ZSt17__throw_bad_allocv() #25
  unreachable

9:                                                ; preds = %3
  %10 = mul nuw nsw i64 %1, 24
  %11 = tail call noalias nonnull i8* @_Znwm(i64 %10) #27
  %12 = bitcast i8* %11 to %"class.std::vector"*
  ret %"class.std::vector"* %12
}

; Function Attrs: inlinehint minsize mustprogress nounwind optsize sspstrong uwtable
define linkonce_odr dso_local %"class.std::vector"* @_ZSt14__relocate_a_1IPSt6vectorIiSaIiEES3_SaIS2_EET0_T_S6_S5_RT1_(%"class.std::vector"* %0, %"class.std::vector"* %1, %"class.std::vector"* %2, %"class.std::allocator.5"* nonnull align 1 dereferenceable(1) %3) local_unnamed_addr #14 comdat {
  br label %5

5:                                                ; preds = %9, %4
  %6 = phi %"class.std::vector"* [ %0, %4 ], [ %10, %9 ]
  %7 = phi %"class.std::vector"* [ %2, %4 ], [ %11, %9 ]
  %8 = icmp eq %"class.std::vector"* %6, %1
  br i1 %8, label %12, label %9

9:                                                ; preds = %5
  tail call void @_ZSt19__relocate_object_aISt6vectorIiSaIiEES2_SaIS2_EEvPT_PT0_RT1_(%"class.std::vector"* %7, %"class.std::vector"* %6, %"class.std::allocator.5"* nonnull align 1 dereferenceable(1) %3) #24
  %10 = getelementptr inbounds %"class.std::vector", %"class.std::vector"* %6, i64 1
  %11 = getelementptr inbounds %"class.std::vector", %"class.std::vector"* %7, i64 1
  br label %5, !llvm.loop !47

12:                                               ; preds = %5
  ret %"class.std::vector"* %7
}

; Function Attrs: inlinehint minsize nounwind optsize sspstrong uwtable
define linkonce_odr dso_local void @_ZSt19__relocate_object_aISt6vectorIiSaIiEES2_SaIS2_EEvPT_PT0_RT1_(%"class.std::vector"* noalias %0, %"class.std::vector"* noalias %1, %"class.std::allocator.5"* nonnull align 1 dereferenceable(1) %2) local_unnamed_addr #15 comdat personality i32 (...)* @__gxx_personality_v0 {
  %4 = bitcast %"class.std::vector"* %1 to <2 x i32*>*
  %5 = load <2 x i32*>, <2 x i32*>* %4, align 8, !tbaa !13
  %6 = bitcast %"class.std::vector"* %0 to <2 x i32*>*
  store <2 x i32*> %5, <2 x i32*>* %6, align 8, !tbaa !13
  %7 = getelementptr inbounds %"class.std::vector", %"class.std::vector"* %0, i64 0, i32 0, i32 0, i32 0, i32 2
  %8 = getelementptr inbounds %"class.std::vector", %"class.std::vector"* %1, i64 0, i32 0, i32 0, i32 0, i32 2
  %9 = load i32*, i32** %8, align 8, !tbaa !31
  store i32* %9, i32** %7, align 8, !tbaa !31
  %10 = bitcast %"class.std::vector"* %1 to i8*
  tail call void @llvm.memset.p0i8.i64(i8* noundef nonnull align 8 dereferenceable(24) %10, i8 0, i64 24, i1 false) #22
  %11 = getelementptr inbounds %"class.std::vector", %"class.std::vector"* %1, i64 0, i32 0
  tail call void @_ZNSt12_Vector_baseIiSaIiEED2Ev(%"struct.std::_Vector_base"* nonnull align 8 dereferenceable(24) %11) #24
  ret void
}

; Function Attrs: minsize optsize sspstrong uwtable
define linkonce_odr dso_local i64 @_ZNSt6vectorIiSaIiEE17_S_check_init_lenEmRKS0_(i64 %0, %"class.std::allocator.0"* nonnull align 1 dereferenceable(1) %1) local_unnamed_addr #5 comdat align 2 personality i32 (...)* @__gxx_personality_v0 {
  %3 = icmp ugt i64 %0, 2305843009213693951
  br i1 %3, label %4, label %5

4:                                                ; preds = %2
  tail call void @_ZSt20__throw_length_errorPKc(i8* getelementptr inbounds ([49 x i8], [49 x i8]* @.str.3, i64 0, i64 0)) #25
  unreachable

5:                                                ; preds = %2
  ret i64 %0
}

; Function Attrs: minsize mustprogress optsize sspstrong uwtable
define linkonce_odr dso_local void @_ZNSt6vectorIiSaIiEE21_M_default_initializeEm(%"class.std::vector"* nonnull align 8 dereferenceable(24) %0, i64 %1) local_unnamed_addr #3 comdat align 2 {
  %3 = getelementptr inbounds %"class.std::vector", %"class.std::vector"* %0, i64 0, i32 0, i32 0, i32 0, i32 0
  %4 = load i32*, i32** %3, align 8, !tbaa !24
  %5 = tail call i32* @_ZNSt27__uninitialized_default_n_1ILb1EE18__uninit_default_nIPimEET_S3_T0_(i32* %4, i64 %1) #21
  %6 = getelementptr inbounds %"class.std::vector", %"class.std::vector"* %0, i64 0, i32 0, i32 0, i32 0, i32 1
  store i32* %5, i32** %6, align 8, !tbaa !22
  ret void
}

; Function Attrs: minsize mustprogress optsize sspstrong uwtable
define linkonce_odr dso_local i32* @_ZNSt27__uninitialized_default_n_1ILb1EE18__uninit_default_nIPimEET_S3_T0_(i32* %0, i64 %1) local_unnamed_addr #3 comdat align 2 {
  %3 = icmp eq i64 %1, 0
  br i1 %3, label %8, label %4

4:                                                ; preds = %2
  store i32 0, i32* %0, align 4, !tbaa !5
  %5 = getelementptr inbounds i32, i32* %0, i64 1
  %6 = add i64 %1, -1
  %7 = tail call i32* @_ZSt10__fill_n_aIPimiET_S1_T0_RKT1_St26random_access_iterator_tag(i32* nonnull %5, i64 %6, i32* nonnull align 4 dereferenceable(4) %0) #21
  br label %8

8:                                                ; preds = %4, %2
  %9 = phi i32* [ %7, %4 ], [ %0, %2 ]
  ret i32* %9
}

; Function Attrs: inlinehint minsize mustprogress optsize sspstrong uwtable
define linkonce_odr dso_local i32* @_ZSt10__fill_n_aIPimiET_S1_T0_RKT1_St26random_access_iterator_tag(i32* %0, i64 %1, i32* nonnull align 4 dereferenceable(4) %2) local_unnamed_addr #4 comdat {
  %4 = icmp eq i64 %1, 0
  br i1 %4, label %13, label %5

5:                                                ; preds = %3
  %6 = getelementptr inbounds i32, i32* %0, i64 %1
  %7 = load i32, i32* %2, align 4, !tbaa !5
  br label %8

8:                                                ; preds = %11, %5
  %9 = phi i32* [ %0, %5 ], [ %12, %11 ]
  %10 = icmp eq i32* %9, %6
  br i1 %10, label %13, label %11

11:                                               ; preds = %8
  store i32 %7, i32* %9, align 4, !tbaa !5
  %12 = getelementptr inbounds i32, i32* %9, i64 1
  br label %8, !llvm.loop !48

13:                                               ; preds = %8, %3
  %14 = phi i32* [ %0, %3 ], [ %6, %8 ]
  ret i32* %14
}

; Function Attrs: inlinehint minsize mustprogress optsize sspstrong uwtable
define linkonce_odr dso_local void @_ZSt6__sortIN9__gnu_cxx17__normal_iteratorIPSt6vectorIiSaIiEES2_IS4_SaIS4_EEEENS0_5__ops15_Iter_less_iterEEvT_SB_T0_(%"class.std::vector"* %0, %"class.std::vector"* %1) local_unnamed_addr #4 comdat {
  %3 = icmp eq %"class.std::vector"* %0, %1
  br i1 %3, label %12, label %4

4:                                                ; preds = %2
  %5 = ptrtoint %"class.std::vector"* %1 to i64
  %6 = ptrtoint %"class.std::vector"* %0 to i64
  %7 = sub i64 %5, %6
  %8 = sdiv exact i64 %7, 24
  %9 = tail call i64 @llvm.ctlz.i64(i64 %8, i1 true) #22, !range !49
  %10 = shl nuw nsw i64 %9, 1
  %11 = xor i64 %10, 126
  tail call void @_ZSt16__introsort_loopIN9__gnu_cxx17__normal_iteratorIPSt6vectorIiSaIiEES2_IS4_SaIS4_EEEElNS0_5__ops15_Iter_less_iterEEvT_SB_T0_T1_(%"class.std::vector"* %0, %"class.std::vector"* %1, i64 %11) #21
  tail call void @_ZSt22__final_insertion_sortIN9__gnu_cxx17__normal_iteratorIPSt6vectorIiSaIiEES2_IS4_SaIS4_EEEENS0_5__ops15_Iter_less_iterEEvT_SB_T0_(%"class.std::vector"* %0, %"class.std::vector"* %1) #21
  br label %12

12:                                               ; preds = %4, %2
  ret void
}

; Function Attrs: minsize mustprogress optsize sspstrong uwtable
define linkonce_odr dso_local void @_ZSt16__introsort_loopIN9__gnu_cxx17__normal_iteratorIPSt6vectorIiSaIiEES2_IS4_SaIS4_EEEElNS0_5__ops15_Iter_less_iterEEvT_SB_T0_T1_(%"class.std::vector"* %0, %"class.std::vector"* %1, i64 %2) local_unnamed_addr #3 comdat {
  %4 = ptrtoint %"class.std::vector"* %0 to i64
  br label %5

5:                                                ; preds = %14, %3
  %6 = phi %"class.std::vector"* [ %1, %3 ], [ %16, %14 ]
  %7 = phi i64 [ %2, %3 ], [ %15, %14 ]
  %8 = ptrtoint %"class.std::vector"* %6 to i64
  %9 = sub i64 %8, %4
  %10 = icmp sgt i64 %9, 384
  br i1 %10, label %11, label %17

11:                                               ; preds = %5
  %12 = icmp eq i64 %7, 0
  br i1 %12, label %13, label %14

13:                                               ; preds = %11
  tail call void @_ZSt14__partial_sortIN9__gnu_cxx17__normal_iteratorIPSt6vectorIiSaIiEES2_IS4_SaIS4_EEEENS0_5__ops15_Iter_less_iterEEvT_SB_SB_T0_(%"class.std::vector"* %0, %"class.std::vector"* %6, %"class.std::vector"* %6) #21
  br label %17

14:                                               ; preds = %11
  %15 = add nsw i64 %7, -1
  %16 = tail call %"class.std::vector"* @_ZSt27__unguarded_partition_pivotIN9__gnu_cxx17__normal_iteratorIPSt6vectorIiSaIiEES2_IS4_SaIS4_EEEENS0_5__ops15_Iter_less_iterEET_SB_SB_T0_(%"class.std::vector"* %0, %"class.std::vector"* %6) #21
  tail call void @_ZSt16__introsort_loopIN9__gnu_cxx17__normal_iteratorIPSt6vectorIiSaIiEES2_IS4_SaIS4_EEEElNS0_5__ops15_Iter_less_iterEEvT_SB_T0_T1_(%"class.std::vector"* %16, %"class.std::vector"* %6, i64 %15) #21
  br label %5, !llvm.loop !50

17:                                               ; preds = %5, %13
  ret void
}

; Function Attrs: minsize optsize sspstrong uwtable
define linkonce_odr dso_local void @_ZSt22__final_insertion_sortIN9__gnu_cxx17__normal_iteratorIPSt6vectorIiSaIiEES2_IS4_SaIS4_EEEENS0_5__ops15_Iter_less_iterEEvT_SB_T0_(%"class.std::vector"* %0, %"class.std::vector"* %1) local_unnamed_addr #5 comdat {
  %3 = ptrtoint %"class.std::vector"* %1 to i64
  %4 = ptrtoint %"class.std::vector"* %0 to i64
  %5 = sub i64 %3, %4
  %6 = icmp sgt i64 %5, 384
  br i1 %6, label %7, label %9

7:                                                ; preds = %2
  %8 = getelementptr inbounds %"class.std::vector", %"class.std::vector"* %0, i64 16
  tail call void @_ZSt16__insertion_sortIN9__gnu_cxx17__normal_iteratorIPSt6vectorIiSaIiEES2_IS4_SaIS4_EEEENS0_5__ops15_Iter_less_iterEEvT_SB_T0_(%"class.std::vector"* %0, %"class.std::vector"* nonnull %8) #21
  tail call void @_ZSt26__unguarded_insertion_sortIN9__gnu_cxx17__normal_iteratorIPSt6vectorIiSaIiEES2_IS4_SaIS4_EEEENS0_5__ops15_Iter_less_iterEEvT_SB_T0_(%"class.std::vector"* nonnull %8, %"class.std::vector"* %1) #21
  br label %10

9:                                                ; preds = %2
  tail call void @_ZSt16__insertion_sortIN9__gnu_cxx17__normal_iteratorIPSt6vectorIiSaIiEES2_IS4_SaIS4_EEEENS0_5__ops15_Iter_less_iterEEvT_SB_T0_(%"class.std::vector"* %0, %"class.std::vector"* %1) #21
  br label %10

10:                                               ; preds = %9, %7
  ret void
}

; Function Attrs: inlinehint minsize mustprogress optsize sspstrong uwtable
define linkonce_odr dso_local void @_ZSt14__partial_sortIN9__gnu_cxx17__normal_iteratorIPSt6vectorIiSaIiEES2_IS4_SaIS4_EEEENS0_5__ops15_Iter_less_iterEEvT_SB_SB_T0_(%"class.std::vector"* %0, %"class.std::vector"* %1, %"class.std::vector"* %2) local_unnamed_addr #4 comdat {
  %4 = alloca %"struct.__gnu_cxx::__ops::_Iter_less_iter", align 1
  tail call void @_ZSt13__heap_selectIN9__gnu_cxx17__normal_iteratorIPSt6vectorIiSaIiEES2_IS4_SaIS4_EEEENS0_5__ops15_Iter_less_iterEEvT_SB_SB_T0_(%"class.std::vector"* %0, %"class.std::vector"* %1, %"class.std::vector"* %2) #21
  call void @_ZSt11__sort_heapIN9__gnu_cxx17__normal_iteratorIPSt6vectorIiSaIiEES2_IS4_SaIS4_EEEENS0_5__ops15_Iter_less_iterEEvT_SB_RT0_(%"class.std::vector"* %0, %"class.std::vector"* %1, %"struct.__gnu_cxx::__ops::_Iter_less_iter"* nonnull align 1 dereferenceable(1) %4) #21
  ret void
}

; Function Attrs: inlinehint minsize optsize sspstrong uwtable
define linkonce_odr dso_local %"class.std::vector"* @_ZSt27__unguarded_partition_pivotIN9__gnu_cxx17__normal_iteratorIPSt6vectorIiSaIiEES2_IS4_SaIS4_EEEENS0_5__ops15_Iter_less_iterEET_SB_SB_T0_(%"class.std::vector"* %0, %"class.std::vector"* %1) local_unnamed_addr #16 comdat {
  %3 = ptrtoint %"class.std::vector"* %1 to i64
  %4 = ptrtoint %"class.std::vector"* %0 to i64
  %5 = sub i64 %3, %4
  %6 = sdiv i64 %5, 48
  %7 = getelementptr inbounds %"class.std::vector", %"class.std::vector"* %0, i64 %6
  %8 = getelementptr inbounds %"class.std::vector", %"class.std::vector"* %0, i64 1
  %9 = getelementptr inbounds %"class.std::vector", %"class.std::vector"* %1, i64 -1
  tail call void @_ZSt22__move_median_to_firstIN9__gnu_cxx17__normal_iteratorIPSt6vectorIiSaIiEES2_IS4_SaIS4_EEEENS0_5__ops15_Iter_less_iterEEvT_SB_SB_SB_T0_(%"class.std::vector"* %0, %"class.std::vector"* nonnull %8, %"class.std::vector"* %7, %"class.std::vector"* nonnull %9) #21
  %10 = tail call %"class.std::vector"* @_ZSt21__unguarded_partitionIN9__gnu_cxx17__normal_iteratorIPSt6vectorIiSaIiEES2_IS4_SaIS4_EEEENS0_5__ops15_Iter_less_iterEET_SB_SB_SB_T0_(%"class.std::vector"* nonnull %8, %"class.std::vector"* %1, %"class.std::vector"* %0) #21
  ret %"class.std::vector"* %10
}

; Function Attrs: minsize mustprogress optsize sspstrong uwtable
define linkonce_odr dso_local void @_ZSt13__heap_selectIN9__gnu_cxx17__normal_iteratorIPSt6vectorIiSaIiEES2_IS4_SaIS4_EEEENS0_5__ops15_Iter_less_iterEEvT_SB_SB_T0_(%"class.std::vector"* %0, %"class.std::vector"* %1, %"class.std::vector"* %2) local_unnamed_addr #3 comdat {
  %4 = alloca %"struct.__gnu_cxx::__ops::_Iter_less_iter", align 1
  call void @_ZSt11__make_heapIN9__gnu_cxx17__normal_iteratorIPSt6vectorIiSaIiEES2_IS4_SaIS4_EEEENS0_5__ops15_Iter_less_iterEEvT_SB_RT0_(%"class.std::vector"* %0, %"class.std::vector"* %1, %"struct.__gnu_cxx::__ops::_Iter_less_iter"* nonnull align 1 dereferenceable(1) %4) #21
  br label %5

5:                                                ; preds = %12, %3
  %6 = phi %"class.std::vector"* [ %1, %3 ], [ %13, %12 ]
  %7 = icmp ult %"class.std::vector"* %6, %2
  br i1 %7, label %9, label %8

8:                                                ; preds = %5
  ret void

9:                                                ; preds = %5
  %10 = call zeroext i1 @_ZStltIiSaIiEEbRKSt6vectorIT_T0_ES6_(%"class.std::vector"* nonnull align 8 dereferenceable(24) %6, %"class.std::vector"* nonnull align 8 dereferenceable(24) %0) #21
  br i1 %10, label %11, label %12

11:                                               ; preds = %9
  call void @_ZSt10__pop_heapIN9__gnu_cxx17__normal_iteratorIPSt6vectorIiSaIiEES2_IS4_SaIS4_EEEENS0_5__ops15_Iter_less_iterEEvT_SB_SB_RT0_(%"class.std::vector"* nonnull %0, %"class.std::vector"* %1, %"class.std::vector"* nonnull %6, %"struct.__gnu_cxx::__ops::_Iter_less_iter"* nonnull align 1 dereferenceable(1) %4) #21
  br label %12

12:                                               ; preds = %9, %11
  %13 = getelementptr inbounds %"class.std::vector", %"class.std::vector"* %6, i64 1
  br label %5, !llvm.loop !51
}

; Function Attrs: minsize mustprogress optsize sspstrong uwtable
define linkonce_odr dso_local void @_ZSt11__sort_heapIN9__gnu_cxx17__normal_iteratorIPSt6vectorIiSaIiEES2_IS4_SaIS4_EEEENS0_5__ops15_Iter_less_iterEEvT_SB_RT0_(%"class.std::vector"* %0, %"class.std::vector"* %1, %"struct.__gnu_cxx::__ops::_Iter_less_iter"* nonnull align 1 dereferenceable(1) %2) local_unnamed_addr #3 comdat {
  %4 = ptrtoint %"class.std::vector"* %0 to i64
  br label %5

5:                                                ; preds = %10, %3
  %6 = phi %"class.std::vector"* [ %1, %3 ], [ %11, %10 ]
  %7 = ptrtoint %"class.std::vector"* %6 to i64
  %8 = sub i64 %7, %4
  %9 = icmp sgt i64 %8, 24
  br i1 %9, label %10, label %12

10:                                               ; preds = %5
  %11 = getelementptr inbounds %"class.std::vector", %"class.std::vector"* %6, i64 -1
  tail call void @_ZSt10__pop_heapIN9__gnu_cxx17__normal_iteratorIPSt6vectorIiSaIiEES2_IS4_SaIS4_EEEENS0_5__ops15_Iter_less_iterEEvT_SB_SB_RT0_(%"class.std::vector"* %0, %"class.std::vector"* nonnull %11, %"class.std::vector"* nonnull %11, %"struct.__gnu_cxx::__ops::_Iter_less_iter"* nonnull align 1 dereferenceable(1) %2) #21
  br label %5, !llvm.loop !52

12:                                               ; preds = %5
  ret void
}

; Function Attrs: minsize optsize sspstrong uwtable
define linkonce_odr dso_local void @_ZSt11__make_heapIN9__gnu_cxx17__normal_iteratorIPSt6vectorIiSaIiEES2_IS4_SaIS4_EEEENS0_5__ops15_Iter_less_iterEEvT_SB_RT0_(%"class.std::vector"* %0, %"class.std::vector"* %1, %"struct.__gnu_cxx::__ops::_Iter_less_iter"* nonnull align 1 dereferenceable(1) %2) local_unnamed_addr #5 comdat personality i8* bitcast (i32 (...)* @__gxx_personality_v0 to i8*) {
  %4 = alloca %"class.std::vector", align 8
  %5 = alloca %"class.std::vector", align 16
  %6 = ptrtoint %"class.std::vector"* %1 to i64
  %7 = ptrtoint %"class.std::vector"* %0 to i64
  %8 = sub i64 %6, %7
  %9 = sdiv exact i64 %8, 24
  %10 = icmp slt i64 %8, 48
  br i1 %10, label %32, label %11

11:                                               ; preds = %3
  %12 = add nsw i64 %9, -2
  %13 = lshr i64 %12, 1
  %14 = bitcast %"class.std::vector"* %4 to i8*
  %15 = getelementptr inbounds %"class.std::vector", %"class.std::vector"* %5, i64 0, i32 0, i32 0, i32 0, i32 2
  %16 = getelementptr inbounds %"class.std::vector", %"class.std::vector"* %5, i64 0, i32 0
  %17 = getelementptr inbounds %"class.std::vector", %"class.std::vector"* %4, i64 0, i32 0
  %18 = bitcast %"class.std::vector"* %5 to <2 x i32*>*
  br label %19

19:                                               ; preds = %27, %11
  %20 = phi i64 [ %13, %11 ], [ %29, %27 ]
  call void @llvm.lifetime.start.p0i8(i64 24, i8* nonnull %14) #22
  %21 = getelementptr inbounds %"class.std::vector", %"class.std::vector"* %0, i64 %20
  %22 = bitcast %"class.std::vector"* %21 to <2 x i32*>*
  %23 = load <2 x i32*>, <2 x i32*>* %22, align 8, !tbaa !13
  %24 = getelementptr inbounds %"class.std::vector", %"class.std::vector"* %0, i64 %20, i32 0, i32 0, i32 0, i32 2
  %25 = load i32*, i32** %24, align 8, !tbaa !31
  %26 = bitcast %"class.std::vector"* %21 to i8*
  call void @llvm.memset.p0i8.i64(i8* noundef nonnull align 8 dereferenceable(24) %26, i8 0, i64 24, i1 false) #22
  store <2 x i32*> %23, <2 x i32*>* %18, align 16, !tbaa !13
  store i32* %25, i32** %15, align 16, !tbaa !31
  call void @llvm.memset.p0i8.i64(i8* noundef nonnull align 8 dereferenceable(24) %14, i8 0, i64 24, i1 false) #22
  invoke void @_ZSt13__adjust_heapIN9__gnu_cxx17__normal_iteratorIPSt6vectorIiSaIiEES2_IS4_SaIS4_EEEElS4_NS0_5__ops15_Iter_less_iterEEvT_T0_SC_T1_T2_(%"class.std::vector"* nonnull %0, i64 %20, i64 %9, %"class.std::vector"* nonnull %5) #21
          to label %27 unwind label %30

27:                                               ; preds = %19
  call void @_ZNSt12_Vector_baseIiSaIiEED2Ev(%"struct.std::_Vector_base"* nonnull align 8 dereferenceable(24) %16) #24
  %28 = icmp eq i64 %20, 0
  %29 = add nsw i64 %20, -1
  call void @_ZNSt12_Vector_baseIiSaIiEED2Ev(%"struct.std::_Vector_base"* nonnull align 8 dereferenceable(24) %17) #24
  call void @llvm.lifetime.end.p0i8(i64 24, i8* nonnull %14) #22
  br i1 %28, label %32, label %19, !llvm.loop !53

30:                                               ; preds = %19
  %31 = landingpad { i8*, i32 }
          cleanup
  call void @_ZNSt12_Vector_baseIiSaIiEED2Ev(%"struct.std::_Vector_base"* nonnull align 8 dereferenceable(24) %16) #24
  call void @_ZNSt12_Vector_baseIiSaIiEED2Ev(%"struct.std::_Vector_base"* nonnull align 8 dereferenceable(24) %17) #24
  call void @llvm.lifetime.end.p0i8(i64 24, i8* nonnull %14) #22
  resume { i8*, i32 } %31

32:                                               ; preds = %27, %3
  ret void
}

; Function Attrs: inlinehint minsize optsize sspstrong uwtable
define linkonce_odr dso_local void @_ZSt10__pop_heapIN9__gnu_cxx17__normal_iteratorIPSt6vectorIiSaIiEES2_IS4_SaIS4_EEEENS0_5__ops15_Iter_less_iterEEvT_SB_SB_RT0_(%"class.std::vector"* %0, %"class.std::vector"* %1, %"class.std::vector"* %2, %"struct.__gnu_cxx::__ops::_Iter_less_iter"* nonnull align 1 dereferenceable(1) %3) local_unnamed_addr #16 comdat personality i8* bitcast (i32 (...)* @__gxx_personality_v0 to i8*) {
  %5 = alloca %"class.std::vector", align 8
  %6 = alloca %"class.std::vector", align 16
  %7 = bitcast %"class.std::vector"* %5 to i8*
  call void @llvm.lifetime.start.p0i8(i64 24, i8* nonnull %7) #22
  %8 = bitcast %"class.std::vector"* %2 to <2 x i32*>*
  %9 = load <2 x i32*>, <2 x i32*>* %8, align 8, !tbaa !13
  %10 = getelementptr inbounds %"class.std::vector", %"class.std::vector"* %2, i64 0, i32 0, i32 0, i32 0, i32 2
  %11 = load i32*, i32** %10, align 8, !tbaa !31
  %12 = bitcast %"class.std::vector"* %2 to i8*
  tail call void @llvm.memset.p0i8.i64(i8* noundef nonnull align 8 dereferenceable(24) %12, i8 0, i64 24, i1 false) #22
  tail call void @_ZNSt6vectorIiSaIiEE14_M_move_assignEOS1_St17integral_constantIbLb1EE(%"class.std::vector"* nonnull align 8 dereferenceable(24) %2, %"class.std::vector"* nonnull align 8 dereferenceable(24) %0) #24
  %13 = ptrtoint %"class.std::vector"* %1 to i64
  %14 = ptrtoint %"class.std::vector"* %0 to i64
  %15 = sub i64 %13, %14
  %16 = sdiv exact i64 %15, 24
  %17 = bitcast %"class.std::vector"* %6 to <2 x i32*>*
  store <2 x i32*> %9, <2 x i32*>* %17, align 16, !tbaa !13
  %18 = getelementptr inbounds %"class.std::vector", %"class.std::vector"* %6, i64 0, i32 0, i32 0, i32 0, i32 2
  store i32* %11, i32** %18, align 16, !tbaa !31
  call void @llvm.memset.p0i8.i64(i8* noundef nonnull align 8 dereferenceable(24) %7, i8 0, i64 24, i1 false) #22
  invoke void @_ZSt13__adjust_heapIN9__gnu_cxx17__normal_iteratorIPSt6vectorIiSaIiEES2_IS4_SaIS4_EEEElS4_NS0_5__ops15_Iter_less_iterEEvT_T0_SC_T1_T2_(%"class.std::vector"* nonnull %0, i64 0, i64 %16, %"class.std::vector"* nonnull %6) #21
          to label %19 unwind label %22

19:                                               ; preds = %4
  %20 = getelementptr inbounds %"class.std::vector", %"class.std::vector"* %6, i64 0, i32 0
  call void @_ZNSt12_Vector_baseIiSaIiEED2Ev(%"struct.std::_Vector_base"* nonnull align 8 dereferenceable(24) %20) #24
  %21 = getelementptr inbounds %"class.std::vector", %"class.std::vector"* %5, i64 0, i32 0
  call void @_ZNSt12_Vector_baseIiSaIiEED2Ev(%"struct.std::_Vector_base"* nonnull align 8 dereferenceable(24) %21) #24
  call void @llvm.lifetime.end.p0i8(i64 24, i8* nonnull %7) #22
  ret void

22:                                               ; preds = %4
  %23 = landingpad { i8*, i32 }
          cleanup
  %24 = getelementptr inbounds %"class.std::vector", %"class.std::vector"* %6, i64 0, i32 0
  call void @_ZNSt12_Vector_baseIiSaIiEED2Ev(%"struct.std::_Vector_base"* nonnull align 8 dereferenceable(24) %24) #24
  %25 = getelementptr inbounds %"class.std::vector", %"class.std::vector"* %5, i64 0, i32 0
  call void @_ZNSt12_Vector_baseIiSaIiEED2Ev(%"struct.std::_Vector_base"* nonnull align 8 dereferenceable(24) %25) #24
  call void @llvm.lifetime.end.p0i8(i64 24, i8* nonnull %7) #22
  resume { i8*, i32 } %23
}

; Function Attrs: minsize optsize sspstrong uwtable
define linkonce_odr dso_local void @_ZSt13__adjust_heapIN9__gnu_cxx17__normal_iteratorIPSt6vectorIiSaIiEES2_IS4_SaIS4_EEEElS4_NS0_5__ops15_Iter_less_iterEEvT_T0_SC_T1_T2_(%"class.std::vector"* %0, i64 %1, i64 %2, %"class.std::vector"* %3) local_unnamed_addr #5 comdat personality i8* bitcast (i32 (...)* @__gxx_personality_v0 to i8*) {
  %5 = alloca %"struct.__gnu_cxx::__ops::_Iter_less_val", align 1
  %6 = alloca %"class.std::vector", align 16
  %7 = add nsw i64 %2, -1
  %8 = sdiv i64 %7, 2
  br label %9

9:                                                ; preds = %12, %4
  %10 = phi i64 [ %1, %4 ], [ %19, %12 ]
  %11 = icmp slt i64 %10, %8
  br i1 %11, label %12, label %22

12:                                               ; preds = %9
  %13 = shl i64 %10, 1
  %14 = add i64 %13, 2
  %15 = getelementptr inbounds %"class.std::vector", %"class.std::vector"* %0, i64 %14
  %16 = or i64 %13, 1
  %17 = getelementptr inbounds %"class.std::vector", %"class.std::vector"* %0, i64 %16
  %18 = tail call zeroext i1 @_ZStltIiSaIiEEbRKSt6vectorIT_T0_ES6_(%"class.std::vector"* nonnull align 8 dereferenceable(24) %15, %"class.std::vector"* nonnull align 8 dereferenceable(24) %17) #21
  %19 = select i1 %18, i64 %16, i64 %14
  %20 = getelementptr inbounds %"class.std::vector", %"class.std::vector"* %0, i64 %19
  %21 = getelementptr inbounds %"class.std::vector", %"class.std::vector"* %0, i64 %10
  tail call void @_ZNSt6vectorIiSaIiEE14_M_move_assignEOS1_St17integral_constantIbLb1EE(%"class.std::vector"* nonnull align 8 dereferenceable(24) %21, %"class.std::vector"* nonnull align 8 dereferenceable(24) %20) #24
  br label %9, !llvm.loop !54

22:                                               ; preds = %9
  %23 = and i64 %2, 1
  %24 = icmp eq i64 %23, 0
  br i1 %24, label %25, label %34

25:                                               ; preds = %22
  %26 = add nsw i64 %2, -2
  %27 = sdiv i64 %26, 2
  %28 = icmp eq i64 %10, %27
  br i1 %28, label %29, label %34

29:                                               ; preds = %25
  %30 = shl i64 %10, 1
  %31 = or i64 %30, 1
  %32 = getelementptr inbounds %"class.std::vector", %"class.std::vector"* %0, i64 %31
  %33 = getelementptr inbounds %"class.std::vector", %"class.std::vector"* %0, i64 %10
  tail call void @_ZNSt6vectorIiSaIiEE14_M_move_assignEOS1_St17integral_constantIbLb1EE(%"class.std::vector"* nonnull align 8 dereferenceable(24) %33, %"class.std::vector"* nonnull align 8 dereferenceable(24) %32) #24
  br label %34

34:                                               ; preds = %29, %25, %22
  %35 = phi i64 [ %31, %29 ], [ %10, %25 ], [ %10, %22 ]
  %36 = getelementptr inbounds %"struct.__gnu_cxx::__ops::_Iter_less_val", %"struct.__gnu_cxx::__ops::_Iter_less_val"* %5, i64 0, i32 0
  call void @llvm.lifetime.start.p0i8(i64 1, i8* nonnull %36) #22
  %37 = bitcast %"class.std::vector"* %3 to <2 x i32*>*
  %38 = load <2 x i32*>, <2 x i32*>* %37, align 8, !tbaa !13
  %39 = bitcast %"class.std::vector"* %6 to <2 x i32*>*
  store <2 x i32*> %38, <2 x i32*>* %39, align 16, !tbaa !13
  %40 = getelementptr inbounds %"class.std::vector", %"class.std::vector"* %6, i64 0, i32 0, i32 0, i32 0, i32 2
  %41 = getelementptr inbounds %"class.std::vector", %"class.std::vector"* %3, i64 0, i32 0, i32 0, i32 0, i32 2
  %42 = load i32*, i32** %41, align 8, !tbaa !31
  store i32* %42, i32** %40, align 16, !tbaa !31
  %43 = bitcast %"class.std::vector"* %3 to i8*
  tail call void @llvm.memset.p0i8.i64(i8* noundef nonnull align 8 dereferenceable(24) %43, i8 0, i64 24, i1 false) #22
  invoke void @_ZSt11__push_heapIN9__gnu_cxx17__normal_iteratorIPSt6vectorIiSaIiEES2_IS4_SaIS4_EEEElS4_NS0_5__ops14_Iter_less_valEEvT_T0_SC_T1_RT2_(%"class.std::vector"* %0, i64 %35, i64 %1, %"class.std::vector"* nonnull %6, %"struct.__gnu_cxx::__ops::_Iter_less_val"* nonnull align 1 dereferenceable(1) %5) #21
          to label %44 unwind label %46

44:                                               ; preds = %34
  %45 = getelementptr inbounds %"class.std::vector", %"class.std::vector"* %6, i64 0, i32 0
  call void @_ZNSt12_Vector_baseIiSaIiEED2Ev(%"struct.std::_Vector_base"* nonnull align 8 dereferenceable(24) %45) #24
  call void @llvm.lifetime.end.p0i8(i64 1, i8* nonnull %36) #22
  ret void

46:                                               ; preds = %34
  %47 = landingpad { i8*, i32 }
          cleanup
  %48 = getelementptr inbounds %"class.std::vector", %"class.std::vector"* %6, i64 0, i32 0
  call void @_ZNSt12_Vector_baseIiSaIiEED2Ev(%"struct.std::_Vector_base"* nonnull align 8 dereferenceable(24) %48) #24
  call void @llvm.lifetime.end.p0i8(i64 1, i8* nonnull %36) #22
  resume { i8*, i32 } %47
}

; Function Attrs: minsize optsize sspstrong uwtable
define linkonce_odr dso_local void @_ZSt11__push_heapIN9__gnu_cxx17__normal_iteratorIPSt6vectorIiSaIiEES2_IS4_SaIS4_EEEElS4_NS0_5__ops14_Iter_less_valEEvT_T0_SC_T1_RT2_(%"class.std::vector"* %0, i64 %1, i64 %2, %"class.std::vector"* %3, %"struct.__gnu_cxx::__ops::_Iter_less_val"* nonnull align 1 dereferenceable(1) %4) local_unnamed_addr #5 comdat {
  br label %6

6:                                                ; preds = %14, %5
  %7 = phi i64 [ %1, %5 ], [ %9, %14 ]
  %8 = add nsw i64 %7, -1
  %9 = sdiv i64 %8, 2
  %10 = icmp sgt i64 %7, %2
  br i1 %10, label %11, label %16

11:                                               ; preds = %6
  %12 = getelementptr inbounds %"class.std::vector", %"class.std::vector"* %0, i64 %9
  %13 = tail call zeroext i1 @_ZStltIiSaIiEEbRKSt6vectorIT_T0_ES6_(%"class.std::vector"* nonnull align 8 dereferenceable(24) %12, %"class.std::vector"* nonnull align 8 dereferenceable(24) %3) #21
  br i1 %13, label %14, label %16

14:                                               ; preds = %11
  %15 = getelementptr inbounds %"class.std::vector", %"class.std::vector"* %0, i64 %7
  tail call void @_ZNSt6vectorIiSaIiEE14_M_move_assignEOS1_St17integral_constantIbLb1EE(%"class.std::vector"* nonnull align 8 dereferenceable(24) %15, %"class.std::vector"* nonnull align 8 dereferenceable(24) %12) #24
  br label %6, !llvm.loop !55

16:                                               ; preds = %6, %11
  %17 = getelementptr inbounds %"class.std::vector", %"class.std::vector"* %0, i64 %7
  tail call void @_ZNSt6vectorIiSaIiEE14_M_move_assignEOS1_St17integral_constantIbLb1EE(%"class.std::vector"* nonnull align 8 dereferenceable(24) %17, %"class.std::vector"* nonnull align 8 dereferenceable(24) %3) #24
  ret void
}

; Function Attrs: minsize nounwind optsize sspstrong uwtable
define linkonce_odr dso_local void @_ZNSt6vectorIiSaIiEE14_M_move_assignEOS1_St17integral_constantIbLb1EE(%"class.std::vector"* nonnull align 8 dereferenceable(24) %0, %"class.std::vector"* nonnull align 8 dereferenceable(24) %1) local_unnamed_addr #7 comdat align 2 personality i8* bitcast (i32 (...)* @__gxx_personality_v0 to i8*) {
  %3 = alloca %"class.std::vector", align 16
  %4 = bitcast %"class.std::vector"* %3 to i8*
  call void @llvm.lifetime.start.p0i8(i64 24, i8* nonnull %4) #22
  %5 = getelementptr inbounds %"class.std::vector", %"class.std::vector"* %0, i64 0, i32 0, i32 0, i32 0
  %6 = getelementptr inbounds %"class.std::vector", %"class.std::vector"* %1, i64 0, i32 0, i32 0, i32 0
  tail call void @_ZNSt12_Vector_baseIiSaIiEE17_Vector_impl_data12_M_swap_dataERS2_(%"struct.std::_Vector_base<int, std::allocator<int>>::_Vector_impl_data"* nonnull align 8 dereferenceable(24) %5, %"struct.std::_Vector_base<int, std::allocator<int>>::_Vector_impl_data"* nonnull align 8 dereferenceable(24) %6) #24
  %7 = getelementptr inbounds %"class.std::vector", %"class.std::vector"* %3, i64 0, i32 0, i32 0, i32 0, i32 2
  %8 = bitcast %"class.std::vector"* %1 to <2 x i32*>*
  %9 = load <2 x i32*>, <2 x i32*>* %8, align 8, !tbaa !13
  %10 = bitcast %"class.std::vector"* %3 to <2 x i32*>*
  store <2 x i32*> %9, <2 x i32*>* %10, align 16, !tbaa !13
  %11 = getelementptr inbounds %"class.std::vector", %"class.std::vector"* %1, i64 0, i32 0, i32 0, i32 0, i32 2
  %12 = load i32*, i32** %11, align 8, !tbaa !31
  store i32* %12, i32** %7, align 16, !tbaa !31
  %13 = getelementptr inbounds %"class.std::vector", %"class.std::vector"* %3, i64 0, i32 0
  %14 = bitcast %"class.std::vector"* %1 to i8*
  call void @llvm.memset.p0i8.i64(i8* noundef nonnull align 8 dereferenceable(24) %14, i8 0, i64 24, i1 false)
  call void @_ZNSt12_Vector_baseIiSaIiEED2Ev(%"struct.std::_Vector_base"* nonnull align 8 dereferenceable(24) %13) #24
  call void @llvm.lifetime.end.p0i8(i64 24, i8* nonnull %4) #22
  ret void
}

; Function Attrs: minsize nounwind optsize sspstrong uwtable
define linkonce_odr dso_local void @_ZNSt12_Vector_baseIiSaIiEE17_Vector_impl_data12_M_swap_dataERS2_(%"struct.std::_Vector_base<int, std::allocator<int>>::_Vector_impl_data"* nonnull align 8 dereferenceable(24) %0, %"struct.std::_Vector_base<int, std::allocator<int>>::_Vector_impl_data"* nonnull align 8 dereferenceable(24) %1) local_unnamed_addr #7 comdat align 2 {
  %3 = bitcast %"struct.std::_Vector_base<int, std::allocator<int>>::_Vector_impl_data"* %0 to <2 x i32*>*
  %4 = load <2 x i32*>, <2 x i32*>* %3, align 8, !tbaa !13
  %5 = getelementptr inbounds %"struct.std::_Vector_base<int, std::allocator<int>>::_Vector_impl_data", %"struct.std::_Vector_base<int, std::allocator<int>>::_Vector_impl_data"* %0, i64 0, i32 2
  %6 = load i32*, i32** %5, align 8, !tbaa !31
  %7 = bitcast %"struct.std::_Vector_base<int, std::allocator<int>>::_Vector_impl_data"* %1 to <2 x i32*>*
  %8 = load <2 x i32*>, <2 x i32*>* %7, align 8, !tbaa !13
  %9 = bitcast %"struct.std::_Vector_base<int, std::allocator<int>>::_Vector_impl_data"* %0 to <2 x i32*>*
  store <2 x i32*> %8, <2 x i32*>* %9, align 8, !tbaa !13
  %10 = getelementptr inbounds %"struct.std::_Vector_base<int, std::allocator<int>>::_Vector_impl_data", %"struct.std::_Vector_base<int, std::allocator<int>>::_Vector_impl_data"* %1, i64 0, i32 2
  %11 = load i32*, i32** %10, align 8, !tbaa !31
  store i32* %11, i32** %5, align 8, !tbaa !31
  %12 = bitcast %"struct.std::_Vector_base<int, std::allocator<int>>::_Vector_impl_data"* %1 to <2 x i32*>*
  store <2 x i32*> %4, <2 x i32*>* %12, align 8, !tbaa !13
  store i32* %6, i32** %10, align 8, !tbaa !31
  ret void
}

; Function Attrs: inlinehint minsize optsize sspstrong uwtable
define linkonce_odr dso_local zeroext i1 @_ZStltIiSaIiEEbRKSt6vectorIT_T0_ES6_(%"class.std::vector"* nonnull align 8 dereferenceable(24) %0, %"class.std::vector"* nonnull align 8 dereferenceable(24) %1) local_unnamed_addr #16 comdat {
  %3 = getelementptr inbounds %"class.std::vector", %"class.std::vector"* %0, i64 0, i32 0, i32 0, i32 0, i32 0
  %4 = load i32*, i32** %3, align 8, !tbaa !13
  %5 = getelementptr inbounds %"class.std::vector", %"class.std::vector"* %0, i64 0, i32 0, i32 0, i32 0, i32 1
  %6 = load i32*, i32** %5, align 8, !tbaa !13
  %7 = getelementptr inbounds %"class.std::vector", %"class.std::vector"* %1, i64 0, i32 0, i32 0, i32 0, i32 0
  %8 = load i32*, i32** %7, align 8, !tbaa !13
  %9 = getelementptr inbounds %"class.std::vector", %"class.std::vector"* %1, i64 0, i32 0, i32 0, i32 0, i32 1
  %10 = load i32*, i32** %9, align 8, !tbaa !13
  %11 = tail call zeroext i1 @_ZSt30__lexicographical_compare_implIPKiS1_N9__gnu_cxx5__ops15_Iter_less_iterEEbT_S5_T0_S6_T1_(i32* %4, i32* %6, i32* %8, i32* %10) #21
  ret i1 %11
}

; Function Attrs: minsize mustprogress optsize sspstrong uwtable
define linkonce_odr dso_local zeroext i1 @_ZSt30__lexicographical_compare_implIPKiS1_N9__gnu_cxx5__ops15_Iter_less_iterEEbT_S5_T0_S6_T1_(i32* %0, i32* %1, i32* %2, i32* %3) local_unnamed_addr #3 comdat {
  %5 = ptrtoint i32* %1 to i64
  %6 = ptrtoint i32* %0 to i64
  %7 = sub i64 %5, %6
  %8 = ashr exact i64 %7, 2
  %9 = ptrtoint i32* %3 to i64
  %10 = ptrtoint i32* %2 to i64
  %11 = sub i64 %9, %10
  %12 = ashr exact i64 %11, 2
  %13 = icmp slt i64 %12, %8
  %14 = getelementptr inbounds i32, i32* %0, i64 %12
  %15 = select i1 %13, i32* %14, i32* %1
  br label %16

16:                                               ; preds = %24, %4
  %17 = phi i32* [ %0, %4 ], [ %25, %24 ]
  %18 = phi i32* [ %2, %4 ], [ %26, %24 ]
  %19 = icmp eq i32* %17, %15
  br i1 %19, label %27, label %20

20:                                               ; preds = %16
  %21 = load i32, i32* %17, align 4, !tbaa !5
  %22 = load i32, i32* %18, align 4, !tbaa !5
  %23 = icmp eq i32 %22, %21
  br i1 %23, label %24, label %29

24:                                               ; preds = %20
  %25 = getelementptr inbounds i32, i32* %17, i64 1
  %26 = getelementptr inbounds i32, i32* %18, i64 1
  br label %16, !llvm.loop !56

27:                                               ; preds = %16
  %28 = icmp ne i32* %18, %3
  br label %31

29:                                               ; preds = %20
  %30 = icmp sgt i32 %22, %21
  br label %31

31:                                               ; preds = %29, %27
  %32 = phi i1 [ %28, %27 ], [ %30, %29 ]
  ret i1 %32
}

; Function Attrs: minsize mustprogress optsize sspstrong uwtable
define linkonce_odr dso_local void @_ZSt22__move_median_to_firstIN9__gnu_cxx17__normal_iteratorIPSt6vectorIiSaIiEES2_IS4_SaIS4_EEEENS0_5__ops15_Iter_less_iterEEvT_SB_SB_SB_T0_(%"class.std::vector"* %0, %"class.std::vector"* %1, %"class.std::vector"* %2, %"class.std::vector"* %3) local_unnamed_addr #3 comdat personality i32 (...)* @__gxx_personality_v0 {
  %5 = tail call zeroext i1 @_ZStltIiSaIiEEbRKSt6vectorIT_T0_ES6_(%"class.std::vector"* nonnull align 8 dereferenceable(24) %1, %"class.std::vector"* nonnull align 8 dereferenceable(24) %2) #21
  br i1 %5, label %6, label %8

6:                                                ; preds = %4
  %7 = tail call zeroext i1 @_ZStltIiSaIiEEbRKSt6vectorIT_T0_ES6_(%"class.std::vector"* nonnull align 8 dereferenceable(24) %2, %"class.std::vector"* nonnull align 8 dereferenceable(24) %3) #21
  br i1 %7, label %14, label %10

8:                                                ; preds = %4
  %9 = tail call zeroext i1 @_ZStltIiSaIiEEbRKSt6vectorIT_T0_ES6_(%"class.std::vector"* nonnull align 8 dereferenceable(24) %1, %"class.std::vector"* nonnull align 8 dereferenceable(24) %3) #21
  br i1 %9, label %14, label %10

10:                                               ; preds = %8, %6
  %11 = phi %"class.std::vector"* [ %1, %6 ], [ %2, %8 ]
  %12 = tail call zeroext i1 @_ZStltIiSaIiEEbRKSt6vectorIT_T0_ES6_(%"class.std::vector"* nonnull align 8 dereferenceable(24) %11, %"class.std::vector"* nonnull align 8 dereferenceable(24) %3) #21
  %13 = select i1 %12, %"class.std::vector"* %3, %"class.std::vector"* %11
  br label %14

14:                                               ; preds = %10, %8, %6
  %15 = phi %"class.std::vector"* [ %2, %6 ], [ %1, %8 ], [ %13, %10 ]
  %16 = getelementptr inbounds %"class.std::vector", %"class.std::vector"* %0, i64 0, i32 0, i32 0, i32 0
  %17 = getelementptr inbounds %"class.std::vector", %"class.std::vector"* %15, i64 0, i32 0, i32 0, i32 0
  tail call void @_ZNSt12_Vector_baseIiSaIiEE17_Vector_impl_data12_M_swap_dataERS2_(%"struct.std::_Vector_base<int, std::allocator<int>>::_Vector_impl_data"* nonnull align 8 dereferenceable(24) %16, %"struct.std::_Vector_base<int, std::allocator<int>>::_Vector_impl_data"* nonnull align 8 dereferenceable(24) %17) #24
  ret void
}

; Function Attrs: minsize mustprogress optsize sspstrong uwtable
define linkonce_odr dso_local %"class.std::vector"* @_ZSt21__unguarded_partitionIN9__gnu_cxx17__normal_iteratorIPSt6vectorIiSaIiEES2_IS4_SaIS4_EEEENS0_5__ops15_Iter_less_iterEET_SB_SB_SB_T0_(%"class.std::vector"* %0, %"class.std::vector"* %1, %"class.std::vector"* %2) local_unnamed_addr #3 comdat personality i32 (...)* @__gxx_personality_v0 {
  br label %4

4:                                                ; preds = %3, %18
  %5 = phi %"class.std::vector"* [ %0, %3 ], [ %10, %18 ]
  %6 = phi %"class.std::vector"* [ %1, %3 ], [ %13, %18 ]
  br label %7

7:                                                ; preds = %7, %4
  %8 = phi %"class.std::vector"* [ %5, %4 ], [ %10, %7 ]
  %9 = tail call zeroext i1 @_ZStltIiSaIiEEbRKSt6vectorIT_T0_ES6_(%"class.std::vector"* nonnull align 8 dereferenceable(24) %8, %"class.std::vector"* nonnull align 8 dereferenceable(24) %2) #21
  %10 = getelementptr inbounds %"class.std::vector", %"class.std::vector"* %8, i64 1
  br i1 %9, label %7, label %11, !llvm.loop !57

11:                                               ; preds = %7, %11
  %12 = phi %"class.std::vector"* [ %13, %11 ], [ %6, %7 ]
  %13 = getelementptr inbounds %"class.std::vector", %"class.std::vector"* %12, i64 -1
  %14 = tail call zeroext i1 @_ZStltIiSaIiEEbRKSt6vectorIT_T0_ES6_(%"class.std::vector"* nonnull align 8 dereferenceable(24) %2, %"class.std::vector"* nonnull align 8 dereferenceable(24) %13) #21
  br i1 %14, label %11, label %15, !llvm.loop !58

15:                                               ; preds = %11
  %16 = icmp ult %"class.std::vector"* %8, %13
  br i1 %16, label %18, label %17

17:                                               ; preds = %15
  ret %"class.std::vector"* %8

18:                                               ; preds = %15
  %19 = getelementptr inbounds %"class.std::vector", %"class.std::vector"* %8, i64 0, i32 0, i32 0, i32 0
  %20 = getelementptr inbounds %"class.std::vector", %"class.std::vector"* %13, i64 0, i32 0, i32 0, i32 0
  tail call void @_ZNSt12_Vector_baseIiSaIiEE17_Vector_impl_data12_M_swap_dataERS2_(%"struct.std::_Vector_base<int, std::allocator<int>>::_Vector_impl_data"* nonnull align 8 dereferenceable(24) %19, %"struct.std::_Vector_base<int, std::allocator<int>>::_Vector_impl_data"* nonnull align 8 dereferenceable(24) %20) #24
  br label %4, !llvm.loop !59
}

; Function Attrs: mustprogress nofree nosync nounwind readnone speculatable willreturn
declare i64 @llvm.ctlz.i64(i64, i1 immarg) #17

; Function Attrs: minsize optsize sspstrong uwtable
define linkonce_odr dso_local void @_ZSt16__insertion_sortIN9__gnu_cxx17__normal_iteratorIPSt6vectorIiSaIiEES2_IS4_SaIS4_EEEENS0_5__ops15_Iter_less_iterEEvT_SB_T0_(%"class.std::vector"* %0, %"class.std::vector"* %1) local_unnamed_addr #5 comdat personality i8* bitcast (i32 (...)* @__gxx_personality_v0 to i8*) {
  %3 = alloca %"class.std::vector", align 16
  %4 = icmp eq %"class.std::vector"* %0, %1
  br i1 %4, label %29, label %5

5:                                                ; preds = %2
  %6 = bitcast %"class.std::vector"* %3 to i8*
  %7 = getelementptr inbounds %"class.std::vector", %"class.std::vector"* %3, i64 0, i32 0, i32 0, i32 0, i32 2
  %8 = getelementptr inbounds %"class.std::vector", %"class.std::vector"* %3, i64 0, i32 0
  %9 = bitcast %"class.std::vector"* %3 to <2 x i32*>*
  br label %10

10:                                               ; preds = %25, %5
  %11 = phi %"class.std::vector"* [ %0, %5 ], [ %12, %25 ]
  %12 = getelementptr inbounds %"class.std::vector", %"class.std::vector"* %11, i64 1
  %13 = icmp eq %"class.std::vector"* %12, %1
  br i1 %13, label %29, label %14

14:                                               ; preds = %10
  %15 = call zeroext i1 @_ZStltIiSaIiEEbRKSt6vectorIT_T0_ES6_(%"class.std::vector"* nonnull align 8 dereferenceable(24) %12, %"class.std::vector"* nonnull align 8 dereferenceable(24) %0) #21
  br i1 %15, label %16, label %28

16:                                               ; preds = %14
  call void @llvm.lifetime.start.p0i8(i64 24, i8* nonnull %6) #22
  %17 = bitcast %"class.std::vector"* %12 to <2 x i32*>*
  %18 = load <2 x i32*>, <2 x i32*>* %17, align 8, !tbaa !13
  store <2 x i32*> %18, <2 x i32*>* %9, align 16, !tbaa !13
  %19 = getelementptr inbounds %"class.std::vector", %"class.std::vector"* %11, i64 1, i32 0, i32 0, i32 0, i32 2
  %20 = load i32*, i32** %19, align 8, !tbaa !31
  store i32* %20, i32** %7, align 16, !tbaa !31
  %21 = bitcast %"class.std::vector"* %12 to i8*
  call void @llvm.memset.p0i8.i64(i8* noundef nonnull align 8 dereferenceable(24) %21, i8 0, i64 24, i1 false) #22
  %22 = getelementptr inbounds %"class.std::vector", %"class.std::vector"* %11, i64 2
  %23 = invoke %"class.std::vector"* @_ZSt22__copy_move_backward_aILb1EN9__gnu_cxx17__normal_iteratorIPSt6vectorIiSaIiEES2_IS4_SaIS4_EEEES8_ET1_T0_SA_S9_(%"class.std::vector"* nonnull %0, %"class.std::vector"* nonnull %12, %"class.std::vector"* nonnull %22) #21
          to label %24 unwind label %26

24:                                               ; preds = %16
  call void @_ZNSt6vectorIiSaIiEE14_M_move_assignEOS1_St17integral_constantIbLb1EE(%"class.std::vector"* nonnull align 8 dereferenceable(24) %0, %"class.std::vector"* nonnull align 8 dereferenceable(24) %3) #24
  call void @_ZNSt12_Vector_baseIiSaIiEED2Ev(%"struct.std::_Vector_base"* nonnull align 8 dereferenceable(24) %8) #24
  call void @llvm.lifetime.end.p0i8(i64 24, i8* nonnull %6) #22
  br label %25

25:                                               ; preds = %24, %28
  br label %10, !llvm.loop !60

26:                                               ; preds = %16
  %27 = landingpad { i8*, i32 }
          cleanup
  call void @_ZNSt12_Vector_baseIiSaIiEED2Ev(%"struct.std::_Vector_base"* nonnull align 8 dereferenceable(24) %8) #24
  call void @llvm.lifetime.end.p0i8(i64 24, i8* nonnull %6) #22
  resume { i8*, i32 } %27

28:                                               ; preds = %14
  call void @_ZSt25__unguarded_linear_insertIN9__gnu_cxx17__normal_iteratorIPSt6vectorIiSaIiEES2_IS4_SaIS4_EEEENS0_5__ops14_Val_less_iterEEvT_T0_(%"class.std::vector"* nonnull %12) #21
  br label %25

29:                                               ; preds = %10, %2
  ret void
}

; Function Attrs: inlinehint minsize mustprogress optsize sspstrong uwtable
define linkonce_odr dso_local void @_ZSt26__unguarded_insertion_sortIN9__gnu_cxx17__normal_iteratorIPSt6vectorIiSaIiEES2_IS4_SaIS4_EEEENS0_5__ops15_Iter_less_iterEEvT_SB_T0_(%"class.std::vector"* %0, %"class.std::vector"* %1) local_unnamed_addr #4 comdat {
  br label %3

3:                                                ; preds = %7, %2
  %4 = phi %"class.std::vector"* [ %0, %2 ], [ %8, %7 ]
  %5 = icmp eq %"class.std::vector"* %4, %1
  br i1 %5, label %6, label %7

6:                                                ; preds = %3
  ret void

7:                                                ; preds = %3
  tail call void @_ZSt25__unguarded_linear_insertIN9__gnu_cxx17__normal_iteratorIPSt6vectorIiSaIiEES2_IS4_SaIS4_EEEENS0_5__ops14_Val_less_iterEEvT_T0_(%"class.std::vector"* %4) #21
  %8 = getelementptr inbounds %"class.std::vector", %"class.std::vector"* %4, i64 1
  br label %3, !llvm.loop !61
}

; Function Attrs: minsize optsize sspstrong uwtable
define linkonce_odr dso_local void @_ZSt25__unguarded_linear_insertIN9__gnu_cxx17__normal_iteratorIPSt6vectorIiSaIiEES2_IS4_SaIS4_EEEENS0_5__ops14_Val_less_iterEEvT_T0_(%"class.std::vector"* %0) local_unnamed_addr #5 comdat personality i8* bitcast (i32 (...)* @__gxx_personality_v0 to i8*) {
  %2 = alloca %"class.std::vector", align 16
  %3 = bitcast %"class.std::vector"* %2 to i8*
  call void @llvm.lifetime.start.p0i8(i64 24, i8* nonnull %3) #22
  %4 = bitcast %"class.std::vector"* %0 to <2 x i32*>*
  %5 = load <2 x i32*>, <2 x i32*>* %4, align 8, !tbaa !13
  %6 = bitcast %"class.std::vector"* %2 to <2 x i32*>*
  store <2 x i32*> %5, <2 x i32*>* %6, align 16, !tbaa !13
  %7 = getelementptr inbounds %"class.std::vector", %"class.std::vector"* %2, i64 0, i32 0, i32 0, i32 0, i32 2
  %8 = getelementptr inbounds %"class.std::vector", %"class.std::vector"* %0, i64 0, i32 0, i32 0, i32 0, i32 2
  %9 = load i32*, i32** %8, align 8, !tbaa !31
  store i32* %9, i32** %7, align 16, !tbaa !31
  %10 = bitcast %"class.std::vector"* %0 to i8*
  tail call void @llvm.memset.p0i8.i64(i8* noundef nonnull align 8 dereferenceable(24) %10, i8 0, i64 24, i1 false) #22
  br label %11

11:                                               ; preds = %16, %1
  %12 = phi %"class.std::vector"* [ %0, %1 ], [ %13, %16 ]
  %13 = getelementptr inbounds %"class.std::vector", %"class.std::vector"* %12, i64 -1
  %14 = invoke zeroext i1 @_ZStltIiSaIiEEbRKSt6vectorIT_T0_ES6_(%"class.std::vector"* nonnull align 8 dereferenceable(24) %2, %"class.std::vector"* nonnull align 8 dereferenceable(24) %13) #21
          to label %15 unwind label %17

15:                                               ; preds = %11
  br i1 %14, label %16, label %20

16:                                               ; preds = %15
  call void @_ZNSt6vectorIiSaIiEE14_M_move_assignEOS1_St17integral_constantIbLb1EE(%"class.std::vector"* nonnull align 8 dereferenceable(24) %12, %"class.std::vector"* nonnull align 8 dereferenceable(24) %13) #24
  br label %11, !llvm.loop !62

17:                                               ; preds = %11
  %18 = landingpad { i8*, i32 }
          cleanup
  %19 = getelementptr inbounds %"class.std::vector", %"class.std::vector"* %2, i64 0, i32 0
  call void @_ZNSt12_Vector_baseIiSaIiEED2Ev(%"struct.std::_Vector_base"* nonnull align 8 dereferenceable(24) %19) #24
  call void @llvm.lifetime.end.p0i8(i64 24, i8* nonnull %3) #22
  resume { i8*, i32 } %18

20:                                               ; preds = %15
  call void @_ZNSt6vectorIiSaIiEE14_M_move_assignEOS1_St17integral_constantIbLb1EE(%"class.std::vector"* nonnull align 8 dereferenceable(24) %12, %"class.std::vector"* nonnull align 8 dereferenceable(24) %2) #24
  %21 = getelementptr inbounds %"class.std::vector", %"class.std::vector"* %2, i64 0, i32 0
  call void @_ZNSt12_Vector_baseIiSaIiEED2Ev(%"struct.std::_Vector_base"* nonnull align 8 dereferenceable(24) %21) #24
  call void @llvm.lifetime.end.p0i8(i64 24, i8* nonnull %3) #22
  ret void
}

; Function Attrs: inlinehint minsize optsize sspstrong uwtable
define linkonce_odr dso_local %"class.std::vector"* @_ZSt22__copy_move_backward_aILb1EN9__gnu_cxx17__normal_iteratorIPSt6vectorIiSaIiEES2_IS4_SaIS4_EEEES8_ET1_T0_SA_S9_(%"class.std::vector"* %0, %"class.std::vector"* %1, %"class.std::vector"* %2) local_unnamed_addr #16 comdat {
  %4 = tail call %"class.std::vector"* @_ZNSt20__copy_move_backwardILb1ELb0ESt26random_access_iterator_tagE13__copy_move_bIPSt6vectorIiSaIiEES6_EET0_T_S8_S7_(%"class.std::vector"* %0, %"class.std::vector"* %1, %"class.std::vector"* %2) #21
  %5 = ptrtoint %"class.std::vector"* %4 to i64
  %6 = ptrtoint %"class.std::vector"* %2 to i64
  %7 = sub i64 %5, %6
  %8 = sdiv exact i64 %7, 24
  %9 = getelementptr inbounds %"class.std::vector", %"class.std::vector"* %2, i64 %8
  ret %"class.std::vector"* %9
}

; Function Attrs: minsize mustprogress nounwind optsize sspstrong uwtable
define linkonce_odr dso_local %"class.std::vector"* @_ZNSt20__copy_move_backwardILb1ELb0ESt26random_access_iterator_tagE13__copy_move_bIPSt6vectorIiSaIiEES6_EET0_T_S8_S7_(%"class.std::vector"* %0, %"class.std::vector"* %1, %"class.std::vector"* %2) local_unnamed_addr #18 comdat align 2 {
  %4 = ptrtoint %"class.std::vector"* %1 to i64
  %5 = ptrtoint %"class.std::vector"* %0 to i64
  %6 = sub i64 %4, %5
  %7 = sdiv exact i64 %6, 24
  br label %8

8:                                                ; preds = %13, %3
  %9 = phi %"class.std::vector"* [ %1, %3 ], [ %14, %13 ]
  %10 = phi %"class.std::vector"* [ %2, %3 ], [ %15, %13 ]
  %11 = phi i64 [ %7, %3 ], [ %16, %13 ]
  %12 = icmp sgt i64 %11, 0
  br i1 %12, label %13, label %17

13:                                               ; preds = %8
  %14 = getelementptr inbounds %"class.std::vector", %"class.std::vector"* %9, i64 -1
  %15 = getelementptr inbounds %"class.std::vector", %"class.std::vector"* %10, i64 -1
  tail call void @_ZNSt6vectorIiSaIiEE14_M_move_assignEOS1_St17integral_constantIbLb1EE(%"class.std::vector"* nonnull align 8 dereferenceable(24) %15, %"class.std::vector"* nonnull align 8 dereferenceable(24) %14) #24
  %16 = add nsw i64 %11, -1
  br label %8, !llvm.loop !63

17:                                               ; preds = %8
  ret %"class.std::vector"* %10
}

; Function Attrs: minsize optsize sspstrong uwtable
define linkonce_odr dso_local void @_ZNSt6vectorIiSaIiEE12emplace_backIJiEEEvDpOT_(%"class.std::vector"* nonnull align 8 dereferenceable(24) %0, i32* nonnull align 4 dereferenceable(4) %1) local_unnamed_addr #5 comdat align 2 {
  %3 = getelementptr inbounds %"class.std::vector", %"class.std::vector"* %0, i64 0, i32 0, i32 0, i32 0, i32 1
  %4 = load i32*, i32** %3, align 8, !tbaa !22
  %5 = getelementptr inbounds %"class.std::vector", %"class.std::vector"* %0, i64 0, i32 0, i32 0, i32 0, i32 2
  %6 = load i32*, i32** %5, align 8, !tbaa !31
  %7 = icmp eq i32* %4, %6
  br i1 %7, label %11, label %8

8:                                                ; preds = %2
  %9 = load i32, i32* %1, align 4, !tbaa !5
  store i32 %9, i32* %4, align 4, !tbaa !5
  %10 = getelementptr inbounds i32, i32* %4, i64 1
  store i32* %10, i32** %3, align 8, !tbaa !22
  br label %12

11:                                               ; preds = %2
  tail call void @_ZNSt6vectorIiSaIiEE17_M_realloc_insertIJiEEEvN9__gnu_cxx17__normal_iteratorIPiS1_EEDpOT_(%"class.std::vector"* nonnull align 8 dereferenceable(24) %0, i32* %4, i32* nonnull align 4 dereferenceable(4) %1) #21
  br label %12

12:                                               ; preds = %11, %8
  ret void
}

; Function Attrs: minsize optsize sspstrong uwtable
define linkonce_odr dso_local void @_ZNSt6vectorIiSaIiEE17_M_realloc_insertIJiEEEvN9__gnu_cxx17__normal_iteratorIPiS1_EEDpOT_(%"class.std::vector"* nonnull align 8 dereferenceable(24) %0, i32* %1, i32* nonnull align 4 dereferenceable(4) %2) local_unnamed_addr #5 comdat align 2 {
  %4 = tail call i64 @_ZNKSt6vectorIiSaIiEE12_M_check_lenEmPKc(%"class.std::vector"* nonnull align 8 dereferenceable(24) %0, i64 1, i8* getelementptr inbounds ([26 x i8], [26 x i8]* @.str.2, i64 0, i64 0)) #21
  %5 = getelementptr inbounds %"class.std::vector", %"class.std::vector"* %0, i64 0, i32 0
  %6 = getelementptr inbounds %"class.std::vector", %"class.std::vector"* %0, i64 0, i32 0, i32 0, i32 0, i32 0
  %7 = load i32*, i32** %6, align 8, !tbaa !24
  %8 = getelementptr inbounds %"class.std::vector", %"class.std::vector"* %0, i64 0, i32 0, i32 0, i32 0, i32 1
  %9 = load i32*, i32** %8, align 8, !tbaa !22
  %10 = ptrtoint i32* %1 to i64
  %11 = ptrtoint i32* %7 to i64
  %12 = sub i64 %10, %11
  %13 = ashr exact i64 %12, 2
  %14 = tail call i32* @_ZNSt12_Vector_baseIiSaIiEE11_M_allocateEm(%"struct.std::_Vector_base"* nonnull align 8 dereferenceable(24) %5, i64 %4) #21
  %15 = getelementptr inbounds i32, i32* %14, i64 %13
  %16 = load i32, i32* %2, align 4, !tbaa !5
  store i32 %16, i32* %15, align 4, !tbaa !5
  %17 = icmp sgt i64 %12, 0
  br i1 %17, label %18, label %21

18:                                               ; preds = %3
  %19 = bitcast i32* %14 to i8*
  %20 = bitcast i32* %7 to i8*
  tail call void @llvm.memmove.p0i8.p0i8.i64(i8* align 4 %19, i8* align 4 %20, i64 %12, i1 false) #22
  br label %21

21:                                               ; preds = %3, %18
  %22 = getelementptr inbounds i32, i32* %15, i64 1
  %23 = ptrtoint i32* %9 to i64
  %24 = sub i64 %23, %10
  %25 = icmp sgt i64 %24, 0
  br i1 %25, label %26, label %29

26:                                               ; preds = %21
  %27 = bitcast i32* %22 to i8*
  %28 = bitcast i32* %1 to i8*
  tail call void @llvm.memmove.p0i8.p0i8.i64(i8* nonnull align 4 %27, i8* align 4 %28, i64 %24, i1 false) #22
  br label %29

29:                                               ; preds = %21, %26
  %30 = icmp eq i32* %7, null
  br i1 %30, label %33, label %31

31:                                               ; preds = %29
  %32 = bitcast i32* %7 to i8*
  tail call void @_ZdlPv(i8* nonnull %32) #24
  br label %33

33:                                               ; preds = %29, %31
  %34 = getelementptr inbounds %"class.std::vector", %"class.std::vector"* %0, i64 0, i32 0, i32 0, i32 0, i32 2
  %35 = ashr exact i64 %24, 2
  %36 = getelementptr inbounds i32, i32* %22, i64 %35
  store i32* %14, i32** %6, align 8, !tbaa !24
  store i32* %36, i32** %8, align 8, !tbaa !22
  %37 = getelementptr inbounds i32, i32* %14, i64 %4
  store i32* %37, i32** %34, align 8, !tbaa !31
  ret void
}

; Function Attrs: minsize optsize sspstrong uwtable
define internal void @_GLOBAL__sub_I_s800264177.cpp() #5 section ".text.startup" {
  tail call void @_ZNSt8ios_base4InitC1Ev(%"class.std::ios_base::Init"* nonnull align 1 dereferenceable(1) @_ZStL8__ioinit) #21
  %1 = tail call i32 @__cxa_atexit(void (i8*)* bitcast (void (%"class.std::ios_base::Init"*)* @_ZNSt8ios_base4InitD1Ev to void (i8*)*), i8* getelementptr inbounds (%"class.std::ios_base::Init", %"class.std::ios_base::Init"* @_ZStL8__ioinit, i64 0, i32 0), i8* nonnull @__dso_handle) #22
  ret void
}

; Function Attrs: argmemonly nofree nounwind willreturn writeonly
declare void @llvm.memset.p0i8.i64(i8* nocapture writeonly, i8, i64, i1 immarg) #19

; Function Attrs: nofree nosync nounwind readnone speculatable willreturn
declare i32 @llvm.smax.i32(i32, i32) #20

attributes #0 = { minsize optsize "frame-pointer"="none" "no-trapping-math"="true" "stack-protector-buffer-size"="8" "target-cpu"="x86-64" "target-features"="+cx8,+fxsr,+mmx,+sse,+sse2,+x87" "tune-cpu"="generic" }
attributes #1 = { minsize nounwind optsize "frame-pointer"="none" "no-trapping-math"="true" "stack-protector-buffer-size"="8" "target-cpu"="x86-64" "target-features"="+cx8,+fxsr,+mmx,+sse,+sse2,+x87" "tune-cpu"="generic" }
attributes #2 = { nofree nounwind }
attributes #3 = { minsize mustprogress optsize sspstrong uwtable "frame-pointer"="none" "min-legal-vector-width"="0" "no-trapping-math"="true" "stack-protector-buffer-size"="8" "target-cpu"="x86-64" "target-features"="+cx8,+fxsr,+mmx,+sse,+sse2,+x87" "tune-cpu"="generic" }
attributes #4 = { inlinehint minsize mustprogress optsize sspstrong uwtable "frame-pointer"="none" "min-legal-vector-width"="0" "no-trapping-math"="true" "stack-protector-buffer-size"="8" "target-cpu"="x86-64" "target-features"="+cx8,+fxsr,+mmx,+sse,+sse2,+x87" "tune-cpu"="generic" }
attributes #5 = { minsize optsize sspstrong uwtable "frame-pointer"="none" "min-legal-vector-width"="0" "no-trapping-math"="true" "stack-protector-buffer-size"="8" "target-cpu"="x86-64" "target-features"="+cx8,+fxsr,+mmx,+sse,+sse2,+x87" "tune-cpu"="generic" }
attributes #6 = { argmemonly mustprogress nofree nosync nounwind willreturn }
attributes #7 = { minsize nounwind optsize sspstrong uwtable "frame-pointer"="none" "min-legal-vector-width"="0" "no-trapping-math"="true" "stack-protector-buffer-size"="8" "target-cpu"="x86-64" "target-features"="+cx8,+fxsr,+mmx,+sse,+sse2,+x87" "tune-cpu"="generic" }
attributes #8 = { minsize norecurse optsize sspstrong uwtable "frame-pointer"="none" "min-legal-vector-width"="0" "no-trapping-math"="true" "stack-protector-buffer-size"="8" "target-cpu"="x86-64" "target-features"="+cx8,+fxsr,+mmx,+sse,+sse2,+x87" "tune-cpu"="generic" }
attributes #9 = { noinline noreturn nounwind }
attributes #10 = { minsize nobuiltin nounwind optsize "frame-pointer"="none" "no-trapping-math"="true" "stack-protector-buffer-size"="8" "target-cpu"="x86-64" "target-features"="+cx8,+fxsr,+mmx,+sse,+sse2,+x87" "tune-cpu"="generic" }
attributes #11 = { minsize noreturn optsize "frame-pointer"="none" "no-trapping-math"="true" "stack-protector-buffer-size"="8" "target-cpu"="x86-64" "target-features"="+cx8,+fxsr,+mmx,+sse,+sse2,+x87" "tune-cpu"="generic" }
attributes #12 = { minsize nobuiltin optsize allocsize(0) "frame-pointer"="none" "no-trapping-math"="true" "stack-protector-buffer-size"="8" "target-cpu"="x86-64" "target-features"="+cx8,+fxsr,+mmx,+sse,+sse2,+x87" "tune-cpu"="generic" }
attributes #13 = { argmemonly mustprogress nofree nounwind willreturn }
attributes #14 = { inlinehint minsize mustprogress nounwind optsize sspstrong uwtable "frame-pointer"="none" "min-legal-vector-width"="0" "no-trapping-math"="true" "stack-protector-buffer-size"="8" "target-cpu"="x86-64" "target-features"="+cx8,+fxsr,+mmx,+sse,+sse2,+x87" "tune-cpu"="generic" }
attributes #15 = { inlinehint minsize nounwind optsize sspstrong uwtable "frame-pointer"="none" "min-legal-vector-width"="0" "no-trapping-math"="true" "stack-protector-buffer-size"="8" "target-cpu"="x86-64" "target-features"="+cx8,+fxsr,+mmx,+sse,+sse2,+x87" "tune-cpu"="generic" }
attributes #16 = { inlinehint minsize optsize sspstrong uwtable "frame-pointer"="none" "min-legal-vector-width"="0" "no-trapping-math"="true" "stack-protector-buffer-size"="8" "target-cpu"="x86-64" "target-features"="+cx8,+fxsr,+mmx,+sse,+sse2,+x87" "tune-cpu"="generic" }
attributes #17 = { mustprogress nofree nosync nounwind readnone speculatable willreturn }
attributes #18 = { minsize mustprogress nounwind optsize sspstrong uwtable "frame-pointer"="none" "min-legal-vector-width"="0" "no-trapping-math"="true" "stack-protector-buffer-size"="8" "target-cpu"="x86-64" "target-features"="+cx8,+fxsr,+mmx,+sse,+sse2,+x87" "tune-cpu"="generic" }
attributes #19 = { argmemonly nofree nounwind willreturn writeonly }
attributes #20 = { nofree nosync nounwind readnone speculatable willreturn }
attributes #21 = { minsize optsize }
attributes #22 = { nounwind }
attributes #23 = { builtin minsize optsize allocsize(0) }
attributes #24 = { minsize nounwind optsize }
attributes #25 = { minsize noreturn optsize }
attributes #26 = { noreturn nounwind }
attributes #27 = { minsize optsize allocsize(0) }
attributes #28 = { builtin minsize nounwind optsize }
attributes #29 = { noreturn }

!llvm.module.flags = !{!0, !1, !2, !3}
!llvm.ident = !{!4}

!0 = !{i32 1, !"wchar_size", i32 4}
!1 = !{i32 7, !"PIC Level", i32 2}
!2 = !{i32 7, !"PIE Level", i32 2}
!3 = !{i32 7, !"uwtable", i32 1}
!4 = !{!"clang version 13.0.0"}
!5 = !{!6, !6, i64 0}
!6 = !{!"int", !7, i64 0}
!7 = !{!"omnipotent char", !8, i64 0}
!8 = !{!"Simple C++ TBAA"}
!9 = !{!10, !11, i64 16}
!10 = !{!"_ZTSSt14_Function_base", !7, i64 0, !11, i64 16}
!11 = !{!"any pointer", !7, i64 0}
!12 = !{i64 0, i64 8, !13, i64 8, i64 8, !13, i64 16, i64 8, !13, i64 24, i64 8, !13}
!13 = !{!11, !11, i64 0}
!14 = !{i64 0, i64 8, !13, i64 8, i64 8, !13, i64 16, i64 8, !13}
!15 = !{i64 0, i64 8, !13, i64 8, i64 8, !13}
!16 = !{i64 0, i64 8, !13}
!17 = !{!18, !11, i64 24}
!18 = !{!"_ZTSSt8functionIFvSt6vectorIiSaIiEEEE", !11, i64 24}
!19 = !{!20, !11, i64 8}
!20 = !{!"_ZTSNSt12_Vector_baseISt6vectorIiSaIiEESaIS2_EE17_Vector_impl_dataE", !11, i64 0, !11, i64 8, !11, i64 16}
!21 = !{!20, !11, i64 0}
!22 = !{!23, !11, i64 8}
!23 = !{!"_ZTSNSt12_Vector_baseIiSaIiEE17_Vector_impl_dataE", !11, i64 0, !11, i64 8, !11, i64 16}
!24 = !{!23, !11, i64 0}
!25 = distinct !{!25, !26}
!26 = !{!"llvm.loop.mustprogress"}
!27 = distinct !{!27, !26}
!28 = distinct !{!28, !26}
!29 = distinct !{!29, !26}
!30 = distinct !{!30, !26}
!31 = !{!23, !11, i64 16}
!32 = !{!33, !33, i64 0}
!33 = !{!"vtable pointer", !8, i64 0}
!34 = !{!35, !11, i64 216}
!35 = !{!"_ZTSSt9basic_iosIcSt11char_traitsIcEE", !11, i64 216, !7, i64 224, !36, i64 225, !11, i64 232, !11, i64 240, !11, i64 248, !11, i64 256}
!36 = !{!"bool", !7, i64 0}
!37 = distinct !{!37, !26}
!38 = distinct !{!38, !26}
!39 = !{!"branch_weights", i32 1, i32 2000}
!40 = !{!41, !11, i64 0}
!41 = !{!"_ZTSZ11solve_naiveiiE3$_0", !11, i64 0, !11, i64 8, !11, i64 16, !11, i64 24}
!42 = !{!41, !11, i64 8}
!43 = !{!41, !11, i64 16}
!44 = !{!41, !11, i64 24}
!45 = distinct !{!45, !26}
!46 = !{!20, !11, i64 16}
!47 = distinct !{!47, !26}
!48 = distinct !{!48, !26}
!49 = !{i64 0, i64 65}
!50 = distinct !{!50, !26}
!51 = distinct !{!51, !26}
!52 = distinct !{!52, !26}
!53 = distinct !{!53, !26}
!54 = distinct !{!54, !26}
!55 = distinct !{!55, !26}
!56 = distinct !{!56, !26}
!57 = distinct !{!57, !26}
!58 = distinct !{!58, !26}
!59 = distinct !{!59, !26}
!60 = distinct !{!60, !26}
!61 = distinct !{!61, !26}
!62 = distinct !{!62, !26}
!63 = distinct !{!63, !26}
