; ModuleID = 'Project_CodeNet_C++1400/p02750/s484950739.cpp'
source_filename = "Project_CodeNet_C++1400/p02750/s484950739.cpp"
target datalayout = "e-m:e-p270:32:32-p271:32:32-p272:64:64-i64:64-f80:128-n8:16:32:64-S128"
target triple = "x86_64-pc-linux-gnu"

%"class.std::ios_base::Init" = type { i8 }
%"class.std::random_device" = type { %union.anon }
%union.anon = type { %"class.std::mersenne_twister_engine" }
%"class.std::mersenne_twister_engine" = type { [624 x i64], i64 }
%"class.std::vector" = type { %"struct.std::_Vector_base" }
%"struct.std::_Vector_base" = type { %"struct.std::_Vector_base<std::pair<long long, long long>, std::allocator<std::pair<long long, long long>>>::_Vector_impl" }
%"struct.std::_Vector_base<std::pair<long long, long long>, std::allocator<std::pair<long long, long long>>>::_Vector_impl" = type { %"struct.std::_Vector_base<std::pair<long long, long long>, std::allocator<std::pair<long long, long long>>>::_Vector_impl_data" }
%"struct.std::_Vector_base<std::pair<long long, long long>, std::allocator<std::pair<long long, long long>>>::_Vector_impl_data" = type { %"struct.std::pair"*, %"struct.std::pair"*, %"struct.std::pair"* }
%"struct.std::pair" = type { i64, i64 }
%"class.std::basic_istream" = type { i32 (...)**, i64, %"class.std::basic_ios" }
%"class.std::basic_ios" = type { %"class.std::ios_base", %"class.std::basic_ostream"*, i8, i8, %"class.std::basic_streambuf"*, %"class.std::ctype"*, %"class.std::num_put"*, %"class.std::num_get"* }
%"class.std::ios_base" = type { i32 (...)**, i64, i64, i32, i32, i32, %"struct.std::ios_base::_Callback_list"*, %"struct.std::ios_base::_Words", [8 x %"struct.std::ios_base::_Words"], i32, %"struct.std::ios_base::_Words"*, %"class.std::locale" }
%"struct.std::ios_base::_Callback_list" = type { %"struct.std::ios_base::_Callback_list"*, void (i32, %"class.std::ios_base"*, i32)*, i32, i32 }
%"struct.std::ios_base::_Words" = type { i8*, i64 }
%"class.std::locale" = type { %"class.std::locale::_Impl"* }
%"class.std::locale::_Impl" = type { i32, %"class.std::locale::facet"**, i64, %"class.std::locale::facet"**, i8** }
%"class.std::locale::facet" = type <{ i32 (...)**, i32, [4 x i8] }>
%"class.std::basic_ostream" = type { i32 (...)**, %"class.std::basic_ios" }
%"class.std::basic_streambuf" = type { i32 (...)**, i8*, i8*, i8*, i8*, i8*, i8*, %"class.std::locale" }
%"class.std::ctype" = type <{ %"class.std::locale::facet.base", [4 x i8], %struct.__locale_struct*, i8, [7 x i8], i32*, i32*, i16*, i8, [256 x i8], [256 x i8], i8, [6 x i8] }>
%"class.std::locale::facet.base" = type <{ i32 (...)**, i32 }>
%struct.__locale_struct = type { [13 x %struct.__locale_data*], i16*, i32*, i32*, [13 x i8*] }
%struct.__locale_data = type opaque
%"class.std::num_put" = type { %"class.std::locale::facet.base", [4 x i8] }
%"class.std::num_get" = type { %"class.std::locale::facet.base", [4 x i8] }
%"class.std::__cxx11::basic_string" = type { %"struct.std::__cxx11::basic_string<char>::_Alloc_hider", i64, %union.anon.8 }
%"struct.std::__cxx11::basic_string<char>::_Alloc_hider" = type { i8* }
%union.anon.8 = type { i64, [8 x i8] }

$_ZNSt13random_deviceD2Ev = comdat any

$_ZNSt6vectorISt4pairIxxESaIS1_EED2Ev = comdat any

$__clang_call_terminate = comdat any

$_ZSt16__introsort_loopIN9__gnu_cxx17__normal_iteratorIPSt4pairIxxESt6vectorIS3_SaIS3_EEEElNS0_5__ops15_Iter_comp_iterIPFbRKS3_SC_EEEEvT_SG_T0_T1_ = comdat any

$_ZSt13__adjust_heapIN9__gnu_cxx17__normal_iteratorIPSt4pairIxxESt6vectorIS3_SaIS3_EEEElS3_NS0_5__ops15_Iter_comp_iterIPFbRKS3_SC_EEEEvT_T0_SH_T1_T2_ = comdat any

$_ZSt16__introsort_loopIN9__gnu_cxx17__normal_iteratorIPSt4pairIxxESt6vectorIS3_SaIS3_EEEElNS0_5__ops15_Iter_less_iterEEvT_SB_T0_T1_ = comdat any

$_ZSt22__final_insertion_sortIN9__gnu_cxx17__normal_iteratorIPSt4pairIxxESt6vectorIS3_SaIS3_EEEENS0_5__ops15_Iter_less_iterEEvT_SB_T0_ = comdat any

$_ZSt13__adjust_heapIN9__gnu_cxx17__normal_iteratorIPSt4pairIxxESt6vectorIS3_SaIS3_EEEElS3_NS0_5__ops15_Iter_less_iterEEvT_T0_SC_T1_T2_ = comdat any

$_ZSt22__move_median_to_firstIN9__gnu_cxx17__normal_iteratorIPSt4pairIxxESt6vectorIS3_SaIS3_EEEENS0_5__ops15_Iter_less_iterEEvT_SB_SB_SB_T0_ = comdat any

@_ZStL8__ioinit = internal global %"class.std::ios_base::Init" zeroinitializer, align 1
@__dso_handle = external hidden global i8
@rd = dso_local global %"class.std::random_device" zeroinitializer, align 8
@mt = dso_local local_unnamed_addr global %"class.std::mersenne_twister_engine" zeroinitializer, align 8
@_ZL2pi = internal global double 0.000000e+00, align 8
@v1 = dso_local global %"class.std::vector" zeroinitializer, align 8
@v0 = dso_local global %"class.std::vector" zeroinitializer, align 8
@dp = dso_local local_unnamed_addr global [200020 x [50 x i64]] zeroinitializer, align 16
@_ZSt3cin = external global %"class.std::basic_istream", align 8
@_ZSt4cout = external global %"class.std::basic_ostream", align 8
@.str = private unnamed_addr constant [8 x i8] c"default\00", align 1
@.str.7 = private unnamed_addr constant [49 x i8] c"cannot create std::vector larger than max_size()\00", align 1
@.str.8 = private unnamed_addr constant [26 x i8] c"vector::_M_realloc_insert\00", align 1
@llvm.global_ctors = appending global [1 x { i32, void ()*, i8* }] [{ i32, void ()*, i8* } { i32 65535, void ()* @_GLOBAL__sub_I_s484950739.cpp, i8* null }]

declare void @_ZNSt8ios_base4InitC1Ev(%"class.std::ios_base::Init"* nonnull align 1 dereferenceable(1)) unnamed_addr #0

; Function Attrs: nounwind
declare void @_ZNSt8ios_base4InitD1Ev(%"class.std::ios_base::Init"* nonnull align 1 dereferenceable(1)) unnamed_addr #1

; Function Attrs: nofree nounwind
declare i32 @__cxa_atexit(void (i8*)*, i8*, i8*) local_unnamed_addr #2

; Function Attrs: nounwind sspstrong uwtable
define linkonce_odr dso_local void @_ZNSt13random_deviceD2Ev(%"class.std::random_device"* nonnull align 8 dereferenceable(5000) %0) unnamed_addr #3 comdat align 2 personality i8* bitcast (i32 (...)* @__gxx_personality_v0 to i8*) {
  invoke void @_ZNSt13random_device7_M_finiEv(%"class.std::random_device"* nonnull align 8 dereferenceable(5000) %0)
          to label %2 unwind label %3

2:                                                ; preds = %1
  ret void

3:                                                ; preds = %1
  %4 = landingpad { i8*, i32 }
          catch i8* null
  %5 = extractvalue { i8*, i32 } %4, 0
  tail call void @__clang_call_terminate(i8* %5) #17
  unreachable
}

; Function Attrs: argmemonly mustprogress nofree nosync nounwind willreturn
declare {}* @llvm.invariant.start.p0i8(i64 immarg, i8* nocapture) #4

; Function Attrs: mustprogress nofree norecurse nosync nounwind readonly sspstrong uwtable willreturn
define dso_local zeroext i1 @_Z4compRKSt4pairIxxES2_(%"struct.std::pair"* nocapture nonnull readonly align 8 dereferenceable(16) %0, %"struct.std::pair"* nocapture nonnull readonly align 8 dereferenceable(16) %1) #5 {
  %3 = getelementptr inbounds %"struct.std::pair", %"struct.std::pair"* %0, i64 0, i32 0
  %4 = load i64, i64* %3, align 8, !tbaa !5
  %5 = getelementptr inbounds %"struct.std::pair", %"struct.std::pair"* %1, i64 0, i32 0
  %6 = load i64, i64* %5, align 8, !tbaa !5
  %7 = getelementptr inbounds %"struct.std::pair", %"struct.std::pair"* %0, i64 0, i32 1
  %8 = load i64, i64* %7, align 8, !tbaa !10
  %9 = add i64 %4, 1
  %10 = add i64 %9, %8
  %11 = getelementptr inbounds %"struct.std::pair", %"struct.std::pair"* %1, i64 0, i32 1
  %12 = load i64, i64* %11, align 8, !tbaa !10
  %13 = add i64 %6, 1
  %14 = add i64 %13, %12
  %15 = mul nsw i64 %10, %6
  %16 = mul nsw i64 %14, %4
  %17 = icmp slt i64 %15, %16
  ret i1 %17
}

; Function Attrs: argmemonly mustprogress nofree nosync nounwind willreturn
declare void @llvm.lifetime.start.p0i8(i64 immarg, i8* nocapture) #4

; Function Attrs: argmemonly mustprogress nofree nosync nounwind willreturn
declare void @llvm.lifetime.end.p0i8(i64 immarg, i8* nocapture) #4

; Function Attrs: nounwind sspstrong uwtable
define linkonce_odr dso_local void @_ZNSt6vectorISt4pairIxxESaIS1_EED2Ev(%"class.std::vector"* nonnull align 8 dereferenceable(24) %0) unnamed_addr #3 comdat align 2 personality i8* bitcast (i32 (...)* @__gxx_personality_v0 to i8*) {
  %2 = getelementptr inbounds %"class.std::vector", %"class.std::vector"* %0, i64 0, i32 0, i32 0, i32 0, i32 0
  %3 = load %"struct.std::pair"*, %"struct.std::pair"** %2, align 8, !tbaa !11
  %4 = icmp eq %"struct.std::pair"* %3, null
  br i1 %4, label %7, label %5

5:                                                ; preds = %1
  %6 = bitcast %"struct.std::pair"* %3 to i8*
  tail call void @_ZdlPv(i8* nonnull %6) #18
  br label %7

7:                                                ; preds = %1, %5
  ret void
}

; Function Attrs: sspstrong uwtable
define dso_local void @_Z5solvev() local_unnamed_addr #6 personality i8* bitcast (i32 (...)* @__gxx_personality_v0 to i8*) {
  %1 = alloca i8, align 1
  %2 = alloca i64, align 8
  %3 = alloca i64, align 8
  %4 = bitcast i64* %2 to i8*
  call void @llvm.lifetime.start.p0i8(i64 8, i8* nonnull %4) #18
  %5 = bitcast i64* %3 to i8*
  call void @llvm.lifetime.start.p0i8(i64 8, i8* nonnull %5) #18
  %6 = call nonnull align 8 dereferenceable(16) %"class.std::basic_istream"* @_ZNSi10_M_extractIxEERSiRT_(%"class.std::basic_istream"* nonnull align 8 dereferenceable(16) @_ZSt3cin, i64* nonnull align 8 dereferenceable(8) %2)
  %7 = call nonnull align 8 dereferenceable(16) %"class.std::basic_istream"* @_ZNSi10_M_extractIxEERSiRT_(%"class.std::basic_istream"* nonnull align 8 dereferenceable(16) %6, i64* nonnull align 8 dereferenceable(8) %3)
  %8 = load i64, i64* %2, align 8, !tbaa !14
  %9 = icmp ugt i64 %8, 1152921504606846975
  br i1 %9, label %10, label %11

10:                                               ; preds = %0
  call void @_ZSt20__throw_length_errorPKc(i8* getelementptr inbounds ([49 x i8], [49 x i8]* @.str.7, i64 0, i64 0)) #19
  unreachable

11:                                               ; preds = %0
  %12 = icmp eq i64 %8, 0
  br i1 %12, label %40, label %13

13:                                               ; preds = %11
  %14 = shl nuw nsw i64 %8, 3
  %15 = call noalias nonnull i8* @_Znwm(i64 %14) #20
  %16 = bitcast i8* %15 to i64*
  store i64 0, i64* %16, align 8, !tbaa !14
  %17 = icmp eq i64 %8, 1
  br i1 %17, label %21, label %18

18:                                               ; preds = %13
  %19 = getelementptr inbounds i8, i8* %15, i64 8
  %20 = add nsw i64 %14, -8
  call void @llvm.memset.p0i8.i64(i8* nonnull align 8 %19, i8 0, i64 %20, i1 false)
  br label %21

21:                                               ; preds = %18, %13
  %22 = load i64, i64* %2, align 8, !tbaa !14
  %23 = icmp ugt i64 %22, 1152921504606846975
  br i1 %23, label %24, label %26

24:                                               ; preds = %21
  invoke void @_ZSt20__throw_length_errorPKc(i8* getelementptr inbounds ([49 x i8], [49 x i8]* @.str.7, i64 0, i64 0)) #19
          to label %25 unwind label %51

25:                                               ; preds = %24
  unreachable

26:                                               ; preds = %21
  %27 = icmp eq i64 %22, 0
  br i1 %27, label %40, label %28

28:                                               ; preds = %26
  %29 = shl nuw nsw i64 %22, 3
  %30 = invoke noalias nonnull i8* @_Znwm(i64 %29) #20
          to label %31 unwind label %51

31:                                               ; preds = %28
  %32 = bitcast i8* %30 to i64*
  store i64 0, i64* %32, align 8, !tbaa !14
  %33 = icmp eq i64 %22, 1
  br i1 %33, label %37, label %34

34:                                               ; preds = %31
  %35 = getelementptr inbounds i8, i8* %30, i64 8
  %36 = add nsw i64 %29, -8
  call void @llvm.memset.p0i8.i64(i8* nonnull align 8 %35, i8 0, i64 %36, i1 false)
  br label %37

37:                                               ; preds = %34, %31
  %38 = load i64, i64* %2, align 8, !tbaa !14
  %39 = icmp sgt i64 %38, 0
  br i1 %39, label %53, label %40

40:                                               ; preds = %172, %26, %11, %37
  %41 = phi i64* [ %16, %37 ], [ null, %11 ], [ %16, %26 ], [ %16, %172 ]
  %42 = phi i64* [ %32, %37 ], [ null, %11 ], [ null, %26 ], [ %32, %172 ]
  %43 = load %"struct.std::pair"*, %"struct.std::pair"** getelementptr inbounds (%"class.std::vector", %"class.std::vector"* @v1, i64 0, i32 0, i32 0, i32 0, i32 1), align 8, !tbaa !15
  %44 = load %"struct.std::pair"*, %"struct.std::pair"** getelementptr inbounds (%"class.std::vector", %"class.std::vector"* @v1, i64 0, i32 0, i32 0, i32 0, i32 0), align 8, !tbaa !11
  %45 = ptrtoint %"struct.std::pair"* %43 to i64
  %46 = ptrtoint %"struct.std::pair"* %44 to i64
  %47 = sub i64 %45, %46
  %48 = icmp eq i64 %47, 0
  %49 = icmp eq %"struct.std::pair"* %44, %43
  %50 = select i1 %48, i1 true, i1 %49
  br i1 %50, label %428, label %176

51:                                               ; preds = %24, %28
  %52 = landingpad { i8*, i32 }
          cleanup
  br label %660

53:                                               ; preds = %37, %172
  %54 = phi i64 [ %173, %172 ], [ 0, %37 ]
  %55 = getelementptr inbounds i64, i64* %16, i64 %54
  %56 = invoke nonnull align 8 dereferenceable(16) %"class.std::basic_istream"* @_ZNSi10_M_extractIxEERSiRT_(%"class.std::basic_istream"* nonnull align 8 dereferenceable(16) @_ZSt3cin, i64* nonnull align 8 dereferenceable(8) %55)
          to label %57 unwind label %113

57:                                               ; preds = %53
  %58 = getelementptr inbounds i64, i64* %32, i64 %54
  %59 = invoke nonnull align 8 dereferenceable(16) %"class.std::basic_istream"* @_ZNSi10_M_extractIxEERSiRT_(%"class.std::basic_istream"* nonnull align 8 dereferenceable(16) %56, i64* nonnull align 8 dereferenceable(8) %58)
          to label %60 unwind label %113

60:                                               ; preds = %57
  %61 = load i64, i64* %55, align 8, !tbaa !14
  %62 = icmp sgt i64 %61, 0
  %63 = load i64, i64* %58, align 8, !tbaa !14
  br i1 %62, label %64, label %119

64:                                               ; preds = %60
  %65 = load %"struct.std::pair"*, %"struct.std::pair"** getelementptr inbounds (%"class.std::vector", %"class.std::vector"* @v1, i64 0, i32 0, i32 0, i32 0, i32 1), align 8, !tbaa !15
  %66 = load %"struct.std::pair"*, %"struct.std::pair"** getelementptr inbounds (%"class.std::vector", %"class.std::vector"* @v1, i64 0, i32 0, i32 0, i32 0, i32 2), align 8, !tbaa !16
  %67 = icmp eq %"struct.std::pair"* %65, %66
  br i1 %67, label %73, label %68

68:                                               ; preds = %64
  %69 = getelementptr inbounds %"struct.std::pair", %"struct.std::pair"* %65, i64 0, i32 0
  store i64 %61, i64* %69, align 8
  %70 = getelementptr inbounds %"struct.std::pair", %"struct.std::pair"* %65, i64 0, i32 1
  store i64 %63, i64* %70, align 8
  %71 = load %"struct.std::pair"*, %"struct.std::pair"** getelementptr inbounds (%"class.std::vector", %"class.std::vector"* @v1, i64 0, i32 0, i32 0, i32 0, i32 1), align 8, !tbaa !15
  %72 = getelementptr inbounds %"struct.std::pair", %"struct.std::pair"* %71, i64 1
  store %"struct.std::pair"* %72, %"struct.std::pair"** getelementptr inbounds (%"class.std::vector", %"class.std::vector"* @v1, i64 0, i32 0, i32 0, i32 0, i32 1), align 8, !tbaa !15
  br label %172

73:                                               ; preds = %64
  %74 = load %"struct.std::pair"*, %"struct.std::pair"** getelementptr inbounds (%"class.std::vector", %"class.std::vector"* @v1, i64 0, i32 0, i32 0, i32 0, i32 0), align 8, !tbaa !11
  %75 = ptrtoint %"struct.std::pair"* %65 to i64
  %76 = ptrtoint %"struct.std::pair"* %74 to i64
  %77 = sub i64 %75, %76
  %78 = ashr exact i64 %77, 4
  %79 = icmp eq i64 %77, 9223372036854775792
  br i1 %79, label %80, label %82

80:                                               ; preds = %73
  invoke void @_ZSt20__throw_length_errorPKc(i8* getelementptr inbounds ([26 x i8], [26 x i8]* @.str.8, i64 0, i64 0)) #19
          to label %81 unwind label %117

81:                                               ; preds = %80
  unreachable

82:                                               ; preds = %73
  %83 = icmp eq i64 %77, 0
  %84 = select i1 %83, i64 1, i64 %78
  %85 = add nsw i64 %84, %78
  %86 = icmp ult i64 %85, %78
  %87 = icmp ugt i64 %85, 576460752303423487
  %88 = or i1 %86, %87
  %89 = select i1 %88, i64 576460752303423487, i64 %85
  %90 = shl nuw nsw i64 %89, 4
  %91 = invoke noalias nonnull i8* @_Znwm(i64 %90) #20
          to label %92 unwind label %115

92:                                               ; preds = %82
  %93 = bitcast i8* %91 to %"struct.std::pair"*
  %94 = getelementptr inbounds %"struct.std::pair", %"struct.std::pair"* %93, i64 %78, i32 0
  store i64 %61, i64* %94, align 8
  %95 = getelementptr inbounds %"struct.std::pair", %"struct.std::pair"* %93, i64 %78, i32 1
  store i64 %63, i64* %95, align 8
  %96 = icmp eq %"struct.std::pair"* %74, %65
  br i1 %96, label %105, label %97

97:                                               ; preds = %92, %97
  %98 = phi %"struct.std::pair"* [ %103, %97 ], [ %93, %92 ]
  %99 = phi %"struct.std::pair"* [ %102, %97 ], [ %74, %92 ]
  %100 = bitcast %"struct.std::pair"* %98 to i8*
  %101 = bitcast %"struct.std::pair"* %99 to i8*
  call void @llvm.memcpy.p0i8.p0i8.i64(i8* noundef nonnull align 8 dereferenceable(16) %100, i8* noundef nonnull align 8 dereferenceable(16) %101, i64 16, i1 false) #18, !alias.scope !17
  %102 = getelementptr inbounds %"struct.std::pair", %"struct.std::pair"* %99, i64 1
  %103 = getelementptr inbounds %"struct.std::pair", %"struct.std::pair"* %98, i64 1
  %104 = icmp eq %"struct.std::pair"* %102, %65
  br i1 %104, label %105, label %97, !llvm.loop !21

105:                                              ; preds = %97, %92
  %106 = phi %"struct.std::pair"* [ %93, %92 ], [ %103, %97 ]
  %107 = getelementptr inbounds %"struct.std::pair", %"struct.std::pair"* %106, i64 1
  %108 = icmp eq %"struct.std::pair"* %74, null
  br i1 %108, label %111, label %109

109:                                              ; preds = %105
  %110 = bitcast %"struct.std::pair"* %74 to i8*
  call void @_ZdlPv(i8* nonnull %110) #18
  br label %111

111:                                              ; preds = %109, %105
  store i8* %91, i8** bitcast (%"class.std::vector"* @v1 to i8**), align 8, !tbaa !11
  store %"struct.std::pair"* %107, %"struct.std::pair"** getelementptr inbounds (%"class.std::vector", %"class.std::vector"* @v1, i64 0, i32 0, i32 0, i32 0, i32 1), align 8, !tbaa !15
  %112 = getelementptr inbounds %"struct.std::pair", %"struct.std::pair"* %93, i64 %89
  store %"struct.std::pair"* %112, %"struct.std::pair"** getelementptr inbounds (%"class.std::vector", %"class.std::vector"* @v1, i64 0, i32 0, i32 0, i32 0, i32 2), align 8, !tbaa !16
  br label %172

113:                                              ; preds = %53, %57
  %114 = landingpad { i8*, i32 }
          cleanup
  br label %651

115:                                              ; preds = %82
  %116 = landingpad { i8*, i32 }
          cleanup
  br label %651

117:                                              ; preds = %80
  %118 = landingpad { i8*, i32 }
          cleanup
  br label %651

119:                                              ; preds = %60
  %120 = load %"struct.std::pair"*, %"struct.std::pair"** getelementptr inbounds (%"class.std::vector", %"class.std::vector"* @v0, i64 0, i32 0, i32 0, i32 0, i32 1), align 8, !tbaa !15
  %121 = load %"struct.std::pair"*, %"struct.std::pair"** getelementptr inbounds (%"class.std::vector", %"class.std::vector"* @v0, i64 0, i32 0, i32 0, i32 0, i32 2), align 8, !tbaa !16
  %122 = icmp eq %"struct.std::pair"* %120, %121
  br i1 %122, label %128, label %123

123:                                              ; preds = %119
  %124 = getelementptr inbounds %"struct.std::pair", %"struct.std::pair"* %120, i64 0, i32 0
  store i64 %61, i64* %124, align 8
  %125 = getelementptr inbounds %"struct.std::pair", %"struct.std::pair"* %120, i64 0, i32 1
  store i64 %63, i64* %125, align 8
  %126 = load %"struct.std::pair"*, %"struct.std::pair"** getelementptr inbounds (%"class.std::vector", %"class.std::vector"* @v0, i64 0, i32 0, i32 0, i32 0, i32 1), align 8, !tbaa !15
  %127 = getelementptr inbounds %"struct.std::pair", %"struct.std::pair"* %126, i64 1
  store %"struct.std::pair"* %127, %"struct.std::pair"** getelementptr inbounds (%"class.std::vector", %"class.std::vector"* @v0, i64 0, i32 0, i32 0, i32 0, i32 1), align 8, !tbaa !15
  br label %172

128:                                              ; preds = %119
  %129 = load %"struct.std::pair"*, %"struct.std::pair"** getelementptr inbounds (%"class.std::vector", %"class.std::vector"* @v0, i64 0, i32 0, i32 0, i32 0, i32 0), align 8, !tbaa !11
  %130 = ptrtoint %"struct.std::pair"* %120 to i64
  %131 = ptrtoint %"struct.std::pair"* %129 to i64
  %132 = sub i64 %130, %131
  %133 = ashr exact i64 %132, 4
  %134 = icmp eq i64 %132, 9223372036854775792
  br i1 %134, label %135, label %137

135:                                              ; preds = %128
  invoke void @_ZSt20__throw_length_errorPKc(i8* getelementptr inbounds ([26 x i8], [26 x i8]* @.str.8, i64 0, i64 0)) #19
          to label %136 unwind label %170

136:                                              ; preds = %135
  unreachable

137:                                              ; preds = %128
  %138 = icmp eq i64 %132, 0
  %139 = select i1 %138, i64 1, i64 %133
  %140 = add nsw i64 %139, %133
  %141 = icmp ult i64 %140, %133
  %142 = icmp ugt i64 %140, 576460752303423487
  %143 = or i1 %141, %142
  %144 = select i1 %143, i64 576460752303423487, i64 %140
  %145 = shl nuw nsw i64 %144, 4
  %146 = invoke noalias nonnull i8* @_Znwm(i64 %145) #20
          to label %147 unwind label %168

147:                                              ; preds = %137
  %148 = bitcast i8* %146 to %"struct.std::pair"*
  %149 = getelementptr inbounds %"struct.std::pair", %"struct.std::pair"* %148, i64 %133, i32 0
  store i64 %61, i64* %149, align 8
  %150 = getelementptr inbounds %"struct.std::pair", %"struct.std::pair"* %148, i64 %133, i32 1
  store i64 %63, i64* %150, align 8
  %151 = icmp eq %"struct.std::pair"* %129, %120
  br i1 %151, label %160, label %152

152:                                              ; preds = %147, %152
  %153 = phi %"struct.std::pair"* [ %158, %152 ], [ %148, %147 ]
  %154 = phi %"struct.std::pair"* [ %157, %152 ], [ %129, %147 ]
  %155 = bitcast %"struct.std::pair"* %153 to i8*
  %156 = bitcast %"struct.std::pair"* %154 to i8*
  call void @llvm.memcpy.p0i8.p0i8.i64(i8* noundef nonnull align 8 dereferenceable(16) %155, i8* noundef nonnull align 8 dereferenceable(16) %156, i64 16, i1 false) #18, !alias.scope !23
  %157 = getelementptr inbounds %"struct.std::pair", %"struct.std::pair"* %154, i64 1
  %158 = getelementptr inbounds %"struct.std::pair", %"struct.std::pair"* %153, i64 1
  %159 = icmp eq %"struct.std::pair"* %157, %120
  br i1 %159, label %160, label %152, !llvm.loop !21

160:                                              ; preds = %152, %147
  %161 = phi %"struct.std::pair"* [ %148, %147 ], [ %158, %152 ]
  %162 = getelementptr inbounds %"struct.std::pair", %"struct.std::pair"* %161, i64 1
  %163 = icmp eq %"struct.std::pair"* %129, null
  br i1 %163, label %166, label %164

164:                                              ; preds = %160
  %165 = bitcast %"struct.std::pair"* %129 to i8*
  call void @_ZdlPv(i8* nonnull %165) #18
  br label %166

166:                                              ; preds = %164, %160
  store i8* %146, i8** bitcast (%"class.std::vector"* @v0 to i8**), align 8, !tbaa !11
  store %"struct.std::pair"* %162, %"struct.std::pair"** getelementptr inbounds (%"class.std::vector", %"class.std::vector"* @v0, i64 0, i32 0, i32 0, i32 0, i32 1), align 8, !tbaa !15
  %167 = getelementptr inbounds %"struct.std::pair", %"struct.std::pair"* %148, i64 %144
  store %"struct.std::pair"* %167, %"struct.std::pair"** getelementptr inbounds (%"class.std::vector", %"class.std::vector"* @v0, i64 0, i32 0, i32 0, i32 0, i32 2), align 8, !tbaa !16
  br label %172

168:                                              ; preds = %137
  %169 = landingpad { i8*, i32 }
          cleanup
  br label %651

170:                                              ; preds = %135
  %171 = landingpad { i8*, i32 }
          cleanup
  br label %651

172:                                              ; preds = %123, %166, %68, %111
  %173 = add nuw nsw i64 %54, 1
  %174 = load i64, i64* %2, align 8, !tbaa !14
  %175 = icmp slt i64 %173, %174
  br i1 %175, label %53, label %40, !llvm.loop !27

176:                                              ; preds = %40
  %177 = ashr exact i64 %47, 4
  %178 = call i64 @llvm.ctlz.i64(i64 %177, i1 true) #18, !range !28
  %179 = shl nuw nsw i64 %178, 1
  %180 = xor i64 %179, 126
  invoke void @_ZSt16__introsort_loopIN9__gnu_cxx17__normal_iteratorIPSt4pairIxxESt6vectorIS3_SaIS3_EEEElNS0_5__ops15_Iter_comp_iterIPFbRKS3_SC_EEEEvT_SG_T0_T1_(%"struct.std::pair"* %44, %"struct.std::pair"* %43, i64 %180, i1 (%"struct.std::pair"*, %"struct.std::pair"*)* nonnull @_Z4compRKSt4pairIxxES2_)
          to label %181 unwind label %426

181:                                              ; preds = %176
  %182 = icmp sgt i64 %47, 256
  %183 = getelementptr inbounds %"struct.std::pair", %"struct.std::pair"* %44, i64 0, i32 0
  %184 = getelementptr inbounds %"struct.std::pair", %"struct.std::pair"* %44, i64 0, i32 1
  br i1 %182, label %185, label %346

185:                                              ; preds = %181, %298
  %186 = phi i64 [ %301, %298 ], [ 0, %181 ]
  %187 = phi i64 [ %299, %298 ], [ 1, %181 ]
  %188 = phi %"struct.std::pair"* [ %189, %298 ], [ %44, %181 ]
  %189 = getelementptr inbounds %"struct.std::pair", %"struct.std::pair"* %44, i64 %187
  %190 = getelementptr inbounds %"struct.std::pair", %"struct.std::pair"* %189, i64 0, i32 0
  %191 = load i64, i64* %190, align 8, !tbaa !5
  %192 = load i64, i64* %183, align 8, !tbaa !5
  %193 = getelementptr inbounds %"struct.std::pair", %"struct.std::pair"* %44, i64 %187, i32 1
  %194 = load i64, i64* %193, align 8, !tbaa !10
  %195 = add i64 %191, 1
  %196 = add i64 %195, %194
  %197 = load i64, i64* %184, align 8, !tbaa !10
  %198 = add i64 %192, 1
  %199 = add i64 %198, %197
  %200 = mul nsw i64 %196, %192
  %201 = mul nsw i64 %199, %191
  %202 = icmp slt i64 %200, %201
  br i1 %202, label %203, label %264

203:                                              ; preds = %185
  %204 = add i64 %186, 1
  %205 = getelementptr inbounds %"struct.std::pair", %"struct.std::pair"* %188, i64 1, i32 1
  %206 = load i64, i64* %205, align 8
  %207 = getelementptr inbounds %"struct.std::pair", %"struct.std::pair"* %188, i64 2
  %208 = and i64 %204, 3
  %209 = icmp eq i64 %208, 0
  br i1 %209, label %226, label %210

210:                                              ; preds = %203, %210
  %211 = phi i64 [ %223, %210 ], [ %187, %203 ]
  %212 = phi %"struct.std::pair"* [ %216, %210 ], [ %207, %203 ]
  %213 = phi %"struct.std::pair"* [ %215, %210 ], [ %189, %203 ]
  %214 = phi i64 [ %224, %210 ], [ %208, %203 ]
  %215 = getelementptr inbounds %"struct.std::pair", %"struct.std::pair"* %213, i64 -1
  %216 = getelementptr inbounds %"struct.std::pair", %"struct.std::pair"* %212, i64 -1
  %217 = getelementptr inbounds %"struct.std::pair", %"struct.std::pair"* %215, i64 0, i32 0
  %218 = load i64, i64* %217, align 8, !tbaa !14
  %219 = getelementptr inbounds %"struct.std::pair", %"struct.std::pair"* %216, i64 0, i32 0
  store i64 %218, i64* %219, align 8, !tbaa !5
  %220 = getelementptr inbounds %"struct.std::pair", %"struct.std::pair"* %213, i64 -1, i32 1
  %221 = load i64, i64* %220, align 8, !tbaa !14
  %222 = getelementptr inbounds %"struct.std::pair", %"struct.std::pair"* %212, i64 -1, i32 1
  store i64 %221, i64* %222, align 8, !tbaa !10
  %223 = add nsw i64 %211, -1
  %224 = add i64 %214, -1
  %225 = icmp eq i64 %224, 0
  br i1 %225, label %226, label %210, !llvm.loop !29

226:                                              ; preds = %210, %203
  %227 = phi i64 [ %187, %203 ], [ %223, %210 ]
  %228 = phi %"struct.std::pair"* [ %207, %203 ], [ %216, %210 ]
  %229 = phi %"struct.std::pair"* [ %189, %203 ], [ %215, %210 ]
  %230 = icmp ult i64 %186, 3
  br i1 %230, label %263, label %231

231:                                              ; preds = %226, %231
  %232 = phi i64 [ %261, %231 ], [ %227, %226 ]
  %233 = phi %"struct.std::pair"* [ %254, %231 ], [ %228, %226 ]
  %234 = phi %"struct.std::pair"* [ %253, %231 ], [ %229, %226 ]
  %235 = getelementptr inbounds %"struct.std::pair", %"struct.std::pair"* %234, i64 -1, i32 0
  %236 = load i64, i64* %235, align 8, !tbaa !14
  %237 = getelementptr inbounds %"struct.std::pair", %"struct.std::pair"* %233, i64 -1, i32 0
  store i64 %236, i64* %237, align 8, !tbaa !5
  %238 = getelementptr inbounds %"struct.std::pair", %"struct.std::pair"* %234, i64 -1, i32 1
  %239 = load i64, i64* %238, align 8, !tbaa !14
  %240 = getelementptr inbounds %"struct.std::pair", %"struct.std::pair"* %233, i64 -1, i32 1
  store i64 %239, i64* %240, align 8, !tbaa !10
  %241 = getelementptr inbounds %"struct.std::pair", %"struct.std::pair"* %234, i64 -2, i32 0
  %242 = load i64, i64* %241, align 8, !tbaa !14
  %243 = getelementptr inbounds %"struct.std::pair", %"struct.std::pair"* %233, i64 -2, i32 0
  store i64 %242, i64* %243, align 8, !tbaa !5
  %244 = getelementptr inbounds %"struct.std::pair", %"struct.std::pair"* %234, i64 -2, i32 1
  %245 = load i64, i64* %244, align 8, !tbaa !14
  %246 = getelementptr inbounds %"struct.std::pair", %"struct.std::pair"* %233, i64 -2, i32 1
  store i64 %245, i64* %246, align 8, !tbaa !10
  %247 = getelementptr inbounds %"struct.std::pair", %"struct.std::pair"* %234, i64 -3, i32 0
  %248 = load i64, i64* %247, align 8, !tbaa !14
  %249 = getelementptr inbounds %"struct.std::pair", %"struct.std::pair"* %233, i64 -3, i32 0
  store i64 %248, i64* %249, align 8, !tbaa !5
  %250 = getelementptr inbounds %"struct.std::pair", %"struct.std::pair"* %234, i64 -3, i32 1
  %251 = load i64, i64* %250, align 8, !tbaa !14
  %252 = getelementptr inbounds %"struct.std::pair", %"struct.std::pair"* %233, i64 -3, i32 1
  store i64 %251, i64* %252, align 8, !tbaa !10
  %253 = getelementptr inbounds %"struct.std::pair", %"struct.std::pair"* %234, i64 -4
  %254 = getelementptr inbounds %"struct.std::pair", %"struct.std::pair"* %233, i64 -4
  %255 = getelementptr inbounds %"struct.std::pair", %"struct.std::pair"* %253, i64 0, i32 0
  %256 = load i64, i64* %255, align 8, !tbaa !14
  %257 = getelementptr inbounds %"struct.std::pair", %"struct.std::pair"* %254, i64 0, i32 0
  store i64 %256, i64* %257, align 8, !tbaa !5
  %258 = getelementptr inbounds %"struct.std::pair", %"struct.std::pair"* %234, i64 -4, i32 1
  %259 = load i64, i64* %258, align 8, !tbaa !14
  %260 = getelementptr inbounds %"struct.std::pair", %"struct.std::pair"* %233, i64 -4, i32 1
  store i64 %259, i64* %260, align 8, !tbaa !10
  %261 = add nsw i64 %232, -4
  %262 = icmp sgt i64 %232, 4
  br i1 %262, label %231, label %263, !llvm.loop !31

263:                                              ; preds = %231, %226
  store i64 %191, i64* %183, align 8, !tbaa !5
  store i64 %206, i64* %184, align 8, !tbaa !10
  br label %298

264:                                              ; preds = %185
  %265 = getelementptr inbounds %"struct.std::pair", %"struct.std::pair"* %188, i64 0, i32 0
  %266 = load i64, i64* %265, align 8, !tbaa !5
  %267 = getelementptr inbounds %"struct.std::pair", %"struct.std::pair"* %188, i64 0, i32 1
  %268 = load i64, i64* %267, align 8, !tbaa !10
  %269 = add i64 %266, 1
  %270 = add i64 %269, %268
  %271 = mul nsw i64 %266, %196
  %272 = mul nsw i64 %270, %191
  %273 = icmp slt i64 %271, %272
  br i1 %273, label %274, label %294

274:                                              ; preds = %264
  %275 = getelementptr inbounds %"struct.std::pair", %"struct.std::pair"* %189, i64 -1, i32 1
  %276 = load i64, i64* %275, align 8, !tbaa !14
  br label %277

277:                                              ; preds = %274, %277
  %278 = phi i64 [ %288, %277 ], [ %276, %274 ]
  %279 = phi i64 [ %286, %277 ], [ %266, %274 ]
  %280 = phi %"struct.std::pair"* [ %284, %277 ], [ %188, %274 ]
  %281 = phi %"struct.std::pair"* [ %280, %277 ], [ %189, %274 ]
  %282 = getelementptr inbounds %"struct.std::pair", %"struct.std::pair"* %281, i64 0, i32 0
  store i64 %279, i64* %282, align 8, !tbaa !5
  %283 = getelementptr inbounds %"struct.std::pair", %"struct.std::pair"* %281, i64 0, i32 1
  store i64 %278, i64* %283, align 8, !tbaa !10
  %284 = getelementptr inbounds %"struct.std::pair", %"struct.std::pair"* %280, i64 -1
  %285 = getelementptr inbounds %"struct.std::pair", %"struct.std::pair"* %284, i64 0, i32 0
  %286 = load i64, i64* %285, align 8, !tbaa !5
  %287 = getelementptr inbounds %"struct.std::pair", %"struct.std::pair"* %280, i64 -1, i32 1
  %288 = load i64, i64* %287, align 8, !tbaa !10
  %289 = add i64 %286, 1
  %290 = add i64 %289, %288
  %291 = mul nsw i64 %286, %196
  %292 = mul nsw i64 %290, %191
  %293 = icmp slt i64 %291, %292
  br i1 %293, label %277, label %294, !llvm.loop !32

294:                                              ; preds = %277, %264
  %295 = phi %"struct.std::pair"* [ %189, %264 ], [ %280, %277 ]
  %296 = getelementptr inbounds %"struct.std::pair", %"struct.std::pair"* %295, i64 0, i32 0
  store i64 %191, i64* %296, align 8, !tbaa !5
  %297 = getelementptr inbounds %"struct.std::pair", %"struct.std::pair"* %295, i64 0, i32 1
  store i64 %194, i64* %297, align 8, !tbaa !10
  br label %298

298:                                              ; preds = %294, %263
  %299 = add nuw nsw i64 %187, 1
  %300 = icmp eq i64 %299, 16
  %301 = add i64 %186, 1
  br i1 %300, label %302, label %185, !llvm.loop !33

302:                                              ; preds = %298
  %303 = getelementptr inbounds %"struct.std::pair", %"struct.std::pair"* %44, i64 16
  %304 = icmp eq %"struct.std::pair"* %303, %43
  br i1 %304, label %428, label %305

305:                                              ; preds = %302, %340
  %306 = phi %"struct.std::pair"* [ %344, %340 ], [ %303, %302 ]
  %307 = getelementptr inbounds %"struct.std::pair", %"struct.std::pair"* %306, i64 0, i32 0
  %308 = load i64, i64* %307, align 8
  %309 = getelementptr inbounds %"struct.std::pair", %"struct.std::pair"* %306, i64 0, i32 1
  %310 = load i64, i64* %309, align 8
  %311 = getelementptr inbounds %"struct.std::pair", %"struct.std::pair"* %306, i64 -1
  %312 = getelementptr inbounds %"struct.std::pair", %"struct.std::pair"* %311, i64 0, i32 0
  %313 = load i64, i64* %312, align 8, !tbaa !5
  %314 = add i64 %308, 1
  %315 = add i64 %314, %310
  %316 = getelementptr inbounds %"struct.std::pair", %"struct.std::pair"* %306, i64 -1, i32 1
  %317 = load i64, i64* %316, align 8, !tbaa !10
  %318 = add i64 %313, 1
  %319 = add i64 %318, %317
  %320 = mul nsw i64 %315, %313
  %321 = mul nsw i64 %319, %308
  %322 = icmp slt i64 %320, %321
  br i1 %322, label %323, label %340

323:                                              ; preds = %305, %323
  %324 = phi i64 [ %334, %323 ], [ %317, %305 ]
  %325 = phi i64 [ %332, %323 ], [ %313, %305 ]
  %326 = phi %"struct.std::pair"* [ %330, %323 ], [ %311, %305 ]
  %327 = phi %"struct.std::pair"* [ %326, %323 ], [ %306, %305 ]
  %328 = getelementptr inbounds %"struct.std::pair", %"struct.std::pair"* %327, i64 0, i32 0
  store i64 %325, i64* %328, align 8, !tbaa !5
  %329 = getelementptr inbounds %"struct.std::pair", %"struct.std::pair"* %327, i64 0, i32 1
  store i64 %324, i64* %329, align 8, !tbaa !10
  %330 = getelementptr inbounds %"struct.std::pair", %"struct.std::pair"* %326, i64 -1
  %331 = getelementptr inbounds %"struct.std::pair", %"struct.std::pair"* %330, i64 0, i32 0
  %332 = load i64, i64* %331, align 8, !tbaa !5
  %333 = getelementptr inbounds %"struct.std::pair", %"struct.std::pair"* %326, i64 -1, i32 1
  %334 = load i64, i64* %333, align 8, !tbaa !10
  %335 = add i64 %332, 1
  %336 = add i64 %335, %334
  %337 = mul nsw i64 %332, %315
  %338 = mul nsw i64 %336, %308
  %339 = icmp slt i64 %337, %338
  br i1 %339, label %323, label %340, !llvm.loop !32

340:                                              ; preds = %323, %305
  %341 = phi %"struct.std::pair"* [ %306, %305 ], [ %326, %323 ]
  %342 = getelementptr inbounds %"struct.std::pair", %"struct.std::pair"* %341, i64 0, i32 0
  store i64 %308, i64* %342, align 8, !tbaa !5
  %343 = getelementptr inbounds %"struct.std::pair", %"struct.std::pair"* %341, i64 0, i32 1
  store i64 %310, i64* %343, align 8, !tbaa !10
  %344 = getelementptr inbounds %"struct.std::pair", %"struct.std::pair"* %306, i64 1
  %345 = icmp eq %"struct.std::pair"* %344, %43
  br i1 %345, label %428, label %305, !llvm.loop !34

346:                                              ; preds = %181
  %347 = getelementptr inbounds %"struct.std::pair", %"struct.std::pair"* %44, i64 1
  %348 = icmp eq %"struct.std::pair"* %347, %43
  br i1 %348, label %428, label %349

349:                                              ; preds = %346, %423
  %350 = phi %"struct.std::pair"* [ %424, %423 ], [ %347, %346 ]
  %351 = phi %"struct.std::pair"* [ %350, %423 ], [ %44, %346 ]
  %352 = getelementptr inbounds %"struct.std::pair", %"struct.std::pair"* %350, i64 0, i32 0
  %353 = load i64, i64* %352, align 8, !tbaa !5
  %354 = load i64, i64* %183, align 8, !tbaa !5
  %355 = getelementptr inbounds %"struct.std::pair", %"struct.std::pair"* %350, i64 0, i32 1
  %356 = load i64, i64* %355, align 8, !tbaa !10
  %357 = add i64 %353, 1
  %358 = add i64 %357, %356
  %359 = load i64, i64* %184, align 8, !tbaa !10
  %360 = add i64 %354, 1
  %361 = add i64 %360, %359
  %362 = mul nsw i64 %358, %354
  %363 = mul nsw i64 %361, %353
  %364 = icmp slt i64 %362, %363
  br i1 %364, label %365, label %389

365:                                              ; preds = %349
  %366 = getelementptr inbounds %"struct.std::pair", %"struct.std::pair"* %351, i64 1, i32 1
  %367 = load i64, i64* %366, align 8
  %368 = ptrtoint %"struct.std::pair"* %350 to i64
  %369 = sub i64 %368, %46
  %370 = icmp sgt i64 %369, 0
  br i1 %370, label %371, label %388

371:                                              ; preds = %365
  %372 = getelementptr inbounds %"struct.std::pair", %"struct.std::pair"* %351, i64 2
  %373 = lshr exact i64 %369, 4
  br label %374

374:                                              ; preds = %374, %371
  %375 = phi i64 [ %386, %374 ], [ %373, %371 ]
  %376 = phi %"struct.std::pair"* [ %379, %374 ], [ %372, %371 ]
  %377 = phi %"struct.std::pair"* [ %378, %374 ], [ %350, %371 ]
  %378 = getelementptr inbounds %"struct.std::pair", %"struct.std::pair"* %377, i64 -1
  %379 = getelementptr inbounds %"struct.std::pair", %"struct.std::pair"* %376, i64 -1
  %380 = getelementptr inbounds %"struct.std::pair", %"struct.std::pair"* %378, i64 0, i32 0
  %381 = load i64, i64* %380, align 8, !tbaa !14
  %382 = getelementptr inbounds %"struct.std::pair", %"struct.std::pair"* %379, i64 0, i32 0
  store i64 %381, i64* %382, align 8, !tbaa !5
  %383 = getelementptr inbounds %"struct.std::pair", %"struct.std::pair"* %377, i64 -1, i32 1
  %384 = load i64, i64* %383, align 8, !tbaa !14
  %385 = getelementptr inbounds %"struct.std::pair", %"struct.std::pair"* %376, i64 -1, i32 1
  store i64 %384, i64* %385, align 8, !tbaa !10
  %386 = add nsw i64 %375, -1
  %387 = icmp sgt i64 %375, 1
  br i1 %387, label %374, label %388, !llvm.loop !31

388:                                              ; preds = %374, %365
  store i64 %353, i64* %183, align 8, !tbaa !5
  store i64 %367, i64* %184, align 8, !tbaa !10
  br label %423

389:                                              ; preds = %349
  %390 = getelementptr inbounds %"struct.std::pair", %"struct.std::pair"* %351, i64 0, i32 0
  %391 = load i64, i64* %390, align 8, !tbaa !5
  %392 = getelementptr inbounds %"struct.std::pair", %"struct.std::pair"* %351, i64 0, i32 1
  %393 = load i64, i64* %392, align 8, !tbaa !10
  %394 = add i64 %391, 1
  %395 = add i64 %394, %393
  %396 = mul nsw i64 %391, %358
  %397 = mul nsw i64 %395, %353
  %398 = icmp slt i64 %396, %397
  br i1 %398, label %399, label %419

399:                                              ; preds = %389
  %400 = getelementptr inbounds %"struct.std::pair", %"struct.std::pair"* %350, i64 -1, i32 1
  %401 = load i64, i64* %400, align 8, !tbaa !14
  br label %402

402:                                              ; preds = %399, %402
  %403 = phi i64 [ %413, %402 ], [ %401, %399 ]
  %404 = phi i64 [ %411, %402 ], [ %391, %399 ]
  %405 = phi %"struct.std::pair"* [ %409, %402 ], [ %351, %399 ]
  %406 = phi %"struct.std::pair"* [ %405, %402 ], [ %350, %399 ]
  %407 = getelementptr inbounds %"struct.std::pair", %"struct.std::pair"* %406, i64 0, i32 0
  store i64 %404, i64* %407, align 8, !tbaa !5
  %408 = getelementptr inbounds %"struct.std::pair", %"struct.std::pair"* %406, i64 0, i32 1
  store i64 %403, i64* %408, align 8, !tbaa !10
  %409 = getelementptr inbounds %"struct.std::pair", %"struct.std::pair"* %405, i64 -1
  %410 = getelementptr inbounds %"struct.std::pair", %"struct.std::pair"* %409, i64 0, i32 0
  %411 = load i64, i64* %410, align 8, !tbaa !5
  %412 = getelementptr inbounds %"struct.std::pair", %"struct.std::pair"* %405, i64 -1, i32 1
  %413 = load i64, i64* %412, align 8, !tbaa !10
  %414 = add i64 %411, 1
  %415 = add i64 %414, %413
  %416 = mul nsw i64 %411, %358
  %417 = mul nsw i64 %415, %353
  %418 = icmp slt i64 %416, %417
  br i1 %418, label %402, label %419, !llvm.loop !32

419:                                              ; preds = %402, %389
  %420 = phi %"struct.std::pair"* [ %350, %389 ], [ %405, %402 ]
  %421 = getelementptr inbounds %"struct.std::pair", %"struct.std::pair"* %420, i64 0, i32 0
  store i64 %353, i64* %421, align 8, !tbaa !5
  %422 = getelementptr inbounds %"struct.std::pair", %"struct.std::pair"* %420, i64 0, i32 1
  store i64 %356, i64* %422, align 8, !tbaa !10
  br label %423

423:                                              ; preds = %419, %388
  %424 = getelementptr inbounds %"struct.std::pair", %"struct.std::pair"* %350, i64 1
  %425 = icmp eq %"struct.std::pair"* %424, %43
  br i1 %425, label %428, label %349, !llvm.loop !33

426:                                              ; preds = %440, %432, %176
  %427 = landingpad { i8*, i32 }
          cleanup
  br label %648

428:                                              ; preds = %423, %340, %346, %302, %40
  %429 = load %"struct.std::pair"*, %"struct.std::pair"** getelementptr inbounds (%"class.std::vector", %"class.std::vector"* @v0, i64 0, i32 0, i32 0, i32 0, i32 0), align 8, !tbaa !35
  %430 = load %"struct.std::pair"*, %"struct.std::pair"** getelementptr inbounds (%"class.std::vector", %"class.std::vector"* @v0, i64 0, i32 0, i32 0, i32 0, i32 1), align 8, !tbaa !35
  %431 = icmp eq %"struct.std::pair"* %429, %430
  br i1 %431, label %441, label %432

432:                                              ; preds = %428
  %433 = ptrtoint %"struct.std::pair"* %430 to i64
  %434 = ptrtoint %"struct.std::pair"* %429 to i64
  %435 = sub i64 %433, %434
  %436 = ashr exact i64 %435, 4
  %437 = call i64 @llvm.ctlz.i64(i64 %436, i1 true) #18, !range !28
  %438 = shl nuw nsw i64 %437, 1
  %439 = xor i64 %438, 126
  invoke void @_ZSt16__introsort_loopIN9__gnu_cxx17__normal_iteratorIPSt4pairIxxESt6vectorIS3_SaIS3_EEEElNS0_5__ops15_Iter_less_iterEEvT_SB_T0_T1_(%"struct.std::pair"* %429, %"struct.std::pair"* %430, i64 %439)
          to label %440 unwind label %426

440:                                              ; preds = %432
  invoke void @_ZSt22__final_insertion_sortIN9__gnu_cxx17__normal_iteratorIPSt4pairIxxESt6vectorIS3_SaIS3_EEEENS0_5__ops15_Iter_less_iterEEvT_SB_T0_(%"struct.std::pair"* %429, %"struct.std::pair"* %430)
          to label %441 unwind label %426

441:                                              ; preds = %428, %440
  %442 = load %"struct.std::pair"*, %"struct.std::pair"** getelementptr inbounds (%"class.std::vector", %"class.std::vector"* @v1, i64 0, i32 0, i32 0, i32 0, i32 1), align 8, !tbaa !15
  %443 = load %"struct.std::pair"*, %"struct.std::pair"** getelementptr inbounds (%"class.std::vector", %"class.std::vector"* @v1, i64 0, i32 0, i32 0, i32 0, i32 0), align 8, !tbaa !11
  %444 = ptrtoint %"struct.std::pair"* %442 to i64
  %445 = ptrtoint %"struct.std::pair"* %443 to i64
  %446 = sub i64 %444, %445
  %447 = ashr exact i64 %446, 4
  %448 = icmp slt i64 %446, 0
  br i1 %448, label %449, label %451

449:                                              ; preds = %441
  store i64 0, i64* getelementptr inbounds ([200020 x [50 x i64]], [200020 x [50 x i64]]* @dp, i64 0, i64 0, i64 0), align 16, !tbaa !14
  %450 = load i64, i64* %3, align 8
  br label %517

451:                                              ; preds = %441
  %452 = call i64 @llvm.smax.i64(i64 %447, i64 0)
  br label %453

453:                                              ; preds = %451, %453
  %454 = phi i64 [ %505, %453 ], [ 0, %451 ]
  %455 = getelementptr inbounds [200020 x [50 x i64]], [200020 x [50 x i64]]* @dp, i64 0, i64 %454, i64 0
  %456 = bitcast i64* %455 to <2 x i64>*
  store <2 x i64> <i64 1000000000000, i64 1000000000000>, <2 x i64>* %456, align 16, !tbaa !14
  %457 = getelementptr inbounds [200020 x [50 x i64]], [200020 x [50 x i64]]* @dp, i64 0, i64 %454, i64 2
  %458 = bitcast i64* %457 to <2 x i64>*
  store <2 x i64> <i64 1000000000000, i64 1000000000000>, <2 x i64>* %458, align 16, !tbaa !14
  %459 = getelementptr inbounds [200020 x [50 x i64]], [200020 x [50 x i64]]* @dp, i64 0, i64 %454, i64 4
  %460 = bitcast i64* %459 to <2 x i64>*
  store <2 x i64> <i64 1000000000000, i64 1000000000000>, <2 x i64>* %460, align 16, !tbaa !14
  %461 = getelementptr inbounds [200020 x [50 x i64]], [200020 x [50 x i64]]* @dp, i64 0, i64 %454, i64 6
  %462 = bitcast i64* %461 to <2 x i64>*
  store <2 x i64> <i64 1000000000000, i64 1000000000000>, <2 x i64>* %462, align 16, !tbaa !14
  %463 = getelementptr inbounds [200020 x [50 x i64]], [200020 x [50 x i64]]* @dp, i64 0, i64 %454, i64 8
  %464 = bitcast i64* %463 to <2 x i64>*
  store <2 x i64> <i64 1000000000000, i64 1000000000000>, <2 x i64>* %464, align 16, !tbaa !14
  %465 = getelementptr inbounds [200020 x [50 x i64]], [200020 x [50 x i64]]* @dp, i64 0, i64 %454, i64 10
  %466 = bitcast i64* %465 to <2 x i64>*
  store <2 x i64> <i64 1000000000000, i64 1000000000000>, <2 x i64>* %466, align 16, !tbaa !14
  %467 = getelementptr inbounds [200020 x [50 x i64]], [200020 x [50 x i64]]* @dp, i64 0, i64 %454, i64 12
  %468 = bitcast i64* %467 to <2 x i64>*
  store <2 x i64> <i64 1000000000000, i64 1000000000000>, <2 x i64>* %468, align 16, !tbaa !14
  %469 = getelementptr inbounds [200020 x [50 x i64]], [200020 x [50 x i64]]* @dp, i64 0, i64 %454, i64 14
  %470 = bitcast i64* %469 to <2 x i64>*
  store <2 x i64> <i64 1000000000000, i64 1000000000000>, <2 x i64>* %470, align 16, !tbaa !14
  %471 = getelementptr inbounds [200020 x [50 x i64]], [200020 x [50 x i64]]* @dp, i64 0, i64 %454, i64 16
  %472 = bitcast i64* %471 to <2 x i64>*
  store <2 x i64> <i64 1000000000000, i64 1000000000000>, <2 x i64>* %472, align 16, !tbaa !14
  %473 = getelementptr inbounds [200020 x [50 x i64]], [200020 x [50 x i64]]* @dp, i64 0, i64 %454, i64 18
  %474 = bitcast i64* %473 to <2 x i64>*
  store <2 x i64> <i64 1000000000000, i64 1000000000000>, <2 x i64>* %474, align 16, !tbaa !14
  %475 = getelementptr inbounds [200020 x [50 x i64]], [200020 x [50 x i64]]* @dp, i64 0, i64 %454, i64 20
  %476 = bitcast i64* %475 to <2 x i64>*
  store <2 x i64> <i64 1000000000000, i64 1000000000000>, <2 x i64>* %476, align 16, !tbaa !14
  %477 = getelementptr inbounds [200020 x [50 x i64]], [200020 x [50 x i64]]* @dp, i64 0, i64 %454, i64 22
  %478 = bitcast i64* %477 to <2 x i64>*
  store <2 x i64> <i64 1000000000000, i64 1000000000000>, <2 x i64>* %478, align 16, !tbaa !14
  %479 = getelementptr inbounds [200020 x [50 x i64]], [200020 x [50 x i64]]* @dp, i64 0, i64 %454, i64 24
  %480 = bitcast i64* %479 to <2 x i64>*
  store <2 x i64> <i64 1000000000000, i64 1000000000000>, <2 x i64>* %480, align 16, !tbaa !14
  %481 = getelementptr inbounds [200020 x [50 x i64]], [200020 x [50 x i64]]* @dp, i64 0, i64 %454, i64 26
  %482 = bitcast i64* %481 to <2 x i64>*
  store <2 x i64> <i64 1000000000000, i64 1000000000000>, <2 x i64>* %482, align 16, !tbaa !14
  %483 = getelementptr inbounds [200020 x [50 x i64]], [200020 x [50 x i64]]* @dp, i64 0, i64 %454, i64 28
  %484 = bitcast i64* %483 to <2 x i64>*
  store <2 x i64> <i64 1000000000000, i64 1000000000000>, <2 x i64>* %484, align 16, !tbaa !14
  %485 = getelementptr inbounds [200020 x [50 x i64]], [200020 x [50 x i64]]* @dp, i64 0, i64 %454, i64 30
  %486 = bitcast i64* %485 to <2 x i64>*
  store <2 x i64> <i64 1000000000000, i64 1000000000000>, <2 x i64>* %486, align 16, !tbaa !14
  %487 = getelementptr inbounds [200020 x [50 x i64]], [200020 x [50 x i64]]* @dp, i64 0, i64 %454, i64 32
  %488 = bitcast i64* %487 to <2 x i64>*
  store <2 x i64> <i64 1000000000000, i64 1000000000000>, <2 x i64>* %488, align 16, !tbaa !14
  %489 = getelementptr inbounds [200020 x [50 x i64]], [200020 x [50 x i64]]* @dp, i64 0, i64 %454, i64 34
  %490 = bitcast i64* %489 to <2 x i64>*
  store <2 x i64> <i64 1000000000000, i64 1000000000000>, <2 x i64>* %490, align 16, !tbaa !14
  %491 = getelementptr inbounds [200020 x [50 x i64]], [200020 x [50 x i64]]* @dp, i64 0, i64 %454, i64 36
  %492 = bitcast i64* %491 to <2 x i64>*
  store <2 x i64> <i64 1000000000000, i64 1000000000000>, <2 x i64>* %492, align 16, !tbaa !14
  %493 = getelementptr inbounds [200020 x [50 x i64]], [200020 x [50 x i64]]* @dp, i64 0, i64 %454, i64 38
  %494 = bitcast i64* %493 to <2 x i64>*
  store <2 x i64> <i64 1000000000000, i64 1000000000000>, <2 x i64>* %494, align 16, !tbaa !14
  %495 = getelementptr inbounds [200020 x [50 x i64]], [200020 x [50 x i64]]* @dp, i64 0, i64 %454, i64 40
  %496 = bitcast i64* %495 to <2 x i64>*
  store <2 x i64> <i64 1000000000000, i64 1000000000000>, <2 x i64>* %496, align 16, !tbaa !14
  %497 = getelementptr inbounds [200020 x [50 x i64]], [200020 x [50 x i64]]* @dp, i64 0, i64 %454, i64 42
  %498 = bitcast i64* %497 to <2 x i64>*
  store <2 x i64> <i64 1000000000000, i64 1000000000000>, <2 x i64>* %498, align 16, !tbaa !14
  %499 = getelementptr inbounds [200020 x [50 x i64]], [200020 x [50 x i64]]* @dp, i64 0, i64 %454, i64 44
  %500 = bitcast i64* %499 to <2 x i64>*
  store <2 x i64> <i64 1000000000000, i64 1000000000000>, <2 x i64>* %500, align 16, !tbaa !14
  %501 = getelementptr inbounds [200020 x [50 x i64]], [200020 x [50 x i64]]* @dp, i64 0, i64 %454, i64 46
  %502 = bitcast i64* %501 to <2 x i64>*
  store <2 x i64> <i64 1000000000000, i64 1000000000000>, <2 x i64>* %502, align 16, !tbaa !14
  %503 = getelementptr inbounds [200020 x [50 x i64]], [200020 x [50 x i64]]* @dp, i64 0, i64 %454, i64 48
  %504 = bitcast i64* %503 to <2 x i64>*
  store <2 x i64> <i64 1000000000000, i64 1000000000000>, <2 x i64>* %504, align 16, !tbaa !14
  %505 = add nuw nsw i64 %454, 1
  %506 = icmp eq i64 %454, %452
  br i1 %506, label %507, label %453, !llvm.loop !36

507:                                              ; preds = %453
  store i64 0, i64* getelementptr inbounds ([200020 x [50 x i64]], [200020 x [50 x i64]]* @dp, i64 0, i64 0, i64 0), align 16, !tbaa !14
  %508 = load i64, i64* %3, align 8
  %509 = icmp sgt i64 %446, 0
  br i1 %509, label %510, label %517

510:                                              ; preds = %507
  %511 = call i64 @llvm.smax.i64(i64 %447, i64 1)
  br label %512

512:                                              ; preds = %510, %584
  %513 = phi i64 [ %514, %584 ], [ 0, %510 ]
  %514 = add nuw nsw i64 %513, 1
  %515 = getelementptr inbounds %"struct.std::pair", %"struct.std::pair"* %443, i64 %513, i32 0
  %516 = getelementptr inbounds %"struct.std::pair", %"struct.std::pair"* %443, i64 %513, i32 1
  br label %586

517:                                              ; preds = %584, %449, %507
  %518 = phi i64 [ %450, %449 ], [ %508, %507 ], [ %508, %584 ]
  %519 = load %"struct.std::pair"*, %"struct.std::pair"** getelementptr inbounds (%"class.std::vector", %"class.std::vector"* @v0, i64 0, i32 0, i32 0, i32 0, i32 1), align 8
  %520 = load %"struct.std::pair"*, %"struct.std::pair"** getelementptr inbounds (%"class.std::vector", %"class.std::vector"* @v0, i64 0, i32 0, i32 0, i32 0, i32 0), align 8
  %521 = ptrtoint %"struct.std::pair"* %519 to i64
  %522 = ptrtoint %"struct.std::pair"* %520 to i64
  %523 = sub i64 %521, %522
  %524 = icmp sgt i64 %523, 0
  br i1 %524, label %525, label %617

525:                                              ; preds = %517
  %526 = lshr exact i64 %523, 4
  %527 = call i64 @llvm.smax.i64(i64 %526, i64 1)
  %528 = and i64 %527, 1
  %529 = icmp ult i64 %523, 32
  %530 = and i64 %527, 1152921504606846974
  %531 = icmp eq i64 %528, 0
  br label %532

532:                                              ; preds = %525, %565
  %533 = phi i64 [ %567, %565 ], [ 0, %525 ]
  %534 = phi i64 [ %566, %565 ], [ 0, %525 ]
  %535 = getelementptr inbounds [200020 x [50 x i64]], [200020 x [50 x i64]]* @dp, i64 0, i64 %447, i64 %533
  %536 = load i64, i64* %535, align 8, !tbaa !14
  %537 = icmp slt i64 %518, %536
  br i1 %537, label %565, label %538

538:                                              ; preds = %532
  %539 = sub nsw i64 %518, %536
  br i1 %529, label %569, label %540

540:                                              ; preds = %538, %540
  %541 = phi i64 [ %562, %540 ], [ 0, %538 ]
  %542 = phi i64 [ %561, %540 ], [ %539, %538 ]
  %543 = phi i64 [ %559, %540 ], [ %533, %538 ]
  %544 = phi i64 [ %563, %540 ], [ %530, %538 ]
  %545 = getelementptr inbounds %"struct.std::pair", %"struct.std::pair"* %520, i64 %541, i32 1
  %546 = load i64, i64* %545, align 8, !tbaa !10
  %547 = icmp slt i64 %546, %542
  %548 = xor i64 %546, -1
  %549 = zext i1 %547 to i64
  %550 = add nuw nsw i64 %543, %549
  %551 = select i1 %547, i64 %548, i64 0
  %552 = add i64 %551, %542
  %553 = or i64 %541, 1
  %554 = getelementptr inbounds %"struct.std::pair", %"struct.std::pair"* %520, i64 %553, i32 1
  %555 = load i64, i64* %554, align 8, !tbaa !10
  %556 = icmp slt i64 %555, %552
  %557 = xor i64 %555, -1
  %558 = zext i1 %556 to i64
  %559 = add nuw nsw i64 %550, %558
  %560 = select i1 %556, i64 %557, i64 0
  %561 = add i64 %560, %552
  %562 = add nuw nsw i64 %541, 2
  %563 = add i64 %544, -2
  %564 = icmp eq i64 %563, 0
  br i1 %564, label %569, label %540, !llvm.loop !37

565:                                              ; preds = %580, %532
  %566 = phi i64 [ %534, %532 ], [ %583, %580 ]
  %567 = add nuw nsw i64 %533, 1
  %568 = icmp eq i64 %567, 50
  br i1 %568, label %614, label %532, !llvm.loop !38

569:                                              ; preds = %540, %538
  %570 = phi i64 [ undef, %538 ], [ %559, %540 ]
  %571 = phi i64 [ 0, %538 ], [ %562, %540 ]
  %572 = phi i64 [ %539, %538 ], [ %561, %540 ]
  %573 = phi i64 [ %533, %538 ], [ %559, %540 ]
  br i1 %531, label %580, label %574

574:                                              ; preds = %569
  %575 = getelementptr inbounds %"struct.std::pair", %"struct.std::pair"* %520, i64 %571, i32 1
  %576 = load i64, i64* %575, align 8, !tbaa !10
  %577 = icmp slt i64 %576, %572
  %578 = zext i1 %577 to i64
  %579 = add nuw nsw i64 %573, %578
  br label %580

580:                                              ; preds = %569, %574
  %581 = phi i64 [ %570, %569 ], [ %579, %574 ]
  %582 = icmp slt i64 %534, %581
  %583 = select i1 %582, i64 %581, i64 %534
  br label %565

584:                                              ; preds = %611
  %585 = icmp eq i64 %514, %511
  br i1 %585, label %517, label %512, !llvm.loop !39

586:                                              ; preds = %512, %611
  %587 = phi i64 [ 0, %512 ], [ %612, %611 ]
  %588 = getelementptr inbounds [200020 x [50 x i64]], [200020 x [50 x i64]]* @dp, i64 0, i64 %513, i64 %587
  %589 = load i64, i64* %588, align 8, !tbaa !14
  %590 = icmp sgt i64 %589, %508
  br i1 %590, label %611, label %591

591:                                              ; preds = %586
  %592 = getelementptr inbounds [200020 x [50 x i64]], [200020 x [50 x i64]]* @dp, i64 0, i64 %514, i64 %587
  %593 = load i64, i64* %592, align 8, !tbaa !14
  %594 = icmp sgt i64 %593, %589
  br i1 %594, label %595, label %596

595:                                              ; preds = %591
  store i64 %589, i64* %592, align 8, !tbaa !14
  br label %596

596:                                              ; preds = %591, %595
  %597 = add nsw i64 %589, 1
  %598 = load i64, i64* %515, align 8, !tbaa !5
  %599 = mul nsw i64 %598, %597
  %600 = load i64, i64* %516, align 8, !tbaa !10
  %601 = add i64 %600, %589
  %602 = add i64 %601, %599
  %603 = icmp slt i64 %602, %508
  br i1 %603, label %604, label %611

604:                                              ; preds = %596
  %605 = add nsw i64 %602, 1
  %606 = add nuw nsw i64 %587, 1
  %607 = getelementptr inbounds [200020 x [50 x i64]], [200020 x [50 x i64]]* @dp, i64 0, i64 %514, i64 %606
  %608 = load i64, i64* %607, align 8, !tbaa !14
  %609 = icmp sgt i64 %608, %605
  br i1 %609, label %610, label %611

610:                                              ; preds = %604
  store i64 %605, i64* %607, align 8, !tbaa !14
  br label %611

611:                                              ; preds = %610, %604, %596, %586
  %612 = add nuw nsw i64 %587, 1
  %613 = icmp eq i64 %612, 49
  br i1 %613, label %584, label %586, !llvm.loop !40

614:                                              ; preds = %617, %565
  %615 = phi i64 [ %566, %565 ], [ %632, %617 ]
  %616 = invoke nonnull align 8 dereferenceable(8) %"class.std::basic_ostream"* @_ZNSo9_M_insertIxEERSoT_(%"class.std::basic_ostream"* nonnull align 8 dereferenceable(8) @_ZSt4cout, i64 %615)
          to label %635 unwind label %646

617:                                              ; preds = %517, %617
  %618 = phi i64 [ %633, %617 ], [ 0, %517 ]
  %619 = phi i64 [ %632, %617 ], [ 0, %517 ]
  %620 = getelementptr inbounds [200020 x [50 x i64]], [200020 x [50 x i64]]* @dp, i64 0, i64 %447, i64 %618
  %621 = load i64, i64* %620, align 16, !tbaa !14
  %622 = icmp slt i64 %518, %621
  %623 = icmp slt i64 %619, %618
  %624 = select i1 %623, i64 %618, i64 %619
  %625 = select i1 %622, i64 %619, i64 %624
  %626 = or i64 %618, 1
  %627 = getelementptr inbounds [200020 x [50 x i64]], [200020 x [50 x i64]]* @dp, i64 0, i64 %447, i64 %626
  %628 = load i64, i64* %627, align 8, !tbaa !14
  %629 = icmp slt i64 %518, %628
  %630 = icmp sgt i64 %625, %618
  %631 = select i1 %629, i1 true, i1 %630
  %632 = select i1 %631, i64 %625, i64 %626
  %633 = add nuw nsw i64 %618, 2
  %634 = icmp eq i64 %633, 50
  br i1 %634, label %614, label %617, !llvm.loop !38

635:                                              ; preds = %614
  call void @llvm.lifetime.start.p0i8(i64 1, i8* nonnull %1)
  store i8 10, i8* %1, align 1, !tbaa !41
  %636 = invoke nonnull align 8 dereferenceable(8) %"class.std::basic_ostream"* @_ZSt16__ostream_insertIcSt11char_traitsIcEERSt13basic_ostreamIT_T0_ES6_PKS3_l(%"class.std::basic_ostream"* nonnull align 8 dereferenceable(8) %616, i8* nonnull %1, i64 1)
          to label %637 unwind label %646

637:                                              ; preds = %635
  call void @llvm.lifetime.end.p0i8(i64 1, i8* nonnull %1)
  %638 = icmp eq i64* %42, null
  br i1 %638, label %641, label %639

639:                                              ; preds = %637
  %640 = bitcast i64* %42 to i8*
  call void @_ZdlPv(i8* nonnull %640) #18
  br label %641

641:                                              ; preds = %637, %639
  %642 = icmp eq i64* %41, null
  br i1 %642, label %645, label %643

643:                                              ; preds = %641
  %644 = bitcast i64* %41 to i8*
  call void @_ZdlPv(i8* nonnull %644) #18
  br label %645

645:                                              ; preds = %641, %643
  call void @llvm.lifetime.end.p0i8(i64 8, i8* nonnull %5) #18
  call void @llvm.lifetime.end.p0i8(i64 8, i8* nonnull %4) #18
  ret void

646:                                              ; preds = %635, %614
  %647 = landingpad { i8*, i32 }
          cleanup
  br label %648

648:                                              ; preds = %646, %426
  %649 = phi { i8*, i32 } [ %647, %646 ], [ %427, %426 ]
  %650 = icmp eq i64* %42, null
  br i1 %650, label %656, label %651

651:                                              ; preds = %113, %168, %170, %115, %117, %648
  %652 = phi i64* [ %41, %648 ], [ %16, %115 ], [ %16, %117 ], [ %16, %168 ], [ %16, %170 ], [ %16, %113 ]
  %653 = phi i64* [ %42, %648 ], [ %32, %115 ], [ %32, %117 ], [ %32, %168 ], [ %32, %170 ], [ %32, %113 ]
  %654 = phi { i8*, i32 } [ %649, %648 ], [ %116, %115 ], [ %118, %117 ], [ %169, %168 ], [ %171, %170 ], [ %114, %113 ]
  %655 = bitcast i64* %653 to i8*
  call void @_ZdlPv(i8* nonnull %655) #18
  br label %656

656:                                              ; preds = %651, %648
  %657 = phi i64* [ %41, %648 ], [ %652, %651 ]
  %658 = phi { i8*, i32 } [ %649, %648 ], [ %654, %651 ]
  %659 = icmp eq i64* %657, null
  br i1 %659, label %664, label %660

660:                                              ; preds = %51, %656
  %661 = phi { i8*, i32 } [ %52, %51 ], [ %658, %656 ]
  %662 = phi i64* [ %16, %51 ], [ %657, %656 ]
  %663 = bitcast i64* %662 to i8*
  call void @_ZdlPv(i8* nonnull %663) #18
  br label %664

664:                                              ; preds = %660, %656
  %665 = phi { i8*, i32 } [ %658, %656 ], [ %661, %660 ]
  call void @llvm.lifetime.end.p0i8(i64 8, i8* nonnull %5) #18
  call void @llvm.lifetime.end.p0i8(i64 8, i8* nonnull %4) #18
  resume { i8*, i32 } %665
}

declare i32 @__gxx_personality_v0(...)

; Function Attrs: mustprogress norecurse sspstrong uwtable
define dso_local i32 @main() local_unnamed_addr #7 {
  %1 = load i8*, i8** bitcast (%"class.std::basic_istream"* @_ZSt3cin to i8**), align 8, !tbaa !42
  %2 = getelementptr i8, i8* %1, i64 -24
  %3 = bitcast i8* %2 to i64*
  %4 = load i64, i64* %3, align 8
  %5 = add nsw i64 %4, 216
  %6 = getelementptr inbounds i8, i8* bitcast (%"class.std::basic_istream"* @_ZSt3cin to i8*), i64 %5
  %7 = bitcast i8* %6 to %"class.std::basic_ostream"**
  store %"class.std::basic_ostream"* null, %"class.std::basic_ostream"** %7, align 8, !tbaa !44
  %8 = tail call zeroext i1 @_ZNSt8ios_base15sync_with_stdioEb(i1 zeroext false)
  tail call void @_Z5solvev()
  ret i32 0
}

declare zeroext i1 @_ZNSt8ios_base15sync_with_stdioEb(i1 zeroext) local_unnamed_addr #0

declare void @_ZNSt13random_device7_M_initERKNSt7__cxx1112basic_stringIcSt11char_traitsIcESaIcEEE(%"class.std::random_device"* nonnull align 8 dereferenceable(5000), %"class.std::__cxx11::basic_string"* nonnull align 8 dereferenceable(32)) local_unnamed_addr #0

declare i8* @__cxa_begin_catch(i8*) local_unnamed_addr

; Function Attrs: noinline noreturn nounwind
define linkonce_odr hidden void @__clang_call_terminate(i8* %0) local_unnamed_addr #8 comdat {
  %2 = tail call i8* @__cxa_begin_catch(i8* %0) #18
  tail call void @_ZSt9terminatev() #17
  unreachable
}

declare void @_ZSt9terminatev() local_unnamed_addr

; Function Attrs: argmemonly mustprogress nofree nounwind willreturn
declare void @llvm.memcpy.p0i8.p0i8.i64(i8* noalias nocapture writeonly, i8* noalias nocapture readonly, i64, i1 immarg) #9

; Function Attrs: nobuiltin nounwind
declare void @_ZdlPv(i8*) local_unnamed_addr #10

declare void @_ZNSt13random_device7_M_finiEv(%"class.std::random_device"* nonnull align 8 dereferenceable(5000)) local_unnamed_addr #0

declare i32 @_ZNSt13random_device9_M_getvalEv(%"class.std::random_device"* nonnull align 8 dereferenceable(5000)) local_unnamed_addr #0

declare nonnull align 8 dereferenceable(16) %"class.std::basic_istream"* @_ZNSi10_M_extractIxEERSiRT_(%"class.std::basic_istream"* nonnull align 8 dereferenceable(16), i64* nonnull align 8 dereferenceable(8)) local_unnamed_addr #0

; Function Attrs: noreturn
declare void @_ZSt20__throw_length_errorPKc(i8*) local_unnamed_addr #11

; Function Attrs: nobuiltin allocsize(0)
declare nonnull i8* @_Znwm(i64) local_unnamed_addr #12

; Function Attrs: sspstrong uwtable
define linkonce_odr dso_local void @_ZSt16__introsort_loopIN9__gnu_cxx17__normal_iteratorIPSt4pairIxxESt6vectorIS3_SaIS3_EEEElNS0_5__ops15_Iter_comp_iterIPFbRKS3_SC_EEEEvT_SG_T0_T1_(%"struct.std::pair"* %0, %"struct.std::pair"* %1, i64 %2, i1 (%"struct.std::pair"*, %"struct.std::pair"*)* %3) local_unnamed_addr #6 comdat {
  %5 = ptrtoint %"struct.std::pair"* %0 to i64
  %6 = getelementptr inbounds %"struct.std::pair", %"struct.std::pair"* %0, i64 1
  %7 = getelementptr inbounds %"struct.std::pair", %"struct.std::pair"* %0, i64 0, i32 0
  %8 = ptrtoint %"struct.std::pair"* %1 to i64
  %9 = sub i64 %8, %5
  %10 = icmp sgt i64 %9, 256
  br i1 %10, label %11, label %92

11:                                               ; preds = %4, %88
  %12 = phi i64 [ %90, %88 ], [ %9, %4 ]
  %13 = phi i64 [ %45, %88 ], [ %2, %4 ]
  %14 = phi %"struct.std::pair"* [ %73, %88 ], [ %1, %4 ]
  %15 = icmp eq i64 %13, 0
  br i1 %15, label %16, label %44

16:                                               ; preds = %11
  %17 = lshr exact i64 %12, 4
  %18 = add nsw i64 %17, -2
  %19 = lshr i64 %18, 1
  br label %20

20:                                               ; preds = %20, %16
  %21 = phi i64 [ %19, %16 ], [ %27, %20 ]
  %22 = getelementptr inbounds %"struct.std::pair", %"struct.std::pair"* %0, i64 %21, i32 0
  %23 = load i64, i64* %22, align 8
  %24 = getelementptr inbounds %"struct.std::pair", %"struct.std::pair"* %0, i64 %21, i32 1
  %25 = load i64, i64* %24, align 8
  tail call void @_ZSt13__adjust_heapIN9__gnu_cxx17__normal_iteratorIPSt4pairIxxESt6vectorIS3_SaIS3_EEEElS3_NS0_5__ops15_Iter_comp_iterIPFbRKS3_SC_EEEEvT_T0_SH_T1_T2_(%"struct.std::pair"* %0, i64 %21, i64 %17, i64 %23, i64 %25, i1 (%"struct.std::pair"*, %"struct.std::pair"*)* %3)
  %26 = icmp eq i64 %21, 0
  %27 = add nsw i64 %21, -1
  br i1 %26, label %28, label %20, !llvm.loop !47

28:                                               ; preds = %20
  %29 = getelementptr inbounds %"struct.std::pair", %"struct.std::pair"* %0, i64 0, i32 1
  %30 = icmp sgt i64 %12, 16
  br i1 %30, label %31, label %92

31:                                               ; preds = %28, %31
  %32 = phi %"struct.std::pair"* [ %33, %31 ], [ %14, %28 ]
  %33 = getelementptr inbounds %"struct.std::pair", %"struct.std::pair"* %32, i64 -1
  %34 = getelementptr inbounds %"struct.std::pair", %"struct.std::pair"* %33, i64 0, i32 0
  %35 = load i64, i64* %34, align 8
  %36 = getelementptr inbounds %"struct.std::pair", %"struct.std::pair"* %32, i64 -1, i32 1
  %37 = load i64, i64* %36, align 8
  %38 = load i64, i64* %7, align 8, !tbaa !14
  store i64 %38, i64* %34, align 8, !tbaa !5
  %39 = load i64, i64* %29, align 8, !tbaa !14
  store i64 %39, i64* %36, align 8, !tbaa !10
  %40 = ptrtoint %"struct.std::pair"* %33 to i64
  %41 = sub i64 %40, %5
  %42 = ashr exact i64 %41, 4
  tail call void @_ZSt13__adjust_heapIN9__gnu_cxx17__normal_iteratorIPSt4pairIxxESt6vectorIS3_SaIS3_EEEElS3_NS0_5__ops15_Iter_comp_iterIPFbRKS3_SC_EEEEvT_T0_SH_T1_T2_(%"struct.std::pair"* nonnull %0, i64 0, i64 %42, i64 %35, i64 %37, i1 (%"struct.std::pair"*, %"struct.std::pair"*)* %3)
  %43 = icmp sgt i64 %41, 16
  br i1 %43, label %31, label %92, !llvm.loop !48

44:                                               ; preds = %11
  %45 = add nsw i64 %13, -1
  %46 = lshr i64 %12, 5
  %47 = getelementptr inbounds %"struct.std::pair", %"struct.std::pair"* %0, i64 %46
  %48 = getelementptr inbounds %"struct.std::pair", %"struct.std::pair"* %14, i64 -1
  %49 = tail call zeroext i1 %3(%"struct.std::pair"* nonnull align 8 dereferenceable(16) %6, %"struct.std::pair"* nonnull align 8 dereferenceable(16) %47)
  br i1 %49, label %50, label %52

50:                                               ; preds = %44
  %51 = tail call zeroext i1 %3(%"struct.std::pair"* nonnull align 8 dereferenceable(16) %47, %"struct.std::pair"* nonnull align 8 dereferenceable(16) %48)
  br i1 %51, label %58, label %54

52:                                               ; preds = %44
  %53 = tail call zeroext i1 %3(%"struct.std::pair"* nonnull align 8 dereferenceable(16) %6, %"struct.std::pair"* nonnull align 8 dereferenceable(16) %48)
  br i1 %53, label %58, label %54

54:                                               ; preds = %52, %50
  %55 = phi %"struct.std::pair"* [ %6, %50 ], [ %47, %52 ]
  %56 = tail call zeroext i1 %3(%"struct.std::pair"* nonnull align 8 dereferenceable(16) %55, %"struct.std::pair"* nonnull align 8 dereferenceable(16) %48)
  %57 = select i1 %56, %"struct.std::pair"* %48, %"struct.std::pair"* %55
  br label %58

58:                                               ; preds = %54, %52, %50
  %59 = phi %"struct.std::pair"* [ %47, %50 ], [ %6, %52 ], [ %57, %54 ]
  %60 = getelementptr inbounds %"struct.std::pair", %"struct.std::pair"* %59, i64 0, i32 0
  %61 = load i64, i64* %7, align 8, !tbaa !14
  %62 = load i64, i64* %60, align 8, !tbaa !14
  store i64 %62, i64* %7, align 8, !tbaa !14
  store i64 %61, i64* %60, align 8, !tbaa !14
  %63 = getelementptr inbounds %"struct.std::pair", %"struct.std::pair"* %59, i64 0, i32 1
  br label %64

64:                                               ; preds = %82, %58
  %65 = phi %"struct.std::pair"* [ %73, %82 ], [ %0, %58 ]
  %66 = phi i64* [ %87, %82 ], [ %63, %58 ]
  %67 = phi %"struct.std::pair"* [ %78, %82 ], [ %14, %58 ]
  %68 = phi %"struct.std::pair"* [ %75, %82 ], [ %6, %58 ]
  %69 = getelementptr inbounds %"struct.std::pair", %"struct.std::pair"* %65, i64 0, i32 1
  %70 = load i64, i64* %69, align 8, !tbaa !14
  %71 = load i64, i64* %66, align 8, !tbaa !14
  store i64 %71, i64* %69, align 8, !tbaa !14
  store i64 %70, i64* %66, align 8, !tbaa !14
  br label %72

72:                                               ; preds = %72, %64
  %73 = phi %"struct.std::pair"* [ %68, %64 ], [ %75, %72 ]
  %74 = tail call zeroext i1 %3(%"struct.std::pair"* nonnull align 8 dereferenceable(16) %73, %"struct.std::pair"* nonnull align 8 dereferenceable(16) %0)
  %75 = getelementptr inbounds %"struct.std::pair", %"struct.std::pair"* %73, i64 1
  br i1 %74, label %72, label %76, !llvm.loop !49

76:                                               ; preds = %72, %76
  %77 = phi %"struct.std::pair"* [ %78, %76 ], [ %67, %72 ]
  %78 = getelementptr inbounds %"struct.std::pair", %"struct.std::pair"* %77, i64 -1
  %79 = tail call zeroext i1 %3(%"struct.std::pair"* nonnull align 8 dereferenceable(16) %0, %"struct.std::pair"* nonnull align 8 dereferenceable(16) %78)
  br i1 %79, label %76, label %80, !llvm.loop !50

80:                                               ; preds = %76
  %81 = icmp ult %"struct.std::pair"* %73, %78
  br i1 %81, label %82, label %88

82:                                               ; preds = %80
  %83 = getelementptr inbounds %"struct.std::pair", %"struct.std::pair"* %73, i64 0, i32 0
  %84 = getelementptr inbounds %"struct.std::pair", %"struct.std::pair"* %78, i64 0, i32 0
  %85 = load i64, i64* %83, align 8, !tbaa !14
  %86 = load i64, i64* %84, align 8, !tbaa !14
  store i64 %86, i64* %83, align 8, !tbaa !14
  store i64 %85, i64* %84, align 8, !tbaa !14
  %87 = getelementptr inbounds %"struct.std::pair", %"struct.std::pair"* %77, i64 -1, i32 1
  br label %64, !llvm.loop !51

88:                                               ; preds = %80
  tail call void @_ZSt16__introsort_loopIN9__gnu_cxx17__normal_iteratorIPSt4pairIxxESt6vectorIS3_SaIS3_EEEElNS0_5__ops15_Iter_comp_iterIPFbRKS3_SC_EEEEvT_SG_T0_T1_(%"struct.std::pair"* %73, %"struct.std::pair"* %14, i64 %45, i1 (%"struct.std::pair"*, %"struct.std::pair"*)* %3)
  %89 = ptrtoint %"struct.std::pair"* %73 to i64
  %90 = sub i64 %89, %5
  %91 = icmp sgt i64 %90, 256
  br i1 %91, label %11, label %92, !llvm.loop !52

92:                                               ; preds = %88, %31, %4, %28
  ret void
}

; Function Attrs: sspstrong uwtable
define linkonce_odr dso_local void @_ZSt13__adjust_heapIN9__gnu_cxx17__normal_iteratorIPSt4pairIxxESt6vectorIS3_SaIS3_EEEElS3_NS0_5__ops15_Iter_comp_iterIPFbRKS3_SC_EEEEvT_T0_SH_T1_T2_(%"struct.std::pair"* %0, i64 %1, i64 %2, i64 %3, i64 %4, i1 (%"struct.std::pair"*, %"struct.std::pair"*)* %5) local_unnamed_addr #6 comdat {
  %7 = alloca %"struct.std::pair", align 8
  %8 = add nsw i64 %2, -1
  %9 = sdiv i64 %8, 2
  %10 = icmp sgt i64 %9, %1
  br i1 %10, label %11, label %26

11:                                               ; preds = %6, %11
  %12 = phi i64 [ %19, %11 ], [ %1, %6 ]
  %13 = shl i64 %12, 1
  %14 = add i64 %13, 2
  %15 = getelementptr inbounds %"struct.std::pair", %"struct.std::pair"* %0, i64 %14
  %16 = or i64 %13, 1
  %17 = getelementptr inbounds %"struct.std::pair", %"struct.std::pair"* %0, i64 %16
  %18 = tail call zeroext i1 %5(%"struct.std::pair"* nonnull align 8 dereferenceable(16) %15, %"struct.std::pair"* nonnull align 8 dereferenceable(16) %17)
  %19 = select i1 %18, i64 %16, i64 %14
  %20 = getelementptr inbounds %"struct.std::pair", %"struct.std::pair"* %0, i64 %19, i32 0
  %21 = getelementptr inbounds %"struct.std::pair", %"struct.std::pair"* %0, i64 %12, i32 0
  %22 = bitcast i64* %20 to <2 x i64>*
  %23 = load <2 x i64>, <2 x i64>* %22, align 8, !tbaa !14
  %24 = bitcast i64* %21 to <2 x i64>*
  store <2 x i64> %23, <2 x i64>* %24, align 8, !tbaa !14
  %25 = icmp slt i64 %19, %9
  br i1 %25, label %11, label %26, !llvm.loop !53

26:                                               ; preds = %11, %6
  %27 = phi i64 [ %1, %6 ], [ %19, %11 ]
  %28 = and i64 %2, 1
  %29 = icmp eq i64 %28, 0
  br i1 %29, label %30, label %42

30:                                               ; preds = %26
  %31 = add nsw i64 %2, -2
  %32 = sdiv i64 %31, 2
  %33 = icmp eq i64 %27, %32
  br i1 %33, label %34, label %42

34:                                               ; preds = %30
  %35 = shl i64 %27, 1
  %36 = or i64 %35, 1
  %37 = getelementptr inbounds %"struct.std::pair", %"struct.std::pair"* %0, i64 %36, i32 0
  %38 = getelementptr inbounds %"struct.std::pair", %"struct.std::pair"* %0, i64 %27, i32 0
  %39 = bitcast i64* %37 to <2 x i64>*
  %40 = load <2 x i64>, <2 x i64>* %39, align 8, !tbaa !14
  %41 = bitcast i64* %38 to <2 x i64>*
  store <2 x i64> %40, <2 x i64>* %41, align 8, !tbaa !14
  br label %42

42:                                               ; preds = %34, %30, %26
  %43 = phi i64 [ %36, %34 ], [ %27, %30 ], [ %27, %26 ]
  %44 = bitcast %"struct.std::pair"* %7 to i8*
  call void @llvm.lifetime.start.p0i8(i64 16, i8* nonnull %44)
  %45 = getelementptr inbounds %"struct.std::pair", %"struct.std::pair"* %7, i64 0, i32 0
  store i64 %3, i64* %45, align 8
  %46 = getelementptr inbounds %"struct.std::pair", %"struct.std::pair"* %7, i64 0, i32 1
  store i64 %4, i64* %46, align 8
  %47 = icmp sgt i64 %43, %1
  br i1 %47, label %48, label %64

48:                                               ; preds = %42, %54
  %49 = phi i64 [ %51, %54 ], [ %43, %42 ]
  %50 = add nsw i64 %49, -1
  %51 = sdiv i64 %50, 2
  %52 = getelementptr inbounds %"struct.std::pair", %"struct.std::pair"* %0, i64 %51
  %53 = call zeroext i1 %5(%"struct.std::pair"* nonnull align 8 dereferenceable(16) %52, %"struct.std::pair"* nonnull align 8 dereferenceable(16) %7)
  br i1 %53, label %54, label %60

54:                                               ; preds = %48
  %55 = getelementptr inbounds %"struct.std::pair", %"struct.std::pair"* %0, i64 %49, i32 0
  %56 = bitcast %"struct.std::pair"* %52 to <2 x i64>*
  %57 = load <2 x i64>, <2 x i64>* %56, align 8, !tbaa !14
  %58 = bitcast i64* %55 to <2 x i64>*
  store <2 x i64> %57, <2 x i64>* %58, align 8, !tbaa !14
  %59 = icmp sgt i64 %51, %1
  br i1 %59, label %48, label %60, !llvm.loop !54

60:                                               ; preds = %54, %48
  %61 = phi i64 [ %49, %48 ], [ %51, %54 ]
  %62 = load i64, i64* %45, align 8, !tbaa !14
  %63 = load i64, i64* %46, align 8, !tbaa !14
  br label %64

64:                                               ; preds = %42, %60
  %65 = phi i64 [ %4, %42 ], [ %63, %60 ]
  %66 = phi i64 [ %3, %42 ], [ %62, %60 ]
  %67 = phi i64 [ %43, %42 ], [ %61, %60 ]
  %68 = getelementptr inbounds %"struct.std::pair", %"struct.std::pair"* %0, i64 %67, i32 0
  store i64 %66, i64* %68, align 8, !tbaa !5
  %69 = getelementptr inbounds %"struct.std::pair", %"struct.std::pair"* %0, i64 %67, i32 1
  store i64 %65, i64* %69, align 8, !tbaa !10
  call void @llvm.lifetime.end.p0i8(i64 16, i8* nonnull %44)
  ret void
}

; Function Attrs: mustprogress nofree nosync nounwind readnone speculatable willreturn
declare i64 @llvm.ctlz.i64(i64, i1 immarg) #13

; Function Attrs: sspstrong uwtable
define linkonce_odr dso_local void @_ZSt16__introsort_loopIN9__gnu_cxx17__normal_iteratorIPSt4pairIxxESt6vectorIS3_SaIS3_EEEElNS0_5__ops15_Iter_less_iterEEvT_SB_T0_T1_(%"struct.std::pair"* %0, %"struct.std::pair"* %1, i64 %2) local_unnamed_addr #6 comdat {
  %4 = ptrtoint %"struct.std::pair"* %0 to i64
  %5 = getelementptr inbounds %"struct.std::pair", %"struct.std::pair"* %0, i64 1
  %6 = getelementptr inbounds %"struct.std::pair", %"struct.std::pair"* %0, i64 0, i32 0
  %7 = getelementptr inbounds %"struct.std::pair", %"struct.std::pair"* %0, i64 0, i32 1
  %8 = ptrtoint %"struct.std::pair"* %1 to i64
  %9 = sub i64 %8, %4
  %10 = icmp sgt i64 %9, 256
  br i1 %10, label %11, label %95

11:                                               ; preds = %3, %90
  %12 = phi i64 [ %93, %90 ], [ %9, %3 ]
  %13 = phi i64 [ %91, %90 ], [ %2, %3 ]
  %14 = phi %"struct.std::pair"* [ %52, %90 ], [ %1, %3 ]
  %15 = icmp eq i64 %13, 0
  br i1 %15, label %16, label %43

16:                                               ; preds = %11
  %17 = lshr exact i64 %12, 4
  %18 = add nsw i64 %17, -2
  %19 = lshr i64 %18, 1
  br label %20

20:                                               ; preds = %20, %16
  %21 = phi i64 [ %19, %16 ], [ %27, %20 ]
  %22 = getelementptr inbounds %"struct.std::pair", %"struct.std::pair"* %0, i64 %21, i32 0
  %23 = load i64, i64* %22, align 8
  %24 = getelementptr inbounds %"struct.std::pair", %"struct.std::pair"* %0, i64 %21, i32 1
  %25 = load i64, i64* %24, align 8
  tail call void @_ZSt13__adjust_heapIN9__gnu_cxx17__normal_iteratorIPSt4pairIxxESt6vectorIS3_SaIS3_EEEElS3_NS0_5__ops15_Iter_less_iterEEvT_T0_SC_T1_T2_(%"struct.std::pair"* %0, i64 %21, i64 %17, i64 %23, i64 %25)
  %26 = icmp eq i64 %21, 0
  %27 = add nsw i64 %21, -1
  br i1 %26, label %28, label %20, !llvm.loop !55

28:                                               ; preds = %20
  %29 = icmp sgt i64 %12, 16
  br i1 %29, label %30, label %95

30:                                               ; preds = %28, %30
  %31 = phi %"struct.std::pair"* [ %32, %30 ], [ %14, %28 ]
  %32 = getelementptr inbounds %"struct.std::pair", %"struct.std::pair"* %31, i64 -1
  %33 = getelementptr inbounds %"struct.std::pair", %"struct.std::pair"* %32, i64 0, i32 0
  %34 = load i64, i64* %33, align 8
  %35 = getelementptr inbounds %"struct.std::pair", %"struct.std::pair"* %31, i64 -1, i32 1
  %36 = load i64, i64* %35, align 8
  %37 = load i64, i64* %6, align 8, !tbaa !14
  store i64 %37, i64* %33, align 8, !tbaa !5
  %38 = load i64, i64* %7, align 8, !tbaa !14
  store i64 %38, i64* %35, align 8, !tbaa !10
  %39 = ptrtoint %"struct.std::pair"* %32 to i64
  %40 = sub i64 %39, %4
  %41 = ashr exact i64 %40, 4
  tail call void @_ZSt13__adjust_heapIN9__gnu_cxx17__normal_iteratorIPSt4pairIxxESt6vectorIS3_SaIS3_EEEElS3_NS0_5__ops15_Iter_less_iterEEvT_T0_SC_T1_T2_(%"struct.std::pair"* nonnull %0, i64 0, i64 %41, i64 %34, i64 %36)
  %42 = icmp sgt i64 %40, 16
  br i1 %42, label %30, label %95, !llvm.loop !56

43:                                               ; preds = %11
  %44 = lshr i64 %12, 5
  %45 = getelementptr inbounds %"struct.std::pair", %"struct.std::pair"* %0, i64 %44
  %46 = getelementptr inbounds %"struct.std::pair", %"struct.std::pair"* %14, i64 -1
  tail call void @_ZSt22__move_median_to_firstIN9__gnu_cxx17__normal_iteratorIPSt4pairIxxESt6vectorIS3_SaIS3_EEEENS0_5__ops15_Iter_less_iterEEvT_SB_SB_SB_T0_(%"struct.std::pair"* %0, %"struct.std::pair"* nonnull %5, %"struct.std::pair"* %45, %"struct.std::pair"* nonnull %46)
  br label %47

47:                                               ; preds = %83, %43
  %48 = phi %"struct.std::pair"* [ %5, %43 ], [ %89, %83 ]
  %49 = phi %"struct.std::pair"* [ %14, %43 ], [ %69, %83 ]
  %50 = load i64, i64* %6, align 8, !tbaa !5
  br label %51

51:                                               ; preds = %63, %47
  %52 = phi %"struct.std::pair"* [ %48, %47 ], [ %64, %63 ]
  %53 = getelementptr inbounds %"struct.std::pair", %"struct.std::pair"* %52, i64 0, i32 0
  %54 = load i64, i64* %53, align 8, !tbaa !5
  %55 = icmp slt i64 %54, %50
  br i1 %55, label %63, label %56

56:                                               ; preds = %51
  %57 = icmp slt i64 %50, %54
  br i1 %57, label %65, label %58

58:                                               ; preds = %56
  %59 = getelementptr inbounds %"struct.std::pair", %"struct.std::pair"* %52, i64 0, i32 1
  %60 = load i64, i64* %59, align 8, !tbaa !10
  %61 = load i64, i64* %7, align 8, !tbaa !10
  %62 = icmp slt i64 %60, %61
  br i1 %62, label %63, label %65

63:                                               ; preds = %58, %51
  %64 = getelementptr inbounds %"struct.std::pair", %"struct.std::pair"* %52, i64 1
  br label %51, !llvm.loop !57

65:                                               ; preds = %58, %56
  %66 = getelementptr inbounds %"struct.std::pair", %"struct.std::pair"* %52, i64 0, i32 0
  br label %67

67:                                               ; preds = %80, %65
  %68 = phi %"struct.std::pair"* [ %49, %65 ], [ %69, %80 ]
  %69 = getelementptr inbounds %"struct.std::pair", %"struct.std::pair"* %68, i64 -1
  %70 = getelementptr inbounds %"struct.std::pair", %"struct.std::pair"* %69, i64 0, i32 0
  %71 = load i64, i64* %70, align 8, !tbaa !5
  %72 = icmp slt i64 %50, %71
  br i1 %72, label %80, label %73

73:                                               ; preds = %67
  %74 = icmp slt i64 %71, %50
  br i1 %74, label %81, label %75

75:                                               ; preds = %73
  %76 = load i64, i64* %7, align 8, !tbaa !10
  %77 = getelementptr inbounds %"struct.std::pair", %"struct.std::pair"* %68, i64 -1, i32 1
  %78 = load i64, i64* %77, align 8, !tbaa !10
  %79 = icmp slt i64 %76, %78
  br i1 %79, label %80, label %81

80:                                               ; preds = %75, %67
  br label %67, !llvm.loop !58

81:                                               ; preds = %75, %73
  %82 = icmp ult %"struct.std::pair"* %52, %69
  br i1 %82, label %83, label %90

83:                                               ; preds = %81
  %84 = getelementptr inbounds %"struct.std::pair", %"struct.std::pair"* %69, i64 0, i32 0
  store i64 %71, i64* %66, align 8, !tbaa !14
  store i64 %54, i64* %84, align 8, !tbaa !14
  %85 = getelementptr inbounds %"struct.std::pair", %"struct.std::pair"* %52, i64 0, i32 1
  %86 = getelementptr inbounds %"struct.std::pair", %"struct.std::pair"* %68, i64 -1, i32 1
  %87 = load i64, i64* %85, align 8, !tbaa !14
  %88 = load i64, i64* %86, align 8, !tbaa !14
  store i64 %88, i64* %85, align 8, !tbaa !14
  store i64 %87, i64* %86, align 8, !tbaa !14
  %89 = getelementptr inbounds %"struct.std::pair", %"struct.std::pair"* %52, i64 1
  br label %47, !llvm.loop !59

90:                                               ; preds = %81
  %91 = add nsw i64 %13, -1
  tail call void @_ZSt16__introsort_loopIN9__gnu_cxx17__normal_iteratorIPSt4pairIxxESt6vectorIS3_SaIS3_EEEElNS0_5__ops15_Iter_less_iterEEvT_SB_T0_T1_(%"struct.std::pair"* %52, %"struct.std::pair"* %14, i64 %91)
  %92 = ptrtoint %"struct.std::pair"* %52 to i64
  %93 = sub i64 %92, %4
  %94 = icmp sgt i64 %93, 256
  br i1 %94, label %11, label %95, !llvm.loop !60

95:                                               ; preds = %90, %30, %3, %28
  ret void
}

; Function Attrs: sspstrong uwtable
define linkonce_odr dso_local void @_ZSt22__final_insertion_sortIN9__gnu_cxx17__normal_iteratorIPSt4pairIxxESt6vectorIS3_SaIS3_EEEENS0_5__ops15_Iter_less_iterEEvT_SB_T0_(%"struct.std::pair"* %0, %"struct.std::pair"* %1) local_unnamed_addr #6 comdat {
  %3 = ptrtoint %"struct.std::pair"* %1 to i64
  %4 = ptrtoint %"struct.std::pair"* %0 to i64
  %5 = sub i64 %3, %4
  %6 = icmp sgt i64 %5, 256
  br i1 %6, label %7, label %149

7:                                                ; preds = %2
  %8 = getelementptr inbounds %"struct.std::pair", %"struct.std::pair"* %0, i64 0, i32 0
  %9 = getelementptr inbounds %"struct.std::pair", %"struct.std::pair"* %0, i64 0, i32 1
  br label %10

10:                                               ; preds = %7, %112
  %11 = phi i64 [ 0, %7 ], [ %115, %112 ]
  %12 = phi i64 [ 1, %7 ], [ %113, %112 ]
  %13 = phi %"struct.std::pair"* [ %0, %7 ], [ %15, %112 ]
  %14 = add i64 %11, 1
  %15 = getelementptr inbounds %"struct.std::pair", %"struct.std::pair"* %0, i64 %12
  %16 = getelementptr inbounds %"struct.std::pair", %"struct.std::pair"* %15, i64 0, i32 0
  %17 = load i64, i64* %16, align 8, !tbaa !5
  %18 = load i64, i64* %8, align 8, !tbaa !5
  %19 = icmp slt i64 %17, %18
  br i1 %19, label %20, label %23

20:                                               ; preds = %10
  %21 = getelementptr inbounds %"struct.std::pair", %"struct.std::pair"* %13, i64 1, i32 1
  %22 = load i64, i64* %21, align 8
  br label %31

23:                                               ; preds = %10
  %24 = icmp slt i64 %18, %17
  %25 = getelementptr inbounds %"struct.std::pair", %"struct.std::pair"* %13, i64 1, i32 1
  %26 = load i64, i64* %25, align 8
  br i1 %24, label %27, label %28

27:                                               ; preds = %28, %23
  br label %90

28:                                               ; preds = %23
  %29 = load i64, i64* %9, align 8, !tbaa !10
  %30 = icmp slt i64 %26, %29
  br i1 %30, label %31, label %27

31:                                               ; preds = %20, %28
  %32 = phi i64 [ %22, %20 ], [ %26, %28 ]
  %33 = getelementptr inbounds %"struct.std::pair", %"struct.std::pair"* %13, i64 2
  %34 = and i64 %14, 3
  %35 = icmp eq i64 %34, 0
  br i1 %35, label %52, label %36

36:                                               ; preds = %31, %36
  %37 = phi i64 [ %49, %36 ], [ %12, %31 ]
  %38 = phi %"struct.std::pair"* [ %42, %36 ], [ %33, %31 ]
  %39 = phi %"struct.std::pair"* [ %41, %36 ], [ %15, %31 ]
  %40 = phi i64 [ %50, %36 ], [ %34, %31 ]
  %41 = getelementptr inbounds %"struct.std::pair", %"struct.std::pair"* %39, i64 -1
  %42 = getelementptr inbounds %"struct.std::pair", %"struct.std::pair"* %38, i64 -1
  %43 = getelementptr inbounds %"struct.std::pair", %"struct.std::pair"* %41, i64 0, i32 0
  %44 = load i64, i64* %43, align 8, !tbaa !14
  %45 = getelementptr inbounds %"struct.std::pair", %"struct.std::pair"* %42, i64 0, i32 0
  store i64 %44, i64* %45, align 8, !tbaa !5
  %46 = getelementptr inbounds %"struct.std::pair", %"struct.std::pair"* %39, i64 -1, i32 1
  %47 = load i64, i64* %46, align 8, !tbaa !14
  %48 = getelementptr inbounds %"struct.std::pair", %"struct.std::pair"* %38, i64 -1, i32 1
  store i64 %47, i64* %48, align 8, !tbaa !10
  %49 = add nsw i64 %37, -1
  %50 = add i64 %40, -1
  %51 = icmp eq i64 %50, 0
  br i1 %51, label %52, label %36, !llvm.loop !61

52:                                               ; preds = %36, %31
  %53 = phi i64 [ %12, %31 ], [ %49, %36 ]
  %54 = phi %"struct.std::pair"* [ %33, %31 ], [ %42, %36 ]
  %55 = phi %"struct.std::pair"* [ %15, %31 ], [ %41, %36 ]
  %56 = icmp ult i64 %11, 3
  br i1 %56, label %89, label %57

57:                                               ; preds = %52, %57
  %58 = phi i64 [ %87, %57 ], [ %53, %52 ]
  %59 = phi %"struct.std::pair"* [ %80, %57 ], [ %54, %52 ]
  %60 = phi %"struct.std::pair"* [ %79, %57 ], [ %55, %52 ]
  %61 = getelementptr inbounds %"struct.std::pair", %"struct.std::pair"* %60, i64 -1, i32 0
  %62 = load i64, i64* %61, align 8, !tbaa !14
  %63 = getelementptr inbounds %"struct.std::pair", %"struct.std::pair"* %59, i64 -1, i32 0
  store i64 %62, i64* %63, align 8, !tbaa !5
  %64 = getelementptr inbounds %"struct.std::pair", %"struct.std::pair"* %60, i64 -1, i32 1
  %65 = load i64, i64* %64, align 8, !tbaa !14
  %66 = getelementptr inbounds %"struct.std::pair", %"struct.std::pair"* %59, i64 -1, i32 1
  store i64 %65, i64* %66, align 8, !tbaa !10
  %67 = getelementptr inbounds %"struct.std::pair", %"struct.std::pair"* %60, i64 -2, i32 0
  %68 = load i64, i64* %67, align 8, !tbaa !14
  %69 = getelementptr inbounds %"struct.std::pair", %"struct.std::pair"* %59, i64 -2, i32 0
  store i64 %68, i64* %69, align 8, !tbaa !5
  %70 = getelementptr inbounds %"struct.std::pair", %"struct.std::pair"* %60, i64 -2, i32 1
  %71 = load i64, i64* %70, align 8, !tbaa !14
  %72 = getelementptr inbounds %"struct.std::pair", %"struct.std::pair"* %59, i64 -2, i32 1
  store i64 %71, i64* %72, align 8, !tbaa !10
  %73 = getelementptr inbounds %"struct.std::pair", %"struct.std::pair"* %60, i64 -3, i32 0
  %74 = load i64, i64* %73, align 8, !tbaa !14
  %75 = getelementptr inbounds %"struct.std::pair", %"struct.std::pair"* %59, i64 -3, i32 0
  store i64 %74, i64* %75, align 8, !tbaa !5
  %76 = getelementptr inbounds %"struct.std::pair", %"struct.std::pair"* %60, i64 -3, i32 1
  %77 = load i64, i64* %76, align 8, !tbaa !14
  %78 = getelementptr inbounds %"struct.std::pair", %"struct.std::pair"* %59, i64 -3, i32 1
  store i64 %77, i64* %78, align 8, !tbaa !10
  %79 = getelementptr inbounds %"struct.std::pair", %"struct.std::pair"* %60, i64 -4
  %80 = getelementptr inbounds %"struct.std::pair", %"struct.std::pair"* %59, i64 -4
  %81 = getelementptr inbounds %"struct.std::pair", %"struct.std::pair"* %79, i64 0, i32 0
  %82 = load i64, i64* %81, align 8, !tbaa !14
  %83 = getelementptr inbounds %"struct.std::pair", %"struct.std::pair"* %80, i64 0, i32 0
  store i64 %82, i64* %83, align 8, !tbaa !5
  %84 = getelementptr inbounds %"struct.std::pair", %"struct.std::pair"* %60, i64 -4, i32 1
  %85 = load i64, i64* %84, align 8, !tbaa !14
  %86 = getelementptr inbounds %"struct.std::pair", %"struct.std::pair"* %59, i64 -4, i32 1
  store i64 %85, i64* %86, align 8, !tbaa !10
  %87 = add nsw i64 %58, -4
  %88 = icmp sgt i64 %58, 4
  br i1 %88, label %57, label %89, !llvm.loop !31

89:                                               ; preds = %57, %52
  store i64 %17, i64* %8, align 8, !tbaa !5
  store i64 %32, i64* %9, align 8, !tbaa !10
  br label %112

90:                                               ; preds = %27, %105
  %91 = phi %"struct.std::pair"* [ %92, %105 ], [ %15, %27 ]
  %92 = getelementptr inbounds %"struct.std::pair", %"struct.std::pair"* %91, i64 -1
  %93 = getelementptr inbounds %"struct.std::pair", %"struct.std::pair"* %92, i64 0, i32 0
  %94 = load i64, i64* %93, align 8, !tbaa !5
  %95 = icmp slt i64 %17, %94
  br i1 %95, label %96, label %99

96:                                               ; preds = %90
  %97 = getelementptr inbounds %"struct.std::pair", %"struct.std::pair"* %91, i64 -1, i32 1
  %98 = load i64, i64* %97, align 8, !tbaa !14
  br label %105

99:                                               ; preds = %90
  %100 = icmp slt i64 %94, %17
  br i1 %100, label %109, label %101

101:                                              ; preds = %99
  %102 = getelementptr inbounds %"struct.std::pair", %"struct.std::pair"* %91, i64 -1, i32 1
  %103 = load i64, i64* %102, align 8, !tbaa !10
  %104 = icmp slt i64 %26, %103
  br i1 %104, label %105, label %109

105:                                              ; preds = %101, %96
  %106 = phi i64 [ %98, %96 ], [ %103, %101 ]
  %107 = getelementptr inbounds %"struct.std::pair", %"struct.std::pair"* %91, i64 0, i32 0
  store i64 %94, i64* %107, align 8, !tbaa !5
  %108 = getelementptr inbounds %"struct.std::pair", %"struct.std::pair"* %91, i64 0, i32 1
  store i64 %106, i64* %108, align 8, !tbaa !10
  br label %90, !llvm.loop !62

109:                                              ; preds = %101, %99
  %110 = getelementptr inbounds %"struct.std::pair", %"struct.std::pair"* %91, i64 0, i32 0
  store i64 %17, i64* %110, align 8, !tbaa !5
  %111 = getelementptr inbounds %"struct.std::pair", %"struct.std::pair"* %91, i64 0, i32 1
  store i64 %26, i64* %111, align 8, !tbaa !10
  br label %112

112:                                              ; preds = %109, %89
  %113 = add nuw nsw i64 %12, 1
  %114 = icmp eq i64 %113, 16
  %115 = add i64 %11, 1
  br i1 %114, label %116, label %10, !llvm.loop !63

116:                                              ; preds = %112
  %117 = getelementptr inbounds %"struct.std::pair", %"struct.std::pair"* %0, i64 16
  %118 = icmp eq %"struct.std::pair"* %117, %1
  br i1 %118, label %222, label %119

119:                                              ; preds = %116, %144
  %120 = phi %"struct.std::pair"* [ %147, %144 ], [ %117, %116 ]
  %121 = getelementptr inbounds %"struct.std::pair", %"struct.std::pair"* %120, i64 0, i32 0
  %122 = load i64, i64* %121, align 8
  %123 = getelementptr inbounds %"struct.std::pair", %"struct.std::pair"* %120, i64 0, i32 1
  %124 = load i64, i64* %123, align 8
  br label %125

125:                                              ; preds = %140, %119
  %126 = phi %"struct.std::pair"* [ %120, %119 ], [ %127, %140 ]
  %127 = getelementptr inbounds %"struct.std::pair", %"struct.std::pair"* %126, i64 -1
  %128 = getelementptr inbounds %"struct.std::pair", %"struct.std::pair"* %127, i64 0, i32 0
  %129 = load i64, i64* %128, align 8, !tbaa !5
  %130 = icmp slt i64 %122, %129
  br i1 %130, label %131, label %134

131:                                              ; preds = %125
  %132 = getelementptr inbounds %"struct.std::pair", %"struct.std::pair"* %126, i64 -1, i32 1
  %133 = load i64, i64* %132, align 8, !tbaa !14
  br label %140

134:                                              ; preds = %125
  %135 = icmp slt i64 %129, %122
  br i1 %135, label %144, label %136

136:                                              ; preds = %134
  %137 = getelementptr inbounds %"struct.std::pair", %"struct.std::pair"* %126, i64 -1, i32 1
  %138 = load i64, i64* %137, align 8, !tbaa !10
  %139 = icmp slt i64 %124, %138
  br i1 %139, label %140, label %144

140:                                              ; preds = %136, %131
  %141 = phi i64 [ %133, %131 ], [ %138, %136 ]
  %142 = getelementptr inbounds %"struct.std::pair", %"struct.std::pair"* %126, i64 0, i32 0
  store i64 %129, i64* %142, align 8, !tbaa !5
  %143 = getelementptr inbounds %"struct.std::pair", %"struct.std::pair"* %126, i64 0, i32 1
  store i64 %141, i64* %143, align 8, !tbaa !10
  br label %125, !llvm.loop !62

144:                                              ; preds = %136, %134
  %145 = getelementptr inbounds %"struct.std::pair", %"struct.std::pair"* %126, i64 0, i32 0
  store i64 %122, i64* %145, align 8, !tbaa !5
  %146 = getelementptr inbounds %"struct.std::pair", %"struct.std::pair"* %126, i64 0, i32 1
  store i64 %124, i64* %146, align 8, !tbaa !10
  %147 = getelementptr inbounds %"struct.std::pair", %"struct.std::pair"* %120, i64 1
  %148 = icmp eq %"struct.std::pair"* %147, %1
  br i1 %148, label %222, label %119, !llvm.loop !64

149:                                              ; preds = %2
  %150 = icmp eq %"struct.std::pair"* %0, %1
  br i1 %150, label %222, label %151

151:                                              ; preds = %149
  %152 = getelementptr inbounds %"struct.std::pair", %"struct.std::pair"* %0, i64 0, i32 0
  %153 = getelementptr inbounds %"struct.std::pair", %"struct.std::pair"* %0, i64 0, i32 1
  %154 = getelementptr inbounds %"struct.std::pair", %"struct.std::pair"* %0, i64 1
  %155 = icmp eq %"struct.std::pair"* %154, %1
  br i1 %155, label %222, label %156

156:                                              ; preds = %151, %219
  %157 = phi %"struct.std::pair"* [ %220, %219 ], [ %154, %151 ]
  %158 = phi %"struct.std::pair"* [ %157, %219 ], [ %0, %151 ]
  %159 = getelementptr inbounds %"struct.std::pair", %"struct.std::pair"* %157, i64 0, i32 0
  %160 = load i64, i64* %159, align 8, !tbaa !5
  %161 = load i64, i64* %152, align 8, !tbaa !5
  %162 = icmp slt i64 %160, %161
  br i1 %162, label %163, label %166

163:                                              ; preds = %156
  %164 = getelementptr inbounds %"struct.std::pair", %"struct.std::pair"* %158, i64 1, i32 1
  %165 = load i64, i64* %164, align 8
  br label %174

166:                                              ; preds = %156
  %167 = icmp slt i64 %161, %160
  %168 = getelementptr inbounds %"struct.std::pair", %"struct.std::pair"* %158, i64 1, i32 1
  %169 = load i64, i64* %168, align 8
  br i1 %167, label %170, label %171

170:                                              ; preds = %171, %166
  br label %197

171:                                              ; preds = %166
  %172 = load i64, i64* %153, align 8, !tbaa !10
  %173 = icmp slt i64 %169, %172
  br i1 %173, label %174, label %170

174:                                              ; preds = %171, %163
  %175 = phi i64 [ %165, %163 ], [ %169, %171 ]
  %176 = ptrtoint %"struct.std::pair"* %157 to i64
  %177 = sub i64 %176, %4
  %178 = icmp sgt i64 %177, 0
  br i1 %178, label %179, label %196

179:                                              ; preds = %174
  %180 = getelementptr inbounds %"struct.std::pair", %"struct.std::pair"* %158, i64 2
  %181 = lshr exact i64 %177, 4
  br label %182

182:                                              ; preds = %182, %179
  %183 = phi i64 [ %194, %182 ], [ %181, %179 ]
  %184 = phi %"struct.std::pair"* [ %187, %182 ], [ %180, %179 ]
  %185 = phi %"struct.std::pair"* [ %186, %182 ], [ %157, %179 ]
  %186 = getelementptr inbounds %"struct.std::pair", %"struct.std::pair"* %185, i64 -1
  %187 = getelementptr inbounds %"struct.std::pair", %"struct.std::pair"* %184, i64 -1
  %188 = getelementptr inbounds %"struct.std::pair", %"struct.std::pair"* %186, i64 0, i32 0
  %189 = load i64, i64* %188, align 8, !tbaa !14
  %190 = getelementptr inbounds %"struct.std::pair", %"struct.std::pair"* %187, i64 0, i32 0
  store i64 %189, i64* %190, align 8, !tbaa !5
  %191 = getelementptr inbounds %"struct.std::pair", %"struct.std::pair"* %185, i64 -1, i32 1
  %192 = load i64, i64* %191, align 8, !tbaa !14
  %193 = getelementptr inbounds %"struct.std::pair", %"struct.std::pair"* %184, i64 -1, i32 1
  store i64 %192, i64* %193, align 8, !tbaa !10
  %194 = add nsw i64 %183, -1
  %195 = icmp sgt i64 %183, 1
  br i1 %195, label %182, label %196, !llvm.loop !31

196:                                              ; preds = %182, %174
  store i64 %160, i64* %152, align 8, !tbaa !5
  store i64 %175, i64* %153, align 8, !tbaa !10
  br label %219

197:                                              ; preds = %170, %212
  %198 = phi %"struct.std::pair"* [ %199, %212 ], [ %157, %170 ]
  %199 = getelementptr inbounds %"struct.std::pair", %"struct.std::pair"* %198, i64 -1
  %200 = getelementptr inbounds %"struct.std::pair", %"struct.std::pair"* %199, i64 0, i32 0
  %201 = load i64, i64* %200, align 8, !tbaa !5
  %202 = icmp slt i64 %160, %201
  br i1 %202, label %203, label %206

203:                                              ; preds = %197
  %204 = getelementptr inbounds %"struct.std::pair", %"struct.std::pair"* %198, i64 -1, i32 1
  %205 = load i64, i64* %204, align 8, !tbaa !14
  br label %212

206:                                              ; preds = %197
  %207 = icmp slt i64 %201, %160
  br i1 %207, label %216, label %208

208:                                              ; preds = %206
  %209 = getelementptr inbounds %"struct.std::pair", %"struct.std::pair"* %198, i64 -1, i32 1
  %210 = load i64, i64* %209, align 8, !tbaa !10
  %211 = icmp slt i64 %169, %210
  br i1 %211, label %212, label %216

212:                                              ; preds = %208, %203
  %213 = phi i64 [ %205, %203 ], [ %210, %208 ]
  %214 = getelementptr inbounds %"struct.std::pair", %"struct.std::pair"* %198, i64 0, i32 0
  store i64 %201, i64* %214, align 8, !tbaa !5
  %215 = getelementptr inbounds %"struct.std::pair", %"struct.std::pair"* %198, i64 0, i32 1
  store i64 %213, i64* %215, align 8, !tbaa !10
  br label %197, !llvm.loop !62

216:                                              ; preds = %208, %206
  %217 = getelementptr inbounds %"struct.std::pair", %"struct.std::pair"* %198, i64 0, i32 0
  store i64 %160, i64* %217, align 8, !tbaa !5
  %218 = getelementptr inbounds %"struct.std::pair", %"struct.std::pair"* %198, i64 0, i32 1
  store i64 %169, i64* %218, align 8, !tbaa !10
  br label %219

219:                                              ; preds = %216, %196
  %220 = getelementptr inbounds %"struct.std::pair", %"struct.std::pair"* %157, i64 1
  %221 = icmp eq %"struct.std::pair"* %220, %1
  br i1 %221, label %222, label %156, !llvm.loop !63

222:                                              ; preds = %219, %144, %151, %149, %116
  ret void
}

; Function Attrs: sspstrong uwtable
define linkonce_odr dso_local void @_ZSt13__adjust_heapIN9__gnu_cxx17__normal_iteratorIPSt4pairIxxESt6vectorIS3_SaIS3_EEEElS3_NS0_5__ops15_Iter_less_iterEEvT_T0_SC_T1_T2_(%"struct.std::pair"* %0, i64 %1, i64 %2, i64 %3, i64 %4) local_unnamed_addr #6 comdat {
  %6 = add nsw i64 %2, -1
  %7 = sdiv i64 %6, 2
  %8 = icmp sgt i64 %7, %1
  br i1 %8, label %9, label %36

9:                                                ; preds = %5, %28
  %10 = phi i64 [ %30, %28 ], [ %1, %5 ]
  %11 = shl i64 %10, 1
  %12 = add i64 %11, 2
  %13 = or i64 %11, 1
  %14 = getelementptr inbounds %"struct.std::pair", %"struct.std::pair"* %0, i64 %12, i32 0
  %15 = load i64, i64* %14, align 8, !tbaa !5
  %16 = getelementptr inbounds %"struct.std::pair", %"struct.std::pair"* %0, i64 %13, i32 0
  %17 = load i64, i64* %16, align 8, !tbaa !5
  %18 = icmp slt i64 %15, %17
  br i1 %18, label %27, label %19

19:                                               ; preds = %9
  %20 = icmp slt i64 %17, %15
  br i1 %20, label %28, label %21

21:                                               ; preds = %19
  %22 = getelementptr inbounds %"struct.std::pair", %"struct.std::pair"* %0, i64 %12, i32 1
  %23 = load i64, i64* %22, align 8, !tbaa !10
  %24 = getelementptr inbounds %"struct.std::pair", %"struct.std::pair"* %0, i64 %13, i32 1
  %25 = load i64, i64* %24, align 8, !tbaa !10
  %26 = icmp slt i64 %23, %25
  br i1 %26, label %27, label %28

27:                                               ; preds = %9, %21
  br label %28

28:                                               ; preds = %19, %21, %27
  %29 = phi i64 [ %17, %27 ], [ %15, %21 ], [ %15, %19 ]
  %30 = phi i64 [ %13, %27 ], [ %12, %21 ], [ %12, %19 ]
  %31 = getelementptr inbounds %"struct.std::pair", %"struct.std::pair"* %0, i64 %10, i32 0
  store i64 %29, i64* %31, align 8, !tbaa !5
  %32 = getelementptr inbounds %"struct.std::pair", %"struct.std::pair"* %0, i64 %30, i32 1
  %33 = load i64, i64* %32, align 8, !tbaa !14
  %34 = getelementptr inbounds %"struct.std::pair", %"struct.std::pair"* %0, i64 %10, i32 1
  store i64 %33, i64* %34, align 8, !tbaa !10
  %35 = icmp slt i64 %30, %7
  br i1 %35, label %9, label %36, !llvm.loop !65

36:                                               ; preds = %28, %5
  %37 = phi i64 [ %1, %5 ], [ %30, %28 ]
  %38 = and i64 %2, 1
  %39 = icmp eq i64 %38, 0
  br i1 %39, label %40, label %52

40:                                               ; preds = %36
  %41 = add nsw i64 %2, -2
  %42 = sdiv i64 %41, 2
  %43 = icmp eq i64 %37, %42
  br i1 %43, label %44, label %52

44:                                               ; preds = %40
  %45 = shl i64 %37, 1
  %46 = or i64 %45, 1
  %47 = getelementptr inbounds %"struct.std::pair", %"struct.std::pair"* %0, i64 %46, i32 0
  %48 = getelementptr inbounds %"struct.std::pair", %"struct.std::pair"* %0, i64 %37, i32 0
  %49 = bitcast i64* %47 to <2 x i64>*
  %50 = load <2 x i64>, <2 x i64>* %49, align 8, !tbaa !14
  %51 = bitcast i64* %48 to <2 x i64>*
  store <2 x i64> %50, <2 x i64>* %51, align 8, !tbaa !14
  br label %52

52:                                               ; preds = %44, %40, %36
  %53 = phi i64 [ %46, %44 ], [ %37, %40 ], [ %37, %36 ]
  %54 = icmp sgt i64 %53, %1
  br i1 %54, label %55, label %76

55:                                               ; preds = %52, %71
  %56 = phi i64 [ %58, %71 ], [ %53, %52 ]
  %57 = add nsw i64 %56, -1
  %58 = sdiv i64 %57, 2
  %59 = getelementptr inbounds %"struct.std::pair", %"struct.std::pair"* %0, i64 %58, i32 0
  %60 = load i64, i64* %59, align 8, !tbaa !5
  %61 = icmp slt i64 %60, %3
  br i1 %61, label %62, label %65

62:                                               ; preds = %55
  %63 = getelementptr inbounds %"struct.std::pair", %"struct.std::pair"* %0, i64 %58, i32 1
  %64 = load i64, i64* %63, align 8, !tbaa !14
  br label %71

65:                                               ; preds = %55
  %66 = icmp sgt i64 %60, %3
  br i1 %66, label %76, label %67

67:                                               ; preds = %65
  %68 = getelementptr inbounds %"struct.std::pair", %"struct.std::pair"* %0, i64 %58, i32 1
  %69 = load i64, i64* %68, align 8, !tbaa !10
  %70 = icmp slt i64 %69, %4
  br i1 %70, label %71, label %76

71:                                               ; preds = %67, %62
  %72 = phi i64 [ %64, %62 ], [ %69, %67 ]
  %73 = getelementptr inbounds %"struct.std::pair", %"struct.std::pair"* %0, i64 %56, i32 0
  store i64 %60, i64* %73, align 8, !tbaa !5
  %74 = getelementptr inbounds %"struct.std::pair", %"struct.std::pair"* %0, i64 %56, i32 1
  store i64 %72, i64* %74, align 8, !tbaa !10
  %75 = icmp sgt i64 %58, %1
  br i1 %75, label %55, label %76, !llvm.loop !66

76:                                               ; preds = %65, %67, %71, %52
  %77 = phi i64 [ %53, %52 ], [ %56, %67 ], [ %58, %71 ], [ %56, %65 ]
  %78 = getelementptr inbounds %"struct.std::pair", %"struct.std::pair"* %0, i64 %77, i32 0
  store i64 %3, i64* %78, align 8, !tbaa !5
  %79 = getelementptr inbounds %"struct.std::pair", %"struct.std::pair"* %0, i64 %77, i32 1
  store i64 %4, i64* %79, align 8, !tbaa !10
  ret void
}

; Function Attrs: mustprogress nounwind sspstrong uwtable
define linkonce_odr dso_local void @_ZSt22__move_median_to_firstIN9__gnu_cxx17__normal_iteratorIPSt4pairIxxESt6vectorIS3_SaIS3_EEEENS0_5__ops15_Iter_less_iterEEvT_SB_SB_SB_T0_(%"struct.std::pair"* %0, %"struct.std::pair"* %1, %"struct.std::pair"* %2, %"struct.std::pair"* %3) local_unnamed_addr #14 comdat {
  %5 = getelementptr inbounds %"struct.std::pair", %"struct.std::pair"* %1, i64 0, i32 0
  %6 = load i64, i64* %5, align 8, !tbaa !5
  %7 = getelementptr inbounds %"struct.std::pair", %"struct.std::pair"* %2, i64 0, i32 0
  %8 = load i64, i64* %7, align 8, !tbaa !5
  %9 = icmp slt i64 %6, %8
  br i1 %9, label %18, label %10

10:                                               ; preds = %4
  %11 = icmp slt i64 %8, %6
  br i1 %11, label %49, label %12

12:                                               ; preds = %10
  %13 = getelementptr inbounds %"struct.std::pair", %"struct.std::pair"* %1, i64 0, i32 1
  %14 = load i64, i64* %13, align 8, !tbaa !10
  %15 = getelementptr inbounds %"struct.std::pair", %"struct.std::pair"* %2, i64 0, i32 1
  %16 = load i64, i64* %15, align 8, !tbaa !10
  %17 = icmp slt i64 %14, %16
  br i1 %17, label %18, label %49

18:                                               ; preds = %4, %12
  %19 = getelementptr inbounds %"struct.std::pair", %"struct.std::pair"* %3, i64 0, i32 0
  %20 = load i64, i64* %19, align 8, !tbaa !5
  %21 = icmp slt i64 %8, %20
  br i1 %21, label %30, label %22

22:                                               ; preds = %18
  %23 = icmp slt i64 %20, %8
  br i1 %23, label %33, label %24

24:                                               ; preds = %22
  %25 = getelementptr inbounds %"struct.std::pair", %"struct.std::pair"* %2, i64 0, i32 1
  %26 = load i64, i64* %25, align 8, !tbaa !10
  %27 = getelementptr inbounds %"struct.std::pair", %"struct.std::pair"* %3, i64 0, i32 1
  %28 = load i64, i64* %27, align 8, !tbaa !10
  %29 = icmp slt i64 %26, %28
  br i1 %29, label %30, label %33

30:                                               ; preds = %18, %24
  %31 = getelementptr inbounds %"struct.std::pair", %"struct.std::pair"* %0, i64 0, i32 0
  %32 = load i64, i64* %31, align 8, !tbaa !14
  store i64 %8, i64* %31, align 8, !tbaa !14
  store i64 %32, i64* %7, align 8, !tbaa !14
  br label %80

33:                                               ; preds = %22, %24
  %34 = icmp slt i64 %6, %20
  br i1 %34, label %43, label %35

35:                                               ; preds = %33
  %36 = icmp slt i64 %20, %6
  br i1 %36, label %46, label %37

37:                                               ; preds = %35
  %38 = getelementptr inbounds %"struct.std::pair", %"struct.std::pair"* %1, i64 0, i32 1
  %39 = load i64, i64* %38, align 8, !tbaa !10
  %40 = getelementptr inbounds %"struct.std::pair", %"struct.std::pair"* %3, i64 0, i32 1
  %41 = load i64, i64* %40, align 8, !tbaa !10
  %42 = icmp slt i64 %39, %41
  br i1 %42, label %43, label %46

43:                                               ; preds = %33, %37
  %44 = getelementptr inbounds %"struct.std::pair", %"struct.std::pair"* %0, i64 0, i32 0
  %45 = load i64, i64* %44, align 8, !tbaa !14
  store i64 %20, i64* %44, align 8, !tbaa !14
  store i64 %45, i64* %19, align 8, !tbaa !14
  br label %80

46:                                               ; preds = %35, %37
  %47 = getelementptr inbounds %"struct.std::pair", %"struct.std::pair"* %0, i64 0, i32 0
  %48 = load i64, i64* %47, align 8, !tbaa !14
  store i64 %6, i64* %47, align 8, !tbaa !14
  store i64 %48, i64* %5, align 8, !tbaa !14
  br label %80

49:                                               ; preds = %10, %12
  %50 = getelementptr inbounds %"struct.std::pair", %"struct.std::pair"* %3, i64 0, i32 0
  %51 = load i64, i64* %50, align 8, !tbaa !5
  %52 = icmp slt i64 %6, %51
  br i1 %52, label %61, label %53

53:                                               ; preds = %49
  %54 = icmp slt i64 %51, %6
  br i1 %54, label %64, label %55

55:                                               ; preds = %53
  %56 = getelementptr inbounds %"struct.std::pair", %"struct.std::pair"* %1, i64 0, i32 1
  %57 = load i64, i64* %56, align 8, !tbaa !10
  %58 = getelementptr inbounds %"struct.std::pair", %"struct.std::pair"* %3, i64 0, i32 1
  %59 = load i64, i64* %58, align 8, !tbaa !10
  %60 = icmp slt i64 %57, %59
  br i1 %60, label %61, label %64

61:                                               ; preds = %49, %55
  %62 = getelementptr inbounds %"struct.std::pair", %"struct.std::pair"* %0, i64 0, i32 0
  %63 = load i64, i64* %62, align 8, !tbaa !14
  store i64 %6, i64* %62, align 8, !tbaa !14
  store i64 %63, i64* %5, align 8, !tbaa !14
  br label %80

64:                                               ; preds = %53, %55
  %65 = icmp slt i64 %8, %51
  br i1 %65, label %74, label %66

66:                                               ; preds = %64
  %67 = icmp slt i64 %51, %8
  br i1 %67, label %77, label %68

68:                                               ; preds = %66
  %69 = getelementptr inbounds %"struct.std::pair", %"struct.std::pair"* %2, i64 0, i32 1
  %70 = load i64, i64* %69, align 8, !tbaa !10
  %71 = getelementptr inbounds %"struct.std::pair", %"struct.std::pair"* %3, i64 0, i32 1
  %72 = load i64, i64* %71, align 8, !tbaa !10
  %73 = icmp slt i64 %70, %72
  br i1 %73, label %74, label %77

74:                                               ; preds = %64, %68
  %75 = getelementptr inbounds %"struct.std::pair", %"struct.std::pair"* %0, i64 0, i32 0
  %76 = load i64, i64* %75, align 8, !tbaa !14
  store i64 %51, i64* %75, align 8, !tbaa !14
  store i64 %76, i64* %50, align 8, !tbaa !14
  br label %80

77:                                               ; preds = %66, %68
  %78 = getelementptr inbounds %"struct.std::pair", %"struct.std::pair"* %0, i64 0, i32 0
  %79 = load i64, i64* %78, align 8, !tbaa !14
  store i64 %8, i64* %78, align 8, !tbaa !14
  store i64 %79, i64* %7, align 8, !tbaa !14
  br label %80

80:                                               ; preds = %61, %77, %74, %30, %46, %43
  %81 = phi %"struct.std::pair"* [ %1, %61 ], [ %2, %77 ], [ %3, %74 ], [ %2, %30 ], [ %1, %46 ], [ %3, %43 ]
  %82 = getelementptr inbounds %"struct.std::pair", %"struct.std::pair"* %0, i64 0, i32 1
  %83 = getelementptr inbounds %"struct.std::pair", %"struct.std::pair"* %81, i64 0, i32 1
  %84 = load i64, i64* %82, align 8, !tbaa !14
  %85 = load i64, i64* %83, align 8, !tbaa !14
  store i64 %85, i64* %82, align 8, !tbaa !14
  store i64 %84, i64* %83, align 8, !tbaa !14
  ret void
}

declare nonnull align 8 dereferenceable(8) %"class.std::basic_ostream"* @_ZNSo9_M_insertIxEERSoT_(%"class.std::basic_ostream"* nonnull align 8 dereferenceable(8), i64) local_unnamed_addr #0

declare nonnull align 8 dereferenceable(8) %"class.std::basic_ostream"* @_ZSt16__ostream_insertIcSt11char_traitsIcEERSt13basic_ostreamIT_T0_ES6_PKS3_l(%"class.std::basic_ostream"* nonnull align 8 dereferenceable(8), i8*, i64) local_unnamed_addr #0

; Function Attrs: sspstrong uwtable
define internal void @_GLOBAL__sub_I_s484950739.cpp() #6 section ".text.startup" personality i32 (...)* @__gxx_personality_v0 {
  %1 = alloca %"class.std::__cxx11::basic_string", align 8
  tail call void @_ZNSt8ios_base4InitC1Ev(%"class.std::ios_base::Init"* nonnull align 1 dereferenceable(1) @_ZStL8__ioinit)
  %2 = tail call i32 @__cxa_atexit(void (i8*)* bitcast (void (%"class.std::ios_base::Init"*)* @_ZNSt8ios_base4InitD1Ev to void (i8*)*), i8* getelementptr inbounds (%"class.std::ios_base::Init", %"class.std::ios_base::Init"* @_ZStL8__ioinit, i64 0, i32 0), i8* nonnull @__dso_handle) #18
  %3 = bitcast %"class.std::__cxx11::basic_string"* %1 to i8*
  call void @llvm.lifetime.start.p0i8(i64 32, i8* nonnull %3) #18
  %4 = getelementptr inbounds %"class.std::__cxx11::basic_string", %"class.std::__cxx11::basic_string"* %1, i64 0, i32 2
  %5 = bitcast %"class.std::__cxx11::basic_string"* %1 to %union.anon.8**
  store %union.anon.8* %4, %union.anon.8** %5, align 8, !tbaa !67
  %6 = bitcast %union.anon.8* %4 to i8*
  call void @llvm.memcpy.p0i8.p0i8.i64(i8* noundef nonnull align 8 dereferenceable(7) %6, i8* noundef nonnull align 1 dereferenceable(7) getelementptr inbounds ([8 x i8], [8 x i8]* @.str, i64 0, i64 0), i64 7, i1 false) #18
  %7 = getelementptr inbounds %"class.std::__cxx11::basic_string", %"class.std::__cxx11::basic_string"* %1, i64 0, i32 0, i32 0
  %8 = getelementptr inbounds %"class.std::__cxx11::basic_string", %"class.std::__cxx11::basic_string"* %1, i64 0, i32 1
  store i64 7, i64* %8, align 8, !tbaa !69
  %9 = getelementptr inbounds i8, i8* %6, i64 7
  store i8 0, i8* %9, align 1, !tbaa !41
  invoke void @_ZNSt13random_device7_M_initERKNSt7__cxx1112basic_stringIcSt11char_traitsIcESaIcEEE(%"class.std::random_device"* nonnull align 8 dereferenceable(5000) @rd, %"class.std::__cxx11::basic_string"* nonnull align 8 dereferenceable(32) %1)
          to label %10 unwind label %14

10:                                               ; preds = %0
  %11 = load i8*, i8** %7, align 8, !tbaa !72
  %12 = icmp eq i8* %11, %6
  br i1 %12, label %20, label %13

13:                                               ; preds = %10
  call void @_ZdlPv(i8* %11) #18
  br label %20

14:                                               ; preds = %0
  %15 = landingpad { i8*, i32 }
          cleanup
  %16 = load i8*, i8** %7, align 8, !tbaa !72
  %17 = icmp eq i8* %16, %6
  br i1 %17, label %19, label %18

18:                                               ; preds = %14
  call void @_ZdlPv(i8* %16) #18
  br label %19

19:                                               ; preds = %18, %14
  call void @llvm.lifetime.end.p0i8(i64 32, i8* nonnull %3) #18
  resume { i8*, i32 } %15

20:                                               ; preds = %10, %13
  call void @llvm.lifetime.end.p0i8(i64 32, i8* nonnull %3) #18
  %21 = call i32 @__cxa_atexit(void (i8*)* bitcast (void (%"class.std::random_device"*)* @_ZNSt13random_deviceD2Ev to void (i8*)*), i8* bitcast (%"class.std::random_device"* @rd to i8*), i8* nonnull @__dso_handle) #18
  %22 = call i32 @_ZNSt13random_device9_M_getvalEv(%"class.std::random_device"* nonnull align 8 dereferenceable(5000) @rd)
  %23 = zext i32 %22 to i64
  store i64 %23, i64* getelementptr inbounds (%"class.std::mersenne_twister_engine", %"class.std::mersenne_twister_engine"* @mt, i64 0, i32 0, i64 0), align 8, !tbaa !73
  br label %24

24:                                               ; preds = %24, %20
  %25 = phi i64 [ %23, %20 ], [ %34, %24 ]
  %26 = phi i64 [ 1, %20 ], [ %36, %24 ]
  %27 = lshr i64 %25, 30
  %28 = xor i64 %27, %25
  %29 = mul nuw nsw i64 %28, 1812433253
  %30 = trunc i64 %26 to i16
  %31 = urem i16 %30, 624
  %32 = zext i16 %31 to i64
  %33 = add nuw i64 %29, %32
  %34 = and i64 %33, 4294967295
  %35 = getelementptr inbounds %"class.std::mersenne_twister_engine", %"class.std::mersenne_twister_engine"* @mt, i64 0, i32 0, i64 %26
  store i64 %34, i64* %35, align 8, !tbaa !73
  %36 = add nuw nsw i64 %26, 1
  %37 = icmp eq i64 %36, 624
  br i1 %37, label %38, label %24, !llvm.loop !74

38:                                               ; preds = %24
  store i64 624, i64* getelementptr inbounds (%"class.std::mersenne_twister_engine", %"class.std::mersenne_twister_engine"* @mt, i64 0, i32 1), align 8, !tbaa !75
  store double 0x400921FB54442D18, double* @_ZL2pi, align 8, !tbaa !77
  %39 = call {}* @llvm.invariant.start.p0i8(i64 8, i8* bitcast (double* @_ZL2pi to i8*)) #18
  call void @llvm.memset.p0i8.i64(i8* noundef nonnull align 8 dereferenceable(24) bitcast (%"class.std::vector"* @v1 to i8*), i8 0, i64 24, i1 false) #18
  %40 = call i32 @__cxa_atexit(void (i8*)* bitcast (void (%"class.std::vector"*)* @_ZNSt6vectorISt4pairIxxESaIS1_EED2Ev to void (i8*)*), i8* bitcast (%"class.std::vector"* @v1 to i8*), i8* nonnull @__dso_handle) #18
  call void @llvm.memset.p0i8.i64(i8* noundef nonnull align 8 dereferenceable(24) bitcast (%"class.std::vector"* @v0 to i8*), i8 0, i64 24, i1 false) #18
  %41 = call i32 @__cxa_atexit(void (i8*)* bitcast (void (%"class.std::vector"*)* @_ZNSt6vectorISt4pairIxxESaIS1_EED2Ev to void (i8*)*), i8* bitcast (%"class.std::vector"* @v0 to i8*), i8* nonnull @__dso_handle) #18
  ret void
}

; Function Attrs: argmemonly nofree nounwind willreturn writeonly
declare void @llvm.memset.p0i8.i64(i8* nocapture writeonly, i8, i64, i1 immarg) #15

; Function Attrs: nofree nosync nounwind readnone speculatable willreturn
declare i64 @llvm.smax.i64(i64, i64) #16

attributes #0 = { "frame-pointer"="none" "no-trapping-math"="true" "stack-protector-buffer-size"="8" "target-cpu"="x86-64" "target-features"="+cx8,+fxsr,+mmx,+sse,+sse2,+x87" "tune-cpu"="generic" }
attributes #1 = { nounwind "frame-pointer"="none" "no-trapping-math"="true" "stack-protector-buffer-size"="8" "target-cpu"="x86-64" "target-features"="+cx8,+fxsr,+mmx,+sse,+sse2,+x87" "tune-cpu"="generic" }
attributes #2 = { nofree nounwind }
attributes #3 = { nounwind sspstrong uwtable "frame-pointer"="none" "min-legal-vector-width"="0" "no-trapping-math"="true" "stack-protector-buffer-size"="8" "target-cpu"="x86-64" "target-features"="+cx8,+fxsr,+mmx,+sse,+sse2,+x87" "tune-cpu"="generic" }
attributes #4 = { argmemonly mustprogress nofree nosync nounwind willreturn }
attributes #5 = { mustprogress nofree norecurse nosync nounwind readonly sspstrong uwtable willreturn "frame-pointer"="none" "min-legal-vector-width"="0" "no-trapping-math"="true" "stack-protector-buffer-size"="8" "target-cpu"="x86-64" "target-features"="+cx8,+fxsr,+mmx,+sse,+sse2,+x87" "tune-cpu"="generic" }
attributes #6 = { sspstrong uwtable "frame-pointer"="none" "min-legal-vector-width"="0" "no-trapping-math"="true" "stack-protector-buffer-size"="8" "target-cpu"="x86-64" "target-features"="+cx8,+fxsr,+mmx,+sse,+sse2,+x87" "tune-cpu"="generic" }
attributes #7 = { mustprogress norecurse sspstrong uwtable "frame-pointer"="none" "min-legal-vector-width"="0" "no-trapping-math"="true" "stack-protector-buffer-size"="8" "target-cpu"="x86-64" "target-features"="+cx8,+fxsr,+mmx,+sse,+sse2,+x87" "tune-cpu"="generic" }
attributes #8 = { noinline noreturn nounwind }
attributes #9 = { argmemonly mustprogress nofree nounwind willreturn }
attributes #10 = { nobuiltin nounwind "frame-pointer"="none" "no-trapping-math"="true" "stack-protector-buffer-size"="8" "target-cpu"="x86-64" "target-features"="+cx8,+fxsr,+mmx,+sse,+sse2,+x87" "tune-cpu"="generic" }
attributes #11 = { noreturn "frame-pointer"="none" "no-trapping-math"="true" "stack-protector-buffer-size"="8" "target-cpu"="x86-64" "target-features"="+cx8,+fxsr,+mmx,+sse,+sse2,+x87" "tune-cpu"="generic" }
attributes #12 = { nobuiltin allocsize(0) "frame-pointer"="none" "no-trapping-math"="true" "stack-protector-buffer-size"="8" "target-cpu"="x86-64" "target-features"="+cx8,+fxsr,+mmx,+sse,+sse2,+x87" "tune-cpu"="generic" }
attributes #13 = { mustprogress nofree nosync nounwind readnone speculatable willreturn }
attributes #14 = { mustprogress nounwind sspstrong uwtable "frame-pointer"="none" "min-legal-vector-width"="0" "no-trapping-math"="true" "stack-protector-buffer-size"="8" "target-cpu"="x86-64" "target-features"="+cx8,+fxsr,+mmx,+sse,+sse2,+x87" "tune-cpu"="generic" }
attributes #15 = { argmemonly nofree nounwind willreturn writeonly }
attributes #16 = { nofree nosync nounwind readnone speculatable willreturn }
attributes #17 = { noreturn nounwind }
attributes #18 = { nounwind }
attributes #19 = { noreturn }
attributes #20 = { allocsize(0) }

!llvm.module.flags = !{!0, !1, !2, !3}
!llvm.ident = !{!4}

!0 = !{i32 1, !"wchar_size", i32 4}
!1 = !{i32 7, !"PIC Level", i32 2}
!2 = !{i32 7, !"PIE Level", i32 2}
!3 = !{i32 7, !"uwtable", i32 1}
!4 = !{!"clang version 13.0.0"}
!5 = !{!6, !7, i64 0}
!6 = !{!"_ZTSSt4pairIxxE", !7, i64 0, !7, i64 8}
!7 = !{!"long long", !8, i64 0}
!8 = !{!"omnipotent char", !9, i64 0}
!9 = !{!"Simple C++ TBAA"}
!10 = !{!6, !7, i64 8}
!11 = !{!12, !13, i64 0}
!12 = !{!"_ZTSNSt12_Vector_baseISt4pairIxxESaIS1_EE17_Vector_impl_dataE", !13, i64 0, !13, i64 8, !13, i64 16}
!13 = !{!"any pointer", !8, i64 0}
!14 = !{!7, !7, i64 0}
!15 = !{!12, !13, i64 8}
!16 = !{!12, !13, i64 16}
!17 = !{!18, !20}
!18 = distinct !{!18, !19, !"_ZSt19__relocate_object_aISt4pairIxxES1_SaIS1_EEvPT_PT0_RT1_: argument 0"}
!19 = distinct !{!19, !"_ZSt19__relocate_object_aISt4pairIxxES1_SaIS1_EEvPT_PT0_RT1_"}
!20 = distinct !{!20, !19, !"_ZSt19__relocate_object_aISt4pairIxxES1_SaIS1_EEvPT_PT0_RT1_: argument 1"}
!21 = distinct !{!21, !22}
!22 = !{!"llvm.loop.mustprogress"}
!23 = !{!24, !26}
!24 = distinct !{!24, !25, !"_ZSt19__relocate_object_aISt4pairIxxES1_SaIS1_EEvPT_PT0_RT1_: argument 0"}
!25 = distinct !{!25, !"_ZSt19__relocate_object_aISt4pairIxxES1_SaIS1_EEvPT_PT0_RT1_"}
!26 = distinct !{!26, !25, !"_ZSt19__relocate_object_aISt4pairIxxES1_SaIS1_EEvPT_PT0_RT1_: argument 1"}
!27 = distinct !{!27, !22}
!28 = !{i64 0, i64 65}
!29 = distinct !{!29, !30}
!30 = !{!"llvm.loop.unroll.disable"}
!31 = distinct !{!31, !22}
!32 = distinct !{!32, !22}
!33 = distinct !{!33, !22}
!34 = distinct !{!34, !22}
!35 = !{!13, !13, i64 0}
!36 = distinct !{!36, !22}
!37 = distinct !{!37, !22}
!38 = distinct !{!38, !22}
!39 = distinct !{!39, !22}
!40 = distinct !{!40, !22}
!41 = !{!8, !8, i64 0}
!42 = !{!43, !43, i64 0}
!43 = !{!"vtable pointer", !9, i64 0}
!44 = !{!45, !13, i64 216}
!45 = !{!"_ZTSSt9basic_iosIcSt11char_traitsIcEE", !13, i64 216, !8, i64 224, !46, i64 225, !13, i64 232, !13, i64 240, !13, i64 248, !13, i64 256}
!46 = !{!"bool", !8, i64 0}
!47 = distinct !{!47, !22}
!48 = distinct !{!48, !22}
!49 = distinct !{!49, !22}
!50 = distinct !{!50, !22}
!51 = distinct !{!51, !22}
!52 = distinct !{!52, !22}
!53 = distinct !{!53, !22}
!54 = distinct !{!54, !22}
!55 = distinct !{!55, !22}
!56 = distinct !{!56, !22}
!57 = distinct !{!57, !22}
!58 = distinct !{!58, !22}
!59 = distinct !{!59, !22}
!60 = distinct !{!60, !22}
!61 = distinct !{!61, !30}
!62 = distinct !{!62, !22}
!63 = distinct !{!63, !22}
!64 = distinct !{!64, !22}
!65 = distinct !{!65, !22}
!66 = distinct !{!66, !22}
!67 = !{!68, !13, i64 0}
!68 = !{!"_ZTSNSt7__cxx1112basic_stringIcSt11char_traitsIcESaIcEE12_Alloc_hiderE", !13, i64 0}
!69 = !{!70, !71, i64 8}
!70 = !{!"_ZTSNSt7__cxx1112basic_stringIcSt11char_traitsIcESaIcEEE", !68, i64 0, !71, i64 8, !8, i64 16}
!71 = !{!"long", !8, i64 0}
!72 = !{!70, !13, i64 0}
!73 = !{!71, !71, i64 0}
!74 = distinct !{!74, !22}
!75 = !{!76, !71, i64 4992}
!76 = !{!"_ZTSSt23mersenne_twister_engineImLm32ELm624ELm397ELm31ELm2567483615ELm11ELm4294967295ELm7ELm2636928640ELm15ELm4022730752ELm18ELm1812433253EE", !8, i64 0, !71, i64 4992}
!77 = !{!78, !78, i64 0}
!78 = !{!"double", !8, i64 0}
