; ModuleID = 'Project_CodeNet_C++1400/p02750/s794686210.cpp'
source_filename = "Project_CodeNet_C++1400/p02750/s794686210.cpp"
target datalayout = "e-m:e-p270:32:32-p271:32:32-p272:64:64-i64:64-f80:128-n8:16:32:64-S128"
target triple = "x86_64-pc-linux-gnu"

%"class.std::ios_base::Init" = type { i8 }
%"struct.std::pair" = type { i64, i64 }
%"class.std::vector" = type { %"struct.std::_Vector_base" }
%"struct.std::_Vector_base" = type { %"struct.std::_Vector_base<long long, std::allocator<long long>>::_Vector_impl" }
%"struct.std::_Vector_base<long long, std::allocator<long long>>::_Vector_impl" = type { %"struct.std::_Vector_base<long long, std::allocator<long long>>::_Vector_impl_data" }
%"struct.std::_Vector_base<long long, std::allocator<long long>>::_Vector_impl_data" = type { i64*, i64*, i64* }
%"class.std::basic_istream" = type { i32 (...)**, i64, %"class.std::basic_ios" }
%"class.std::basic_ios" = type { %"class.std::ios_base", %"class.std::basic_ostream"*, i8, i8, %"class.std::basic_streambuf"*, %"class.std::ctype"*, %"class.std::num_put"*, %"class.std::num_get"* }
%"class.std::ios_base" = type { i32 (...)**, i64, i64, i32, i32, i32, %"struct.std::ios_base::_Callback_list"*, %"struct.std::ios_base::_Words", [8 x %"struct.std::ios_base::_Words"], i32, %"struct.std::ios_base::_Words"*, %"class.std::locale" }
%"struct.std::ios_base::_Callback_list" = type { %"struct.std::ios_base::_Callback_list"*, void (i32, %"class.std::ios_base"*, i32)*, i32, i32 }
%"struct.std::ios_base::_Words" = type { i8*, i64 }
%"class.std::locale" = type { %"class.std::locale::_Impl"* }
%"class.std::locale::_Impl" = type { i32, %"class.std::locale::facet"**, i64, %"class.std::locale::facet"**, i8** }
%"class.std::locale::facet" = type <{ i32 (...)**, i32, [4 x i8] }>
%"class.std::basic_ostream" = type { i32 (...)**, %"class.std::basic_ios" }
%"class.std::basic_streambuf" = type { i32 (...)**, i8*, i8*, i8*, i8*, i8*, i8*, %"class.std::locale" }
%"class.std::ctype" = type <{ %"class.std::locale::facet.base", [4 x i8], %struct.__locale_struct*, i8, [7 x i8], i32*, i32*, i16*, i8, [256 x i8], [256 x i8], i8, [6 x i8] }>
%"class.std::locale::facet.base" = type <{ i32 (...)**, i32 }>
%struct.__locale_struct = type { [13 x %struct.__locale_data*], i16*, i32*, i32*, [13 x i8*] }
%struct.__locale_data = type opaque
%"class.std::num_put" = type { %"class.std::locale::facet.base", [4 x i8] }
%"class.std::num_get" = type { %"class.std::locale::facet.base", [4 x i8] }
%"struct.__gnu_cxx::__ops::_Iter_less_iter" = type { i8 }

$_ZNSt6vectorIxSaIxEED2Ev = comdat any

$_ZSt16__introsort_loopIN9__gnu_cxx17__normal_iteratorIPxSt6vectorIxSaIxEEEElNS0_5__ops15_Iter_less_iterEEvT_S9_T0_T1_ = comdat any

$_ZSt22__final_insertion_sortIN9__gnu_cxx17__normal_iteratorIPxSt6vectorIxSaIxEEEENS0_5__ops15_Iter_less_iterEEvT_S9_T0_ = comdat any

$_ZSt11__make_heapIN9__gnu_cxx17__normal_iteratorIPxSt6vectorIxSaIxEEEENS0_5__ops15_Iter_less_iterEEvT_S9_RT0_ = comdat any

$_ZSt16__introsort_loopIPSt4pairIxxElN9__gnu_cxx5__ops15_Iter_comp_iterIPFbS1_S1_EEEEvT_S9_T0_T1_ = comdat any

$_ZSt13__adjust_heapIPSt4pairIxxElS1_N9__gnu_cxx5__ops15_Iter_comp_iterIPFbS1_S1_EEEEvT_T0_SA_T1_T2_ = comdat any

$_ZSt22__move_median_to_firstIPSt4pairIxxEN9__gnu_cxx5__ops15_Iter_comp_iterIPFbS1_S1_EEEEvT_S9_S9_S9_T0_ = comdat any

@_ZStL8__ioinit = internal global %"class.std::ios_base::Init" zeroinitializer, align 1
@__dso_handle = external hidden global i8
@N = dso_local global i32 0, align 4
@a = dso_local global [200000 x i64] zeroinitializer, align 16
@b = dso_local global [200000 x i64] zeroinitializer, align 16
@T = dso_local global i64 0, align 8
@dp = dso_local local_unnamed_addr global [200005 x [60 x i64]] zeroinitializer, align 16
@p = dso_local global [200005 x %"struct.std::pair"] zeroinitializer, align 16
@z = dso_local global %"class.std::vector" zeroinitializer, align 8
@sum = dso_local global %"class.std::vector" zeroinitializer, align 8
@_ZSt3cin = external global %"class.std::basic_istream", align 8
@_ZSt4cout = external global %"class.std::basic_ostream", align 8
@.str = private unnamed_addr constant [26 x i8] c"vector::_M_realloc_insert\00", align 1
@llvm.global_ctors = appending global [1 x { i32, void ()*, i8* }] [{ i32, void ()*, i8* } { i32 65535, void ()* @_GLOBAL__sub_I_s794686210.cpp, i8* null }]

declare void @_ZNSt8ios_base4InitC1Ev(%"class.std::ios_base::Init"* nonnull align 1 dereferenceable(1)) unnamed_addr #0

; Function Attrs: nounwind
declare void @_ZNSt8ios_base4InitD1Ev(%"class.std::ios_base::Init"* nonnull align 1 dereferenceable(1)) unnamed_addr #1

; Function Attrs: nofree nounwind
declare i32 @__cxa_atexit(void (i8*)*, i8*, i8*) local_unnamed_addr #2

; Function Attrs: mustprogress nofree norecurse nosync nounwind readnone sspstrong uwtable willreturn
define dso_local zeroext i1 @_Z4compSt4pairIxxES0_(i64 %0, i64 %1, i64 %2, i64 %3) #3 {
  %5 = icmp eq i64 %0, 0
  %6 = icmp eq i64 %2, 0
  %7 = select i1 %5, i1 %6, i1 false
  br i1 %7, label %12, label %8

8:                                                ; preds = %4
  %9 = mul nsw i64 %2, %1
  %10 = mul nsw i64 %3, %0
  %11 = icmp slt i64 %9, %10
  br label %12

12:                                               ; preds = %4, %8
  %13 = phi i1 [ %11, %8 ], [ false, %4 ]
  ret i1 %13
}

; Function Attrs: nounwind sspstrong uwtable
define linkonce_odr dso_local void @_ZNSt6vectorIxSaIxEED2Ev(%"class.std::vector"* nonnull align 8 dereferenceable(24) %0) unnamed_addr #4 comdat align 2 personality i8* bitcast (i32 (...)* @__gxx_personality_v0 to i8*) {
  %2 = getelementptr inbounds %"class.std::vector", %"class.std::vector"* %0, i64 0, i32 0, i32 0, i32 0, i32 0
  %3 = load i64*, i64** %2, align 8, !tbaa !5
  %4 = icmp eq i64* %3, null
  br i1 %4, label %7, label %5

5:                                                ; preds = %1
  %6 = bitcast i64* %3 to i8*
  tail call void @_ZdlPv(i8* nonnull %6) #15
  br label %7

7:                                                ; preds = %1, %5
  ret void
}

; Function Attrs: norecurse sspstrong uwtable
define dso_local i32 @main() local_unnamed_addr #5 personality i32 (...)* @__gxx_personality_v0 {
  %1 = tail call zeroext i1 @_ZNSt8ios_base15sync_with_stdioEb(i1 zeroext false)
  %2 = load i8*, i8** bitcast (%"class.std::basic_istream"* @_ZSt3cin to i8**), align 8, !tbaa !10
  %3 = getelementptr i8, i8* %2, i64 -24
  %4 = bitcast i8* %3 to i64*
  %5 = load i64, i64* %4, align 8
  %6 = add nsw i64 %5, 216
  %7 = getelementptr inbounds i8, i8* bitcast (%"class.std::basic_istream"* @_ZSt3cin to i8*), i64 %6
  %8 = bitcast i8* %7 to %"class.std::basic_ostream"**
  store %"class.std::basic_ostream"* null, %"class.std::basic_ostream"** %8, align 8, !tbaa !12
  %9 = load i8*, i8** bitcast (%"class.std::basic_ostream"* @_ZSt4cout to i8**), align 8, !tbaa !10
  %10 = getelementptr i8, i8* %9, i64 -24
  %11 = bitcast i8* %10 to i64*
  %12 = load i64, i64* %11, align 8
  %13 = add nsw i64 %12, 8
  %14 = getelementptr inbounds i8, i8* bitcast (%"class.std::basic_ostream"* @_ZSt4cout to i8*), i64 %13
  %15 = bitcast i8* %14 to i64*
  store i64 10, i64* %15, align 8, !tbaa !15
  %16 = load i64, i64* %11, align 8
  %17 = add nsw i64 %16, 24
  %18 = getelementptr inbounds i8, i8* bitcast (%"class.std::basic_ostream"* @_ZSt4cout to i8*), i64 %17
  %19 = bitcast i8* %18 to i32*
  %20 = load i32, i32* %19, align 8, !tbaa !23
  %21 = and i32 %20, -261
  %22 = or i32 %21, 4
  store i32 %22, i32* %19, align 8, !tbaa !24
  %23 = tail call nonnull align 8 dereferenceable(16) %"class.std::basic_istream"* @_ZNSirsERi(%"class.std::basic_istream"* nonnull align 8 dereferenceable(16) @_ZSt3cin, i32* nonnull align 4 dereferenceable(4) @N)
  %24 = tail call nonnull align 8 dereferenceable(16) %"class.std::basic_istream"* @_ZNSi10_M_extractIxEERSiRT_(%"class.std::basic_istream"* nonnull align 8 dereferenceable(16) %23, i64* nonnull align 8 dereferenceable(8) @T)
  %25 = load i64, i64* @T, align 8, !tbaa !25
  %26 = add nsw i64 %25, 1
  store i64 %26, i64* @T, align 8, !tbaa !25
  %27 = load i32, i32* @N, align 4, !tbaa !27
  %28 = icmp sgt i32 %27, 0
  br i1 %28, label %88, label %29

29:                                               ; preds = %143, %0
  %30 = load i64*, i64** getelementptr inbounds (%"class.std::vector", %"class.std::vector"* @z, i64 0, i32 0, i32 0, i32 0, i32 0), align 8, !tbaa !28
  %31 = load i64*, i64** getelementptr inbounds (%"class.std::vector", %"class.std::vector"* @z, i64 0, i32 0, i32 0, i32 0, i32 1), align 8, !tbaa !28
  %32 = icmp eq i64* %30, %31
  br i1 %32, label %41, label %33

33:                                               ; preds = %29
  %34 = ptrtoint i64* %31 to i64
  %35 = ptrtoint i64* %30 to i64
  %36 = sub i64 %34, %35
  %37 = ashr exact i64 %36, 3
  %38 = tail call i64 @llvm.ctlz.i64(i64 %37, i1 true) #15, !range !29
  %39 = shl nuw nsw i64 %38, 1
  %40 = xor i64 %39, 126
  tail call void @_ZSt16__introsort_loopIN9__gnu_cxx17__normal_iteratorIPxSt6vectorIxSaIxEEEElNS0_5__ops15_Iter_less_iterEEvT_S9_T0_T1_(i64* %30, i64* %31, i64 %40)
  tail call void @_ZSt22__final_insertion_sortIN9__gnu_cxx17__normal_iteratorIPxSt6vectorIxSaIxEEEENS0_5__ops15_Iter_less_iterEEvT_S9_T0_(i64* %30, i64* %31)
  br label %41

41:                                               ; preds = %29, %33
  %42 = load i64*, i64** getelementptr inbounds (%"class.std::vector", %"class.std::vector"* @sum, i64 0, i32 0, i32 0, i32 0, i32 1), align 8, !tbaa !30
  %43 = load i64*, i64** getelementptr inbounds (%"class.std::vector", %"class.std::vector"* @sum, i64 0, i32 0, i32 0, i32 0, i32 2), align 8, !tbaa !31
  %44 = icmp eq i64* %42, %43
  br i1 %44, label %47, label %45

45:                                               ; preds = %41
  store i64 0, i64* %42, align 8, !tbaa !25
  %46 = getelementptr inbounds i64, i64* %42, i64 1
  store i64* %46, i64** getelementptr inbounds (%"class.std::vector", %"class.std::vector"* @sum, i64 0, i32 0, i32 0, i32 0, i32 1), align 8, !tbaa !30
  br label %82

47:                                               ; preds = %41
  %48 = load i64*, i64** getelementptr inbounds (%"class.std::vector", %"class.std::vector"* @sum, i64 0, i32 0, i32 0, i32 0, i32 0), align 8, !tbaa !5
  %49 = ptrtoint i64* %42 to i64
  %50 = ptrtoint i64* %48 to i64
  %51 = sub i64 %49, %50
  %52 = ashr exact i64 %51, 3
  %53 = icmp eq i64 %51, 9223372036854775800
  br i1 %53, label %54, label %55

54:                                               ; preds = %47
  tail call void @_ZSt20__throw_length_errorPKc(i8* getelementptr inbounds ([26 x i8], [26 x i8]* @.str, i64 0, i64 0)) #16
  unreachable

55:                                               ; preds = %47
  %56 = icmp eq i64 %51, 0
  %57 = select i1 %56, i64 1, i64 %52
  %58 = add nsw i64 %57, %52
  %59 = icmp ult i64 %58, %52
  %60 = icmp ugt i64 %58, 1152921504606846975
  %61 = or i1 %59, %60
  %62 = select i1 %61, i64 1152921504606846975, i64 %58
  %63 = icmp eq i64 %62, 0
  br i1 %63, label %68, label %64

64:                                               ; preds = %55
  %65 = shl nuw nsw i64 %62, 3
  %66 = tail call noalias nonnull i8* @_Znwm(i64 %65) #17
  %67 = bitcast i8* %66 to i64*
  br label %68

68:                                               ; preds = %64, %55
  %69 = phi i64* [ %67, %64 ], [ null, %55 ]
  %70 = getelementptr inbounds i64, i64* %69, i64 %52
  store i64 0, i64* %70, align 8, !tbaa !25
  %71 = icmp sgt i64 %51, 0
  br i1 %71, label %72, label %75

72:                                               ; preds = %68
  %73 = bitcast i64* %69 to i8*
  %74 = bitcast i64* %48 to i8*
  tail call void @llvm.memmove.p0i8.p0i8.i64(i8* align 8 %73, i8* align 8 %74, i64 %51, i1 false) #15
  br label %75

75:                                               ; preds = %68, %72
  %76 = getelementptr inbounds i64, i64* %70, i64 1
  %77 = icmp eq i64* %48, null
  br i1 %77, label %80, label %78

78:                                               ; preds = %75
  %79 = bitcast i64* %48 to i8*
  tail call void @_ZdlPv(i8* nonnull %79) #15
  br label %80

80:                                               ; preds = %75, %78
  store i64* %69, i64** getelementptr inbounds (%"class.std::vector", %"class.std::vector"* @sum, i64 0, i32 0, i32 0, i32 0, i32 0), align 8, !tbaa !5
  store i64* %76, i64** getelementptr inbounds (%"class.std::vector", %"class.std::vector"* @sum, i64 0, i32 0, i32 0, i32 0, i32 1), align 8, !tbaa !30
  %81 = getelementptr inbounds i64, i64* %69, i64 %62
  store i64* %81, i64** getelementptr inbounds (%"class.std::vector", %"class.std::vector"* @sum, i64 0, i32 0, i32 0, i32 0, i32 2), align 8, !tbaa !31
  br label %82

82:                                               ; preds = %45, %80
  %83 = phi i64* [ %43, %45 ], [ %81, %80 ]
  %84 = phi i64* [ %46, %45 ], [ %76, %80 ]
  %85 = load i64*, i64** getelementptr inbounds (%"class.std::vector", %"class.std::vector"* @z, i64 0, i32 0, i32 0, i32 0, i32 1), align 8, !tbaa !30
  %86 = load i64*, i64** getelementptr inbounds (%"class.std::vector", %"class.std::vector"* @z, i64 0, i32 0, i32 0, i32 0, i32 0), align 8, !tbaa !5
  %87 = icmp eq i64* %85, %86
  br i1 %87, label %148, label %464

88:                                               ; preds = %0, %143
  %89 = phi i64 [ %144, %143 ], [ 0, %0 ]
  %90 = getelementptr inbounds [200000 x i64], [200000 x i64]* @a, i64 0, i64 %89
  %91 = tail call nonnull align 8 dereferenceable(16) %"class.std::basic_istream"* @_ZNSi10_M_extractIxEERSiRT_(%"class.std::basic_istream"* nonnull align 8 dereferenceable(16) @_ZSt3cin, i64* nonnull align 8 dereferenceable(8) %90)
  %92 = getelementptr inbounds [200000 x i64], [200000 x i64]* @b, i64 0, i64 %89
  %93 = tail call nonnull align 8 dereferenceable(16) %"class.std::basic_istream"* @_ZNSi10_M_extractIxEERSiRT_(%"class.std::basic_istream"* nonnull align 8 dereferenceable(16) %91, i64* nonnull align 8 dereferenceable(8) %92)
  %94 = load i64, i64* %92, align 8, !tbaa !25
  %95 = add nsw i64 %94, 1
  store i64 %95, i64* %92, align 8, !tbaa !25
  %96 = load i64, i64* %90, align 8, !tbaa !25
  %97 = getelementptr inbounds [200005 x %"struct.std::pair"], [200005 x %"struct.std::pair"]* @p, i64 0, i64 %89, i32 0
  store i64 %96, i64* %97, align 16, !tbaa !32
  %98 = getelementptr inbounds [200005 x %"struct.std::pair"], [200005 x %"struct.std::pair"]* @p, i64 0, i64 %89, i32 1
  store i64 %95, i64* %98, align 8, !tbaa !34
  %99 = icmp eq i64 %96, 0
  br i1 %99, label %100, label %143

100:                                              ; preds = %88
  %101 = load i64*, i64** getelementptr inbounds (%"class.std::vector", %"class.std::vector"* @z, i64 0, i32 0, i32 0, i32 0, i32 1), align 8, !tbaa !30
  %102 = load i64*, i64** getelementptr inbounds (%"class.std::vector", %"class.std::vector"* @z, i64 0, i32 0, i32 0, i32 0, i32 2), align 8, !tbaa !31
  %103 = icmp eq i64* %101, %102
  br i1 %103, label %106, label %104

104:                                              ; preds = %100
  store i64 %95, i64* %101, align 8, !tbaa !25
  %105 = getelementptr inbounds i64, i64* %101, i64 1
  store i64* %105, i64** getelementptr inbounds (%"class.std::vector", %"class.std::vector"* @z, i64 0, i32 0, i32 0, i32 0, i32 1), align 8, !tbaa !30
  br label %143

106:                                              ; preds = %100
  %107 = load i64*, i64** getelementptr inbounds (%"class.std::vector", %"class.std::vector"* @z, i64 0, i32 0, i32 0, i32 0, i32 0), align 8, !tbaa !5
  %108 = ptrtoint i64* %101 to i64
  %109 = ptrtoint i64* %107 to i64
  %110 = sub i64 %108, %109
  %111 = ashr exact i64 %110, 3
  %112 = icmp eq i64 %110, 9223372036854775800
  br i1 %112, label %113, label %114

113:                                              ; preds = %106
  tail call void @_ZSt20__throw_length_errorPKc(i8* getelementptr inbounds ([26 x i8], [26 x i8]* @.str, i64 0, i64 0)) #16
  unreachable

114:                                              ; preds = %106
  %115 = icmp eq i64 %110, 0
  %116 = select i1 %115, i64 1, i64 %111
  %117 = add nsw i64 %116, %111
  %118 = icmp ult i64 %117, %111
  %119 = icmp ugt i64 %117, 1152921504606846975
  %120 = or i1 %118, %119
  %121 = select i1 %120, i64 1152921504606846975, i64 %117
  %122 = icmp eq i64 %121, 0
  br i1 %122, label %128, label %123

123:                                              ; preds = %114
  %124 = shl nuw nsw i64 %121, 3
  %125 = tail call noalias nonnull i8* @_Znwm(i64 %124) #17
  %126 = bitcast i8* %125 to i64*
  %127 = load i64, i64* %92, align 8, !tbaa !25
  br label %128

128:                                              ; preds = %123, %114
  %129 = phi i64 [ %127, %123 ], [ %95, %114 ]
  %130 = phi i64* [ %126, %123 ], [ null, %114 ]
  %131 = getelementptr inbounds i64, i64* %130, i64 %111
  store i64 %129, i64* %131, align 8, !tbaa !25
  %132 = icmp sgt i64 %110, 0
  br i1 %132, label %133, label %136

133:                                              ; preds = %128
  %134 = bitcast i64* %130 to i8*
  %135 = bitcast i64* %107 to i8*
  tail call void @llvm.memmove.p0i8.p0i8.i64(i8* align 8 %134, i8* align 8 %135, i64 %110, i1 false) #15
  br label %136

136:                                              ; preds = %133, %128
  %137 = getelementptr inbounds i64, i64* %131, i64 1
  %138 = icmp eq i64* %107, null
  br i1 %138, label %141, label %139

139:                                              ; preds = %136
  %140 = bitcast i64* %107 to i8*
  tail call void @_ZdlPv(i8* nonnull %140) #15
  br label %141

141:                                              ; preds = %139, %136
  store i64* %130, i64** getelementptr inbounds (%"class.std::vector", %"class.std::vector"* @z, i64 0, i32 0, i32 0, i32 0, i32 0), align 8, !tbaa !5
  store i64* %137, i64** getelementptr inbounds (%"class.std::vector", %"class.std::vector"* @z, i64 0, i32 0, i32 0, i32 0, i32 1), align 8, !tbaa !30
  %142 = getelementptr inbounds i64, i64* %130, i64 %121
  store i64* %142, i64** getelementptr inbounds (%"class.std::vector", %"class.std::vector"* @z, i64 0, i32 0, i32 0, i32 0, i32 2), align 8, !tbaa !31
  br label %143

143:                                              ; preds = %141, %104, %88
  %144 = add nuw nsw i64 %89, 1
  %145 = load i32, i32* @N, align 4, !tbaa !27
  %146 = sext i32 %145 to i64
  %147 = icmp slt i64 %144, %146
  br i1 %147, label %88, label %29, !llvm.loop !35

148:                                              ; preds = %511, %82
  %149 = load i32, i32* @N, align 4, !tbaa !27
  %150 = sext i32 %149 to i64
  %151 = getelementptr inbounds [200005 x %"struct.std::pair"], [200005 x %"struct.std::pair"]* @p, i64 0, i64 %150
  %152 = icmp eq i32 %149, 0
  br i1 %152, label %459, label %153

153:                                              ; preds = %148
  %154 = tail call i64 @llvm.ctlz.i64(i64 %150, i1 true) #15, !range !29
  %155 = shl nuw nsw i64 %154, 1
  %156 = xor i64 %155, 126
  tail call void @_ZSt16__introsort_loopIPSt4pairIxxElN9__gnu_cxx5__ops15_Iter_comp_iterIPFbS1_S1_EEEEvT_S9_T0_T1_(%"struct.std::pair"* getelementptr inbounds ([200005 x %"struct.std::pair"], [200005 x %"struct.std::pair"]* @p, i64 0, i64 0), %"struct.std::pair"* nonnull %151, i64 %156, i1 (i64, i64, i64, i64)* nonnull @_Z4compSt4pairIxxES0_)
  %157 = icmp sgt i32 %149, 16
  br i1 %157, label %158, label %358

158:                                              ; preds = %153
  %159 = load i64, i64* getelementptr inbounds ([200005 x %"struct.std::pair"], [200005 x %"struct.std::pair"]* @p, i64 0, i64 0, i32 0), align 16
  br label %160

160:                                              ; preds = %158, %292
  %161 = phi i64 [ 0, %158 ], [ %296, %292 ]
  %162 = phi i64 [ %159, %158 ], [ %293, %292 ]
  %163 = phi i64 [ 1, %158 ], [ %294, %292 ]
  %164 = phi %"struct.std::pair"* [ getelementptr inbounds ([200005 x %"struct.std::pair"], [200005 x %"struct.std::pair"]* @p, i64 0, i64 0), %158 ], [ %166, %292 ]
  %165 = add i64 %161, 1
  %166 = getelementptr inbounds [200005 x %"struct.std::pair"], [200005 x %"struct.std::pair"]* @p, i64 0, i64 %163
  %167 = getelementptr inbounds %"struct.std::pair", %"struct.std::pair"* %166, i64 0, i32 0
  %168 = load i64, i64* %167, align 16
  %169 = getelementptr inbounds %"struct.std::pair", %"struct.std::pair"* %164, i64 1, i32 1
  %170 = load i64, i64* %169, align 8
  %171 = icmp eq i64 %168, 0
  %172 = icmp eq i64 %162, 0
  %173 = select i1 %171, i1 %172, i1 false
  br i1 %173, label %239, label %174

174:                                              ; preds = %160
  %175 = load i64, i64* getelementptr inbounds ([200005 x %"struct.std::pair"], [200005 x %"struct.std::pair"]* @p, i64 0, i64 0, i32 1), align 8
  %176 = mul nsw i64 %162, %170
  %177 = mul nsw i64 %175, %168
  %178 = icmp slt i64 %176, %177
  br i1 %178, label %179, label %239

179:                                              ; preds = %174
  %180 = getelementptr inbounds %"struct.std::pair", %"struct.std::pair"* %164, i64 1, i32 0
  %181 = load i64, i64* %180, align 8
  %182 = getelementptr inbounds %"struct.std::pair", %"struct.std::pair"* %164, i64 2
  %183 = and i64 %165, 3
  %184 = icmp eq i64 %183, 0
  br i1 %184, label %201, label %185

185:                                              ; preds = %179, %185
  %186 = phi i64 [ %198, %185 ], [ %163, %179 ]
  %187 = phi %"struct.std::pair"* [ %191, %185 ], [ %182, %179 ]
  %188 = phi %"struct.std::pair"* [ %190, %185 ], [ %166, %179 ]
  %189 = phi i64 [ %199, %185 ], [ %183, %179 ]
  %190 = getelementptr inbounds %"struct.std::pair", %"struct.std::pair"* %188, i64 -1
  %191 = getelementptr inbounds %"struct.std::pair", %"struct.std::pair"* %187, i64 -1
  %192 = getelementptr inbounds %"struct.std::pair", %"struct.std::pair"* %190, i64 0, i32 0
  %193 = load i64, i64* %192, align 8, !tbaa !25
  %194 = getelementptr inbounds %"struct.std::pair", %"struct.std::pair"* %191, i64 0, i32 0
  store i64 %193, i64* %194, align 8, !tbaa !32
  %195 = getelementptr inbounds %"struct.std::pair", %"struct.std::pair"* %188, i64 -1, i32 1
  %196 = load i64, i64* %195, align 8, !tbaa !25
  %197 = getelementptr inbounds %"struct.std::pair", %"struct.std::pair"* %187, i64 -1, i32 1
  store i64 %196, i64* %197, align 8, !tbaa !34
  %198 = add nsw i64 %186, -1
  %199 = add i64 %189, -1
  %200 = icmp eq i64 %199, 0
  br i1 %200, label %201, label %185, !llvm.loop !37

201:                                              ; preds = %185, %179
  %202 = phi i64 [ %163, %179 ], [ %198, %185 ]
  %203 = phi %"struct.std::pair"* [ %182, %179 ], [ %191, %185 ]
  %204 = phi %"struct.std::pair"* [ %166, %179 ], [ %190, %185 ]
  %205 = icmp ult i64 %161, 3
  br i1 %205, label %238, label %206

206:                                              ; preds = %201, %206
  %207 = phi i64 [ %236, %206 ], [ %202, %201 ]
  %208 = phi %"struct.std::pair"* [ %229, %206 ], [ %203, %201 ]
  %209 = phi %"struct.std::pair"* [ %228, %206 ], [ %204, %201 ]
  %210 = getelementptr inbounds %"struct.std::pair", %"struct.std::pair"* %209, i64 -1, i32 0
  %211 = load i64, i64* %210, align 8, !tbaa !25
  %212 = getelementptr inbounds %"struct.std::pair", %"struct.std::pair"* %208, i64 -1, i32 0
  store i64 %211, i64* %212, align 8, !tbaa !32
  %213 = getelementptr inbounds %"struct.std::pair", %"struct.std::pair"* %209, i64 -1, i32 1
  %214 = load i64, i64* %213, align 8, !tbaa !25
  %215 = getelementptr inbounds %"struct.std::pair", %"struct.std::pair"* %208, i64 -1, i32 1
  store i64 %214, i64* %215, align 8, !tbaa !34
  %216 = getelementptr inbounds %"struct.std::pair", %"struct.std::pair"* %209, i64 -2, i32 0
  %217 = load i64, i64* %216, align 8, !tbaa !25
  %218 = getelementptr inbounds %"struct.std::pair", %"struct.std::pair"* %208, i64 -2, i32 0
  store i64 %217, i64* %218, align 8, !tbaa !32
  %219 = getelementptr inbounds %"struct.std::pair", %"struct.std::pair"* %209, i64 -2, i32 1
  %220 = load i64, i64* %219, align 8, !tbaa !25
  %221 = getelementptr inbounds %"struct.std::pair", %"struct.std::pair"* %208, i64 -2, i32 1
  store i64 %220, i64* %221, align 8, !tbaa !34
  %222 = getelementptr inbounds %"struct.std::pair", %"struct.std::pair"* %209, i64 -3, i32 0
  %223 = load i64, i64* %222, align 8, !tbaa !25
  %224 = getelementptr inbounds %"struct.std::pair", %"struct.std::pair"* %208, i64 -3, i32 0
  store i64 %223, i64* %224, align 8, !tbaa !32
  %225 = getelementptr inbounds %"struct.std::pair", %"struct.std::pair"* %209, i64 -3, i32 1
  %226 = load i64, i64* %225, align 8, !tbaa !25
  %227 = getelementptr inbounds %"struct.std::pair", %"struct.std::pair"* %208, i64 -3, i32 1
  store i64 %226, i64* %227, align 8, !tbaa !34
  %228 = getelementptr inbounds %"struct.std::pair", %"struct.std::pair"* %209, i64 -4
  %229 = getelementptr inbounds %"struct.std::pair", %"struct.std::pair"* %208, i64 -4
  %230 = getelementptr inbounds %"struct.std::pair", %"struct.std::pair"* %228, i64 0, i32 0
  %231 = load i64, i64* %230, align 8, !tbaa !25
  %232 = getelementptr inbounds %"struct.std::pair", %"struct.std::pair"* %229, i64 0, i32 0
  store i64 %231, i64* %232, align 8, !tbaa !32
  %233 = getelementptr inbounds %"struct.std::pair", %"struct.std::pair"* %209, i64 -4, i32 1
  %234 = load i64, i64* %233, align 8, !tbaa !25
  %235 = getelementptr inbounds %"struct.std::pair", %"struct.std::pair"* %208, i64 -4, i32 1
  store i64 %234, i64* %235, align 8, !tbaa !34
  %236 = add nsw i64 %207, -4
  %237 = icmp sgt i64 %207, 4
  br i1 %237, label %206, label %238, !llvm.loop !39

238:                                              ; preds = %206, %201
  store i64 %181, i64* getelementptr inbounds ([200005 x %"struct.std::pair"], [200005 x %"struct.std::pair"]* @p, i64 0, i64 0, i32 0), align 16, !tbaa !32
  store i64 %170, i64* getelementptr inbounds ([200005 x %"struct.std::pair"], [200005 x %"struct.std::pair"]* @p, i64 0, i64 0, i32 1), align 8, !tbaa !34
  br label %292

239:                                              ; preds = %160, %174
  %240 = getelementptr inbounds %"struct.std::pair", %"struct.std::pair"* %164, i64 0, i32 0
  %241 = load i64, i64* %240, align 8
  %242 = getelementptr inbounds %"struct.std::pair", %"struct.std::pair"* %164, i64 0, i32 1
  %243 = icmp eq i64 %241, 0
  %244 = select i1 %171, i1 %243, i1 false
  br i1 %244, label %287, label %245

245:                                              ; preds = %239
  %246 = load i64, i64* %242, align 8
  %247 = mul nsw i64 %241, %170
  %248 = mul nsw i64 %246, %168
  %249 = icmp slt i64 %247, %248
  br i1 %249, label %250, label %287

250:                                              ; preds = %245
  br i1 %171, label %267, label %251

251:                                              ; preds = %250, %251
  %252 = phi i64 [ %261, %251 ], [ %241, %250 ]
  %253 = phi i64* [ %262, %251 ], [ %242, %250 ]
  %254 = phi i64* [ %260, %251 ], [ %240, %250 ]
  %255 = phi %"struct.std::pair"* [ %256, %251 ], [ %166, %250 ]
  %256 = bitcast i64* %254 to %"struct.std::pair"*
  %257 = getelementptr inbounds %"struct.std::pair", %"struct.std::pair"* %255, i64 0, i32 0
  store i64 %252, i64* %257, align 8, !tbaa !32
  %258 = load i64, i64* %253, align 8, !tbaa !25
  %259 = getelementptr inbounds %"struct.std::pair", %"struct.std::pair"* %255, i64 0, i32 1
  store i64 %258, i64* %259, align 8, !tbaa !34
  %260 = getelementptr inbounds i64, i64* %254, i64 -2
  %261 = load i64, i64* %260, align 8
  %262 = getelementptr inbounds i64, i64* %254, i64 -1
  %263 = load i64, i64* %262, align 8
  %264 = mul nsw i64 %261, %170
  %265 = mul nsw i64 %263, %168
  %266 = icmp slt i64 %264, %265
  br i1 %266, label %251, label %285, !llvm.loop !40

267:                                              ; preds = %250, %278
  %268 = phi i64 [ %276, %278 ], [ %241, %250 ]
  %269 = phi i64* [ %279, %278 ], [ %242, %250 ]
  %270 = phi i64* [ %275, %278 ], [ %240, %250 ]
  %271 = phi %"struct.std::pair"* [ %280, %278 ], [ %166, %250 ]
  %272 = getelementptr inbounds %"struct.std::pair", %"struct.std::pair"* %271, i64 0, i32 0
  store i64 %268, i64* %272, align 8, !tbaa !32
  %273 = load i64, i64* %269, align 8, !tbaa !25
  %274 = getelementptr inbounds %"struct.std::pair", %"struct.std::pair"* %271, i64 0, i32 1
  store i64 %273, i64* %274, align 8, !tbaa !34
  %275 = getelementptr inbounds i64, i64* %270, i64 -2
  %276 = load i64, i64* %275, align 8
  %277 = icmp eq i64 %276, 0
  br i1 %277, label %283, label %278

278:                                              ; preds = %267
  %279 = getelementptr inbounds i64, i64* %270, i64 -1
  %280 = bitcast i64* %270 to %"struct.std::pair"*
  %281 = mul nsw i64 %276, %170
  %282 = icmp slt i64 %281, 0
  br i1 %282, label %267, label %283, !llvm.loop !40

283:                                              ; preds = %278, %267
  %284 = bitcast i64* %270 to %"struct.std::pair"*
  br label %287

285:                                              ; preds = %251
  %286 = bitcast i64* %254 to %"struct.std::pair"*
  br label %287

287:                                              ; preds = %285, %283, %239, %245
  %288 = phi %"struct.std::pair"* [ %166, %245 ], [ %166, %239 ], [ %284, %283 ], [ %286, %285 ]
  %289 = getelementptr inbounds %"struct.std::pair", %"struct.std::pair"* %288, i64 0, i32 0
  store i64 %168, i64* %289, align 8, !tbaa !32
  %290 = getelementptr inbounds %"struct.std::pair", %"struct.std::pair"* %288, i64 0, i32 1
  store i64 %170, i64* %290, align 8, !tbaa !34
  %291 = load i64, i64* getelementptr inbounds ([200005 x %"struct.std::pair"], [200005 x %"struct.std::pair"]* @p, i64 0, i64 0, i32 0), align 16
  br label %292

292:                                              ; preds = %287, %238
  %293 = phi i64 [ %291, %287 ], [ %181, %238 ]
  %294 = add nuw nsw i64 %163, 1
  %295 = icmp eq i64 %294, 16
  %296 = add i64 %161, 1
  br i1 %295, label %297, label %160, !llvm.loop !41

297:                                              ; preds = %292
  %298 = icmp eq i32 %149, 16
  br i1 %298, label %459, label %299

299:                                              ; preds = %297, %352
  %300 = phi %"struct.std::pair"* [ %356, %352 ], [ getelementptr inbounds ([200005 x %"struct.std::pair"], [200005 x %"struct.std::pair"]* @p, i64 0, i64 16), %297 ]
  %301 = getelementptr inbounds %"struct.std::pair", %"struct.std::pair"* %300, i64 0, i32 0
  %302 = load i64, i64* %301, align 8
  %303 = getelementptr inbounds %"struct.std::pair", %"struct.std::pair"* %300, i64 0, i32 1
  %304 = load i64, i64* %303, align 8
  %305 = getelementptr inbounds %"struct.std::pair", %"struct.std::pair"* %300, i64 -1, i32 0
  %306 = load i64, i64* %305, align 8
  %307 = icmp eq i64 %302, 0
  %308 = icmp eq i64 %306, 0
  %309 = select i1 %307, i1 %308, i1 false
  br i1 %309, label %352, label %310

310:                                              ; preds = %299
  %311 = getelementptr inbounds %"struct.std::pair", %"struct.std::pair"* %300, i64 -1, i32 1
  %312 = load i64, i64* %311, align 8
  %313 = mul nsw i64 %306, %304
  %314 = mul nsw i64 %312, %302
  %315 = icmp slt i64 %313, %314
  br i1 %315, label %316, label %352

316:                                              ; preds = %310
  br i1 %307, label %332, label %317

317:                                              ; preds = %316, %317
  %318 = phi i64 [ %328, %317 ], [ %312, %316 ]
  %319 = phi i64 [ %326, %317 ], [ %306, %316 ]
  %320 = phi i64* [ %325, %317 ], [ %305, %316 ]
  %321 = phi %"struct.std::pair"* [ %322, %317 ], [ %300, %316 ]
  %322 = bitcast i64* %320 to %"struct.std::pair"*
  %323 = getelementptr inbounds %"struct.std::pair", %"struct.std::pair"* %321, i64 0, i32 0
  store i64 %319, i64* %323, align 8, !tbaa !32
  %324 = getelementptr inbounds %"struct.std::pair", %"struct.std::pair"* %321, i64 0, i32 1
  store i64 %318, i64* %324, align 8, !tbaa !34
  %325 = getelementptr inbounds i64, i64* %320, i64 -2
  %326 = load i64, i64* %325, align 8
  %327 = getelementptr inbounds i64, i64* %320, i64 -1
  %328 = load i64, i64* %327, align 8
  %329 = mul nsw i64 %326, %304
  %330 = mul nsw i64 %328, %302
  %331 = icmp slt i64 %329, %330
  br i1 %331, label %317, label %350, !llvm.loop !40

332:                                              ; preds = %316, %342
  %333 = phi i64 [ %345, %342 ], [ %312, %316 ]
  %334 = phi i64 [ %340, %342 ], [ %306, %316 ]
  %335 = phi i64* [ %339, %342 ], [ %305, %316 ]
  %336 = phi %"struct.std::pair"* [ %344, %342 ], [ %300, %316 ]
  %337 = getelementptr inbounds %"struct.std::pair", %"struct.std::pair"* %336, i64 0, i32 0
  store i64 %334, i64* %337, align 8, !tbaa !32
  %338 = getelementptr inbounds %"struct.std::pair", %"struct.std::pair"* %336, i64 0, i32 1
  store i64 %333, i64* %338, align 8, !tbaa !34
  %339 = getelementptr inbounds i64, i64* %335, i64 -2
  %340 = load i64, i64* %339, align 8
  %341 = icmp eq i64 %340, 0
  br i1 %341, label %348, label %342

342:                                              ; preds = %332
  %343 = getelementptr inbounds i64, i64* %335, i64 -1
  %344 = bitcast i64* %335 to %"struct.std::pair"*
  %345 = load i64, i64* %343, align 8
  %346 = mul nsw i64 %340, %304
  %347 = icmp slt i64 %346, 0
  br i1 %347, label %332, label %348, !llvm.loop !40

348:                                              ; preds = %342, %332
  %349 = bitcast i64* %335 to %"struct.std::pair"*
  br label %352

350:                                              ; preds = %317
  %351 = bitcast i64* %320 to %"struct.std::pair"*
  br label %352

352:                                              ; preds = %350, %348, %299, %310
  %353 = phi %"struct.std::pair"* [ %300, %310 ], [ %300, %299 ], [ %349, %348 ], [ %351, %350 ]
  %354 = getelementptr inbounds %"struct.std::pair", %"struct.std::pair"* %353, i64 0, i32 0
  store i64 %302, i64* %354, align 8, !tbaa !32
  %355 = getelementptr inbounds %"struct.std::pair", %"struct.std::pair"* %353, i64 0, i32 1
  store i64 %304, i64* %355, align 8, !tbaa !34
  %356 = getelementptr inbounds %"struct.std::pair", %"struct.std::pair"* %300, i64 1
  %357 = icmp eq %"struct.std::pair"* %356, %151
  br i1 %357, label %459, label %299, !llvm.loop !42

358:                                              ; preds = %153
  %359 = icmp eq i32 %149, 1
  br i1 %359, label %459, label %360

360:                                              ; preds = %358
  %361 = load i64, i64* getelementptr inbounds ([200005 x %"struct.std::pair"], [200005 x %"struct.std::pair"]* @p, i64 0, i64 0, i32 0), align 16
  br label %362

362:                                              ; preds = %360, %455
  %363 = phi i64 [ %456, %455 ], [ %361, %360 ]
  %364 = phi %"struct.std::pair"* [ %457, %455 ], [ getelementptr inbounds ([200005 x %"struct.std::pair"], [200005 x %"struct.std::pair"]* @p, i64 0, i64 1), %360 ]
  %365 = phi %"struct.std::pair"* [ %364, %455 ], [ getelementptr inbounds ([200005 x %"struct.std::pair"], [200005 x %"struct.std::pair"]* @p, i64 0, i64 0), %360 ]
  %366 = getelementptr inbounds %"struct.std::pair", %"struct.std::pair"* %364, i64 0, i32 0
  %367 = load i64, i64* %366, align 8
  %368 = getelementptr inbounds %"struct.std::pair", %"struct.std::pair"* %365, i64 1, i32 1
  %369 = load i64, i64* %368, align 8
  %370 = icmp eq i64 %367, 0
  %371 = icmp eq i64 %363, 0
  %372 = select i1 %370, i1 %371, i1 false
  br i1 %372, label %402, label %373

373:                                              ; preds = %362
  %374 = load i64, i64* getelementptr inbounds ([200005 x %"struct.std::pair"], [200005 x %"struct.std::pair"]* @p, i64 0, i64 0, i32 1), align 8
  %375 = mul nsw i64 %363, %369
  %376 = mul nsw i64 %374, %367
  %377 = icmp slt i64 %375, %376
  br i1 %377, label %378, label %402

378:                                              ; preds = %373
  %379 = getelementptr inbounds %"struct.std::pair", %"struct.std::pair"* %365, i64 1, i32 0
  %380 = load i64, i64* %379, align 8
  %381 = ptrtoint %"struct.std::pair"* %364 to i64
  %382 = sub i64 %381, ptrtoint ([200005 x %"struct.std::pair"]* @p to i64)
  %383 = icmp sgt i64 %382, 0
  br i1 %383, label %384, label %401

384:                                              ; preds = %378
  %385 = getelementptr inbounds %"struct.std::pair", %"struct.std::pair"* %365, i64 2
  %386 = lshr exact i64 %382, 4
  br label %387

387:                                              ; preds = %387, %384
  %388 = phi i64 [ %399, %387 ], [ %386, %384 ]
  %389 = phi %"struct.std::pair"* [ %392, %387 ], [ %385, %384 ]
  %390 = phi %"struct.std::pair"* [ %391, %387 ], [ %364, %384 ]
  %391 = getelementptr inbounds %"struct.std::pair", %"struct.std::pair"* %390, i64 -1
  %392 = getelementptr inbounds %"struct.std::pair", %"struct.std::pair"* %389, i64 -1
  %393 = getelementptr inbounds %"struct.std::pair", %"struct.std::pair"* %391, i64 0, i32 0
  %394 = load i64, i64* %393, align 8, !tbaa !25
  %395 = getelementptr inbounds %"struct.std::pair", %"struct.std::pair"* %392, i64 0, i32 0
  store i64 %394, i64* %395, align 8, !tbaa !32
  %396 = getelementptr inbounds %"struct.std::pair", %"struct.std::pair"* %390, i64 -1, i32 1
  %397 = load i64, i64* %396, align 8, !tbaa !25
  %398 = getelementptr inbounds %"struct.std::pair", %"struct.std::pair"* %389, i64 -1, i32 1
  store i64 %397, i64* %398, align 8, !tbaa !34
  %399 = add nsw i64 %388, -1
  %400 = icmp sgt i64 %388, 1
  br i1 %400, label %387, label %401, !llvm.loop !39

401:                                              ; preds = %387, %378
  store i64 %380, i64* getelementptr inbounds ([200005 x %"struct.std::pair"], [200005 x %"struct.std::pair"]* @p, i64 0, i64 0, i32 0), align 16, !tbaa !32
  store i64 %369, i64* getelementptr inbounds ([200005 x %"struct.std::pair"], [200005 x %"struct.std::pair"]* @p, i64 0, i64 0, i32 1), align 8, !tbaa !34
  br label %455

402:                                              ; preds = %362, %373
  %403 = getelementptr inbounds %"struct.std::pair", %"struct.std::pair"* %365, i64 0, i32 0
  %404 = load i64, i64* %403, align 8
  %405 = getelementptr inbounds %"struct.std::pair", %"struct.std::pair"* %365, i64 0, i32 1
  %406 = icmp eq i64 %404, 0
  %407 = select i1 %370, i1 %406, i1 false
  br i1 %407, label %450, label %408

408:                                              ; preds = %402
  %409 = load i64, i64* %405, align 8
  %410 = mul nsw i64 %404, %369
  %411 = mul nsw i64 %409, %367
  %412 = icmp slt i64 %410, %411
  br i1 %412, label %413, label %450

413:                                              ; preds = %408
  br i1 %370, label %430, label %414

414:                                              ; preds = %413, %414
  %415 = phi i64 [ %424, %414 ], [ %404, %413 ]
  %416 = phi i64* [ %425, %414 ], [ %405, %413 ]
  %417 = phi i64* [ %423, %414 ], [ %403, %413 ]
  %418 = phi %"struct.std::pair"* [ %419, %414 ], [ %364, %413 ]
  %419 = bitcast i64* %417 to %"struct.std::pair"*
  %420 = getelementptr inbounds %"struct.std::pair", %"struct.std::pair"* %418, i64 0, i32 0
  store i64 %415, i64* %420, align 8, !tbaa !32
  %421 = load i64, i64* %416, align 8, !tbaa !25
  %422 = getelementptr inbounds %"struct.std::pair", %"struct.std::pair"* %418, i64 0, i32 1
  store i64 %421, i64* %422, align 8, !tbaa !34
  %423 = getelementptr inbounds i64, i64* %417, i64 -2
  %424 = load i64, i64* %423, align 8
  %425 = getelementptr inbounds i64, i64* %417, i64 -1
  %426 = load i64, i64* %425, align 8
  %427 = mul nsw i64 %424, %369
  %428 = mul nsw i64 %426, %367
  %429 = icmp slt i64 %427, %428
  br i1 %429, label %414, label %448, !llvm.loop !40

430:                                              ; preds = %413, %441
  %431 = phi i64 [ %439, %441 ], [ %404, %413 ]
  %432 = phi i64* [ %442, %441 ], [ %405, %413 ]
  %433 = phi i64* [ %438, %441 ], [ %403, %413 ]
  %434 = phi %"struct.std::pair"* [ %443, %441 ], [ %364, %413 ]
  %435 = getelementptr inbounds %"struct.std::pair", %"struct.std::pair"* %434, i64 0, i32 0
  store i64 %431, i64* %435, align 8, !tbaa !32
  %436 = load i64, i64* %432, align 8, !tbaa !25
  %437 = getelementptr inbounds %"struct.std::pair", %"struct.std::pair"* %434, i64 0, i32 1
  store i64 %436, i64* %437, align 8, !tbaa !34
  %438 = getelementptr inbounds i64, i64* %433, i64 -2
  %439 = load i64, i64* %438, align 8
  %440 = icmp eq i64 %439, 0
  br i1 %440, label %446, label %441

441:                                              ; preds = %430
  %442 = getelementptr inbounds i64, i64* %433, i64 -1
  %443 = bitcast i64* %433 to %"struct.std::pair"*
  %444 = mul nsw i64 %439, %369
  %445 = icmp slt i64 %444, 0
  br i1 %445, label %430, label %446, !llvm.loop !40

446:                                              ; preds = %441, %430
  %447 = bitcast i64* %433 to %"struct.std::pair"*
  br label %450

448:                                              ; preds = %414
  %449 = bitcast i64* %417 to %"struct.std::pair"*
  br label %450

450:                                              ; preds = %448, %446, %402, %408
  %451 = phi %"struct.std::pair"* [ %364, %408 ], [ %364, %402 ], [ %447, %446 ], [ %449, %448 ]
  %452 = getelementptr inbounds %"struct.std::pair", %"struct.std::pair"* %451, i64 0, i32 0
  store i64 %367, i64* %452, align 8, !tbaa !32
  %453 = getelementptr inbounds %"struct.std::pair", %"struct.std::pair"* %451, i64 0, i32 1
  store i64 %369, i64* %453, align 8, !tbaa !34
  %454 = load i64, i64* getelementptr inbounds ([200005 x %"struct.std::pair"], [200005 x %"struct.std::pair"]* @p, i64 0, i64 0, i32 0), align 16
  br label %455

455:                                              ; preds = %450, %401
  %456 = phi i64 [ %454, %450 ], [ %380, %401 ]
  %457 = getelementptr inbounds %"struct.std::pair", %"struct.std::pair"* %364, i64 1
  %458 = icmp eq %"struct.std::pair"* %457, %151
  br i1 %458, label %459, label %362, !llvm.loop !41

459:                                              ; preds = %455, %352, %148, %297, %358
  store <2 x i64> <i64 1, i64 1000000000000000>, <2 x i64>* bitcast ([200005 x [60 x i64]]* @dp to <2 x i64>*), align 16, !tbaa !25
  store <2 x i64> <i64 1000000000000000, i64 1000000000000000>, <2 x i64>* bitcast (i64* getelementptr inbounds ([200005 x [60 x i64]], [200005 x [60 x i64]]* @dp, i64 0, i64 0, i64 2) to <2 x i64>*), align 16, !tbaa !25
  store <2 x i64> <i64 1000000000000000, i64 1000000000000000>, <2 x i64>* bitcast (i64* getelementptr inbounds ([200005 x [60 x i64]], [200005 x [60 x i64]]* @dp, i64 0, i64 0, i64 4) to <2 x i64>*), align 16, !tbaa !25
  store <2 x i64> <i64 1000000000000000, i64 1000000000000000>, <2 x i64>* bitcast (i64* getelementptr inbounds ([200005 x [60 x i64]], [200005 x [60 x i64]]* @dp, i64 0, i64 0, i64 6) to <2 x i64>*), align 16, !tbaa !25
  store <2 x i64> <i64 1000000000000000, i64 1000000000000000>, <2 x i64>* bitcast (i64* getelementptr inbounds ([200005 x [60 x i64]], [200005 x [60 x i64]]* @dp, i64 0, i64 0, i64 8) to <2 x i64>*), align 16, !tbaa !25
  store <2 x i64> <i64 1000000000000000, i64 1000000000000000>, <2 x i64>* bitcast (i64* getelementptr inbounds ([200005 x [60 x i64]], [200005 x [60 x i64]]* @dp, i64 0, i64 0, i64 10) to <2 x i64>*), align 16, !tbaa !25
  store <2 x i64> <i64 1000000000000000, i64 1000000000000000>, <2 x i64>* bitcast (i64* getelementptr inbounds ([200005 x [60 x i64]], [200005 x [60 x i64]]* @dp, i64 0, i64 0, i64 12) to <2 x i64>*), align 16, !tbaa !25
  store <2 x i64> <i64 1000000000000000, i64 1000000000000000>, <2 x i64>* bitcast (i64* getelementptr inbounds ([200005 x [60 x i64]], [200005 x [60 x i64]]* @dp, i64 0, i64 0, i64 14) to <2 x i64>*), align 16, !tbaa !25
  store <2 x i64> <i64 1000000000000000, i64 1000000000000000>, <2 x i64>* bitcast (i64* getelementptr inbounds ([200005 x [60 x i64]], [200005 x [60 x i64]]* @dp, i64 0, i64 0, i64 16) to <2 x i64>*), align 16, !tbaa !25
  store <2 x i64> <i64 1000000000000000, i64 1000000000000000>, <2 x i64>* bitcast (i64* getelementptr inbounds ([200005 x [60 x i64]], [200005 x [60 x i64]]* @dp, i64 0, i64 0, i64 18) to <2 x i64>*), align 16, !tbaa !25
  store <2 x i64> <i64 1000000000000000, i64 1000000000000000>, <2 x i64>* bitcast (i64* getelementptr inbounds ([200005 x [60 x i64]], [200005 x [60 x i64]]* @dp, i64 0, i64 0, i64 20) to <2 x i64>*), align 16, !tbaa !25
  store <2 x i64> <i64 1000000000000000, i64 1000000000000000>, <2 x i64>* bitcast (i64* getelementptr inbounds ([200005 x [60 x i64]], [200005 x [60 x i64]]* @dp, i64 0, i64 0, i64 22) to <2 x i64>*), align 16, !tbaa !25
  store <2 x i64> <i64 1000000000000000, i64 1000000000000000>, <2 x i64>* bitcast (i64* getelementptr inbounds ([200005 x [60 x i64]], [200005 x [60 x i64]]* @dp, i64 0, i64 0, i64 24) to <2 x i64>*), align 16, !tbaa !25
  store <2 x i64> <i64 1000000000000000, i64 1000000000000000>, <2 x i64>* bitcast (i64* getelementptr inbounds ([200005 x [60 x i64]], [200005 x [60 x i64]]* @dp, i64 0, i64 0, i64 26) to <2 x i64>*), align 16, !tbaa !25
  store <2 x i64> <i64 1000000000000000, i64 1000000000000000>, <2 x i64>* bitcast (i64* getelementptr inbounds ([200005 x [60 x i64]], [200005 x [60 x i64]]* @dp, i64 0, i64 0, i64 28) to <2 x i64>*), align 16, !tbaa !25
  store <2 x i64> <i64 1000000000000000, i64 1000000000000000>, <2 x i64>* bitcast (i64* getelementptr inbounds ([200005 x [60 x i64]], [200005 x [60 x i64]]* @dp, i64 0, i64 0, i64 30) to <2 x i64>*), align 16, !tbaa !25
  store <2 x i64> <i64 1000000000000000, i64 1000000000000000>, <2 x i64>* bitcast (i64* getelementptr inbounds ([200005 x [60 x i64]], [200005 x [60 x i64]]* @dp, i64 0, i64 0, i64 32) to <2 x i64>*), align 16, !tbaa !25
  store <2 x i64> <i64 1000000000000000, i64 1000000000000000>, <2 x i64>* bitcast (i64* getelementptr inbounds ([200005 x [60 x i64]], [200005 x [60 x i64]]* @dp, i64 0, i64 0, i64 34) to <2 x i64>*), align 16, !tbaa !25
  store <2 x i64> <i64 1000000000000000, i64 1000000000000000>, <2 x i64>* bitcast (i64* getelementptr inbounds ([200005 x [60 x i64]], [200005 x [60 x i64]]* @dp, i64 0, i64 0, i64 36) to <2 x i64>*), align 16, !tbaa !25
  store <2 x i64> <i64 1000000000000000, i64 1000000000000000>, <2 x i64>* bitcast (i64* getelementptr inbounds ([200005 x [60 x i64]], [200005 x [60 x i64]]* @dp, i64 0, i64 0, i64 38) to <2 x i64>*), align 16, !tbaa !25
  store <2 x i64> <i64 1000000000000000, i64 1000000000000000>, <2 x i64>* bitcast (i64* getelementptr inbounds ([200005 x [60 x i64]], [200005 x [60 x i64]]* @dp, i64 0, i64 0, i64 40) to <2 x i64>*), align 16, !tbaa !25
  store <2 x i64> <i64 1000000000000000, i64 1000000000000000>, <2 x i64>* bitcast (i64* getelementptr inbounds ([200005 x [60 x i64]], [200005 x [60 x i64]]* @dp, i64 0, i64 0, i64 42) to <2 x i64>*), align 16, !tbaa !25
  store <2 x i64> <i64 1000000000000000, i64 1000000000000000>, <2 x i64>* bitcast (i64* getelementptr inbounds ([200005 x [60 x i64]], [200005 x [60 x i64]]* @dp, i64 0, i64 0, i64 44) to <2 x i64>*), align 16, !tbaa !25
  store <2 x i64> <i64 1000000000000000, i64 1000000000000000>, <2 x i64>* bitcast (i64* getelementptr inbounds ([200005 x [60 x i64]], [200005 x [60 x i64]]* @dp, i64 0, i64 0, i64 46) to <2 x i64>*), align 16, !tbaa !25
  store <2 x i64> <i64 1000000000000000, i64 1000000000000000>, <2 x i64>* bitcast (i64* getelementptr inbounds ([200005 x [60 x i64]], [200005 x [60 x i64]]* @dp, i64 0, i64 0, i64 48) to <2 x i64>*), align 16, !tbaa !25
  store <2 x i64> <i64 1000000000000000, i64 1000000000000000>, <2 x i64>* bitcast (i64* getelementptr inbounds ([200005 x [60 x i64]], [200005 x [60 x i64]]* @dp, i64 0, i64 0, i64 50) to <2 x i64>*), align 16, !tbaa !25
  store <2 x i64> <i64 1000000000000000, i64 1000000000000000>, <2 x i64>* bitcast (i64* getelementptr inbounds ([200005 x [60 x i64]], [200005 x [60 x i64]]* @dp, i64 0, i64 0, i64 52) to <2 x i64>*), align 16, !tbaa !25
  store <2 x i64> <i64 1000000000000000, i64 1000000000000000>, <2 x i64>* bitcast (i64* getelementptr inbounds ([200005 x [60 x i64]], [200005 x [60 x i64]]* @dp, i64 0, i64 0, i64 54) to <2 x i64>*), align 16, !tbaa !25
  store <2 x i64> <i64 1000000000000000, i64 1000000000000000>, <2 x i64>* bitcast (i64* getelementptr inbounds ([200005 x [60 x i64]], [200005 x [60 x i64]]* @dp, i64 0, i64 0, i64 56) to <2 x i64>*), align 16, !tbaa !25
  store <2 x i64> <i64 1000000000000000, i64 1000000000000000>, <2 x i64>* bitcast (i64* getelementptr inbounds ([200005 x [60 x i64]], [200005 x [60 x i64]]* @dp, i64 0, i64 0, i64 58) to <2 x i64>*), align 16, !tbaa !25
  %460 = load i32, i32* @N, align 4, !tbaa !27
  %461 = icmp slt i32 %460, 1
  br i1 %461, label %462, label %522

462:                                              ; preds = %459
  %463 = load i64, i64* @T, align 8
  br label %631

464:                                              ; preds = %82, %511
  %465 = phi i64* [ %512, %511 ], [ %83, %82 ]
  %466 = phi i64* [ %513, %511 ], [ %84, %82 ]
  %467 = phi i64 [ %514, %511 ], [ 0, %82 ]
  %468 = phi i64* [ %516, %511 ], [ %86, %82 ]
  %469 = phi i64 [ %472, %511 ], [ 0, %82 ]
  %470 = getelementptr inbounds i64, i64* %468, i64 %467
  %471 = load i64, i64* %470, align 8, !tbaa !25
  %472 = add nsw i64 %471, %469
  %473 = icmp eq i64* %466, %465
  br i1 %473, label %476, label %474

474:                                              ; preds = %464
  store i64 %472, i64* %466, align 8, !tbaa !25
  %475 = getelementptr inbounds i64, i64* %466, i64 1
  store i64* %475, i64** getelementptr inbounds (%"class.std::vector", %"class.std::vector"* @sum, i64 0, i32 0, i32 0, i32 0, i32 1), align 8, !tbaa !30
  br label %511

476:                                              ; preds = %464
  %477 = load i64*, i64** getelementptr inbounds (%"class.std::vector", %"class.std::vector"* @sum, i64 0, i32 0, i32 0, i32 0, i32 0), align 8, !tbaa !5
  %478 = ptrtoint i64* %465 to i64
  %479 = ptrtoint i64* %477 to i64
  %480 = sub i64 %478, %479
  %481 = ashr exact i64 %480, 3
  %482 = icmp eq i64 %480, 9223372036854775800
  br i1 %482, label %483, label %484

483:                                              ; preds = %476
  tail call void @_ZSt20__throw_length_errorPKc(i8* getelementptr inbounds ([26 x i8], [26 x i8]* @.str, i64 0, i64 0)) #16
  unreachable

484:                                              ; preds = %476
  %485 = icmp eq i64 %480, 0
  %486 = select i1 %485, i64 1, i64 %481
  %487 = add nsw i64 %486, %481
  %488 = icmp ult i64 %487, %481
  %489 = icmp ugt i64 %487, 1152921504606846975
  %490 = or i1 %488, %489
  %491 = select i1 %490, i64 1152921504606846975, i64 %487
  %492 = icmp eq i64 %491, 0
  br i1 %492, label %497, label %493

493:                                              ; preds = %484
  %494 = shl nuw nsw i64 %491, 3
  %495 = tail call noalias nonnull i8* @_Znwm(i64 %494) #17
  %496 = bitcast i8* %495 to i64*
  br label %497

497:                                              ; preds = %493, %484
  %498 = phi i64* [ %496, %493 ], [ null, %484 ]
  %499 = getelementptr inbounds i64, i64* %498, i64 %481
  store i64 %472, i64* %499, align 8, !tbaa !25
  %500 = icmp sgt i64 %480, 0
  br i1 %500, label %501, label %504

501:                                              ; preds = %497
  %502 = bitcast i64* %498 to i8*
  %503 = bitcast i64* %477 to i8*
  tail call void @llvm.memmove.p0i8.p0i8.i64(i8* align 8 %502, i8* align 8 %503, i64 %480, i1 false) #15
  br label %504

504:                                              ; preds = %501, %497
  %505 = getelementptr inbounds i64, i64* %499, i64 1
  %506 = icmp eq i64* %477, null
  br i1 %506, label %509, label %507

507:                                              ; preds = %504
  %508 = bitcast i64* %477 to i8*
  tail call void @_ZdlPv(i8* nonnull %508) #15
  br label %509

509:                                              ; preds = %507, %504
  store i64* %498, i64** getelementptr inbounds (%"class.std::vector", %"class.std::vector"* @sum, i64 0, i32 0, i32 0, i32 0, i32 0), align 8, !tbaa !5
  store i64* %505, i64** getelementptr inbounds (%"class.std::vector", %"class.std::vector"* @sum, i64 0, i32 0, i32 0, i32 0, i32 1), align 8, !tbaa !30
  %510 = getelementptr inbounds i64, i64* %498, i64 %491
  store i64* %510, i64** getelementptr inbounds (%"class.std::vector", %"class.std::vector"* @sum, i64 0, i32 0, i32 0, i32 0, i32 2), align 8, !tbaa !31
  br label %511

511:                                              ; preds = %474, %509
  %512 = phi i64* [ %465, %474 ], [ %510, %509 ]
  %513 = phi i64* [ %475, %474 ], [ %505, %509 ]
  %514 = add nuw i64 %467, 1
  %515 = load i64*, i64** getelementptr inbounds (%"class.std::vector", %"class.std::vector"* @z, i64 0, i32 0, i32 0, i32 0, i32 1), align 8, !tbaa !30
  %516 = load i64*, i64** getelementptr inbounds (%"class.std::vector", %"class.std::vector"* @z, i64 0, i32 0, i32 0, i32 0, i32 0), align 8, !tbaa !5
  %517 = ptrtoint i64* %515 to i64
  %518 = ptrtoint i64* %516 to i64
  %519 = sub i64 %517, %518
  %520 = ashr exact i64 %519, 3
  %521 = icmp ugt i64 %520, %514
  br i1 %521, label %464, label %148, !llvm.loop !43

522:                                              ; preds = %459
  %523 = add nuw i32 %460, 1
  %524 = zext i32 %523 to i64
  br label %525

525:                                              ; preds = %522, %525
  %526 = phi i64 [ 1, %522 ], [ %587, %525 ]
  %527 = getelementptr inbounds [200005 x [60 x i64]], [200005 x [60 x i64]]* @dp, i64 0, i64 %526, i64 0
  %528 = bitcast i64* %527 to <2 x i64>*
  store <2 x i64> <i64 1000000000000000, i64 1000000000000000>, <2 x i64>* %528, align 16, !tbaa !25
  %529 = getelementptr inbounds [200005 x [60 x i64]], [200005 x [60 x i64]]* @dp, i64 0, i64 %526, i64 2
  %530 = bitcast i64* %529 to <2 x i64>*
  store <2 x i64> <i64 1000000000000000, i64 1000000000000000>, <2 x i64>* %530, align 16, !tbaa !25
  %531 = getelementptr inbounds [200005 x [60 x i64]], [200005 x [60 x i64]]* @dp, i64 0, i64 %526, i64 4
  %532 = bitcast i64* %531 to <2 x i64>*
  store <2 x i64> <i64 1000000000000000, i64 1000000000000000>, <2 x i64>* %532, align 16, !tbaa !25
  %533 = getelementptr inbounds [200005 x [60 x i64]], [200005 x [60 x i64]]* @dp, i64 0, i64 %526, i64 6
  %534 = bitcast i64* %533 to <2 x i64>*
  store <2 x i64> <i64 1000000000000000, i64 1000000000000000>, <2 x i64>* %534, align 16, !tbaa !25
  %535 = getelementptr inbounds [200005 x [60 x i64]], [200005 x [60 x i64]]* @dp, i64 0, i64 %526, i64 8
  %536 = bitcast i64* %535 to <2 x i64>*
  store <2 x i64> <i64 1000000000000000, i64 1000000000000000>, <2 x i64>* %536, align 16, !tbaa !25
  %537 = getelementptr inbounds [200005 x [60 x i64]], [200005 x [60 x i64]]* @dp, i64 0, i64 %526, i64 10
  %538 = bitcast i64* %537 to <2 x i64>*
  store <2 x i64> <i64 1000000000000000, i64 1000000000000000>, <2 x i64>* %538, align 16, !tbaa !25
  %539 = getelementptr inbounds [200005 x [60 x i64]], [200005 x [60 x i64]]* @dp, i64 0, i64 %526, i64 12
  %540 = bitcast i64* %539 to <2 x i64>*
  store <2 x i64> <i64 1000000000000000, i64 1000000000000000>, <2 x i64>* %540, align 16, !tbaa !25
  %541 = getelementptr inbounds [200005 x [60 x i64]], [200005 x [60 x i64]]* @dp, i64 0, i64 %526, i64 14
  %542 = bitcast i64* %541 to <2 x i64>*
  store <2 x i64> <i64 1000000000000000, i64 1000000000000000>, <2 x i64>* %542, align 16, !tbaa !25
  %543 = getelementptr inbounds [200005 x [60 x i64]], [200005 x [60 x i64]]* @dp, i64 0, i64 %526, i64 16
  %544 = bitcast i64* %543 to <2 x i64>*
  store <2 x i64> <i64 1000000000000000, i64 1000000000000000>, <2 x i64>* %544, align 16, !tbaa !25
  %545 = getelementptr inbounds [200005 x [60 x i64]], [200005 x [60 x i64]]* @dp, i64 0, i64 %526, i64 18
  %546 = bitcast i64* %545 to <2 x i64>*
  store <2 x i64> <i64 1000000000000000, i64 1000000000000000>, <2 x i64>* %546, align 16, !tbaa !25
  %547 = getelementptr inbounds [200005 x [60 x i64]], [200005 x [60 x i64]]* @dp, i64 0, i64 %526, i64 20
  %548 = bitcast i64* %547 to <2 x i64>*
  store <2 x i64> <i64 1000000000000000, i64 1000000000000000>, <2 x i64>* %548, align 16, !tbaa !25
  %549 = getelementptr inbounds [200005 x [60 x i64]], [200005 x [60 x i64]]* @dp, i64 0, i64 %526, i64 22
  %550 = bitcast i64* %549 to <2 x i64>*
  store <2 x i64> <i64 1000000000000000, i64 1000000000000000>, <2 x i64>* %550, align 16, !tbaa !25
  %551 = getelementptr inbounds [200005 x [60 x i64]], [200005 x [60 x i64]]* @dp, i64 0, i64 %526, i64 24
  %552 = bitcast i64* %551 to <2 x i64>*
  store <2 x i64> <i64 1000000000000000, i64 1000000000000000>, <2 x i64>* %552, align 16, !tbaa !25
  %553 = getelementptr inbounds [200005 x [60 x i64]], [200005 x [60 x i64]]* @dp, i64 0, i64 %526, i64 26
  %554 = bitcast i64* %553 to <2 x i64>*
  store <2 x i64> <i64 1000000000000000, i64 1000000000000000>, <2 x i64>* %554, align 16, !tbaa !25
  %555 = getelementptr inbounds [200005 x [60 x i64]], [200005 x [60 x i64]]* @dp, i64 0, i64 %526, i64 28
  %556 = bitcast i64* %555 to <2 x i64>*
  store <2 x i64> <i64 1000000000000000, i64 1000000000000000>, <2 x i64>* %556, align 16, !tbaa !25
  %557 = getelementptr inbounds [200005 x [60 x i64]], [200005 x [60 x i64]]* @dp, i64 0, i64 %526, i64 30
  %558 = bitcast i64* %557 to <2 x i64>*
  store <2 x i64> <i64 1000000000000000, i64 1000000000000000>, <2 x i64>* %558, align 16, !tbaa !25
  %559 = getelementptr inbounds [200005 x [60 x i64]], [200005 x [60 x i64]]* @dp, i64 0, i64 %526, i64 32
  %560 = bitcast i64* %559 to <2 x i64>*
  store <2 x i64> <i64 1000000000000000, i64 1000000000000000>, <2 x i64>* %560, align 16, !tbaa !25
  %561 = getelementptr inbounds [200005 x [60 x i64]], [200005 x [60 x i64]]* @dp, i64 0, i64 %526, i64 34
  %562 = bitcast i64* %561 to <2 x i64>*
  store <2 x i64> <i64 1000000000000000, i64 1000000000000000>, <2 x i64>* %562, align 16, !tbaa !25
  %563 = getelementptr inbounds [200005 x [60 x i64]], [200005 x [60 x i64]]* @dp, i64 0, i64 %526, i64 36
  %564 = bitcast i64* %563 to <2 x i64>*
  store <2 x i64> <i64 1000000000000000, i64 1000000000000000>, <2 x i64>* %564, align 16, !tbaa !25
  %565 = getelementptr inbounds [200005 x [60 x i64]], [200005 x [60 x i64]]* @dp, i64 0, i64 %526, i64 38
  %566 = bitcast i64* %565 to <2 x i64>*
  store <2 x i64> <i64 1000000000000000, i64 1000000000000000>, <2 x i64>* %566, align 16, !tbaa !25
  %567 = getelementptr inbounds [200005 x [60 x i64]], [200005 x [60 x i64]]* @dp, i64 0, i64 %526, i64 40
  %568 = bitcast i64* %567 to <2 x i64>*
  store <2 x i64> <i64 1000000000000000, i64 1000000000000000>, <2 x i64>* %568, align 16, !tbaa !25
  %569 = getelementptr inbounds [200005 x [60 x i64]], [200005 x [60 x i64]]* @dp, i64 0, i64 %526, i64 42
  %570 = bitcast i64* %569 to <2 x i64>*
  store <2 x i64> <i64 1000000000000000, i64 1000000000000000>, <2 x i64>* %570, align 16, !tbaa !25
  %571 = getelementptr inbounds [200005 x [60 x i64]], [200005 x [60 x i64]]* @dp, i64 0, i64 %526, i64 44
  %572 = bitcast i64* %571 to <2 x i64>*
  store <2 x i64> <i64 1000000000000000, i64 1000000000000000>, <2 x i64>* %572, align 16, !tbaa !25
  %573 = getelementptr inbounds [200005 x [60 x i64]], [200005 x [60 x i64]]* @dp, i64 0, i64 %526, i64 46
  %574 = bitcast i64* %573 to <2 x i64>*
  store <2 x i64> <i64 1000000000000000, i64 1000000000000000>, <2 x i64>* %574, align 16, !tbaa !25
  %575 = getelementptr inbounds [200005 x [60 x i64]], [200005 x [60 x i64]]* @dp, i64 0, i64 %526, i64 48
  %576 = bitcast i64* %575 to <2 x i64>*
  store <2 x i64> <i64 1000000000000000, i64 1000000000000000>, <2 x i64>* %576, align 16, !tbaa !25
  %577 = getelementptr inbounds [200005 x [60 x i64]], [200005 x [60 x i64]]* @dp, i64 0, i64 %526, i64 50
  %578 = bitcast i64* %577 to <2 x i64>*
  store <2 x i64> <i64 1000000000000000, i64 1000000000000000>, <2 x i64>* %578, align 16, !tbaa !25
  %579 = getelementptr inbounds [200005 x [60 x i64]], [200005 x [60 x i64]]* @dp, i64 0, i64 %526, i64 52
  %580 = bitcast i64* %579 to <2 x i64>*
  store <2 x i64> <i64 1000000000000000, i64 1000000000000000>, <2 x i64>* %580, align 16, !tbaa !25
  %581 = getelementptr inbounds [200005 x [60 x i64]], [200005 x [60 x i64]]* @dp, i64 0, i64 %526, i64 54
  %582 = bitcast i64* %581 to <2 x i64>*
  store <2 x i64> <i64 1000000000000000, i64 1000000000000000>, <2 x i64>* %582, align 16, !tbaa !25
  %583 = getelementptr inbounds [200005 x [60 x i64]], [200005 x [60 x i64]]* @dp, i64 0, i64 %526, i64 56
  %584 = bitcast i64* %583 to <2 x i64>*
  store <2 x i64> <i64 1000000000000000, i64 1000000000000000>, <2 x i64>* %584, align 16, !tbaa !25
  %585 = getelementptr inbounds [200005 x [60 x i64]], [200005 x [60 x i64]]* @dp, i64 0, i64 %526, i64 58
  %586 = bitcast i64* %585 to <2 x i64>*
  store <2 x i64> <i64 1000000000000000, i64 1000000000000000>, <2 x i64>* %586, align 16, !tbaa !25
  %587 = add nuw nsw i64 %526, 1
  %588 = icmp eq i64 %587, %524
  br i1 %588, label %589, label %525, !llvm.loop !44

589:                                              ; preds = %525
  %590 = load i64, i64* @T, align 8
  %591 = icmp sgt i32 %460, 0
  br i1 %591, label %592, label %631

592:                                              ; preds = %589
  %593 = zext i32 %460 to i64
  br label %594

594:                                              ; preds = %592, %602
  %595 = phi i64 [ 0, %592 ], [ %601, %602 ]
  %596 = getelementptr inbounds [200005 x %"struct.std::pair"], [200005 x %"struct.std::pair"]* @p, i64 0, i64 %595, i32 0
  %597 = load i64, i64* %596, align 16, !tbaa !32
  %598 = icmp eq i64 %597, 0
  br i1 %598, label %629, label %599

599:                                              ; preds = %594
  %600 = getelementptr inbounds [200005 x %"struct.std::pair"], [200005 x %"struct.std::pair"]* @p, i64 0, i64 %595, i32 1
  %601 = add nuw nsw i64 %595, 1
  br label %604

602:                                              ; preds = %626
  %603 = icmp eq i64 %601, %593
  br i1 %603, label %631, label %594, !llvm.loop !45

604:                                              ; preds = %599, %626
  %605 = phi i64 [ 0, %599 ], [ %627, %626 ]
  %606 = getelementptr inbounds [200005 x [60 x i64]], [200005 x [60 x i64]]* @dp, i64 0, i64 %595, i64 %605
  %607 = load i64, i64* %606, align 8, !tbaa !25
  %608 = icmp sgt i64 %607, %590
  br i1 %608, label %609, label %611

609:                                              ; preds = %604
  %610 = add nuw nsw i64 %605, 1
  br label %626

611:                                              ; preds = %604
  %612 = load i64, i64* %600, align 8, !tbaa !34
  %613 = getelementptr inbounds [200005 x [60 x i64]], [200005 x [60 x i64]]* @dp, i64 0, i64 %601, i64 %605
  %614 = load i64, i64* %613, align 8, !tbaa !25
  %615 = icmp slt i64 %607, %614
  %616 = select i1 %615, i64* %606, i64* %613
  %617 = load i64, i64* %616, align 8, !tbaa !25
  store i64 %617, i64* %613, align 8, !tbaa !25
  %618 = add nuw nsw i64 %605, 1
  %619 = getelementptr inbounds [200005 x [60 x i64]], [200005 x [60 x i64]]* @dp, i64 0, i64 %601, i64 %618
  %620 = mul nsw i64 %607, %597
  %621 = add nsw i64 %620, %607
  %622 = add nsw i64 %621, %612
  %623 = load i64, i64* %619, align 8, !tbaa !25
  %624 = icmp slt i64 %622, %623
  %625 = select i1 %624, i64 %622, i64 %623
  store i64 %625, i64* %619, align 8, !tbaa !25
  br label %626

626:                                              ; preds = %609, %611
  %627 = phi i64 [ %610, %609 ], [ %618, %611 ]
  %628 = icmp eq i64 %627, 60
  br i1 %628, label %602, label %604, !llvm.loop !46

629:                                              ; preds = %594
  %630 = trunc i64 %595 to i32
  br label %631

631:                                              ; preds = %602, %629, %462, %589
  %632 = phi i64 [ %590, %589 ], [ %463, %462 ], [ %590, %629 ], [ %590, %602 ]
  %633 = phi i32 [ undef, %589 ], [ undef, %462 ], [ %630, %629 ], [ %460, %602 ]
  %634 = sext i32 %633 to i64
  %635 = load i64*, i64** getelementptr inbounds (%"class.std::vector", %"class.std::vector"* @sum, i64 0, i32 0, i32 0, i32 0, i32 0), align 8
  %636 = load i64*, i64** getelementptr inbounds (%"class.std::vector", %"class.std::vector"* @sum, i64 0, i32 0, i32 0, i32 0, i32 1), align 8
  %637 = ptrtoint i64* %636 to i64
  %638 = ptrtoint i64* %635 to i64
  %639 = sub i64 %637, %638
  %640 = icmp sgt i64 %639, 0
  %641 = lshr exact i64 %639, 3
  br label %673

642:                                              ; preds = %705
  %643 = tail call nonnull align 8 dereferenceable(8) %"class.std::basic_ostream"* @_ZNSolsEi(%"class.std::basic_ostream"* nonnull align 8 dereferenceable(8) @_ZSt4cout, i32 %706)
  %644 = bitcast %"class.std::basic_ostream"* %643 to i8**
  %645 = load i8*, i8** %644, align 8, !tbaa !10
  %646 = getelementptr i8, i8* %645, i64 -24
  %647 = bitcast i8* %646 to i64*
  %648 = load i64, i64* %647, align 8
  %649 = bitcast %"class.std::basic_ostream"* %643 to i8*
  %650 = add nsw i64 %648, 240
  %651 = getelementptr inbounds i8, i8* %649, i64 %650
  %652 = bitcast i8* %651 to %"class.std::ctype"**
  %653 = load %"class.std::ctype"*, %"class.std::ctype"** %652, align 8, !tbaa !47
  %654 = icmp eq %"class.std::ctype"* %653, null
  br i1 %654, label %655, label %656

655:                                              ; preds = %642
  tail call void @_ZSt16__throw_bad_castv() #16
  unreachable

656:                                              ; preds = %642
  %657 = getelementptr inbounds %"class.std::ctype", %"class.std::ctype"* %653, i64 0, i32 8
  %658 = load i8, i8* %657, align 8, !tbaa !48
  %659 = icmp eq i8 %658, 0
  br i1 %659, label %663, label %660

660:                                              ; preds = %656
  %661 = getelementptr inbounds %"class.std::ctype", %"class.std::ctype"* %653, i64 0, i32 9, i64 10
  %662 = load i8, i8* %661, align 1, !tbaa !50
  br label %669

663:                                              ; preds = %656
  tail call void @_ZNKSt5ctypeIcE13_M_widen_initEv(%"class.std::ctype"* nonnull align 8 dereferenceable(570) %653)
  %664 = bitcast %"class.std::ctype"* %653 to i8 (%"class.std::ctype"*, i8)***
  %665 = load i8 (%"class.std::ctype"*, i8)**, i8 (%"class.std::ctype"*, i8)*** %664, align 8, !tbaa !10
  %666 = getelementptr inbounds i8 (%"class.std::ctype"*, i8)*, i8 (%"class.std::ctype"*, i8)** %665, i64 6
  %667 = load i8 (%"class.std::ctype"*, i8)*, i8 (%"class.std::ctype"*, i8)** %666, align 8
  %668 = tail call signext i8 %667(%"class.std::ctype"* nonnull align 8 dereferenceable(570) %653, i8 signext 10)
  br label %669

669:                                              ; preds = %660, %663
  %670 = phi i8 [ %662, %660 ], [ %668, %663 ]
  %671 = tail call nonnull align 8 dereferenceable(8) %"class.std::basic_ostream"* @_ZNSo3putEc(%"class.std::basic_ostream"* nonnull align 8 dereferenceable(8) %643, i8 signext %670)
  %672 = tail call nonnull align 8 dereferenceable(8) %"class.std::basic_ostream"* @_ZNSo5flushEv(%"class.std::basic_ostream"* nonnull align 8 dereferenceable(8) %671)
  ret i32 0

673:                                              ; preds = %631, %705
  %674 = phi i64 [ 0, %631 ], [ %707, %705 ]
  %675 = phi i32 [ 0, %631 ], [ %706, %705 ]
  %676 = getelementptr inbounds [200005 x [60 x i64]], [200005 x [60 x i64]]* @dp, i64 0, i64 %634, i64 %674
  %677 = load i64, i64* %676, align 8, !tbaa !25
  %678 = icmp slt i64 %632, %677
  br i1 %678, label %705, label %679

679:                                              ; preds = %673
  %680 = sub nsw i64 %632, %677
  br i1 %640, label %681, label %694

681:                                              ; preds = %679, %681
  %682 = phi i64 [ %692, %681 ], [ %641, %679 ]
  %683 = phi i64* [ %691, %681 ], [ %635, %679 ]
  %684 = lshr i64 %682, 1
  %685 = getelementptr inbounds i64, i64* %683, i64 %684
  %686 = load i64, i64* %685, align 8, !tbaa !25
  %687 = icmp slt i64 %680, %686
  %688 = getelementptr inbounds i64, i64* %685, i64 1
  %689 = xor i64 %684, -1
  %690 = add i64 %682, %689
  %691 = select i1 %687, i64* %683, i64* %688
  %692 = select i1 %687, i64 %684, i64 %690
  %693 = icmp sgt i64 %692, 0
  br i1 %693, label %681, label %694, !llvm.loop !51

694:                                              ; preds = %681, %679
  %695 = phi i64* [ %635, %679 ], [ %691, %681 ]
  %696 = getelementptr inbounds i64, i64* %695, i64 -1
  %697 = ptrtoint i64* %696 to i64
  %698 = sub i64 %697, %638
  %699 = lshr exact i64 %698, 3
  %700 = trunc i64 %699 to i32
  %701 = trunc i64 %674 to i32
  %702 = add nsw i32 %701, %700
  %703 = icmp slt i32 %675, %702
  %704 = select i1 %703, i32 %702, i32 %675
  br label %705

705:                                              ; preds = %673, %694
  %706 = phi i32 [ %675, %673 ], [ %704, %694 ]
  %707 = add nuw nsw i64 %674, 1
  %708 = icmp eq i64 %707, 60
  br i1 %708, label %642, label %673, !llvm.loop !52
}

declare zeroext i1 @_ZNSt8ios_base15sync_with_stdioEb(i1 zeroext) local_unnamed_addr #0

declare nonnull align 8 dereferenceable(16) %"class.std::basic_istream"* @_ZNSirsERi(%"class.std::basic_istream"* nonnull align 8 dereferenceable(16), i32* nonnull align 4 dereferenceable(4)) local_unnamed_addr #0

; Function Attrs: argmemonly mustprogress nofree nosync nounwind willreturn
declare void @llvm.lifetime.start.p0i8(i64 immarg, i8* nocapture) #6

; Function Attrs: argmemonly mustprogress nofree nosync nounwind willreturn
declare void @llvm.lifetime.end.p0i8(i64 immarg, i8* nocapture) #6

declare nonnull align 8 dereferenceable(8) %"class.std::basic_ostream"* @_ZNSolsEi(%"class.std::basic_ostream"* nonnull align 8 dereferenceable(8), i32) local_unnamed_addr #0

declare i32 @__gxx_personality_v0(...)

; Function Attrs: nobuiltin nounwind
declare void @_ZdlPv(i8*) local_unnamed_addr #7

declare nonnull align 8 dereferenceable(16) %"class.std::basic_istream"* @_ZNSi10_M_extractIxEERSiRT_(%"class.std::basic_istream"* nonnull align 8 dereferenceable(16), i64* nonnull align 8 dereferenceable(8)) local_unnamed_addr #0

; Function Attrs: noreturn
declare void @_ZSt20__throw_length_errorPKc(i8*) local_unnamed_addr #8

; Function Attrs: nobuiltin allocsize(0)
declare nonnull i8* @_Znwm(i64) local_unnamed_addr #9

; Function Attrs: argmemonly mustprogress nofree nounwind willreturn
declare void @llvm.memmove.p0i8.p0i8.i64(i8* nocapture writeonly, i8* nocapture readonly, i64, i1 immarg) #10

; Function Attrs: sspstrong uwtable
define linkonce_odr dso_local void @_ZSt16__introsort_loopIN9__gnu_cxx17__normal_iteratorIPxSt6vectorIxSaIxEEEElNS0_5__ops15_Iter_less_iterEEvT_S9_T0_T1_(i64* %0, i64* %1, i64 %2) local_unnamed_addr #11 comdat {
  %4 = alloca %"struct.__gnu_cxx::__ops::_Iter_less_iter", align 1
  %5 = ptrtoint i64* %0 to i64
  %6 = getelementptr inbounds i64, i64* %0, i64 1
  %7 = ptrtoint i64* %1 to i64
  %8 = sub i64 %7, %5
  %9 = icmp sgt i64 %8, 128
  br i1 %9, label %10, label %123

10:                                               ; preds = %3, %119
  %11 = phi i64 [ %121, %119 ], [ %8, %3 ]
  %12 = phi i64 [ %76, %119 ], [ %2, %3 ]
  %13 = phi i64* [ %107, %119 ], [ %1, %3 ]
  %14 = icmp eq i64 %12, 0
  br i1 %14, label %15, label %74

15:                                               ; preds = %10
  %16 = getelementptr inbounds %"struct.__gnu_cxx::__ops::_Iter_less_iter", %"struct.__gnu_cxx::__ops::_Iter_less_iter"* %4, i64 0, i32 0
  call void @llvm.lifetime.start.p0i8(i64 1, i8* nonnull %16)
  call void @_ZSt11__make_heapIN9__gnu_cxx17__normal_iteratorIPxSt6vectorIxSaIxEEEENS0_5__ops15_Iter_less_iterEEvT_S9_RT0_(i64* %0, i64* %13, %"struct.__gnu_cxx::__ops::_Iter_less_iter"* nonnull align 1 dereferenceable(1) %4)
  call void @llvm.lifetime.end.p0i8(i64 1, i8* nonnull %16)
  br label %17

17:                                               ; preds = %15, %70
  %18 = phi i64* [ %19, %70 ], [ %13, %15 ]
  %19 = getelementptr inbounds i64, i64* %18, i64 -1
  %20 = load i64, i64* %19, align 8, !tbaa !25
  %21 = load i64, i64* %0, align 8, !tbaa !25
  store i64 %21, i64* %19, align 8, !tbaa !25
  %22 = ptrtoint i64* %19 to i64
  %23 = sub i64 %22, %5
  %24 = ashr exact i64 %23, 3
  %25 = add nsw i64 %24, -1
  %26 = sdiv i64 %25, 2
  %27 = icmp sgt i64 %23, 16
  br i1 %27, label %28, label %43

28:                                               ; preds = %17, %28
  %29 = phi i64 [ %38, %28 ], [ 0, %17 ]
  %30 = shl i64 %29, 1
  %31 = add i64 %30, 2
  %32 = getelementptr inbounds i64, i64* %0, i64 %31
  %33 = or i64 %30, 1
  %34 = getelementptr inbounds i64, i64* %0, i64 %33
  %35 = load i64, i64* %32, align 8, !tbaa !25
  %36 = load i64, i64* %34, align 8, !tbaa !25
  %37 = icmp slt i64 %35, %36
  %38 = select i1 %37, i64 %33, i64 %31
  %39 = getelementptr inbounds i64, i64* %0, i64 %38
  %40 = load i64, i64* %39, align 8, !tbaa !25
  %41 = getelementptr inbounds i64, i64* %0, i64 %29
  store i64 %40, i64* %41, align 8, !tbaa !25
  %42 = icmp slt i64 %38, %26
  br i1 %42, label %28, label %43, !llvm.loop !53

43:                                               ; preds = %28, %17
  %44 = phi i64 [ 0, %17 ], [ %38, %28 ]
  %45 = and i64 %23, 8
  %46 = icmp eq i64 %45, 0
  br i1 %46, label %47, label %57

47:                                               ; preds = %43
  %48 = add nsw i64 %24, -2
  %49 = sdiv i64 %48, 2
  %50 = icmp eq i64 %44, %49
  br i1 %50, label %51, label %57

51:                                               ; preds = %47
  %52 = shl i64 %44, 1
  %53 = or i64 %52, 1
  %54 = getelementptr inbounds i64, i64* %0, i64 %53
  %55 = load i64, i64* %54, align 8, !tbaa !25
  %56 = getelementptr inbounds i64, i64* %0, i64 %44
  store i64 %55, i64* %56, align 8, !tbaa !25
  br label %57

57:                                               ; preds = %51, %47, %43
  %58 = phi i64 [ %53, %51 ], [ %44, %47 ], [ %44, %43 ]
  %59 = icmp sgt i64 %58, 0
  br i1 %59, label %60, label %70

60:                                               ; preds = %57, %67
  %61 = phi i64 [ %63, %67 ], [ %58, %57 ]
  %62 = add nsw i64 %61, -1
  %63 = lshr i64 %62, 1
  %64 = getelementptr inbounds i64, i64* %0, i64 %63
  %65 = load i64, i64* %64, align 8, !tbaa !25
  %66 = icmp slt i64 %65, %20
  br i1 %66, label %67, label %70

67:                                               ; preds = %60
  %68 = getelementptr inbounds i64, i64* %0, i64 %61
  store i64 %65, i64* %68, align 8, !tbaa !25
  %69 = icmp ult i64 %62, 2
  br i1 %69, label %70, label %60, !llvm.loop !54

70:                                               ; preds = %67, %60, %57
  %71 = phi i64 [ %58, %57 ], [ %61, %60 ], [ 0, %67 ]
  %72 = getelementptr inbounds i64, i64* %0, i64 %71
  store i64 %20, i64* %72, align 8, !tbaa !25
  %73 = icmp sgt i64 %23, 8
  br i1 %73, label %17, label %123, !llvm.loop !55

74:                                               ; preds = %10
  %75 = lshr i64 %11, 4
  %76 = add nsw i64 %12, -1
  %77 = getelementptr inbounds i64, i64* %0, i64 %75
  %78 = getelementptr inbounds i64, i64* %13, i64 -1
  %79 = load i64, i64* %6, align 8, !tbaa !25
  %80 = load i64, i64* %77, align 8, !tbaa !25
  %81 = icmp slt i64 %79, %80
  %82 = load i64, i64* %78, align 8, !tbaa !25
  br i1 %81, label %83, label %92

83:                                               ; preds = %74
  %84 = icmp slt i64 %80, %82
  br i1 %84, label %85, label %87

85:                                               ; preds = %83
  %86 = load i64, i64* %0, align 8, !tbaa !25
  store i64 %80, i64* %0, align 8, !tbaa !25
  store i64 %86, i64* %77, align 8, !tbaa !25
  br label %101

87:                                               ; preds = %83
  %88 = icmp slt i64 %79, %82
  %89 = load i64, i64* %0, align 8, !tbaa !25
  br i1 %88, label %90, label %91

90:                                               ; preds = %87
  store i64 %82, i64* %0, align 8, !tbaa !25
  store i64 %89, i64* %78, align 8, !tbaa !25
  br label %101

91:                                               ; preds = %87
  store i64 %79, i64* %0, align 8, !tbaa !25
  store i64 %89, i64* %6, align 8, !tbaa !25
  br label %101

92:                                               ; preds = %74
  %93 = icmp slt i64 %79, %82
  br i1 %93, label %94, label %96

94:                                               ; preds = %92
  %95 = load i64, i64* %0, align 8, !tbaa !25
  store i64 %79, i64* %0, align 8, !tbaa !25
  store i64 %95, i64* %6, align 8, !tbaa !25
  br label %101

96:                                               ; preds = %92
  %97 = icmp slt i64 %80, %82
  %98 = load i64, i64* %0, align 8, !tbaa !25
  br i1 %97, label %99, label %100

99:                                               ; preds = %96
  store i64 %82, i64* %0, align 8, !tbaa !25
  store i64 %98, i64* %78, align 8, !tbaa !25
  br label %101

100:                                              ; preds = %96
  store i64 %80, i64* %0, align 8, !tbaa !25
  store i64 %98, i64* %77, align 8, !tbaa !25
  br label %101

101:                                              ; preds = %100, %99, %94, %91, %90, %85
  br label %102

102:                                              ; preds = %101, %118
  %103 = phi i64* [ %110, %118 ], [ %6, %101 ]
  %104 = phi i64* [ %113, %118 ], [ %13, %101 ]
  %105 = load i64, i64* %0, align 8, !tbaa !25
  br label %106

106:                                              ; preds = %106, %102
  %107 = phi i64* [ %103, %102 ], [ %110, %106 ]
  %108 = load i64, i64* %107, align 8, !tbaa !25
  %109 = icmp slt i64 %108, %105
  %110 = getelementptr inbounds i64, i64* %107, i64 1
  br i1 %109, label %106, label %111, !llvm.loop !56

111:                                              ; preds = %106, %111
  %112 = phi i64* [ %113, %111 ], [ %104, %106 ]
  %113 = getelementptr inbounds i64, i64* %112, i64 -1
  %114 = load i64, i64* %113, align 8, !tbaa !25
  %115 = icmp slt i64 %105, %114
  br i1 %115, label %111, label %116, !llvm.loop !57

116:                                              ; preds = %111
  %117 = icmp ult i64* %107, %113
  br i1 %117, label %118, label %119

118:                                              ; preds = %116
  store i64 %114, i64* %107, align 8, !tbaa !25
  store i64 %108, i64* %113, align 8, !tbaa !25
  br label %102, !llvm.loop !58

119:                                              ; preds = %116
  tail call void @_ZSt16__introsort_loopIN9__gnu_cxx17__normal_iteratorIPxSt6vectorIxSaIxEEEElNS0_5__ops15_Iter_less_iterEEvT_S9_T0_T1_(i64* nonnull %107, i64* %13, i64 %76)
  %120 = ptrtoint i64* %107 to i64
  %121 = sub i64 %120, %5
  %122 = icmp sgt i64 %121, 128
  br i1 %122, label %10, label %123, !llvm.loop !59

123:                                              ; preds = %119, %70, %3
  ret void
}

; Function Attrs: sspstrong uwtable
define linkonce_odr dso_local void @_ZSt22__final_insertion_sortIN9__gnu_cxx17__normal_iteratorIPxSt6vectorIxSaIxEEEENS0_5__ops15_Iter_less_iterEEvT_S9_T0_(i64* %0, i64* %1) local_unnamed_addr #11 comdat {
  %3 = ptrtoint i64* %1 to i64
  %4 = ptrtoint i64* %0 to i64
  %5 = sub i64 %3, %4
  %6 = icmp sgt i64 %5, 128
  br i1 %6, label %7, label %38

7:                                                ; preds = %2
  %8 = bitcast i64* %0 to i8*
  %9 = getelementptr i64, i64* %0, i64 1
  %10 = load i64, i64* %9, align 8, !tbaa !25
  %11 = load i64, i64* %0, align 8, !tbaa !25
  %12 = icmp slt i64 %10, %11
  br i1 %12, label %13, label %15

13:                                               ; preds = %7
  %14 = load i64, i64* %0, align 8
  store i64 %14, i64* %9, align 8
  br label %15

15:                                               ; preds = %7, %13
  %16 = phi i64* [ %0, %13 ], [ %9, %7 ]
  store i64 %10, i64* %16, align 8, !tbaa !25
  %17 = getelementptr inbounds i64, i64* %0, i64 2
  %18 = load i64, i64* %17, align 8, !tbaa !25
  %19 = load i64, i64* %0, align 8, !tbaa !25
  %20 = icmp slt i64 %18, %19
  br i1 %20, label %84, label %74

21:                                               ; preds = %320, %34
  %22 = phi i64* [ %36, %34 ], [ %322, %320 ]
  %23 = load i64, i64* %22, align 8, !tbaa !25
  %24 = getelementptr inbounds i64, i64* %22, i64 -1
  %25 = load i64, i64* %24, align 8, !tbaa !25
  %26 = icmp slt i64 %23, %25
  br i1 %26, label %27, label %34

27:                                               ; preds = %21, %27
  %28 = phi i64 [ %32, %27 ], [ %25, %21 ]
  %29 = phi i64* [ %31, %27 ], [ %24, %21 ]
  %30 = phi i64* [ %29, %27 ], [ %22, %21 ]
  store i64 %28, i64* %30, align 8, !tbaa !25
  %31 = getelementptr inbounds i64, i64* %29, i64 -1
  %32 = load i64, i64* %31, align 8, !tbaa !25
  %33 = icmp slt i64 %23, %32
  br i1 %33, label %27, label %34, !llvm.loop !60

34:                                               ; preds = %27, %21
  %35 = phi i64* [ %22, %21 ], [ %29, %27 ]
  store i64 %23, i64* %35, align 8, !tbaa !25
  %36 = getelementptr inbounds i64, i64* %22, i64 1
  %37 = icmp eq i64* %36, %1
  br i1 %37, label %73, label %21, !llvm.loop !61

38:                                               ; preds = %2
  %39 = icmp eq i64* %0, %1
  br i1 %39, label %73, label %40

40:                                               ; preds = %38
  %41 = bitcast i64* %0 to i8*
  %42 = getelementptr inbounds i64, i64* %0, i64 1
  %43 = icmp eq i64* %42, %1
  br i1 %43, label %73, label %44

44:                                               ; preds = %40, %69
  %45 = phi i64* [ %71, %69 ], [ %42, %40 ]
  %46 = phi i64* [ %45, %69 ], [ %0, %40 ]
  %47 = load i64, i64* %45, align 8, !tbaa !25
  %48 = load i64, i64* %0, align 8, !tbaa !25
  %49 = icmp slt i64 %47, %48
  br i1 %49, label %50, label %59

50:                                               ; preds = %44
  %51 = ptrtoint i64* %45 to i64
  %52 = sub i64 %51, %4
  %53 = icmp eq i64 %52, 0
  br i1 %53, label %69, label %54

54:                                               ; preds = %50
  %55 = ashr exact i64 %52, 3
  %56 = sub nsw i64 2, %55
  %57 = getelementptr inbounds i64, i64* %46, i64 %56
  %58 = bitcast i64* %57 to i8*
  tail call void @llvm.memmove.p0i8.p0i8.i64(i8* nonnull align 8 %58, i8* nonnull align 8 %41, i64 %52, i1 false) #15
  br label %69

59:                                               ; preds = %44
  %60 = load i64, i64* %46, align 8, !tbaa !25
  %61 = icmp slt i64 %47, %60
  br i1 %61, label %62, label %69

62:                                               ; preds = %59, %62
  %63 = phi i64 [ %67, %62 ], [ %60, %59 ]
  %64 = phi i64* [ %66, %62 ], [ %46, %59 ]
  %65 = phi i64* [ %64, %62 ], [ %45, %59 ]
  store i64 %63, i64* %65, align 8, !tbaa !25
  %66 = getelementptr inbounds i64, i64* %64, i64 -1
  %67 = load i64, i64* %66, align 8, !tbaa !25
  %68 = icmp slt i64 %47, %67
  br i1 %68, label %62, label %69, !llvm.loop !60

69:                                               ; preds = %62, %59, %54, %50
  %70 = phi i64* [ %0, %50 ], [ %0, %54 ], [ %45, %59 ], [ %64, %62 ]
  store i64 %47, i64* %70, align 8, !tbaa !25
  %71 = getelementptr inbounds i64, i64* %45, i64 1
  %72 = icmp eq i64* %71, %1
  br i1 %72, label %73, label %44, !llvm.loop !62

73:                                               ; preds = %69, %34, %40, %38, %320
  ret void

74:                                               ; preds = %15
  %75 = load i64, i64* %9, align 8, !tbaa !25
  %76 = icmp slt i64 %18, %75
  br i1 %76, label %77, label %86

77:                                               ; preds = %74, %77
  %78 = phi i64 [ %82, %77 ], [ %75, %74 ]
  %79 = phi i64* [ %81, %77 ], [ %9, %74 ]
  %80 = phi i64* [ %79, %77 ], [ %17, %74 ]
  store i64 %78, i64* %80, align 8, !tbaa !25
  %81 = getelementptr inbounds i64, i64* %79, i64 -1
  %82 = load i64, i64* %81, align 8, !tbaa !25
  %83 = icmp slt i64 %18, %82
  br i1 %83, label %77, label %86, !llvm.loop !60

84:                                               ; preds = %15
  %85 = bitcast i64* %9 to i8*
  tail call void @llvm.memmove.p0i8.p0i8.i64(i8* noundef nonnull align 8 dereferenceable(16) %85, i8* noundef nonnull align 8 dereferenceable(16) %8, i64 16, i1 false) #15
  br label %86

86:                                               ; preds = %77, %84, %74
  %87 = phi i64* [ %0, %84 ], [ %17, %74 ], [ %79, %77 ]
  store i64 %18, i64* %87, align 8, !tbaa !25
  %88 = getelementptr inbounds i64, i64* %0, i64 3
  %89 = load i64, i64* %88, align 8, !tbaa !25
  %90 = load i64, i64* %0, align 8, !tbaa !25
  %91 = icmp slt i64 %89, %90
  br i1 %91, label %102, label %92

92:                                               ; preds = %86
  %93 = load i64, i64* %17, align 8, !tbaa !25
  %94 = icmp slt i64 %89, %93
  br i1 %94, label %95, label %104

95:                                               ; preds = %92, %95
  %96 = phi i64 [ %100, %95 ], [ %93, %92 ]
  %97 = phi i64* [ %99, %95 ], [ %17, %92 ]
  %98 = phi i64* [ %97, %95 ], [ %88, %92 ]
  store i64 %96, i64* %98, align 8, !tbaa !25
  %99 = getelementptr inbounds i64, i64* %97, i64 -1
  %100 = load i64, i64* %99, align 8, !tbaa !25
  %101 = icmp slt i64 %89, %100
  br i1 %101, label %95, label %104, !llvm.loop !60

102:                                              ; preds = %86
  %103 = bitcast i64* %9 to i8*
  tail call void @llvm.memmove.p0i8.p0i8.i64(i8* noundef nonnull align 8 dereferenceable(24) %103, i8* noundef nonnull align 8 dereferenceable(24) %8, i64 24, i1 false) #15
  br label %104

104:                                              ; preds = %95, %102, %92
  %105 = phi i64* [ %0, %102 ], [ %88, %92 ], [ %97, %95 ]
  store i64 %89, i64* %105, align 8, !tbaa !25
  %106 = getelementptr inbounds i64, i64* %0, i64 4
  %107 = load i64, i64* %106, align 8, !tbaa !25
  %108 = load i64, i64* %0, align 8, !tbaa !25
  %109 = icmp slt i64 %107, %108
  br i1 %109, label %120, label %110

110:                                              ; preds = %104
  %111 = load i64, i64* %88, align 8, !tbaa !25
  %112 = icmp slt i64 %107, %111
  br i1 %112, label %113, label %122

113:                                              ; preds = %110, %113
  %114 = phi i64 [ %118, %113 ], [ %111, %110 ]
  %115 = phi i64* [ %117, %113 ], [ %88, %110 ]
  %116 = phi i64* [ %115, %113 ], [ %106, %110 ]
  store i64 %114, i64* %116, align 8, !tbaa !25
  %117 = getelementptr inbounds i64, i64* %115, i64 -1
  %118 = load i64, i64* %117, align 8, !tbaa !25
  %119 = icmp slt i64 %107, %118
  br i1 %119, label %113, label %122, !llvm.loop !60

120:                                              ; preds = %104
  %121 = bitcast i64* %9 to i8*
  tail call void @llvm.memmove.p0i8.p0i8.i64(i8* noundef nonnull align 8 dereferenceable(32) %121, i8* noundef nonnull align 8 dereferenceable(32) %8, i64 32, i1 false) #15
  br label %122

122:                                              ; preds = %113, %120, %110
  %123 = phi i64* [ %0, %120 ], [ %106, %110 ], [ %115, %113 ]
  store i64 %107, i64* %123, align 8, !tbaa !25
  %124 = getelementptr inbounds i64, i64* %0, i64 5
  %125 = load i64, i64* %124, align 8, !tbaa !25
  %126 = load i64, i64* %0, align 8, !tbaa !25
  %127 = icmp slt i64 %125, %126
  br i1 %127, label %138, label %128

128:                                              ; preds = %122
  %129 = load i64, i64* %106, align 8, !tbaa !25
  %130 = icmp slt i64 %125, %129
  br i1 %130, label %131, label %140

131:                                              ; preds = %128, %131
  %132 = phi i64 [ %136, %131 ], [ %129, %128 ]
  %133 = phi i64* [ %135, %131 ], [ %106, %128 ]
  %134 = phi i64* [ %133, %131 ], [ %124, %128 ]
  store i64 %132, i64* %134, align 8, !tbaa !25
  %135 = getelementptr inbounds i64, i64* %133, i64 -1
  %136 = load i64, i64* %135, align 8, !tbaa !25
  %137 = icmp slt i64 %125, %136
  br i1 %137, label %131, label %140, !llvm.loop !60

138:                                              ; preds = %122
  %139 = bitcast i64* %9 to i8*
  tail call void @llvm.memmove.p0i8.p0i8.i64(i8* noundef nonnull align 8 dereferenceable(40) %139, i8* noundef nonnull align 8 dereferenceable(40) %8, i64 40, i1 false) #15
  br label %140

140:                                              ; preds = %131, %138, %128
  %141 = phi i64* [ %0, %138 ], [ %124, %128 ], [ %133, %131 ]
  store i64 %125, i64* %141, align 8, !tbaa !25
  %142 = getelementptr inbounds i64, i64* %0, i64 6
  %143 = load i64, i64* %142, align 8, !tbaa !25
  %144 = load i64, i64* %0, align 8, !tbaa !25
  %145 = icmp slt i64 %143, %144
  br i1 %145, label %156, label %146

146:                                              ; preds = %140
  %147 = load i64, i64* %124, align 8, !tbaa !25
  %148 = icmp slt i64 %143, %147
  br i1 %148, label %149, label %158

149:                                              ; preds = %146, %149
  %150 = phi i64 [ %154, %149 ], [ %147, %146 ]
  %151 = phi i64* [ %153, %149 ], [ %124, %146 ]
  %152 = phi i64* [ %151, %149 ], [ %142, %146 ]
  store i64 %150, i64* %152, align 8, !tbaa !25
  %153 = getelementptr inbounds i64, i64* %151, i64 -1
  %154 = load i64, i64* %153, align 8, !tbaa !25
  %155 = icmp slt i64 %143, %154
  br i1 %155, label %149, label %158, !llvm.loop !60

156:                                              ; preds = %140
  %157 = bitcast i64* %9 to i8*
  tail call void @llvm.memmove.p0i8.p0i8.i64(i8* noundef nonnull align 8 dereferenceable(48) %157, i8* noundef nonnull align 8 dereferenceable(48) %8, i64 48, i1 false) #15
  br label %158

158:                                              ; preds = %149, %156, %146
  %159 = phi i64* [ %0, %156 ], [ %142, %146 ], [ %151, %149 ]
  store i64 %143, i64* %159, align 8, !tbaa !25
  %160 = getelementptr inbounds i64, i64* %0, i64 7
  %161 = load i64, i64* %160, align 8, !tbaa !25
  %162 = load i64, i64* %0, align 8, !tbaa !25
  %163 = icmp slt i64 %161, %162
  br i1 %163, label %174, label %164

164:                                              ; preds = %158
  %165 = load i64, i64* %142, align 8, !tbaa !25
  %166 = icmp slt i64 %161, %165
  br i1 %166, label %167, label %176

167:                                              ; preds = %164, %167
  %168 = phi i64 [ %172, %167 ], [ %165, %164 ]
  %169 = phi i64* [ %171, %167 ], [ %142, %164 ]
  %170 = phi i64* [ %169, %167 ], [ %160, %164 ]
  store i64 %168, i64* %170, align 8, !tbaa !25
  %171 = getelementptr inbounds i64, i64* %169, i64 -1
  %172 = load i64, i64* %171, align 8, !tbaa !25
  %173 = icmp slt i64 %161, %172
  br i1 %173, label %167, label %176, !llvm.loop !60

174:                                              ; preds = %158
  %175 = bitcast i64* %9 to i8*
  tail call void @llvm.memmove.p0i8.p0i8.i64(i8* noundef nonnull align 8 dereferenceable(56) %175, i8* noundef nonnull align 8 dereferenceable(56) %8, i64 56, i1 false) #15
  br label %176

176:                                              ; preds = %167, %174, %164
  %177 = phi i64* [ %0, %174 ], [ %160, %164 ], [ %169, %167 ]
  store i64 %161, i64* %177, align 8, !tbaa !25
  %178 = getelementptr inbounds i64, i64* %0, i64 8
  %179 = load i64, i64* %178, align 8, !tbaa !25
  %180 = load i64, i64* %0, align 8, !tbaa !25
  %181 = icmp slt i64 %179, %180
  br i1 %181, label %192, label %182

182:                                              ; preds = %176
  %183 = load i64, i64* %160, align 8, !tbaa !25
  %184 = icmp slt i64 %179, %183
  br i1 %184, label %185, label %194

185:                                              ; preds = %182, %185
  %186 = phi i64 [ %190, %185 ], [ %183, %182 ]
  %187 = phi i64* [ %189, %185 ], [ %160, %182 ]
  %188 = phi i64* [ %187, %185 ], [ %178, %182 ]
  store i64 %186, i64* %188, align 8, !tbaa !25
  %189 = getelementptr inbounds i64, i64* %187, i64 -1
  %190 = load i64, i64* %189, align 8, !tbaa !25
  %191 = icmp slt i64 %179, %190
  br i1 %191, label %185, label %194, !llvm.loop !60

192:                                              ; preds = %176
  %193 = bitcast i64* %9 to i8*
  tail call void @llvm.memmove.p0i8.p0i8.i64(i8* noundef nonnull align 8 dereferenceable(64) %193, i8* noundef nonnull align 8 dereferenceable(64) %8, i64 64, i1 false) #15
  br label %194

194:                                              ; preds = %185, %192, %182
  %195 = phi i64* [ %0, %192 ], [ %178, %182 ], [ %187, %185 ]
  store i64 %179, i64* %195, align 8, !tbaa !25
  %196 = getelementptr inbounds i64, i64* %0, i64 9
  %197 = load i64, i64* %196, align 8, !tbaa !25
  %198 = load i64, i64* %0, align 8, !tbaa !25
  %199 = icmp slt i64 %197, %198
  br i1 %199, label %210, label %200

200:                                              ; preds = %194
  %201 = load i64, i64* %178, align 8, !tbaa !25
  %202 = icmp slt i64 %197, %201
  br i1 %202, label %203, label %212

203:                                              ; preds = %200, %203
  %204 = phi i64 [ %208, %203 ], [ %201, %200 ]
  %205 = phi i64* [ %207, %203 ], [ %178, %200 ]
  %206 = phi i64* [ %205, %203 ], [ %196, %200 ]
  store i64 %204, i64* %206, align 8, !tbaa !25
  %207 = getelementptr inbounds i64, i64* %205, i64 -1
  %208 = load i64, i64* %207, align 8, !tbaa !25
  %209 = icmp slt i64 %197, %208
  br i1 %209, label %203, label %212, !llvm.loop !60

210:                                              ; preds = %194
  %211 = bitcast i64* %9 to i8*
  tail call void @llvm.memmove.p0i8.p0i8.i64(i8* noundef nonnull align 8 dereferenceable(72) %211, i8* noundef nonnull align 8 dereferenceable(72) %8, i64 72, i1 false) #15
  br label %212

212:                                              ; preds = %203, %210, %200
  %213 = phi i64* [ %0, %210 ], [ %196, %200 ], [ %205, %203 ]
  store i64 %197, i64* %213, align 8, !tbaa !25
  %214 = getelementptr inbounds i64, i64* %0, i64 10
  %215 = load i64, i64* %214, align 8, !tbaa !25
  %216 = load i64, i64* %0, align 8, !tbaa !25
  %217 = icmp slt i64 %215, %216
  br i1 %217, label %228, label %218

218:                                              ; preds = %212
  %219 = load i64, i64* %196, align 8, !tbaa !25
  %220 = icmp slt i64 %215, %219
  br i1 %220, label %221, label %230

221:                                              ; preds = %218, %221
  %222 = phi i64 [ %226, %221 ], [ %219, %218 ]
  %223 = phi i64* [ %225, %221 ], [ %196, %218 ]
  %224 = phi i64* [ %223, %221 ], [ %214, %218 ]
  store i64 %222, i64* %224, align 8, !tbaa !25
  %225 = getelementptr inbounds i64, i64* %223, i64 -1
  %226 = load i64, i64* %225, align 8, !tbaa !25
  %227 = icmp slt i64 %215, %226
  br i1 %227, label %221, label %230, !llvm.loop !60

228:                                              ; preds = %212
  %229 = bitcast i64* %9 to i8*
  tail call void @llvm.memmove.p0i8.p0i8.i64(i8* noundef nonnull align 8 dereferenceable(80) %229, i8* noundef nonnull align 8 dereferenceable(80) %8, i64 80, i1 false) #15
  br label %230

230:                                              ; preds = %221, %228, %218
  %231 = phi i64* [ %0, %228 ], [ %214, %218 ], [ %223, %221 ]
  store i64 %215, i64* %231, align 8, !tbaa !25
  %232 = getelementptr inbounds i64, i64* %0, i64 11
  %233 = load i64, i64* %232, align 8, !tbaa !25
  %234 = load i64, i64* %0, align 8, !tbaa !25
  %235 = icmp slt i64 %233, %234
  br i1 %235, label %246, label %236

236:                                              ; preds = %230
  %237 = load i64, i64* %214, align 8, !tbaa !25
  %238 = icmp slt i64 %233, %237
  br i1 %238, label %239, label %248

239:                                              ; preds = %236, %239
  %240 = phi i64 [ %244, %239 ], [ %237, %236 ]
  %241 = phi i64* [ %243, %239 ], [ %214, %236 ]
  %242 = phi i64* [ %241, %239 ], [ %232, %236 ]
  store i64 %240, i64* %242, align 8, !tbaa !25
  %243 = getelementptr inbounds i64, i64* %241, i64 -1
  %244 = load i64, i64* %243, align 8, !tbaa !25
  %245 = icmp slt i64 %233, %244
  br i1 %245, label %239, label %248, !llvm.loop !60

246:                                              ; preds = %230
  %247 = bitcast i64* %9 to i8*
  tail call void @llvm.memmove.p0i8.p0i8.i64(i8* noundef nonnull align 8 dereferenceable(88) %247, i8* noundef nonnull align 8 dereferenceable(88) %8, i64 88, i1 false) #15
  br label %248

248:                                              ; preds = %239, %246, %236
  %249 = phi i64* [ %0, %246 ], [ %232, %236 ], [ %241, %239 ]
  store i64 %233, i64* %249, align 8, !tbaa !25
  %250 = getelementptr inbounds i64, i64* %0, i64 12
  %251 = load i64, i64* %250, align 8, !tbaa !25
  %252 = load i64, i64* %0, align 8, !tbaa !25
  %253 = icmp slt i64 %251, %252
  br i1 %253, label %264, label %254

254:                                              ; preds = %248
  %255 = load i64, i64* %232, align 8, !tbaa !25
  %256 = icmp slt i64 %251, %255
  br i1 %256, label %257, label %266

257:                                              ; preds = %254, %257
  %258 = phi i64 [ %262, %257 ], [ %255, %254 ]
  %259 = phi i64* [ %261, %257 ], [ %232, %254 ]
  %260 = phi i64* [ %259, %257 ], [ %250, %254 ]
  store i64 %258, i64* %260, align 8, !tbaa !25
  %261 = getelementptr inbounds i64, i64* %259, i64 -1
  %262 = load i64, i64* %261, align 8, !tbaa !25
  %263 = icmp slt i64 %251, %262
  br i1 %263, label %257, label %266, !llvm.loop !60

264:                                              ; preds = %248
  %265 = bitcast i64* %9 to i8*
  tail call void @llvm.memmove.p0i8.p0i8.i64(i8* noundef nonnull align 8 dereferenceable(96) %265, i8* noundef nonnull align 8 dereferenceable(96) %8, i64 96, i1 false) #15
  br label %266

266:                                              ; preds = %257, %264, %254
  %267 = phi i64* [ %0, %264 ], [ %250, %254 ], [ %259, %257 ]
  store i64 %251, i64* %267, align 8, !tbaa !25
  %268 = getelementptr inbounds i64, i64* %0, i64 13
  %269 = load i64, i64* %268, align 8, !tbaa !25
  %270 = load i64, i64* %0, align 8, !tbaa !25
  %271 = icmp slt i64 %269, %270
  br i1 %271, label %282, label %272

272:                                              ; preds = %266
  %273 = load i64, i64* %250, align 8, !tbaa !25
  %274 = icmp slt i64 %269, %273
  br i1 %274, label %275, label %284

275:                                              ; preds = %272, %275
  %276 = phi i64 [ %280, %275 ], [ %273, %272 ]
  %277 = phi i64* [ %279, %275 ], [ %250, %272 ]
  %278 = phi i64* [ %277, %275 ], [ %268, %272 ]
  store i64 %276, i64* %278, align 8, !tbaa !25
  %279 = getelementptr inbounds i64, i64* %277, i64 -1
  %280 = load i64, i64* %279, align 8, !tbaa !25
  %281 = icmp slt i64 %269, %280
  br i1 %281, label %275, label %284, !llvm.loop !60

282:                                              ; preds = %266
  %283 = bitcast i64* %9 to i8*
  tail call void @llvm.memmove.p0i8.p0i8.i64(i8* noundef nonnull align 8 dereferenceable(104) %283, i8* noundef nonnull align 8 dereferenceable(104) %8, i64 104, i1 false) #15
  br label %284

284:                                              ; preds = %275, %282, %272
  %285 = phi i64* [ %0, %282 ], [ %268, %272 ], [ %277, %275 ]
  store i64 %269, i64* %285, align 8, !tbaa !25
  %286 = getelementptr inbounds i64, i64* %0, i64 14
  %287 = load i64, i64* %286, align 8, !tbaa !25
  %288 = load i64, i64* %0, align 8, !tbaa !25
  %289 = icmp slt i64 %287, %288
  br i1 %289, label %300, label %290

290:                                              ; preds = %284
  %291 = load i64, i64* %268, align 8, !tbaa !25
  %292 = icmp slt i64 %287, %291
  br i1 %292, label %293, label %302

293:                                              ; preds = %290, %293
  %294 = phi i64 [ %298, %293 ], [ %291, %290 ]
  %295 = phi i64* [ %297, %293 ], [ %268, %290 ]
  %296 = phi i64* [ %295, %293 ], [ %286, %290 ]
  store i64 %294, i64* %296, align 8, !tbaa !25
  %297 = getelementptr inbounds i64, i64* %295, i64 -1
  %298 = load i64, i64* %297, align 8, !tbaa !25
  %299 = icmp slt i64 %287, %298
  br i1 %299, label %293, label %302, !llvm.loop !60

300:                                              ; preds = %284
  %301 = bitcast i64* %9 to i8*
  tail call void @llvm.memmove.p0i8.p0i8.i64(i8* noundef nonnull align 8 dereferenceable(112) %301, i8* noundef nonnull align 8 dereferenceable(112) %8, i64 112, i1 false) #15
  br label %302

302:                                              ; preds = %293, %300, %290
  %303 = phi i64* [ %0, %300 ], [ %286, %290 ], [ %295, %293 ]
  store i64 %287, i64* %303, align 8, !tbaa !25
  %304 = getelementptr inbounds i64, i64* %0, i64 15
  %305 = load i64, i64* %304, align 8, !tbaa !25
  %306 = load i64, i64* %0, align 8, !tbaa !25
  %307 = icmp slt i64 %305, %306
  br i1 %307, label %318, label %308

308:                                              ; preds = %302
  %309 = load i64, i64* %286, align 8, !tbaa !25
  %310 = icmp slt i64 %305, %309
  br i1 %310, label %311, label %320

311:                                              ; preds = %308, %311
  %312 = phi i64 [ %316, %311 ], [ %309, %308 ]
  %313 = phi i64* [ %315, %311 ], [ %286, %308 ]
  %314 = phi i64* [ %313, %311 ], [ %304, %308 ]
  store i64 %312, i64* %314, align 8, !tbaa !25
  %315 = getelementptr inbounds i64, i64* %313, i64 -1
  %316 = load i64, i64* %315, align 8, !tbaa !25
  %317 = icmp slt i64 %305, %316
  br i1 %317, label %311, label %320, !llvm.loop !60

318:                                              ; preds = %302
  %319 = bitcast i64* %9 to i8*
  tail call void @llvm.memmove.p0i8.p0i8.i64(i8* noundef nonnull align 8 dereferenceable(120) %319, i8* noundef nonnull align 8 dereferenceable(120) %8, i64 120, i1 false) #15
  br label %320

320:                                              ; preds = %311, %318, %308
  %321 = phi i64* [ %0, %318 ], [ %304, %308 ], [ %313, %311 ]
  store i64 %305, i64* %321, align 8, !tbaa !25
  %322 = getelementptr inbounds i64, i64* %0, i64 16
  %323 = icmp eq i64* %322, %1
  br i1 %323, label %73, label %21
}

; Function Attrs: sspstrong uwtable
define linkonce_odr dso_local void @_ZSt11__make_heapIN9__gnu_cxx17__normal_iteratorIPxSt6vectorIxSaIxEEEENS0_5__ops15_Iter_less_iterEEvT_S9_RT0_(i64* %0, i64* %1, %"struct.__gnu_cxx::__ops::_Iter_less_iter"* nonnull align 1 dereferenceable(1) %2) local_unnamed_addr #11 comdat {
  %4 = ptrtoint i64* %1 to i64
  %5 = ptrtoint i64* %0 to i64
  %6 = sub i64 %4, %5
  %7 = ashr exact i64 %6, 3
  %8 = icmp slt i64 %6, 16
  br i1 %8, label %100, label %9

9:                                                ; preds = %3
  %10 = add nsw i64 %7, -2
  %11 = lshr i64 %10, 1
  %12 = add nsw i64 %7, -1
  %13 = sdiv i64 %12, 2
  %14 = and i64 %6, 8
  %15 = icmp eq i64 %14, 0
  br i1 %15, label %16, label %20

16:                                               ; preds = %9
  %17 = or i64 %10, 1
  %18 = getelementptr inbounds i64, i64* %0, i64 %17
  %19 = getelementptr inbounds i64, i64* %0, i64 %11
  br label %57

20:                                               ; preds = %9, %52
  %21 = phi i64 [ %56, %52 ], [ %11, %9 ]
  %22 = getelementptr inbounds i64, i64* %0, i64 %21
  %23 = load i64, i64* %22, align 8, !tbaa !25
  %24 = icmp sgt i64 %13, %21
  br i1 %24, label %25, label %52

25:                                               ; preds = %20, %25
  %26 = phi i64 [ %35, %25 ], [ %21, %20 ]
  %27 = shl i64 %26, 1
  %28 = add i64 %27, 2
  %29 = getelementptr inbounds i64, i64* %0, i64 %28
  %30 = or i64 %27, 1
  %31 = getelementptr inbounds i64, i64* %0, i64 %30
  %32 = load i64, i64* %29, align 8, !tbaa !25
  %33 = load i64, i64* %31, align 8, !tbaa !25
  %34 = icmp slt i64 %32, %33
  %35 = select i1 %34, i64 %30, i64 %28
  %36 = getelementptr inbounds i64, i64* %0, i64 %35
  %37 = load i64, i64* %36, align 8, !tbaa !25
  %38 = getelementptr inbounds i64, i64* %0, i64 %26
  store i64 %37, i64* %38, align 8, !tbaa !25
  %39 = icmp slt i64 %35, %13
  br i1 %39, label %25, label %40, !llvm.loop !53

40:                                               ; preds = %25
  %41 = icmp sgt i64 %35, %21
  br i1 %41, label %42, label %52

42:                                               ; preds = %40, %49
  %43 = phi i64 [ %45, %49 ], [ %35, %40 ]
  %44 = add nsw i64 %43, -1
  %45 = sdiv i64 %44, 2
  %46 = getelementptr inbounds i64, i64* %0, i64 %45
  %47 = load i64, i64* %46, align 8, !tbaa !25
  %48 = icmp slt i64 %47, %23
  br i1 %48, label %49, label %52

49:                                               ; preds = %42
  %50 = getelementptr inbounds i64, i64* %0, i64 %43
  store i64 %47, i64* %50, align 8, !tbaa !25
  %51 = icmp sgt i64 %45, %21
  br i1 %51, label %42, label %52, !llvm.loop !54

52:                                               ; preds = %42, %49, %20, %40
  %53 = phi i64 [ %35, %40 ], [ %21, %20 ], [ %45, %49 ], [ %43, %42 ]
  %54 = getelementptr inbounds i64, i64* %0, i64 %53
  store i64 %23, i64* %54, align 8, !tbaa !25
  %55 = icmp eq i64 %21, 0
  %56 = add nsw i64 %21, -1
  br i1 %55, label %100, label %20, !llvm.loop !63

57:                                               ; preds = %16, %95
  %58 = phi i64 [ %99, %95 ], [ %11, %16 ]
  %59 = getelementptr inbounds i64, i64* %0, i64 %58
  %60 = load i64, i64* %59, align 8, !tbaa !25
  %61 = icmp sgt i64 %13, %58
  br i1 %61, label %62, label %77

62:                                               ; preds = %57, %62
  %63 = phi i64 [ %72, %62 ], [ %58, %57 ]
  %64 = shl i64 %63, 1
  %65 = add i64 %64, 2
  %66 = getelementptr inbounds i64, i64* %0, i64 %65
  %67 = or i64 %64, 1
  %68 = getelementptr inbounds i64, i64* %0, i64 %67
  %69 = load i64, i64* %66, align 8, !tbaa !25
  %70 = load i64, i64* %68, align 8, !tbaa !25
  %71 = icmp slt i64 %69, %70
  %72 = select i1 %71, i64 %67, i64 %65
  %73 = getelementptr inbounds i64, i64* %0, i64 %72
  %74 = load i64, i64* %73, align 8, !tbaa !25
  %75 = getelementptr inbounds i64, i64* %0, i64 %63
  store i64 %74, i64* %75, align 8, !tbaa !25
  %76 = icmp slt i64 %72, %13
  br i1 %76, label %62, label %77, !llvm.loop !53

77:                                               ; preds = %62, %57
  %78 = phi i64 [ %58, %57 ], [ %72, %62 ]
  %79 = icmp eq i64 %78, %11
  br i1 %79, label %80, label %82

80:                                               ; preds = %77
  %81 = load i64, i64* %18, align 8, !tbaa !25
  store i64 %81, i64* %19, align 8, !tbaa !25
  br label %82

82:                                               ; preds = %80, %77
  %83 = phi i64 [ %17, %80 ], [ %78, %77 ]
  %84 = icmp sgt i64 %83, %58
  br i1 %84, label %85, label %95

85:                                               ; preds = %82, %92
  %86 = phi i64 [ %88, %92 ], [ %83, %82 ]
  %87 = add nsw i64 %86, -1
  %88 = sdiv i64 %87, 2
  %89 = getelementptr inbounds i64, i64* %0, i64 %88
  %90 = load i64, i64* %89, align 8, !tbaa !25
  %91 = icmp slt i64 %90, %60
  br i1 %91, label %92, label %95

92:                                               ; preds = %85
  %93 = getelementptr inbounds i64, i64* %0, i64 %86
  store i64 %90, i64* %93, align 8, !tbaa !25
  %94 = icmp sgt i64 %88, %58
  br i1 %94, label %85, label %95, !llvm.loop !54

95:                                               ; preds = %85, %92, %82
  %96 = phi i64 [ %83, %82 ], [ %88, %92 ], [ %86, %85 ]
  %97 = getelementptr inbounds i64, i64* %0, i64 %96
  store i64 %60, i64* %97, align 8, !tbaa !25
  %98 = icmp eq i64 %58, 0
  %99 = add nsw i64 %58, -1
  br i1 %98, label %100, label %57, !llvm.loop !63

100:                                              ; preds = %52, %95, %3
  ret void
}

; Function Attrs: mustprogress nofree nosync nounwind readnone speculatable willreturn
declare i64 @llvm.ctlz.i64(i64, i1 immarg) #12

; Function Attrs: mustprogress sspstrong uwtable
define linkonce_odr dso_local void @_ZSt16__introsort_loopIPSt4pairIxxElN9__gnu_cxx5__ops15_Iter_comp_iterIPFbS1_S1_EEEEvT_S9_T0_T1_(%"struct.std::pair"* %0, %"struct.std::pair"* %1, i64 %2, i1 (i64, i64, i64, i64)* %3) local_unnamed_addr #13 comdat {
  %5 = ptrtoint %"struct.std::pair"* %0 to i64
  %6 = getelementptr inbounds %"struct.std::pair", %"struct.std::pair"* %0, i64 1
  %7 = getelementptr inbounds %"struct.std::pair", %"struct.std::pair"* %0, i64 0, i32 0
  %8 = getelementptr inbounds %"struct.std::pair", %"struct.std::pair"* %0, i64 0, i32 1
  %9 = ptrtoint %"struct.std::pair"* %1 to i64
  %10 = sub i64 %9, %5
  %11 = icmp sgt i64 %10, 256
  br i1 %11, label %12, label %88

12:                                               ; preds = %4, %83
  %13 = phi i64 [ %86, %83 ], [ %10, %4 ]
  %14 = phi %"struct.std::pair"* [ %52, %83 ], [ %1, %4 ]
  %15 = phi i64 [ %84, %83 ], [ %2, %4 ]
  %16 = icmp eq i64 %15, 0
  br i1 %16, label %17, label %44

17:                                               ; preds = %12
  %18 = lshr exact i64 %13, 4
  %19 = add nsw i64 %18, -2
  %20 = lshr i64 %19, 1
  br label %21

21:                                               ; preds = %21, %17
  %22 = phi i64 [ %20, %17 ], [ %28, %21 ]
  %23 = getelementptr inbounds %"struct.std::pair", %"struct.std::pair"* %0, i64 %22, i32 0
  %24 = load i64, i64* %23, align 8
  %25 = getelementptr inbounds %"struct.std::pair", %"struct.std::pair"* %0, i64 %22, i32 1
  %26 = load i64, i64* %25, align 8
  tail call void @_ZSt13__adjust_heapIPSt4pairIxxElS1_N9__gnu_cxx5__ops15_Iter_comp_iterIPFbS1_S1_EEEEvT_T0_SA_T1_T2_(%"struct.std::pair"* %0, i64 %22, i64 %18, i64 %24, i64 %26, i1 (i64, i64, i64, i64)* %3)
  %27 = icmp eq i64 %22, 0
  %28 = add nsw i64 %22, -1
  br i1 %27, label %29, label %21, !llvm.loop !64

29:                                               ; preds = %21
  %30 = icmp sgt i64 %13, 16
  br i1 %30, label %31, label %88

31:                                               ; preds = %29, %31
  %32 = phi %"struct.std::pair"* [ %33, %31 ], [ %14, %29 ]
  %33 = getelementptr inbounds %"struct.std::pair", %"struct.std::pair"* %32, i64 -1
  %34 = getelementptr inbounds %"struct.std::pair", %"struct.std::pair"* %33, i64 0, i32 0
  %35 = load i64, i64* %34, align 8
  %36 = getelementptr inbounds %"struct.std::pair", %"struct.std::pair"* %32, i64 -1, i32 1
  %37 = load i64, i64* %36, align 8
  %38 = load i64, i64* %7, align 8, !tbaa !25
  store i64 %38, i64* %34, align 8, !tbaa !32
  %39 = load i64, i64* %8, align 8, !tbaa !25
  store i64 %39, i64* %36, align 8, !tbaa !34
  %40 = ptrtoint %"struct.std::pair"* %33 to i64
  %41 = sub i64 %40, %5
  %42 = ashr exact i64 %41, 4
  tail call void @_ZSt13__adjust_heapIPSt4pairIxxElS1_N9__gnu_cxx5__ops15_Iter_comp_iterIPFbS1_S1_EEEEvT_T0_SA_T1_T2_(%"struct.std::pair"* nonnull %0, i64 0, i64 %42, i64 %35, i64 %37, i1 (i64, i64, i64, i64)* %3)
  %43 = icmp sgt i64 %41, 16
  br i1 %43, label %31, label %88, !llvm.loop !65

44:                                               ; preds = %12
  %45 = lshr i64 %13, 5
  %46 = getelementptr inbounds %"struct.std::pair", %"struct.std::pair"* %0, i64 %45
  %47 = getelementptr inbounds %"struct.std::pair", %"struct.std::pair"* %14, i64 -1
  tail call void @_ZSt22__move_median_to_firstIPSt4pairIxxEN9__gnu_cxx5__ops15_Iter_comp_iterIPFbS1_S1_EEEEvT_S9_S9_S9_T0_(%"struct.std::pair"* %0, %"struct.std::pair"* nonnull %6, %"struct.std::pair"* %46, %"struct.std::pair"* nonnull %47, i1 (i64, i64, i64, i64)* %3)
  br label %48

48:                                               ; preds = %78, %44
  %49 = phi %"struct.std::pair"* [ %14, %44 ], [ %66, %78 ]
  %50 = phi %"struct.std::pair"* [ %6, %44 ], [ %60, %78 ]
  br label %51

51:                                               ; preds = %51, %48
  %52 = phi %"struct.std::pair"* [ %50, %48 ], [ %60, %51 ]
  %53 = getelementptr inbounds %"struct.std::pair", %"struct.std::pair"* %52, i64 0, i32 0
  %54 = load i64, i64* %53, align 8
  %55 = getelementptr inbounds %"struct.std::pair", %"struct.std::pair"* %52, i64 0, i32 1
  %56 = load i64, i64* %55, align 8
  %57 = load i64, i64* %7, align 8
  %58 = load i64, i64* %8, align 8
  %59 = tail call zeroext i1 %3(i64 %54, i64 %56, i64 %57, i64 %58)
  %60 = getelementptr inbounds %"struct.std::pair", %"struct.std::pair"* %52, i64 1
  br i1 %59, label %51, label %61, !llvm.loop !66

61:                                               ; preds = %51
  %62 = getelementptr inbounds %"struct.std::pair", %"struct.std::pair"* %52, i64 0, i32 0
  %63 = getelementptr inbounds %"struct.std::pair", %"struct.std::pair"* %52, i64 0, i32 1
  br label %64

64:                                               ; preds = %61, %64
  %65 = phi %"struct.std::pair"* [ %66, %64 ], [ %49, %61 ]
  %66 = getelementptr inbounds %"struct.std::pair", %"struct.std::pair"* %65, i64 -1
  %67 = load i64, i64* %7, align 8
  %68 = load i64, i64* %8, align 8
  %69 = getelementptr inbounds %"struct.std::pair", %"struct.std::pair"* %66, i64 0, i32 0
  %70 = load i64, i64* %69, align 8
  %71 = getelementptr inbounds %"struct.std::pair", %"struct.std::pair"* %65, i64 -1, i32 1
  %72 = load i64, i64* %71, align 8
  %73 = tail call zeroext i1 %3(i64 %67, i64 %68, i64 %70, i64 %72)
  br i1 %73, label %64, label %74, !llvm.loop !67

74:                                               ; preds = %64
  %75 = getelementptr inbounds %"struct.std::pair", %"struct.std::pair"* %66, i64 0, i32 0
  %76 = getelementptr inbounds %"struct.std::pair", %"struct.std::pair"* %65, i64 -1, i32 1
  %77 = icmp ult %"struct.std::pair"* %52, %66
  br i1 %77, label %78, label %83

78:                                               ; preds = %74
  %79 = load i64, i64* %62, align 8, !tbaa !25
  %80 = load i64, i64* %75, align 8, !tbaa !25
  store i64 %80, i64* %62, align 8, !tbaa !25
  store i64 %79, i64* %75, align 8, !tbaa !25
  %81 = load i64, i64* %63, align 8, !tbaa !25
  %82 = load i64, i64* %76, align 8, !tbaa !25
  store i64 %82, i64* %63, align 8, !tbaa !25
  store i64 %81, i64* %76, align 8, !tbaa !25
  br label %48, !llvm.loop !68

83:                                               ; preds = %74
  %84 = add nsw i64 %15, -1
  tail call void @_ZSt16__introsort_loopIPSt4pairIxxElN9__gnu_cxx5__ops15_Iter_comp_iterIPFbS1_S1_EEEEvT_S9_T0_T1_(%"struct.std::pair"* %52, %"struct.std::pair"* %14, i64 %84, i1 (i64, i64, i64, i64)* %3)
  %85 = ptrtoint %"struct.std::pair"* %52 to i64
  %86 = sub i64 %85, %5
  %87 = icmp sgt i64 %86, 256
  br i1 %87, label %12, label %88, !llvm.loop !69

88:                                               ; preds = %83, %31, %4, %29
  ret void
}

; Function Attrs: sspstrong uwtable
define linkonce_odr dso_local void @_ZSt13__adjust_heapIPSt4pairIxxElS1_N9__gnu_cxx5__ops15_Iter_comp_iterIPFbS1_S1_EEEEvT_T0_SA_T1_T2_(%"struct.std::pair"* %0, i64 %1, i64 %2, i64 %3, i64 %4, i1 (i64, i64, i64, i64)* %5) local_unnamed_addr #11 comdat {
  %7 = add nsw i64 %2, -1
  %8 = sdiv i64 %7, 2
  %9 = icmp sgt i64 %8, %1
  br i1 %9, label %10, label %31

10:                                               ; preds = %6, %10
  %11 = phi i64 [ %24, %10 ], [ %1, %6 ]
  %12 = shl i64 %11, 1
  %13 = add i64 %12, 2
  %14 = or i64 %12, 1
  %15 = getelementptr inbounds %"struct.std::pair", %"struct.std::pair"* %0, i64 %13, i32 0
  %16 = load i64, i64* %15, align 8
  %17 = getelementptr inbounds %"struct.std::pair", %"struct.std::pair"* %0, i64 %13, i32 1
  %18 = load i64, i64* %17, align 8
  %19 = getelementptr inbounds %"struct.std::pair", %"struct.std::pair"* %0, i64 %14, i32 0
  %20 = load i64, i64* %19, align 8
  %21 = getelementptr inbounds %"struct.std::pair", %"struct.std::pair"* %0, i64 %14, i32 1
  %22 = load i64, i64* %21, align 8
  %23 = tail call zeroext i1 %5(i64 %16, i64 %18, i64 %20, i64 %22)
  %24 = select i1 %23, i64 %14, i64 %13
  %25 = getelementptr inbounds %"struct.std::pair", %"struct.std::pair"* %0, i64 %24, i32 0
  %26 = getelementptr inbounds %"struct.std::pair", %"struct.std::pair"* %0, i64 %11, i32 0
  %27 = bitcast i64* %25 to <2 x i64>*
  %28 = load <2 x i64>, <2 x i64>* %27, align 8, !tbaa !25
  %29 = bitcast i64* %26 to <2 x i64>*
  store <2 x i64> %28, <2 x i64>* %29, align 8, !tbaa !25
  %30 = icmp slt i64 %24, %8
  br i1 %30, label %10, label %31, !llvm.loop !70

31:                                               ; preds = %10, %6
  %32 = phi i64 [ %1, %6 ], [ %24, %10 ]
  %33 = and i64 %2, 1
  %34 = icmp eq i64 %33, 0
  br i1 %34, label %35, label %47

35:                                               ; preds = %31
  %36 = add nsw i64 %2, -2
  %37 = sdiv i64 %36, 2
  %38 = icmp eq i64 %32, %37
  br i1 %38, label %39, label %47

39:                                               ; preds = %35
  %40 = shl i64 %32, 1
  %41 = or i64 %40, 1
  %42 = getelementptr inbounds %"struct.std::pair", %"struct.std::pair"* %0, i64 %41, i32 0
  %43 = getelementptr inbounds %"struct.std::pair", %"struct.std::pair"* %0, i64 %32, i32 0
  %44 = bitcast i64* %42 to <2 x i64>*
  %45 = load <2 x i64>, <2 x i64>* %44, align 8, !tbaa !25
  %46 = bitcast i64* %43 to <2 x i64>*
  store <2 x i64> %45, <2 x i64>* %46, align 8, !tbaa !25
  br label %47

47:                                               ; preds = %39, %35, %31
  %48 = phi i64 [ %41, %39 ], [ %32, %35 ], [ %32, %31 ]
  %49 = icmp sgt i64 %48, %1
  br i1 %49, label %50, label %65

50:                                               ; preds = %47, %59
  %51 = phi i64 [ %53, %59 ], [ %48, %47 ]
  %52 = add nsw i64 %51, -1
  %53 = sdiv i64 %52, 2
  %54 = getelementptr inbounds %"struct.std::pair", %"struct.std::pair"* %0, i64 %53, i32 0
  %55 = load i64, i64* %54, align 8
  %56 = getelementptr inbounds %"struct.std::pair", %"struct.std::pair"* %0, i64 %53, i32 1
  %57 = load i64, i64* %56, align 8
  %58 = tail call zeroext i1 %5(i64 %55, i64 %57, i64 %3, i64 %4)
  br i1 %58, label %59, label %65

59:                                               ; preds = %50
  %60 = getelementptr inbounds %"struct.std::pair", %"struct.std::pair"* %0, i64 %51, i32 0
  %61 = bitcast i64* %54 to <2 x i64>*
  %62 = load <2 x i64>, <2 x i64>* %61, align 8, !tbaa !25
  %63 = bitcast i64* %60 to <2 x i64>*
  store <2 x i64> %62, <2 x i64>* %63, align 8, !tbaa !25
  %64 = icmp sgt i64 %53, %1
  br i1 %64, label %50, label %65, !llvm.loop !71

65:                                               ; preds = %50, %59, %47
  %66 = phi i64 [ %48, %47 ], [ %51, %50 ], [ %53, %59 ]
  %67 = getelementptr inbounds %"struct.std::pair", %"struct.std::pair"* %0, i64 %66, i32 0
  store i64 %3, i64* %67, align 8, !tbaa !32
  %68 = getelementptr inbounds %"struct.std::pair", %"struct.std::pair"* %0, i64 %66, i32 1
  store i64 %4, i64* %68, align 8, !tbaa !34
  ret void
}

; Function Attrs: mustprogress sspstrong uwtable
define linkonce_odr dso_local void @_ZSt22__move_median_to_firstIPSt4pairIxxEN9__gnu_cxx5__ops15_Iter_comp_iterIPFbS1_S1_EEEEvT_S9_S9_S9_T0_(%"struct.std::pair"* %0, %"struct.std::pair"* %1, %"struct.std::pair"* %2, %"struct.std::pair"* %3, i1 (i64, i64, i64, i64)* %4) local_unnamed_addr #13 comdat {
  %6 = getelementptr inbounds %"struct.std::pair", %"struct.std::pair"* %1, i64 0, i32 0
  %7 = load i64, i64* %6, align 8
  %8 = getelementptr inbounds %"struct.std::pair", %"struct.std::pair"* %1, i64 0, i32 1
  %9 = load i64, i64* %8, align 8
  %10 = getelementptr inbounds %"struct.std::pair", %"struct.std::pair"* %2, i64 0, i32 0
  %11 = load i64, i64* %10, align 8
  %12 = getelementptr inbounds %"struct.std::pair", %"struct.std::pair"* %2, i64 0, i32 1
  %13 = load i64, i64* %12, align 8
  %14 = tail call zeroext i1 %4(i64 %7, i64 %9, i64 %11, i64 %13)
  br i1 %14, label %15, label %39

15:                                               ; preds = %5
  %16 = load i64, i64* %10, align 8
  %17 = load i64, i64* %12, align 8
  %18 = getelementptr inbounds %"struct.std::pair", %"struct.std::pair"* %3, i64 0, i32 0
  %19 = load i64, i64* %18, align 8
  %20 = getelementptr inbounds %"struct.std::pair", %"struct.std::pair"* %3, i64 0, i32 1
  %21 = load i64, i64* %20, align 8
  %22 = tail call zeroext i1 %4(i64 %16, i64 %17, i64 %19, i64 %21)
  br i1 %22, label %23, label %27

23:                                               ; preds = %15
  %24 = getelementptr inbounds %"struct.std::pair", %"struct.std::pair"* %0, i64 0, i32 0
  %25 = load i64, i64* %24, align 8, !tbaa !25
  %26 = load i64, i64* %10, align 8, !tbaa !25
  store i64 %26, i64* %24, align 8, !tbaa !25
  store i64 %25, i64* %10, align 8, !tbaa !25
  br label %63

27:                                               ; preds = %15
  %28 = load i64, i64* %6, align 8
  %29 = load i64, i64* %8, align 8
  %30 = load i64, i64* %18, align 8
  %31 = load i64, i64* %20, align 8
  %32 = tail call zeroext i1 %4(i64 %28, i64 %29, i64 %30, i64 %31)
  %33 = getelementptr inbounds %"struct.std::pair", %"struct.std::pair"* %0, i64 0, i32 0
  %34 = load i64, i64* %33, align 8, !tbaa !25
  br i1 %32, label %35, label %37

35:                                               ; preds = %27
  %36 = load i64, i64* %18, align 8, !tbaa !25
  store i64 %36, i64* %33, align 8, !tbaa !25
  store i64 %34, i64* %18, align 8, !tbaa !25
  br label %63

37:                                               ; preds = %27
  %38 = load i64, i64* %6, align 8, !tbaa !25
  store i64 %38, i64* %33, align 8, !tbaa !25
  store i64 %34, i64* %6, align 8, !tbaa !25
  br label %63

39:                                               ; preds = %5
  %40 = load i64, i64* %6, align 8
  %41 = load i64, i64* %8, align 8
  %42 = getelementptr inbounds %"struct.std::pair", %"struct.std::pair"* %3, i64 0, i32 0
  %43 = load i64, i64* %42, align 8
  %44 = getelementptr inbounds %"struct.std::pair", %"struct.std::pair"* %3, i64 0, i32 1
  %45 = load i64, i64* %44, align 8
  %46 = tail call zeroext i1 %4(i64 %40, i64 %41, i64 %43, i64 %45)
  br i1 %46, label %47, label %51

47:                                               ; preds = %39
  %48 = getelementptr inbounds %"struct.std::pair", %"struct.std::pair"* %0, i64 0, i32 0
  %49 = load i64, i64* %48, align 8, !tbaa !25
  %50 = load i64, i64* %6, align 8, !tbaa !25
  store i64 %50, i64* %48, align 8, !tbaa !25
  store i64 %49, i64* %6, align 8, !tbaa !25
  br label %63

51:                                               ; preds = %39
  %52 = load i64, i64* %10, align 8
  %53 = load i64, i64* %12, align 8
  %54 = load i64, i64* %42, align 8
  %55 = load i64, i64* %44, align 8
  %56 = tail call zeroext i1 %4(i64 %52, i64 %53, i64 %54, i64 %55)
  %57 = getelementptr inbounds %"struct.std::pair", %"struct.std::pair"* %0, i64 0, i32 0
  %58 = load i64, i64* %57, align 8, !tbaa !25
  br i1 %56, label %59, label %61

59:                                               ; preds = %51
  %60 = load i64, i64* %42, align 8, !tbaa !25
  store i64 %60, i64* %57, align 8, !tbaa !25
  store i64 %58, i64* %42, align 8, !tbaa !25
  br label %63

61:                                               ; preds = %51
  %62 = load i64, i64* %10, align 8, !tbaa !25
  store i64 %62, i64* %57, align 8, !tbaa !25
  store i64 %58, i64* %10, align 8, !tbaa !25
  br label %63

63:                                               ; preds = %47, %61, %59, %23, %37, %35
  %64 = phi i64* [ %8, %47 ], [ %12, %61 ], [ %44, %59 ], [ %12, %23 ], [ %8, %37 ], [ %20, %35 ]
  %65 = getelementptr inbounds %"struct.std::pair", %"struct.std::pair"* %0, i64 0, i32 1
  %66 = load i64, i64* %65, align 8, !tbaa !25
  %67 = load i64, i64* %64, align 8, !tbaa !25
  store i64 %67, i64* %65, align 8, !tbaa !25
  store i64 %66, i64* %64, align 8, !tbaa !25
  ret void
}

declare nonnull align 8 dereferenceable(8) %"class.std::basic_ostream"* @_ZNSo3putEc(%"class.std::basic_ostream"* nonnull align 8 dereferenceable(8), i8 signext) local_unnamed_addr #0

declare nonnull align 8 dereferenceable(8) %"class.std::basic_ostream"* @_ZNSo5flushEv(%"class.std::basic_ostream"* nonnull align 8 dereferenceable(8)) local_unnamed_addr #0

; Function Attrs: noreturn
declare void @_ZSt16__throw_bad_castv() local_unnamed_addr #8

declare void @_ZNKSt5ctypeIcE13_M_widen_initEv(%"class.std::ctype"* nonnull align 8 dereferenceable(570)) local_unnamed_addr #0

; Function Attrs: sspstrong uwtable
define internal void @_GLOBAL__sub_I_s794686210.cpp() #11 section ".text.startup" {
  tail call void @_ZNSt8ios_base4InitC1Ev(%"class.std::ios_base::Init"* nonnull align 1 dereferenceable(1) @_ZStL8__ioinit)
  %1 = tail call i32 @__cxa_atexit(void (i8*)* bitcast (void (%"class.std::ios_base::Init"*)* @_ZNSt8ios_base4InitD1Ev to void (i8*)*), i8* getelementptr inbounds (%"class.std::ios_base::Init", %"class.std::ios_base::Init"* @_ZStL8__ioinit, i64 0, i32 0), i8* nonnull @__dso_handle) #15
  tail call void @llvm.memset.p0i8.i64(i8* noundef nonnull align 8 dereferenceable(24) bitcast (%"class.std::vector"* @z to i8*), i8 0, i64 24, i1 false) #15
  %2 = tail call i32 @__cxa_atexit(void (i8*)* bitcast (void (%"class.std::vector"*)* @_ZNSt6vectorIxSaIxEED2Ev to void (i8*)*), i8* bitcast (%"class.std::vector"* @z to i8*), i8* nonnull @__dso_handle) #15
  tail call void @llvm.memset.p0i8.i64(i8* noundef nonnull align 8 dereferenceable(24) bitcast (%"class.std::vector"* @sum to i8*), i8 0, i64 24, i1 false) #15
  %3 = tail call i32 @__cxa_atexit(void (i8*)* bitcast (void (%"class.std::vector"*)* @_ZNSt6vectorIxSaIxEED2Ev to void (i8*)*), i8* bitcast (%"class.std::vector"* @sum to i8*), i8* nonnull @__dso_handle) #15
  ret void
}

; Function Attrs: argmemonly nofree nounwind willreturn writeonly
declare void @llvm.memset.p0i8.i64(i8* nocapture writeonly, i8, i64, i1 immarg) #14

attributes #0 = { "frame-pointer"="none" "no-trapping-math"="true" "stack-protector-buffer-size"="8" "target-cpu"="x86-64" "target-features"="+cx8,+fxsr,+mmx,+sse,+sse2,+x87" "tune-cpu"="generic" }
attributes #1 = { nounwind "frame-pointer"="none" "no-trapping-math"="true" "stack-protector-buffer-size"="8" "target-cpu"="x86-64" "target-features"="+cx8,+fxsr,+mmx,+sse,+sse2,+x87" "tune-cpu"="generic" }
attributes #2 = { nofree nounwind }
attributes #3 = { mustprogress nofree norecurse nosync nounwind readnone sspstrong uwtable willreturn "frame-pointer"="none" "min-legal-vector-width"="0" "no-trapping-math"="true" "stack-protector-buffer-size"="8" "target-cpu"="x86-64" "target-features"="+cx8,+fxsr,+mmx,+sse,+sse2,+x87" "tune-cpu"="generic" }
attributes #4 = { nounwind sspstrong uwtable "frame-pointer"="none" "min-legal-vector-width"="0" "no-trapping-math"="true" "stack-protector-buffer-size"="8" "target-cpu"="x86-64" "target-features"="+cx8,+fxsr,+mmx,+sse,+sse2,+x87" "tune-cpu"="generic" }
attributes #5 = { norecurse sspstrong uwtable "frame-pointer"="none" "min-legal-vector-width"="0" "no-trapping-math"="true" "stack-protector-buffer-size"="8" "target-cpu"="x86-64" "target-features"="+cx8,+fxsr,+mmx,+sse,+sse2,+x87" "tune-cpu"="generic" }
attributes #6 = { argmemonly mustprogress nofree nosync nounwind willreturn }
attributes #7 = { nobuiltin nounwind "frame-pointer"="none" "no-trapping-math"="true" "stack-protector-buffer-size"="8" "target-cpu"="x86-64" "target-features"="+cx8,+fxsr,+mmx,+sse,+sse2,+x87" "tune-cpu"="generic" }
attributes #8 = { noreturn "frame-pointer"="none" "no-trapping-math"="true" "stack-protector-buffer-size"="8" "target-cpu"="x86-64" "target-features"="+cx8,+fxsr,+mmx,+sse,+sse2,+x87" "tune-cpu"="generic" }
attributes #9 = { nobuiltin allocsize(0) "frame-pointer"="none" "no-trapping-math"="true" "stack-protector-buffer-size"="8" "target-cpu"="x86-64" "target-features"="+cx8,+fxsr,+mmx,+sse,+sse2,+x87" "tune-cpu"="generic" }
attributes #10 = { argmemonly mustprogress nofree nounwind willreturn }
attributes #11 = { sspstrong uwtable "frame-pointer"="none" "min-legal-vector-width"="0" "no-trapping-math"="true" "stack-protector-buffer-size"="8" "target-cpu"="x86-64" "target-features"="+cx8,+fxsr,+mmx,+sse,+sse2,+x87" "tune-cpu"="generic" }
attributes #12 = { mustprogress nofree nosync nounwind readnone speculatable willreturn }
attributes #13 = { mustprogress sspstrong uwtable "frame-pointer"="none" "min-legal-vector-width"="0" "no-trapping-math"="true" "stack-protector-buffer-size"="8" "target-cpu"="x86-64" "target-features"="+cx8,+fxsr,+mmx,+sse,+sse2,+x87" "tune-cpu"="generic" }
attributes #14 = { argmemonly nofree nounwind willreturn writeonly }
attributes #15 = { nounwind }
attributes #16 = { noreturn }
attributes #17 = { allocsize(0) }

!llvm.module.flags = !{!0, !1, !2, !3}
!llvm.ident = !{!4}

!0 = !{i32 1, !"wchar_size", i32 4}
!1 = !{i32 7, !"PIC Level", i32 2}
!2 = !{i32 7, !"PIE Level", i32 2}
!3 = !{i32 7, !"uwtable", i32 1}
!4 = !{!"clang version 13.0.0"}
!5 = !{!6, !7, i64 0}
!6 = !{!"_ZTSNSt12_Vector_baseIxSaIxEE17_Vector_impl_dataE", !7, i64 0, !7, i64 8, !7, i64 16}
!7 = !{!"any pointer", !8, i64 0}
!8 = !{!"omnipotent char", !9, i64 0}
!9 = !{!"Simple C++ TBAA"}
!10 = !{!11, !11, i64 0}
!11 = !{!"vtable pointer", !9, i64 0}
!12 = !{!13, !7, i64 216}
!13 = !{!"_ZTSSt9basic_iosIcSt11char_traitsIcEE", !7, i64 216, !8, i64 224, !14, i64 225, !7, i64 232, !7, i64 240, !7, i64 248, !7, i64 256}
!14 = !{!"bool", !8, i64 0}
!15 = !{!16, !17, i64 8}
!16 = !{!"_ZTSSt8ios_base", !17, i64 8, !17, i64 16, !18, i64 24, !19, i64 28, !19, i64 32, !7, i64 40, !20, i64 48, !8, i64 64, !21, i64 192, !7, i64 200, !22, i64 208}
!17 = !{!"long", !8, i64 0}
!18 = !{!"_ZTSSt13_Ios_Fmtflags", !8, i64 0}
!19 = !{!"_ZTSSt12_Ios_Iostate", !8, i64 0}
!20 = !{!"_ZTSNSt8ios_base6_WordsE", !7, i64 0, !17, i64 8}
!21 = !{!"int", !8, i64 0}
!22 = !{!"_ZTSSt6locale", !7, i64 0}
!23 = !{!16, !18, i64 24}
!24 = !{!18, !18, i64 0}
!25 = !{!26, !26, i64 0}
!26 = !{!"long long", !8, i64 0}
!27 = !{!21, !21, i64 0}
!28 = !{!7, !7, i64 0}
!29 = !{i64 0, i64 65}
!30 = !{!6, !7, i64 8}
!31 = !{!6, !7, i64 16}
!32 = !{!33, !26, i64 0}
!33 = !{!"_ZTSSt4pairIxxE", !26, i64 0, !26, i64 8}
!34 = !{!33, !26, i64 8}
!35 = distinct !{!35, !36}
!36 = !{!"llvm.loop.mustprogress"}
!37 = distinct !{!37, !38}
!38 = !{!"llvm.loop.unroll.disable"}
!39 = distinct !{!39, !36}
!40 = distinct !{!40, !36}
!41 = distinct !{!41, !36}
!42 = distinct !{!42, !36}
!43 = distinct !{!43, !36}
!44 = distinct !{!44, !36}
!45 = distinct !{!45, !36}
!46 = distinct !{!46, !36}
!47 = !{!13, !7, i64 240}
!48 = !{!49, !8, i64 56}
!49 = !{!"_ZTSSt5ctypeIcE", !7, i64 16, !14, i64 24, !7, i64 32, !7, i64 40, !7, i64 48, !8, i64 56, !8, i64 57, !8, i64 313, !8, i64 569}
!50 = !{!8, !8, i64 0}
!51 = distinct !{!51, !36}
!52 = distinct !{!52, !36}
!53 = distinct !{!53, !36}
!54 = distinct !{!54, !36}
!55 = distinct !{!55, !36}
!56 = distinct !{!56, !36}
!57 = distinct !{!57, !36}
!58 = distinct !{!58, !36}
!59 = distinct !{!59, !36}
!60 = distinct !{!60, !36}
!61 = distinct !{!61, !36}
!62 = distinct !{!62, !36}
!63 = distinct !{!63, !36}
!64 = distinct !{!64, !36}
!65 = distinct !{!65, !36}
!66 = distinct !{!66, !36}
!67 = distinct !{!67, !36}
!68 = distinct !{!68, !36}
!69 = distinct !{!69, !36}
!70 = distinct !{!70, !36}
!71 = distinct !{!71, !36}
