; ModuleID = 'Project_CodeNet_C++1400/p03289/s525751269.cpp'
source_filename = "Project_CodeNet_C++1400/p03289/s525751269.cpp"
target datalayout = "e-m:e-p270:32:32-p271:32:32-p272:64:64-i64:64-f80:128-n8:16:32:64-S128"
target triple = "x86_64-pc-linux-gnu"

%"class.std::ios_base::Init" = type { i8 }
%"class.std::basic_istream" = type { i32 (...)**, i64, %"class.std::basic_ios" }
%"class.std::basic_ios" = type { %"class.std::ios_base", %"class.std::basic_ostream"*, i8, i8, %"class.std::basic_streambuf"*, %"class.std::ctype"*, %"class.std::num_put"*, %"class.std::num_get"* }
%"class.std::ios_base" = type { i32 (...)**, i64, i64, i32, i32, i32, %"struct.std::ios_base::_Callback_list"*, %"struct.std::ios_base::_Words", [8 x %"struct.std::ios_base::_Words"], i32, %"struct.std::ios_base::_Words"*, %"class.std::locale" }
%"struct.std::ios_base::_Callback_list" = type { %"struct.std::ios_base::_Callback_list"*, void (i32, %"class.std::ios_base"*, i32)*, i32, i32 }
%"struct.std::ios_base::_Words" = type { i8*, i64 }
%"class.std::locale" = type { %"class.std::locale::_Impl"* }
%"class.std::locale::_Impl" = type { i32, %"class.std::locale::facet"**, i64, %"class.std::locale::facet"**, i8** }
%"class.std::locale::facet" = type <{ i32 (...)**, i32, [4 x i8] }>
%"class.std::basic_ostream" = type { i32 (...)**, %"class.std::basic_ios" }
%"class.std::basic_streambuf" = type { i32 (...)**, i8*, i8*, i8*, i8*, i8*, i8*, %"class.std::locale" }
%"class.std::ctype" = type <{ %"class.std::locale::facet.base", [4 x i8], %struct.__locale_struct*, i8, [7 x i8], i32*, i32*, i16*, i8, [256 x i8], [256 x i8], i8, [6 x i8] }>
%"class.std::locale::facet.base" = type <{ i32 (...)**, i32 }>
%struct.__locale_struct = type { [13 x %struct.__locale_data*], i16*, i32*, i32*, [13 x i8*] }
%struct.__locale_data = type opaque
%"class.std::num_put" = type { %"class.std::locale::facet.base", [4 x i8] }
%"class.std::num_get" = type { %"class.std::locale::facet.base", [4 x i8] }
%"class.std::locale::id" = type { i64 }
%"struct.std::piecewise_construct_t" = type { i8 }
%"class.std::__detail::_Compiler" = type { i32, %"class.std::__detail::_Scanner", %"class.std::shared_ptr.20", %"class.std::__cxx11::basic_string", %"class.std::stack", %"class.std::__cxx11::regex_traits"*, %"class.std::ctype"* }
%"class.std::__detail::_Scanner" = type { %"struct.std::__detail::_ScannerBase.base", i8*, i8*, %"class.std::ctype"*, %"class.std::__cxx11::basic_string", { i64, i64 } }
%"struct.std::__detail::_ScannerBase.base" = type <{ [9 x %"struct.std::pair.14"], [8 x %"struct.std::pair.17"], [11 x %"struct.std::pair.17"], [2 x i8], i8*, i8*, i8*, i32, i32, i32, [4 x i8], %"struct.std::pair.17"*, i8*, i8 }>
%"struct.std::pair.14" = type { i8, i32 }
%"struct.std::pair.17" = type { i8, i8 }
%"class.std::shared_ptr.20" = type { %"class.std::__shared_ptr.21" }
%"class.std::__shared_ptr.21" = type { %"struct.std::__detail::_NFA"*, %"class.std::__shared_count" }
%"struct.std::__detail::_NFA" = type { %"struct.std::__detail::_NFA_base.base", %"class.std::vector.8", %"class.std::__cxx11::regex_traits" }
%"struct.std::__detail::_NFA_base.base" = type <{ %"class.std::vector.3", i32, [4 x i8], i64, i64, i8 }>
%"class.std::vector.3" = type { %"struct.std::_Vector_base.4" }
%"struct.std::_Vector_base.4" = type { %"struct.std::_Vector_base<unsigned long, std::allocator<unsigned long>>::_Vector_impl" }
%"struct.std::_Vector_base<unsigned long, std::allocator<unsigned long>>::_Vector_impl" = type { %"struct.std::_Vector_base<unsigned long, std::allocator<unsigned long>>::_Vector_impl_data" }
%"struct.std::_Vector_base<unsigned long, std::allocator<unsigned long>>::_Vector_impl_data" = type { i64*, i64*, i64* }
%"class.std::vector.8" = type { %"struct.std::_Vector_base.9" }
%"struct.std::_Vector_base.9" = type { %"struct.std::_Vector_base<std::__detail::_State<char>, std::allocator<std::__detail::_State<char>>>::_Vector_impl" }
%"struct.std::_Vector_base<std::__detail::_State<char>, std::allocator<std::__detail::_State<char>>>::_Vector_impl" = type { %"struct.std::_Vector_base<std::__detail::_State<char>, std::allocator<std::__detail::_State<char>>>::_Vector_impl_data" }
%"struct.std::_Vector_base<std::__detail::_State<char>, std::allocator<std::__detail::_State<char>>>::_Vector_impl_data" = type { %"struct.std::__detail::_State"*, %"struct.std::__detail::_State"*, %"struct.std::__detail::_State"* }
%"struct.std::__detail::_State" = type { %"struct.std::__detail::_State_base" }
%"struct.std::__detail::_State_base" = type { i32, i64, %union.anon.13 }
%union.anon.13 = type { %struct.anon, [16 x i8] }
%struct.anon = type { i64, i8 }
%"class.std::__cxx11::regex_traits" = type { %"class.std::locale" }
%"class.std::__shared_count" = type { %"class.std::_Sp_counted_base"* }
%"class.std::_Sp_counted_base" = type { i32 (...)**, i32, i32 }
%"class.std::__cxx11::basic_string" = type { %"struct.std::__cxx11::basic_string<char>::_Alloc_hider", i64, %union.anon }
%"struct.std::__cxx11::basic_string<char>::_Alloc_hider" = type { i8* }
%union.anon = type { i64, [8 x i8] }
%"class.std::stack" = type { %"class.std::deque" }
%"class.std::deque" = type { %"class.std::_Deque_base" }
%"class.std::_Deque_base" = type { %"struct.std::_Deque_base<std::__detail::_StateSeq<std::__cxx11::regex_traits<char>>, std::allocator<std::__detail::_StateSeq<std::__cxx11::regex_traits<char>>>>::_Deque_impl" }
%"struct.std::_Deque_base<std::__detail::_StateSeq<std::__cxx11::regex_traits<char>>, std::allocator<std::__detail::_StateSeq<std::__cxx11::regex_traits<char>>>>::_Deque_impl" = type { %"struct.std::_Deque_base<std::__detail::_StateSeq<std::__cxx11::regex_traits<char>>, std::allocator<std::__detail::_StateSeq<std::__cxx11::regex_traits<char>>>>::_Deque_impl_data" }
%"struct.std::_Deque_base<std::__detail::_StateSeq<std::__cxx11::regex_traits<char>>, std::allocator<std::__detail::_StateSeq<std::__cxx11::regex_traits<char>>>>::_Deque_impl_data" = type { %"class.std::__detail::_StateSeq"**, i64, %"struct.std::_Deque_iterator", %"struct.std::_Deque_iterator" }
%"class.std::__detail::_StateSeq" = type { %"struct.std::__detail::_NFA"*, i64, i64 }
%"struct.std::_Deque_iterator" = type { %"class.std::__detail::_StateSeq"*, %"class.std::__detail::_StateSeq"*, %"class.std::__detail::_StateSeq"*, %"class.std::__detail::_StateSeq"** }
%"class.std::__cxx11::match_results" = type { %"class.std::vector", %"class.__gnu_cxx::__normal_iterator" }
%"class.std::vector" = type { %"struct.std::_Vector_base" }
%"struct.std::_Vector_base" = type { %"struct.std::_Vector_base<std::__cxx11::sub_match<__gnu_cxx::__normal_iterator<const char *, std::__cxx11::basic_string<char>>>, std::allocator<std::__cxx11::sub_match<__gnu_cxx::__normal_iterator<const char *, std::__cxx11::basic_string<char>>>>>::_Vector_impl" }
%"struct.std::_Vector_base<std::__cxx11::sub_match<__gnu_cxx::__normal_iterator<const char *, std::__cxx11::basic_string<char>>>, std::allocator<std::__cxx11::sub_match<__gnu_cxx::__normal_iterator<const char *, std::__cxx11::basic_string<char>>>>>::_Vector_impl" = type { %"struct.std::_Vector_base<std::__cxx11::sub_match<__gnu_cxx::__normal_iterator<const char *, std::__cxx11::basic_string<char>>>, std::allocator<std::__cxx11::sub_match<__gnu_cxx::__normal_iterator<const char *, std::__cxx11::basic_string<char>>>>>::_Vector_impl_data" }
%"struct.std::_Vector_base<std::__cxx11::sub_match<__gnu_cxx::__normal_iterator<const char *, std::__cxx11::basic_string<char>>>, std::allocator<std::__cxx11::sub_match<__gnu_cxx::__normal_iterator<const char *, std::__cxx11::basic_string<char>>>>>::_Vector_impl_data" = type { %"class.std::__cxx11::sub_match"*, %"class.std::__cxx11::sub_match"*, %"class.std::__cxx11::sub_match"* }
%"class.std::__cxx11::sub_match" = type <{ %"struct.std::pair", i8, [7 x i8] }>
%"struct.std::pair" = type { %"class.__gnu_cxx::__normal_iterator", %"class.__gnu_cxx::__normal_iterator" }
%"class.__gnu_cxx::__normal_iterator" = type { i8* }
%"class.std::__cxx11::basic_regex" = type { i32, %"class.std::locale", %"class.std::shared_ptr" }
%"class.std::shared_ptr" = type { %"class.std::__shared_ptr" }
%"class.std::__shared_ptr" = type { %"struct.std::__detail::_NFA"*, %"class.std::__shared_count" }
%"class.std::allocator.27" = type { i8 }
%"union.std::_Any_data" = type { %"union.std::_Nocopy_types" }
%"union.std::_Nocopy_types" = type { { i64, i64 } }
%"struct.std::__detail::_ScannerBase" = type <{ [9 x %"struct.std::pair.14"], [8 x %"struct.std::pair.17"], [11 x %"struct.std::pair.17"], [2 x i8], i8*, i8*, i8*, i32, i32, i32, [4 x i8], %"struct.std::pair.17"*, i8*, i8, [7 x i8] }>
%"class.std::regex_error" = type <{ %"class.std::runtime_error", i32, [4 x i8] }>
%"class.std::runtime_error" = type { %"class.std::exception", %"struct.std::__cow_string" }
%"class.std::exception" = type { i32 (...)** }
%"struct.std::__cow_string" = type { %union.anon.26 }
%union.anon.26 = type { i8* }
%"class.std::_Sp_counted_ptr_inplace" = type { %"class.std::_Sp_counted_base", %"class.std::_Sp_counted_ptr_inplace<std::__detail::_NFA<std::__cxx11::regex_traits<char>>, std::allocator<std::__detail::_NFA<std::__cxx11::regex_traits<char>>>, __gnu_cxx::_S_atomic>::_Impl" }
%"class.std::_Sp_counted_ptr_inplace<std::__detail::_NFA<std::__cxx11::regex_traits<char>>, std::allocator<std::__detail::_NFA<std::__cxx11::regex_traits<char>>>, __gnu_cxx::_S_atomic>::_Impl" = type { %"struct.__gnu_cxx::__aligned_buffer" }
%"struct.__gnu_cxx::__aligned_buffer" = type { %"union.std::aligned_storage<88, 8>::type" }
%"union.std::aligned_storage<88, 8>::type" = type { [88 x i8] }
%"class.std::type_info" = type { i32 (...)**, i8* }
%"class.__gnu_cxx::new_allocator.11" = type { i8 }
%class.anon.116 = type { %"class.std::__detail::_Compiler"*, i8* }
%"class.std::stack.117" = type { %"class.std::deque.118" }
%"class.std::deque.118" = type { %"class.std::_Deque_base.119" }
%"class.std::_Deque_base.119" = type { %"struct.std::_Deque_base<long, std::allocator<long>>::_Deque_impl" }
%"struct.std::_Deque_base<long, std::allocator<long>>::_Deque_impl" = type { %"struct.std::_Deque_base<long, std::allocator<long>>::_Deque_impl_data" }
%"struct.std::_Deque_base<long, std::allocator<long>>::_Deque_impl_data" = type { i64**, i64, %"struct.std::_Deque_iterator.123", %"struct.std::_Deque_iterator.123" }
%"struct.std::_Deque_iterator.123" = type { i64*, i64*, i64*, i64** }
%"class.std::function" = type { %"class.std::_Function_base", i1 (%"union.std::_Any_data"*, i8*)* }
%"class.std::_Function_base" = type { %"union.std::_Any_data", i1 (%"union.std::_Any_data"*, %"union.std::_Any_data"*, i32)* }
%"struct.std::__detail::_BracketMatcher" = type { %"class.std::vector.56", %"class.std::vector.58", %"class.std::vector.63", %"class.std::vector.68", %"struct.std::__cxx11::regex_traits<char>::_RegexMask", %"class.std::__detail::_RegexTranslator", %"class.std::__cxx11::regex_traits"*, i8, %"class.std::bitset" }
%"class.std::vector.56" = type { %"struct.std::_Vector_base.57" }
%"struct.std::_Vector_base.57" = type { %"struct.std::_Vector_base<char, std::allocator<char>>::_Vector_impl" }
%"struct.std::_Vector_base<char, std::allocator<char>>::_Vector_impl" = type { %"struct.std::_Vector_base<char, std::allocator<char>>::_Vector_impl_data" }
%"struct.std::_Vector_base<char, std::allocator<char>>::_Vector_impl_data" = type { i8*, i8*, i8* }
%"class.std::vector.58" = type { %"struct.std::_Vector_base.59" }
%"struct.std::_Vector_base.59" = type { %"struct.std::_Vector_base<std::__cxx11::basic_string<char>, std::allocator<std::__cxx11::basic_string<char>>>::_Vector_impl" }
%"struct.std::_Vector_base<std::__cxx11::basic_string<char>, std::allocator<std::__cxx11::basic_string<char>>>::_Vector_impl" = type { %"struct.std::_Vector_base<std::__cxx11::basic_string<char>, std::allocator<std::__cxx11::basic_string<char>>>::_Vector_impl_data" }
%"struct.std::_Vector_base<std::__cxx11::basic_string<char>, std::allocator<std::__cxx11::basic_string<char>>>::_Vector_impl_data" = type { %"class.std::__cxx11::basic_string"*, %"class.std::__cxx11::basic_string"*, %"class.std::__cxx11::basic_string"* }
%"class.std::vector.63" = type { %"struct.std::_Vector_base.64" }
%"struct.std::_Vector_base.64" = type { %"struct.std::_Vector_base<std::pair<char, char>, std::allocator<std::pair<char, char>>>::_Vector_impl" }
%"struct.std::_Vector_base<std::pair<char, char>, std::allocator<std::pair<char, char>>>::_Vector_impl" = type { %"struct.std::_Vector_base<std::pair<char, char>, std::allocator<std::pair<char, char>>>::_Vector_impl_data" }
%"struct.std::_Vector_base<std::pair<char, char>, std::allocator<std::pair<char, char>>>::_Vector_impl_data" = type { %"struct.std::pair.17"*, %"struct.std::pair.17"*, %"struct.std::pair.17"* }
%"class.std::vector.68" = type { %"struct.std::_Vector_base.69" }
%"struct.std::_Vector_base.69" = type { %"struct.std::_Vector_base<std::__cxx11::regex_traits<char>::_RegexMask, std::allocator<std::__cxx11::regex_traits<char>::_RegexMask>>::_Vector_impl" }
%"struct.std::_Vector_base<std::__cxx11::regex_traits<char>::_RegexMask, std::allocator<std::__cxx11::regex_traits<char>::_RegexMask>>::_Vector_impl" = type { %"struct.std::_Vector_base<std::__cxx11::regex_traits<char>::_RegexMask, std::allocator<std::__cxx11::regex_traits<char>::_RegexMask>>::_Vector_impl_data" }
%"struct.std::_Vector_base<std::__cxx11::regex_traits<char>::_RegexMask, std::allocator<std::__cxx11::regex_traits<char>::_RegexMask>>::_Vector_impl_data" = type { %"struct.std::__cxx11::regex_traits<char>::_RegexMask"*, %"struct.std::__cxx11::regex_traits<char>::_RegexMask"*, %"struct.std::__cxx11::regex_traits<char>::_RegexMask"* }
%"struct.std::__cxx11::regex_traits<char>::_RegexMask" = type <{ i16, i8, i8 }>
%"class.std::__detail::_RegexTranslator" = type { i8 }
%"class.std::bitset" = type { %"struct.std::_Base_bitset" }
%"struct.std::_Base_bitset" = type { [4 x i64] }
%"struct.std::__detail::_BracketMatcher.83" = type { %"class.std::vector.56", %"class.std::vector.58", %"class.std::vector.84", %"class.std::vector.68", %"struct.std::__cxx11::regex_traits<char>::_RegexMask", %"class.std::__detail::_RegexTranslator.40", %"class.std::__cxx11::regex_traits"*, i8, %"class.std::bitset" }
%"class.std::vector.84" = type { %"struct.std::_Vector_base.85" }
%"struct.std::_Vector_base.85" = type { %"struct.std::_Vector_base<std::pair<std::__cxx11::basic_string<char>, std::__cxx11::basic_string<char>>, std::allocator<std::pair<std::__cxx11::basic_string<char>, std::__cxx11::basic_string<char>>>>::_Vector_impl" }
%"struct.std::_Vector_base<std::pair<std::__cxx11::basic_string<char>, std::__cxx11::basic_string<char>>, std::allocator<std::pair<std::__cxx11::basic_string<char>, std::__cxx11::basic_string<char>>>>::_Vector_impl" = type { %"struct.std::_Vector_base<std::pair<std::__cxx11::basic_string<char>, std::__cxx11::basic_string<char>>, std::allocator<std::pair<std::__cxx11::basic_string<char>, std::__cxx11::basic_string<char>>>>::_Vector_impl_data" }
%"struct.std::_Vector_base<std::pair<std::__cxx11::basic_string<char>, std::__cxx11::basic_string<char>>, std::allocator<std::pair<std::__cxx11::basic_string<char>, std::__cxx11::basic_string<char>>>>::_Vector_impl_data" = type { %"struct.std::pair.89"*, %"struct.std::pair.89"*, %"struct.std::pair.89"* }
%"struct.std::pair.89" = type { %"class.std::__cxx11::basic_string", %"class.std::__cxx11::basic_string" }
%"class.std::__detail::_RegexTranslator.40" = type { %"class.std::__detail::_RegexTranslatorBase" }
%"class.std::__detail::_RegexTranslatorBase" = type { %"class.std::__cxx11::regex_traits"* }
%"struct.std::__detail::_BracketMatcher.96" = type { %"class.std::vector.56", %"class.std::vector.58", %"class.std::vector.63", %"class.std::vector.68", %"struct.std::__cxx11::regex_traits<char>::_RegexMask", %"class.std::__detail::_RegexTranslator.42", %"class.std::__cxx11::regex_traits"*, i8, %"class.std::bitset" }
%"class.std::__detail::_RegexTranslator.42" = type { %"class.std::__detail::_RegexTranslatorBase.43" }
%"class.std::__detail::_RegexTranslatorBase.43" = type { %"class.std::__cxx11::regex_traits"* }
%"struct.std::__detail::_BracketMatcher.99" = type { %"class.std::vector.56", %"class.std::vector.58", %"class.std::vector.84", %"class.std::vector.68", %"struct.std::__cxx11::regex_traits<char>::_RegexMask", %"class.std::__detail::_RegexTranslator.45", %"class.std::__cxx11::regex_traits"*, i8, %"class.std::bitset" }
%"class.std::__detail::_RegexTranslator.45" = type { %"class.std::__detail::_RegexTranslatorBase.46" }
%"class.std::__detail::_RegexTranslatorBase.46" = type { %"class.std::__cxx11::regex_traits"* }
%"struct.std::__detail::_AnyMatcher.41" = type { %"class.std::__detail::_RegexTranslator.42" }
%"struct.std::__detail::_AnyMatcher.44" = type { %"class.std::__detail::_RegexTranslator.45" }
%"struct.std::__detail::_CharMatcher" = type { %"class.std::__detail::_RegexTranslator", i8 }
%"class.std::__cxx11::basic_istringstream" = type { %"class.std::basic_istream.base", %"class.std::__cxx11::basic_stringbuf", %"class.std::basic_ios" }
%"class.std::basic_istream.base" = type { i32 (...)**, i64 }
%"class.std::__cxx11::basic_stringbuf" = type { %"class.std::basic_streambuf", i32, %"class.std::__cxx11::basic_string" }
%class.anon = type <{ %"struct.std::__detail::_BracketMatcher"*, i8, [7 x i8] }>
%"struct.std::pair.73" = type <{ i8*, %"struct.std::__cxx11::regex_traits<char>::_RegexMask", [4 x i8] }>
%"struct.__gnu_cxx::__ops::_Iter_less_iter" = type { i8 }
%"class.std::__cxx11::collate" = type { %"class.std::locale::facet.base", %struct.__locale_struct* }
%class.anon.92 = type <{ %"struct.std::__detail::_BracketMatcher.83"*, i8, [7 x i8] }>
%class.anon.97 = type <{ %"struct.std::__detail::_BracketMatcher.96"*, i8, [7 x i8] }>
%class.anon.100 = type <{ %"struct.std::__detail::_BracketMatcher.99"*, i8, [7 x i8] }>
%"struct.std::pair.102" = type { i8, i8 }
%class.anon.105 = type { %"struct.std::pair.102"*, %"struct.std::__detail::_BracketMatcher"* }
%class.anon.109 = type { %"struct.std::pair.102"*, %"struct.std::__detail::_BracketMatcher.83"* }
%"class.std::tuple" = type { %"struct.std::_Tuple_impl" }
%"struct.std::_Tuple_impl" = type { %"struct.std::_Head_base" }
%"struct.std::_Head_base" = type { i64* }
%"class.std::tuple.130" = type { i8 }
%"class.std::map" = type { %"class.std::_Rb_tree" }
%"class.std::_Rb_tree" = type { %"struct.std::_Rb_tree<long, std::pair<const long, long>, std::_Select1st<std::pair<const long, long>>, std::less<long>>::_Rb_tree_impl" }
%"struct.std::_Rb_tree<long, std::pair<const long, long>, std::_Select1st<std::pair<const long, long>>, std::less<long>>::_Rb_tree_impl" = type { %"struct.std::_Rb_tree_key_compare", %"struct.std::_Rb_tree_header" }
%"struct.std::_Rb_tree_key_compare" = type { %"struct.std::less" }
%"struct.std::less" = type { i8 }
%"struct.std::_Rb_tree_header" = type { %"struct.std::_Rb_tree_node_base", i64 }
%"struct.std::_Rb_tree_node_base" = type { i32, %"struct.std::_Rb_tree_node_base"*, %"struct.std::_Rb_tree_node_base"*, %"struct.std::_Rb_tree_node_base"* }
%"struct.std::_Rb_tree_node" = type { %"struct.std::_Rb_tree_node_base", %"struct.__gnu_cxx::__aligned_membuf.131" }
%"struct.__gnu_cxx::__aligned_membuf.131" = type { [16 x i8] }
%"class.std::__detail::_Executor" = type <{ %"class.std::vector", %"class.__gnu_cxx::__normal_iterator", %"class.__gnu_cxx::__normal_iterator", %"class.__gnu_cxx::__normal_iterator", %"class.std::__cxx11::basic_regex"*, %"struct.std::__detail::_NFA"*, %"class.std::vector"*, %"class.std::vector.140", %"struct.std::__detail::_Executor<__gnu_cxx::__normal_iterator<const char *, std::__cxx11::basic_string<char>>, std::allocator<std::__cxx11::sub_match<__gnu_cxx::__normal_iterator<const char *, std::__cxx11::basic_string<char>>>>, std::__cxx11::regex_traits<char>, false>::_State_info", i32, i8, [3 x i8] }>
%"class.std::vector.140" = type { %"struct.std::_Vector_base.141" }
%"struct.std::_Vector_base.141" = type { %"struct.std::_Vector_base<std::pair<__gnu_cxx::__normal_iterator<const char *, std::__cxx11::basic_string<char>>, int>, std::allocator<std::pair<__gnu_cxx::__normal_iterator<const char *, std::__cxx11::basic_string<char>>, int>>>::_Vector_impl" }
%"struct.std::_Vector_base<std::pair<__gnu_cxx::__normal_iterator<const char *, std::__cxx11::basic_string<char>>, int>, std::allocator<std::pair<__gnu_cxx::__normal_iterator<const char *, std::__cxx11::basic_string<char>>, int>>>::_Vector_impl" = type { %"struct.std::_Vector_base<std::pair<__gnu_cxx::__normal_iterator<const char *, std::__cxx11::basic_string<char>>, int>, std::allocator<std::pair<__gnu_cxx::__normal_iterator<const char *, std::__cxx11::basic_string<char>>, int>>>::_Vector_impl_data" }
%"struct.std::_Vector_base<std::pair<__gnu_cxx::__normal_iterator<const char *, std::__cxx11::basic_string<char>>, int>, std::allocator<std::pair<__gnu_cxx::__normal_iterator<const char *, std::__cxx11::basic_string<char>>, int>>>::_Vector_impl_data" = type { %"struct.std::pair.145"*, %"struct.std::pair.145"*, %"struct.std::pair.145"* }
%"struct.std::pair.145" = type <{ %"class.__gnu_cxx::__normal_iterator", i32, [4 x i8] }>
%"struct.std::__detail::_Executor<__gnu_cxx::__normal_iterator<const char *, std::__cxx11::basic_string<char>>, std::allocator<std::__cxx11::sub_match<__gnu_cxx::__normal_iterator<const char *, std::__cxx11::basic_string<char>>>>, std::__cxx11::regex_traits<char>, false>::_State_info" = type { %"class.std::vector.149", %"class.std::unique_ptr", i64 }
%"class.std::vector.149" = type { %"struct.std::_Vector_base.150" }
%"struct.std::_Vector_base.150" = type { %"struct.std::_Vector_base<std::pair<long, std::vector<std::__cxx11::sub_match<__gnu_cxx::__normal_iterator<const char *, std::__cxx11::basic_string<char>>>>>, std::allocator<std::pair<long, std::vector<std::__cxx11::sub_match<__gnu_cxx::__normal_iterator<const char *, std::__cxx11::basic_string<char>>>>>>>::_Vector_impl" }
%"struct.std::_Vector_base<std::pair<long, std::vector<std::__cxx11::sub_match<__gnu_cxx::__normal_iterator<const char *, std::__cxx11::basic_string<char>>>>>, std::allocator<std::pair<long, std::vector<std::__cxx11::sub_match<__gnu_cxx::__normal_iterator<const char *, std::__cxx11::basic_string<char>>>>>>>::_Vector_impl" = type { %"struct.std::_Vector_base<std::pair<long, std::vector<std::__cxx11::sub_match<__gnu_cxx::__normal_iterator<const char *, std::__cxx11::basic_string<char>>>>>, std::allocator<std::pair<long, std::vector<std::__cxx11::sub_match<__gnu_cxx::__normal_iterator<const char *, std::__cxx11::basic_string<char>>>>>>>::_Vector_impl_data" }
%"struct.std::_Vector_base<std::pair<long, std::vector<std::__cxx11::sub_match<__gnu_cxx::__normal_iterator<const char *, std::__cxx11::basic_string<char>>>>>, std::allocator<std::pair<long, std::vector<std::__cxx11::sub_match<__gnu_cxx::__normal_iterator<const char *, std::__cxx11::basic_string<char>>>>>>>::_Vector_impl_data" = type { %"struct.std::pair.154"*, %"struct.std::pair.154"*, %"struct.std::pair.154"* }
%"struct.std::pair.154" = type { i64, %"class.std::vector" }
%"class.std::unique_ptr" = type { %"struct.std::__uniq_ptr_data" }
%"struct.std::__uniq_ptr_data" = type { %"class.std::__uniq_ptr_impl" }
%"class.std::__uniq_ptr_impl" = type { %"class.std::tuple.157" }
%"class.std::tuple.157" = type { %"struct.std::_Tuple_impl.158" }
%"struct.std::_Tuple_impl.158" = type { %"struct.std::_Head_base.161" }
%"struct.std::_Head_base.161" = type { i8* }
%"class.std::__detail::_Executor.162" = type <{ %"class.std::vector", %"class.__gnu_cxx::__normal_iterator", %"class.__gnu_cxx::__normal_iterator", %"class.__gnu_cxx::__normal_iterator", %"class.std::__cxx11::basic_regex"*, %"struct.std::__detail::_NFA"*, %"class.std::vector"*, %"class.std::vector.140", %"struct.std::__detail::_Executor<__gnu_cxx::__normal_iterator<const char *, std::__cxx11::basic_string<char>>, std::allocator<std::__cxx11::sub_match<__gnu_cxx::__normal_iterator<const char *, std::__cxx11::basic_string<char>>>>, std::__cxx11::regex_traits<char>, true>::_State_info", i32, i8, [3 x i8] }>
%"struct.std::__detail::_Executor<__gnu_cxx::__normal_iterator<const char *, std::__cxx11::basic_string<char>>, std::allocator<std::__cxx11::sub_match<__gnu_cxx::__normal_iterator<const char *, std::__cxx11::basic_string<char>>>>, std::__cxx11::regex_traits<char>, true>::_State_info" = type { i64, %"class.__gnu_cxx::__normal_iterator" }
%"struct.std::__detail::_NFA_base" = type <{ %"class.std::vector.3", i32, [4 x i8], i64, i64, i8, [7 x i8] }>
%"struct.std::__detail::_Backref_matcher" = type { i8, %"class.std::__cxx11::regex_traits"* }

$__clang_call_terminate = comdat any

$_ZNSt8__detail9_CompilerINSt7__cxx1112regex_traitsIcEEEC2EPKcS6_RKSt6localeNSt15regex_constants18syntax_option_typeE = comdat any

$_ZNSt8__detail8_ScannerIcEC2EPKcS3_NSt15regex_constants18syntax_option_typeESt6locale = comdat any

$_ZNSt8__detail4_NFAINSt7__cxx1112regex_traitsIcEEE23_M_insert_subexpr_beginEv = comdat any

$_ZNSt8__detail9_CompilerINSt7__cxx1112regex_traitsIcEEE14_M_disjunctionEv = comdat any

$_ZNSt8__detail9_CompilerINSt7__cxx1112regex_traitsIcEEE14_M_match_tokenENS_12_ScannerBase7_TokenTE = comdat any

$_ZNSt8__detail12_ScannerBaseC2ENSt15regex_constants18syntax_option_typeE = comdat any

$_ZNSt8__detail8_ScannerIcE18_M_eat_escape_ecmaEv = comdat any

$_ZNSt8__detail8_ScannerIcE19_M_eat_escape_posixEv = comdat any

$_ZSt19__throw_regex_errorNSt15regex_constants10error_typeEPKc = comdat any

$_ZNSt11regex_errorC2ENSt15regex_constants10error_typeEPKc = comdat any

$_ZNSt8__detail8_ScannerIcE17_M_eat_escape_awkEv = comdat any

$_ZNSt8__detail8_ScannerIcE14_M_scan_normalEv = comdat any

$_ZNSt8__detail8_ScannerIcE18_M_scan_in_bracketEv = comdat any

$_ZNSt8__detail8_ScannerIcE16_M_scan_in_braceEv = comdat any

$_ZNSt8__detail8_ScannerIcE12_M_eat_classEc = comdat any

$_ZNSt16allocator_traitsISaINSt8__detail4_NFAINSt7__cxx1112regex_traitsIcEEEEEE9constructIS5_JRKSt6localeRNSt15regex_constants18syntax_option_typeEEEEvRS6_PT_DpOT0_ = comdat any

$_ZNSt23_Sp_counted_ptr_inplaceINSt8__detail4_NFAINSt7__cxx1112regex_traitsIcEEEESaIS5_ELN9__gnu_cxx12_Lock_policyE2EED2Ev = comdat any

$_ZNSt23_Sp_counted_ptr_inplaceINSt8__detail4_NFAINSt7__cxx1112regex_traitsIcEEEESaIS5_ELN9__gnu_cxx12_Lock_policyE2EED0Ev = comdat any

$_ZNSt23_Sp_counted_ptr_inplaceINSt8__detail4_NFAINSt7__cxx1112regex_traitsIcEEEESaIS5_ELN9__gnu_cxx12_Lock_policyE2EE10_M_disposeEv = comdat any

$_ZNSt23_Sp_counted_ptr_inplaceINSt8__detail4_NFAINSt7__cxx1112regex_traitsIcEEEESaIS5_ELN9__gnu_cxx12_Lock_policyE2EE10_M_destroyEv = comdat any

$_ZNSt23_Sp_counted_ptr_inplaceINSt8__detail4_NFAINSt7__cxx1112regex_traitsIcEEEESaIS5_ELN9__gnu_cxx12_Lock_policyE2EE14_M_get_deleterERKSt9type_info = comdat any

$_ZNSt12_Destroy_auxILb0EE9__destroyIPNSt8__detail6_StateIcEEEEvT_S6_ = comdat any

$_ZNSt8__detail6_StateIcED2Ev = comdat any

$_ZNSt11_Deque_baseINSt8__detail9_StateSeqINSt7__cxx1112regex_traitsIcEEEESaIS5_EE17_M_initialize_mapEm = comdat any

$_ZNSt8__detail4_NFAINSt7__cxx1112regex_traitsIcEEE15_M_insert_stateENS_6_StateIcEE = comdat any

$_ZNSt6vectorINSt8__detail6_StateIcEESaIS2_EE17_M_realloc_insertIJS2_EEEvN9__gnu_cxx17__normal_iteratorIPS2_S4_EEDpOT_ = comdat any

$_ZNSt20__uninitialized_copyILb0EE13__uninit_copyIPKNSt8__detail6_StateIcEEPS4_EET0_T_S9_S8_ = comdat any

$_ZN9__gnu_cxx13new_allocatorINSt8__detail6_StateIcEEE7destroyIS3_EEvPT_ = comdat any

$_ZNSt8__detail9_CompilerINSt7__cxx1112regex_traitsIcEEE14_M_alternativeEv = comdat any

$_ZNSt8__detail9_CompilerINSt7__cxx1112regex_traitsIcEEE12_M_assertionEv = comdat any

$_ZNSt8__detail9_CompilerINSt7__cxx1112regex_traitsIcEEE7_M_atomEv = comdat any

$_ZNSt8__detail9_CompilerINSt7__cxx1112regex_traitsIcEEE13_M_quantifierEv = comdat any

$_ZNSt8__detail9_CompilerINSt7__cxx1112regex_traitsIcEEE27_M_insert_any_matcher_posixILb0ELb0EEEvv = comdat any

$_ZNSt8__detail9_CompilerINSt7__cxx1112regex_traitsIcEEE27_M_insert_any_matcher_posixILb0ELb1EEEvv = comdat any

$_ZNSt8__detail9_CompilerINSt7__cxx1112regex_traitsIcEEE27_M_insert_any_matcher_posixILb1ELb0EEEvv = comdat any

$_ZNSt8__detail9_CompilerINSt7__cxx1112regex_traitsIcEEE27_M_insert_any_matcher_posixILb1ELb1EEEvv = comdat any

$_ZNSt8__detail9_CompilerINSt7__cxx1112regex_traitsIcEEE26_M_insert_any_matcher_ecmaILb0ELb0EEEvv = comdat any

$_ZNSt8__detail9_CompilerINSt7__cxx1112regex_traitsIcEEE26_M_insert_any_matcher_ecmaILb0ELb1EEEvv = comdat any

$_ZNSt8__detail9_CompilerINSt7__cxx1112regex_traitsIcEEE26_M_insert_any_matcher_ecmaILb1ELb0EEEvv = comdat any

$_ZNSt8__detail9_CompilerINSt7__cxx1112regex_traitsIcEEE26_M_insert_any_matcher_ecmaILb1ELb1EEEvv = comdat any

$_ZNSt8__detail9_CompilerINSt7__cxx1112regex_traitsIcEEE11_M_try_charEv = comdat any

$_ZNSt8__detail9_CompilerINSt7__cxx1112regex_traitsIcEEE22_M_insert_char_matcherILb0ELb0EEEvv = comdat any

$_ZNSt8__detail9_CompilerINSt7__cxx1112regex_traitsIcEEE22_M_insert_char_matcherILb0ELb1EEEvv = comdat any

$_ZNSt8__detail9_CompilerINSt7__cxx1112regex_traitsIcEEE22_M_insert_char_matcherILb1ELb0EEEvv = comdat any

$_ZNSt8__detail9_CompilerINSt7__cxx1112regex_traitsIcEEE22_M_insert_char_matcherILb1ELb1EEEvv = comdat any

$_ZNSt8__detail4_NFAINSt7__cxx1112regex_traitsIcEEE17_M_insert_backrefEm = comdat any

$_ZNSt8__detail9_CompilerINSt7__cxx1112regex_traitsIcEEE16_M_cur_int_valueEi = comdat any

$_ZNSt8__detail9_CompilerINSt7__cxx1112regex_traitsIcEEE33_M_insert_character_class_matcherILb0ELb0EEEvv = comdat any

$_ZNSt8__detail9_CompilerINSt7__cxx1112regex_traitsIcEEE33_M_insert_character_class_matcherILb0ELb1EEEvv = comdat any

$_ZNSt8__detail9_CompilerINSt7__cxx1112regex_traitsIcEEE33_M_insert_character_class_matcherILb1ELb0EEEvv = comdat any

$_ZNSt8__detail9_CompilerINSt7__cxx1112regex_traitsIcEEE33_M_insert_character_class_matcherILb1ELb1EEEvv = comdat any

$_ZNSt8__detail9_CompilerINSt7__cxx1112regex_traitsIcEEE21_M_bracket_expressionEv = comdat any

$_ZNSt8__detail4_NFAINSt7__cxx1112regex_traitsIcEEE17_M_insert_matcherESt8functionIFbcEE = comdat any

$_ZNSt17_Function_handlerIFbcENSt8__detail11_AnyMatcherINSt7__cxx1112regex_traitsIcEELb0ELb0ELb0EEEE9_M_invokeERKSt9_Any_dataOc = comdat any

$_ZNSt17_Function_handlerIFbcENSt8__detail11_AnyMatcherINSt7__cxx1112regex_traitsIcEELb0ELb0ELb0EEEE10_M_managerERSt9_Any_dataRKS8_St18_Manager_operation = comdat any

$_ZNSt17_Function_handlerIFbcENSt8__detail11_AnyMatcherINSt7__cxx1112regex_traitsIcEELb0ELb0ELb1EEEE9_M_invokeERKSt9_Any_dataOc = comdat any

$_ZNSt17_Function_handlerIFbcENSt8__detail11_AnyMatcherINSt7__cxx1112regex_traitsIcEELb0ELb0ELb1EEEE10_M_managerERSt9_Any_dataRKS8_St18_Manager_operation = comdat any

$_ZNSt17_Function_handlerIFbcENSt8__detail11_AnyMatcherINSt7__cxx1112regex_traitsIcEELb0ELb1ELb0EEEE9_M_invokeERKSt9_Any_dataOc = comdat any

$_ZNSt17_Function_handlerIFbcENSt8__detail11_AnyMatcherINSt7__cxx1112regex_traitsIcEELb0ELb1ELb0EEEE10_M_managerERSt9_Any_dataRKS8_St18_Manager_operation = comdat any

$_ZSt13__invoke_implIbRNSt8__detail11_AnyMatcherINSt7__cxx1112regex_traitsIcEELb0ELb1ELb0EEEJcEET_St14__invoke_otherOT0_DpOT1_ = comdat any

$_ZNSt17_Function_handlerIFbcENSt8__detail11_AnyMatcherINSt7__cxx1112regex_traitsIcEELb0ELb1ELb1EEEE9_M_invokeERKSt9_Any_dataOc = comdat any

$_ZNSt17_Function_handlerIFbcENSt8__detail11_AnyMatcherINSt7__cxx1112regex_traitsIcEELb0ELb1ELb1EEEE10_M_managerERSt9_Any_dataRKS8_St18_Manager_operation = comdat any

$_ZSt13__invoke_implIbRNSt8__detail11_AnyMatcherINSt7__cxx1112regex_traitsIcEELb0ELb1ELb1EEEJcEET_St14__invoke_otherOT0_DpOT1_ = comdat any

$_ZNSt17_Function_handlerIFbcENSt8__detail11_AnyMatcherINSt7__cxx1112regex_traitsIcEELb1ELb0ELb0EEEE9_M_invokeERKSt9_Any_dataOc = comdat any

$_ZNSt17_Function_handlerIFbcENSt8__detail11_AnyMatcherINSt7__cxx1112regex_traitsIcEELb1ELb0ELb0EEEE10_M_managerERSt9_Any_dataRKS8_St18_Manager_operation = comdat any

$_ZNSt17_Function_handlerIFbcENSt8__detail11_AnyMatcherINSt7__cxx1112regex_traitsIcEELb1ELb0ELb1EEEE9_M_invokeERKSt9_Any_dataOc = comdat any

$_ZNSt17_Function_handlerIFbcENSt8__detail11_AnyMatcherINSt7__cxx1112regex_traitsIcEELb1ELb0ELb1EEEE10_M_managerERSt9_Any_dataRKS8_St18_Manager_operation = comdat any

$_ZNSt17_Function_handlerIFbcENSt8__detail11_AnyMatcherINSt7__cxx1112regex_traitsIcEELb1ELb1ELb0EEEE9_M_invokeERKSt9_Any_dataOc = comdat any

$_ZNSt17_Function_handlerIFbcENSt8__detail11_AnyMatcherINSt7__cxx1112regex_traitsIcEELb1ELb1ELb0EEEE10_M_managerERSt9_Any_dataRKS8_St18_Manager_operation = comdat any

$_ZNSt17_Function_handlerIFbcENSt8__detail11_AnyMatcherINSt7__cxx1112regex_traitsIcEELb1ELb1ELb1EEEE9_M_invokeERKSt9_Any_dataOc = comdat any

$_ZNSt17_Function_handlerIFbcENSt8__detail11_AnyMatcherINSt7__cxx1112regex_traitsIcEELb1ELb1ELb1EEEE10_M_managerERSt9_Any_dataRKS8_St18_Manager_operation = comdat any

$_ZNSt17_Function_handlerIFbcENSt8__detail12_CharMatcherINSt7__cxx1112regex_traitsIcEELb0ELb0EEEE9_M_invokeERKSt9_Any_dataOc = comdat any

$_ZNSt17_Function_handlerIFbcENSt8__detail12_CharMatcherINSt7__cxx1112regex_traitsIcEELb0ELb0EEEE10_M_managerERSt9_Any_dataRKS8_St18_Manager_operation = comdat any

$_ZNSt17_Function_handlerIFbcENSt8__detail12_CharMatcherINSt7__cxx1112regex_traitsIcEELb0ELb1EEEE9_M_invokeERKSt9_Any_dataOc = comdat any

$_ZNSt17_Function_handlerIFbcENSt8__detail12_CharMatcherINSt7__cxx1112regex_traitsIcEELb0ELb1EEEE10_M_managerERSt9_Any_dataRKS8_St18_Manager_operation = comdat any

$_ZNSt17_Function_handlerIFbcENSt8__detail12_CharMatcherINSt7__cxx1112regex_traitsIcEELb1ELb0EEEE9_M_invokeERKSt9_Any_dataOc = comdat any

$_ZNSt17_Function_handlerIFbcENSt8__detail12_CharMatcherINSt7__cxx1112regex_traitsIcEELb1ELb0EEEE10_M_managerERSt9_Any_dataRKS8_St18_Manager_operation = comdat any

$_ZNSt17_Function_handlerIFbcENSt8__detail12_CharMatcherINSt7__cxx1112regex_traitsIcEELb1ELb1EEEE9_M_invokeERKSt9_Any_dataOc = comdat any

$_ZNSt17_Function_handlerIFbcENSt8__detail12_CharMatcherINSt7__cxx1112regex_traitsIcEELb1ELb1EEEE10_M_managerERSt9_Any_dataRKS8_St18_Manager_operation = comdat any

$_ZNKSt7__cxx1112regex_traitsIcE5valueEci = comdat any

$_ZNSt8__detail15_BracketMatcherINSt7__cxx1112regex_traitsIcEELb0ELb0EE22_M_add_character_classERKNS1_12basic_stringIcSt11char_traitsIcESaIcEEEb = comdat any

$_ZNSt8__detail15_BracketMatcherINSt7__cxx1112regex_traitsIcEELb0ELb0EE8_M_readyEv = comdat any

$_ZNSt8__detail15_BracketMatcherINSt7__cxx1112regex_traitsIcEELb0ELb0EED2Ev = comdat any

$_ZNSt6vectorINSt7__cxx1112basic_stringIcSt11char_traitsIcESaIcEEESaIS5_EED2Ev = comdat any

$_ZNKSt7__cxx1112regex_traitsIcE16lookup_classnameIPKcEENS1_10_RegexMaskET_S6_b = comdat any

$_ZSt16__introsort_loopIN9__gnu_cxx17__normal_iteratorIPcSt6vectorIcSaIcEEEElNS0_5__ops15_Iter_less_iterEEvT_S9_T0_T1_ = comdat any

$_ZSt22__final_insertion_sortIN9__gnu_cxx17__normal_iteratorIPcSt6vectorIcSaIcEEEENS0_5__ops15_Iter_less_iterEEvT_S9_T0_ = comdat any

$_ZSt11__make_heapIN9__gnu_cxx17__normal_iteratorIPcSt6vectorIcSaIcEEEENS0_5__ops15_Iter_less_iterEEvT_S9_RT0_ = comdat any

$_ZZNKSt8__detail15_BracketMatcherINSt7__cxx1112regex_traitsIcEELb0ELb0EE8_M_applyEcSt17integral_constantIbLb0EEENKUlvE_clEv = comdat any

$_ZNKSt7__cxx1112regex_traitsIcE17transform_primaryIPKcEENS_12basic_stringIcSt11char_traitsIcESaIcEEET_SA_ = comdat any

$_ZSt9__find_ifIN9__gnu_cxx17__normal_iteratorIPKNSt7__cxx1112basic_stringIcSt11char_traitsIcESaIcEEESt6vectorIS7_SaIS7_EEEENS0_5__ops16_Iter_equals_valIS8_EEET_SH_SH_T0_St26random_access_iterator_tag = comdat any

$_ZNKSt7__cxx1112regex_traitsIcE9transformIPcEENS_12basic_stringIcSt11char_traitsIcESaIcEEET_S9_ = comdat any

$_ZNSt17_Function_handlerIFbcENSt8__detail15_BracketMatcherINSt7__cxx1112regex_traitsIcEELb0ELb0EEEE9_M_invokeERKSt9_Any_dataOc = comdat any

$_ZNSt17_Function_handlerIFbcENSt8__detail15_BracketMatcherINSt7__cxx1112regex_traitsIcEELb0ELb0EEEE10_M_managerERSt9_Any_dataRKS8_St18_Manager_operation = comdat any

$_ZNSt8__detail15_BracketMatcherINSt7__cxx1112regex_traitsIcEELb0ELb0EEC2ERKS4_ = comdat any

$_ZNSt20__uninitialized_copyILb0EE13__uninit_copyIN9__gnu_cxx17__normal_iteratorIPKNSt7__cxx1112basic_stringIcSt11char_traitsIcESaIcEEESt6vectorIS9_SaIS9_EEEEPS9_EET0_T_SI_SH_ = comdat any

$_ZNSt8__detail15_BracketMatcherINSt7__cxx1112regex_traitsIcEELb0ELb1EE22_M_add_character_classERKNS1_12basic_stringIcSt11char_traitsIcESaIcEEEb = comdat any

$_ZNSt8__detail15_BracketMatcherINSt7__cxx1112regex_traitsIcEELb0ELb1EE8_M_readyEv = comdat any

$_ZNSt8__detail15_BracketMatcherINSt7__cxx1112regex_traitsIcEELb0ELb1EED2Ev = comdat any

$_ZNSt6vectorISt4pairINSt7__cxx1112basic_stringIcSt11char_traitsIcESaIcEEES6_ESaIS7_EED2Ev = comdat any

$_ZNSt4pairINSt7__cxx1112basic_stringIcSt11char_traitsIcESaIcEEES5_ED2Ev = comdat any

$_ZZNKSt8__detail15_BracketMatcherINSt7__cxx1112regex_traitsIcEELb0ELb1EE8_M_applyEcSt17integral_constantIbLb0EEENKUlvE_clEv = comdat any

$_ZNKSt7__cxx1112regex_traitsIcE9transformIN9__gnu_cxx17__normal_iteratorIPcNS_12basic_stringIcSt11char_traitsIcESaIcEEEEEEESA_T_SC_ = comdat any

$_ZNSt17_Function_handlerIFbcENSt8__detail15_BracketMatcherINSt7__cxx1112regex_traitsIcEELb0ELb1EEEE9_M_invokeERKSt9_Any_dataOc = comdat any

$_ZNSt17_Function_handlerIFbcENSt8__detail15_BracketMatcherINSt7__cxx1112regex_traitsIcEELb0ELb1EEEE10_M_managerERSt9_Any_dataRKS8_St18_Manager_operation = comdat any

$_ZNSt8__detail15_BracketMatcherINSt7__cxx1112regex_traitsIcEELb0ELb1EEC2ERKS4_ = comdat any

$_ZNSt6vectorISt4pairINSt7__cxx1112basic_stringIcSt11char_traitsIcESaIcEEES6_ESaIS7_EEC2ERKS9_ = comdat any

$_ZNSt4pairINSt7__cxx1112basic_stringIcSt11char_traitsIcESaIcEEES5_EC2ERKS6_ = comdat any

$_ZNSt8__detail15_BracketMatcherINSt7__cxx1112regex_traitsIcEELb1ELb0EE22_M_add_character_classERKNS1_12basic_stringIcSt11char_traitsIcESaIcEEEb = comdat any

$_ZNSt8__detail15_BracketMatcherINSt7__cxx1112regex_traitsIcEELb1ELb0EE8_M_readyEv = comdat any

$_ZNSt8__detail15_BracketMatcherINSt7__cxx1112regex_traitsIcEELb1ELb0EED2Ev = comdat any

$_ZZNKSt8__detail15_BracketMatcherINSt7__cxx1112regex_traitsIcEELb1ELb0EE8_M_applyEcSt17integral_constantIbLb0EEENKUlvE_clEv = comdat any

$_ZNSt17_Function_handlerIFbcENSt8__detail15_BracketMatcherINSt7__cxx1112regex_traitsIcEELb1ELb0EEEE9_M_invokeERKSt9_Any_dataOc = comdat any

$_ZNSt17_Function_handlerIFbcENSt8__detail15_BracketMatcherINSt7__cxx1112regex_traitsIcEELb1ELb0EEEE10_M_managerERSt9_Any_dataRKS8_St18_Manager_operation = comdat any

$_ZNSt8__detail15_BracketMatcherINSt7__cxx1112regex_traitsIcEELb1ELb0EEC2ERKS4_ = comdat any

$_ZNSt8__detail15_BracketMatcherINSt7__cxx1112regex_traitsIcEELb1ELb1EE22_M_add_character_classERKNS1_12basic_stringIcSt11char_traitsIcESaIcEEEb = comdat any

$_ZNSt8__detail15_BracketMatcherINSt7__cxx1112regex_traitsIcEELb1ELb1EE8_M_readyEv = comdat any

$_ZNSt8__detail15_BracketMatcherINSt7__cxx1112regex_traitsIcEELb1ELb1EED2Ev = comdat any

$_ZZNKSt8__detail15_BracketMatcherINSt7__cxx1112regex_traitsIcEELb1ELb1EE8_M_applyEcSt17integral_constantIbLb0EEENKUlvE_clEv = comdat any

$_ZNSt17_Function_handlerIFbcENSt8__detail15_BracketMatcherINSt7__cxx1112regex_traitsIcEELb1ELb1EEEE9_M_invokeERKSt9_Any_dataOc = comdat any

$_ZNSt17_Function_handlerIFbcENSt8__detail15_BracketMatcherINSt7__cxx1112regex_traitsIcEELb1ELb1EEEE10_M_managerERSt9_Any_dataRKS8_St18_Manager_operation = comdat any

$_ZNSt8__detail15_BracketMatcherINSt7__cxx1112regex_traitsIcEELb1ELb1EEC2ERKS4_ = comdat any

$_ZNSt8__detail9_CompilerINSt7__cxx1112regex_traitsIcEEE25_M_insert_bracket_matcherILb0ELb0EEEvb = comdat any

$_ZNSt8__detail9_CompilerINSt7__cxx1112regex_traitsIcEEE25_M_insert_bracket_matcherILb0ELb1EEEvb = comdat any

$_ZNSt8__detail9_CompilerINSt7__cxx1112regex_traitsIcEEE25_M_insert_bracket_matcherILb1ELb0EEEvb = comdat any

$_ZNSt8__detail9_CompilerINSt7__cxx1112regex_traitsIcEEE25_M_insert_bracket_matcherILb1ELb1EEEvb = comdat any

$_ZNSt8__detail9_CompilerINSt7__cxx1112regex_traitsIcEEE18_M_expression_termILb0ELb0EEEbRSt4pairIbcERNS_15_BracketMatcherIS3_XT_EXT0_EEE = comdat any

$_ZNSt8__detail15_BracketMatcherINSt7__cxx1112regex_traitsIcEELb0ELb0EE11_M_add_charEc = comdat any

$_ZNSt8__detail15_BracketMatcherINSt7__cxx1112regex_traitsIcEELb0ELb0EE22_M_add_collate_elementERKNS1_12basic_stringIcSt11char_traitsIcESaIcEEE = comdat any

$_ZZNSt8__detail9_CompilerINSt7__cxx1112regex_traitsIcEEE18_M_expression_termILb0ELb0EEEbRSt4pairIbcERNS_15_BracketMatcherIS3_XT_EXT0_EEEENKUlcE_clEc = comdat any

$_ZNSt8__detail15_BracketMatcherINSt7__cxx1112regex_traitsIcEELb0ELb0EE24_M_add_equivalence_classERKNS1_12basic_stringIcSt11char_traitsIcESaIcEEE = comdat any

$_ZNSt8__detail15_BracketMatcherINSt7__cxx1112regex_traitsIcEELb0ELb0EE13_M_make_rangeEcc = comdat any

$_ZNKSt7__cxx1112regex_traitsIcE18lookup_collatenameIPKcEENS_12basic_stringIcSt11char_traitsIcESaIcEEET_SA_ = comdat any

$_ZNSt6vectorINSt7__cxx1112basic_stringIcSt11char_traitsIcESaIcEEESaIS5_EE17_M_realloc_insertIJRKS5_EEEvN9__gnu_cxx17__normal_iteratorIPS5_S7_EEDpOT_ = comdat any

$_ZNSt8__detail9_CompilerINSt7__cxx1112regex_traitsIcEEE18_M_expression_termILb0ELb1EEEbRSt4pairIbcERNS_15_BracketMatcherIS3_XT_EXT0_EEE = comdat any

$_ZNSt8__detail15_BracketMatcherINSt7__cxx1112regex_traitsIcEELb0ELb1EE11_M_add_charEc = comdat any

$_ZNSt8__detail15_BracketMatcherINSt7__cxx1112regex_traitsIcEELb0ELb1EE22_M_add_collate_elementERKNS1_12basic_stringIcSt11char_traitsIcESaIcEEE = comdat any

$_ZZNSt8__detail9_CompilerINSt7__cxx1112regex_traitsIcEEE18_M_expression_termILb0ELb1EEEbRSt4pairIbcERNS_15_BracketMatcherIS3_XT_EXT0_EEEENKUlcE_clEc = comdat any

$_ZNSt8__detail15_BracketMatcherINSt7__cxx1112regex_traitsIcEELb0ELb1EE24_M_add_equivalence_classERKNS1_12basic_stringIcSt11char_traitsIcESaIcEEE = comdat any

$_ZNSt8__detail15_BracketMatcherINSt7__cxx1112regex_traitsIcEELb0ELb1EE13_M_make_rangeEcc = comdat any

$_ZNSt6vectorISt4pairINSt7__cxx1112basic_stringIcSt11char_traitsIcESaIcEEES6_ESaIS7_EE17_M_realloc_insertIJS7_EEEvN9__gnu_cxx17__normal_iteratorIPS7_S9_EEDpOT_ = comdat any

$_ZNSt8__detail9_CompilerINSt7__cxx1112regex_traitsIcEEE18_M_expression_termILb1ELb0EEEbRSt4pairIbcERNS_15_BracketMatcherIS3_XT_EXT0_EEE = comdat any

$_ZNSt8__detail15_BracketMatcherINSt7__cxx1112regex_traitsIcEELb1ELb0EE11_M_add_charEc = comdat any

$_ZNSt8__detail15_BracketMatcherINSt7__cxx1112regex_traitsIcEELb1ELb0EE22_M_add_collate_elementERKNS1_12basic_stringIcSt11char_traitsIcESaIcEEE = comdat any

$_ZNSt8__detail15_BracketMatcherINSt7__cxx1112regex_traitsIcEELb1ELb0EE24_M_add_equivalence_classERKNS1_12basic_stringIcSt11char_traitsIcESaIcEEE = comdat any

$_ZNSt8__detail15_BracketMatcherINSt7__cxx1112regex_traitsIcEELb1ELb0EE13_M_make_rangeEcc = comdat any

$_ZNSt8__detail9_CompilerINSt7__cxx1112regex_traitsIcEEE18_M_expression_termILb1ELb1EEEbRSt4pairIbcERNS_15_BracketMatcherIS3_XT_EXT0_EEE = comdat any

$_ZNSt8__detail15_BracketMatcherINSt7__cxx1112regex_traitsIcEELb1ELb1EE11_M_add_charEc = comdat any

$_ZNSt8__detail15_BracketMatcherINSt7__cxx1112regex_traitsIcEELb1ELb1EE22_M_add_collate_elementERKNS1_12basic_stringIcSt11char_traitsIcESaIcEEE = comdat any

$_ZNSt8__detail15_BracketMatcherINSt7__cxx1112regex_traitsIcEELb1ELb1EE24_M_add_equivalence_classERKNS1_12basic_stringIcSt11char_traitsIcESaIcEEE = comdat any

$_ZNSt8__detail15_BracketMatcherINSt7__cxx1112regex_traitsIcEELb1ELb1EE13_M_make_rangeEcc = comdat any

$_ZZNSt8__detail9_CompilerINSt7__cxx1112regex_traitsIcEEE13_M_quantifierEvENKUlvE_clEv = comdat any

$_ZNSt8__detail9_StateSeqINSt7__cxx1112regex_traitsIcEEE8_M_cloneEv = comdat any

$_ZNSt5stackIlSt5dequeIlSaIlEEED2Ev = comdat any

$_ZNSt8_Rb_treeIlSt4pairIKllESt10_Select1stIS2_ESt4lessIlESaIS2_EE22_M_emplace_hint_uniqueIJRKSt21piecewise_construct_tSt5tupleIJRS1_EESD_IJEEEEESt17_Rb_tree_iteratorIS2_ESt23_Rb_tree_const_iteratorIS2_EDpOT_ = comdat any

$_ZNSt8_Rb_treeIlSt4pairIKllESt10_Select1stIS2_ESt4lessIlESaIS2_EE29_M_get_insert_hint_unique_posESt23_Rb_tree_const_iteratorIS2_ERS1_ = comdat any

$_ZNSt8_Rb_treeIlSt4pairIKllESt10_Select1stIS2_ESt4lessIlESaIS2_EED2Ev = comdat any

$_ZNSt8_Rb_treeIlSt4pairIKllESt10_Select1stIS2_ESt4lessIlESaIS2_EE8_M_eraseEPSt13_Rb_tree_nodeIS2_E = comdat any

$_ZNSt11_Deque_baseIlSaIlEE17_M_initialize_mapEm = comdat any

$_ZNSt5dequeIlSaIlEE16_M_push_back_auxIJRKlEEEvDpOT_ = comdat any

$_ZNSt5dequeIlSaIlEE17_M_reallocate_mapEmb = comdat any

$_ZNSt5dequeINSt8__detail9_StateSeqINSt7__cxx1112regex_traitsIcEEEESaIS5_EE16_M_push_back_auxIJRKS5_EEEvDpOT_ = comdat any

$_ZNSt5dequeINSt8__detail9_StateSeqINSt7__cxx1112regex_traitsIcEEEESaIS5_EE17_M_reallocate_mapEmb = comdat any

$_ZNSt5dequeINSt8__detail9_StateSeqINSt7__cxx1112regex_traitsIcEEEESaIS5_EE16_M_push_back_auxIJS5_EEEvDpOT_ = comdat any

$_ZNSt5dequeINSt8__detail9_StateSeqINSt7__cxx1112regex_traitsIcEEEESaIS5_EED2Ev = comdat any

$_ZNSt14__shared_countILN9__gnu_cxx12_Lock_policyE2EED2Ev = comdat any

$_ZNSt12__shared_ptrIKNSt8__detail4_NFAINSt7__cxx1112regex_traitsIcEEEELN9__gnu_cxx12_Lock_policyE2EED2Ev = comdat any

$_ZNSt8__detail17__regex_algo_implIN9__gnu_cxx17__normal_iteratorIPKcNSt7__cxx1112basic_stringIcSt11char_traitsIcESaIcEEEEESaINS5_9sub_matchISB_EEEcNS5_12regex_traitsIcEELNS_20_RegexExecutorPolicyE0ELb0EEEbT_SI_RNS5_13match_resultsISI_T0_EERKNS5_11basic_regexIT1_T2_EENSt15regex_constants15match_flag_typeE = comdat any

$_ZNSt8__detail9_ExecutorIN9__gnu_cxx17__normal_iteratorIPKcNSt7__cxx1112basic_stringIcSt11char_traitsIcESaIcEEEEESaINS5_9sub_matchISB_EEENS5_12regex_traitsIcEELb0EEC2ESB_SB_RSt6vectorISD_SE_ERKNS5_11basic_regexIcSG_EENSt15regex_constants15match_flag_typeE = comdat any

$_ZNSt8__detail9_ExecutorIN9__gnu_cxx17__normal_iteratorIPKcNSt7__cxx1112basic_stringIcSt11char_traitsIcESaIcEEEEESaINS5_9sub_matchISB_EEENS5_12regex_traitsIcEELb0EED2Ev = comdat any

$_ZNSt8__detail9_ExecutorIN9__gnu_cxx17__normal_iteratorIPKcNSt7__cxx1112basic_stringIcSt11char_traitsIcESaIcEEEEESaINS5_9sub_matchISB_EEENS5_12regex_traitsIcEELb1EE9_M_searchEv = comdat any

$_ZNSt8__detail9_ExecutorIN9__gnu_cxx17__normal_iteratorIPKcNSt7__cxx1112basic_stringIcSt11char_traitsIcESaIcEEEEESaINS5_9sub_matchISB_EEENS5_12regex_traitsIcEELb1EED2Ev = comdat any

$_ZNSt6vectorINSt7__cxx119sub_matchIN9__gnu_cxx17__normal_iteratorIPKcNS0_12basic_stringIcSt11char_traitsIcESaIcEEEEEEESaISC_EE14_M_fill_assignEmRKSC_ = comdat any

$_ZNSt6vectorISt4pairIlS_INSt7__cxx119sub_matchIN9__gnu_cxx17__normal_iteratorIPKcNS1_12basic_stringIcSt11char_traitsIcESaIcEEEEEEESaISD_EEESaISG_EED2Ev = comdat any

$_ZNSt8__detail9_ExecutorIN9__gnu_cxx17__normal_iteratorIPKcNSt7__cxx1112basic_stringIcSt11char_traitsIcESaIcEEEEESaINS5_9sub_matchISB_EEENS5_12regex_traitsIcEELb0EE16_M_main_dispatchENSH_11_Match_modeESt17integral_constantIbLb0EE = comdat any

$_ZNSt8__detail9_ExecutorIN9__gnu_cxx17__normal_iteratorIPKcNSt7__cxx1112basic_stringIcSt11char_traitsIcESaIcEEEEESaINS5_9sub_matchISB_EEENS5_12regex_traitsIcEELb0EE11_State_infoISt17integral_constantIbLb0EESt6vectorISD_SE_EE8_M_queueElRKSM_ = comdat any

$_ZNSt8__detail9_ExecutorIN9__gnu_cxx17__normal_iteratorIPKcNSt7__cxx1112basic_stringIcSt11char_traitsIcESaIcEEEEESaINS5_9sub_matchISB_EEENS5_12regex_traitsIcEELb0EE6_M_dfsENSH_11_Match_modeEl = comdat any

$_ZNSt6vectorISt4pairIlS_INSt7__cxx119sub_matchIN9__gnu_cxx17__normal_iteratorIPKcNS1_12basic_stringIcSt11char_traitsIcESaIcEEEEEEESaISD_EEESaISG_EE17_M_realloc_insertIJRlRKSF_EEEvNS4_IPSG_SI_EEDpOT_ = comdat any

$_ZNSt8__detail9_ExecutorIN9__gnu_cxx17__normal_iteratorIPKcNSt7__cxx1112basic_stringIcSt11char_traitsIcESaIcEEEEESaINS5_9sub_matchISB_EEENS5_12regex_traitsIcEELb0EE17_M_handle_backrefENSH_11_Match_modeEl = comdat any

$_ZNSt8__detail9_ExecutorIN9__gnu_cxx17__normal_iteratorIPKcNSt7__cxx1112basic_stringIcSt11char_traitsIcESaIcEEEEESaINS5_9sub_matchISB_EEENS5_12regex_traitsIcEELb0EE16_M_rep_once_moreENSH_11_Match_modeEl = comdat any

$_ZNKSt8__detail9_ExecutorIN9__gnu_cxx17__normal_iteratorIPKcNSt7__cxx1112basic_stringIcSt11char_traitsIcESaIcEEEEESaINS5_9sub_matchISB_EEENS5_12regex_traitsIcEELb0EE16_M_word_boundaryEv = comdat any

$_ZNSt8__detail9_ExecutorIN9__gnu_cxx17__normal_iteratorIPKcNSt7__cxx1112basic_stringIcSt11char_traitsIcESaIcEEEEESaINS5_9sub_matchISB_EEENS5_12regex_traitsIcEELb0EE12_M_lookaheadEl = comdat any

$_ZNSt8__detail16_Backref_matcherIN9__gnu_cxx17__normal_iteratorIPKcNSt7__cxx1112basic_stringIcSt11char_traitsIcESaIcEEEEENS5_12regex_traitsIcEEE8_M_applyESB_SB_SB_SB_ = comdat any

$_ZNSt6vectorINSt7__cxx119sub_matchIN9__gnu_cxx17__normal_iteratorIPKcNS0_12basic_stringIcSt11char_traitsIcESaIcEEEEEEESaISC_EEaSERKSE_ = comdat any

$_ZNSt8__detail9_ExecutorIN9__gnu_cxx17__normal_iteratorIPKcNSt7__cxx1112basic_stringIcSt11char_traitsIcESaIcEEEEESaINS5_9sub_matchISB_EEENS5_12regex_traitsIcEELb1EE6_M_dfsENSH_11_Match_modeEl = comdat any

$_ZNSt8__detail9_ExecutorIN9__gnu_cxx17__normal_iteratorIPKcNSt7__cxx1112basic_stringIcSt11char_traitsIcESaIcEEEEESaINS5_9sub_matchISB_EEENS5_12regex_traitsIcEELb1EE17_M_handle_backrefENSH_11_Match_modeEl = comdat any

$_ZNKSt8__detail9_ExecutorIN9__gnu_cxx17__normal_iteratorIPKcNSt7__cxx1112basic_stringIcSt11char_traitsIcESaIcEEEEESaINS5_9sub_matchISB_EEENS5_12regex_traitsIcEELb1EE16_M_word_boundaryEv = comdat any

$_ZNSt8__detail9_ExecutorIN9__gnu_cxx17__normal_iteratorIPKcNSt7__cxx1112basic_stringIcSt11char_traitsIcESaIcEEEEESaINS5_9sub_matchISB_EEENS5_12regex_traitsIcEELb1EE12_M_lookaheadEl = comdat any

$_ZTVSt23_Sp_counted_ptr_inplaceINSt8__detail4_NFAINSt7__cxx1112regex_traitsIcEEEESaIS5_ELN9__gnu_cxx12_Lock_policyE2EE = comdat any

$_ZTSSt23_Sp_counted_ptr_inplaceINSt8__detail4_NFAINSt7__cxx1112regex_traitsIcEEEESaIS5_ELN9__gnu_cxx12_Lock_policyE2EE = comdat any

$_ZTSSt16_Sp_counted_baseILN9__gnu_cxx12_Lock_policyE2EE = comdat any

$_ZTSSt11_Mutex_baseILN9__gnu_cxx12_Lock_policyE2EE = comdat any

$_ZTISt11_Mutex_baseILN9__gnu_cxx12_Lock_policyE2EE = comdat any

$_ZTISt16_Sp_counted_baseILN9__gnu_cxx12_Lock_policyE2EE = comdat any

$_ZTISt23_Sp_counted_ptr_inplaceINSt8__detail4_NFAINSt7__cxx1112regex_traitsIcEEEESaIS5_ELN9__gnu_cxx12_Lock_policyE2EE = comdat any

$_ZTSSt19_Sp_make_shared_tag = comdat any

$_ZZNSt19_Sp_make_shared_tag5_S_tiEvE5__tag = comdat any

$_ZZNKSt8__detail11_AnyMatcherINSt7__cxx1112regex_traitsIcEELb0ELb0ELb0EEclEcE5__nul = comdat any

$_ZGVZNKSt8__detail11_AnyMatcherINSt7__cxx1112regex_traitsIcEELb0ELb0ELb0EEclEcE5__nul = comdat any

$_ZTSNSt8__detail11_AnyMatcherINSt7__cxx1112regex_traitsIcEELb0ELb0ELb0EEE = comdat any

$_ZTINSt8__detail11_AnyMatcherINSt7__cxx1112regex_traitsIcEELb0ELb0ELb0EEE = comdat any

$_ZZNKSt8__detail11_AnyMatcherINSt7__cxx1112regex_traitsIcEELb0ELb0ELb1EEclEcE5__nul = comdat any

$_ZGVZNKSt8__detail11_AnyMatcherINSt7__cxx1112regex_traitsIcEELb0ELb0ELb1EEclEcE5__nul = comdat any

$_ZTSNSt8__detail11_AnyMatcherINSt7__cxx1112regex_traitsIcEELb0ELb0ELb1EEE = comdat any

$_ZTINSt8__detail11_AnyMatcherINSt7__cxx1112regex_traitsIcEELb0ELb0ELb1EEE = comdat any

$_ZZNKSt8__detail11_AnyMatcherINSt7__cxx1112regex_traitsIcEELb0ELb1ELb0EEclEcE5__nul = comdat any

$_ZGVZNKSt8__detail11_AnyMatcherINSt7__cxx1112regex_traitsIcEELb0ELb1ELb0EEclEcE5__nul = comdat any

$_ZTSNSt8__detail11_AnyMatcherINSt7__cxx1112regex_traitsIcEELb0ELb1ELb0EEE = comdat any

$_ZTINSt8__detail11_AnyMatcherINSt7__cxx1112regex_traitsIcEELb0ELb1ELb0EEE = comdat any

$_ZZNKSt8__detail11_AnyMatcherINSt7__cxx1112regex_traitsIcEELb0ELb1ELb1EEclEcE5__nul = comdat any

$_ZGVZNKSt8__detail11_AnyMatcherINSt7__cxx1112regex_traitsIcEELb0ELb1ELb1EEclEcE5__nul = comdat any

$_ZTSNSt8__detail11_AnyMatcherINSt7__cxx1112regex_traitsIcEELb0ELb1ELb1EEE = comdat any

$_ZTINSt8__detail11_AnyMatcherINSt7__cxx1112regex_traitsIcEELb0ELb1ELb1EEE = comdat any

$_ZTSNSt8__detail11_AnyMatcherINSt7__cxx1112regex_traitsIcEELb1ELb0ELb0EEE = comdat any

$_ZTINSt8__detail11_AnyMatcherINSt7__cxx1112regex_traitsIcEELb1ELb0ELb0EEE = comdat any

$_ZTSNSt8__detail11_AnyMatcherINSt7__cxx1112regex_traitsIcEELb1ELb0ELb1EEE = comdat any

$_ZTINSt8__detail11_AnyMatcherINSt7__cxx1112regex_traitsIcEELb1ELb0ELb1EEE = comdat any

$_ZTSNSt8__detail11_AnyMatcherINSt7__cxx1112regex_traitsIcEELb1ELb1ELb0EEE = comdat any

$_ZTINSt8__detail11_AnyMatcherINSt7__cxx1112regex_traitsIcEELb1ELb1ELb0EEE = comdat any

$_ZTSNSt8__detail11_AnyMatcherINSt7__cxx1112regex_traitsIcEELb1ELb1ELb1EEE = comdat any

$_ZTINSt8__detail11_AnyMatcherINSt7__cxx1112regex_traitsIcEELb1ELb1ELb1EEE = comdat any

$_ZTSNSt8__detail12_CharMatcherINSt7__cxx1112regex_traitsIcEELb0ELb0EEE = comdat any

$_ZTINSt8__detail12_CharMatcherINSt7__cxx1112regex_traitsIcEELb0ELb0EEE = comdat any

$_ZTSNSt8__detail12_CharMatcherINSt7__cxx1112regex_traitsIcEELb0ELb1EEE = comdat any

$_ZTINSt8__detail12_CharMatcherINSt7__cxx1112regex_traitsIcEELb0ELb1EEE = comdat any

$_ZTSNSt8__detail12_CharMatcherINSt7__cxx1112regex_traitsIcEELb1ELb0EEE = comdat any

$_ZTINSt8__detail12_CharMatcherINSt7__cxx1112regex_traitsIcEELb1ELb0EEE = comdat any

$_ZTSNSt8__detail12_CharMatcherINSt7__cxx1112regex_traitsIcEELb1ELb1EEE = comdat any

$_ZTINSt8__detail12_CharMatcherINSt7__cxx1112regex_traitsIcEELb1ELb1EEE = comdat any

$_ZZNKSt7__cxx1112regex_traitsIcE16lookup_classnameIPKcEENS1_10_RegexMaskET_S6_bE12__classnamesB5cxx11 = comdat any

$_ZTSNSt8__detail15_BracketMatcherINSt7__cxx1112regex_traitsIcEELb0ELb0EEE = comdat any

$_ZTINSt8__detail15_BracketMatcherINSt7__cxx1112regex_traitsIcEELb0ELb0EEE = comdat any

$_ZTSNSt8__detail15_BracketMatcherINSt7__cxx1112regex_traitsIcEELb0ELb1EEE = comdat any

$_ZTINSt8__detail15_BracketMatcherINSt7__cxx1112regex_traitsIcEELb0ELb1EEE = comdat any

$_ZTSNSt8__detail15_BracketMatcherINSt7__cxx1112regex_traitsIcEELb1ELb0EEE = comdat any

$_ZTINSt8__detail15_BracketMatcherINSt7__cxx1112regex_traitsIcEELb1ELb0EEE = comdat any

$_ZTSNSt8__detail15_BracketMatcherINSt7__cxx1112regex_traitsIcEELb1ELb1EEE = comdat any

$_ZTINSt8__detail15_BracketMatcherINSt7__cxx1112regex_traitsIcEELb1ELb1EEE = comdat any

$_ZZNKSt7__cxx1112regex_traitsIcE18lookup_collatenameIPKcEENS_12basic_stringIcSt11char_traitsIcESaIcEEET_SA_E14__collatenames = comdat any

$_ZZNKSt8__detail9_ExecutorIN9__gnu_cxx17__normal_iteratorIPKcNSt7__cxx1112basic_stringIcSt11char_traitsIcESaIcEEEEESaINS5_9sub_matchISB_EEENS5_12regex_traitsIcEELb0EE10_M_is_wordEcE3__s = comdat any

$_ZZNKSt8__detail9_ExecutorIN9__gnu_cxx17__normal_iteratorIPKcNSt7__cxx1112basic_stringIcSt11char_traitsIcESaIcEEEEESaINS5_9sub_matchISB_EEENS5_12regex_traitsIcEELb1EE10_M_is_wordEcE3__s = comdat any

@_ZStL8__ioinit = internal global %"class.std::ios_base::Init" zeroinitializer, align 1
@__dso_handle = external hidden global i8
@_ZSt3cin = external global %"class.std::basic_istream", align 8
@.str = private unnamed_addr constant [17 x i8] c"^A[a-z]+C[a-z]+$\00", align 1
@_ZSt4cout = external global %"class.std::basic_ostream", align 8
@.str.1 = private unnamed_addr constant [3 x i8] c"AC\00", align 1
@.str.2 = private unnamed_addr constant [3 x i8] c"WA\00", align 1
@.str.3 = private unnamed_addr constant [15 x i8] c"^$\\.*+?()[]{}|\00", align 1
@.str.4 = private unnamed_addr constant [7 x i8] c".[\\*^$\00", align 1
@.str.5 = private unnamed_addr constant [13 x i8] c".[\\()*+?{|^$\00", align 1
@.str.6 = private unnamed_addr constant [8 x i8] c".[\\*^$\0A\00", align 1
@.str.7 = private unnamed_addr constant [14 x i8] c".[\\()*+?{|^$\0A\00", align 1
@_ZNSt5ctypeIcE2idE = external global %"class.std::locale::id", align 8
@_ZTINSt6locale5facetE = external constant i8*
@_ZTISt5ctypeIcE = external constant i8*
@.str.8 = private unnamed_addr constant [39 x i8] c"Unexpected end of regex when escaping.\00", align 1
@.str.9 = private unnamed_addr constant [51 x i8] c"Unexpected end of regex when reading control code.\00", align 1
@.str.10 = private unnamed_addr constant [46 x i8] c"Unexpected end of regex when ascii character.\00", align 1
@_ZTISt11regex_error = external constant i8*
@_ZTVSt11regex_error = external unnamed_addr constant { [5 x i8*] }, align 8
@.str.13 = private unnamed_addr constant [29 x i8] c"Unexpected escape character.\00", align 1
@.str.14 = private unnamed_addr constant [53 x i8] c"Unexpected end of regex when in an open parenthesis.\00", align 1
@.str.15 = private unnamed_addr constant [34 x i8] c"Invalid special open parenthesis.\00", align 1
@.str.16 = private unnamed_addr constant [52 x i8] c"Unexpected end of regex when in bracket expression.\00", align 1
@.str.17 = private unnamed_addr constant [41 x i8] c"Unexpected character class open bracket.\00", align 1
@.str.18 = private unnamed_addr constant [35 x i8] c"Unexpected end of character class.\00", align 1
@.str.19 = private unnamed_addr constant [50 x i8] c"Unexpected end of regex when in brace expression.\00", align 1
@.str.20 = private unnamed_addr constant [42 x i8] c"Unexpected character in brace expression.\00", align 1
@_ZTVSt23_Sp_counted_ptr_inplaceINSt8__detail4_NFAINSt7__cxx1112regex_traitsIcEEEESaIS5_ELN9__gnu_cxx12_Lock_policyE2EE = linkonce_odr dso_local unnamed_addr constant { [7 x i8*] } { [7 x i8*] [i8* null, i8* bitcast ({ i8*, i8*, i8* }* @_ZTISt23_Sp_counted_ptr_inplaceINSt8__detail4_NFAINSt7__cxx1112regex_traitsIcEEEESaIS5_ELN9__gnu_cxx12_Lock_policyE2EE to i8*), i8* bitcast (void (%"class.std::_Sp_counted_ptr_inplace"*)* @_ZNSt23_Sp_counted_ptr_inplaceINSt8__detail4_NFAINSt7__cxx1112regex_traitsIcEEEESaIS5_ELN9__gnu_cxx12_Lock_policyE2EED2Ev to i8*), i8* bitcast (void (%"class.std::_Sp_counted_ptr_inplace"*)* @_ZNSt23_Sp_counted_ptr_inplaceINSt8__detail4_NFAINSt7__cxx1112regex_traitsIcEEEESaIS5_ELN9__gnu_cxx12_Lock_policyE2EED0Ev to i8*), i8* bitcast (void (%"class.std::_Sp_counted_ptr_inplace"*)* @_ZNSt23_Sp_counted_ptr_inplaceINSt8__detail4_NFAINSt7__cxx1112regex_traitsIcEEEESaIS5_ELN9__gnu_cxx12_Lock_policyE2EE10_M_disposeEv to i8*), i8* bitcast (void (%"class.std::_Sp_counted_ptr_inplace"*)* @_ZNSt23_Sp_counted_ptr_inplaceINSt8__detail4_NFAINSt7__cxx1112regex_traitsIcEEEESaIS5_ELN9__gnu_cxx12_Lock_policyE2EE10_M_destroyEv to i8*), i8* bitcast (i8* (%"class.std::_Sp_counted_ptr_inplace"*, %"class.std::type_info"*)* @_ZNSt23_Sp_counted_ptr_inplaceINSt8__detail4_NFAINSt7__cxx1112regex_traitsIcEEEESaIS5_ELN9__gnu_cxx12_Lock_policyE2EE14_M_get_deleterERKSt9type_info to i8*)] }, comdat, align 8
@_ZTVN10__cxxabiv120__si_class_type_infoE = external global i8*
@_ZTSSt23_Sp_counted_ptr_inplaceINSt8__detail4_NFAINSt7__cxx1112regex_traitsIcEEEESaIS5_ELN9__gnu_cxx12_Lock_policyE2EE = linkonce_odr dso_local constant [115 x i8] c"St23_Sp_counted_ptr_inplaceINSt8__detail4_NFAINSt7__cxx1112regex_traitsIcEEEESaIS5_ELN9__gnu_cxx12_Lock_policyE2EE\00", comdat, align 1
@_ZTSSt16_Sp_counted_baseILN9__gnu_cxx12_Lock_policyE2EE = linkonce_odr dso_local constant [52 x i8] c"St16_Sp_counted_baseILN9__gnu_cxx12_Lock_policyE2EE\00", comdat, align 1
@_ZTVN10__cxxabiv117__class_type_infoE = external global i8*
@_ZTSSt11_Mutex_baseILN9__gnu_cxx12_Lock_policyE2EE = linkonce_odr dso_local constant [47 x i8] c"St11_Mutex_baseILN9__gnu_cxx12_Lock_policyE2EE\00", comdat, align 1
@_ZTISt11_Mutex_baseILN9__gnu_cxx12_Lock_policyE2EE = linkonce_odr dso_local constant { i8*, i8* } { i8* bitcast (i8** getelementptr inbounds (i8*, i8** @_ZTVN10__cxxabiv117__class_type_infoE, i64 2) to i8*), i8* getelementptr inbounds ([47 x i8], [47 x i8]* @_ZTSSt11_Mutex_baseILN9__gnu_cxx12_Lock_policyE2EE, i32 0, i32 0) }, comdat, align 8
@_ZTISt16_Sp_counted_baseILN9__gnu_cxx12_Lock_policyE2EE = linkonce_odr dso_local constant { i8*, i8*, i8* } { i8* bitcast (i8** getelementptr inbounds (i8*, i8** @_ZTVN10__cxxabiv120__si_class_type_infoE, i64 2) to i8*), i8* getelementptr inbounds ([52 x i8], [52 x i8]* @_ZTSSt16_Sp_counted_baseILN9__gnu_cxx12_Lock_policyE2EE, i32 0, i32 0), i8* bitcast ({ i8*, i8* }* @_ZTISt11_Mutex_baseILN9__gnu_cxx12_Lock_policyE2EE to i8*) }, comdat, align 8
@_ZTISt23_Sp_counted_ptr_inplaceINSt8__detail4_NFAINSt7__cxx1112regex_traitsIcEEEESaIS5_ELN9__gnu_cxx12_Lock_policyE2EE = linkonce_odr dso_local constant { i8*, i8*, i8* } { i8* bitcast (i8** getelementptr inbounds (i8*, i8** @_ZTVN10__cxxabiv120__si_class_type_infoE, i64 2) to i8*), i8* getelementptr inbounds ([115 x i8], [115 x i8]* @_ZTSSt23_Sp_counted_ptr_inplaceINSt8__detail4_NFAINSt7__cxx1112regex_traitsIcEEEESaIS5_ELN9__gnu_cxx12_Lock_policyE2EE, i32 0, i32 0), i8* bitcast ({ i8*, i8*, i8* }* @_ZTISt16_Sp_counted_baseILN9__gnu_cxx12_Lock_policyE2EE to i8*) }, comdat, align 8
@_ZTSSt19_Sp_make_shared_tag = linkonce_odr dso_local constant [24 x i8] c"St19_Sp_make_shared_tag\00", comdat, align 1
@_ZZNSt19_Sp_make_shared_tag5_S_tiEvE5__tag = linkonce_odr dso_local constant [16 x i8] zeroinitializer, comdat, align 8
@.str.21 = private unnamed_addr constant [26 x i8] c"vector::_M_realloc_insert\00", align 1
@.str.22 = private unnamed_addr constant [145 x i8] c"Number of NFA states exceeds limit. Please use shorter regex string, or use smaller brace expression, or make _GLIBCXX_REGEX_STATE_LIMIT larger.\00", align 1
@.str.23 = private unnamed_addr constant [27 x i8] c"Parenthesis is not closed.\00", align 1
@_ZZNKSt8__detail11_AnyMatcherINSt7__cxx1112regex_traitsIcEELb0ELb0ELb0EEclEcE5__nul = linkonce_odr dso_local local_unnamed_addr global i8 0, comdat, align 1
@_ZGVZNKSt8__detail11_AnyMatcherINSt7__cxx1112regex_traitsIcEELb0ELb0ELb0EEclEcE5__nul = linkonce_odr dso_local global i64 0, comdat, align 8
@_ZTSNSt8__detail11_AnyMatcherINSt7__cxx1112regex_traitsIcEELb0ELb0ELb0EEE = linkonce_odr dso_local constant [70 x i8] c"NSt8__detail11_AnyMatcherINSt7__cxx1112regex_traitsIcEELb0ELb0ELb0EEE\00", comdat, align 1
@_ZTINSt8__detail11_AnyMatcherINSt7__cxx1112regex_traitsIcEELb0ELb0ELb0EEE = linkonce_odr dso_local constant { i8*, i8* } { i8* bitcast (i8** getelementptr inbounds (i8*, i8** @_ZTVN10__cxxabiv117__class_type_infoE, i64 2) to i8*), i8* getelementptr inbounds ([70 x i8], [70 x i8]* @_ZTSNSt8__detail11_AnyMatcherINSt7__cxx1112regex_traitsIcEELb0ELb0ELb0EEE, i32 0, i32 0) }, comdat, align 8
@_ZZNKSt8__detail11_AnyMatcherINSt7__cxx1112regex_traitsIcEELb0ELb0ELb1EEclEcE5__nul = linkonce_odr dso_local local_unnamed_addr global i8 0, comdat, align 1
@_ZGVZNKSt8__detail11_AnyMatcherINSt7__cxx1112regex_traitsIcEELb0ELb0ELb1EEclEcE5__nul = linkonce_odr dso_local global i64 0, comdat, align 8
@_ZTSNSt8__detail11_AnyMatcherINSt7__cxx1112regex_traitsIcEELb0ELb0ELb1EEE = linkonce_odr dso_local constant [70 x i8] c"NSt8__detail11_AnyMatcherINSt7__cxx1112regex_traitsIcEELb0ELb0ELb1EEE\00", comdat, align 1
@_ZTINSt8__detail11_AnyMatcherINSt7__cxx1112regex_traitsIcEELb0ELb0ELb1EEE = linkonce_odr dso_local constant { i8*, i8* } { i8* bitcast (i8** getelementptr inbounds (i8*, i8** @_ZTVN10__cxxabiv117__class_type_infoE, i64 2) to i8*), i8* getelementptr inbounds ([70 x i8], [70 x i8]* @_ZTSNSt8__detail11_AnyMatcherINSt7__cxx1112regex_traitsIcEELb0ELb0ELb1EEE, i32 0, i32 0) }, comdat, align 8
@_ZZNKSt8__detail11_AnyMatcherINSt7__cxx1112regex_traitsIcEELb0ELb1ELb0EEclEcE5__nul = linkonce_odr dso_local local_unnamed_addr global i8 0, comdat, align 1
@_ZGVZNKSt8__detail11_AnyMatcherINSt7__cxx1112regex_traitsIcEELb0ELb1ELb0EEclEcE5__nul = linkonce_odr dso_local global i64 0, comdat, align 8
@_ZTSNSt8__detail11_AnyMatcherINSt7__cxx1112regex_traitsIcEELb0ELb1ELb0EEE = linkonce_odr dso_local constant [70 x i8] c"NSt8__detail11_AnyMatcherINSt7__cxx1112regex_traitsIcEELb0ELb1ELb0EEE\00", comdat, align 1
@_ZTINSt8__detail11_AnyMatcherINSt7__cxx1112regex_traitsIcEELb0ELb1ELb0EEE = linkonce_odr dso_local constant { i8*, i8* } { i8* bitcast (i8** getelementptr inbounds (i8*, i8** @_ZTVN10__cxxabiv117__class_type_infoE, i64 2) to i8*), i8* getelementptr inbounds ([70 x i8], [70 x i8]* @_ZTSNSt8__detail11_AnyMatcherINSt7__cxx1112regex_traitsIcEELb0ELb1ELb0EEE, i32 0, i32 0) }, comdat, align 8
@_ZZNKSt8__detail11_AnyMatcherINSt7__cxx1112regex_traitsIcEELb0ELb1ELb1EEclEcE5__nul = linkonce_odr dso_local local_unnamed_addr global i8 0, comdat, align 1
@_ZGVZNKSt8__detail11_AnyMatcherINSt7__cxx1112regex_traitsIcEELb0ELb1ELb1EEclEcE5__nul = linkonce_odr dso_local global i64 0, comdat, align 8
@_ZTSNSt8__detail11_AnyMatcherINSt7__cxx1112regex_traitsIcEELb0ELb1ELb1EEE = linkonce_odr dso_local constant [70 x i8] c"NSt8__detail11_AnyMatcherINSt7__cxx1112regex_traitsIcEELb0ELb1ELb1EEE\00", comdat, align 1
@_ZTINSt8__detail11_AnyMatcherINSt7__cxx1112regex_traitsIcEELb0ELb1ELb1EEE = linkonce_odr dso_local constant { i8*, i8* } { i8* bitcast (i8** getelementptr inbounds (i8*, i8** @_ZTVN10__cxxabiv117__class_type_infoE, i64 2) to i8*), i8* getelementptr inbounds ([70 x i8], [70 x i8]* @_ZTSNSt8__detail11_AnyMatcherINSt7__cxx1112regex_traitsIcEELb0ELb1ELb1EEE, i32 0, i32 0) }, comdat, align 8
@_ZTSNSt8__detail11_AnyMatcherINSt7__cxx1112regex_traitsIcEELb1ELb0ELb0EEE = linkonce_odr dso_local constant [70 x i8] c"NSt8__detail11_AnyMatcherINSt7__cxx1112regex_traitsIcEELb1ELb0ELb0EEE\00", comdat, align 1
@_ZTINSt8__detail11_AnyMatcherINSt7__cxx1112regex_traitsIcEELb1ELb0ELb0EEE = linkonce_odr dso_local constant { i8*, i8* } { i8* bitcast (i8** getelementptr inbounds (i8*, i8** @_ZTVN10__cxxabiv117__class_type_infoE, i64 2) to i8*), i8* getelementptr inbounds ([70 x i8], [70 x i8]* @_ZTSNSt8__detail11_AnyMatcherINSt7__cxx1112regex_traitsIcEELb1ELb0ELb0EEE, i32 0, i32 0) }, comdat, align 8
@_ZTSNSt8__detail11_AnyMatcherINSt7__cxx1112regex_traitsIcEELb1ELb0ELb1EEE = linkonce_odr dso_local constant [70 x i8] c"NSt8__detail11_AnyMatcherINSt7__cxx1112regex_traitsIcEELb1ELb0ELb1EEE\00", comdat, align 1
@_ZTINSt8__detail11_AnyMatcherINSt7__cxx1112regex_traitsIcEELb1ELb0ELb1EEE = linkonce_odr dso_local constant { i8*, i8* } { i8* bitcast (i8** getelementptr inbounds (i8*, i8** @_ZTVN10__cxxabiv117__class_type_infoE, i64 2) to i8*), i8* getelementptr inbounds ([70 x i8], [70 x i8]* @_ZTSNSt8__detail11_AnyMatcherINSt7__cxx1112regex_traitsIcEELb1ELb0ELb1EEE, i32 0, i32 0) }, comdat, align 8
@_ZTSNSt8__detail11_AnyMatcherINSt7__cxx1112regex_traitsIcEELb1ELb1ELb0EEE = linkonce_odr dso_local constant [70 x i8] c"NSt8__detail11_AnyMatcherINSt7__cxx1112regex_traitsIcEELb1ELb1ELb0EEE\00", comdat, align 1
@_ZTINSt8__detail11_AnyMatcherINSt7__cxx1112regex_traitsIcEELb1ELb1ELb0EEE = linkonce_odr dso_local constant { i8*, i8* } { i8* bitcast (i8** getelementptr inbounds (i8*, i8** @_ZTVN10__cxxabiv117__class_type_infoE, i64 2) to i8*), i8* getelementptr inbounds ([70 x i8], [70 x i8]* @_ZTSNSt8__detail11_AnyMatcherINSt7__cxx1112regex_traitsIcEELb1ELb1ELb0EEE, i32 0, i32 0) }, comdat, align 8
@_ZTSNSt8__detail11_AnyMatcherINSt7__cxx1112regex_traitsIcEELb1ELb1ELb1EEE = linkonce_odr dso_local constant [70 x i8] c"NSt8__detail11_AnyMatcherINSt7__cxx1112regex_traitsIcEELb1ELb1ELb1EEE\00", comdat, align 1
@_ZTINSt8__detail11_AnyMatcherINSt7__cxx1112regex_traitsIcEELb1ELb1ELb1EEE = linkonce_odr dso_local constant { i8*, i8* } { i8* bitcast (i8** getelementptr inbounds (i8*, i8** @_ZTVN10__cxxabiv117__class_type_infoE, i64 2) to i8*), i8* getelementptr inbounds ([70 x i8], [70 x i8]* @_ZTSNSt8__detail11_AnyMatcherINSt7__cxx1112regex_traitsIcEELb1ELb1ELb1EEE, i32 0, i32 0) }, comdat, align 8
@_ZTSNSt8__detail12_CharMatcherINSt7__cxx1112regex_traitsIcEELb0ELb0EEE = linkonce_odr dso_local constant [67 x i8] c"NSt8__detail12_CharMatcherINSt7__cxx1112regex_traitsIcEELb0ELb0EEE\00", comdat, align 1
@_ZTINSt8__detail12_CharMatcherINSt7__cxx1112regex_traitsIcEELb0ELb0EEE = linkonce_odr dso_local constant { i8*, i8* } { i8* bitcast (i8** getelementptr inbounds (i8*, i8** @_ZTVN10__cxxabiv117__class_type_infoE, i64 2) to i8*), i8* getelementptr inbounds ([67 x i8], [67 x i8]* @_ZTSNSt8__detail12_CharMatcherINSt7__cxx1112regex_traitsIcEELb0ELb0EEE, i32 0, i32 0) }, comdat, align 8
@_ZTSNSt8__detail12_CharMatcherINSt7__cxx1112regex_traitsIcEELb0ELb1EEE = linkonce_odr dso_local constant [67 x i8] c"NSt8__detail12_CharMatcherINSt7__cxx1112regex_traitsIcEELb0ELb1EEE\00", comdat, align 1
@_ZTINSt8__detail12_CharMatcherINSt7__cxx1112regex_traitsIcEELb0ELb1EEE = linkonce_odr dso_local constant { i8*, i8* } { i8* bitcast (i8** getelementptr inbounds (i8*, i8** @_ZTVN10__cxxabiv117__class_type_infoE, i64 2) to i8*), i8* getelementptr inbounds ([67 x i8], [67 x i8]* @_ZTSNSt8__detail12_CharMatcherINSt7__cxx1112regex_traitsIcEELb0ELb1EEE, i32 0, i32 0) }, comdat, align 8
@_ZTSNSt8__detail12_CharMatcherINSt7__cxx1112regex_traitsIcEELb1ELb0EEE = linkonce_odr dso_local constant [67 x i8] c"NSt8__detail12_CharMatcherINSt7__cxx1112regex_traitsIcEELb1ELb0EEE\00", comdat, align 1
@_ZTINSt8__detail12_CharMatcherINSt7__cxx1112regex_traitsIcEELb1ELb0EEE = linkonce_odr dso_local constant { i8*, i8* } { i8* bitcast (i8** getelementptr inbounds (i8*, i8** @_ZTVN10__cxxabiv117__class_type_infoE, i64 2) to i8*), i8* getelementptr inbounds ([67 x i8], [67 x i8]* @_ZTSNSt8__detail12_CharMatcherINSt7__cxx1112regex_traitsIcEELb1ELb0EEE, i32 0, i32 0) }, comdat, align 8
@_ZTSNSt8__detail12_CharMatcherINSt7__cxx1112regex_traitsIcEELb1ELb1EEE = linkonce_odr dso_local constant [67 x i8] c"NSt8__detail12_CharMatcherINSt7__cxx1112regex_traitsIcEELb1ELb1EEE\00", comdat, align 1
@_ZTINSt8__detail12_CharMatcherINSt7__cxx1112regex_traitsIcEELb1ELb1EEE = linkonce_odr dso_local constant { i8*, i8* } { i8* bitcast (i8** getelementptr inbounds (i8*, i8** @_ZTVN10__cxxabiv117__class_type_infoE, i64 2) to i8*), i8* getelementptr inbounds ([67 x i8], [67 x i8]* @_ZTSNSt8__detail12_CharMatcherINSt7__cxx1112regex_traitsIcEELb1ELb1EEE, i32 0, i32 0) }, comdat, align 8
@.str.24 = private unnamed_addr constant [46 x i8] c"Unexpected back-reference in polynomial mode.\00", align 1
@.str.25 = private unnamed_addr constant [59 x i8] c"Back-reference index exceeds current sub-expression count.\00", align 1
@.str.26 = private unnamed_addr constant [53 x i8] c"Back-reference referred to an opened sub-expression.\00", align 1
@_ZTTNSt7__cxx1119basic_istringstreamIcSt11char_traitsIcESaIcEEE = external unnamed_addr constant [4 x i8*], align 8
@_ZTVNSt7__cxx1115basic_stringbufIcSt11char_traitsIcESaIcEEE = external unnamed_addr constant { [16 x i8*] }, align 8
@_ZTVSt15basic_streambufIcSt11char_traitsIcEE = external unnamed_addr constant { [16 x i8*] }, align 8
@.str.27 = private unnamed_addr constant [42 x i8] c"basic_string::_M_construct null not valid\00", align 1
@.str.28 = private unnamed_addr constant [25 x i8] c"Invalid character class.\00", align 1
@_ZZNKSt7__cxx1112regex_traitsIcE16lookup_classnameIPKcEENS1_10_RegexMaskET_S6_bE12__classnamesB5cxx11 = linkonce_odr dso_local local_unnamed_addr constant [15 x { i8*, { i16, i8 } }] [{ i8*, { i16, i8 } } { i8* getelementptr inbounds ([2 x i8], [2 x i8]* @.str.29, i32 0, i32 0), { i16, i8 } { i16 2048, i8 0 } }, { i8*, { i16, i8 } } { i8* getelementptr inbounds ([2 x i8], [2 x i8]* @.str.30, i32 0, i32 0), { i16, i8 } { i16 3072, i8 1 } }, { i8*, { i16, i8 } } { i8* getelementptr inbounds ([2 x i8], [2 x i8]* @.str.31, i32 0, i32 0), { i16, i8 } { i16 8192, i8 0 } }, { i8*, { i16, i8 } } { i8* getelementptr inbounds ([6 x i8], [6 x i8]* @.str.32, i32 0, i32 0), { i16, i8 } { i16 3072, i8 0 } }, { i8*, { i16, i8 } } { i8* getelementptr inbounds ([6 x i8], [6 x i8]* @.str.33, i32 0, i32 0), { i16, i8 } { i16 1024, i8 0 } }, { i8*, { i16, i8 } } { i8* getelementptr inbounds ([6 x i8], [6 x i8]* @.str.34, i32 0, i32 0), { i16, i8 } { i16 1, i8 0 } }, { i8*, { i16, i8 } } { i8* getelementptr inbounds ([6 x i8], [6 x i8]* @.str.35, i32 0, i32 0), { i16, i8 } { i16 2, i8 0 } }, { i8*, { i16, i8 } } { i8* getelementptr inbounds ([6 x i8], [6 x i8]* @.str.36, i32 0, i32 0), { i16, i8 } { i16 2048, i8 0 } }, { i8*, { i16, i8 } } { i8* getelementptr inbounds ([6 x i8], [6 x i8]* @.str.37, i32 0, i32 0), { i16, i8 } { i16 3076, i8 0 } }, { i8*, { i16, i8 } } { i8* getelementptr inbounds ([6 x i8], [6 x i8]* @.str.38, i32 0, i32 0), { i16, i8 } { i16 512, i8 0 } }, { i8*, { i16, i8 } } { i8* getelementptr inbounds ([6 x i8], [6 x i8]* @.str.39, i32 0, i32 0), { i16, i8 } { i16 16384, i8 0 } }, { i8*, { i16, i8 } } { i8* getelementptr inbounds ([6 x i8], [6 x i8]* @.str.40, i32 0, i32 0), { i16, i8 } { i16 4, i8 0 } }, { i8*, { i16, i8 } } { i8* getelementptr inbounds ([6 x i8], [6 x i8]* @.str.41, i32 0, i32 0), { i16, i8 } { i16 8192, i8 0 } }, { i8*, { i16, i8 } } { i8* getelementptr inbounds ([6 x i8], [6 x i8]* @.str.42, i32 0, i32 0), { i16, i8 } { i16 256, i8 0 } }, { i8*, { i16, i8 } } { i8* getelementptr inbounds ([7 x i8], [7 x i8]* @.str.43, i32 0, i32 0), { i16, i8 } { i16 4096, i8 0 } }], comdat, align 16
@.str.29 = private unnamed_addr constant [2 x i8] c"d\00", align 1
@.str.30 = private unnamed_addr constant [2 x i8] c"w\00", align 1
@.str.31 = private unnamed_addr constant [2 x i8] c"s\00", align 1
@.str.32 = private unnamed_addr constant [6 x i8] c"alnum\00", align 1
@.str.33 = private unnamed_addr constant [6 x i8] c"alpha\00", align 1
@.str.34 = private unnamed_addr constant [6 x i8] c"blank\00", align 1
@.str.35 = private unnamed_addr constant [6 x i8] c"cntrl\00", align 1
@.str.36 = private unnamed_addr constant [6 x i8] c"digit\00", align 1
@.str.37 = private unnamed_addr constant [6 x i8] c"graph\00", align 1
@.str.38 = private unnamed_addr constant [6 x i8] c"lower\00", align 1
@.str.39 = private unnamed_addr constant [6 x i8] c"print\00", align 1
@.str.40 = private unnamed_addr constant [6 x i8] c"punct\00", align 1
@.str.41 = private unnamed_addr constant [6 x i8] c"space\00", align 1
@.str.42 = private unnamed_addr constant [6 x i8] c"upper\00", align 1
@.str.43 = private unnamed_addr constant [7 x i8] c"xdigit\00", align 1
@.str.44 = private unnamed_addr constant [49 x i8] c"cannot create std::vector larger than max_size()\00", align 1
@_ZTSNSt8__detail15_BracketMatcherINSt7__cxx1112regex_traitsIcEELb0ELb0EEE = linkonce_odr dso_local constant [70 x i8] c"NSt8__detail15_BracketMatcherINSt7__cxx1112regex_traitsIcEELb0ELb0EEE\00", comdat, align 1
@_ZTINSt8__detail15_BracketMatcherINSt7__cxx1112regex_traitsIcEELb0ELb0EEE = linkonce_odr dso_local constant { i8*, i8* } { i8* bitcast (i8** getelementptr inbounds (i8*, i8** @_ZTVN10__cxxabiv117__class_type_infoE, i64 2) to i8*), i8* getelementptr inbounds ([70 x i8], [70 x i8]* @_ZTSNSt8__detail15_BracketMatcherINSt7__cxx1112regex_traitsIcEELb0ELb0EEE, i32 0, i32 0) }, comdat, align 8
@_ZTSNSt8__detail15_BracketMatcherINSt7__cxx1112regex_traitsIcEELb0ELb1EEE = linkonce_odr dso_local constant [70 x i8] c"NSt8__detail15_BracketMatcherINSt7__cxx1112regex_traitsIcEELb0ELb1EEE\00", comdat, align 1
@_ZTINSt8__detail15_BracketMatcherINSt7__cxx1112regex_traitsIcEELb0ELb1EEE = linkonce_odr dso_local constant { i8*, i8* } { i8* bitcast (i8** getelementptr inbounds (i8*, i8** @_ZTVN10__cxxabiv117__class_type_infoE, i64 2) to i8*), i8* getelementptr inbounds ([70 x i8], [70 x i8]* @_ZTSNSt8__detail15_BracketMatcherINSt7__cxx1112regex_traitsIcEELb0ELb1EEE, i32 0, i32 0) }, comdat, align 8
@_ZTSNSt8__detail15_BracketMatcherINSt7__cxx1112regex_traitsIcEELb1ELb0EEE = linkonce_odr dso_local constant [70 x i8] c"NSt8__detail15_BracketMatcherINSt7__cxx1112regex_traitsIcEELb1ELb0EEE\00", comdat, align 1
@_ZTINSt8__detail15_BracketMatcherINSt7__cxx1112regex_traitsIcEELb1ELb0EEE = linkonce_odr dso_local constant { i8*, i8* } { i8* bitcast (i8** getelementptr inbounds (i8*, i8** @_ZTVN10__cxxabiv117__class_type_infoE, i64 2) to i8*), i8* getelementptr inbounds ([70 x i8], [70 x i8]* @_ZTSNSt8__detail15_BracketMatcherINSt7__cxx1112regex_traitsIcEELb1ELb0EEE, i32 0, i32 0) }, comdat, align 8
@_ZTSNSt8__detail15_BracketMatcherINSt7__cxx1112regex_traitsIcEELb1ELb1EEE = linkonce_odr dso_local constant [70 x i8] c"NSt8__detail15_BracketMatcherINSt7__cxx1112regex_traitsIcEELb1ELb1EEE\00", comdat, align 1
@_ZTINSt8__detail15_BracketMatcherINSt7__cxx1112regex_traitsIcEELb1ELb1EEE = linkonce_odr dso_local constant { i8*, i8* } { i8* bitcast (i8** getelementptr inbounds (i8*, i8** @_ZTVN10__cxxabiv117__class_type_infoE, i64 2) to i8*), i8* getelementptr inbounds ([70 x i8], [70 x i8]* @_ZTSNSt8__detail15_BracketMatcherINSt7__cxx1112regex_traitsIcEELb1ELb1EEE, i32 0, i32 0) }, comdat, align 8
@.str.45 = private unnamed_addr constant [126 x i8] c"Unexpected dash in bracket expression. For POSIX syntax, a dash is not treated literally only when it is at beginning or end.\00", align 1
@.str.46 = private unnamed_addr constant [36 x i8] c"Character is expected after a dash.\00", align 1
@.str.47 = private unnamed_addr constant [44 x i8] c"Unexpected character in bracket expression.\00", align 1
@.str.48 = private unnamed_addr constant [25 x i8] c"Invalid collate element.\00", align 1
@_ZZNKSt7__cxx1112regex_traitsIcE18lookup_collatenameIPKcEENS_12basic_stringIcSt11char_traitsIcESaIcEEET_SA_E14__collatenames = linkonce_odr dso_local global [128 x i8*] [i8* getelementptr inbounds ([4 x i8], [4 x i8]* @.str.49, i32 0, i32 0), i8* getelementptr inbounds ([4 x i8], [4 x i8]* @.str.50, i32 0, i32 0), i8* getelementptr inbounds ([4 x i8], [4 x i8]* @.str.51, i32 0, i32 0), i8* getelementptr inbounds ([4 x i8], [4 x i8]* @.str.52, i32 0, i32 0), i8* getelementptr inbounds ([4 x i8], [4 x i8]* @.str.53, i32 0, i32 0), i8* getelementptr inbounds ([4 x i8], [4 x i8]* @.str.54, i32 0, i32 0), i8* getelementptr inbounds ([4 x i8], [4 x i8]* @.str.55, i32 0, i32 0), i8* getelementptr inbounds ([6 x i8], [6 x i8]* @.str.56, i32 0, i32 0), i8* getelementptr inbounds ([10 x i8], [10 x i8]* @.str.57, i32 0, i32 0), i8* getelementptr inbounds ([4 x i8], [4 x i8]* @.str.58, i32 0, i32 0), i8* getelementptr inbounds ([8 x i8], [8 x i8]* @.str.59, i32 0, i32 0), i8* getelementptr inbounds ([13 x i8], [13 x i8]* @.str.60, i32 0, i32 0), i8* getelementptr inbounds ([10 x i8], [10 x i8]* @.str.61, i32 0, i32 0), i8* getelementptr inbounds ([16 x i8], [16 x i8]* @.str.62, i32 0, i32 0), i8* getelementptr inbounds ([3 x i8], [3 x i8]* @.str.63, i32 0, i32 0), i8* getelementptr inbounds ([3 x i8], [3 x i8]* @.str.64, i32 0, i32 0), i8* getelementptr inbounds ([4 x i8], [4 x i8]* @.str.65, i32 0, i32 0), i8* getelementptr inbounds ([4 x i8], [4 x i8]* @.str.66, i32 0, i32 0), i8* getelementptr inbounds ([4 x i8], [4 x i8]* @.str.67, i32 0, i32 0), i8* getelementptr inbounds ([4 x i8], [4 x i8]* @.str.68, i32 0, i32 0), i8* getelementptr inbounds ([4 x i8], [4 x i8]* @.str.69, i32 0, i32 0), i8* getelementptr inbounds ([4 x i8], [4 x i8]* @.str.70, i32 0, i32 0), i8* getelementptr inbounds ([4 x i8], [4 x i8]* @.str.71, i32 0, i32 0), i8* getelementptr inbounds ([4 x i8], [4 x i8]* @.str.72, i32 0, i32 0), i8* getelementptr inbounds ([4 x i8], [4 x i8]* @.str.73, i32 0, i32 0), i8* getelementptr inbounds ([3 x i8], [3 x i8]* @.str.74, i32 0, i32 0), i8* getelementptr inbounds ([4 x i8], [4 x i8]* @.str.75, i32 0, i32 0), i8* getelementptr inbounds ([4 x i8], [4 x i8]* @.str.76, i32 0, i32 0), i8* getelementptr inbounds ([4 x i8], [4 x i8]* @.str.77, i32 0, i32 0), i8* getelementptr inbounds ([4 x i8], [4 x i8]* @.str.78, i32 0, i32 0), i8* getelementptr inbounds ([4 x i8], [4 x i8]* @.str.79, i32 0, i32 0), i8* getelementptr inbounds ([4 x i8], [4 x i8]* @.str.80, i32 0, i32 0), i8* getelementptr inbounds ([6 x i8], [6 x i8]* @.str.41, i32 0, i32 0), i8* getelementptr inbounds ([17 x i8], [17 x i8]* @.str.81, i32 0, i32 0), i8* getelementptr inbounds ([15 x i8], [15 x i8]* @.str.82, i32 0, i32 0), i8* getelementptr inbounds ([12 x i8], [12 x i8]* @.str.83, i32 0, i32 0), i8* getelementptr inbounds ([12 x i8], [12 x i8]* @.str.84, i32 0, i32 0), i8* getelementptr inbounds ([13 x i8], [13 x i8]* @.str.85, i32 0, i32 0), i8* getelementptr inbounds ([10 x i8], [10 x i8]* @.str.86, i32 0, i32 0), i8* getelementptr inbounds ([11 x i8], [11 x i8]* @.str.87, i32 0, i32 0), i8* getelementptr inbounds ([17 x i8], [17 x i8]* @.str.88, i32 0, i32 0), i8* getelementptr inbounds ([18 x i8], [18 x i8]* @.str.89, i32 0, i32 0), i8* getelementptr inbounds ([9 x i8], [9 x i8]* @.str.90, i32 0, i32 0), i8* getelementptr inbounds ([10 x i8], [10 x i8]* @.str.91, i32 0, i32 0), i8* getelementptr inbounds ([6 x i8], [6 x i8]* @.str.92, i32 0, i32 0), i8* getelementptr inbounds ([7 x i8], [7 x i8]* @.str.93, i32 0, i32 0), i8* getelementptr inbounds ([7 x i8], [7 x i8]* @.str.94, i32 0, i32 0), i8* getelementptr inbounds ([6 x i8], [6 x i8]* @.str.95, i32 0, i32 0), i8* getelementptr inbounds ([5 x i8], [5 x i8]* @.str.96, i32 0, i32 0), i8* getelementptr inbounds ([4 x i8], [4 x i8]* @.str.97, i32 0, i32 0), i8* getelementptr inbounds ([4 x i8], [4 x i8]* @.str.98, i32 0, i32 0), i8* getelementptr inbounds ([6 x i8], [6 x i8]* @.str.99, i32 0, i32 0), i8* getelementptr inbounds ([5 x i8], [5 x i8]* @.str.100, i32 0, i32 0), i8* getelementptr inbounds ([5 x i8], [5 x i8]* @.str.101, i32 0, i32 0), i8* getelementptr inbounds ([4 x i8], [4 x i8]* @.str.102, i32 0, i32 0), i8* getelementptr inbounds ([6 x i8], [6 x i8]* @.str.103, i32 0, i32 0), i8* getelementptr inbounds ([6 x i8], [6 x i8]* @.str.104, i32 0, i32 0), i8* getelementptr inbounds ([5 x i8], [5 x i8]* @.str.105, i32 0, i32 0), i8* getelementptr inbounds ([6 x i8], [6 x i8]* @.str.106, i32 0, i32 0), i8* getelementptr inbounds ([10 x i8], [10 x i8]* @.str.107, i32 0, i32 0), i8* getelementptr inbounds ([15 x i8], [15 x i8]* @.str.108, i32 0, i32 0), i8* getelementptr inbounds ([12 x i8], [12 x i8]* @.str.109, i32 0, i32 0), i8* getelementptr inbounds ([18 x i8], [18 x i8]* @.str.110, i32 0, i32 0), i8* getelementptr inbounds ([14 x i8], [14 x i8]* @.str.111, i32 0, i32 0), i8* getelementptr inbounds ([14 x i8], [14 x i8]* @.str.112, i32 0, i32 0), i8* getelementptr inbounds ([2 x i8], [2 x i8]* @.str.113, i32 0, i32 0), i8* getelementptr inbounds ([2 x i8], [2 x i8]* @.str.114, i32 0, i32 0), i8* getelementptr inbounds ([2 x i8], [2 x i8]* @.str.115, i32 0, i32 0), i8* getelementptr inbounds ([2 x i8], [2 x i8]* @.str.116, i32 0, i32 0), i8* getelementptr inbounds ([2 x i8], [2 x i8]* @.str.117, i32 0, i32 0), i8* getelementptr inbounds ([2 x i8], [2 x i8]* @.str.118, i32 0, i32 0), i8* getelementptr inbounds ([2 x i8], [2 x i8]* @.str.119, i32 0, i32 0), i8* getelementptr inbounds ([2 x i8], [2 x i8]* @.str.120, i32 0, i32 0), i8* getelementptr inbounds ([2 x i8], [2 x i8]* @.str.121, i32 0, i32 0), i8* getelementptr inbounds ([2 x i8], [2 x i8]* @.str.122, i32 0, i32 0), i8* getelementptr inbounds ([2 x i8], [2 x i8]* @.str.123, i32 0, i32 0), i8* getelementptr inbounds ([2 x i8], [2 x i8]* @.str.124, i32 0, i32 0), i8* getelementptr inbounds ([2 x i8], [2 x i8]* @.str.125, i32 0, i32 0), i8* getelementptr inbounds ([2 x i8], [2 x i8]* @.str.126, i32 0, i32 0), i8* getelementptr inbounds ([2 x i8], [2 x i8]* @.str.127, i32 0, i32 0), i8* getelementptr inbounds ([2 x i8], [2 x i8]* @.str.128, i32 0, i32 0), i8* getelementptr inbounds ([2 x i8], [2 x i8]* @.str.129, i32 0, i32 0), i8* getelementptr inbounds ([2 x i8], [2 x i8]* @.str.130, i32 0, i32 0), i8* getelementptr inbounds ([2 x i8], [2 x i8]* @.str.131, i32 0, i32 0), i8* getelementptr inbounds ([2 x i8], [2 x i8]* @.str.132, i32 0, i32 0), i8* getelementptr inbounds ([2 x i8], [2 x i8]* @.str.133, i32 0, i32 0), i8* getelementptr inbounds ([2 x i8], [2 x i8]* @.str.134, i32 0, i32 0), i8* getelementptr inbounds ([2 x i8], [2 x i8]* @.str.135, i32 0, i32 0), i8* getelementptr inbounds ([2 x i8], [2 x i8]* @.str.136, i32 0, i32 0), i8* getelementptr inbounds ([2 x i8], [2 x i8]* @.str.137, i32 0, i32 0), i8* getelementptr inbounds ([2 x i8], [2 x i8]* @.str.138, i32 0, i32 0), i8* getelementptr inbounds ([20 x i8], [20 x i8]* @.str.139, i32 0, i32 0), i8* getelementptr inbounds ([10 x i8], [10 x i8]* @.str.140, i32 0, i32 0), i8* getelementptr inbounds ([21 x i8], [21 x i8]* @.str.141, i32 0, i32 0), i8* getelementptr inbounds ([11 x i8], [11 x i8]* @.str.142, i32 0, i32 0), i8* getelementptr inbounds ([11 x i8], [11 x i8]* @.str.143, i32 0, i32 0), i8* getelementptr inbounds ([13 x i8], [13 x i8]* @.str.144, i32 0, i32 0), i8* getelementptr inbounds ([2 x i8], [2 x i8]* @.str.145, i32 0, i32 0), i8* getelementptr inbounds ([2 x i8], [2 x i8]* @.str.146, i32 0, i32 0), i8* getelementptr inbounds ([2 x i8], [2 x i8]* @.str.147, i32 0, i32 0), i8* getelementptr inbounds ([2 x i8], [2 x i8]* @.str.29, i32 0, i32 0), i8* getelementptr inbounds ([2 x i8], [2 x i8]* @.str.148, i32 0, i32 0), i8* getelementptr inbounds ([2 x i8], [2 x i8]* @.str.149, i32 0, i32 0), i8* getelementptr inbounds ([2 x i8], [2 x i8]* @.str.150, i32 0, i32 0), i8* getelementptr inbounds ([2 x i8], [2 x i8]* @.str.151, i32 0, i32 0), i8* getelementptr inbounds ([2 x i8], [2 x i8]* @.str.152, i32 0, i32 0), i8* getelementptr inbounds ([2 x i8], [2 x i8]* @.str.153, i32 0, i32 0), i8* getelementptr inbounds ([2 x i8], [2 x i8]* @.str.154, i32 0, i32 0), i8* getelementptr inbounds ([2 x i8], [2 x i8]* @.str.155, i32 0, i32 0), i8* getelementptr inbounds ([2 x i8], [2 x i8]* @.str.156, i32 0, i32 0), i8* getelementptr inbounds ([2 x i8], [2 x i8]* @.str.157, i32 0, i32 0), i8* getelementptr inbounds ([2 x i8], [2 x i8]* @.str.158, i32 0, i32 0), i8* getelementptr inbounds ([2 x i8], [2 x i8]* @.str.159, i32 0, i32 0), i8* getelementptr inbounds ([2 x i8], [2 x i8]* @.str.160, i32 0, i32 0), i8* getelementptr inbounds ([2 x i8], [2 x i8]* @.str.161, i32 0, i32 0), i8* getelementptr inbounds ([2 x i8], [2 x i8]* @.str.31, i32 0, i32 0), i8* getelementptr inbounds ([2 x i8], [2 x i8]* @.str.162, i32 0, i32 0), i8* getelementptr inbounds ([2 x i8], [2 x i8]* @.str.163, i32 0, i32 0), i8* getelementptr inbounds ([2 x i8], [2 x i8]* @.str.164, i32 0, i32 0), i8* getelementptr inbounds ([2 x i8], [2 x i8]* @.str.30, i32 0, i32 0), i8* getelementptr inbounds ([2 x i8], [2 x i8]* @.str.165, i32 0, i32 0), i8* getelementptr inbounds ([2 x i8], [2 x i8]* @.str.166, i32 0, i32 0), i8* getelementptr inbounds ([2 x i8], [2 x i8]* @.str.167, i32 0, i32 0), i8* getelementptr inbounds ([19 x i8], [19 x i8]* @.str.168, i32 0, i32 0), i8* getelementptr inbounds ([14 x i8], [14 x i8]* @.str.169, i32 0, i32 0), i8* getelementptr inbounds ([20 x i8], [20 x i8]* @.str.170, i32 0, i32 0), i8* getelementptr inbounds ([6 x i8], [6 x i8]* @.str.171, i32 0, i32 0), i8* getelementptr inbounds ([4 x i8], [4 x i8]* @.str.172, i32 0, i32 0)], comdat, align 16
@.str.49 = private unnamed_addr constant [4 x i8] c"NUL\00", align 1
@.str.50 = private unnamed_addr constant [4 x i8] c"SOH\00", align 1
@.str.51 = private unnamed_addr constant [4 x i8] c"STX\00", align 1
@.str.52 = private unnamed_addr constant [4 x i8] c"ETX\00", align 1
@.str.53 = private unnamed_addr constant [4 x i8] c"EOT\00", align 1
@.str.54 = private unnamed_addr constant [4 x i8] c"ENQ\00", align 1
@.str.55 = private unnamed_addr constant [4 x i8] c"ACK\00", align 1
@.str.56 = private unnamed_addr constant [6 x i8] c"alert\00", align 1
@.str.57 = private unnamed_addr constant [10 x i8] c"backspace\00", align 1
@.str.58 = private unnamed_addr constant [4 x i8] c"tab\00", align 1
@.str.59 = private unnamed_addr constant [8 x i8] c"newline\00", align 1
@.str.60 = private unnamed_addr constant [13 x i8] c"vertical-tab\00", align 1
@.str.61 = private unnamed_addr constant [10 x i8] c"form-feed\00", align 1
@.str.62 = private unnamed_addr constant [16 x i8] c"carriage-return\00", align 1
@.str.63 = private unnamed_addr constant [3 x i8] c"SO\00", align 1
@.str.64 = private unnamed_addr constant [3 x i8] c"SI\00", align 1
@.str.65 = private unnamed_addr constant [4 x i8] c"DLE\00", align 1
@.str.66 = private unnamed_addr constant [4 x i8] c"DC1\00", align 1
@.str.67 = private unnamed_addr constant [4 x i8] c"DC2\00", align 1
@.str.68 = private unnamed_addr constant [4 x i8] c"DC3\00", align 1
@.str.69 = private unnamed_addr constant [4 x i8] c"DC4\00", align 1
@.str.70 = private unnamed_addr constant [4 x i8] c"NAK\00", align 1
@.str.71 = private unnamed_addr constant [4 x i8] c"SYN\00", align 1
@.str.72 = private unnamed_addr constant [4 x i8] c"ETB\00", align 1
@.str.73 = private unnamed_addr constant [4 x i8] c"CAN\00", align 1
@.str.74 = private unnamed_addr constant [3 x i8] c"EM\00", align 1
@.str.75 = private unnamed_addr constant [4 x i8] c"SUB\00", align 1
@.str.76 = private unnamed_addr constant [4 x i8] c"ESC\00", align 1
@.str.77 = private unnamed_addr constant [4 x i8] c"IS4\00", align 1
@.str.78 = private unnamed_addr constant [4 x i8] c"IS3\00", align 1
@.str.79 = private unnamed_addr constant [4 x i8] c"IS2\00", align 1
@.str.80 = private unnamed_addr constant [4 x i8] c"IS1\00", align 1
@.str.81 = private unnamed_addr constant [17 x i8] c"exclamation-mark\00", align 1
@.str.82 = private unnamed_addr constant [15 x i8] c"quotation-mark\00", align 1
@.str.83 = private unnamed_addr constant [12 x i8] c"number-sign\00", align 1
@.str.84 = private unnamed_addr constant [12 x i8] c"dollar-sign\00", align 1
@.str.85 = private unnamed_addr constant [13 x i8] c"percent-sign\00", align 1
@.str.86 = private unnamed_addr constant [10 x i8] c"ampersand\00", align 1
@.str.87 = private unnamed_addr constant [11 x i8] c"apostrophe\00", align 1
@.str.88 = private unnamed_addr constant [17 x i8] c"left-parenthesis\00", align 1
@.str.89 = private unnamed_addr constant [18 x i8] c"right-parenthesis\00", align 1
@.str.90 = private unnamed_addr constant [9 x i8] c"asterisk\00", align 1
@.str.91 = private unnamed_addr constant [10 x i8] c"plus-sign\00", align 1
@.str.92 = private unnamed_addr constant [6 x i8] c"comma\00", align 1
@.str.93 = private unnamed_addr constant [7 x i8] c"hyphen\00", align 1
@.str.94 = private unnamed_addr constant [7 x i8] c"period\00", align 1
@.str.95 = private unnamed_addr constant [6 x i8] c"slash\00", align 1
@.str.96 = private unnamed_addr constant [5 x i8] c"zero\00", align 1
@.str.97 = private unnamed_addr constant [4 x i8] c"one\00", align 1
@.str.98 = private unnamed_addr constant [4 x i8] c"two\00", align 1
@.str.99 = private unnamed_addr constant [6 x i8] c"three\00", align 1
@.str.100 = private unnamed_addr constant [5 x i8] c"four\00", align 1
@.str.101 = private unnamed_addr constant [5 x i8] c"five\00", align 1
@.str.102 = private unnamed_addr constant [4 x i8] c"six\00", align 1
@.str.103 = private unnamed_addr constant [6 x i8] c"seven\00", align 1
@.str.104 = private unnamed_addr constant [6 x i8] c"eight\00", align 1
@.str.105 = private unnamed_addr constant [5 x i8] c"nine\00", align 1
@.str.106 = private unnamed_addr constant [6 x i8] c"colon\00", align 1
@.str.107 = private unnamed_addr constant [10 x i8] c"semicolon\00", align 1
@.str.108 = private unnamed_addr constant [15 x i8] c"less-than-sign\00", align 1
@.str.109 = private unnamed_addr constant [12 x i8] c"equals-sign\00", align 1
@.str.110 = private unnamed_addr constant [18 x i8] c"greater-than-sign\00", align 1
@.str.111 = private unnamed_addr constant [14 x i8] c"question-mark\00", align 1
@.str.112 = private unnamed_addr constant [14 x i8] c"commercial-at\00", align 1
@.str.113 = private unnamed_addr constant [2 x i8] c"A\00", align 1
@.str.114 = private unnamed_addr constant [2 x i8] c"B\00", align 1
@.str.115 = private unnamed_addr constant [2 x i8] c"C\00", align 1
@.str.116 = private unnamed_addr constant [2 x i8] c"D\00", align 1
@.str.117 = private unnamed_addr constant [2 x i8] c"E\00", align 1
@.str.118 = private unnamed_addr constant [2 x i8] c"F\00", align 1
@.str.119 = private unnamed_addr constant [2 x i8] c"G\00", align 1
@.str.120 = private unnamed_addr constant [2 x i8] c"H\00", align 1
@.str.121 = private unnamed_addr constant [2 x i8] c"I\00", align 1
@.str.122 = private unnamed_addr constant [2 x i8] c"J\00", align 1
@.str.123 = private unnamed_addr constant [2 x i8] c"K\00", align 1
@.str.124 = private unnamed_addr constant [2 x i8] c"L\00", align 1
@.str.125 = private unnamed_addr constant [2 x i8] c"M\00", align 1
@.str.126 = private unnamed_addr constant [2 x i8] c"N\00", align 1
@.str.127 = private unnamed_addr constant [2 x i8] c"O\00", align 1
@.str.128 = private unnamed_addr constant [2 x i8] c"P\00", align 1
@.str.129 = private unnamed_addr constant [2 x i8] c"Q\00", align 1
@.str.130 = private unnamed_addr constant [2 x i8] c"R\00", align 1
@.str.131 = private unnamed_addr constant [2 x i8] c"S\00", align 1
@.str.132 = private unnamed_addr constant [2 x i8] c"T\00", align 1
@.str.133 = private unnamed_addr constant [2 x i8] c"U\00", align 1
@.str.134 = private unnamed_addr constant [2 x i8] c"V\00", align 1
@.str.135 = private unnamed_addr constant [2 x i8] c"W\00", align 1
@.str.136 = private unnamed_addr constant [2 x i8] c"X\00", align 1
@.str.137 = private unnamed_addr constant [2 x i8] c"Y\00", align 1
@.str.138 = private unnamed_addr constant [2 x i8] c"Z\00", align 1
@.str.139 = private unnamed_addr constant [20 x i8] c"left-square-bracket\00", align 1
@.str.140 = private unnamed_addr constant [10 x i8] c"backslash\00", align 1
@.str.141 = private unnamed_addr constant [21 x i8] c"right-square-bracket\00", align 1
@.str.142 = private unnamed_addr constant [11 x i8] c"circumflex\00", align 1
@.str.143 = private unnamed_addr constant [11 x i8] c"underscore\00", align 1
@.str.144 = private unnamed_addr constant [13 x i8] c"grave-accent\00", align 1
@.str.145 = private unnamed_addr constant [2 x i8] c"a\00", align 1
@.str.146 = private unnamed_addr constant [2 x i8] c"b\00", align 1
@.str.147 = private unnamed_addr constant [2 x i8] c"c\00", align 1
@.str.148 = private unnamed_addr constant [2 x i8] c"e\00", align 1
@.str.149 = private unnamed_addr constant [2 x i8] c"f\00", align 1
@.str.150 = private unnamed_addr constant [2 x i8] c"g\00", align 1
@.str.151 = private unnamed_addr constant [2 x i8] c"h\00", align 1
@.str.152 = private unnamed_addr constant [2 x i8] c"i\00", align 1
@.str.153 = private unnamed_addr constant [2 x i8] c"j\00", align 1
@.str.154 = private unnamed_addr constant [2 x i8] c"k\00", align 1
@.str.155 = private unnamed_addr constant [2 x i8] c"l\00", align 1
@.str.156 = private unnamed_addr constant [2 x i8] c"m\00", align 1
@.str.157 = private unnamed_addr constant [2 x i8] c"n\00", align 1
@.str.158 = private unnamed_addr constant [2 x i8] c"o\00", align 1
@.str.159 = private unnamed_addr constant [2 x i8] c"p\00", align 1
@.str.160 = private unnamed_addr constant [2 x i8] c"q\00", align 1
@.str.161 = private unnamed_addr constant [2 x i8] c"r\00", align 1
@.str.162 = private unnamed_addr constant [2 x i8] c"t\00", align 1
@.str.163 = private unnamed_addr constant [2 x i8] c"u\00", align 1
@.str.164 = private unnamed_addr constant [2 x i8] c"v\00", align 1
@.str.165 = private unnamed_addr constant [2 x i8] c"x\00", align 1
@.str.166 = private unnamed_addr constant [2 x i8] c"y\00", align 1
@.str.167 = private unnamed_addr constant [2 x i8] c"z\00", align 1
@.str.168 = private unnamed_addr constant [19 x i8] c"left-curly-bracket\00", align 1
@.str.169 = private unnamed_addr constant [14 x i8] c"vertical-line\00", align 1
@.str.170 = private unnamed_addr constant [20 x i8] c"right-curly-bracket\00", align 1
@.str.171 = private unnamed_addr constant [6 x i8] c"tilde\00", align 1
@.str.172 = private unnamed_addr constant [4 x i8] c"DEL\00", align 1
@.str.173 = private unnamed_addr constant [27 x i8] c"Invalid equivalence class.\00", align 1
@.str.174 = private unnamed_addr constant [37 x i8] c"Invalid range in bracket expression.\00", align 1
@.str.175 = private unnamed_addr constant [39 x i8] c"Nothing to repeat before a quantifier.\00", align 1
@.str.176 = private unnamed_addr constant [38 x i8] c"Unexpected token in brace expression.\00", align 1
@.str.177 = private unnamed_addr constant [36 x i8] c"Unexpected end of brace expression.\00", align 1
@.str.178 = private unnamed_addr constant [35 x i8] c"Invalid range in brace expression.\00", align 1
@_ZStL19piecewise_construct = internal constant %"struct.std::piecewise_construct_t" undef, align 1
@.str.179 = private unnamed_addr constant [48 x i8] c"cannot create std::deque larger than max_size()\00", align 1
@__libc_single_threaded = external local_unnamed_addr global i8, align 1
@_ZZNKSt8__detail9_ExecutorIN9__gnu_cxx17__normal_iteratorIPKcNSt7__cxx1112basic_stringIcSt11char_traitsIcESaIcEEEEESaINS5_9sub_matchISB_EEENS5_12regex_traitsIcEELb0EE10_M_is_wordEcE3__s = linkonce_odr dso_local constant [2 x i8] c"w\00", comdat, align 1
@_ZZNKSt8__detail9_ExecutorIN9__gnu_cxx17__normal_iteratorIPKcNSt7__cxx1112basic_stringIcSt11char_traitsIcESaIcEEEEESaINS5_9sub_matchISB_EEENS5_12regex_traitsIcEELb1EE10_M_is_wordEcE3__s = linkonce_odr dso_local constant [2 x i8] c"w\00", comdat, align 1
@llvm.global_ctors = appending global [1 x { i32, void ()*, i8* }] [{ i32, void ()*, i8* } { i32 65535, void ()* @_GLOBAL__sub_I_s525751269.cpp, i8* null }]

declare void @_ZNSt8ios_base4InitC1Ev(%"class.std::ios_base::Init"* nonnull align 1 dereferenceable(1)) unnamed_addr #0

; Function Attrs: nounwind
declare void @_ZNSt8ios_base4InitD1Ev(%"class.std::ios_base::Init"* nonnull align 1 dereferenceable(1)) unnamed_addr #1

; Function Attrs: nofree nounwind
declare i32 @__cxa_atexit(void (i8*)*, i8*, i8*) local_unnamed_addr #2

; Function Attrs: norecurse sspstrong uwtable
define dso_local i32 @main() local_unnamed_addr #3 personality i8* bitcast (i32 (...)* @__gxx_personality_v0 to i8*) {
  %1 = alloca %"class.std::__detail::_Compiler", align 8
  %2 = alloca %"class.std::locale", align 8
  %3 = alloca %"class.std::__cxx11::basic_string", align 8
  %4 = alloca %"class.std::__cxx11::match_results", align 8
  %5 = alloca %"class.std::__cxx11::basic_regex", align 8
  %6 = bitcast %"class.std::__cxx11::basic_string"* %3 to i8*
  call void @llvm.lifetime.start.p0i8(i64 32, i8* nonnull %6) #25
  %7 = getelementptr inbounds %"class.std::__cxx11::basic_string", %"class.std::__cxx11::basic_string"* %3, i64 0, i32 2
  %8 = bitcast %"class.std::__cxx11::basic_string"* %3 to %union.anon**
  store %union.anon* %7, %union.anon** %8, align 8, !tbaa !5
  %9 = getelementptr inbounds %"class.std::__cxx11::basic_string", %"class.std::__cxx11::basic_string"* %3, i64 0, i32 1
  store i64 0, i64* %9, align 8, !tbaa !10
  %10 = bitcast %union.anon* %7 to i8*
  store i8 0, i8* %10, align 8, !tbaa !13
  %11 = invoke nonnull align 8 dereferenceable(16) %"class.std::basic_istream"* @_ZStrsIcSt11char_traitsIcESaIcEERSt13basic_istreamIT_T0_ES7_RNSt7__cxx1112basic_stringIS4_S5_T1_EE(%"class.std::basic_istream"* nonnull align 8 dereferenceable(16) @_ZSt3cin, %"class.std::__cxx11::basic_string"* nonnull align 8 dereferenceable(32) %3)
          to label %12 unwind label %176

12:                                               ; preds = %0
  %13 = bitcast %"class.std::__cxx11::match_results"* %4 to i8*
  call void @llvm.lifetime.start.p0i8(i64 32, i8* nonnull %13) #25
  call void @llvm.memset.p0i8.i64(i8* noundef nonnull align 8 dereferenceable(32) %13, i8 0, i64 32, i1 false) #25
  %14 = bitcast %"class.std::__cxx11::basic_regex"* %5 to i8*
  call void @llvm.lifetime.start.p0i8(i64 32, i8* nonnull %14) #25
  %15 = bitcast %"class.std::locale"* %2 to i8*
  call void @llvm.lifetime.start.p0i8(i64 8, i8* nonnull %15)
  call void @_ZNSt6localeC1Ev(%"class.std::locale"* nonnull align 8 dereferenceable(8) %2) #25
  %16 = getelementptr inbounds %"class.std::__cxx11::basic_regex", %"class.std::__cxx11::basic_regex"* %5, i64 0, i32 0
  store i32 16, i32* %16, align 8, !tbaa !14
  %17 = getelementptr inbounds %"class.std::__cxx11::basic_regex", %"class.std::__cxx11::basic_regex"* %5, i64 0, i32 1
  call void @_ZNSt6localeC1ERKS_(%"class.std::locale"* nonnull align 8 dereferenceable(8) %17, %"class.std::locale"* nonnull align 8 dereferenceable(8) %2) #25
  %18 = load i32, i32* %16, align 8, !tbaa !14
  call void @llvm.experimental.noalias.scope.decl(metadata !19)
  %19 = bitcast %"class.std::__detail::_Compiler"* %1 to i8*
  call void @llvm.lifetime.start.p0i8(i64 400, i8* nonnull %19) #25, !noalias !19
  invoke void @_ZNSt8__detail9_CompilerINSt7__cxx1112regex_traitsIcEEEC2EPKcS6_RKSt6localeNSt15regex_constants18syntax_option_typeE(%"class.std::__detail::_Compiler"* nonnull align 8 dereferenceable(400) %1, i8* getelementptr inbounds ([17 x i8], [17 x i8]* @.str, i64 0, i64 0), i8* getelementptr inbounds ([17 x i8], [17 x i8]* @.str, i64 0, i64 16), %"class.std::locale"* nonnull align 8 dereferenceable(8) %17, i32 %18)
          to label %22 unwind label %20

20:                                               ; preds = %12
  %21 = landingpad { i8*, i32 }
          cleanup
  call void @_ZNSt6localeD1Ev(%"class.std::locale"* nonnull align 8 dereferenceable(8) %17) #25
  br label %181

22:                                               ; preds = %12
  call void @llvm.experimental.noalias.scope.decl(metadata !22)
  %23 = getelementptr inbounds %"class.std::__cxx11::basic_regex", %"class.std::__cxx11::basic_regex"* %5, i64 0, i32 2, i32 0, i32 0
  %24 = getelementptr inbounds %"class.std::__detail::_Compiler", %"class.std::__detail::_Compiler"* %1, i64 0, i32 2, i32 0, i32 0
  %25 = load %"struct.std::__detail::_NFA"*, %"struct.std::__detail::_NFA"** %24, align 8, !tbaa !25, !noalias !28
  store %"struct.std::__detail::_NFA"* %25, %"struct.std::__detail::_NFA"** %23, align 8, !tbaa !29, !alias.scope !28
  %26 = getelementptr inbounds %"class.std::__cxx11::basic_regex", %"class.std::__cxx11::basic_regex"* %5, i64 0, i32 2, i32 0, i32 1, i32 0
  %27 = getelementptr inbounds %"class.std::__detail::_Compiler", %"class.std::__detail::_Compiler"* %1, i64 0, i32 2, i32 0, i32 1, i32 0
  %28 = load %"class.std::_Sp_counted_base"*, %"class.std::_Sp_counted_base"** %27, align 8, !tbaa !31, !noalias !28
  store %"class.std::_Sp_counted_base"* null, %"class.std::_Sp_counted_base"** %27, align 8, !tbaa !31, !noalias !28
  store %"class.std::_Sp_counted_base"* %28, %"class.std::_Sp_counted_base"** %26, align 8, !tbaa !31, !alias.scope !28
  store %"struct.std::__detail::_NFA"* null, %"struct.std::__detail::_NFA"** %24, align 8, !tbaa !25, !noalias !28
  %29 = getelementptr inbounds %"class.std::__detail::_Compiler", %"class.std::__detail::_Compiler"* %1, i64 0, i32 4, i32 0
  %30 = getelementptr inbounds %"class.std::deque", %"class.std::deque"* %29, i64 0, i32 0, i32 0, i32 0, i32 0
  %31 = load %"class.std::__detail::_StateSeq"**, %"class.std::__detail::_StateSeq"*** %30, align 8, !tbaa !32, !noalias !19
  %32 = icmp eq %"class.std::__detail::_StateSeq"** %31, null
  br i1 %32, label %52, label %33

33:                                               ; preds = %22
  %34 = bitcast %"class.std::__detail::_StateSeq"** %31 to i8*
  %35 = getelementptr inbounds %"class.std::__detail::_Compiler", %"class.std::__detail::_Compiler"* %1, i64 0, i32 4, i32 0, i32 0, i32 0, i32 0, i32 2, i32 3
  %36 = load %"class.std::__detail::_StateSeq"**, %"class.std::__detail::_StateSeq"*** %35, align 8, !tbaa !35, !noalias !19
  %37 = getelementptr inbounds %"class.std::__detail::_Compiler", %"class.std::__detail::_Compiler"* %1, i64 0, i32 4, i32 0, i32 0, i32 0, i32 0, i32 3, i32 3
  %38 = load %"class.std::__detail::_StateSeq"**, %"class.std::__detail::_StateSeq"*** %37, align 8, !tbaa !36, !noalias !19
  %39 = getelementptr inbounds %"class.std::__detail::_StateSeq"*, %"class.std::__detail::_StateSeq"** %38, i64 1
  %40 = icmp ult %"class.std::__detail::_StateSeq"** %36, %39
  br i1 %40, label %41, label %50

41:                                               ; preds = %33, %41
  %42 = phi %"class.std::__detail::_StateSeq"** [ %45, %41 ], [ %36, %33 ]
  %43 = bitcast %"class.std::__detail::_StateSeq"** %42 to i8**
  %44 = load i8*, i8** %43, align 8, !tbaa !37, !noalias !19
  call void @_ZdlPv(i8* %44) #25, !noalias !19
  %45 = getelementptr inbounds %"class.std::__detail::_StateSeq"*, %"class.std::__detail::_StateSeq"** %42, i64 1
  %46 = icmp ult %"class.std::__detail::_StateSeq"** %42, %38
  br i1 %46, label %41, label %47, !llvm.loop !38

47:                                               ; preds = %41
  %48 = bitcast %"class.std::deque"* %29 to i8**
  %49 = load i8*, i8** %48, align 8, !tbaa !32, !noalias !19
  br label %50

50:                                               ; preds = %47, %33
  %51 = phi i8* [ %49, %47 ], [ %34, %33 ]
  call void @_ZdlPv(i8* %51) #25, !noalias !19
  br label %52

52:                                               ; preds = %50, %22
  %53 = getelementptr inbounds %"class.std::__detail::_Compiler", %"class.std::__detail::_Compiler"* %1, i64 0, i32 3, i32 0, i32 0
  %54 = load i8*, i8** %53, align 8, !tbaa !40, !noalias !19
  %55 = getelementptr inbounds %"class.std::__detail::_Compiler", %"class.std::__detail::_Compiler"* %1, i64 0, i32 3, i32 2
  %56 = bitcast %union.anon* %55 to i8*
  %57 = icmp eq i8* %54, %56
  br i1 %57, label %59, label %58

58:                                               ; preds = %52
  call void @_ZdlPv(i8* %54) #25, !noalias !19
  br label %59

59:                                               ; preds = %58, %52
  %60 = load %"class.std::_Sp_counted_base"*, %"class.std::_Sp_counted_base"** %27, align 8, !tbaa !31, !noalias !19
  %61 = icmp eq %"class.std::_Sp_counted_base"* %60, null
  br i1 %61, label %94, label %62

62:                                               ; preds = %59
  %63 = getelementptr inbounds %"class.std::_Sp_counted_base", %"class.std::_Sp_counted_base"* %60, i64 0, i32 1
  %64 = load i8, i8* @__libc_single_threaded, align 1, !tbaa !13, !noalias !19
  %65 = icmp eq i8 %64, 0
  br i1 %65, label %69, label %66

66:                                               ; preds = %62
  %67 = load i32, i32* %63, align 8, !tbaa !41, !noalias !19
  %68 = add nsw i32 %67, -1
  store i32 %68, i32* %63, align 8, !tbaa !41, !noalias !19
  br label %71

69:                                               ; preds = %62
  %70 = atomicrmw volatile add i32* %63, i32 -1 acq_rel, align 4, !noalias !19
  br label %71

71:                                               ; preds = %69, %66
  %72 = phi i32 [ %67, %66 ], [ %70, %69 ]
  %73 = icmp eq i32 %72, 1
  br i1 %73, label %74, label %94

74:                                               ; preds = %71
  %75 = bitcast %"class.std::_Sp_counted_base"* %60 to void (%"class.std::_Sp_counted_base"*)***
  %76 = load void (%"class.std::_Sp_counted_base"*)**, void (%"class.std::_Sp_counted_base"*)*** %75, align 8, !tbaa !43, !noalias !19
  %77 = getelementptr inbounds void (%"class.std::_Sp_counted_base"*)*, void (%"class.std::_Sp_counted_base"*)** %76, i64 2
  %78 = load void (%"class.std::_Sp_counted_base"*)*, void (%"class.std::_Sp_counted_base"*)** %77, align 8, !noalias !19
  call void %78(%"class.std::_Sp_counted_base"* nonnull align 8 dereferenceable(16) %60) #25, !noalias !19
  %79 = getelementptr inbounds %"class.std::_Sp_counted_base", %"class.std::_Sp_counted_base"* %60, i64 0, i32 2
  %80 = load i8, i8* @__libc_single_threaded, align 1, !tbaa !13, !noalias !19
  %81 = icmp eq i8 %80, 0
  br i1 %81, label %85, label %82

82:                                               ; preds = %74
  %83 = load i32, i32* %79, align 4, !tbaa !41, !noalias !19
  %84 = add nsw i32 %83, -1
  store i32 %84, i32* %79, align 4, !tbaa !41, !noalias !19
  br label %87

85:                                               ; preds = %74
  %86 = atomicrmw volatile add i32* %79, i32 -1 acq_rel, align 4, !noalias !19
  br label %87

87:                                               ; preds = %85, %82
  %88 = phi i32 [ %83, %82 ], [ %86, %85 ]
  %89 = icmp eq i32 %88, 1
  br i1 %89, label %90, label %94

90:                                               ; preds = %87
  %91 = load void (%"class.std::_Sp_counted_base"*)**, void (%"class.std::_Sp_counted_base"*)*** %75, align 8, !tbaa !43, !noalias !19
  %92 = getelementptr inbounds void (%"class.std::_Sp_counted_base"*)*, void (%"class.std::_Sp_counted_base"*)** %91, i64 3
  %93 = load void (%"class.std::_Sp_counted_base"*)*, void (%"class.std::_Sp_counted_base"*)** %92, align 8, !noalias !19
  call void %93(%"class.std::_Sp_counted_base"* nonnull align 8 dereferenceable(16) %60) #25, !noalias !19
  br label %94

94:                                               ; preds = %90, %87, %71, %59
  %95 = getelementptr inbounds %"class.std::__detail::_Compiler", %"class.std::__detail::_Compiler"* %1, i64 0, i32 1, i32 4, i32 0, i32 0
  %96 = load i8*, i8** %95, align 8, !tbaa !40, !noalias !19
  %97 = getelementptr inbounds %"class.std::__detail::_Compiler", %"class.std::__detail::_Compiler"* %1, i64 0, i32 1, i32 4, i32 2
  %98 = bitcast %union.anon* %97 to i8*
  %99 = icmp eq i8* %96, %98
  br i1 %99, label %101, label %100

100:                                              ; preds = %94
  call void @_ZdlPv(i8* %96) #25, !noalias !19
  br label %101

101:                                              ; preds = %94, %100
  call void @llvm.lifetime.end.p0i8(i64 400, i8* nonnull %19) #25, !noalias !19
  call void @_ZNSt6localeD1Ev(%"class.std::locale"* nonnull align 8 dereferenceable(8) %2) #25
  call void @llvm.lifetime.end.p0i8(i64 8, i8* nonnull %15)
  %102 = getelementptr inbounds %"class.std::__cxx11::basic_string", %"class.std::__cxx11::basic_string"* %3, i64 0, i32 0, i32 0
  %103 = load i8*, i8** %102, align 8, !tbaa !40
  %104 = load i64, i64* %9, align 8, !tbaa !10
  %105 = getelementptr inbounds i8, i8* %103, i64 %104
  %106 = invoke zeroext i1 @_ZNSt8__detail17__regex_algo_implIN9__gnu_cxx17__normal_iteratorIPKcNSt7__cxx1112basic_stringIcSt11char_traitsIcESaIcEEEEESaINS5_9sub_matchISB_EEEcNS5_12regex_traitsIcEELNS_20_RegexExecutorPolicyE0ELb0EEEbT_SI_RNS5_13match_resultsISI_T0_EERKNS5_11basic_regexIT1_T2_EENSt15regex_constants15match_flag_typeE(i8* %103, i8* %105, %"class.std::__cxx11::match_results"* nonnull align 8 dereferenceable(32) %4, %"class.std::__cxx11::basic_regex"* nonnull align 8 dereferenceable(32) %5, i32 0)
          to label %107 unwind label %178

107:                                              ; preds = %101
  %108 = load %"class.std::_Sp_counted_base"*, %"class.std::_Sp_counted_base"** %26, align 8, !tbaa !31
  %109 = icmp eq %"class.std::_Sp_counted_base"* %108, null
  br i1 %109, label %142, label %110

110:                                              ; preds = %107
  %111 = getelementptr inbounds %"class.std::_Sp_counted_base", %"class.std::_Sp_counted_base"* %108, i64 0, i32 1
  %112 = load i8, i8* @__libc_single_threaded, align 1, !tbaa !13
  %113 = icmp eq i8 %112, 0
  br i1 %113, label %117, label %114

114:                                              ; preds = %110
  %115 = load i32, i32* %111, align 8, !tbaa !41
  %116 = add nsw i32 %115, -1
  store i32 %116, i32* %111, align 8, !tbaa !41
  br label %119

117:                                              ; preds = %110
  %118 = atomicrmw volatile add i32* %111, i32 -1 acq_rel, align 4
  br label %119

119:                                              ; preds = %117, %114
  %120 = phi i32 [ %115, %114 ], [ %118, %117 ]
  %121 = icmp eq i32 %120, 1
  br i1 %121, label %122, label %142

122:                                              ; preds = %119
  %123 = bitcast %"class.std::_Sp_counted_base"* %108 to void (%"class.std::_Sp_counted_base"*)***
  %124 = load void (%"class.std::_Sp_counted_base"*)**, void (%"class.std::_Sp_counted_base"*)*** %123, align 8, !tbaa !43
  %125 = getelementptr inbounds void (%"class.std::_Sp_counted_base"*)*, void (%"class.std::_Sp_counted_base"*)** %124, i64 2
  %126 = load void (%"class.std::_Sp_counted_base"*)*, void (%"class.std::_Sp_counted_base"*)** %125, align 8
  call void %126(%"class.std::_Sp_counted_base"* nonnull align 8 dereferenceable(16) %108) #25
  %127 = getelementptr inbounds %"class.std::_Sp_counted_base", %"class.std::_Sp_counted_base"* %108, i64 0, i32 2
  %128 = load i8, i8* @__libc_single_threaded, align 1, !tbaa !13
  %129 = icmp eq i8 %128, 0
  br i1 %129, label %133, label %130

130:                                              ; preds = %122
  %131 = load i32, i32* %127, align 4, !tbaa !41
  %132 = add nsw i32 %131, -1
  store i32 %132, i32* %127, align 4, !tbaa !41
  br label %135

133:                                              ; preds = %122
  %134 = atomicrmw volatile add i32* %127, i32 -1 acq_rel, align 4
  br label %135

135:                                              ; preds = %133, %130
  %136 = phi i32 [ %131, %130 ], [ %134, %133 ]
  %137 = icmp eq i32 %136, 1
  br i1 %137, label %138, label %142

138:                                              ; preds = %135
  %139 = load void (%"class.std::_Sp_counted_base"*)**, void (%"class.std::_Sp_counted_base"*)*** %123, align 8, !tbaa !43
  %140 = getelementptr inbounds void (%"class.std::_Sp_counted_base"*)*, void (%"class.std::_Sp_counted_base"*)** %139, i64 3
  %141 = load void (%"class.std::_Sp_counted_base"*)*, void (%"class.std::_Sp_counted_base"*)** %140, align 8
  call void %141(%"class.std::_Sp_counted_base"* nonnull align 8 dereferenceable(16) %108) #25
  br label %142

142:                                              ; preds = %107, %119, %135, %138
  call void @_ZNSt6localeD1Ev(%"class.std::locale"* nonnull align 8 dereferenceable(8) %17) #25
  call void @llvm.lifetime.end.p0i8(i64 32, i8* nonnull %14) #25
  br i1 %106, label %143, label %186

143:                                              ; preds = %142
  %144 = invoke nonnull align 8 dereferenceable(8) %"class.std::basic_ostream"* @_ZSt16__ostream_insertIcSt11char_traitsIcEERSt13basic_ostreamIT_T0_ES6_PKS3_l(%"class.std::basic_ostream"* nonnull align 8 dereferenceable(8) @_ZSt4cout, i8* nonnull getelementptr inbounds ([3 x i8], [3 x i8]* @.str.1, i64 0, i64 0), i64 2)
          to label %145 unwind label %184

145:                                              ; preds = %143
  %146 = load i8*, i8** bitcast (%"class.std::basic_ostream"* @_ZSt4cout to i8**), align 8, !tbaa !43
  %147 = getelementptr i8, i8* %146, i64 -24
  %148 = bitcast i8* %147 to i64*
  %149 = load i64, i64* %148, align 8
  %150 = add nsw i64 %149, 240
  %151 = getelementptr inbounds i8, i8* bitcast (%"class.std::basic_ostream"* @_ZSt4cout to i8*), i64 %150
  %152 = bitcast i8* %151 to %"class.std::ctype"**
  %153 = load %"class.std::ctype"*, %"class.std::ctype"** %152, align 8, !tbaa !45
  %154 = icmp eq %"class.std::ctype"* %153, null
  br i1 %154, label %155, label %157

155:                                              ; preds = %145
  invoke void @_ZSt16__throw_bad_castv() #26
          to label %156 unwind label %184

156:                                              ; preds = %155
  unreachable

157:                                              ; preds = %145
  %158 = getelementptr inbounds %"class.std::ctype", %"class.std::ctype"* %153, i64 0, i32 8
  %159 = load i8, i8* %158, align 8, !tbaa !48
  %160 = icmp eq i8 %159, 0
  br i1 %160, label %164, label %161

161:                                              ; preds = %157
  %162 = getelementptr inbounds %"class.std::ctype", %"class.std::ctype"* %153, i64 0, i32 9, i64 10
  %163 = load i8, i8* %162, align 1, !tbaa !13
  br label %171

164:                                              ; preds = %157
  invoke void @_ZNKSt5ctypeIcE13_M_widen_initEv(%"class.std::ctype"* nonnull align 8 dereferenceable(570) %153)
          to label %165 unwind label %184

165:                                              ; preds = %164
  %166 = bitcast %"class.std::ctype"* %153 to i8 (%"class.std::ctype"*, i8)***
  %167 = load i8 (%"class.std::ctype"*, i8)**, i8 (%"class.std::ctype"*, i8)*** %166, align 8, !tbaa !43
  %168 = getelementptr inbounds i8 (%"class.std::ctype"*, i8)*, i8 (%"class.std::ctype"*, i8)** %167, i64 6
  %169 = load i8 (%"class.std::ctype"*, i8)*, i8 (%"class.std::ctype"*, i8)** %168, align 8
  %170 = invoke signext i8 %169(%"class.std::ctype"* nonnull align 8 dereferenceable(570) %153, i8 signext 10)
          to label %171 unwind label %184

171:                                              ; preds = %165, %161
  %172 = phi i8 [ %163, %161 ], [ %170, %165 ]
  %173 = invoke nonnull align 8 dereferenceable(8) %"class.std::basic_ostream"* @_ZNSo3putEc(%"class.std::basic_ostream"* nonnull align 8 dereferenceable(8) @_ZSt4cout, i8 signext %172)
          to label %174 unwind label %184

174:                                              ; preds = %171
  %175 = invoke nonnull align 8 dereferenceable(8) %"class.std::basic_ostream"* @_ZNSo5flushEv(%"class.std::basic_ostream"* nonnull align 8 dereferenceable(8) %173)
          to label %219 unwind label %184

176:                                              ; preds = %0
  %177 = landingpad { i8*, i32 }
          cleanup
  br label %238

178:                                              ; preds = %101
  %179 = landingpad { i8*, i32 }
          cleanup
  %180 = getelementptr inbounds %"class.std::__cxx11::basic_regex", %"class.std::__cxx11::basic_regex"* %5, i64 0, i32 2, i32 0
  call void @_ZNSt12__shared_ptrIKNSt8__detail4_NFAINSt7__cxx1112regex_traitsIcEEEELN9__gnu_cxx12_Lock_policyE2EED2Ev(%"class.std::__shared_ptr"* nonnull align 8 dereferenceable(16) %180) #25
  br label %181

181:                                              ; preds = %20, %178
  %182 = phi %"class.std::locale"* [ %2, %20 ], [ %17, %178 ]
  %183 = phi { i8*, i32 } [ %21, %20 ], [ %179, %178 ]
  call void @_ZNSt6localeD1Ev(%"class.std::locale"* nonnull align 8 dereferenceable(8) %182) #25
  call void @llvm.lifetime.end.p0i8(i64 32, i8* nonnull %14) #25
  br label %230

184:                                              ; preds = %217, %214, %208, %207, %198, %174, %171, %165, %164, %155, %186, %143
  %185 = landingpad { i8*, i32 }
          cleanup
  br label %230

186:                                              ; preds = %142
  %187 = invoke nonnull align 8 dereferenceable(8) %"class.std::basic_ostream"* @_ZSt16__ostream_insertIcSt11char_traitsIcEERSt13basic_ostreamIT_T0_ES6_PKS3_l(%"class.std::basic_ostream"* nonnull align 8 dereferenceable(8) @_ZSt4cout, i8* nonnull getelementptr inbounds ([3 x i8], [3 x i8]* @.str.2, i64 0, i64 0), i64 2)
          to label %188 unwind label %184

188:                                              ; preds = %186
  %189 = load i8*, i8** bitcast (%"class.std::basic_ostream"* @_ZSt4cout to i8**), align 8, !tbaa !43
  %190 = getelementptr i8, i8* %189, i64 -24
  %191 = bitcast i8* %190 to i64*
  %192 = load i64, i64* %191, align 8
  %193 = add nsw i64 %192, 240
  %194 = getelementptr inbounds i8, i8* bitcast (%"class.std::basic_ostream"* @_ZSt4cout to i8*), i64 %193
  %195 = bitcast i8* %194 to %"class.std::ctype"**
  %196 = load %"class.std::ctype"*, %"class.std::ctype"** %195, align 8, !tbaa !45
  %197 = icmp eq %"class.std::ctype"* %196, null
  br i1 %197, label %198, label %200

198:                                              ; preds = %188
  invoke void @_ZSt16__throw_bad_castv() #26
          to label %199 unwind label %184

199:                                              ; preds = %198
  unreachable

200:                                              ; preds = %188
  %201 = getelementptr inbounds %"class.std::ctype", %"class.std::ctype"* %196, i64 0, i32 8
  %202 = load i8, i8* %201, align 8, !tbaa !48
  %203 = icmp eq i8 %202, 0
  br i1 %203, label %207, label %204

204:                                              ; preds = %200
  %205 = getelementptr inbounds %"class.std::ctype", %"class.std::ctype"* %196, i64 0, i32 9, i64 10
  %206 = load i8, i8* %205, align 1, !tbaa !13
  br label %214

207:                                              ; preds = %200
  invoke void @_ZNKSt5ctypeIcE13_M_widen_initEv(%"class.std::ctype"* nonnull align 8 dereferenceable(570) %196)
          to label %208 unwind label %184

208:                                              ; preds = %207
  %209 = bitcast %"class.std::ctype"* %196 to i8 (%"class.std::ctype"*, i8)***
  %210 = load i8 (%"class.std::ctype"*, i8)**, i8 (%"class.std::ctype"*, i8)*** %209, align 8, !tbaa !43
  %211 = getelementptr inbounds i8 (%"class.std::ctype"*, i8)*, i8 (%"class.std::ctype"*, i8)** %210, i64 6
  %212 = load i8 (%"class.std::ctype"*, i8)*, i8 (%"class.std::ctype"*, i8)** %211, align 8
  %213 = invoke signext i8 %212(%"class.std::ctype"* nonnull align 8 dereferenceable(570) %196, i8 signext 10)
          to label %214 unwind label %184

214:                                              ; preds = %208, %204
  %215 = phi i8 [ %206, %204 ], [ %213, %208 ]
  %216 = invoke nonnull align 8 dereferenceable(8) %"class.std::basic_ostream"* @_ZNSo3putEc(%"class.std::basic_ostream"* nonnull align 8 dereferenceable(8) @_ZSt4cout, i8 signext %215)
          to label %217 unwind label %184

217:                                              ; preds = %214
  %218 = invoke nonnull align 8 dereferenceable(8) %"class.std::basic_ostream"* @_ZNSo5flushEv(%"class.std::basic_ostream"* nonnull align 8 dereferenceable(8) %216)
          to label %219 unwind label %184

219:                                              ; preds = %217, %174
  %220 = getelementptr inbounds %"class.std::__cxx11::match_results", %"class.std::__cxx11::match_results"* %4, i64 0, i32 0, i32 0, i32 0, i32 0, i32 0
  %221 = load %"class.std::__cxx11::sub_match"*, %"class.std::__cxx11::sub_match"** %220, align 8, !tbaa !50
  %222 = icmp eq %"class.std::__cxx11::sub_match"* %221, null
  br i1 %222, label %225, label %223

223:                                              ; preds = %219
  %224 = bitcast %"class.std::__cxx11::sub_match"* %221 to i8*
  call void @_ZdlPv(i8* nonnull %224) #25
  br label %225

225:                                              ; preds = %219, %223
  call void @llvm.lifetime.end.p0i8(i64 32, i8* nonnull %13) #25
  %226 = load i8*, i8** %102, align 8, !tbaa !40
  %227 = icmp eq i8* %226, %10
  br i1 %227, label %229, label %228

228:                                              ; preds = %225
  call void @_ZdlPv(i8* %226) #25
  br label %229

229:                                              ; preds = %225, %228
  call void @llvm.lifetime.end.p0i8(i64 32, i8* nonnull %6) #25
  ret i32 0

230:                                              ; preds = %184, %181
  %231 = phi { i8*, i32 } [ %185, %184 ], [ %183, %181 ]
  %232 = getelementptr inbounds %"class.std::__cxx11::match_results", %"class.std::__cxx11::match_results"* %4, i64 0, i32 0, i32 0, i32 0, i32 0, i32 0
  %233 = load %"class.std::__cxx11::sub_match"*, %"class.std::__cxx11::sub_match"** %232, align 8, !tbaa !50
  %234 = icmp eq %"class.std::__cxx11::sub_match"* %233, null
  br i1 %234, label %237, label %235

235:                                              ; preds = %230
  %236 = bitcast %"class.std::__cxx11::sub_match"* %233 to i8*
  call void @_ZdlPv(i8* nonnull %236) #25
  br label %237

237:                                              ; preds = %230, %235
  call void @llvm.lifetime.end.p0i8(i64 32, i8* nonnull %13) #25
  br label %238

238:                                              ; preds = %237, %176
  %239 = phi { i8*, i32 } [ %231, %237 ], [ %177, %176 ]
  %240 = getelementptr inbounds %"class.std::__cxx11::basic_string", %"class.std::__cxx11::basic_string"* %3, i64 0, i32 0, i32 0
  %241 = load i8*, i8** %240, align 8, !tbaa !40
  %242 = icmp eq i8* %241, %10
  br i1 %242, label %244, label %243

243:                                              ; preds = %238
  call void @_ZdlPv(i8* %241) #25
  br label %244

244:                                              ; preds = %238, %243
  call void @llvm.lifetime.end.p0i8(i64 32, i8* nonnull %6) #25
  resume { i8*, i32 } %239
}

; Function Attrs: argmemonly mustprogress nofree nosync nounwind willreturn
declare void @llvm.lifetime.start.p0i8(i64 immarg, i8* nocapture) #4

declare nonnull align 8 dereferenceable(16) %"class.std::basic_istream"* @_ZStrsIcSt11char_traitsIcESaIcEERSt13basic_istreamIT_T0_ES7_RNSt7__cxx1112basic_stringIS4_S5_T1_EE(%"class.std::basic_istream"* nonnull align 8 dereferenceable(16), %"class.std::__cxx11::basic_string"* nonnull align 8 dereferenceable(32)) local_unnamed_addr #0

declare i32 @__gxx_personality_v0(...)

; Function Attrs: argmemonly mustprogress nofree nosync nounwind willreturn
declare void @llvm.lifetime.end.p0i8(i64 immarg, i8* nocapture) #4

; Function Attrs: noinline noreturn nounwind
define linkonce_odr hidden void @__clang_call_terminate(i8* %0) local_unnamed_addr #5 comdat {
  %2 = tail call i8* @__cxa_begin_catch(i8* %0) #25
  tail call void @_ZSt9terminatev() #27
  unreachable
}

declare i8* @__cxa_begin_catch(i8*) local_unnamed_addr

declare void @_ZSt9terminatev() local_unnamed_addr

; Function Attrs: nobuiltin nounwind
declare void @_ZdlPv(i8*) local_unnamed_addr #6

; Function Attrs: nounwind
declare void @_ZNSt6localeC1Ev(%"class.std::locale"* nonnull align 8 dereferenceable(8)) unnamed_addr #1

; Function Attrs: nounwind
declare void @_ZNSt6localeD1Ev(%"class.std::locale"* nonnull align 8 dereferenceable(8)) unnamed_addr #1

; Function Attrs: nounwind
declare void @_ZNSt6localeC1ERKS_(%"class.std::locale"* nonnull align 8 dereferenceable(8), %"class.std::locale"* nonnull align 8 dereferenceable(8)) unnamed_addr #1

; Function Attrs: sspstrong uwtable
define linkonce_odr dso_local void @_ZNSt8__detail9_CompilerINSt7__cxx1112regex_traitsIcEEEC2EPKcS6_RKSt6localeNSt15regex_constants18syntax_option_typeE(%"class.std::__detail::_Compiler"* nonnull align 8 dereferenceable(400) %0, i8* %1, i8* %2, %"class.std::locale"* nonnull align 8 dereferenceable(8) %3, i32 %4) unnamed_addr #7 comdat align 2 personality i8* bitcast (i32 (...)* @__gxx_personality_v0 to i8*) {
  %6 = alloca %"struct.std::__detail::_State", align 8
  %7 = alloca %"struct.std::__detail::_State", align 8
  %8 = alloca %"struct.std::__detail::_State", align 8
  %9 = alloca %"class.std::allocator.27", align 1
  %10 = alloca %"class.std::locale", align 8
  %11 = getelementptr inbounds %"class.std::__detail::_Compiler", %"class.std::__detail::_Compiler"* %0, i64 0, i32 0
  %12 = and i32 %4, 1008
  %13 = icmp eq i32 %12, 0
  %14 = or i32 %4, 16
  %15 = select i1 %13, i32 %14, i32 %4
  store i32 %15, i32* %11, align 8, !tbaa !52
  %16 = getelementptr inbounds %"class.std::__detail::_Compiler", %"class.std::__detail::_Compiler"* %0, i64 0, i32 1
  call void @_ZNSt6localeC1ERKS_(%"class.std::locale"* nonnull align 8 dereferenceable(8) %10, %"class.std::locale"* nonnull align 8 dereferenceable(8) %3) #25
  invoke void @_ZNSt8__detail8_ScannerIcEC2EPKcS3_NSt15regex_constants18syntax_option_typeESt6locale(%"class.std::__detail::_Scanner"* nonnull align 8 dereferenceable(248) %16, i8* %1, i8* %2, i32 %15, %"class.std::locale"* nonnull %10)
          to label %17 unwind label %79

17:                                               ; preds = %5
  call void @_ZNSt6localeD1Ev(%"class.std::locale"* nonnull align 8 dereferenceable(8) %10) #25
  %18 = getelementptr inbounds %"class.std::__detail::_Compiler", %"class.std::__detail::_Compiler"* %0, i64 0, i32 2
  call void @llvm.experimental.noalias.scope.decl(metadata !58)
  call void @llvm.experimental.noalias.scope.decl(metadata !61)
  %19 = getelementptr %"class.std::shared_ptr.20", %"class.std::shared_ptr.20"* %18, i64 0, i32 0, i32 0
  store %"struct.std::__detail::_NFA"* null, %"struct.std::__detail::_NFA"** %19, align 8, !tbaa !25, !alias.scope !64
  %20 = getelementptr inbounds %"class.std::allocator.27", %"class.std::allocator.27"* %9, i64 0, i32 0
  call void @llvm.lifetime.start.p0i8(i64 1, i8* nonnull %20), !noalias !64
  %21 = invoke noalias nonnull i8* @_Znwm(i64 104) #28
          to label %22 unwind label %81

22:                                               ; preds = %17
  %23 = bitcast i8* %21 to i32 (...)***
  %24 = getelementptr inbounds i8, i8* %21, i64 8
  %25 = bitcast i8* %24 to i32*
  store i32 1, i32* %25, align 8, !tbaa !65, !noalias !64
  %26 = getelementptr inbounds i8, i8* %21, i64 12
  %27 = bitcast i8* %26 to i32*
  store i32 1, i32* %27, align 4, !tbaa !67, !noalias !64
  store i32 (...)** bitcast (i8** getelementptr inbounds ({ [7 x i8*] }, { [7 x i8*] }* @_ZTVSt23_Sp_counted_ptr_inplaceINSt8__detail4_NFAINSt7__cxx1112regex_traitsIcEEEESaIS5_ELN9__gnu_cxx12_Lock_policyE2EE, i64 0, inrange i32 0, i64 2) to i32 (...)**), i32 (...)*** %23, align 8, !tbaa !43, !noalias !64
  %28 = getelementptr inbounds i8, i8* %21, i64 16
  %29 = bitcast i8* %28 to %"struct.std::__detail::_NFA"*
  invoke void @_ZNSt16allocator_traitsISaINSt8__detail4_NFAINSt7__cxx1112regex_traitsIcEEEEEE9constructIS5_JRKSt6localeRNSt15regex_constants18syntax_option_typeEEEEvRS6_PT_DpOT0_(%"class.std::allocator.27"* nonnull align 1 dereferenceable(1) %9, %"struct.std::__detail::_NFA"* nonnull %29, %"class.std::locale"* nonnull align 8 dereferenceable(8) %3, i32* nonnull align 4 dereferenceable(4) %11)
          to label %32 unwind label %30, !noalias !64

30:                                               ; preds = %22
  %31 = landingpad { i8*, i32 }
          cleanup
  call void @_ZdlPv(i8* nonnull %21) #25, !noalias !64
  br label %240

32:                                               ; preds = %22
  %33 = getelementptr inbounds %"class.std::__detail::_Compiler", %"class.std::__detail::_Compiler"* %0, i64 0, i32 2, i32 0, i32 1
  %34 = bitcast %"class.std::__shared_count"* %33 to i8**
  store i8* %21, i8** %34, align 8, !tbaa !31, !alias.scope !64
  %35 = bitcast %"class.std::shared_ptr.20"* %18 to i8**
  store i8* %28, i8** %35, align 8, !tbaa !37, !alias.scope !64
  call void @llvm.lifetime.end.p0i8(i64 1, i8* nonnull %20), !noalias !64
  %36 = getelementptr inbounds %"class.std::__detail::_Compiler", %"class.std::__detail::_Compiler"* %0, i64 0, i32 3
  %37 = getelementptr inbounds %"class.std::__detail::_Compiler", %"class.std::__detail::_Compiler"* %0, i64 0, i32 3, i32 2
  %38 = bitcast %"class.std::__cxx11::basic_string"* %36 to %union.anon**
  store %union.anon* %37, %union.anon** %38, align 8, !tbaa !5
  %39 = getelementptr inbounds %"class.std::__detail::_Compiler", %"class.std::__detail::_Compiler"* %0, i64 0, i32 3, i32 1
  store i64 0, i64* %39, align 8, !tbaa !10
  %40 = bitcast %union.anon* %37 to i8*
  store i8 0, i8* %40, align 8, !tbaa !13
  %41 = getelementptr inbounds %"class.std::__detail::_Compiler", %"class.std::__detail::_Compiler"* %0, i64 0, i32 4
  %42 = getelementptr inbounds %"class.std::stack", %"class.std::stack"* %41, i64 0, i32 0, i32 0
  %43 = bitcast %"class.std::stack"* %41 to i8*
  call void @llvm.memset.p0i8.i64(i8* noundef nonnull align 8 dereferenceable(80) %43, i8 0, i64 80, i1 false)
  invoke void @_ZNSt11_Deque_baseINSt8__detail9_StateSeqINSt7__cxx1112regex_traitsIcEEEESaIS5_EE17_M_initialize_mapEm(%"class.std::_Deque_base"* nonnull align 8 dereferenceable(80) %42, i64 0)
          to label %44 unwind label %83

44:                                               ; preds = %32
  %45 = getelementptr inbounds %"class.std::__detail::_Compiler", %"class.std::__detail::_Compiler"* %0, i64 0, i32 5
  %46 = load %"struct.std::__detail::_NFA"*, %"struct.std::__detail::_NFA"** %19, align 8, !tbaa !25
  %47 = getelementptr inbounds %"struct.std::__detail::_NFA", %"struct.std::__detail::_NFA"* %46, i64 0, i32 2
  store %"class.std::__cxx11::regex_traits"* %47, %"class.std::__cxx11::regex_traits"** %45, align 8, !tbaa !37
  %48 = invoke nonnull align 8 dereferenceable(570) %"class.std::ctype"* @_ZSt9use_facetISt5ctypeIcEERKT_RKSt6locale(%"class.std::locale"* nonnull align 8 dereferenceable(8) %3)
          to label %49 unwind label %85

49:                                               ; preds = %44
  %50 = getelementptr inbounds %"class.std::__detail::_Compiler", %"class.std::__detail::_Compiler"* %0, i64 0, i32 6
  store %"class.std::ctype"* %48, %"class.std::ctype"** %50, align 8, !tbaa !37
  %51 = load %"struct.std::__detail::_NFA"*, %"struct.std::__detail::_NFA"** %19, align 8, !tbaa !25
  %52 = getelementptr inbounds %"struct.std::__detail::_NFA", %"struct.std::__detail::_NFA"* %51, i64 0, i32 0, i32 3
  %53 = load i64, i64* %52, align 8, !tbaa !68
  %54 = invoke i64 @_ZNSt8__detail4_NFAINSt7__cxx1112regex_traitsIcEEE23_M_insert_subexpr_beginEv(%"struct.std::__detail::_NFA"* nonnull align 8 dereferenceable(88) %51)
          to label %55 unwind label %87

55:                                               ; preds = %49
  %56 = getelementptr inbounds %"struct.std::__detail::_NFA", %"struct.std::__detail::_NFA"* %51, i64 0, i32 1, i32 0, i32 0, i32 0, i32 0
  %57 = load %"struct.std::__detail::_State"*, %"struct.std::__detail::_State"** %56, align 8, !tbaa !71
  %58 = getelementptr inbounds %"struct.std::__detail::_State", %"struct.std::__detail::_State"* %57, i64 %53, i32 0, i32 1
  store i64 %54, i64* %58, align 8, !tbaa !73
  invoke void @_ZNSt8__detail9_CompilerINSt7__cxx1112regex_traitsIcEEE14_M_disjunctionEv(%"class.std::__detail::_Compiler"* nonnull align 8 dereferenceable(400) %0)
          to label %59 unwind label %87

59:                                               ; preds = %55
  %60 = getelementptr inbounds %"class.std::__detail::_Compiler", %"class.std::__detail::_Compiler"* %0, i64 0, i32 1, i32 0, i32 9
  %61 = load i32, i32* %60, align 8, !tbaa !76
  %62 = icmp eq i32 %61, 27
  br i1 %62, label %63, label %78

63:                                               ; preds = %59
  %64 = getelementptr inbounds %"class.std::__detail::_Compiler", %"class.std::__detail::_Compiler"* %0, i64 0, i32 1, i32 4
  invoke void @_ZNSt7__cxx1112basic_stringIcSt11char_traitsIcESaIcEE9_M_assignERKS4_(%"class.std::__cxx11::basic_string"* nonnull align 8 dereferenceable(32) %36, %"class.std::__cxx11::basic_string"* nonnull align 8 dereferenceable(32) %64)
          to label %65 unwind label %87

65:                                               ; preds = %63
  %66 = getelementptr inbounds %"class.std::__detail::_Compiler", %"class.std::__detail::_Compiler"* %0, i64 0, i32 1, i32 1
  %67 = load i8*, i8** %66, align 8, !tbaa !80
  %68 = getelementptr inbounds %"class.std::__detail::_Compiler", %"class.std::__detail::_Compiler"* %0, i64 0, i32 1, i32 2
  %69 = load i8*, i8** %68, align 8, !tbaa !81
  %70 = icmp eq i8* %67, %69
  br i1 %70, label %71, label %72

71:                                               ; preds = %65
  store i32 27, i32* %60, align 8, !tbaa !76
  br label %89

72:                                               ; preds = %65
  %73 = getelementptr inbounds %"class.std::__detail::_Compiler", %"class.std::__detail::_Compiler"* %0, i64 0, i32 1, i32 0, i32 7
  %74 = load i32, i32* %73, align 8, !tbaa !82
  switch i32 %74, label %89 [
    i32 0, label %75
    i32 2, label %76
    i32 1, label %77
  ]

75:                                               ; preds = %72
  invoke void @_ZNSt8__detail8_ScannerIcE14_M_scan_normalEv(%"class.std::__detail::_Scanner"* nonnull align 8 dereferenceable(248) %16)
          to label %89 unwind label %87

76:                                               ; preds = %72
  invoke void @_ZNSt8__detail8_ScannerIcE18_M_scan_in_bracketEv(%"class.std::__detail::_Scanner"* nonnull align 8 dereferenceable(248) %16)
          to label %89 unwind label %87

77:                                               ; preds = %72
  invoke void @_ZNSt8__detail8_ScannerIcE16_M_scan_in_braceEv(%"class.std::__detail::_Scanner"* nonnull align 8 dereferenceable(248) %16)
          to label %89 unwind label %87

78:                                               ; preds = %59
  invoke void @_ZSt19__throw_regex_errorNSt15regex_constants10error_typeE(i32 5)
          to label %89 unwind label %87

79:                                               ; preds = %5
  %80 = landingpad { i8*, i32 }
          cleanup
  call void @_ZNSt6localeD1Ev(%"class.std::locale"* nonnull align 8 dereferenceable(8) %10) #25
  br label %248

81:                                               ; preds = %17
  %82 = landingpad { i8*, i32 }
          cleanup
  br label %240

83:                                               ; preds = %32
  %84 = landingpad { i8*, i32 }
          cleanup
  br label %233

85:                                               ; preds = %44
  %86 = landingpad { i8*, i32 }
          cleanup
  br label %230

87:                                               ; preds = %77, %76, %75, %63, %78, %55, %49
  %88 = landingpad { i8*, i32 }
          cleanup
  br label %230

89:                                               ; preds = %77, %76, %75, %71, %72, %78
  %90 = getelementptr inbounds %"class.std::__detail::_Compiler", %"class.std::__detail::_Compiler"* %0, i64 0, i32 4, i32 0, i32 0, i32 0, i32 0, i32 3, i32 0
  %91 = load %"class.std::__detail::_StateSeq"*, %"class.std::__detail::_StateSeq"** %90, align 8, !tbaa !83, !noalias !84
  %92 = getelementptr inbounds %"class.std::__detail::_Compiler", %"class.std::__detail::_Compiler"* %0, i64 0, i32 4, i32 0, i32 0, i32 0, i32 0, i32 3, i32 1
  %93 = load %"class.std::__detail::_StateSeq"*, %"class.std::__detail::_StateSeq"** %92, align 8, !tbaa !89, !noalias !84
  %94 = icmp eq %"class.std::__detail::_StateSeq"* %91, %93
  br i1 %94, label %101, label %95

95:                                               ; preds = %89
  %96 = getelementptr inbounds %"class.std::__detail::_StateSeq", %"class.std::__detail::_StateSeq"* %91, i64 -1, i32 1
  %97 = load i64, i64* %96, align 8, !tbaa.struct !90
  %98 = getelementptr inbounds %"class.std::__detail::_StateSeq", %"class.std::__detail::_StateSeq"* %91, i64 -1, i32 2
  %99 = load i64, i64* %98, align 8, !tbaa.struct !92
  %100 = getelementptr inbounds %"class.std::__detail::_StateSeq", %"class.std::__detail::_StateSeq"* %91, i64 -1
  br label %118

101:                                              ; preds = %89
  %102 = getelementptr inbounds %"class.std::__detail::_Compiler", %"class.std::__detail::_Compiler"* %0, i64 0, i32 4, i32 0, i32 0, i32 0, i32 0, i32 3, i32 3
  %103 = load %"class.std::__detail::_StateSeq"**, %"class.std::__detail::_StateSeq"*** %102, align 8, !tbaa !93, !noalias !84
  %104 = getelementptr inbounds %"class.std::__detail::_StateSeq"*, %"class.std::__detail::_StateSeq"** %103, i64 -1
  %105 = load %"class.std::__detail::_StateSeq"*, %"class.std::__detail::_StateSeq"** %104, align 8, !tbaa !37, !noalias !94
  %106 = getelementptr inbounds %"class.std::__detail::_StateSeq", %"class.std::__detail::_StateSeq"* %105, i64 20, i32 1
  %107 = load i64, i64* %106, align 8, !tbaa.struct !90
  %108 = getelementptr inbounds %"class.std::__detail::_StateSeq", %"class.std::__detail::_StateSeq"* %105, i64 20, i32 2
  %109 = load i64, i64* %108, align 8, !tbaa.struct !92
  %110 = bitcast %"class.std::__detail::_StateSeq"* %91 to i8*
  call void @_ZdlPv(i8* %110) #25, !noalias !94
  %111 = getelementptr inbounds %"class.std::__detail::_Compiler", %"class.std::__detail::_Compiler"* %0, i64 0, i32 4, i32 0, i32 0, i32 0, i32 0, i32 3, i32 3
  %112 = load %"class.std::__detail::_StateSeq"**, %"class.std::__detail::_StateSeq"*** %111, align 8, !tbaa !36, !noalias !94
  %113 = getelementptr inbounds %"class.std::__detail::_StateSeq"*, %"class.std::__detail::_StateSeq"** %112, i64 -1
  store %"class.std::__detail::_StateSeq"** %113, %"class.std::__detail::_StateSeq"*** %111, align 8, !tbaa !93, !noalias !94
  %114 = load %"class.std::__detail::_StateSeq"*, %"class.std::__detail::_StateSeq"** %113, align 8, !tbaa !37, !noalias !94
  store %"class.std::__detail::_StateSeq"* %114, %"class.std::__detail::_StateSeq"** %92, align 8, !tbaa !89, !noalias !94
  %115 = getelementptr inbounds %"class.std::__detail::_StateSeq", %"class.std::__detail::_StateSeq"* %114, i64 21
  %116 = getelementptr inbounds %"class.std::__detail::_Compiler", %"class.std::__detail::_Compiler"* %0, i64 0, i32 4, i32 0, i32 0, i32 0, i32 0, i32 3, i32 2
  store %"class.std::__detail::_StateSeq"* %115, %"class.std::__detail::_StateSeq"** %116, align 8, !tbaa !95, !noalias !94
  %117 = getelementptr inbounds %"class.std::__detail::_StateSeq", %"class.std::__detail::_StateSeq"* %114, i64 20
  br label %118

118:                                              ; preds = %101, %95
  %119 = phi i64 [ %99, %95 ], [ %109, %101 ]
  %120 = phi i64 [ %97, %95 ], [ %107, %101 ]
  %121 = phi %"class.std::__detail::_StateSeq"* [ %100, %95 ], [ %117, %101 ]
  store %"class.std::__detail::_StateSeq"* %121, %"class.std::__detail::_StateSeq"** %90, align 8, !tbaa !96, !noalias !94
  %122 = load %"struct.std::__detail::_State"*, %"struct.std::__detail::_State"** %56, align 8, !tbaa !71
  %123 = getelementptr inbounds %"struct.std::__detail::_State", %"struct.std::__detail::_State"* %122, i64 %54, i32 0, i32 1
  store i64 %120, i64* %123, align 8, !tbaa !73
  %124 = load %"struct.std::__detail::_NFA"*, %"struct.std::__detail::_NFA"** %19, align 8, !tbaa !25
  %125 = bitcast %"struct.std::__detail::_State"* %8 to i8*
  call void @llvm.lifetime.start.p0i8(i64 48, i8* nonnull %125)
  %126 = bitcast %"struct.std::__detail::_State"* %7 to i8*
  call void @llvm.lifetime.start.p0i8(i64 48, i8* nonnull %126) #25
  %127 = getelementptr inbounds %"struct.std::__detail::_State", %"struct.std::__detail::_State"* %7, i64 0, i32 0, i32 0
  store i32 9, i32* %127, align 8, !tbaa !97
  %128 = getelementptr inbounds %"struct.std::__detail::_State", %"struct.std::__detail::_State"* %7, i64 0, i32 0, i32 1
  store i64 -1, i64* %128, align 8, !tbaa !73
  %129 = getelementptr inbounds %"struct.std::__detail::_NFA", %"struct.std::__detail::_NFA"* %124, i64 0, i32 0, i32 0, i32 0, i32 0, i32 0, i32 1
  %130 = load i64*, i64** %129, align 8, !tbaa !37
  %131 = getelementptr inbounds i64, i64* %130, i64 -1
  %132 = load i64, i64* %131, align 8, !tbaa !91
  %133 = getelementptr inbounds %"struct.std::__detail::_State", %"struct.std::__detail::_State"* %7, i64 0, i32 0, i32 2, i32 0, i32 0
  store i64 %132, i64* %133, align 8, !tbaa !13
  store i64* %131, i64** %129, align 8, !tbaa !98
  call void @llvm.memcpy.p0i8.p0i8.i64(i8* noundef nonnull align 8 dereferenceable(48) %125, i8* noundef nonnull align 8 dereferenceable(48) %126, i64 48, i1 false) #25, !tbaa.struct !100
  %134 = invoke i64 @_ZNSt8__detail4_NFAINSt7__cxx1112regex_traitsIcEEE15_M_insert_stateENS_6_StateIcEE(%"struct.std::__detail::_NFA"* nonnull align 8 dereferenceable(88) %124, %"struct.std::__detail::_State"* nonnull %8)
          to label %135 unwind label %151

135:                                              ; preds = %118
  %136 = getelementptr inbounds %"struct.std::__detail::_State", %"struct.std::__detail::_State"* %8, i64 0, i32 0, i32 0
  %137 = load i32, i32* %136, align 8, !tbaa !97
  %138 = icmp eq i32 %137, 11
  br i1 %138, label %139, label %153

139:                                              ; preds = %135
  %140 = getelementptr inbounds %"struct.std::__detail::_State", %"struct.std::__detail::_State"* %8, i64 0, i32 0, i32 2, i32 1
  %141 = bitcast [16 x i8]* %140 to i1 (%"union.std::_Any_data"*, %"union.std::_Any_data"*, i32)**
  %142 = load i1 (%"union.std::_Any_data"*, %"union.std::_Any_data"*, i32)*, i1 (%"union.std::_Any_data"*, %"union.std::_Any_data"*, i32)** %141, align 8, !tbaa !103
  %143 = icmp eq i1 (%"union.std::_Any_data"*, %"union.std::_Any_data"*, i32)* %142, null
  br i1 %143, label %153, label %144

144:                                              ; preds = %139
  %145 = getelementptr inbounds %"struct.std::__detail::_State", %"struct.std::__detail::_State"* %8, i64 0, i32 0, i32 2
  %146 = bitcast %union.anon.13* %145 to %"union.std::_Any_data"*
  %147 = invoke zeroext i1 %142(%"union.std::_Any_data"* nonnull align 8 dereferenceable(16) %146, %"union.std::_Any_data"* nonnull align 8 dereferenceable(16) %146, i32 3)
          to label %153 unwind label %148

148:                                              ; preds = %144
  %149 = landingpad { i8*, i32 }
          catch i8* null
  %150 = extractvalue { i8*, i32 } %149, 0
  call void @__clang_call_terminate(i8* %150) #27
  unreachable

151:                                              ; preds = %118
  %152 = landingpad { i8*, i32 }
          cleanup
  call void @_ZNSt8__detail6_StateIcED2Ev(%"struct.std::__detail::_State"* nonnull align 8 dereferenceable(48) %8) #25
  call void @_ZNSt8__detail6_StateIcED2Ev(%"struct.std::__detail::_State"* nonnull align 8 dereferenceable(48) %7) #25
  call void @llvm.lifetime.end.p0i8(i64 48, i8* nonnull %126) #25
  br label %230

153:                                              ; preds = %144, %139, %135
  call void @llvm.lifetime.end.p0i8(i64 48, i8* nonnull %126) #25
  call void @llvm.lifetime.end.p0i8(i64 48, i8* nonnull %125)
  %154 = load %"struct.std::__detail::_State"*, %"struct.std::__detail::_State"** %56, align 8, !tbaa !71
  %155 = getelementptr inbounds %"struct.std::__detail::_State", %"struct.std::__detail::_State"* %154, i64 %119, i32 0, i32 1
  store i64 %134, i64* %155, align 8, !tbaa !73
  %156 = load %"struct.std::__detail::_NFA"*, %"struct.std::__detail::_NFA"** %19, align 8, !tbaa !25
  %157 = bitcast %"struct.std::__detail::_State"* %6 to i8*
  call void @llvm.lifetime.start.p0i8(i64 48, i8* nonnull %157)
  %158 = getelementptr inbounds %"struct.std::__detail::_State", %"struct.std::__detail::_State"* %6, i64 0, i32 0, i32 0
  store i32 12, i32* %158, align 8, !tbaa !97
  %159 = getelementptr inbounds %"struct.std::__detail::_State", %"struct.std::__detail::_State"* %6, i64 0, i32 0, i32 1
  store i64 -1, i64* %159, align 8, !tbaa !73
  %160 = invoke i64 @_ZNSt8__detail4_NFAINSt7__cxx1112regex_traitsIcEEE15_M_insert_stateENS_6_StateIcEE(%"struct.std::__detail::_NFA"* nonnull align 8 dereferenceable(88) %156, %"struct.std::__detail::_State"* nonnull %6)
          to label %161 unwind label %176

161:                                              ; preds = %153
  %162 = load i32, i32* %158, align 8, !tbaa !97
  %163 = icmp eq i32 %162, 11
  br i1 %163, label %164, label %178

164:                                              ; preds = %161
  %165 = getelementptr inbounds %"struct.std::__detail::_State", %"struct.std::__detail::_State"* %6, i64 0, i32 0, i32 2, i32 1
  %166 = bitcast [16 x i8]* %165 to i1 (%"union.std::_Any_data"*, %"union.std::_Any_data"*, i32)**
  %167 = load i1 (%"union.std::_Any_data"*, %"union.std::_Any_data"*, i32)*, i1 (%"union.std::_Any_data"*, %"union.std::_Any_data"*, i32)** %166, align 8, !tbaa !103
  %168 = icmp eq i1 (%"union.std::_Any_data"*, %"union.std::_Any_data"*, i32)* %167, null
  br i1 %168, label %178, label %169

169:                                              ; preds = %164
  %170 = getelementptr inbounds %"struct.std::__detail::_State", %"struct.std::__detail::_State"* %6, i64 0, i32 0, i32 2
  %171 = bitcast %union.anon.13* %170 to %"union.std::_Any_data"*
  %172 = invoke zeroext i1 %167(%"union.std::_Any_data"* nonnull align 8 dereferenceable(16) %171, %"union.std::_Any_data"* nonnull align 8 dereferenceable(16) %171, i32 3)
          to label %178 unwind label %173

173:                                              ; preds = %169
  %174 = landingpad { i8*, i32 }
          catch i8* null
  %175 = extractvalue { i8*, i32 } %174, 0
  call void @__clang_call_terminate(i8* %175) #27
  unreachable

176:                                              ; preds = %153
  %177 = landingpad { i8*, i32 }
          cleanup
  call void @_ZNSt8__detail6_StateIcED2Ev(%"struct.std::__detail::_State"* nonnull align 8 dereferenceable(48) %6) #25
  br label %230

178:                                              ; preds = %169, %164, %161
  call void @llvm.lifetime.end.p0i8(i64 48, i8* nonnull %157)
  %179 = load %"struct.std::__detail::_State"*, %"struct.std::__detail::_State"** %56, align 8, !tbaa !71
  %180 = getelementptr inbounds %"struct.std::__detail::_State", %"struct.std::__detail::_State"* %179, i64 %134, i32 0, i32 1
  store i64 %160, i64* %180, align 8, !tbaa !73
  %181 = load %"struct.std::__detail::_NFA"*, %"struct.std::__detail::_NFA"** %19, align 8, !tbaa !25
  %182 = getelementptr inbounds %"struct.std::__detail::_NFA", %"struct.std::__detail::_NFA"* %181, i64 0, i32 1, i32 0, i32 0, i32 0, i32 0
  %183 = load %"struct.std::__detail::_State"*, %"struct.std::__detail::_State"** %182, align 8, !tbaa !37
  %184 = getelementptr inbounds %"struct.std::__detail::_NFA", %"struct.std::__detail::_NFA"* %181, i64 0, i32 1, i32 0, i32 0, i32 0, i32 1
  %185 = load %"struct.std::__detail::_State"*, %"struct.std::__detail::_State"** %184, align 8, !tbaa !37
  %186 = icmp eq %"struct.std::__detail::_State"* %183, %185
  br i1 %186, label %229, label %187

187:                                              ; preds = %178, %227
  %188 = phi %"struct.std::__detail::_State"* [ %228, %227 ], [ %183, %178 ]
  %189 = phi %"struct.std::__detail::_State"* [ %225, %227 ], [ %183, %178 ]
  %190 = getelementptr inbounds %"struct.std::__detail::_State", %"struct.std::__detail::_State"* %189, i64 0, i32 0, i32 1
  %191 = load i64, i64* %190, align 8, !tbaa !73
  %192 = icmp sgt i64 %191, -1
  br i1 %192, label %193, label %202

193:                                              ; preds = %187, %198
  %194 = phi i64 [ %200, %198 ], [ %191, %187 ]
  %195 = getelementptr inbounds %"struct.std::__detail::_State", %"struct.std::__detail::_State"* %188, i64 %194, i32 0, i32 0
  %196 = load i32, i32* %195, align 8, !tbaa !97
  %197 = icmp eq i32 %196, 10
  br i1 %197, label %198, label %202

198:                                              ; preds = %193
  %199 = getelementptr inbounds %"struct.std::__detail::_State", %"struct.std::__detail::_State"* %188, i64 %194, i32 0, i32 1
  %200 = load i64, i64* %199, align 8, !tbaa !73
  store i64 %200, i64* %190, align 8, !tbaa !73
  %201 = icmp sgt i64 %200, -1
  br i1 %201, label %193, label %202, !llvm.loop !105

202:                                              ; preds = %198, %193, %187
  %203 = getelementptr inbounds %"struct.std::__detail::_State", %"struct.std::__detail::_State"* %189, i64 0, i32 0, i32 0
  %204 = load i32, i32* %203, align 8, !tbaa !97
  switch i32 %204, label %224 [
    i32 1, label %205
    i32 2, label %205
    i32 7, label %205
  ]

205:                                              ; preds = %202, %202, %202
  %206 = getelementptr inbounds %"struct.std::__detail::_State", %"struct.std::__detail::_State"* %189, i64 0, i32 0, i32 2, i32 0, i32 0
  %207 = load i64, i64* %206, align 8, !tbaa !13
  %208 = icmp sgt i64 %207, -1
  br i1 %208, label %209, label %224

209:                                              ; preds = %205
  %210 = getelementptr inbounds %"struct.std::__detail::_State", %"struct.std::__detail::_State"* %188, i64 %207, i32 0, i32 0
  %211 = load i32, i32* %210, align 8, !tbaa !97
  %212 = icmp eq i32 %211, 10
  br i1 %212, label %213, label %224

213:                                              ; preds = %209, %219
  %214 = phi i64 [ %217, %219 ], [ %207, %209 ]
  %215 = phi %"struct.std::__detail::_State"* [ %220, %219 ], [ %188, %209 ]
  %216 = getelementptr inbounds %"struct.std::__detail::_State", %"struct.std::__detail::_State"* %215, i64 %214, i32 0, i32 1
  %217 = load i64, i64* %216, align 8, !tbaa !73
  store i64 %217, i64* %206, align 8, !tbaa !13
  %218 = icmp sgt i64 %217, -1
  br i1 %218, label %219, label %224, !llvm.loop !106

219:                                              ; preds = %213
  %220 = load %"struct.std::__detail::_State"*, %"struct.std::__detail::_State"** %182, align 8, !tbaa !71
  %221 = getelementptr inbounds %"struct.std::__detail::_State", %"struct.std::__detail::_State"* %220, i64 %217, i32 0, i32 0
  %222 = load i32, i32* %221, align 8, !tbaa !97
  %223 = icmp eq i32 %222, 10
  br i1 %223, label %213, label %224

224:                                              ; preds = %219, %213, %209, %205, %202
  %225 = getelementptr inbounds %"struct.std::__detail::_State", %"struct.std::__detail::_State"* %189, i64 1
  %226 = icmp eq %"struct.std::__detail::_State"* %225, %185
  br i1 %226, label %229, label %227

227:                                              ; preds = %224
  %228 = load %"struct.std::__detail::_State"*, %"struct.std::__detail::_State"** %182, align 8
  br label %187

229:                                              ; preds = %224, %178
  ret void

230:                                              ; preds = %87, %176, %151, %85
  %231 = phi { i8*, i32 } [ %86, %85 ], [ %152, %151 ], [ %88, %87 ], [ %177, %176 ]
  %232 = getelementptr inbounds %"class.std::stack", %"class.std::stack"* %41, i64 0, i32 0
  call void @_ZNSt5dequeINSt8__detail9_StateSeqINSt7__cxx1112regex_traitsIcEEEESaIS5_EED2Ev(%"class.std::deque"* nonnull align 8 dereferenceable(80) %232) #25
  br label %233

233:                                              ; preds = %230, %83
  %234 = phi { i8*, i32 } [ %231, %230 ], [ %84, %83 ]
  %235 = getelementptr inbounds %"class.std::__cxx11::basic_string", %"class.std::__cxx11::basic_string"* %36, i64 0, i32 0, i32 0
  %236 = load i8*, i8** %235, align 8, !tbaa !40
  %237 = icmp eq i8* %236, %40
  br i1 %237, label %239, label %238

238:                                              ; preds = %233
  call void @_ZdlPv(i8* %236) #25
  br label %239

239:                                              ; preds = %233, %238
  call void @_ZNSt14__shared_countILN9__gnu_cxx12_Lock_policyE2EED2Ev(%"class.std::__shared_count"* nonnull align 8 dereferenceable(8) %33) #25
  br label %240

240:                                              ; preds = %81, %30, %239
  %241 = phi { i8*, i32 } [ %234, %239 ], [ %82, %81 ], [ %31, %30 ]
  %242 = getelementptr inbounds %"class.std::__detail::_Compiler", %"class.std::__detail::_Compiler"* %0, i64 0, i32 1, i32 4, i32 0, i32 0
  %243 = load i8*, i8** %242, align 8, !tbaa !40
  %244 = getelementptr inbounds %"class.std::__detail::_Compiler", %"class.std::__detail::_Compiler"* %0, i64 0, i32 1, i32 4, i32 2
  %245 = bitcast %union.anon* %244 to i8*
  %246 = icmp eq i8* %243, %245
  br i1 %246, label %248, label %247

247:                                              ; preds = %240
  call void @_ZdlPv(i8* %243) #25
  br label %248

248:                                              ; preds = %247, %240, %79
  %249 = phi { i8*, i32 } [ %80, %79 ], [ %241, %240 ], [ %241, %247 ]
  resume { i8*, i32 } %249
}

; Function Attrs: sspstrong uwtable
define linkonce_odr dso_local void @_ZNSt8__detail8_ScannerIcEC2EPKcS3_NSt15regex_constants18syntax_option_typeESt6locale(%"class.std::__detail::_Scanner"* nonnull align 8 dereferenceable(248) %0, i8* %1, i8* %2, i32 %3, %"class.std::locale"* %4) unnamed_addr #7 comdat align 2 personality i8* bitcast (i32 (...)* @__gxx_personality_v0 to i8*) {
  %6 = bitcast %"class.std::__detail::_Scanner"* %0 to %"struct.std::__detail::_ScannerBase"*
  tail call void @_ZNSt8__detail12_ScannerBaseC2ENSt15regex_constants18syntax_option_typeE(%"struct.std::__detail::_ScannerBase"* nonnull align 8 dereferenceable(169) %6, i32 %3)
  %7 = getelementptr inbounds %"class.std::__detail::_Scanner", %"class.std::__detail::_Scanner"* %0, i64 0, i32 1
  store i8* %1, i8** %7, align 8, !tbaa !80
  %8 = getelementptr inbounds %"class.std::__detail::_Scanner", %"class.std::__detail::_Scanner"* %0, i64 0, i32 2
  store i8* %2, i8** %8, align 8, !tbaa !81
  %9 = getelementptr inbounds %"class.std::__detail::_Scanner", %"class.std::__detail::_Scanner"* %0, i64 0, i32 3
  %10 = tail call i64 @_ZNKSt6locale2id5_M_idEv(%"class.std::locale::id"* nonnull align 8 dereferenceable(8) @_ZNSt5ctypeIcE2idE) #25
  %11 = getelementptr inbounds %"class.std::locale", %"class.std::locale"* %4, i64 0, i32 0
  %12 = load %"class.std::locale::_Impl"*, %"class.std::locale::_Impl"** %11, align 8, !tbaa !107
  %13 = getelementptr inbounds %"class.std::locale::_Impl", %"class.std::locale::_Impl"* %12, i64 0, i32 2
  %14 = load i64, i64* %13, align 8, !tbaa !108
  %15 = icmp ult i64 %10, %14
  br i1 %15, label %16, label %22

16:                                               ; preds = %5
  %17 = getelementptr inbounds %"class.std::locale::_Impl", %"class.std::locale::_Impl"* %12, i64 0, i32 1
  %18 = load %"class.std::locale::facet"**, %"class.std::locale::facet"*** %17, align 8, !tbaa !110
  %19 = getelementptr inbounds %"class.std::locale::facet"*, %"class.std::locale::facet"** %18, i64 %10
  %20 = load %"class.std::locale::facet"*, %"class.std::locale::facet"** %19, align 8, !tbaa !37
  %21 = icmp eq %"class.std::locale::facet"* %20, null
  br i1 %21, label %22, label %23

22:                                               ; preds = %16, %5
  tail call void @_ZSt16__throw_bad_castv() #26
  unreachable

23:                                               ; preds = %16
  %24 = bitcast %"class.std::locale::facet"* %20 to i8*
  %25 = tail call i8* @__dynamic_cast(i8* nonnull %24, i8* bitcast (i8** @_ZTINSt6locale5facetE to i8*), i8* bitcast (i8** @_ZTISt5ctypeIcE to i8*), i64 0) #25
  %26 = icmp eq i8* %25, null
  br i1 %26, label %27, label %28

27:                                               ; preds = %23
  tail call void @__cxa_bad_cast() #26
  unreachable

28:                                               ; preds = %23
  %29 = bitcast %"class.std::ctype"** %9 to i8**
  store i8* %25, i8** %29, align 8, !tbaa !37
  %30 = getelementptr inbounds %"class.std::__detail::_Scanner", %"class.std::__detail::_Scanner"* %0, i64 0, i32 4
  %31 = getelementptr inbounds %"class.std::__detail::_Scanner", %"class.std::__detail::_Scanner"* %0, i64 0, i32 4, i32 2
  %32 = bitcast %"class.std::__cxx11::basic_string"* %30 to %union.anon**
  store %union.anon* %31, %union.anon** %32, align 8, !tbaa !5
  %33 = getelementptr inbounds %"class.std::__detail::_Scanner", %"class.std::__detail::_Scanner"* %0, i64 0, i32 4, i32 1
  store i64 0, i64* %33, align 8, !tbaa !10
  %34 = bitcast %union.anon* %31 to i8*
  store i8 0, i8* %34, align 8, !tbaa !13
  %35 = getelementptr inbounds %"class.std::__detail::_Scanner", %"class.std::__detail::_Scanner"* %0, i64 0, i32 0, i32 8
  %36 = load i32, i32* %35, align 4, !tbaa !111
  %37 = and i32 %36, 16
  %38 = icmp eq i32 %37, 0
  %39 = select i1 %38, { i64, i64 } { i64 ptrtoint (void (%"class.std::__detail::_Scanner"*)* @_ZNSt8__detail8_ScannerIcE19_M_eat_escape_posixEv to i64), i64 0 }, { i64, i64 } { i64 ptrtoint (void (%"class.std::__detail::_Scanner"*)* @_ZNSt8__detail8_ScannerIcE18_M_eat_escape_ecmaEv to i64), i64 0 }
  %40 = getelementptr inbounds %"class.std::__detail::_Scanner", %"class.std::__detail::_Scanner"* %0, i64 0, i32 5, i32 0
  %41 = extractvalue { i64, i64 } %39, 0
  store i64 %41, i64* %40, align 8, !tbaa !112
  %42 = getelementptr inbounds %"class.std::__detail::_Scanner", %"class.std::__detail::_Scanner"* %0, i64 0, i32 5, i32 1
  %43 = extractvalue { i64, i64 } %39, 1
  store i64 %43, i64* %42, align 8, !tbaa !112
  %44 = load i8*, i8** %7, align 8, !tbaa !80
  %45 = load i8*, i8** %8, align 8, !tbaa !81
  %46 = icmp eq i8* %44, %45
  br i1 %46, label %47, label %49

47:                                               ; preds = %28
  %48 = getelementptr inbounds %"class.std::__detail::_Scanner", %"class.std::__detail::_Scanner"* %0, i64 0, i32 0, i32 9
  store i32 27, i32* %48, align 8, !tbaa !76
  br label %55

49:                                               ; preds = %28
  %50 = getelementptr inbounds %"class.std::__detail::_Scanner", %"class.std::__detail::_Scanner"* %0, i64 0, i32 0, i32 7
  %51 = load i32, i32* %50, align 8, !tbaa !82
  switch i32 %51, label %55 [
    i32 0, label %52
    i32 2, label %53
    i32 1, label %54
  ]

52:                                               ; preds = %49
  invoke void @_ZNSt8__detail8_ScannerIcE14_M_scan_normalEv(%"class.std::__detail::_Scanner"* nonnull align 8 dereferenceable(248) %0)
          to label %55 unwind label %56

53:                                               ; preds = %49
  invoke void @_ZNSt8__detail8_ScannerIcE18_M_scan_in_bracketEv(%"class.std::__detail::_Scanner"* nonnull align 8 dereferenceable(248) %0)
          to label %55 unwind label %56

54:                                               ; preds = %49
  invoke void @_ZNSt8__detail8_ScannerIcE16_M_scan_in_braceEv(%"class.std::__detail::_Scanner"* nonnull align 8 dereferenceable(248) %0)
          to label %55 unwind label %56

55:                                               ; preds = %49, %47, %52, %53, %54
  ret void

56:                                               ; preds = %54, %53, %52
  %57 = landingpad { i8*, i32 }
          cleanup
  %58 = getelementptr inbounds %"class.std::__cxx11::basic_string", %"class.std::__cxx11::basic_string"* %30, i64 0, i32 0, i32 0
  %59 = load i8*, i8** %58, align 8, !tbaa !40
  %60 = icmp eq i8* %59, %34
  br i1 %60, label %62, label %61

61:                                               ; preds = %56
  tail call void @_ZdlPv(i8* %59) #25
  br label %62

62:                                               ; preds = %56, %61
  resume { i8*, i32 } %57
}

declare nonnull align 8 dereferenceable(570) %"class.std::ctype"* @_ZSt9use_facetISt5ctypeIcEERKT_RKSt6locale(%"class.std::locale"* nonnull align 8 dereferenceable(8)) local_unnamed_addr #0

; Function Attrs: sspstrong uwtable
define linkonce_odr dso_local i64 @_ZNSt8__detail4_NFAINSt7__cxx1112regex_traitsIcEEE23_M_insert_subexpr_beginEv(%"struct.std::__detail::_NFA"* nonnull align 8 dereferenceable(88) %0) local_unnamed_addr #7 comdat align 2 personality i8* bitcast (i32 (...)* @__gxx_personality_v0 to i8*) {
  %2 = alloca %"struct.std::__detail::_State", align 8
  %3 = alloca %"struct.std::__detail::_State", align 8
  %4 = getelementptr inbounds %"struct.std::__detail::_NFA", %"struct.std::__detail::_NFA"* %0, i64 0, i32 0, i32 4
  %5 = load i64, i64* %4, align 8, !tbaa !113
  %6 = add i64 %5, 1
  store i64 %6, i64* %4, align 8, !tbaa !113
  %7 = getelementptr inbounds %"struct.std::__detail::_NFA", %"struct.std::__detail::_NFA"* %0, i64 0, i32 0, i32 0, i32 0, i32 0, i32 0, i32 1
  %8 = load i64*, i64** %7, align 8, !tbaa !98
  %9 = getelementptr inbounds %"struct.std::__detail::_NFA", %"struct.std::__detail::_NFA"* %0, i64 0, i32 0, i32 0, i32 0, i32 0, i32 0, i32 2
  %10 = load i64*, i64** %9, align 8, !tbaa !114
  %11 = icmp eq i64* %8, %10
  br i1 %11, label %14, label %12

12:                                               ; preds = %1
  store i64 %5, i64* %8, align 8, !tbaa !91
  %13 = getelementptr inbounds i64, i64* %8, i64 1
  store i64* %13, i64** %7, align 8, !tbaa !98
  br label %50

14:                                               ; preds = %1
  %15 = getelementptr inbounds %"struct.std::__detail::_NFA", %"struct.std::__detail::_NFA"* %0, i64 0, i32 0, i32 0, i32 0, i32 0, i32 0, i32 0
  %16 = load i64*, i64** %15, align 8, !tbaa !115
  %17 = ptrtoint i64* %8 to i64
  %18 = ptrtoint i64* %16 to i64
  %19 = sub i64 %17, %18
  %20 = ashr exact i64 %19, 3
  %21 = icmp eq i64 %19, 9223372036854775800
  br i1 %21, label %22, label %23

22:                                               ; preds = %14
  tail call void @_ZSt20__throw_length_errorPKc(i8* getelementptr inbounds ([26 x i8], [26 x i8]* @.str.21, i64 0, i64 0)) #26
  unreachable

23:                                               ; preds = %14
  %24 = icmp eq i64 %19, 0
  %25 = select i1 %24, i64 1, i64 %20
  %26 = add nsw i64 %25, %20
  %27 = icmp ult i64 %26, %20
  %28 = icmp ugt i64 %26, 1152921504606846975
  %29 = or i1 %27, %28
  %30 = select i1 %29, i64 1152921504606846975, i64 %26
  %31 = icmp eq i64 %30, 0
  br i1 %31, label %36, label %32

32:                                               ; preds = %23
  %33 = shl nuw nsw i64 %30, 3
  %34 = tail call noalias nonnull i8* @_Znwm(i64 %33) #28
  %35 = bitcast i8* %34 to i64*
  br label %36

36:                                               ; preds = %32, %23
  %37 = phi i64* [ %35, %32 ], [ null, %23 ]
  %38 = getelementptr inbounds i64, i64* %37, i64 %20
  store i64 %5, i64* %38, align 8, !tbaa !91
  %39 = icmp sgt i64 %19, 0
  br i1 %39, label %40, label %43

40:                                               ; preds = %36
  %41 = bitcast i64* %37 to i8*
  %42 = bitcast i64* %16 to i8*
  tail call void @llvm.memmove.p0i8.p0i8.i64(i8* align 8 %41, i8* align 8 %42, i64 %19, i1 false) #25
  br label %43

43:                                               ; preds = %36, %40
  %44 = getelementptr inbounds i64, i64* %38, i64 1
  %45 = icmp eq i64* %16, null
  br i1 %45, label %48, label %46

46:                                               ; preds = %43
  %47 = bitcast i64* %16 to i8*
  tail call void @_ZdlPv(i8* nonnull %47) #25
  br label %48

48:                                               ; preds = %43, %46
  store i64* %37, i64** %15, align 8, !tbaa !115
  store i64* %44, i64** %7, align 8, !tbaa !98
  %49 = getelementptr inbounds i64, i64* %37, i64 %30
  store i64* %49, i64** %9, align 8, !tbaa !114
  br label %50

50:                                               ; preds = %48, %12
  %51 = bitcast %"struct.std::__detail::_State"* %2 to i8*
  call void @llvm.lifetime.start.p0i8(i64 48, i8* nonnull %51) #25
  %52 = getelementptr inbounds %"struct.std::__detail::_State", %"struct.std::__detail::_State"* %2, i64 0, i32 0, i32 0
  store i32 8, i32* %52, align 8, !tbaa !97
  %53 = getelementptr inbounds %"struct.std::__detail::_State", %"struct.std::__detail::_State"* %2, i64 0, i32 0, i32 1
  store i64 -1, i64* %53, align 8, !tbaa !73
  %54 = getelementptr inbounds %"struct.std::__detail::_State", %"struct.std::__detail::_State"* %2, i64 0, i32 0, i32 2, i32 0, i32 0
  store i64 %5, i64* %54, align 8, !tbaa !13
  %55 = bitcast %"struct.std::__detail::_State"* %3 to i8*
  call void @llvm.memcpy.p0i8.p0i8.i64(i8* noundef nonnull align 8 dereferenceable(48) %55, i8* noundef nonnull align 8 dereferenceable(48) %51, i64 48, i1 false) #25, !tbaa.struct !100
  %56 = invoke i64 @_ZNSt8__detail4_NFAINSt7__cxx1112regex_traitsIcEEE15_M_insert_stateENS_6_StateIcEE(%"struct.std::__detail::_NFA"* nonnull align 8 dereferenceable(88) %0, %"struct.std::__detail::_State"* nonnull %3)
          to label %57 unwind label %74

57:                                               ; preds = %50
  %58 = getelementptr inbounds %"struct.std::__detail::_State", %"struct.std::__detail::_State"* %3, i64 0, i32 0, i32 0
  %59 = load i32, i32* %58, align 8, !tbaa !97
  %60 = icmp eq i32 %59, 11
  br i1 %60, label %61, label %73

61:                                               ; preds = %57
  %62 = getelementptr inbounds %"struct.std::__detail::_State", %"struct.std::__detail::_State"* %3, i64 0, i32 0, i32 2, i32 1
  %63 = bitcast [16 x i8]* %62 to i1 (%"union.std::_Any_data"*, %"union.std::_Any_data"*, i32)**
  %64 = load i1 (%"union.std::_Any_data"*, %"union.std::_Any_data"*, i32)*, i1 (%"union.std::_Any_data"*, %"union.std::_Any_data"*, i32)** %63, align 8, !tbaa !103
  %65 = icmp eq i1 (%"union.std::_Any_data"*, %"union.std::_Any_data"*, i32)* %64, null
  br i1 %65, label %73, label %66

66:                                               ; preds = %61
  %67 = getelementptr inbounds %"struct.std::__detail::_State", %"struct.std::__detail::_State"* %3, i64 0, i32 0, i32 2
  %68 = bitcast %union.anon.13* %67 to %"union.std::_Any_data"*
  %69 = invoke zeroext i1 %64(%"union.std::_Any_data"* nonnull align 8 dereferenceable(16) %68, %"union.std::_Any_data"* nonnull align 8 dereferenceable(16) %68, i32 3)
          to label %73 unwind label %70

70:                                               ; preds = %66
  %71 = landingpad { i8*, i32 }
          catch i8* null
  %72 = extractvalue { i8*, i32 } %71, 0
  call void @__clang_call_terminate(i8* %72) #27
  unreachable

73:                                               ; preds = %66, %61, %57
  call void @llvm.lifetime.end.p0i8(i64 48, i8* nonnull %51) #25
  ret i64 %56

74:                                               ; preds = %50
  %75 = landingpad { i8*, i32 }
          cleanup
  call void @_ZNSt8__detail6_StateIcED2Ev(%"struct.std::__detail::_State"* nonnull align 8 dereferenceable(48) %3) #25
  call void @_ZNSt8__detail6_StateIcED2Ev(%"struct.std::__detail::_State"* nonnull align 8 dereferenceable(48) %2) #25
  call void @llvm.lifetime.end.p0i8(i64 48, i8* nonnull %51) #25
  resume { i8*, i32 } %75
}

; Function Attrs: sspstrong uwtable
define linkonce_odr dso_local void @_ZNSt8__detail9_CompilerINSt7__cxx1112regex_traitsIcEEE14_M_disjunctionEv(%"class.std::__detail::_Compiler"* nonnull align 8 dereferenceable(400) %0) local_unnamed_addr #7 comdat align 2 personality i32 (...)* @__gxx_personality_v0 {
  %2 = alloca %"struct.std::__detail::_State", align 8
  %3 = alloca %"struct.std::__detail::_State", align 8
  %4 = alloca %"struct.std::__detail::_State", align 8
  %5 = alloca %"class.std::__detail::_StateSeq", align 8
  tail call void @_ZNSt8__detail9_CompilerINSt7__cxx1112regex_traitsIcEEE14_M_alternativeEv(%"class.std::__detail::_Compiler"* nonnull align 8 dereferenceable(400) %0)
  %6 = getelementptr inbounds %"class.std::__detail::_Compiler", %"class.std::__detail::_Compiler"* %0, i64 0, i32 1
  %7 = getelementptr inbounds %"class.std::__detail::_Compiler", %"class.std::__detail::_Compiler"* %0, i64 0, i32 1, i32 0, i32 9
  %8 = getelementptr inbounds %"class.std::__detail::_Compiler", %"class.std::__detail::_Compiler"* %0, i64 0, i32 1, i32 4
  %9 = getelementptr inbounds %"class.std::__detail::_Compiler", %"class.std::__detail::_Compiler"* %0, i64 0, i32 3
  %10 = getelementptr inbounds %"class.std::__detail::_Compiler", %"class.std::__detail::_Compiler"* %0, i64 0, i32 1, i32 1
  %11 = getelementptr inbounds %"class.std::__detail::_Compiler", %"class.std::__detail::_Compiler"* %0, i64 0, i32 1, i32 2
  %12 = getelementptr inbounds %"class.std::__detail::_Compiler", %"class.std::__detail::_Compiler"* %0, i64 0, i32 1, i32 0, i32 7
  %13 = getelementptr inbounds %"class.std::__detail::_Compiler", %"class.std::__detail::_Compiler"* %0, i64 0, i32 4, i32 0, i32 0, i32 0, i32 0, i32 3, i32 0
  %14 = getelementptr inbounds %"class.std::__detail::_Compiler", %"class.std::__detail::_Compiler"* %0, i64 0, i32 4, i32 0, i32 0, i32 0, i32 0, i32 3, i32 1
  %15 = getelementptr inbounds %"class.std::__detail::_Compiler", %"class.std::__detail::_Compiler"* %0, i64 0, i32 4, i32 0, i32 0, i32 0, i32 0, i32 3, i32 3
  %16 = getelementptr inbounds %"class.std::__detail::_Compiler", %"class.std::__detail::_Compiler"* %0, i64 0, i32 4, i32 0, i32 0, i32 0, i32 0, i32 3, i32 2
  %17 = getelementptr inbounds %"class.std::__detail::_Compiler", %"class.std::__detail::_Compiler"* %0, i64 0, i32 2, i32 0, i32 0
  %18 = bitcast %"struct.std::__detail::_State"* %4 to i8*
  %19 = getelementptr inbounds %"struct.std::__detail::_State", %"struct.std::__detail::_State"* %4, i64 0, i32 0, i32 0
  %20 = getelementptr inbounds %"struct.std::__detail::_State", %"struct.std::__detail::_State"* %4, i64 0, i32 0, i32 1
  %21 = getelementptr inbounds %"struct.std::__detail::_State", %"struct.std::__detail::_State"* %4, i64 0, i32 0, i32 2, i32 1
  %22 = bitcast [16 x i8]* %21 to i1 (%"union.std::_Any_data"*, %"union.std::_Any_data"*, i32)**
  %23 = getelementptr inbounds %"struct.std::__detail::_State", %"struct.std::__detail::_State"* %4, i64 0, i32 0, i32 2
  %24 = bitcast %union.anon.13* %23 to %"union.std::_Any_data"*
  %25 = bitcast %"class.std::__detail::_StateSeq"* %5 to i8*
  %26 = bitcast %"struct.std::__detail::_State"* %3 to i8*
  %27 = bitcast %"struct.std::__detail::_State"* %2 to i8*
  %28 = getelementptr inbounds %"struct.std::__detail::_State", %"struct.std::__detail::_State"* %2, i64 0, i32 0, i32 0
  %29 = getelementptr inbounds %"struct.std::__detail::_State", %"struct.std::__detail::_State"* %2, i64 0, i32 0, i32 1
  %30 = getelementptr inbounds %"struct.std::__detail::_State", %"struct.std::__detail::_State"* %2, i64 0, i32 0, i32 2, i32 0, i32 0
  %31 = getelementptr inbounds %"struct.std::__detail::_State", %"struct.std::__detail::_State"* %3, i64 0, i32 0, i32 0
  %32 = getelementptr inbounds %"struct.std::__detail::_State", %"struct.std::__detail::_State"* %3, i64 0, i32 0, i32 2, i32 1
  %33 = bitcast [16 x i8]* %32 to i1 (%"union.std::_Any_data"*, %"union.std::_Any_data"*, i32)**
  %34 = getelementptr inbounds %"struct.std::__detail::_State", %"struct.std::__detail::_State"* %3, i64 0, i32 0, i32 2
  %35 = bitcast %union.anon.13* %34 to %"union.std::_Any_data"*
  %36 = getelementptr inbounds %"class.std::__detail::_StateSeq", %"class.std::__detail::_StateSeq"* %5, i64 0, i32 0
  %37 = getelementptr inbounds %"class.std::__detail::_StateSeq", %"class.std::__detail::_StateSeq"* %5, i64 0, i32 1
  %38 = getelementptr inbounds %"class.std::__detail::_StateSeq", %"class.std::__detail::_StateSeq"* %5, i64 0, i32 2
  %39 = getelementptr inbounds %"class.std::__detail::_Compiler", %"class.std::__detail::_Compiler"* %0, i64 0, i32 4, i32 0
  %40 = load i32, i32* %7, align 8, !tbaa !76
  %41 = icmp eq i32 %40, 19
  br i1 %41, label %42, label %173

42:                                               ; preds = %1, %170
  call void @_ZNSt7__cxx1112basic_stringIcSt11char_traitsIcESaIcEE9_M_assignERKS4_(%"class.std::__cxx11::basic_string"* nonnull align 8 dereferenceable(32) %9, %"class.std::__cxx11::basic_string"* nonnull align 8 dereferenceable(32) %8)
  %43 = load i8*, i8** %10, align 8, !tbaa !80
  %44 = load i8*, i8** %11, align 8, !tbaa !81
  %45 = icmp eq i8* %43, %44
  br i1 %45, label %46, label %47

46:                                               ; preds = %42
  store i32 27, i32* %7, align 8, !tbaa !76
  br label %52

47:                                               ; preds = %42
  %48 = load i32, i32* %12, align 8, !tbaa !82
  switch i32 %48, label %52 [
    i32 0, label %49
    i32 2, label %50
    i32 1, label %51
  ]

49:                                               ; preds = %47
  call void @_ZNSt8__detail8_ScannerIcE14_M_scan_normalEv(%"class.std::__detail::_Scanner"* nonnull align 8 dereferenceable(248) %6)
  br label %52

50:                                               ; preds = %47
  call void @_ZNSt8__detail8_ScannerIcE18_M_scan_in_bracketEv(%"class.std::__detail::_Scanner"* nonnull align 8 dereferenceable(248) %6)
  br label %52

51:                                               ; preds = %47
  call void @_ZNSt8__detail8_ScannerIcE16_M_scan_in_braceEv(%"class.std::__detail::_Scanner"* nonnull align 8 dereferenceable(248) %6)
  br label %52

52:                                               ; preds = %46, %47, %49, %50, %51
  %53 = load %"class.std::__detail::_StateSeq"*, %"class.std::__detail::_StateSeq"** %13, align 8, !tbaa !83, !noalias !116
  %54 = load %"class.std::__detail::_StateSeq"*, %"class.std::__detail::_StateSeq"** %14, align 8, !tbaa !89, !noalias !116
  %55 = icmp eq %"class.std::__detail::_StateSeq"* %53, %54
  br i1 %55, label %64, label %56

56:                                               ; preds = %52
  %57 = getelementptr inbounds %"class.std::__detail::_StateSeq", %"class.std::__detail::_StateSeq"* %53, i64 -1
  %58 = bitcast %"class.std::__detail::_StateSeq"* %57 to i8**
  %59 = load i8*, i8** %58, align 8, !tbaa.struct !121
  %60 = getelementptr inbounds %"class.std::__detail::_StateSeq", %"class.std::__detail::_StateSeq"* %53, i64 -1, i32 1
  %61 = load i64, i64* %60, align 8, !tbaa.struct !90
  %62 = getelementptr inbounds %"class.std::__detail::_StateSeq", %"class.std::__detail::_StateSeq"* %53, i64 -1, i32 2
  %63 = load i64, i64* %62, align 8, !tbaa.struct !92
  br label %81

64:                                               ; preds = %52
  %65 = load %"class.std::__detail::_StateSeq"**, %"class.std::__detail::_StateSeq"*** %15, align 8, !tbaa !93, !noalias !116
  %66 = getelementptr inbounds %"class.std::__detail::_StateSeq"*, %"class.std::__detail::_StateSeq"** %65, i64 -1
  %67 = load %"class.std::__detail::_StateSeq"*, %"class.std::__detail::_StateSeq"** %66, align 8, !tbaa !37, !noalias !122
  %68 = getelementptr inbounds %"class.std::__detail::_StateSeq", %"class.std::__detail::_StateSeq"* %67, i64 20
  %69 = bitcast %"class.std::__detail::_StateSeq"* %68 to i8**
  %70 = load i8*, i8** %69, align 8, !tbaa.struct !121
  %71 = getelementptr inbounds %"class.std::__detail::_StateSeq", %"class.std::__detail::_StateSeq"* %67, i64 20, i32 1
  %72 = load i64, i64* %71, align 8, !tbaa.struct !90
  %73 = getelementptr inbounds %"class.std::__detail::_StateSeq", %"class.std::__detail::_StateSeq"* %67, i64 20, i32 2
  %74 = load i64, i64* %73, align 8, !tbaa.struct !92
  %75 = bitcast %"class.std::__detail::_StateSeq"* %53 to i8*
  call void @_ZdlPv(i8* %75) #25, !noalias !122
  %76 = load %"class.std::__detail::_StateSeq"**, %"class.std::__detail::_StateSeq"*** %15, align 8, !tbaa !36, !noalias !122
  %77 = getelementptr inbounds %"class.std::__detail::_StateSeq"*, %"class.std::__detail::_StateSeq"** %76, i64 -1
  store %"class.std::__detail::_StateSeq"** %77, %"class.std::__detail::_StateSeq"*** %15, align 8, !tbaa !93, !noalias !122
  %78 = load %"class.std::__detail::_StateSeq"*, %"class.std::__detail::_StateSeq"** %77, align 8, !tbaa !37, !noalias !122
  store %"class.std::__detail::_StateSeq"* %78, %"class.std::__detail::_StateSeq"** %14, align 8, !tbaa !89, !noalias !122
  %79 = getelementptr inbounds %"class.std::__detail::_StateSeq", %"class.std::__detail::_StateSeq"* %78, i64 21
  store %"class.std::__detail::_StateSeq"* %79, %"class.std::__detail::_StateSeq"** %16, align 8, !tbaa !95, !noalias !122
  %80 = getelementptr inbounds %"class.std::__detail::_StateSeq", %"class.std::__detail::_StateSeq"* %78, i64 20
  br label %81

81:                                               ; preds = %56, %64
  %82 = phi i64 [ %63, %56 ], [ %74, %64 ]
  %83 = phi i64 [ %61, %56 ], [ %72, %64 ]
  %84 = phi i8* [ %59, %56 ], [ %70, %64 ]
  %85 = phi %"class.std::__detail::_StateSeq"* [ %57, %56 ], [ %80, %64 ]
  store %"class.std::__detail::_StateSeq"* %85, %"class.std::__detail::_StateSeq"** %13, align 8, !tbaa !96, !noalias !122
  call void @_ZNSt8__detail9_CompilerINSt7__cxx1112regex_traitsIcEEE14_M_alternativeEv(%"class.std::__detail::_Compiler"* nonnull align 8 dereferenceable(400) %0)
  %86 = load %"class.std::__detail::_StateSeq"*, %"class.std::__detail::_StateSeq"** %13, align 8, !tbaa !83, !noalias !123
  %87 = load %"class.std::__detail::_StateSeq"*, %"class.std::__detail::_StateSeq"** %14, align 8, !tbaa !89, !noalias !123
  %88 = icmp eq %"class.std::__detail::_StateSeq"* %86, %87
  br i1 %88, label %97, label %89

89:                                               ; preds = %81
  %90 = getelementptr inbounds %"class.std::__detail::_StateSeq", %"class.std::__detail::_StateSeq"* %86, i64 -1
  %91 = bitcast %"class.std::__detail::_StateSeq"* %90 to i8**
  %92 = load i8*, i8** %91, align 8, !tbaa.struct !121
  %93 = getelementptr inbounds %"class.std::__detail::_StateSeq", %"class.std::__detail::_StateSeq"* %86, i64 -1, i32 1
  %94 = load i64, i64* %93, align 8, !tbaa.struct !90
  %95 = getelementptr inbounds %"class.std::__detail::_StateSeq", %"class.std::__detail::_StateSeq"* %86, i64 -1, i32 2
  %96 = load i64, i64* %95, align 8, !tbaa.struct !92
  br label %114

97:                                               ; preds = %81
  %98 = load %"class.std::__detail::_StateSeq"**, %"class.std::__detail::_StateSeq"*** %15, align 8, !tbaa !93, !noalias !123
  %99 = getelementptr inbounds %"class.std::__detail::_StateSeq"*, %"class.std::__detail::_StateSeq"** %98, i64 -1
  %100 = load %"class.std::__detail::_StateSeq"*, %"class.std::__detail::_StateSeq"** %99, align 8, !tbaa !37, !noalias !128
  %101 = getelementptr inbounds %"class.std::__detail::_StateSeq", %"class.std::__detail::_StateSeq"* %100, i64 20
  %102 = bitcast %"class.std::__detail::_StateSeq"* %101 to i8**
  %103 = load i8*, i8** %102, align 8, !tbaa.struct !121
  %104 = getelementptr inbounds %"class.std::__detail::_StateSeq", %"class.std::__detail::_StateSeq"* %100, i64 20, i32 1
  %105 = load i64, i64* %104, align 8, !tbaa.struct !90
  %106 = getelementptr inbounds %"class.std::__detail::_StateSeq", %"class.std::__detail::_StateSeq"* %100, i64 20, i32 2
  %107 = load i64, i64* %106, align 8, !tbaa.struct !92
  %108 = bitcast %"class.std::__detail::_StateSeq"* %86 to i8*
  call void @_ZdlPv(i8* %108) #25, !noalias !128
  %109 = load %"class.std::__detail::_StateSeq"**, %"class.std::__detail::_StateSeq"*** %15, align 8, !tbaa !36, !noalias !128
  %110 = getelementptr inbounds %"class.std::__detail::_StateSeq"*, %"class.std::__detail::_StateSeq"** %109, i64 -1
  store %"class.std::__detail::_StateSeq"** %110, %"class.std::__detail::_StateSeq"*** %15, align 8, !tbaa !93, !noalias !128
  %111 = load %"class.std::__detail::_StateSeq"*, %"class.std::__detail::_StateSeq"** %110, align 8, !tbaa !37, !noalias !128
  store %"class.std::__detail::_StateSeq"* %111, %"class.std::__detail::_StateSeq"** %14, align 8, !tbaa !89, !noalias !128
  %112 = getelementptr inbounds %"class.std::__detail::_StateSeq", %"class.std::__detail::_StateSeq"* %111, i64 21
  store %"class.std::__detail::_StateSeq"* %112, %"class.std::__detail::_StateSeq"** %16, align 8, !tbaa !95, !noalias !128
  %113 = getelementptr inbounds %"class.std::__detail::_StateSeq", %"class.std::__detail::_StateSeq"* %111, i64 20
  br label %114

114:                                              ; preds = %89, %97
  %115 = phi i64 [ %96, %89 ], [ %107, %97 ]
  %116 = phi i64 [ %94, %89 ], [ %105, %97 ]
  %117 = phi i8* [ %92, %89 ], [ %103, %97 ]
  %118 = phi %"class.std::__detail::_StateSeq"* [ %90, %89 ], [ %113, %97 ]
  store %"class.std::__detail::_StateSeq"* %118, %"class.std::__detail::_StateSeq"** %13, align 8, !tbaa !96, !noalias !128
  %119 = load %"struct.std::__detail::_NFA"*, %"struct.std::__detail::_NFA"** %17, align 8, !tbaa !25
  call void @llvm.lifetime.start.p0i8(i64 48, i8* nonnull %18)
  store i32 10, i32* %19, align 8, !tbaa !97
  store i64 -1, i64* %20, align 8, !tbaa !73
  %120 = invoke i64 @_ZNSt8__detail4_NFAINSt7__cxx1112regex_traitsIcEEE15_M_insert_stateENS_6_StateIcEE(%"struct.std::__detail::_NFA"* nonnull align 8 dereferenceable(88) %119, %"struct.std::__detail::_State"* nonnull %4)
          to label %121 unwind label %134

121:                                              ; preds = %114
  %122 = load i32, i32* %19, align 8, !tbaa !97
  %123 = icmp eq i32 %122, 11
  br i1 %123, label %124, label %136

124:                                              ; preds = %121
  %125 = load i1 (%"union.std::_Any_data"*, %"union.std::_Any_data"*, i32)*, i1 (%"union.std::_Any_data"*, %"union.std::_Any_data"*, i32)** %22, align 8, !tbaa !103
  %126 = icmp eq i1 (%"union.std::_Any_data"*, %"union.std::_Any_data"*, i32)* %125, null
  br i1 %126, label %136, label %127

127:                                              ; preds = %124
  %128 = invoke zeroext i1 %125(%"union.std::_Any_data"* nonnull align 8 dereferenceable(16) %24, %"union.std::_Any_data"* nonnull align 8 dereferenceable(16) %24, i32 3)
          to label %136 unwind label %129

129:                                              ; preds = %127
  %130 = landingpad { i8*, i32 }
          catch i8* null
  %131 = extractvalue { i8*, i32 } %130, 0
  call void @__clang_call_terminate(i8* %131) #27
  unreachable

132:                                              ; preds = %158, %134
  %133 = phi { i8*, i32 } [ %135, %134 ], [ %159, %158 ]
  resume { i8*, i32 } %133

134:                                              ; preds = %114
  %135 = landingpad { i8*, i32 }
          cleanup
  call void @_ZNSt8__detail6_StateIcED2Ev(%"struct.std::__detail::_State"* nonnull align 8 dereferenceable(48) %4) #25
  br label %132

136:                                              ; preds = %121, %124, %127
  call void @llvm.lifetime.end.p0i8(i64 48, i8* nonnull %18)
  %137 = getelementptr inbounds i8, i8* %84, i64 56
  %138 = bitcast i8* %137 to %"struct.std::__detail::_State"**
  %139 = load %"struct.std::__detail::_State"*, %"struct.std::__detail::_State"** %138, align 8, !tbaa !71
  %140 = getelementptr inbounds %"struct.std::__detail::_State", %"struct.std::__detail::_State"* %139, i64 %82, i32 0, i32 1
  store i64 %120, i64* %140, align 8, !tbaa !73
  %141 = getelementptr inbounds i8, i8* %117, i64 56
  %142 = bitcast i8* %141 to %"struct.std::__detail::_State"**
  %143 = load %"struct.std::__detail::_State"*, %"struct.std::__detail::_State"** %142, align 8, !tbaa !71
  %144 = getelementptr inbounds %"struct.std::__detail::_State", %"struct.std::__detail::_State"* %143, i64 %115, i32 0, i32 1
  store i64 %120, i64* %144, align 8, !tbaa !73
  call void @llvm.lifetime.start.p0i8(i64 24, i8* nonnull %25) #25
  %145 = load %"struct.std::__detail::_NFA"*, %"struct.std::__detail::_NFA"** %17, align 8, !tbaa !25
  call void @llvm.lifetime.start.p0i8(i64 48, i8* nonnull %26)
  call void @llvm.lifetime.start.p0i8(i64 48, i8* nonnull %27) #25
  store i32 1, i32* %28, align 8, !tbaa !97
  store i64 %116, i64* %29, align 8, !tbaa !73
  store i64 %83, i64* %30, align 8, !tbaa !13
  call void @llvm.memcpy.p0i8.p0i8.i64(i8* noundef nonnull align 8 dereferenceable(48) %26, i8* noundef nonnull align 8 dereferenceable(48) %27, i64 48, i1 false) #25, !tbaa.struct !100
  %146 = invoke i64 @_ZNSt8__detail4_NFAINSt7__cxx1112regex_traitsIcEEE15_M_insert_stateENS_6_StateIcEE(%"struct.std::__detail::_NFA"* nonnull align 8 dereferenceable(88) %145, %"struct.std::__detail::_State"* nonnull %3)
          to label %147 unwind label %158

147:                                              ; preds = %136
  %148 = load i32, i32* %31, align 8, !tbaa !97
  %149 = icmp eq i32 %148, 11
  br i1 %149, label %150, label %160

150:                                              ; preds = %147
  %151 = load i1 (%"union.std::_Any_data"*, %"union.std::_Any_data"*, i32)*, i1 (%"union.std::_Any_data"*, %"union.std::_Any_data"*, i32)** %33, align 8, !tbaa !103
  %152 = icmp eq i1 (%"union.std::_Any_data"*, %"union.std::_Any_data"*, i32)* %151, null
  br i1 %152, label %160, label %153

153:                                              ; preds = %150
  %154 = invoke zeroext i1 %151(%"union.std::_Any_data"* nonnull align 8 dereferenceable(16) %35, %"union.std::_Any_data"* nonnull align 8 dereferenceable(16) %35, i32 3)
          to label %160 unwind label %155

155:                                              ; preds = %153
  %156 = landingpad { i8*, i32 }
          catch i8* null
  %157 = extractvalue { i8*, i32 } %156, 0
  call void @__clang_call_terminate(i8* %157) #27
  unreachable

158:                                              ; preds = %136
  %159 = landingpad { i8*, i32 }
          cleanup
  call void @_ZNSt8__detail6_StateIcED2Ev(%"struct.std::__detail::_State"* nonnull align 8 dereferenceable(48) %3) #25
  call void @_ZNSt8__detail6_StateIcED2Ev(%"struct.std::__detail::_State"* nonnull align 8 dereferenceable(48) %2) #25
  call void @llvm.lifetime.end.p0i8(i64 48, i8* nonnull %27) #25
  br label %132

160:                                              ; preds = %147, %150, %153
  call void @llvm.lifetime.end.p0i8(i64 48, i8* nonnull %27) #25
  call void @llvm.lifetime.end.p0i8(i64 48, i8* nonnull %26)
  store %"struct.std::__detail::_NFA"* %145, %"struct.std::__detail::_NFA"** %36, align 8, !tbaa !37
  store i64 %146, i64* %37, align 8, !tbaa !129
  store i64 %120, i64* %38, align 8, !tbaa !131
  %161 = load %"class.std::__detail::_StateSeq"*, %"class.std::__detail::_StateSeq"** %13, align 8, !tbaa !96
  %162 = load %"class.std::__detail::_StateSeq"*, %"class.std::__detail::_StateSeq"** %16, align 8, !tbaa !132
  %163 = getelementptr inbounds %"class.std::__detail::_StateSeq", %"class.std::__detail::_StateSeq"* %162, i64 -1
  %164 = icmp eq %"class.std::__detail::_StateSeq"* %161, %163
  br i1 %164, label %169, label %165

165:                                              ; preds = %160
  %166 = bitcast %"class.std::__detail::_StateSeq"* %161 to i8*
  call void @llvm.memcpy.p0i8.p0i8.i64(i8* noundef nonnull align 8 dereferenceable(24) %166, i8* noundef nonnull align 8 dereferenceable(24) %25, i64 24, i1 false) #25, !tbaa.struct !121
  %167 = load %"class.std::__detail::_StateSeq"*, %"class.std::__detail::_StateSeq"** %13, align 8, !tbaa !96
  %168 = getelementptr inbounds %"class.std::__detail::_StateSeq", %"class.std::__detail::_StateSeq"* %167, i64 1
  store %"class.std::__detail::_StateSeq"* %168, %"class.std::__detail::_StateSeq"** %13, align 8, !tbaa !96
  br label %170

169:                                              ; preds = %160
  call void @_ZNSt5dequeINSt8__detail9_StateSeqINSt7__cxx1112regex_traitsIcEEEESaIS5_EE16_M_push_back_auxIJS5_EEEvDpOT_(%"class.std::deque"* nonnull align 8 dereferenceable(80) %39, %"class.std::__detail::_StateSeq"* nonnull align 8 dereferenceable(24) %5)
  br label %170

170:                                              ; preds = %165, %169
  call void @llvm.lifetime.end.p0i8(i64 24, i8* nonnull %25) #25
  %171 = load i32, i32* %7, align 8, !tbaa !76
  %172 = icmp eq i32 %171, 19
  br i1 %172, label %42, label %173, !llvm.loop !133

173:                                              ; preds = %170, %1
  ret void
}

; Function Attrs: mustprogress sspstrong uwtable
define linkonce_odr dso_local zeroext i1 @_ZNSt8__detail9_CompilerINSt7__cxx1112regex_traitsIcEEE14_M_match_tokenENS_12_ScannerBase7_TokenTE(%"class.std::__detail::_Compiler"* nonnull align 8 dereferenceable(400) %0, i32 %1) local_unnamed_addr #8 comdat align 2 {
  %3 = getelementptr inbounds %"class.std::__detail::_Compiler", %"class.std::__detail::_Compiler"* %0, i64 0, i32 1
  %4 = getelementptr inbounds %"class.std::__detail::_Compiler", %"class.std::__detail::_Compiler"* %0, i64 0, i32 1, i32 0, i32 9
  %5 = load i32, i32* %4, align 8, !tbaa !76
  %6 = icmp eq i32 %5, %1
  br i1 %6, label %7, label %22

7:                                                ; preds = %2
  %8 = getelementptr inbounds %"class.std::__detail::_Compiler", %"class.std::__detail::_Compiler"* %0, i64 0, i32 1, i32 4
  %9 = getelementptr inbounds %"class.std::__detail::_Compiler", %"class.std::__detail::_Compiler"* %0, i64 0, i32 3
  tail call void @_ZNSt7__cxx1112basic_stringIcSt11char_traitsIcESaIcEE9_M_assignERKS4_(%"class.std::__cxx11::basic_string"* nonnull align 8 dereferenceable(32) %9, %"class.std::__cxx11::basic_string"* nonnull align 8 dereferenceable(32) %8)
  %10 = getelementptr inbounds %"class.std::__detail::_Compiler", %"class.std::__detail::_Compiler"* %0, i64 0, i32 1, i32 1
  %11 = load i8*, i8** %10, align 8, !tbaa !80
  %12 = getelementptr inbounds %"class.std::__detail::_Compiler", %"class.std::__detail::_Compiler"* %0, i64 0, i32 1, i32 2
  %13 = load i8*, i8** %12, align 8, !tbaa !81
  %14 = icmp eq i8* %11, %13
  br i1 %14, label %15, label %16

15:                                               ; preds = %7
  store i32 27, i32* %4, align 8, !tbaa !76
  br label %22

16:                                               ; preds = %7
  %17 = getelementptr inbounds %"class.std::__detail::_Compiler", %"class.std::__detail::_Compiler"* %0, i64 0, i32 1, i32 0, i32 7
  %18 = load i32, i32* %17, align 8, !tbaa !82
  switch i32 %18, label %22 [
    i32 0, label %19
    i32 2, label %20
    i32 1, label %21
  ]

19:                                               ; preds = %16
  tail call void @_ZNSt8__detail8_ScannerIcE14_M_scan_normalEv(%"class.std::__detail::_Scanner"* nonnull align 8 dereferenceable(248) %3)
  br label %22

20:                                               ; preds = %16
  tail call void @_ZNSt8__detail8_ScannerIcE18_M_scan_in_bracketEv(%"class.std::__detail::_Scanner"* nonnull align 8 dereferenceable(248) %3)
  br label %22

21:                                               ; preds = %16
  tail call void @_ZNSt8__detail8_ScannerIcE16_M_scan_in_braceEv(%"class.std::__detail::_Scanner"* nonnull align 8 dereferenceable(248) %3)
  br label %22

22:                                               ; preds = %21, %20, %19, %16, %15, %2
  ret i1 %6
}

declare void @_ZSt19__throw_regex_errorNSt15regex_constants10error_typeE(i32) local_unnamed_addr #0

; Function Attrs: sspstrong uwtable
define linkonce_odr dso_local void @_ZNSt8__detail12_ScannerBaseC2ENSt15regex_constants18syntax_option_typeE(%"struct.std::__detail::_ScannerBase"* nonnull align 8 dereferenceable(169) %0, i32 %1) unnamed_addr #7 comdat align 2 {
  %3 = getelementptr inbounds %"struct.std::__detail::_ScannerBase", %"struct.std::__detail::_ScannerBase"* %0, i64 0, i32 0, i64 0, i32 0
  store i8 94, i8* %3, align 8, !tbaa !134
  %4 = getelementptr inbounds %"struct.std::__detail::_ScannerBase", %"struct.std::__detail::_ScannerBase"* %0, i64 0, i32 0, i64 0, i32 1
  store i32 22, i32* %4, align 4, !tbaa !136
  %5 = getelementptr inbounds %"struct.std::__detail::_ScannerBase", %"struct.std::__detail::_ScannerBase"* %0, i64 0, i32 0, i64 1, i32 0
  store i8 36, i8* %5, align 8, !tbaa !134
  %6 = getelementptr inbounds %"struct.std::__detail::_ScannerBase", %"struct.std::__detail::_ScannerBase"* %0, i64 0, i32 0, i64 1, i32 1
  store i32 23, i32* %6, align 4, !tbaa !136
  %7 = getelementptr inbounds %"struct.std::__detail::_ScannerBase", %"struct.std::__detail::_ScannerBase"* %0, i64 0, i32 0, i64 2, i32 0
  store i8 46, i8* %7, align 8, !tbaa !134
  %8 = getelementptr inbounds %"struct.std::__detail::_ScannerBase", %"struct.std::__detail::_ScannerBase"* %0, i64 0, i32 0, i64 2, i32 1
  store i32 0, i32* %8, align 4, !tbaa !136
  %9 = getelementptr inbounds %"struct.std::__detail::_ScannerBase", %"struct.std::__detail::_ScannerBase"* %0, i64 0, i32 0, i64 3, i32 0
  store i8 42, i8* %9, align 8, !tbaa !134
  %10 = getelementptr inbounds %"struct.std::__detail::_ScannerBase", %"struct.std::__detail::_ScannerBase"* %0, i64 0, i32 0, i64 3, i32 1
  store i32 20, i32* %10, align 4, !tbaa !136
  %11 = getelementptr inbounds %"struct.std::__detail::_ScannerBase", %"struct.std::__detail::_ScannerBase"* %0, i64 0, i32 0, i64 4, i32 0
  store i8 43, i8* %11, align 8, !tbaa !134
  %12 = getelementptr inbounds %"struct.std::__detail::_ScannerBase", %"struct.std::__detail::_ScannerBase"* %0, i64 0, i32 0, i64 4, i32 1
  store i32 21, i32* %12, align 4, !tbaa !136
  %13 = getelementptr inbounds %"struct.std::__detail::_ScannerBase", %"struct.std::__detail::_ScannerBase"* %0, i64 0, i32 0, i64 5, i32 0
  store i8 63, i8* %13, align 8, !tbaa !134
  %14 = getelementptr inbounds %"struct.std::__detail::_ScannerBase", %"struct.std::__detail::_ScannerBase"* %0, i64 0, i32 0, i64 5, i32 1
  store i32 18, i32* %14, align 4, !tbaa !136
  %15 = getelementptr inbounds %"struct.std::__detail::_ScannerBase", %"struct.std::__detail::_ScannerBase"* %0, i64 0, i32 0, i64 6, i32 0
  store i8 124, i8* %15, align 8, !tbaa !134
  %16 = getelementptr inbounds %"struct.std::__detail::_ScannerBase", %"struct.std::__detail::_ScannerBase"* %0, i64 0, i32 0, i64 6, i32 1
  store i32 19, i32* %16, align 4, !tbaa !136
  %17 = getelementptr inbounds %"struct.std::__detail::_ScannerBase", %"struct.std::__detail::_ScannerBase"* %0, i64 0, i32 0, i64 7, i32 0
  store i8 10, i8* %17, align 8, !tbaa !134
  %18 = getelementptr inbounds %"struct.std::__detail::_ScannerBase", %"struct.std::__detail::_ScannerBase"* %0, i64 0, i32 0, i64 7, i32 1
  store i32 19, i32* %18, align 4, !tbaa !136
  %19 = getelementptr inbounds %"struct.std::__detail::_ScannerBase", %"struct.std::__detail::_ScannerBase"* %0, i64 0, i32 0, i64 8, i32 0
  store i8 0, i8* %19, align 8, !tbaa !134
  %20 = getelementptr inbounds %"struct.std::__detail::_ScannerBase", %"struct.std::__detail::_ScannerBase"* %0, i64 0, i32 0, i64 8, i32 1
  store i32 19, i32* %20, align 4, !tbaa !136
  %21 = getelementptr inbounds %"struct.std::__detail::_ScannerBase", %"struct.std::__detail::_ScannerBase"* %0, i64 0, i32 1, i64 0
  %22 = bitcast %"struct.std::pair.17"* %21 to <16 x i8>*
  store <16 x i8> <i8 48, i8 0, i8 98, i8 8, i8 102, i8 12, i8 110, i8 10, i8 114, i8 13, i8 116, i8 9, i8 118, i8 11, i8 0, i8 0>, <16 x i8>* %22, align 8, !tbaa !13
  %23 = getelementptr inbounds %"struct.std::__detail::_ScannerBase", %"struct.std::__detail::_ScannerBase"* %0, i64 0, i32 2, i64 0
  %24 = bitcast %"struct.std::pair.17"* %23 to <16 x i8>*
  store <16 x i8> <i8 34, i8 34, i8 47, i8 47, i8 92, i8 92, i8 97, i8 7, i8 98, i8 8, i8 102, i8 12, i8 110, i8 10, i8 114, i8 13>, <16 x i8>* %24, align 8, !tbaa !13
  %25 = getelementptr inbounds %"struct.std::__detail::_ScannerBase", %"struct.std::__detail::_ScannerBase"* %0, i64 0, i32 2, i64 8, i32 0
  store i8 116, i8* %25, align 8, !tbaa !137
  %26 = getelementptr inbounds %"struct.std::__detail::_ScannerBase", %"struct.std::__detail::_ScannerBase"* %0, i64 0, i32 2, i64 8, i32 1
  store i8 9, i8* %26, align 1, !tbaa !139
  %27 = getelementptr inbounds %"struct.std::__detail::_ScannerBase", %"struct.std::__detail::_ScannerBase"* %0, i64 0, i32 2, i64 9, i32 0
  store i8 118, i8* %27, align 2, !tbaa !137
  %28 = getelementptr inbounds %"struct.std::__detail::_ScannerBase", %"struct.std::__detail::_ScannerBase"* %0, i64 0, i32 2, i64 9, i32 1
  store i8 11, i8* %28, align 1, !tbaa !139
  %29 = getelementptr inbounds %"struct.std::__detail::_ScannerBase", %"struct.std::__detail::_ScannerBase"* %0, i64 0, i32 2, i64 10, i32 0
  store i8 0, i8* %29, align 4, !tbaa !137
  %30 = getelementptr inbounds %"struct.std::__detail::_ScannerBase", %"struct.std::__detail::_ScannerBase"* %0, i64 0, i32 2, i64 10, i32 1
  store i8 0, i8* %30, align 1, !tbaa !139
  %31 = getelementptr inbounds %"struct.std::__detail::_ScannerBase", %"struct.std::__detail::_ScannerBase"* %0, i64 0, i32 4
  store i8* getelementptr inbounds ([15 x i8], [15 x i8]* @.str.3, i64 0, i64 0), i8** %31, align 8, !tbaa !140
  %32 = getelementptr inbounds %"struct.std::__detail::_ScannerBase", %"struct.std::__detail::_ScannerBase"* %0, i64 0, i32 5
  store i8* getelementptr inbounds ([7 x i8], [7 x i8]* @.str.4, i64 0, i64 0), i8** %32, align 8, !tbaa !141
  %33 = getelementptr inbounds %"struct.std::__detail::_ScannerBase", %"struct.std::__detail::_ScannerBase"* %0, i64 0, i32 6
  store i8* getelementptr inbounds ([13 x i8], [13 x i8]* @.str.5, i64 0, i64 0), i8** %33, align 8, !tbaa !142
  %34 = getelementptr inbounds %"struct.std::__detail::_ScannerBase", %"struct.std::__detail::_ScannerBase"* %0, i64 0, i32 7
  store i32 0, i32* %34, align 8, !tbaa !82
  %35 = getelementptr inbounds %"struct.std::__detail::_ScannerBase", %"struct.std::__detail::_ScannerBase"* %0, i64 0, i32 8
  store i32 %1, i32* %35, align 4, !tbaa !111
  %36 = getelementptr inbounds %"struct.std::__detail::_ScannerBase", %"struct.std::__detail::_ScannerBase"* %0, i64 0, i32 11
  %37 = and i32 %1, 16
  %38 = icmp eq i32 %37, 0
  %39 = select i1 %38, %"struct.std::pair.17"* %23, %"struct.std::pair.17"* %21
  store %"struct.std::pair.17"* %39, %"struct.std::pair.17"** %36, align 8, !tbaa !143
  br i1 %38, label %40, label %56

40:                                               ; preds = %2
  %41 = and i32 %1, 32
  %42 = icmp eq i32 %41, 0
  br i1 %42, label %43, label %56

43:                                               ; preds = %40
  %44 = and i32 %1, 64
  %45 = icmp eq i32 %44, 0
  br i1 %45, label %46, label %56

46:                                               ; preds = %43
  %47 = and i32 %1, 256
  %48 = icmp eq i32 %47, 0
  br i1 %48, label %49, label %56

49:                                               ; preds = %46
  %50 = and i32 %1, 512
  %51 = icmp eq i32 %50, 0
  br i1 %51, label %52, label %56

52:                                               ; preds = %49
  %53 = trunc i32 %1 to i8
  %54 = icmp sgt i8 %53, -1
  %55 = select i1 %54, i8* null, i8* getelementptr inbounds ([13 x i8], [13 x i8]* @.str.5, i64 0, i64 0)
  br label %56

56:                                               ; preds = %43, %40, %2, %52, %46, %49
  %57 = phi i8* [ getelementptr inbounds ([8 x i8], [8 x i8]* @.str.6, i64 0, i64 0), %46 ], [ getelementptr inbounds ([14 x i8], [14 x i8]* @.str.7, i64 0, i64 0), %49 ], [ %55, %52 ], [ getelementptr inbounds ([15 x i8], [15 x i8]* @.str.3, i64 0, i64 0), %2 ], [ getelementptr inbounds ([7 x i8], [7 x i8]* @.str.4, i64 0, i64 0), %40 ], [ getelementptr inbounds ([13 x i8], [13 x i8]* @.str.5, i64 0, i64 0), %43 ]
  %58 = getelementptr inbounds %"struct.std::__detail::_ScannerBase", %"struct.std::__detail::_ScannerBase"* %0, i64 0, i32 12
  store i8* %57, i8** %58, align 8, !tbaa !144
  %59 = getelementptr inbounds %"struct.std::__detail::_ScannerBase", %"struct.std::__detail::_ScannerBase"* %0, i64 0, i32 13
  store i8 0, i8* %59, align 8, !tbaa !145
  ret void
}

; Function Attrs: mustprogress sspstrong uwtable
define linkonce_odr dso_local void @_ZNSt8__detail8_ScannerIcE18_M_eat_escape_ecmaEv(%"class.std::__detail::_Scanner"* nonnull align 8 dereferenceable(248) %0) #8 comdat align 2 personality i32 (...)* @__gxx_personality_v0 {
  %2 = getelementptr inbounds %"class.std::__detail::_Scanner", %"class.std::__detail::_Scanner"* %0, i64 0, i32 1
  %3 = load i8*, i8** %2, align 8, !tbaa !80
  %4 = getelementptr inbounds %"class.std::__detail::_Scanner", %"class.std::__detail::_Scanner"* %0, i64 0, i32 2
  %5 = load i8*, i8** %4, align 8, !tbaa !81
  %6 = icmp eq i8* %3, %5
  br i1 %6, label %7, label %16

7:                                                ; preds = %1
  %8 = tail call i8* @__cxa_allocate_exception(i64 24) #25
  %9 = bitcast i8* %8 to %"class.std::regex_error"*
  invoke void @_ZNSt11regex_errorC2ENSt15regex_constants10error_typeEPKc(%"class.std::regex_error"* nonnull align 8 dereferenceable(20) %9, i32 2, i8* getelementptr inbounds ([39 x i8], [39 x i8]* @.str.8, i64 0, i64 0))
          to label %10 unwind label %14

10:                                               ; preds = %7
  tail call void @__cxa_throw(i8* %8, i8* bitcast (i8** @_ZTISt11regex_error to i8*), i8* bitcast (void (%"class.std::regex_error"*)* @_ZNSt11regex_errorD1Ev to i8*)) #26
  unreachable

11:                                               ; preds = %131, %90, %14
  %12 = phi i8* [ %128, %131 ], [ %87, %90 ], [ %8, %14 ]
  %13 = phi { i8*, i32 } [ %132, %131 ], [ %91, %90 ], [ %15, %14 ]
  tail call void @__cxa_free_exception(i8* %12) #25
  resume { i8*, i32 } %13

14:                                               ; preds = %7
  %15 = landingpad { i8*, i32 }
          cleanup
  br label %11

16:                                               ; preds = %1
  %17 = getelementptr inbounds i8, i8* %3, i64 1
  store i8* %17, i8** %2, align 8, !tbaa !80
  %18 = load i8, i8* %3, align 1, !tbaa !13
  %19 = getelementptr inbounds %"class.std::__detail::_Scanner", %"class.std::__detail::_Scanner"* %0, i64 0, i32 3
  %20 = load %"class.std::ctype"*, %"class.std::ctype"** %19, align 8, !tbaa !146
  %21 = zext i8 %18 to i64
  %22 = getelementptr inbounds %"class.std::ctype", %"class.std::ctype"* %20, i64 0, i32 10, i64 %21
  %23 = load i8, i8* %22, align 1, !tbaa !13
  %24 = icmp eq i8 %23, 0
  br i1 %24, label %25, label %33

25:                                               ; preds = %16
  %26 = bitcast %"class.std::ctype"* %20 to i8 (%"class.std::ctype"*, i8, i8)***
  %27 = load i8 (%"class.std::ctype"*, i8, i8)**, i8 (%"class.std::ctype"*, i8, i8)*** %26, align 8, !tbaa !43
  %28 = getelementptr inbounds i8 (%"class.std::ctype"*, i8, i8)*, i8 (%"class.std::ctype"*, i8, i8)** %27, i64 8
  %29 = load i8 (%"class.std::ctype"*, i8, i8)*, i8 (%"class.std::ctype"*, i8, i8)** %28, align 8
  %30 = tail call signext i8 %29(%"class.std::ctype"* nonnull align 8 dereferenceable(570) %20, i8 signext %18, i8 signext 0)
  %31 = icmp eq i8 %30, 0
  br i1 %31, label %33, label %32

32:                                               ; preds = %25
  store i8 %30, i8* %22, align 1, !tbaa !13
  br label %33

33:                                               ; preds = %16, %25, %32
  %34 = phi i8 [ %23, %16 ], [ %30, %32 ], [ 0, %25 ]
  %35 = getelementptr inbounds %"class.std::__detail::_Scanner", %"class.std::__detail::_Scanner"* %0, i64 0, i32 0, i32 11
  %36 = load %"struct.std::pair.17"*, %"struct.std::pair.17"** %35, align 8, !tbaa !143
  %37 = getelementptr inbounds %"struct.std::pair.17", %"struct.std::pair.17"* %36, i64 0, i32 0
  %38 = load i8, i8* %37, align 1, !tbaa !137
  %39 = icmp eq i8 %38, 0
  br i1 %39, label %63, label %40

40:                                               ; preds = %33, %44
  %41 = phi i8 [ %47, %44 ], [ %38, %33 ]
  %42 = phi %"struct.std::pair.17"* [ %45, %44 ], [ %36, %33 ]
  %43 = icmp eq i8 %41, %34
  br i1 %43, label %49, label %44

44:                                               ; preds = %40
  %45 = getelementptr inbounds %"struct.std::pair.17", %"struct.std::pair.17"* %42, i64 1
  %46 = getelementptr inbounds %"struct.std::pair.17", %"struct.std::pair.17"* %45, i64 0, i32 0
  %47 = load i8, i8* %46, align 1, !tbaa !137
  %48 = icmp eq i8 %47, 0
  br i1 %48, label %63, label %40, !llvm.loop !147

49:                                               ; preds = %40
  %50 = getelementptr inbounds %"struct.std::pair.17", %"struct.std::pair.17"* %42, i64 0, i32 1
  %51 = icmp eq i8 %18, 98
  br i1 %51, label %52, label %56

52:                                               ; preds = %49
  %53 = getelementptr inbounds %"class.std::__detail::_Scanner", %"class.std::__detail::_Scanner"* %0, i64 0, i32 0, i32 7
  %54 = load i32, i32* %53, align 8, !tbaa !82
  %55 = icmp eq i32 %54, 2
  br i1 %55, label %56, label %64

56:                                               ; preds = %52, %49
  %57 = getelementptr inbounds %"class.std::__detail::_Scanner", %"class.std::__detail::_Scanner"* %0, i64 0, i32 0, i32 9
  store i32 1, i32* %57, align 8, !tbaa !76
  %58 = getelementptr inbounds %"class.std::__detail::_Scanner", %"class.std::__detail::_Scanner"* %0, i64 0, i32 4
  %59 = load i8, i8* %50, align 1, !tbaa !13
  %60 = getelementptr inbounds %"class.std::__detail::_Scanner", %"class.std::__detail::_Scanner"* %0, i64 0, i32 4, i32 1
  %61 = load i64, i64* %60, align 8, !tbaa !10
  %62 = tail call nonnull align 8 dereferenceable(32) %"class.std::__cxx11::basic_string"* @_ZNSt7__cxx1112basic_stringIcSt11char_traitsIcESaIcEE14_M_replace_auxEmmmc(%"class.std::__cxx11::basic_string"* nonnull align 8 dereferenceable(32) %58, i64 0, i64 %61, i64 1, i8 signext %59)
  br label %211

63:                                               ; preds = %44, %33
  switch i8 %18, label %152 [
    i8 98, label %64
    i8 66, label %70
    i8 100, label %76
    i8 68, label %76
    i8 115, label %76
    i8 83, label %76
    i8 119, label %76
    i8 87, label %76
    i8 99, label %82
    i8 120, label %100
    i8 117, label %100
  ]

64:                                               ; preds = %63, %52
  %65 = getelementptr inbounds %"class.std::__detail::_Scanner", %"class.std::__detail::_Scanner"* %0, i64 0, i32 0, i32 9
  store i32 24, i32* %65, align 8, !tbaa !76
  %66 = getelementptr inbounds %"class.std::__detail::_Scanner", %"class.std::__detail::_Scanner"* %0, i64 0, i32 4
  %67 = getelementptr inbounds %"class.std::__detail::_Scanner", %"class.std::__detail::_Scanner"* %0, i64 0, i32 4, i32 1
  %68 = load i64, i64* %67, align 8, !tbaa !10
  %69 = tail call nonnull align 8 dereferenceable(32) %"class.std::__cxx11::basic_string"* @_ZNSt7__cxx1112basic_stringIcSt11char_traitsIcESaIcEE14_M_replace_auxEmmmc(%"class.std::__cxx11::basic_string"* nonnull align 8 dereferenceable(32) %66, i64 0, i64 %68, i64 1, i8 signext 112)
  br label %211

70:                                               ; preds = %63
  %71 = getelementptr inbounds %"class.std::__detail::_Scanner", %"class.std::__detail::_Scanner"* %0, i64 0, i32 0, i32 9
  store i32 24, i32* %71, align 8, !tbaa !76
  %72 = getelementptr inbounds %"class.std::__detail::_Scanner", %"class.std::__detail::_Scanner"* %0, i64 0, i32 4
  %73 = getelementptr inbounds %"class.std::__detail::_Scanner", %"class.std::__detail::_Scanner"* %0, i64 0, i32 4, i32 1
  %74 = load i64, i64* %73, align 8, !tbaa !10
  %75 = tail call nonnull align 8 dereferenceable(32) %"class.std::__cxx11::basic_string"* @_ZNSt7__cxx1112basic_stringIcSt11char_traitsIcESaIcEE14_M_replace_auxEmmmc(%"class.std::__cxx11::basic_string"* nonnull align 8 dereferenceable(32) %72, i64 0, i64 %74, i64 1, i8 signext 110)
  br label %211

76:                                               ; preds = %63, %63, %63, %63, %63, %63
  %77 = getelementptr inbounds %"class.std::__detail::_Scanner", %"class.std::__detail::_Scanner"* %0, i64 0, i32 0, i32 9
  store i32 14, i32* %77, align 8, !tbaa !76
  %78 = getelementptr inbounds %"class.std::__detail::_Scanner", %"class.std::__detail::_Scanner"* %0, i64 0, i32 4
  %79 = getelementptr inbounds %"class.std::__detail::_Scanner", %"class.std::__detail::_Scanner"* %0, i64 0, i32 4, i32 1
  %80 = load i64, i64* %79, align 8, !tbaa !10
  %81 = tail call nonnull align 8 dereferenceable(32) %"class.std::__cxx11::basic_string"* @_ZNSt7__cxx1112basic_stringIcSt11char_traitsIcESaIcEE14_M_replace_auxEmmmc(%"class.std::__cxx11::basic_string"* nonnull align 8 dereferenceable(32) %78, i64 0, i64 %80, i64 1, i8 signext %18)
  br label %211

82:                                               ; preds = %63
  %83 = load i8*, i8** %2, align 8, !tbaa !80
  %84 = load i8*, i8** %4, align 8, !tbaa !81
  %85 = icmp eq i8* %83, %84
  br i1 %85, label %86, label %92

86:                                               ; preds = %82
  %87 = tail call i8* @__cxa_allocate_exception(i64 24) #25
  %88 = bitcast i8* %87 to %"class.std::regex_error"*
  invoke void @_ZNSt11regex_errorC2ENSt15regex_constants10error_typeEPKc(%"class.std::regex_error"* nonnull align 8 dereferenceable(20) %88, i32 2, i8* getelementptr inbounds ([51 x i8], [51 x i8]* @.str.9, i64 0, i64 0))
          to label %89 unwind label %90

89:                                               ; preds = %86
  tail call void @__cxa_throw(i8* %87, i8* bitcast (i8** @_ZTISt11regex_error to i8*), i8* bitcast (void (%"class.std::regex_error"*)* @_ZNSt11regex_errorD1Ev to i8*)) #26
  unreachable

90:                                               ; preds = %86
  %91 = landingpad { i8*, i32 }
          cleanup
  br label %11

92:                                               ; preds = %82
  %93 = getelementptr inbounds %"class.std::__detail::_Scanner", %"class.std::__detail::_Scanner"* %0, i64 0, i32 0, i32 9
  store i32 1, i32* %93, align 8, !tbaa !76
  %94 = getelementptr inbounds %"class.std::__detail::_Scanner", %"class.std::__detail::_Scanner"* %0, i64 0, i32 4
  %95 = getelementptr inbounds i8, i8* %83, i64 1
  store i8* %95, i8** %2, align 8, !tbaa !80
  %96 = load i8, i8* %83, align 1, !tbaa !13
  %97 = getelementptr inbounds %"class.std::__detail::_Scanner", %"class.std::__detail::_Scanner"* %0, i64 0, i32 4, i32 1
  %98 = load i64, i64* %97, align 8, !tbaa !10
  %99 = tail call nonnull align 8 dereferenceable(32) %"class.std::__cxx11::basic_string"* @_ZNSt7__cxx1112basic_stringIcSt11char_traitsIcESaIcEE14_M_replace_auxEmmmc(%"class.std::__cxx11::basic_string"* nonnull align 8 dereferenceable(32) %94, i64 0, i64 %98, i64 1, i8 signext %96)
  br label %211

100:                                              ; preds = %63, %63
  %101 = icmp eq i8 %18, 120
  %102 = getelementptr inbounds %"class.std::__detail::_Scanner", %"class.std::__detail::_Scanner"* %0, i64 0, i32 4
  %103 = getelementptr inbounds %"class.std::__detail::_Scanner", %"class.std::__detail::_Scanner"* %0, i64 0, i32 4, i32 1
  store i64 0, i64* %103, align 8, !tbaa !10
  %104 = getelementptr inbounds %"class.std::__cxx11::basic_string", %"class.std::__cxx11::basic_string"* %102, i64 0, i32 0, i32 0
  %105 = load i8*, i8** %104, align 8, !tbaa !40
  store i8 0, i8* %105, align 1, !tbaa !13
  %106 = select i1 %101, i32 2, i32 4
  %107 = getelementptr inbounds %"class.std::__detail::_Scanner", %"class.std::__detail::_Scanner"* %0, i64 0, i32 4, i32 2
  %108 = bitcast %union.anon* %107 to i8*
  %109 = getelementptr inbounds %"class.std::__detail::_Scanner", %"class.std::__detail::_Scanner"* %0, i64 0, i32 4, i32 2, i32 0
  br label %112

110:                                              ; preds = %145
  %111 = getelementptr inbounds %"class.std::__detail::_Scanner", %"class.std::__detail::_Scanner"* %0, i64 0, i32 0, i32 9
  store i32 3, i32* %111, align 8, !tbaa !76
  br label %211

112:                                              ; preds = %100, %145
  %113 = phi i32 [ 0, %100 ], [ %150, %145 ]
  %114 = load i8*, i8** %2, align 8, !tbaa !80
  %115 = load i8*, i8** %4, align 8, !tbaa !81
  %116 = icmp eq i8* %114, %115
  br i1 %116, label %127, label %117

117:                                              ; preds = %112
  %118 = load %"class.std::ctype"*, %"class.std::ctype"** %19, align 8, !tbaa !146
  %119 = load i8, i8* %114, align 1, !tbaa !13
  %120 = getelementptr inbounds %"class.std::ctype", %"class.std::ctype"* %118, i64 0, i32 7
  %121 = load i16*, i16** %120, align 8, !tbaa !148
  %122 = zext i8 %119 to i64
  %123 = getelementptr inbounds i16, i16* %121, i64 %122
  %124 = load i16, i16* %123, align 2, !tbaa !149
  %125 = and i16 %124, 4096
  %126 = icmp eq i16 %125, 0
  br i1 %126, label %127, label %133

127:                                              ; preds = %117, %112
  %128 = tail call i8* @__cxa_allocate_exception(i64 24) #25
  %129 = bitcast i8* %128 to %"class.std::regex_error"*
  invoke void @_ZNSt11regex_errorC2ENSt15regex_constants10error_typeEPKc(%"class.std::regex_error"* nonnull align 8 dereferenceable(20) %129, i32 2, i8* getelementptr inbounds ([46 x i8], [46 x i8]* @.str.10, i64 0, i64 0))
          to label %130 unwind label %131

130:                                              ; preds = %127
  tail call void @__cxa_throw(i8* %128, i8* bitcast (i8** @_ZTISt11regex_error to i8*), i8* bitcast (void (%"class.std::regex_error"*)* @_ZNSt11regex_errorD1Ev to i8*)) #26
  unreachable

131:                                              ; preds = %127
  %132 = landingpad { i8*, i32 }
          cleanup
  br label %11

133:                                              ; preds = %117
  %134 = getelementptr inbounds i8, i8* %114, i64 1
  store i8* %134, i8** %2, align 8, !tbaa !80
  %135 = load i8, i8* %114, align 1, !tbaa !13
  %136 = load i64, i64* %103, align 8, !tbaa !10
  %137 = add i64 %136, 1
  %138 = load i8*, i8** %104, align 8, !tbaa !40
  %139 = icmp eq i8* %138, %108
  %140 = load i64, i64* %109, align 8
  %141 = select i1 %139, i64 15, i64 %140
  %142 = icmp ugt i64 %137, %141
  br i1 %142, label %143, label %145

143:                                              ; preds = %133
  tail call void @_ZNSt7__cxx1112basic_stringIcSt11char_traitsIcESaIcEE9_M_mutateEmmPKcm(%"class.std::__cxx11::basic_string"* nonnull align 8 dereferenceable(32) %102, i64 %136, i64 0, i8* null, i64 1)
  %144 = load i8*, i8** %104, align 8, !tbaa !40
  br label %145

145:                                              ; preds = %133, %143
  %146 = phi i8* [ %144, %143 ], [ %138, %133 ]
  %147 = getelementptr inbounds i8, i8* %146, i64 %136
  store i8 %135, i8* %147, align 1, !tbaa !13
  store i64 %137, i64* %103, align 8, !tbaa !10
  %148 = load i8*, i8** %104, align 8, !tbaa !40
  %149 = getelementptr inbounds i8, i8* %148, i64 %137
  store i8 0, i8* %149, align 1, !tbaa !13
  %150 = add nuw nsw i32 %113, 1
  %151 = icmp eq i32 %150, %106
  br i1 %151, label %110, label %112, !llvm.loop !151

152:                                              ; preds = %63
  %153 = load %"class.std::ctype"*, %"class.std::ctype"** %19, align 8, !tbaa !146
  %154 = getelementptr inbounds %"class.std::ctype", %"class.std::ctype"* %153, i64 0, i32 7
  %155 = load i16*, i16** %154, align 8, !tbaa !148
  %156 = getelementptr inbounds i16, i16* %155, i64 %21
  %157 = load i16, i16* %156, align 2, !tbaa !149
  %158 = and i16 %157, 2048
  %159 = icmp eq i16 %158, 0
  br i1 %159, label %205, label %160

160:                                              ; preds = %152
  %161 = getelementptr inbounds %"class.std::__detail::_Scanner", %"class.std::__detail::_Scanner"* %0, i64 0, i32 4
  %162 = getelementptr inbounds %"class.std::__detail::_Scanner", %"class.std::__detail::_Scanner"* %0, i64 0, i32 4, i32 1
  %163 = load i64, i64* %162, align 8, !tbaa !10
  %164 = tail call nonnull align 8 dereferenceable(32) %"class.std::__cxx11::basic_string"* @_ZNSt7__cxx1112basic_stringIcSt11char_traitsIcESaIcEE14_M_replace_auxEmmmc(%"class.std::__cxx11::basic_string"* nonnull align 8 dereferenceable(32) %161, i64 0, i64 %163, i64 1, i8 signext %18)
  %165 = getelementptr inbounds %"class.std::__cxx11::basic_string", %"class.std::__cxx11::basic_string"* %161, i64 0, i32 0, i32 0
  %166 = getelementptr inbounds %"class.std::__detail::_Scanner", %"class.std::__detail::_Scanner"* %0, i64 0, i32 4, i32 2
  %167 = bitcast %union.anon* %166 to i8*
  %168 = getelementptr inbounds %"class.std::__detail::_Scanner", %"class.std::__detail::_Scanner"* %0, i64 0, i32 4, i32 2, i32 0
  %169 = load i8*, i8** %2, align 8, !tbaa !80
  %170 = load i8*, i8** %4, align 8, !tbaa !81
  %171 = icmp eq i8* %169, %170
  br i1 %171, label %203, label %172

172:                                              ; preds = %160, %195
  %173 = phi i8* [ %200, %195 ], [ %169, %160 ]
  %174 = load %"class.std::ctype"*, %"class.std::ctype"** %19, align 8, !tbaa !146
  %175 = load i8, i8* %173, align 1, !tbaa !13
  %176 = getelementptr inbounds %"class.std::ctype", %"class.std::ctype"* %174, i64 0, i32 7
  %177 = load i16*, i16** %176, align 8, !tbaa !148
  %178 = zext i8 %175 to i64
  %179 = getelementptr inbounds i16, i16* %177, i64 %178
  %180 = load i16, i16* %179, align 2, !tbaa !149
  %181 = and i16 %180, 2048
  %182 = icmp eq i16 %181, 0
  br i1 %182, label %203, label %183

183:                                              ; preds = %172
  %184 = getelementptr inbounds i8, i8* %173, i64 1
  store i8* %184, i8** %2, align 8, !tbaa !80
  %185 = load i8, i8* %173, align 1, !tbaa !13
  %186 = load i64, i64* %162, align 8, !tbaa !10
  %187 = add i64 %186, 1
  %188 = load i8*, i8** %165, align 8, !tbaa !40
  %189 = icmp eq i8* %188, %167
  %190 = load i64, i64* %168, align 8
  %191 = select i1 %189, i64 15, i64 %190
  %192 = icmp ugt i64 %187, %191
  br i1 %192, label %193, label %195

193:                                              ; preds = %183
  tail call void @_ZNSt7__cxx1112basic_stringIcSt11char_traitsIcESaIcEE9_M_mutateEmmPKcm(%"class.std::__cxx11::basic_string"* nonnull align 8 dereferenceable(32) %161, i64 %186, i64 0, i8* null, i64 1)
  %194 = load i8*, i8** %165, align 8, !tbaa !40
  br label %195

195:                                              ; preds = %183, %193
  %196 = phi i8* [ %194, %193 ], [ %188, %183 ]
  %197 = getelementptr inbounds i8, i8* %196, i64 %186
  store i8 %185, i8* %197, align 1, !tbaa !13
  store i64 %187, i64* %162, align 8, !tbaa !10
  %198 = load i8*, i8** %165, align 8, !tbaa !40
  %199 = getelementptr inbounds i8, i8* %198, i64 %187
  store i8 0, i8* %199, align 1, !tbaa !13
  %200 = load i8*, i8** %2, align 8, !tbaa !80
  %201 = load i8*, i8** %4, align 8, !tbaa !81
  %202 = icmp eq i8* %200, %201
  br i1 %202, label %203, label %172, !llvm.loop !152

203:                                              ; preds = %172, %195, %160
  %204 = getelementptr inbounds %"class.std::__detail::_Scanner", %"class.std::__detail::_Scanner"* %0, i64 0, i32 0, i32 9
  store i32 4, i32* %204, align 8, !tbaa !76
  br label %211

205:                                              ; preds = %152
  %206 = getelementptr inbounds %"class.std::__detail::_Scanner", %"class.std::__detail::_Scanner"* %0, i64 0, i32 0, i32 9
  store i32 1, i32* %206, align 8, !tbaa !76
  %207 = getelementptr inbounds %"class.std::__detail::_Scanner", %"class.std::__detail::_Scanner"* %0, i64 0, i32 4
  %208 = getelementptr inbounds %"class.std::__detail::_Scanner", %"class.std::__detail::_Scanner"* %0, i64 0, i32 4, i32 1
  %209 = load i64, i64* %208, align 8, !tbaa !10
  %210 = tail call nonnull align 8 dereferenceable(32) %"class.std::__cxx11::basic_string"* @_ZNSt7__cxx1112basic_stringIcSt11char_traitsIcESaIcEE14_M_replace_auxEmmmc(%"class.std::__cxx11::basic_string"* nonnull align 8 dereferenceable(32) %207, i64 0, i64 %209, i64 1, i8 signext %18)
  br label %211

211:                                              ; preds = %64, %76, %110, %205, %203, %92, %70, %56
  ret void
}

; Function Attrs: mustprogress sspstrong uwtable
define linkonce_odr dso_local void @_ZNSt8__detail8_ScannerIcE19_M_eat_escape_posixEv(%"class.std::__detail::_Scanner"* nonnull align 8 dereferenceable(248) %0) #8 comdat align 2 personality i32 (...)* @__gxx_personality_v0 {
  %2 = getelementptr inbounds %"class.std::__detail::_Scanner", %"class.std::__detail::_Scanner"* %0, i64 0, i32 1
  %3 = load i8*, i8** %2, align 8, !tbaa !80
  %4 = getelementptr inbounds %"class.std::__detail::_Scanner", %"class.std::__detail::_Scanner"* %0, i64 0, i32 2
  %5 = load i8*, i8** %4, align 8, !tbaa !81
  %6 = icmp eq i8* %3, %5
  br i1 %6, label %7, label %13

7:                                                ; preds = %1
  %8 = tail call i8* @__cxa_allocate_exception(i64 24) #25
  %9 = bitcast i8* %8 to %"class.std::regex_error"*
  invoke void @_ZNSt11regex_errorC2ENSt15regex_constants10error_typeEPKc(%"class.std::regex_error"* nonnull align 8 dereferenceable(20) %9, i32 2, i8* getelementptr inbounds ([39 x i8], [39 x i8]* @.str.8, i64 0, i64 0))
          to label %10 unwind label %11

10:                                               ; preds = %7
  tail call void @__cxa_throw(i8* %8, i8* bitcast (i8** @_ZTISt11regex_error to i8*), i8* bitcast (void (%"class.std::regex_error"*)* @_ZNSt11regex_errorD1Ev to i8*)) #26
  unreachable

11:                                               ; preds = %7
  %12 = landingpad { i8*, i32 }
          cleanup
  tail call void @__cxa_free_exception(i8* %8) #25
  resume { i8*, i32 } %12

13:                                               ; preds = %1
  %14 = load i8, i8* %3, align 1, !tbaa !13
  %15 = getelementptr inbounds %"class.std::__detail::_Scanner", %"class.std::__detail::_Scanner"* %0, i64 0, i32 0, i32 12
  %16 = load i8*, i8** %15, align 8, !tbaa !144
  %17 = getelementptr inbounds %"class.std::__detail::_Scanner", %"class.std::__detail::_Scanner"* %0, i64 0, i32 3
  %18 = load %"class.std::ctype"*, %"class.std::ctype"** %17, align 8, !tbaa !146
  %19 = zext i8 %14 to i64
  %20 = getelementptr inbounds %"class.std::ctype", %"class.std::ctype"* %18, i64 0, i32 10, i64 %19
  %21 = load i8, i8* %20, align 1, !tbaa !13
  %22 = icmp eq i8 %21, 0
  br i1 %22, label %23, label %31

23:                                               ; preds = %13
  %24 = bitcast %"class.std::ctype"* %18 to i8 (%"class.std::ctype"*, i8, i8)***
  %25 = load i8 (%"class.std::ctype"*, i8, i8)**, i8 (%"class.std::ctype"*, i8, i8)*** %24, align 8, !tbaa !43
  %26 = getelementptr inbounds i8 (%"class.std::ctype"*, i8, i8)*, i8 (%"class.std::ctype"*, i8, i8)** %25, i64 8
  %27 = load i8 (%"class.std::ctype"*, i8, i8)*, i8 (%"class.std::ctype"*, i8, i8)** %26, align 8
  %28 = tail call signext i8 %27(%"class.std::ctype"* nonnull align 8 dereferenceable(570) %18, i8 signext %14, i8 signext 0)
  %29 = icmp eq i8 %28, 0
  br i1 %29, label %31, label %30

30:                                               ; preds = %23
  store i8 %28, i8* %20, align 1, !tbaa !13
  br label %31

31:                                               ; preds = %13, %23, %30
  %32 = phi i8 [ %21, %13 ], [ %28, %30 ], [ 0, %23 ]
  %33 = sext i8 %32 to i32
  %34 = tail call i8* @strchr(i8* noundef nonnull dereferenceable(1) %16, i32 %33) #29
  %35 = icmp eq i8* %34, null
  br i1 %35, label %39, label %36

36:                                               ; preds = %31
  %37 = load i8, i8* %34, align 1, !tbaa !13
  %38 = icmp eq i8 %37, 0
  br i1 %38, label %39, label %59

39:                                               ; preds = %36, %31
  %40 = getelementptr inbounds %"class.std::__detail::_Scanner", %"class.std::__detail::_Scanner"* %0, i64 0, i32 0, i32 8
  %41 = load i32, i32* %40, align 4, !tbaa !111
  %42 = trunc i32 %41 to i8
  %43 = icmp slt i8 %42, 0
  br i1 %43, label %44, label %45

44:                                               ; preds = %39
  tail call void @_ZNSt8__detail8_ScannerIcE17_M_eat_escape_awkEv(%"class.std::__detail::_Scanner"* nonnull align 8 dereferenceable(248) %0)
  br label %68

45:                                               ; preds = %39
  %46 = and i32 %41, 288
  %47 = icmp eq i32 %46, 0
  br i1 %47, label %58, label %48

48:                                               ; preds = %45
  %49 = load %"class.std::ctype"*, %"class.std::ctype"** %17, align 8, !tbaa !146
  %50 = getelementptr inbounds %"class.std::ctype", %"class.std::ctype"* %49, i64 0, i32 7
  %51 = load i16*, i16** %50, align 8, !tbaa !148
  %52 = getelementptr inbounds i16, i16* %51, i64 %19
  %53 = load i16, i16* %52, align 2, !tbaa !149
  %54 = and i16 %53, 2048
  %55 = icmp eq i16 %54, 0
  %56 = icmp eq i8 %14, 48
  %57 = select i1 %55, i1 true, i1 %56
  br i1 %57, label %58, label %59

58:                                               ; preds = %48, %45
  br label %59

59:                                               ; preds = %48, %36, %58
  %60 = phi i32 [ 1, %58 ], [ 1, %36 ], [ 4, %48 ]
  %61 = getelementptr inbounds %"class.std::__detail::_Scanner", %"class.std::__detail::_Scanner"* %0, i64 0, i32 0, i32 9
  store i32 %60, i32* %61, align 8, !tbaa !76
  %62 = getelementptr inbounds %"class.std::__detail::_Scanner", %"class.std::__detail::_Scanner"* %0, i64 0, i32 4
  %63 = getelementptr inbounds %"class.std::__detail::_Scanner", %"class.std::__detail::_Scanner"* %0, i64 0, i32 4, i32 1
  %64 = load i64, i64* %63, align 8, !tbaa !10
  %65 = tail call nonnull align 8 dereferenceable(32) %"class.std::__cxx11::basic_string"* @_ZNSt7__cxx1112basic_stringIcSt11char_traitsIcESaIcEE14_M_replace_auxEmmmc(%"class.std::__cxx11::basic_string"* nonnull align 8 dereferenceable(32) %62, i64 0, i64 %64, i64 1, i8 signext %14)
  %66 = load i8*, i8** %2, align 8, !tbaa !80
  %67 = getelementptr inbounds i8, i8* %66, i64 1
  store i8* %67, i8** %2, align 8, !tbaa !80
  br label %68

68:                                               ; preds = %59, %44
  ret void
}

; Function Attrs: nounwind
declare i64 @_ZNKSt6locale2id5_M_idEv(%"class.std::locale::id"* nonnull align 8 dereferenceable(8)) local_unnamed_addr #1

; Function Attrs: noreturn
declare void @_ZSt16__throw_bad_castv() local_unnamed_addr #9

; Function Attrs: nofree nounwind readonly
declare i8* @__dynamic_cast(i8*, i8*, i8*, i64) local_unnamed_addr #10

declare void @__cxa_bad_cast() local_unnamed_addr

; Function Attrs: inlinehint mustprogress sspstrong uwtable
define linkonce_odr dso_local void @_ZSt19__throw_regex_errorNSt15regex_constants10error_typeEPKc(i32 %0, i8* %1) local_unnamed_addr #11 comdat personality i8* bitcast (i32 (...)* @__gxx_personality_v0 to i8*) {
  %3 = tail call i8* @__cxa_allocate_exception(i64 24) #25
  %4 = bitcast i8* %3 to %"class.std::regex_error"*
  invoke void @_ZNSt11regex_errorC2ENSt15regex_constants10error_typeEPKc(%"class.std::regex_error"* nonnull align 8 dereferenceable(20) %4, i32 %0, i8* %1)
          to label %5 unwind label %6

5:                                                ; preds = %2
  tail call void @__cxa_throw(i8* %3, i8* bitcast (i8** @_ZTISt11regex_error to i8*), i8* bitcast (void (%"class.std::regex_error"*)* @_ZNSt11regex_errorD1Ev to i8*)) #26
  unreachable

6:                                                ; preds = %2
  %7 = landingpad { i8*, i32 }
          cleanup
  tail call void @__cxa_free_exception(i8* %3) #25
  resume { i8*, i32 } %7
}

declare i8* @__cxa_allocate_exception(i64) local_unnamed_addr

; Function Attrs: sspstrong uwtable
define linkonce_odr dso_local void @_ZNSt11regex_errorC2ENSt15regex_constants10error_typeEPKc(%"class.std::regex_error"* nonnull align 8 dereferenceable(20) %0, i32 %1, i8* %2) unnamed_addr #7 comdat align 2 {
  %4 = getelementptr inbounds %"class.std::regex_error", %"class.std::regex_error"* %0, i64 0, i32 0
  tail call void @_ZNSt13runtime_errorC2EPKc(%"class.std::runtime_error"* nonnull align 8 dereferenceable(16) %4, i8* %2)
  %5 = getelementptr inbounds %"class.std::regex_error", %"class.std::regex_error"* %0, i64 0, i32 0, i32 0, i32 0
  store i32 (...)** bitcast (i8** getelementptr inbounds ({ [5 x i8*] }, { [5 x i8*] }* @_ZTVSt11regex_error, i64 0, inrange i32 0, i64 2) to i32 (...)**), i32 (...)*** %5, align 8, !tbaa !43
  %6 = getelementptr inbounds %"class.std::regex_error", %"class.std::regex_error"* %0, i64 0, i32 1
  store i32 %1, i32* %6, align 8, !tbaa !153
  ret void
}

declare void @__cxa_free_exception(i8*) local_unnamed_addr

; Function Attrs: nounwind
declare void @_ZNSt11regex_errorD1Ev(%"class.std::regex_error"* nonnull align 8 dereferenceable(20)) unnamed_addr #1

declare void @__cxa_throw(i8*, i8*, i8*) local_unnamed_addr

declare void @_ZNSt13runtime_errorC2EPKc(%"class.std::runtime_error"* nonnull align 8 dereferenceable(16), i8*) unnamed_addr #0

declare nonnull align 8 dereferenceable(32) %"class.std::__cxx11::basic_string"* @_ZNSt7__cxx1112basic_stringIcSt11char_traitsIcESaIcEE14_M_replace_auxEmmmc(%"class.std::__cxx11::basic_string"* nonnull align 8 dereferenceable(32), i64, i64, i64, i8 signext) local_unnamed_addr #0

declare void @_ZNSt7__cxx1112basic_stringIcSt11char_traitsIcESaIcEE9_M_mutateEmmPKcm(%"class.std::__cxx11::basic_string"* nonnull align 8 dereferenceable(32), i64, i64, i8*, i64) local_unnamed_addr #0

; Function Attrs: argmemonly mustprogress nofree nounwind readonly willreturn
declare i8* @strchr(i8*, i32) local_unnamed_addr #12

; Function Attrs: mustprogress sspstrong uwtable
define linkonce_odr dso_local void @_ZNSt8__detail8_ScannerIcE17_M_eat_escape_awkEv(%"class.std::__detail::_Scanner"* nonnull align 8 dereferenceable(248) %0) local_unnamed_addr #8 comdat align 2 personality i32 (...)* @__gxx_personality_v0 {
  %2 = getelementptr inbounds %"class.std::__detail::_Scanner", %"class.std::__detail::_Scanner"* %0, i64 0, i32 1
  %3 = load i8*, i8** %2, align 8, !tbaa !80
  %4 = getelementptr inbounds i8, i8* %3, i64 1
  store i8* %4, i8** %2, align 8, !tbaa !80
  %5 = load i8, i8* %3, align 1, !tbaa !13
  %6 = getelementptr inbounds %"class.std::__detail::_Scanner", %"class.std::__detail::_Scanner"* %0, i64 0, i32 3
  %7 = load %"class.std::ctype"*, %"class.std::ctype"** %6, align 8, !tbaa !146
  %8 = zext i8 %5 to i64
  %9 = getelementptr inbounds %"class.std::ctype", %"class.std::ctype"* %7, i64 0, i32 10, i64 %8
  %10 = load i8, i8* %9, align 1, !tbaa !13
  %11 = icmp eq i8 %10, 0
  br i1 %11, label %12, label %20

12:                                               ; preds = %1
  %13 = bitcast %"class.std::ctype"* %7 to i8 (%"class.std::ctype"*, i8, i8)***
  %14 = load i8 (%"class.std::ctype"*, i8, i8)**, i8 (%"class.std::ctype"*, i8, i8)*** %13, align 8, !tbaa !43
  %15 = getelementptr inbounds i8 (%"class.std::ctype"*, i8, i8)*, i8 (%"class.std::ctype"*, i8, i8)** %14, i64 8
  %16 = load i8 (%"class.std::ctype"*, i8, i8)*, i8 (%"class.std::ctype"*, i8, i8)** %15, align 8
  %17 = tail call signext i8 %16(%"class.std::ctype"* nonnull align 8 dereferenceable(570) %7, i8 signext %5, i8 signext 0)
  %18 = icmp eq i8 %17, 0
  br i1 %18, label %20, label %19

19:                                               ; preds = %12
  store i8 %17, i8* %9, align 1, !tbaa !13
  br label %20

20:                                               ; preds = %1, %12, %19
  %21 = phi i8 [ %10, %1 ], [ %17, %19 ], [ 0, %12 ]
  %22 = getelementptr inbounds %"class.std::__detail::_Scanner", %"class.std::__detail::_Scanner"* %0, i64 0, i32 0, i32 11
  %23 = load %"struct.std::pair.17"*, %"struct.std::pair.17"** %22, align 8, !tbaa !143
  %24 = getelementptr inbounds %"struct.std::pair.17", %"struct.std::pair.17"* %23, i64 0, i32 0
  %25 = load i8, i8* %24, align 1, !tbaa !137
  %26 = icmp eq i8 %25, 0
  br i1 %26, label %44, label %27

27:                                               ; preds = %20, %31
  %28 = phi i8 [ %34, %31 ], [ %25, %20 ]
  %29 = phi %"struct.std::pair.17"* [ %32, %31 ], [ %23, %20 ]
  %30 = icmp eq i8 %28, %21
  br i1 %30, label %36, label %31

31:                                               ; preds = %27
  %32 = getelementptr inbounds %"struct.std::pair.17", %"struct.std::pair.17"* %29, i64 1
  %33 = getelementptr inbounds %"struct.std::pair.17", %"struct.std::pair.17"* %32, i64 0, i32 0
  %34 = load i8, i8* %33, align 1, !tbaa !137
  %35 = icmp eq i8 %34, 0
  br i1 %35, label %44, label %27, !llvm.loop !147

36:                                               ; preds = %27
  %37 = getelementptr inbounds %"struct.std::pair.17", %"struct.std::pair.17"* %29, i64 0, i32 1
  %38 = getelementptr inbounds %"class.std::__detail::_Scanner", %"class.std::__detail::_Scanner"* %0, i64 0, i32 0, i32 9
  store i32 1, i32* %38, align 8, !tbaa !76
  %39 = getelementptr inbounds %"class.std::__detail::_Scanner", %"class.std::__detail::_Scanner"* %0, i64 0, i32 4
  %40 = load i8, i8* %37, align 1, !tbaa !13
  %41 = getelementptr inbounds %"class.std::__detail::_Scanner", %"class.std::__detail::_Scanner"* %0, i64 0, i32 4, i32 1
  %42 = load i64, i64* %41, align 8, !tbaa !10
  %43 = tail call nonnull align 8 dereferenceable(32) %"class.std::__cxx11::basic_string"* @_ZNSt7__cxx1112basic_stringIcSt11char_traitsIcESaIcEE14_M_replace_auxEmmmc(%"class.std::__cxx11::basic_string"* nonnull align 8 dereferenceable(32) %39, i64 0, i64 %42, i64 1, i8 signext %40)
  br label %110

44:                                               ; preds = %31, %20
  %45 = load %"class.std::ctype"*, %"class.std::ctype"** %6, align 8, !tbaa !146
  %46 = getelementptr inbounds %"class.std::ctype", %"class.std::ctype"* %45, i64 0, i32 7
  %47 = load i16*, i16** %46, align 8, !tbaa !148
  %48 = getelementptr inbounds i16, i16* %47, i64 %8
  %49 = load i16, i16* %48, align 2, !tbaa !149
  %50 = freeze i16 %49
  %51 = and i16 %50, 2048
  %52 = icmp eq i16 %51, 0
  %53 = and i8 %5, -2
  %54 = icmp eq i8 %53, 56
  %55 = select i1 %52, i1 true, i1 %54
  br i1 %55, label %104, label %56

56:                                               ; preds = %44
  %57 = getelementptr inbounds %"class.std::__detail::_Scanner", %"class.std::__detail::_Scanner"* %0, i64 0, i32 4
  %58 = getelementptr inbounds %"class.std::__detail::_Scanner", %"class.std::__detail::_Scanner"* %0, i64 0, i32 4, i32 1
  %59 = load i64, i64* %58, align 8, !tbaa !10
  %60 = tail call nonnull align 8 dereferenceable(32) %"class.std::__cxx11::basic_string"* @_ZNSt7__cxx1112basic_stringIcSt11char_traitsIcESaIcEE14_M_replace_auxEmmmc(%"class.std::__cxx11::basic_string"* nonnull align 8 dereferenceable(32) %57, i64 0, i64 %59, i64 1, i8 signext %5)
  %61 = getelementptr inbounds %"class.std::__detail::_Scanner", %"class.std::__detail::_Scanner"* %0, i64 0, i32 2
  %62 = getelementptr inbounds %"class.std::__cxx11::basic_string", %"class.std::__cxx11::basic_string"* %57, i64 0, i32 0, i32 0
  %63 = getelementptr inbounds %"class.std::__detail::_Scanner", %"class.std::__detail::_Scanner"* %0, i64 0, i32 4, i32 2
  %64 = bitcast %union.anon* %63 to i8*
  %65 = getelementptr inbounds %"class.std::__detail::_Scanner", %"class.std::__detail::_Scanner"* %0, i64 0, i32 4, i32 2, i32 0
  %66 = load i8*, i8** %2, align 8, !tbaa !80
  %67 = load i8*, i8** %61, align 8, !tbaa !81
  %68 = icmp eq i8* %66, %67
  br i1 %68, label %82, label %69

69:                                               ; preds = %56
  %70 = load %"class.std::ctype"*, %"class.std::ctype"** %6, align 8, !tbaa !146
  %71 = load i8, i8* %66, align 1, !tbaa !13
  %72 = getelementptr inbounds %"class.std::ctype", %"class.std::ctype"* %70, i64 0, i32 7
  %73 = load i16*, i16** %72, align 8, !tbaa !148
  %74 = zext i8 %71 to i64
  %75 = getelementptr inbounds i16, i16* %73, i64 %74
  %76 = load i16, i16* %75, align 2, !tbaa !149
  %77 = and i16 %76, 2048
  %78 = icmp eq i16 %77, 0
  %79 = and i8 %71, -2
  %80 = icmp eq i8 %79, 56
  %81 = select i1 %78, i1 true, i1 %80
  br i1 %81, label %82, label %84

82:                                               ; preds = %136, %111, %96, %56, %69
  %83 = getelementptr inbounds %"class.std::__detail::_Scanner", %"class.std::__detail::_Scanner"* %0, i64 0, i32 0, i32 9
  store i32 2, i32* %83, align 8, !tbaa !76
  br label %110

84:                                               ; preds = %69
  %85 = getelementptr inbounds i8, i8* %66, i64 1
  store i8* %85, i8** %2, align 8, !tbaa !80
  %86 = load i8, i8* %66, align 1, !tbaa !13
  %87 = load i64, i64* %58, align 8, !tbaa !10
  %88 = add i64 %87, 1
  %89 = load i8*, i8** %62, align 8, !tbaa !40
  %90 = icmp eq i8* %89, %64
  %91 = load i64, i64* %65, align 8
  %92 = select i1 %90, i64 15, i64 %91
  %93 = icmp ugt i64 %88, %92
  br i1 %93, label %94, label %96

94:                                               ; preds = %84
  tail call void @_ZNSt7__cxx1112basic_stringIcSt11char_traitsIcESaIcEE9_M_mutateEmmPKcm(%"class.std::__cxx11::basic_string"* nonnull align 8 dereferenceable(32) %57, i64 %87, i64 0, i8* null, i64 1)
  %95 = load i8*, i8** %62, align 8, !tbaa !40
  br label %96

96:                                               ; preds = %84, %94
  %97 = phi i8* [ %95, %94 ], [ %89, %84 ]
  %98 = getelementptr inbounds i8, i8* %97, i64 %87
  store i8 %86, i8* %98, align 1, !tbaa !13
  store i64 %88, i64* %58, align 8, !tbaa !10
  %99 = load i8*, i8** %62, align 8, !tbaa !40
  %100 = getelementptr inbounds i8, i8* %99, i64 %88
  store i8 0, i8* %100, align 1, !tbaa !13
  %101 = load i8*, i8** %2, align 8, !tbaa !80
  %102 = load i8*, i8** %61, align 8, !tbaa !81
  %103 = icmp eq i8* %101, %102
  br i1 %103, label %82, label %111

104:                                              ; preds = %44
  %105 = tail call i8* @__cxa_allocate_exception(i64 24) #25
  %106 = bitcast i8* %105 to %"class.std::regex_error"*
  invoke void @_ZNSt11regex_errorC2ENSt15regex_constants10error_typeEPKc(%"class.std::regex_error"* nonnull align 8 dereferenceable(20) %106, i32 2, i8* getelementptr inbounds ([29 x i8], [29 x i8]* @.str.13, i64 0, i64 0))
          to label %107 unwind label %108

107:                                              ; preds = %104
  tail call void @__cxa_throw(i8* %105, i8* bitcast (i8** @_ZTISt11regex_error to i8*), i8* bitcast (void (%"class.std::regex_error"*)* @_ZNSt11regex_errorD1Ev to i8*)) #26
  unreachable

108:                                              ; preds = %104
  %109 = landingpad { i8*, i32 }
          cleanup
  tail call void @__cxa_free_exception(i8* %105) #25
  resume { i8*, i32 } %109

110:                                              ; preds = %36, %82
  ret void

111:                                              ; preds = %96
  %112 = load %"class.std::ctype"*, %"class.std::ctype"** %6, align 8, !tbaa !146
  %113 = load i8, i8* %101, align 1, !tbaa !13
  %114 = getelementptr inbounds %"class.std::ctype", %"class.std::ctype"* %112, i64 0, i32 7
  %115 = load i16*, i16** %114, align 8, !tbaa !148
  %116 = zext i8 %113 to i64
  %117 = getelementptr inbounds i16, i16* %115, i64 %116
  %118 = load i16, i16* %117, align 2, !tbaa !149
  %119 = and i16 %118, 2048
  %120 = icmp eq i16 %119, 0
  %121 = and i8 %113, -2
  %122 = icmp eq i8 %121, 56
  %123 = select i1 %120, i1 true, i1 %122
  br i1 %123, label %82, label %124

124:                                              ; preds = %111
  %125 = getelementptr inbounds i8, i8* %101, i64 1
  store i8* %125, i8** %2, align 8, !tbaa !80
  %126 = load i8, i8* %101, align 1, !tbaa !13
  %127 = load i64, i64* %58, align 8, !tbaa !10
  %128 = add i64 %127, 1
  %129 = load i8*, i8** %62, align 8, !tbaa !40
  %130 = icmp eq i8* %129, %64
  %131 = load i64, i64* %65, align 8
  %132 = select i1 %130, i64 15, i64 %131
  %133 = icmp ugt i64 %128, %132
  br i1 %133, label %134, label %136

134:                                              ; preds = %124
  tail call void @_ZNSt7__cxx1112basic_stringIcSt11char_traitsIcESaIcEE9_M_mutateEmmPKcm(%"class.std::__cxx11::basic_string"* nonnull align 8 dereferenceable(32) %57, i64 %127, i64 0, i8* null, i64 1)
  %135 = load i8*, i8** %62, align 8, !tbaa !40
  br label %136

136:                                              ; preds = %134, %124
  %137 = phi i8* [ %135, %134 ], [ %129, %124 ]
  %138 = getelementptr inbounds i8, i8* %137, i64 %127
  store i8 %126, i8* %138, align 1, !tbaa !13
  store i64 %128, i64* %58, align 8, !tbaa !10
  %139 = load i8*, i8** %62, align 8, !tbaa !40
  %140 = getelementptr inbounds i8, i8* %139, i64 %128
  store i8 0, i8* %140, align 1, !tbaa !13
  br label %82
}

; Function Attrs: mustprogress sspstrong uwtable
define linkonce_odr dso_local void @_ZNSt8__detail8_ScannerIcE14_M_scan_normalEv(%"class.std::__detail::_Scanner"* nonnull align 8 dereferenceable(248) %0) local_unnamed_addr #8 comdat align 2 personality i32 (...)* @__gxx_personality_v0 {
  %2 = getelementptr inbounds %"class.std::__detail::_Scanner", %"class.std::__detail::_Scanner"* %0, i64 0, i32 1
  %3 = load i8*, i8** %2, align 8, !tbaa !80
  %4 = getelementptr inbounds i8, i8* %3, i64 1
  store i8* %4, i8** %2, align 8, !tbaa !80
  %5 = load i8, i8* %3, align 1, !tbaa !13
  %6 = getelementptr inbounds %"class.std::__detail::_Scanner", %"class.std::__detail::_Scanner"* %0, i64 0, i32 0, i32 12
  %7 = load i8*, i8** %6, align 8, !tbaa !144
  %8 = getelementptr inbounds %"class.std::__detail::_Scanner", %"class.std::__detail::_Scanner"* %0, i64 0, i32 3
  %9 = load %"class.std::ctype"*, %"class.std::ctype"** %8, align 8, !tbaa !146
  %10 = zext i8 %5 to i64
  %11 = getelementptr inbounds %"class.std::ctype", %"class.std::ctype"* %9, i64 0, i32 10, i64 %10
  %12 = load i8, i8* %11, align 1, !tbaa !13
  %13 = icmp eq i8 %12, 0
  br i1 %13, label %14, label %22

14:                                               ; preds = %1
  %15 = bitcast %"class.std::ctype"* %9 to i8 (%"class.std::ctype"*, i8, i8)***
  %16 = load i8 (%"class.std::ctype"*, i8, i8)**, i8 (%"class.std::ctype"*, i8, i8)*** %15, align 8, !tbaa !43
  %17 = getelementptr inbounds i8 (%"class.std::ctype"*, i8, i8)*, i8 (%"class.std::ctype"*, i8, i8)** %16, i64 8
  %18 = load i8 (%"class.std::ctype"*, i8, i8)*, i8 (%"class.std::ctype"*, i8, i8)** %17, align 8
  %19 = tail call signext i8 %18(%"class.std::ctype"* nonnull align 8 dereferenceable(570) %9, i8 signext %5, i8 signext 32)
  %20 = icmp eq i8 %19, 32
  br i1 %20, label %22, label %21

21:                                               ; preds = %14
  store i8 %19, i8* %11, align 1, !tbaa !13
  br label %22

22:                                               ; preds = %1, %14, %21
  %23 = phi i8 [ %12, %1 ], [ %19, %21 ], [ 32, %14 ]
  %24 = sext i8 %23 to i32
  %25 = tail call i8* @strchr(i8* noundef nonnull dereferenceable(1) %7, i32 %24) #29
  %26 = icmp eq i8* %25, null
  br i1 %26, label %27, label %33

27:                                               ; preds = %22
  %28 = getelementptr inbounds %"class.std::__detail::_Scanner", %"class.std::__detail::_Scanner"* %0, i64 0, i32 0, i32 9
  store i32 1, i32* %28, align 8, !tbaa !76
  %29 = getelementptr inbounds %"class.std::__detail::_Scanner", %"class.std::__detail::_Scanner"* %0, i64 0, i32 4
  %30 = getelementptr inbounds %"class.std::__detail::_Scanner", %"class.std::__detail::_Scanner"* %0, i64 0, i32 4, i32 1
  %31 = load i64, i64* %30, align 8, !tbaa !10
  %32 = tail call nonnull align 8 dereferenceable(32) %"class.std::__cxx11::basic_string"* @_ZNSt7__cxx1112basic_stringIcSt11char_traitsIcESaIcEE14_M_replace_auxEmmmc(%"class.std::__cxx11::basic_string"* nonnull align 8 dereferenceable(32) %29, i64 0, i64 %31, i64 1, i8 signext %5)
  br label %181

33:                                               ; preds = %22
  %34 = icmp eq i8 %5, 92
  br i1 %34, label %35, label %77

35:                                               ; preds = %33
  %36 = load i8*, i8** %2, align 8, !tbaa !80
  %37 = getelementptr inbounds %"class.std::__detail::_Scanner", %"class.std::__detail::_Scanner"* %0, i64 0, i32 2
  %38 = load i8*, i8** %37, align 8, !tbaa !81
  %39 = icmp eq i8* %36, %38
  br i1 %39, label %40, label %46

40:                                               ; preds = %35
  %41 = tail call i8* @__cxa_allocate_exception(i64 24) #25
  %42 = bitcast i8* %41 to %"class.std::regex_error"*
  invoke void @_ZNSt11regex_errorC2ENSt15regex_constants10error_typeEPKc(%"class.std::regex_error"* nonnull align 8 dereferenceable(20) %42, i32 2, i8* getelementptr inbounds ([39 x i8], [39 x i8]* @.str.8, i64 0, i64 0))
          to label %43 unwind label %44

43:                                               ; preds = %40
  tail call void @__cxa_throw(i8* %41, i8* bitcast (i8** @_ZTISt11regex_error to i8*), i8* bitcast (void (%"class.std::regex_error"*)* @_ZNSt11regex_errorD1Ev to i8*)) #26
  unreachable

44:                                               ; preds = %40
  %45 = landingpad { i8*, i32 }
          cleanup
  tail call void @__cxa_free_exception(i8* %41) #25
  resume { i8*, i32 } %45

46:                                               ; preds = %35
  %47 = getelementptr inbounds %"class.std::__detail::_Scanner", %"class.std::__detail::_Scanner"* %0, i64 0, i32 0, i32 8
  %48 = load i32, i32* %47, align 4, !tbaa !111
  %49 = and i32 %48, 288
  %50 = icmp eq i32 %49, 0
  br i1 %50, label %53, label %51

51:                                               ; preds = %46
  %52 = load i8, i8* %36, align 1, !tbaa !13
  switch i8 %52, label %53 [
    i8 40, label %74
    i8 41, label %74
    i8 123, label %74
  ]

53:                                               ; preds = %51, %46
  %54 = getelementptr inbounds %"class.std::__detail::_Scanner", %"class.std::__detail::_Scanner"* %0, i64 0, i32 5, i32 0
  %55 = load i64, i64* %54, align 8, !tbaa !112
  %56 = getelementptr inbounds %"class.std::__detail::_Scanner", %"class.std::__detail::_Scanner"* %0, i64 0, i32 5, i32 1
  %57 = load i64, i64* %56, align 8, !tbaa !112
  %58 = getelementptr inbounds %"class.std::__detail::_Scanner", %"class.std::__detail::_Scanner"* %0, i64 0, i32 0, i32 0, i64 0, i32 0
  %59 = getelementptr inbounds i8, i8* %58, i64 %57
  %60 = bitcast i8* %59 to %"class.std::__detail::_Scanner"*
  %61 = and i64 %55, 1
  %62 = icmp eq i64 %61, 0
  br i1 %62, label %70, label %63

63:                                               ; preds = %53
  %64 = bitcast i8* %59 to i8**
  %65 = load i8*, i8** %64, align 8, !tbaa !43
  %66 = add i64 %55, -1
  %67 = getelementptr i8, i8* %65, i64 %66, !nosanitize !156
  %68 = bitcast i8* %67 to void (%"class.std::__detail::_Scanner"*)**, !nosanitize !156
  %69 = load void (%"class.std::__detail::_Scanner"*)*, void (%"class.std::__detail::_Scanner"*)** %68, align 8, !nosanitize !156
  br label %72

70:                                               ; preds = %53
  %71 = inttoptr i64 %55 to void (%"class.std::__detail::_Scanner"*)*
  br label %72

72:                                               ; preds = %70, %63
  %73 = phi void (%"class.std::__detail::_Scanner"*)* [ %69, %63 ], [ %71, %70 ]
  tail call void %73(%"class.std::__detail::_Scanner"* nonnull align 8 dereferenceable(248) %60)
  br label %181

74:                                               ; preds = %51, %51, %51
  %75 = getelementptr inbounds i8, i8* %36, i64 1
  store i8* %75, i8** %2, align 8, !tbaa !80
  %76 = load i8, i8* %36, align 1, !tbaa !13
  br label %77

77:                                               ; preds = %74, %33
  %78 = phi i8 [ %76, %74 ], [ %5, %33 ]
  switch i8 %78, label %142 [
    i8 40, label %79
    i8 41, label %122
    i8 91, label %124
    i8 123, label %139
    i8 93, label %175
    i8 125, label %175
  ]

79:                                               ; preds = %77
  %80 = getelementptr inbounds %"class.std::__detail::_Scanner", %"class.std::__detail::_Scanner"* %0, i64 0, i32 0, i32 8
  %81 = load i32, i32* %80, align 4, !tbaa !111
  %82 = and i32 %81, 16
  %83 = icmp eq i32 %82, 0
  br i1 %83, label %116, label %84

84:                                               ; preds = %79
  %85 = load i8*, i8** %2, align 8, !tbaa !80
  %86 = load i8, i8* %85, align 1, !tbaa !13
  %87 = icmp eq i8 %86, 63
  br i1 %87, label %88, label %116

88:                                               ; preds = %84
  %89 = getelementptr inbounds i8, i8* %85, i64 1
  store i8* %89, i8** %2, align 8, !tbaa !80
  %90 = getelementptr inbounds %"class.std::__detail::_Scanner", %"class.std::__detail::_Scanner"* %0, i64 0, i32 2
  %91 = load i8*, i8** %90, align 8, !tbaa !81
  %92 = icmp eq i8* %89, %91
  br i1 %92, label %93, label %95

93:                                               ; preds = %88
  tail call void @_ZSt19__throw_regex_errorNSt15regex_constants10error_typeEPKc(i32 5, i8* getelementptr inbounds ([53 x i8], [53 x i8]* @.str.14, i64 0, i64 0))
  %94 = load i8*, i8** %2, align 8, !tbaa !80
  br label %95

95:                                               ; preds = %93, %88
  %96 = phi i8* [ %94, %93 ], [ %89, %88 ]
  %97 = load i8, i8* %96, align 1, !tbaa !13
  switch i8 %97, label %115 [
    i8 58, label %98
    i8 61, label %101
    i8 33, label %108
  ]

98:                                               ; preds = %95
  %99 = getelementptr inbounds i8, i8* %96, i64 1
  store i8* %99, i8** %2, align 8, !tbaa !80
  %100 = getelementptr inbounds %"class.std::__detail::_Scanner", %"class.std::__detail::_Scanner"* %0, i64 0, i32 0, i32 9
  store i32 6, i32* %100, align 8, !tbaa !76
  br label %181

101:                                              ; preds = %95
  %102 = getelementptr inbounds i8, i8* %96, i64 1
  store i8* %102, i8** %2, align 8, !tbaa !80
  %103 = getelementptr inbounds %"class.std::__detail::_Scanner", %"class.std::__detail::_Scanner"* %0, i64 0, i32 0, i32 9
  store i32 7, i32* %103, align 8, !tbaa !76
  %104 = getelementptr inbounds %"class.std::__detail::_Scanner", %"class.std::__detail::_Scanner"* %0, i64 0, i32 4
  %105 = getelementptr inbounds %"class.std::__detail::_Scanner", %"class.std::__detail::_Scanner"* %0, i64 0, i32 4, i32 1
