; ModuleID = 'build_ollvm/programs/p03477/s651320306.ll'
source_filename = "Project_CodeNet_C++1400/p03477/s651320306.cpp"
target datalayout = "e-m:e-p270:32:32-p271:32:32-p272:64:64-i64:64-f80:128-n8:16:32:64-S128"
target triple = "x86_64-pc-linux-gnu"

%"class.std::ios_base::Init" = type { i8 }
%"class.std::basic_istream" = type { i32 (...)**, i64, %"class.std::basic_ios" }
%"class.std::basic_ios" = type { %"class.std::ios_base", %"class.std::basic_ostream"*, i8, i8, %"class.std::basic_streambuf"*, %"class.std::ctype"*, %"class.std::num_put"*, %"class.std::num_get"* }
%"class.std::ios_base" = type { i32 (...)**, i64, i64, i32, i32, i32, %"struct.std::ios_base::_Callback_list"*, %"struct.std::ios_base::_Words", [8 x %"struct.std::ios_base::_Words"], i32, %"struct.std::ios_base::_Words"*, %"class.std::locale" }
%"struct.std::ios_base::_Callback_list" = type { %"struct.std::ios_base::_Callback_list"*, void (i32, %"class.std::ios_base"*, i32)*, i32, i32 }
%"struct.std::ios_base::_Words" = type { i8*, i64 }
%"class.std::locale" = type { %"class.std::locale::_Impl"* }
%"class.std::locale::_Impl" = type { i32, %"class.std::locale::facet"**, i64, %"class.std::locale::facet"**, i8** }
%"class.std::locale::facet" = type <{ i32 (...)**, i32, [4 x i8] }>
%"class.std::basic_ostream" = type { i32 (...)**, %"class.std::basic_ios" }
%"class.std::basic_streambuf" = type { i32 (...)**, i8*, i8*, i8*, i8*, i8*, i8*, %"class.std::locale" }
%"class.std::ctype" = type <{ %"class.std::locale::facet.base", [4 x i8], %struct.__locale_struct*, i8, [7 x i8], i32*, i32*, i16*, i8, [256 x i8], [256 x i8], i8, [6 x i8] }>
%"class.std::locale::facet.base" = type <{ i32 (...)**, i32 }>
%struct.__locale_struct = type { [13 x %struct.__locale_data*], i16*, i32*, i32*, [13 x i8*] }
%struct.__locale_data = type opaque
%"class.std::num_put" = type { %"class.std::locale::facet.base", [4 x i8] }
%"class.std::num_get" = type { %"class.std::locale::facet.base", [4 x i8] }

@_ZStL8__ioinit = internal global %"class.std::ios_base::Init" zeroinitializer, align 1
@__dso_handle = external global i8
@_ZSt3cin = external global %"class.std::basic_istream", align 8
@_ZSt4cout = external global %"class.std::basic_ostream", align 8
@.str = private unnamed_addr constant [5 x i8] c"Left\00", align 1
@.str.1 = private unnamed_addr constant [9 x i8] c"Balanced\00", align 1
@.str.2 = private unnamed_addr constant [6 x i8] c"Right\00", align 1
@llvm.global_ctors = appending global [1 x { i32, void ()*, i8* }] [{ i32, void ()*, i8* } { i32 65535, void ()* @_GLOBAL__sub_I_s651320306.cpp, i8* null }]
@x = common local_unnamed_addr global i32 0
@y = common local_unnamed_addr global i32 0
@x.3 = common local_unnamed_addr global i32 0
@y.4 = common local_unnamed_addr global i32 0
@x.5 = common local_unnamed_addr global i32 0
@y.6 = common local_unnamed_addr global i32 0

; Function Attrs: noinline uwtable
define internal fastcc void @__cxx_global_var_init() unnamed_addr #0 section ".text.startup" {
  %1 = alloca i1, align 1
  %2 = alloca i1, align 1
  %3 = load i32, i32* @x, align 4
  %4 = load i32, i32* @y, align 4
  %5 = add i32 %3, -1
  %6 = mul i32 %5, %3
  %7 = and i32 %6, 1
  %8 = icmp eq i32 %7, 0
  store i1 %8, i1* %2, align 1
  %9 = icmp slt i32 %4, 10
  store i1 %9, i1* %1, align 1
  br label %.outer

.outer:                                           ; preds = %.outer.backedge, %0
  %.0.ph = phi i32 [ 901541786, %0 ], [ %.0.ph.be, %.outer.backedge ]
  br label %10

10:                                               ; preds = %.outer, %10
  switch i32 %.0.ph, label %10 [
    i32 901541786, label %11
    i32 -80252022, label %14
    i32 1410408494, label %25
    i32 339068787, label %26
  ]

11:                                               ; preds = %10
  %.0..0..0. = load volatile i1, i1* %2, align 1
  %.0..0..0.1 = load volatile i1, i1* %1, align 1
  %12 = or i1 %.0..0..0., %.0..0..0.1
  %13 = select i1 %12, i32 -80252022, i32 339068787
  br label %.outer.backedge

14:                                               ; preds = %10
  tail call void @_ZNSt8ios_base4InitC1Ev(%"class.std::ios_base::Init"* nonnull @_ZStL8__ioinit)
  %15 = tail call i32 @__cxa_atexit(void (i8*)* bitcast (void (%"class.std::ios_base::Init"*)* @_ZNSt8ios_base4InitD1Ev to void (i8*)*), i8* getelementptr inbounds (%"class.std::ios_base::Init", %"class.std::ios_base::Init"* @_ZStL8__ioinit, i64 0, i32 0), i8* nonnull @__dso_handle) #5
  %16 = load i32, i32* @x, align 4
  %17 = load i32, i32* @y, align 4
  %18 = add i32 %16, -1
  %19 = mul i32 %18, %16
  %20 = and i32 %19, 1
  %21 = icmp eq i32 %20, 0
  %22 = icmp slt i32 %17, 10
  %23 = or i1 %22, %21
  %24 = select i1 %23, i32 1410408494, i32 339068787
  br label %.outer.backedge

25:                                               ; preds = %10
  ret void

26:                                               ; preds = %10
  tail call void @_ZNSt8ios_base4InitC1Ev(%"class.std::ios_base::Init"* nonnull @_ZStL8__ioinit)
  %27 = tail call i32 @__cxa_atexit(void (i8*)* bitcast (void (%"class.std::ios_base::Init"*)* @_ZNSt8ios_base4InitD1Ev to void (i8*)*), i8* getelementptr inbounds (%"class.std::ios_base::Init", %"class.std::ios_base::Init"* @_ZStL8__ioinit, i64 0, i32 0), i8* nonnull @__dso_handle) #5
  br label %.outer.backedge

.outer.backedge:                                  ; preds = %26, %14, %11
  %.0.ph.be = phi i32 [ %13, %11 ], [ %24, %14 ], [ -80252022, %26 ]
  br label %.outer
}

declare void @_ZNSt8ios_base4InitC1Ev(%"class.std::ios_base::Init"*) unnamed_addr #1

; Function Attrs: nounwind
declare void @_ZNSt8ios_base4InitD1Ev(%"class.std::ios_base::Init"*) unnamed_addr #2

; Function Attrs: nofree nounwind
declare i32 @__cxa_atexit(void (i8*)*, i8*, i8*) local_unnamed_addr #3

; Function Attrs: noinline norecurse uwtable
define i32 @main() local_unnamed_addr #4 {
  %1 = alloca i1, align 1
  %2 = alloca i1, align 1
  %3 = alloca i32*, align 8
  %4 = alloca i32*, align 8
  %5 = alloca i32*, align 8
  %6 = alloca i32*, align 8
  %7 = alloca i1, align 1
  %8 = alloca i1, align 1
  %9 = load i32, i32* @x.3, align 4
  %10 = load i32, i32* @y.4, align 4
  %11 = add i32 %9, -1
  %12 = mul i32 %11, %9
  %13 = and i32 %12, 1
  %14 = icmp eq i32 %13, 0
  store i1 %14, i1* %8, align 1
  %15 = icmp slt i32 %10, 10
  store i1 %15, i1* %7, align 1
  br label %16

16:                                               ; preds = %.backedge, %0
  %.0 = phi i32 [ -1516821116, %0 ], [ %.0.be, %.backedge ]
  switch i32 %.0, label %.backedge [
    i32 -1516821116, label %17
    i32 911831132, label %20
    i32 1835271808, label %53
    i32 -1426495687, label %55
    i32 -80631703, label %58
    i32 1469111475, label %68
    i32 -355198012, label %85
    i32 1201979051, label %87
    i32 265210243, label %90
    i32 -913805441, label %93
    i32 77363205, label %103
    i32 212524367, label %113
    i32 -1624776751, label %114
    i32 1611310141, label %115
    i32 417792339, label %132
    i32 -1148638296, label %133
  ]

.backedge:                                        ; preds = %16, %133, %132, %115, %113, %103, %93, %90, %87, %85, %68, %58, %55, %53, %20, %17
  %.0.be = phi i32 [ %.0, %16 ], [ 77363205, %133 ], [ 1469111475, %132 ], [ 911831132, %115 ], [ -1624776751, %113 ], [ %112, %103 ], [ %102, %93 ], [ -913805441, %90 ], [ -913805441, %87 ], [ %86, %85 ], [ %84, %68 ], [ %67, %58 ], [ -1624776751, %55 ], [ %54, %53 ], [ %52, %20 ], [ %19, %17 ]
  br label %16

17:                                               ; preds = %16
  %.0..0..0. = load volatile i1, i1* %8, align 1
  %.0..0..0.1 = load volatile i1, i1* %7, align 1
  %18 = or i1 %.0..0..0., %.0..0..0.1
  %19 = select i1 %18, i32 911831132, i32 1611310141
  br label %.backedge

20:                                               ; preds = %16
  %21 = alloca i32, align 4
  store i32* %21, i32** %6, align 8
  %22 = alloca i32, align 4
  store i32* %22, i32** %5, align 8
  %23 = alloca i32, align 4
  store i32* %23, i32** %4, align 8
  %24 = alloca i32, align 4
  store i32* %24, i32** %3, align 8
  %25 = call zeroext i1 @_ZNSt8ios_base15sync_with_stdioEb(i1 zeroext false)
  %26 = load i8*, i8** bitcast (%"class.std::basic_istream"* @_ZSt3cin to i8**), align 8
  %27 = getelementptr i8, i8* %26, i64 -24
  %28 = bitcast i8* %27 to i64*
  %29 = load i64, i64* %28, align 8
  %30 = getelementptr inbounds i8, i8* bitcast (%"class.std::basic_istream"* @_ZSt3cin to i8*), i64 %29
  %31 = bitcast i8* %30 to %"class.std::basic_ios"*
  %32 = call %"class.std::basic_ostream"* @_ZNSt9basic_iosIcSt11char_traitsIcEE3tieEPSo(%"class.std::basic_ios"* %31, %"class.std::basic_ostream"* null)
  %.0..0..0.2 = load volatile i32*, i32** %6, align 8
  %33 = call dereferenceable(280) %"class.std::basic_istream"* @_ZNSirsERi(%"class.std::basic_istream"* nonnull @_ZSt3cin, i32* dereferenceable(4) %.0..0..0.2)
  %.0..0..0.6 = load volatile i32*, i32** %5, align 8
  %34 = call dereferenceable(280) %"class.std::basic_istream"* @_ZNSirsERi(%"class.std::basic_istream"* nonnull %33, i32* dereferenceable(4) %.0..0..0.6)
  %.0..0..0.10 = load volatile i32*, i32** %4, align 8
  %35 = call dereferenceable(280) %"class.std::basic_istream"* @_ZNSirsERi(%"class.std::basic_istream"* nonnull %34, i32* dereferenceable(4) %.0..0..0.10)
  %.0..0..0.14 = load volatile i32*, i32** %3, align 8
  %36 = call dereferenceable(280) %"class.std::basic_istream"* @_ZNSirsERi(%"class.std::basic_istream"* nonnull %35, i32* dereferenceable(4) %.0..0..0.14)
  %.0..0..0.3 = load volatile i32*, i32** %6, align 8
  %37 = load i32, i32* %.0..0..0.3, align 4
  %.0..0..0.7 = load volatile i32*, i32** %5, align 8
  %38 = load i32, i32* %.0..0..0.7, align 4
  %39 = add i32 %38, %37
  %.0..0..0.11 = load volatile i32*, i32** %4, align 8
  %40 = load i32, i32* %.0..0..0.11, align 4
  %.0..0..0.15 = load volatile i32*, i32** %3, align 8
  %41 = load i32, i32* %.0..0..0.15, align 4
  %42 = add i32 %41, %40
  %43 = icmp sgt i32 %39, %42
  store i1 %43, i1* %2, align 1
  %44 = load i32, i32* @x.3, align 4
  %45 = load i32, i32* @y.4, align 4
  %46 = add i32 %44, -1
  %47 = mul i32 %46, %44
  %48 = and i32 %47, 1
  %49 = icmp eq i32 %48, 0
  %50 = icmp slt i32 %45, 10
  %51 = or i1 %50, %49
  %52 = select i1 %51, i32 1835271808, i32 1611310141
  br label %.backedge

53:                                               ; preds = %16
  %.0..0..0.18 = load volatile i1, i1* %2, align 1
  %54 = select i1 %.0..0..0.18, i32 -1426495687, i32 -80631703
  br label %.backedge

55:                                               ; preds = %16
  %56 = call dereferenceable(272) %"class.std::basic_ostream"* @_ZStlsISt11char_traitsIcEERSt13basic_ostreamIcT_ES5_PKc(%"class.std::basic_ostream"* nonnull dereferenceable(272) @_ZSt4cout, i8* getelementptr inbounds ([5 x i8], [5 x i8]* @.str, i64 0, i64 0))
  %57 = call dereferenceable(272) %"class.std::basic_ostream"* @_ZNSolsEPFRSoS_E(%"class.std::basic_ostream"* nonnull %56, %"class.std::basic_ostream"* (%"class.std::basic_ostream"*)* nonnull @_ZSt4endlIcSt11char_traitsIcEERSt13basic_ostreamIT_T0_ES6_)
  br label %.backedge

58:                                               ; preds = %16
  %59 = load i32, i32* @x.3, align 4
  %60 = load i32, i32* @y.4, align 4
  %61 = add i32 %59, -1
  %62 = mul i32 %61, %59
  %63 = and i32 %62, 1
  %64 = icmp eq i32 %63, 0
  %65 = icmp slt i32 %60, 10
  %66 = or i1 %65, %64
  %67 = select i1 %66, i32 1469111475, i32 417792339
  br label %.backedge

68:                                               ; preds = %16
  %.0..0..0.4 = load volatile i32*, i32** %6, align 8
  %69 = load i32, i32* %.0..0..0.4, align 4
  %.0..0..0.8 = load volatile i32*, i32** %5, align 8
  %70 = load i32, i32* %.0..0..0.8, align 4
  %71 = add i32 %70, %69
  %.0..0..0.12 = load volatile i32*, i32** %4, align 8
  %72 = load i32, i32* %.0..0..0.12, align 4
  %.0..0..0.16 = load volatile i32*, i32** %3, align 8
  %73 = load i32, i32* %.0..0..0.16, align 4
  %74 = add i32 %73, %72
  %75 = icmp eq i32 %71, %74
  store i1 %75, i1* %1, align 1
  %76 = load i32, i32* @x.3, align 4
  %77 = load i32, i32* @y.4, align 4
  %78 = add i32 %76, -1
  %79 = mul i32 %78, %76
  %80 = and i32 %79, 1
  %81 = icmp eq i32 %80, 0
  %82 = icmp slt i32 %77, 10
  %83 = or i1 %82, %81
  %84 = select i1 %83, i32 -355198012, i32 417792339
  br label %.backedge

85:                                               ; preds = %16
  %.0..0..0.19 = load volatile i1, i1* %1, align 1
  %86 = select i1 %.0..0..0.19, i32 1201979051, i32 265210243
  br label %.backedge

87:                                               ; preds = %16
  %88 = call dereferenceable(272) %"class.std::basic_ostream"* @_ZStlsISt11char_traitsIcEERSt13basic_ostreamIcT_ES5_PKc(%"class.std::basic_ostream"* nonnull dereferenceable(272) @_ZSt4cout, i8* getelementptr inbounds ([9 x i8], [9 x i8]* @.str.1, i64 0, i64 0))
  %89 = call dereferenceable(272) %"class.std::basic_ostream"* @_ZNSolsEPFRSoS_E(%"class.std::basic_ostream"* nonnull %88, %"class.std::basic_ostream"* (%"class.std::basic_ostream"*)* nonnull @_ZSt4endlIcSt11char_traitsIcEERSt13basic_ostreamIT_T0_ES6_)
  br label %.backedge

90:                                               ; preds = %16
  %91 = call dereferenceable(272) %"class.std::basic_ostream"* @_ZStlsISt11char_traitsIcEERSt13basic_ostreamIcT_ES5_PKc(%"class.std::basic_ostream"* nonnull dereferenceable(272) @_ZSt4cout, i8* getelementptr inbounds ([6 x i8], [6 x i8]* @.str.2, i64 0, i64 0))
  %92 = call dereferenceable(272) %"class.std::basic_ostream"* @_ZNSolsEPFRSoS_E(%"class.std::basic_ostream"* nonnull %91, %"class.std::basic_ostream"* (%"class.std::basic_ostream"*)* nonnull @_ZSt4endlIcSt11char_traitsIcEERSt13basic_ostreamIT_T0_ES6_)
  br label %.backedge

93:                                               ; preds = %16
  %94 = load i32, i32* @x.3, align 4
  %95 = load i32, i32* @y.4, align 4
  %96 = add i32 %94, -1
  %97 = mul i32 %96, %94
  %98 = and i32 %97, 1
  %99 = icmp eq i32 %98, 0
  %100 = icmp slt i32 %95, 10
  %101 = or i1 %100, %99
  %102 = select i1 %101, i32 77363205, i32 -1148638296
  br label %.backedge

103:                                              ; preds = %16
  %104 = load i32, i32* @x.3, align 4
  %105 = load i32, i32* @y.4, align 4
  %106 = add i32 %104, -1
  %107 = mul i32 %106, %104
  %108 = and i32 %107, 1
  %109 = icmp eq i32 %108, 0
  %110 = icmp slt i32 %105, 10
  %111 = or i1 %110, %109
  %112 = select i1 %111, i32 212524367, i32 -1148638296
  br label %.backedge

113:                                              ; preds = %16
  br label %.backedge

114:                                              ; preds = %16
  ret i32 0

115:                                              ; preds = %16
  %116 = alloca i32, align 4
  %117 = alloca i32, align 4
  %118 = alloca i32, align 4
  %119 = alloca i32, align 4
  %120 = call zeroext i1 @_ZNSt8ios_base15sync_with_stdioEb(i1 zeroext false)
  %121 = load i8*, i8** bitcast (%"class.std::basic_istream"* @_ZSt3cin to i8**), align 8
  %122 = getelementptr i8, i8* %121, i64 -24
  %123 = bitcast i8* %122 to i64*
  %124 = load i64, i64* %123, align 8
  %125 = getelementptr inbounds i8, i8* bitcast (%"class.std::basic_istream"* @_ZSt3cin to i8*), i64 %124
  %126 = bitcast i8* %125 to %"class.std::basic_ios"*
  %127 = call %"class.std::basic_ostream"* @_ZNSt9basic_iosIcSt11char_traitsIcEE3tieEPSo(%"class.std::basic_ios"* %126, %"class.std::basic_ostream"* null)
  %128 = call dereferenceable(280) %"class.std::basic_istream"* @_ZNSirsERi(%"class.std::basic_istream"* nonnull @_ZSt3cin, i32* nonnull dereferenceable(4) %116)
  %129 = call dereferenceable(280) %"class.std::basic_istream"* @_ZNSirsERi(%"class.std::basic_istream"* nonnull %128, i32* nonnull dereferenceable(4) %117)
  %130 = call dereferenceable(280) %"class.std::basic_istream"* @_ZNSirsERi(%"class.std::basic_istream"* nonnull %129, i32* nonnull dereferenceable(4) %118)
  %131 = call dereferenceable(280) %"class.std::basic_istream"* @_ZNSirsERi(%"class.std::basic_istream"* nonnull %130, i32* nonnull dereferenceable(4) %119)
  br label %.backedge

132:                                              ; preds = %16
  %.0..0..0.5 = load volatile i32*, i32** %6, align 8
  %.0..0..0.9 = load volatile i32*, i32** %5, align 8
  %.0..0..0.13 = load volatile i32*, i32** %4, align 8
  %.0..0..0.17 = load volatile i32*, i32** %3, align 8
  br label %.backedge

133:                                              ; preds = %16
  br label %.backedge
}

declare zeroext i1 @_ZNSt8ios_base15sync_with_stdioEb(i1 zeroext) local_unnamed_addr #1

declare %"class.std::basic_ostream"* @_ZNSt9basic_iosIcSt11char_traitsIcEE3tieEPSo(%"class.std::basic_ios"*, %"class.std::basic_ostream"*) local_unnamed_addr #1

declare dereferenceable(280) %"class.std::basic_istream"* @_ZNSirsERi(%"class.std::basic_istream"*, i32* dereferenceable(4)) local_unnamed_addr #1

declare dereferenceable(272) %"class.std::basic_ostream"* @_ZStlsISt11char_traitsIcEERSt13basic_ostreamIcT_ES5_PKc(%"class.std::basic_ostream"* dereferenceable(272), i8*) local_unnamed_addr #1

declare dereferenceable(272) %"class.std::basic_ostream"* @_ZNSolsEPFRSoS_E(%"class.std::basic_ostream"*, %"class.std::basic_ostream"* (%"class.std::basic_ostream"*)*) local_unnamed_addr #1

declare dereferenceable(272) %"class.std::basic_ostream"* @_ZSt4endlIcSt11char_traitsIcEERSt13basic_ostreamIT_T0_ES6_(%"class.std::basic_ostream"* dereferenceable(272)) #1

; Function Attrs: noinline uwtable
define internal void @_GLOBAL__sub_I_s651320306.cpp() #0 section ".text.startup" {
  %1 = alloca i1, align 1
  %2 = alloca i1, align 1
  %3 = load i32, i32* @x.5, align 4
  %4 = load i32, i32* @y.6, align 4
  %5 = add i32 %3, -1
  %6 = mul i32 %5, %3
  %7 = and i32 %6, 1
  %8 = icmp eq i32 %7, 0
  store i1 %8, i1* %2, align 1
  %9 = icmp slt i32 %4, 10
  store i1 %9, i1* %1, align 1
  br label %.outer

.outer:                                           ; preds = %.outer.backedge, %0
  %.0.ph = phi i32 [ -1937299950, %0 ], [ %.0.ph.be, %.outer.backedge ]
  br label %10

10:                                               ; preds = %.outer, %10
  switch i32 %.0.ph, label %10 [
    i32 -1937299950, label %11
    i32 -928063819, label %14
    i32 -1789565482, label %24
    i32 -1301719119, label %25
  ]

11:                                               ; preds = %10
  %.0..0..0. = load volatile i1, i1* %2, align 1
  %.0..0..0.1 = load volatile i1, i1* %1, align 1
  %12 = or i1 %.0..0..0., %.0..0..0.1
  %13 = select i1 %12, i32 -928063819, i32 -1301719119
  br label %.outer.backedge

14:                                               ; preds = %10
  tail call fastcc void @__cxx_global_var_init()
  %15 = load i32, i32* @x.5, align 4
  %16 = load i32, i32* @y.6, align 4
  %17 = add i32 %15, -1
  %18 = mul i32 %17, %15
  %19 = and i32 %18, 1
  %20 = icmp eq i32 %19, 0
  %21 = icmp slt i32 %16, 10
  %22 = or i1 %21, %20
  %23 = select i1 %22, i32 -1789565482, i32 -1301719119
  br label %.outer.backedge

24:                                               ; preds = %10
  ret void

25:                                               ; preds = %10
  tail call fastcc void @__cxx_global_var_init()
  br label %.outer.backedge

.outer.backedge:                                  ; preds = %25, %14, %11
  %.0.ph.be = phi i32 [ %13, %11 ], [ %23, %14 ], [ -928063819, %25 ]
  br label %.outer
}

attributes #0 = { noinline uwtable "correctly-rounded-divide-sqrt-fp-math"="false" "disable-tail-calls"="false" "less-precise-fpmad"="false" "no-frame-pointer-elim"="true" "no-frame-pointer-elim-non-leaf" "no-infs-fp-math"="false" "no-jump-tables"="false" "no-nans-fp-math"="false" "no-signed-zeros-fp-math"="false" "no-trapping-math"="false" "stack-protector-buffer-size"="8" "target-cpu"="x86-64" "target-features"="+fxsr,+mmx,+sse,+sse2,+x87" "unsafe-fp-math"="false" "use-soft-float"="false" }
attributes #1 = { "correctly-rounded-divide-sqrt-fp-math"="false" "disable-tail-calls"="false" "less-precise-fpmad"="false" "no-frame-pointer-elim"="true" "no-frame-pointer-elim-non-leaf" "no-infs-fp-math"="false" "no-nans-fp-math"="false" "no-signed-zeros-fp-math"="false" "no-trapping-math"="false" "stack-protector-buffer-size"="8" "target-cpu"="x86-64" "target-features"="+fxsr,+mmx,+sse,+sse2,+x87" "unsafe-fp-math"="false" "use-soft-float"="false" }
attributes #2 = { nounwind "correctly-rounded-divide-sqrt-fp-math"="false" "disable-tail-calls"="false" "less-precise-fpmad"="false" "no-frame-pointer-elim"="true" "no-frame-pointer-elim-non-leaf" "no-infs-fp-math"="false" "no-nans-fp-math"="false" "no-signed-zeros-fp-math"="false" "no-trapping-math"="false" "stack-protector-buffer-size"="8" "target-cpu"="x86-64" "target-features"="+fxsr,+mmx,+sse,+sse2,+x87" "unsafe-fp-math"="false" "use-soft-float"="false" }
attributes #3 = { nofree nounwind }
attributes #4 = { noinline norecurse uwtable "correctly-rounded-divide-sqrt-fp-math"="false" "disable-tail-calls"="false" "less-precise-fpmad"="false" "no-frame-pointer-elim"="true" "no-frame-pointer-elim-non-leaf" "no-infs-fp-math"="false" "no-jump-tables"="false" "no-nans-fp-math"="false" "no-signed-zeros-fp-math"="false" "no-trapping-math"="false" "stack-protector-buffer-size"="8" "target-cpu"="x86-64" "target-features"="+fxsr,+mmx,+sse,+sse2,+x87" "unsafe-fp-math"="false" "use-soft-float"="false" }
attributes #5 = { nounwind }

!llvm.ident = !{!0}

!0 = !{!"Obfuscator-LLVM clang version 4.0.1  (based on Obfuscator-LLVM 4.0.1)"}
