; ModuleID = 'Project_CodeNet_C++1400/p03132/s779523413.cpp'
source_filename = "Project_CodeNet_C++1400/p03132/s779523413.cpp"
target datalayout = "e-m:e-p270:32:32-p271:32:32-p272:64:64-i64:64-f80:128-n8:16:32:64-S128"
target triple = "x86_64-pc-linux-gnu"

%"class.std::ios_base::Init" = type { i8 }
%"class.std::basic_ostream" = type { i32 (...)**, %"class.std::basic_ios" }
%"class.std::basic_ios" = type { %"class.std::ios_base", %"class.std::basic_ostream"*, i8, i8, %"class.std::basic_streambuf"*, %"class.std::ctype"*, %"class.std::num_put"*, %"class.std::num_get"* }
%"class.std::ios_base" = type { i32 (...)**, i64, i64, i32, i32, i32, %"struct.std::ios_base::_Callback_list"*, %"struct.std::ios_base::_Words", [8 x %"struct.std::ios_base::_Words"], i32, %"struct.std::ios_base::_Words"*, %"class.std::locale" }
%"struct.std::ios_base::_Callback_list" = type { %"struct.std::ios_base::_Callback_list"*, void (i32, %"class.std::ios_base"*, i32)*, i32, i32 }
%"struct.std::ios_base::_Words" = type { i8*, i64 }
%"class.std::locale" = type { %"class.std::locale::_Impl"* }
%"class.std::locale::_Impl" = type { i32, %"class.std::locale::facet"**, i64, %"class.std::locale::facet"**, i8** }
%"class.std::locale::facet" = type <{ i32 (...)**, i32, [4 x i8] }>
%"class.std::basic_streambuf" = type { i32 (...)**, i8*, i8*, i8*, i8*, i8*, i8*, %"class.std::locale" }
%"class.std::ctype" = type <{ %"class.std::locale::facet.base", [4 x i8], %struct.__locale_struct*, i8, [7 x i8], i32*, i32*, i16*, i8, [256 x i8], [256 x i8], i8, [6 x i8] }>
%"class.std::locale::facet.base" = type <{ i32 (...)**, i32 }>
%struct.__locale_struct = type { [13 x %struct.__locale_data*], i16*, i32*, i32*, [13 x i8*] }
%struct.__locale_data = type opaque
%"class.std::num_put" = type { %"class.std::locale::facet.base", [4 x i8] }
%"class.std::num_get" = type { %"class.std::locale::facet.base", [4 x i8] }
%"class.std::basic_istream" = type { i32 (...)**, i64, %"class.std::basic_ios" }
%"class.std::vector.0" = type { %"struct.std::_Vector_base.1" }
%"struct.std::_Vector_base.1" = type { %"struct.std::_Vector_base<std::vector<int>, std::allocator<std::vector<int>>>::_Vector_impl" }
%"struct.std::_Vector_base<std::vector<int>, std::allocator<std::vector<int>>>::_Vector_impl" = type { %"struct.std::_Vector_base<std::vector<int>, std::allocator<std::vector<int>>>::_Vector_impl_data" }
%"struct.std::_Vector_base<std::vector<int>, std::allocator<std::vector<int>>>::_Vector_impl_data" = type { %"class.std::vector"*, %"class.std::vector"*, %"class.std::vector"* }
%"class.std::vector" = type { %"struct.std::_Vector_base" }
%"struct.std::_Vector_base" = type { %"struct.std::_Vector_base<int, std::allocator<int>>::_Vector_impl" }
%"struct.std::_Vector_base<int, std::allocator<int>>::_Vector_impl" = type { %"struct.std::_Vector_base<int, std::allocator<int>>::_Vector_impl_data" }
%"struct.std::_Vector_base<int, std::allocator<int>>::_Vector_impl_data" = type { i32*, i32*, i32* }

$_ZNSt6vectorIS_IiSaIiEESaIS1_EED2Ev = comdat any

$__clang_call_terminate = comdat any

$_ZNSt22__uninitialized_fill_nILb0EE15__uninit_fill_nIPSt6vectorIiSaIiEEmS4_EET_S6_T0_RKT1_ = comdat any

@_ZStL8__ioinit = internal global %"class.std::ios_base::Init" zeroinitializer, align 1
@__dso_handle = external hidden global i8
@_ZSt4cout = external global %"class.std::basic_ostream", align 8
@.str = private unnamed_addr constant [4 x i8] c"Yes\00", align 1
@.str.1 = private unnamed_addr constant [3 x i8] c"No\00", align 1
@.str.2 = private unnamed_addr constant [2 x i8] c"\0A\00", align 1
@_ZSt3cin = external global %"class.std::basic_istream", align 8
@.str.3 = private unnamed_addr constant [49 x i8] c"cannot create std::vector larger than max_size()\00", align 1
@llvm.global_ctors = appending global [1 x { i32, void ()*, i8* }] [{ i32, void ()*, i8* } { i32 65535, void ()* @_GLOBAL__sub_I_s779523413.cpp, i8* null }]

declare void @_ZNSt8ios_base4InitC1Ev(%"class.std::ios_base::Init"* nonnull align 1 dereferenceable(1)) unnamed_addr #0

; Function Attrs: nounwind
declare void @_ZNSt8ios_base4InitD1Ev(%"class.std::ios_base::Init"* nonnull align 1 dereferenceable(1)) unnamed_addr #1

; Function Attrs: nofree nounwind
declare i32 @__cxa_atexit(void (i8*)*, i8*, i8*) local_unnamed_addr #2

; Function Attrs: mustprogress sspstrong uwtable
define dso_local void @_Z3yesb(i1 zeroext %0) local_unnamed_addr #3 {
  %2 = select i1 %0, i8* getelementptr inbounds ([4 x i8], [4 x i8]* @.str, i64 0, i64 0), i8* getelementptr inbounds ([3 x i8], [3 x i8]* @.str.1, i64 0, i64 0)
  %3 = select i1 %0, i64 3, i64 2
  %4 = tail call nonnull align 8 dereferenceable(8) %"class.std::basic_ostream"* @_ZSt16__ostream_insertIcSt11char_traitsIcEERSt13basic_ostreamIT_T0_ES6_PKS3_l(%"class.std::basic_ostream"* nonnull align 8 dereferenceable(8) @_ZSt4cout, i8* nonnull %2, i64 %3)
  %5 = tail call nonnull align 8 dereferenceable(8) %"class.std::basic_ostream"* @_ZSt16__ostream_insertIcSt11char_traitsIcEERSt13basic_ostreamIT_T0_ES6_PKS3_l(%"class.std::basic_ostream"* nonnull align 8 dereferenceable(8) @_ZSt4cout, i8* nonnull getelementptr inbounds ([2 x i8], [2 x i8]* @.str.2, i64 0, i64 0), i64 1)
  ret void
}

; Function Attrs: norecurse sspstrong uwtable
define dso_local i32 @main() local_unnamed_addr #4 personality i8* bitcast (i32 (...)* @__gxx_personality_v0 to i8*) {
  %1 = alloca i32, align 4
  %2 = alloca %"class.std::vector.0", align 8
  %3 = alloca %"class.std::vector", align 8
  %4 = tail call zeroext i1 @_ZNSt8ios_base15sync_with_stdioEb(i1 zeroext false)
  %5 = load i8*, i8** bitcast (%"class.std::basic_istream"* @_ZSt3cin to i8**), align 8, !tbaa !5
  %6 = getelementptr i8, i8* %5, i64 -24
  %7 = bitcast i8* %6 to i64*
  %8 = load i64, i64* %7, align 8
  %9 = add nsw i64 %8, 216
  %10 = getelementptr inbounds i8, i8* bitcast (%"class.std::basic_istream"* @_ZSt3cin to i8*), i64 %9
  %11 = bitcast i8* %10 to %"class.std::basic_ostream"**
  store %"class.std::basic_ostream"* null, %"class.std::basic_ostream"** %11, align 8, !tbaa !8
  %12 = load i8*, i8** bitcast (%"class.std::basic_ostream"* @_ZSt4cout to i8**), align 8, !tbaa !5
  %13 = getelementptr i8, i8* %12, i64 -24
  %14 = bitcast i8* %13 to i64*
  %15 = load i64, i64* %14, align 8
  %16 = add nsw i64 %15, 216
  %17 = getelementptr inbounds i8, i8* bitcast (%"class.std::basic_ostream"* @_ZSt4cout to i8*), i64 %16
  %18 = bitcast i8* %17 to %"class.std::basic_ostream"**
  store %"class.std::basic_ostream"* null, %"class.std::basic_ostream"** %18, align 8, !tbaa !8
  %19 = bitcast i32* %1 to i8*
  call void @llvm.lifetime.start.p0i8(i64 4, i8* nonnull %19) #14
  %20 = call nonnull align 8 dereferenceable(16) %"class.std::basic_istream"* @_ZNSirsERi(%"class.std::basic_istream"* nonnull align 8 dereferenceable(16) @_ZSt3cin, i32* nonnull align 4 dereferenceable(4) %1)
  %21 = load i32, i32* %1, align 4, !tbaa !13
  %22 = sext i32 %21 to i64
  %23 = icmp slt i32 %21, 0
  br i1 %23, label %24, label %25

24:                                               ; preds = %0
  call void @_ZSt20__throw_length_errorPKc(i8* getelementptr inbounds ([49 x i8], [49 x i8]* @.str.3, i64 0, i64 0)) #15
  unreachable

25:                                               ; preds = %0
  %26 = icmp eq i32 %21, 0
  br i1 %26, label %42, label %27

27:                                               ; preds = %25
  %28 = shl nuw nsw i64 %22, 2
  %29 = call noalias nonnull i8* @_Znwm(i64 %28) #16
  %30 = bitcast i8* %29 to i32*
  store i32 0, i32* %30, align 4, !tbaa !13
  %31 = icmp eq i32 %21, 1
  br i1 %31, label %35, label %32

32:                                               ; preds = %27
  %33 = getelementptr inbounds i8, i8* %29, i64 4
  %34 = add nsw i64 %28, -4
  call void @llvm.memset.p0i8.i64(i8* nonnull align 4 %33, i8 0, i64 %34, i1 false)
  br label %35

35:                                               ; preds = %32, %27
  %36 = load i32, i32* %1, align 4, !tbaa !13
  %37 = icmp sgt i32 %36, 0
  br i1 %37, label %38, label %42

38:                                               ; preds = %35
  %39 = zext i32 %36 to i64
  br label %62

40:                                               ; preds = %66
  %41 = load i32, i32* %1, align 4, !tbaa !13
  br label %42

42:                                               ; preds = %25, %40, %35
  %43 = phi i32* [ %30, %40 ], [ %30, %35 ], [ null, %25 ]
  %44 = phi i32 [ %41, %40 ], [ %36, %35 ], [ 0, %25 ]
  %45 = bitcast %"class.std::vector.0"* %2 to i8*
  call void @llvm.lifetime.start.p0i8(i64 24, i8* nonnull %45) #14
  %46 = bitcast %"class.std::vector"* %3 to i8*
  call void @llvm.lifetime.start.p0i8(i64 24, i8* nonnull %46) #14
  call void @llvm.memset.p0i8.i64(i8* noundef nonnull align 8 dereferenceable(24) %46, i8 0, i64 24, i1 false) #14
  %47 = invoke noalias nonnull i8* @_Znwm(i64 20) #16
          to label %48 unwind label %131

48:                                               ; preds = %42
  %49 = bitcast %"class.std::vector"* %3 to i8**
  store i8* %47, i8** %49, align 8, !tbaa !15
  %50 = getelementptr inbounds i8, i8* %47, i64 20
  %51 = getelementptr inbounds %"class.std::vector", %"class.std::vector"* %3, i64 0, i32 0, i32 0, i32 0, i32 2
  %52 = bitcast i32** %51 to i8**
  store i8* %50, i8** %52, align 8, !tbaa !17
  %53 = bitcast i8* %47 to <4 x i32>*
  store <4 x i32> <i32 1000000000, i32 1000000000, i32 1000000000, i32 1000000000>, <4 x i32>* %53, align 4, !tbaa !13
  %54 = getelementptr inbounds i8, i8* %47, i64 16
  %55 = bitcast i8* %54 to i32*
  store i32 1000000000, i32* %55, align 4, !tbaa !13
  %56 = getelementptr inbounds %"class.std::vector", %"class.std::vector"* %3, i64 0, i32 0, i32 0, i32 0, i32 0
  %57 = getelementptr inbounds %"class.std::vector", %"class.std::vector"* %3, i64 0, i32 0, i32 0, i32 0, i32 1
  %58 = bitcast i32** %57 to i8**
  store i8* %50, i8** %58, align 8, !tbaa !18
  %59 = add nsw i32 %44, 1
  %60 = sext i32 %59 to i64
  %61 = icmp slt i32 %44, -1
  br i1 %61, label %71, label %73

62:                                               ; preds = %38, %66
  %63 = phi i64 [ 0, %38 ], [ %67, %66 ]
  %64 = getelementptr inbounds i32, i32* %30, i64 %63
  %65 = invoke nonnull align 8 dereferenceable(16) %"class.std::basic_istream"* @_ZNSirsERi(%"class.std::basic_istream"* nonnull align 8 dereferenceable(16) @_ZSt3cin, i32* nonnull align 4 dereferenceable(4) %64)
          to label %66 unwind label %69

66:                                               ; preds = %62
  %67 = add nuw nsw i64 %63, 1
  %68 = icmp eq i64 %67, %39
  br i1 %68, label %40, label %62, !llvm.loop !19

69:                                               ; preds = %62
  %70 = landingpad { i8*, i32 }
          cleanup
  br label %202

71:                                               ; preds = %48
  invoke void @_ZSt20__throw_length_errorPKc(i8* getelementptr inbounds ([49 x i8], [49 x i8]* @.str.3, i64 0, i64 0)) #15
          to label %72 unwind label %133

72:                                               ; preds = %71
  unreachable

73:                                               ; preds = %48
  call void @llvm.memset.p0i8.i64(i8* noundef nonnull align 8 dereferenceable(24) %45, i8 0, i64 24, i1 false) #14
  %74 = icmp eq i32 %59, 0
  br i1 %74, label %80, label %75

75:                                               ; preds = %73
  %76 = mul nuw nsw i64 %60, 24
  %77 = invoke noalias nonnull i8* @_Znwm(i64 %76) #16
          to label %78 unwind label %133

78:                                               ; preds = %75
  %79 = bitcast i8* %77 to %"class.std::vector"*
  br label %80

80:                                               ; preds = %78, %73
  %81 = phi %"class.std::vector"* [ %79, %78 ], [ null, %73 ]
  %82 = getelementptr inbounds %"class.std::vector.0", %"class.std::vector.0"* %2, i64 0, i32 0, i32 0, i32 0, i32 0
  store %"class.std::vector"* %81, %"class.std::vector"** %82, align 8, !tbaa !21
  %83 = getelementptr inbounds %"class.std::vector.0", %"class.std::vector.0"* %2, i64 0, i32 0, i32 0, i32 0, i32 1
  store %"class.std::vector"* %81, %"class.std::vector"** %83, align 8, !tbaa !23
  %84 = getelementptr inbounds %"class.std::vector", %"class.std::vector"* %81, i64 %60
  %85 = getelementptr inbounds %"class.std::vector.0", %"class.std::vector.0"* %2, i64 0, i32 0, i32 0, i32 0, i32 2
  store %"class.std::vector"* %84, %"class.std::vector"** %85, align 8, !tbaa !24
  %86 = invoke %"class.std::vector"* @_ZNSt22__uninitialized_fill_nILb0EE15__uninit_fill_nIPSt6vectorIiSaIiEEmS4_EET_S6_T0_RKT1_(%"class.std::vector"* %81, i64 %60, %"class.std::vector"* nonnull align 8 dereferenceable(24) %3)
          to label %92 unwind label %87

87:                                               ; preds = %80
  %88 = landingpad { i8*, i32 }
          cleanup
  %89 = icmp eq %"class.std::vector"* %81, null
  br i1 %89, label %135, label %90

90:                                               ; preds = %87
  %91 = bitcast %"class.std::vector"* %81 to i8*
  call void @_ZdlPv(i8* nonnull %91) #14
  br label %135

92:                                               ; preds = %80
  store %"class.std::vector"* %86, %"class.std::vector"** %83, align 8, !tbaa !23
  %93 = load i32*, i32** %56, align 8, !tbaa !15
  %94 = icmp eq i32* %93, null
  br i1 %94, label %97, label %95

95:                                               ; preds = %92
  %96 = bitcast i32* %93 to i8*
  call void @_ZdlPv(i8* nonnull %96) #14
  br label %97

97:                                               ; preds = %92, %95
  call void @llvm.lifetime.end.p0i8(i64 24, i8* nonnull %46) #14
  %98 = getelementptr inbounds %"class.std::vector", %"class.std::vector"* %81, i64 0, i32 0, i32 0, i32 0, i32 0
  %99 = load i32*, i32** %98, align 8, !tbaa !15
  store i32 0, i32* %99, align 4, !tbaa !13
  %100 = load i32, i32* %1, align 4, !tbaa !13
  %101 = icmp sgt i32 %100, 0
  br i1 %101, label %102, label %106

102:                                              ; preds = %97
  %103 = zext i32 %100 to i64
  br label %208

104:                                              ; preds = %208
  %105 = load i32, i32* %1, align 4, !tbaa !13
  br label %106

106:                                              ; preds = %104, %97
  %107 = phi i32 [ %105, %104 ], [ %100, %97 ]
  %108 = sext i32 %107 to i64
  %109 = getelementptr inbounds %"class.std::vector", %"class.std::vector"* %81, i64 %108, i32 0, i32 0, i32 0, i32 0
  %110 = load i32*, i32** %109, align 8, !tbaa !15
  %111 = load i32, i32* %110, align 4, !tbaa !13
  %112 = icmp slt i32 %111, 1000000000
  %113 = select i1 %112, i32 %111, i32 1000000000
  %114 = getelementptr inbounds i32, i32* %110, i64 1
  %115 = load i32, i32* %114, align 4, !tbaa !13
  %116 = icmp slt i32 %115, %113
  %117 = select i1 %116, i32 %115, i32 %113
  %118 = getelementptr inbounds i32, i32* %110, i64 2
  %119 = load i32, i32* %118, align 4, !tbaa !13
  %120 = icmp slt i32 %119, %117
  %121 = select i1 %120, i32 %119, i32 %117
  %122 = getelementptr inbounds i32, i32* %110, i64 3
  %123 = load i32, i32* %122, align 4, !tbaa !13
  %124 = icmp slt i32 %123, %121
  %125 = select i1 %124, i32 %123, i32 %121
  %126 = getelementptr inbounds i32, i32* %110, i64 4
  %127 = load i32, i32* %126, align 4, !tbaa !13
  %128 = icmp slt i32 %127, %125
  %129 = select i1 %128, i32 %127, i32 %125
  %130 = invoke nonnull align 8 dereferenceable(8) %"class.std::basic_ostream"* @_ZNSolsEi(%"class.std::basic_ostream"* nonnull align 8 dereferenceable(8) @_ZSt4cout, i32 %129)
          to label %143 unwind label %197

131:                                              ; preds = %42
  %132 = landingpad { i8*, i32 }
          cleanup
  br label %141

133:                                              ; preds = %75, %71
  %134 = landingpad { i8*, i32 }
          cleanup
  br label %135

135:                                              ; preds = %87, %90, %133
  %136 = phi { i8*, i32 } [ %134, %133 ], [ %88, %90 ], [ %88, %87 ]
  %137 = load i32*, i32** %56, align 8, !tbaa !15
  %138 = icmp eq i32* %137, null
  br i1 %138, label %141, label %139

139:                                              ; preds = %135
  %140 = bitcast i32* %137 to i8*
  call void @_ZdlPv(i8* nonnull %140) #14
  br label %141

141:                                              ; preds = %139, %135, %131
  %142 = phi { i8*, i32 } [ %132, %131 ], [ %136, %135 ], [ %136, %139 ]
  call void @llvm.lifetime.end.p0i8(i64 24, i8* nonnull %46) #14
  br label %199

143:                                              ; preds = %106
  %144 = bitcast %"class.std::basic_ostream"* %130 to i8**
  %145 = load i8*, i8** %144, align 8, !tbaa !5
  %146 = getelementptr i8, i8* %145, i64 -24
  %147 = bitcast i8* %146 to i64*
  %148 = load i64, i64* %147, align 8
  %149 = bitcast %"class.std::basic_ostream"* %130 to i8*
  %150 = add nsw i64 %148, 240
  %151 = getelementptr inbounds i8, i8* %149, i64 %150
  %152 = bitcast i8* %151 to %"class.std::ctype"**
  %153 = load %"class.std::ctype"*, %"class.std::ctype"** %152, align 8, !tbaa !25
  %154 = icmp eq %"class.std::ctype"* %153, null
  br i1 %154, label %155, label %157

155:                                              ; preds = %143
  invoke void @_ZSt16__throw_bad_castv() #15
          to label %156 unwind label %197

156:                                              ; preds = %155
  unreachable

157:                                              ; preds = %143
  %158 = getelementptr inbounds %"class.std::ctype", %"class.std::ctype"* %153, i64 0, i32 8
  %159 = load i8, i8* %158, align 8, !tbaa !26
  %160 = icmp eq i8 %159, 0
  br i1 %160, label %164, label %161

161:                                              ; preds = %157
  %162 = getelementptr inbounds %"class.std::ctype", %"class.std::ctype"* %153, i64 0, i32 9, i64 10
  %163 = load i8, i8* %162, align 1, !tbaa !28
  br label %171

164:                                              ; preds = %157
  invoke void @_ZNKSt5ctypeIcE13_M_widen_initEv(%"class.std::ctype"* nonnull align 8 dereferenceable(570) %153)
          to label %165 unwind label %197

165:                                              ; preds = %164
  %166 = bitcast %"class.std::ctype"* %153 to i8 (%"class.std::ctype"*, i8)***
  %167 = load i8 (%"class.std::ctype"*, i8)**, i8 (%"class.std::ctype"*, i8)*** %166, align 8, !tbaa !5
  %168 = getelementptr inbounds i8 (%"class.std::ctype"*, i8)*, i8 (%"class.std::ctype"*, i8)** %167, i64 6
  %169 = load i8 (%"class.std::ctype"*, i8)*, i8 (%"class.std::ctype"*, i8)** %168, align 8
  %170 = invoke signext i8 %169(%"class.std::ctype"* nonnull align 8 dereferenceable(570) %153, i8 signext 10)
          to label %171 unwind label %197

171:                                              ; preds = %165, %161
  %172 = phi i8 [ %163, %161 ], [ %170, %165 ]
  %173 = invoke nonnull align 8 dereferenceable(8) %"class.std::basic_ostream"* @_ZNSo3putEc(%"class.std::basic_ostream"* nonnull align 8 dereferenceable(8) %130, i8 signext %172)
          to label %174 unwind label %197

174:                                              ; preds = %171
  %175 = invoke nonnull align 8 dereferenceable(8) %"class.std::basic_ostream"* @_ZNSo5flushEv(%"class.std::basic_ostream"* nonnull align 8 dereferenceable(8) %173)
          to label %176 unwind label %197

176:                                              ; preds = %174
  %177 = icmp eq %"class.std::vector"* %81, %86
  br i1 %177, label %190, label %178

178:                                              ; preds = %176, %185
  %179 = phi %"class.std::vector"* [ %186, %185 ], [ %81, %176 ]
  %180 = getelementptr inbounds %"class.std::vector", %"class.std::vector"* %179, i64 0, i32 0, i32 0, i32 0, i32 0
  %181 = load i32*, i32** %180, align 8, !tbaa !15
  %182 = icmp eq i32* %181, null
  br i1 %182, label %185, label %183

183:                                              ; preds = %178
  %184 = bitcast i32* %181 to i8*
  call void @_ZdlPv(i8* nonnull %184) #14
  br label %185

185:                                              ; preds = %183, %178
  %186 = getelementptr inbounds %"class.std::vector", %"class.std::vector"* %179, i64 1
  %187 = icmp eq %"class.std::vector"* %186, %86
  br i1 %187, label %188, label %178, !llvm.loop !29

188:                                              ; preds = %185
  %189 = icmp eq %"class.std::vector"* %81, null
  br i1 %189, label %192, label %190

190:                                              ; preds = %176, %188
  %191 = bitcast %"class.std::vector"* %81 to i8*
  call void @_ZdlPv(i8* nonnull %191) #14
  br label %192

192:                                              ; preds = %188, %190
  call void @llvm.lifetime.end.p0i8(i64 24, i8* nonnull %45) #14
  %193 = icmp eq i32* %43, null
  br i1 %193, label %196, label %194

194:                                              ; preds = %192
  %195 = bitcast i32* %43 to i8*
  call void @_ZdlPv(i8* nonnull %195) #14
  br label %196

196:                                              ; preds = %192, %194
  call void @llvm.lifetime.end.p0i8(i64 4, i8* nonnull %19) #14
  ret i32 0

197:                                              ; preds = %174, %171, %165, %164, %155, %106
  %198 = landingpad { i8*, i32 }
          cleanup
  call void @_ZNSt6vectorIS_IiSaIiEESaIS1_EED2Ev(%"class.std::vector.0"* nonnull align 8 dereferenceable(24) %2) #14
  br label %199

199:                                              ; preds = %141, %197
  %200 = phi { i8*, i32 } [ %198, %197 ], [ %142, %141 ]
  call void @llvm.lifetime.end.p0i8(i64 24, i8* nonnull %45) #14
  %201 = icmp eq i32* %43, null
  br i1 %201, label %206, label %202

202:                                              ; preds = %69, %199
  %203 = phi { i8*, i32 } [ %70, %69 ], [ %200, %199 ]
  %204 = phi i32* [ %30, %69 ], [ %43, %199 ]
  %205 = bitcast i32* %204 to i8*
  call void @_ZdlPv(i8* nonnull %205) #14
  br label %206

206:                                              ; preds = %202, %199
  %207 = phi { i8*, i32 } [ %203, %202 ], [ %200, %199 ]
  call void @llvm.lifetime.end.p0i8(i64 4, i8* nonnull %19) #14
  resume { i8*, i32 } %207

208:                                              ; preds = %102, %208
  %209 = phi i32 [ 0, %102 ], [ %220, %208 ]
  %210 = phi i32* [ %99, %102 ], [ %215, %208 ]
  %211 = phi i64 [ 0, %102 ], [ %213, %208 ]
  %212 = getelementptr inbounds i32, i32* %43, i64 %211
  %213 = add nuw nsw i64 %211, 1
  %214 = getelementptr inbounds %"class.std::vector", %"class.std::vector"* %81, i64 %213, i32 0, i32 0, i32 0, i32 0
  %215 = load i32*, i32** %214, align 8, !tbaa !15
  %216 = load i32, i32* %212, align 4, !tbaa !13
  %217 = add nsw i32 %209, %216
  %218 = load i32, i32* %215, align 4, !tbaa !13
  %219 = icmp slt i32 %217, %218
  %220 = select i1 %219, i32 %217, i32 %218
  store i32 %220, i32* %215, align 4, !tbaa !13
  %221 = load i32, i32* %212, align 4, !tbaa !13
  %222 = icmp eq i32 %221, 0
  %223 = srem i32 %221, 2
  %224 = select i1 %222, i32 2, i32 %223
  %225 = getelementptr inbounds i32, i32* %215, i64 1
  %226 = load i32, i32* %210, align 4, !tbaa !13
  %227 = add nsw i32 %226, %224
  %228 = load i32, i32* %225, align 4, !tbaa !13
  %229 = icmp slt i32 %227, %228
  %230 = select i1 %229, i32 %227, i32 %228
  store i32 %230, i32* %225, align 4, !tbaa !13
  %231 = getelementptr inbounds i32, i32* %210, i64 1
  %232 = load i32, i32* %231, align 4, !tbaa !13
  %233 = add nsw i32 %232, %224
  %234 = icmp slt i32 %233, %230
  %235 = select i1 %234, i32 %233, i32 %230
  store i32 %235, i32* %225, align 4, !tbaa !13
  %236 = load i32, i32* %212, align 4, !tbaa !13
  %237 = add nsw i32 %236, 1
  %238 = srem i32 %237, 2
  %239 = getelementptr inbounds i32, i32* %215, i64 2
  %240 = load i32, i32* %210, align 4, !tbaa !13
  %241 = add nsw i32 %240, %238
  %242 = load i32, i32* %239, align 4, !tbaa !13
  %243 = icmp slt i32 %241, %242
  %244 = select i1 %243, i32 %241, i32 %242
  store i32 %244, i32* %239, align 4, !tbaa !13
  %245 = load i32, i32* %231, align 4, !tbaa !13
  %246 = add nsw i32 %245, %238
  %247 = icmp slt i32 %246, %244
  %248 = select i1 %247, i32 %246, i32 %244
  store i32 %248, i32* %239, align 4, !tbaa !13
  %249 = getelementptr inbounds i32, i32* %210, i64 2
  %250 = load i32, i32* %249, align 4, !tbaa !13
  %251 = add nsw i32 %250, %238
  %252 = icmp slt i32 %251, %248
  %253 = select i1 %252, i32 %251, i32 %248
  store i32 %253, i32* %239, align 4, !tbaa !13
  %254 = load i32, i32* %212, align 4, !tbaa !13
  %255 = icmp eq i32 %254, 0
  %256 = srem i32 %254, 2
  %257 = select i1 %255, i32 2, i32 %256
  %258 = getelementptr inbounds i32, i32* %215, i64 3
  %259 = load i32, i32* %210, align 4, !tbaa !13
  %260 = add nsw i32 %259, %257
  %261 = load i32, i32* %258, align 4, !tbaa !13
  %262 = icmp slt i32 %260, %261
  %263 = select i1 %262, i32 %260, i32 %261
  store i32 %263, i32* %258, align 4, !tbaa !13
  %264 = load i32, i32* %231, align 4, !tbaa !13
  %265 = add nsw i32 %264, %257
  %266 = icmp slt i32 %265, %263
  %267 = select i1 %266, i32 %265, i32 %263
  store i32 %267, i32* %258, align 4, !tbaa !13
  %268 = load i32, i32* %249, align 4, !tbaa !13
  %269 = add nsw i32 %268, %257
  %270 = icmp slt i32 %269, %267
  %271 = select i1 %270, i32 %269, i32 %267
  store i32 %271, i32* %258, align 4, !tbaa !13
  %272 = getelementptr inbounds i32, i32* %210, i64 3
  %273 = load i32, i32* %272, align 4, !tbaa !13
  %274 = add nsw i32 %273, %257
  %275 = icmp slt i32 %274, %271
  %276 = select i1 %275, i32 %274, i32 %271
  store i32 %276, i32* %258, align 4, !tbaa !13
  %277 = load i32, i32* %212, align 4, !tbaa !13
  %278 = getelementptr inbounds i32, i32* %215, i64 4
  %279 = load i32, i32* %210, align 4, !tbaa !13
  %280 = add nsw i32 %279, %277
  %281 = load i32, i32* %278, align 4, !tbaa !13
  %282 = icmp slt i32 %280, %281
  %283 = select i1 %282, i32 %280, i32 %281
  store i32 %283, i32* %278, align 4, !tbaa !13
  %284 = load i32, i32* %231, align 4, !tbaa !13
  %285 = add nsw i32 %284, %277
  %286 = icmp slt i32 %285, %283
  %287 = select i1 %286, i32 %285, i32 %283
  store i32 %287, i32* %278, align 4, !tbaa !13
  %288 = load i32, i32* %249, align 4, !tbaa !13
  %289 = add nsw i32 %288, %277
  %290 = icmp slt i32 %289, %287
  %291 = select i1 %290, i32 %289, i32 %287
  store i32 %291, i32* %278, align 4, !tbaa !13
  %292 = load i32, i32* %272, align 4, !tbaa !13
  %293 = add nsw i32 %292, %277
  %294 = icmp slt i32 %293, %291
  %295 = select i1 %294, i32 %293, i32 %291
  store i32 %295, i32* %278, align 4, !tbaa !13
  %296 = getelementptr inbounds i32, i32* %210, i64 4
  %297 = load i32, i32* %296, align 4, !tbaa !13
  %298 = add nsw i32 %297, %277
  %299 = icmp slt i32 %298, %295
  %300 = select i1 %299, i32 %298, i32 %295
  store i32 %300, i32* %278, align 4, !tbaa !13
  %301 = icmp eq i64 %213, %103
  br i1 %301, label %104, label %208, !llvm.loop !30
}

declare zeroext i1 @_ZNSt8ios_base15sync_with_stdioEb(i1 zeroext) local_unnamed_addr #0

; Function Attrs: argmemonly mustprogress nofree nosync nounwind willreturn
declare void @llvm.lifetime.start.p0i8(i64 immarg, i8* nocapture) #5

declare nonnull align 8 dereferenceable(16) %"class.std::basic_istream"* @_ZNSirsERi(%"class.std::basic_istream"* nonnull align 8 dereferenceable(16), i32* nonnull align 4 dereferenceable(4)) local_unnamed_addr #0

declare i32 @__gxx_personality_v0(...)

; Function Attrs: argmemonly mustprogress nofree nosync nounwind willreturn
declare void @llvm.lifetime.end.p0i8(i64 immarg, i8* nocapture) #5

declare nonnull align 8 dereferenceable(8) %"class.std::basic_ostream"* @_ZNSolsEi(%"class.std::basic_ostream"* nonnull align 8 dereferenceable(8), i32) local_unnamed_addr #0

; Function Attrs: nounwind sspstrong uwtable
define linkonce_odr dso_local void @_ZNSt6vectorIS_IiSaIiEESaIS1_EED2Ev(%"class.std::vector.0"* nonnull align 8 dereferenceable(24) %0) unnamed_addr #6 comdat align 2 personality i8* bitcast (i32 (...)* @__gxx_personality_v0 to i8*) {
  %2 = getelementptr inbounds %"class.std::vector.0", %"class.std::vector.0"* %0, i64 0, i32 0, i32 0, i32 0, i32 0
  %3 = load %"class.std::vector"*, %"class.std::vector"** %2, align 8, !tbaa !21
  %4 = getelementptr inbounds %"class.std::vector.0", %"class.std::vector.0"* %0, i64 0, i32 0, i32 0, i32 0, i32 1
  %5 = load %"class.std::vector"*, %"class.std::vector"** %4, align 8, !tbaa !23
  %6 = icmp eq %"class.std::vector"* %3, %5
  br i1 %6, label %19, label %7

7:                                                ; preds = %1, %14
  %8 = phi %"class.std::vector"* [ %15, %14 ], [ %3, %1 ]
  %9 = getelementptr inbounds %"class.std::vector", %"class.std::vector"* %8, i64 0, i32 0, i32 0, i32 0, i32 0
  %10 = load i32*, i32** %9, align 8, !tbaa !15
  %11 = icmp eq i32* %10, null
  br i1 %11, label %14, label %12

12:                                               ; preds = %7
  %13 = bitcast i32* %10 to i8*
  tail call void @_ZdlPv(i8* nonnull %13) #14
  br label %14

14:                                               ; preds = %12, %7
  %15 = getelementptr inbounds %"class.std::vector", %"class.std::vector"* %8, i64 1
  %16 = icmp eq %"class.std::vector"* %15, %5
  br i1 %16, label %17, label %7, !llvm.loop !29

17:                                               ; preds = %14
  %18 = load %"class.std::vector"*, %"class.std::vector"** %2, align 8, !tbaa !21
  br label %19

19:                                               ; preds = %17, %1
  %20 = phi %"class.std::vector"* [ %18, %17 ], [ %3, %1 ]
  %21 = icmp eq %"class.std::vector"* %20, null
  br i1 %21, label %24, label %22

22:                                               ; preds = %19
  %23 = bitcast %"class.std::vector"* %20 to i8*
  tail call void @_ZdlPv(i8* nonnull %23) #14
  br label %24

24:                                               ; preds = %19, %22
  ret void
}

declare nonnull align 8 dereferenceable(8) %"class.std::basic_ostream"* @_ZSt16__ostream_insertIcSt11char_traitsIcEERSt13basic_ostreamIT_T0_ES6_PKS3_l(%"class.std::basic_ostream"* nonnull align 8 dereferenceable(8), i8*, i64) local_unnamed_addr #0

; Function Attrs: noreturn
declare void @_ZSt20__throw_length_errorPKc(i8*) local_unnamed_addr #7

; Function Attrs: noinline noreturn nounwind
define linkonce_odr hidden void @__clang_call_terminate(i8* %0) local_unnamed_addr #8 comdat {
  %2 = tail call i8* @__cxa_begin_catch(i8* %0) #14
  tail call void @_ZSt9terminatev() #17
  unreachable
}

declare i8* @__cxa_begin_catch(i8*) local_unnamed_addr

declare void @_ZSt9terminatev() local_unnamed_addr

; Function Attrs: noreturn
declare void @_ZSt28__throw_bad_array_new_lengthv() local_unnamed_addr #7

; Function Attrs: nobuiltin allocsize(0)
declare nonnull i8* @_Znwm(i64) local_unnamed_addr #9

; Function Attrs: nobuiltin nounwind
declare void @_ZdlPv(i8*) local_unnamed_addr #10

; Function Attrs: sspstrong uwtable
define linkonce_odr dso_local %"class.std::vector"* @_ZNSt22__uninitialized_fill_nILb0EE15__uninit_fill_nIPSt6vectorIiSaIiEEmS4_EET_S6_T0_RKT1_(%"class.std::vector"* %0, i64 %1, %"class.std::vector"* nonnull align 8 dereferenceable(24) %2) local_unnamed_addr #11 comdat align 2 personality i8* bitcast (i32 (...)* @__gxx_personality_v0 to i8*) {
  %4 = getelementptr inbounds %"class.std::vector", %"class.std::vector"* %2, i64 0, i32 0, i32 0, i32 0, i32 1
  %5 = getelementptr inbounds %"class.std::vector", %"class.std::vector"* %2, i64 0, i32 0, i32 0, i32 0, i32 0
  %6 = icmp eq i64 %1, 0
  br i1 %6, label %69, label %7

7:                                                ; preds = %3
  %8 = load i32*, i32** %5, align 8, !tbaa !15
  br label %9

9:                                                ; preds = %7, %43
  %10 = phi i32* [ %34, %43 ], [ %8, %7 ]
  %11 = phi %"class.std::vector"* [ %47, %43 ], [ %0, %7 ]
  %12 = phi i64 [ %46, %43 ], [ %1, %7 ]
  %13 = load i32*, i32** %4, align 8, !tbaa !18
  %14 = ptrtoint i32* %13 to i64
  %15 = ptrtoint i32* %10 to i64
  %16 = sub i64 %14, %15
  %17 = ashr exact i64 %16, 2
  %18 = bitcast %"class.std::vector"* %11 to i8*
  tail call void @llvm.memset.p0i8.i64(i8* noundef nonnull align 8 dereferenceable(24) %18, i8 0, i64 24, i1 false) #14
  %19 = icmp eq i64 %16, 0
  br i1 %19, label %28, label %20

20:                                               ; preds = %9
  %21 = icmp ugt i64 %17, 2305843009213693951
  br i1 %21, label %22, label %24, !prof !31

22:                                               ; preds = %20
  invoke void @_ZSt28__throw_bad_array_new_lengthv() #15
          to label %23 unwind label %51

23:                                               ; preds = %22
  unreachable

24:                                               ; preds = %20
  %25 = invoke noalias nonnull i8* @_Znwm(i64 %16) #16
          to label %26 unwind label %49

26:                                               ; preds = %24
  %27 = bitcast i8* %25 to i32*
  br label %28

28:                                               ; preds = %26, %9
  %29 = phi i32* [ %27, %26 ], [ null, %9 ]
  %30 = getelementptr inbounds %"class.std::vector", %"class.std::vector"* %11, i64 0, i32 0, i32 0, i32 0, i32 0
  store i32* %29, i32** %30, align 8, !tbaa !15
  %31 = getelementptr inbounds %"class.std::vector", %"class.std::vector"* %11, i64 0, i32 0, i32 0, i32 0, i32 1
  store i32* %29, i32** %31, align 8, !tbaa !18
  %32 = getelementptr inbounds i32, i32* %29, i64 %17
  %33 = getelementptr inbounds %"class.std::vector", %"class.std::vector"* %11, i64 0, i32 0, i32 0, i32 0, i32 2
  store i32* %32, i32** %33, align 8, !tbaa !17
  %34 = load i32*, i32** %5, align 8, !tbaa !32
  %35 = load i32*, i32** %4, align 8, !tbaa !32
  %36 = ptrtoint i32* %35 to i64
  %37 = ptrtoint i32* %34 to i64
  %38 = sub i64 %36, %37
  %39 = icmp eq i64 %38, 0
  br i1 %39, label %43, label %40

40:                                               ; preds = %28
  %41 = bitcast i32* %29 to i8*
  %42 = bitcast i32* %34 to i8*
  tail call void @llvm.memmove.p0i8.p0i8.i64(i8* align 4 %41, i8* align 4 %42, i64 %38, i1 false) #14
  br label %43

43:                                               ; preds = %40, %28
  %44 = ashr exact i64 %38, 2
  %45 = getelementptr inbounds i32, i32* %29, i64 %44
  store i32* %45, i32** %31, align 8, !tbaa !18
  %46 = add i64 %12, -1
  %47 = getelementptr inbounds %"class.std::vector", %"class.std::vector"* %11, i64 1
  %48 = icmp eq i64 %46, 0
  br i1 %48, label %69, label %9, !llvm.loop !33

49:                                               ; preds = %24
  %50 = landingpad { i8*, i32 }
          catch i8* null
  br label %53

51:                                               ; preds = %22
  %52 = landingpad { i8*, i32 }
          catch i8* null
  br label %53

53:                                               ; preds = %51, %49
  %54 = phi { i8*, i32 } [ %50, %49 ], [ %52, %51 ]
  %55 = extractvalue { i8*, i32 } %54, 0
  %56 = tail call i8* @__cxa_begin_catch(i8* %55) #14
  %57 = icmp eq %"class.std::vector"* %11, %0
  br i1 %57, label %68, label %58

58:                                               ; preds = %53, %65
  %59 = phi %"class.std::vector"* [ %66, %65 ], [ %0, %53 ]
  %60 = getelementptr inbounds %"class.std::vector", %"class.std::vector"* %59, i64 0, i32 0, i32 0, i32 0, i32 0
  %61 = load i32*, i32** %60, align 8, !tbaa !15
  %62 = icmp eq i32* %61, null
  br i1 %62, label %65, label %63

63:                                               ; preds = %58
  %64 = bitcast i32* %61 to i8*
  tail call void @_ZdlPv(i8* nonnull %64) #14
  br label %65

65:                                               ; preds = %63, %58
  %66 = getelementptr inbounds %"class.std::vector", %"class.std::vector"* %59, i64 1
  %67 = icmp eq %"class.std::vector"* %66, %11
  br i1 %67, label %68, label %58, !llvm.loop !29

68:                                               ; preds = %65, %53
  invoke void @__cxa_rethrow() #15
          to label %77 unwind label %71

69:                                               ; preds = %43, %3
  %70 = phi %"class.std::vector"* [ %0, %3 ], [ %47, %43 ]
  ret %"class.std::vector"* %70

71:                                               ; preds = %68
  %72 = landingpad { i8*, i32 }
          cleanup
  invoke void @__cxa_end_catch()
          to label %73 unwind label %74

73:                                               ; preds = %71
  resume { i8*, i32 } %72

74:                                               ; preds = %71
  %75 = landingpad { i8*, i32 }
          catch i8* null
  %76 = extractvalue { i8*, i32 } %75, 0
  tail call void @__clang_call_terminate(i8* %76) #17
  unreachable

77:                                               ; preds = %68
  unreachable
}

declare void @__cxa_rethrow() local_unnamed_addr

declare void @__cxa_end_catch() local_unnamed_addr

; Function Attrs: argmemonly mustprogress nofree nounwind willreturn
declare void @llvm.memmove.p0i8.p0i8.i64(i8* nocapture writeonly, i8* nocapture readonly, i64, i1 immarg) #12

declare nonnull align 8 dereferenceable(8) %"class.std::basic_ostream"* @_ZNSo3putEc(%"class.std::basic_ostream"* nonnull align 8 dereferenceable(8), i8 signext) local_unnamed_addr #0

declare nonnull align 8 dereferenceable(8) %"class.std::basic_ostream"* @_ZNSo5flushEv(%"class.std::basic_ostream"* nonnull align 8 dereferenceable(8)) local_unnamed_addr #0

; Function Attrs: noreturn
declare void @_ZSt16__throw_bad_castv() local_unnamed_addr #7

declare void @_ZNKSt5ctypeIcE13_M_widen_initEv(%"class.std::ctype"* nonnull align 8 dereferenceable(570)) local_unnamed_addr #0

; Function Attrs: sspstrong uwtable
define internal void @_GLOBAL__sub_I_s779523413.cpp() #11 section ".text.startup" {
  tail call void @_ZNSt8ios_base4InitC1Ev(%"class.std::ios_base::Init"* nonnull align 1 dereferenceable(1) @_ZStL8__ioinit)
  %1 = tail call i32 @__cxa_atexit(void (i8*)* bitcast (void (%"class.std::ios_base::Init"*)* @_ZNSt8ios_base4InitD1Ev to void (i8*)*), i8* getelementptr inbounds (%"class.std::ios_base::Init", %"class.std::ios_base::Init"* @_ZStL8__ioinit, i64 0, i32 0), i8* nonnull @__dso_handle) #14
  ret void
}

; Function Attrs: argmemonly nofree nounwind willreturn writeonly
declare void @llvm.memset.p0i8.i64(i8* nocapture writeonly, i8, i64, i1 immarg) #13

attributes #0 = { "frame-pointer"="none" "no-trapping-math"="true" "stack-protector-buffer-size"="8" "target-cpu"="x86-64" "target-features"="+cx8,+fxsr,+mmx,+sse,+sse2,+x87" "tune-cpu"="generic" }
attributes #1 = { nounwind "frame-pointer"="none" "no-trapping-math"="true" "stack-protector-buffer-size"="8" "target-cpu"="x86-64" "target-features"="+cx8,+fxsr,+mmx,+sse,+sse2,+x87" "tune-cpu"="generic" }
attributes #2 = { nofree nounwind }
attributes #3 = { mustprogress sspstrong uwtable "frame-pointer"="none" "min-legal-vector-width"="0" "no-trapping-math"="true" "stack-protector-buffer-size"="8" "target-cpu"="x86-64" "target-features"="+cx8,+fxsr,+mmx,+sse,+sse2,+x87" "tune-cpu"="generic" }
attributes #4 = { norecurse sspstrong uwtable "frame-pointer"="none" "min-legal-vector-width"="0" "no-trapping-math"="true" "stack-protector-buffer-size"="8" "target-cpu"="x86-64" "target-features"="+cx8,+fxsr,+mmx,+sse,+sse2,+x87" "tune-cpu"="generic" }
attributes #5 = { argmemonly mustprogress nofree nosync nounwind willreturn }
attributes #6 = { nounwind sspstrong uwtable "frame-pointer"="none" "min-legal-vector-width"="0" "no-trapping-math"="true" "stack-protector-buffer-size"="8" "target-cpu"="x86-64" "target-features"="+cx8,+fxsr,+mmx,+sse,+sse2,+x87" "tune-cpu"="generic" }
attributes #7 = { noreturn "frame-pointer"="none" "no-trapping-math"="true" "stack-protector-buffer-size"="8" "target-cpu"="x86-64" "target-features"="+cx8,+fxsr,+mmx,+sse,+sse2,+x87" "tune-cpu"="generic" }
attributes #8 = { noinline noreturn nounwind }
attributes #9 = { nobuiltin allocsize(0) "frame-pointer"="none" "no-trapping-math"="true" "stack-protector-buffer-size"="8" "target-cpu"="x86-64" "target-features"="+cx8,+fxsr,+mmx,+sse,+sse2,+x87" "tune-cpu"="generic" }
attributes #10 = { nobuiltin nounwind "frame-pointer"="none" "no-trapping-math"="true" "stack-protector-buffer-size"="8" "target-cpu"="x86-64" "target-features"="+cx8,+fxsr,+mmx,+sse,+sse2,+x87" "tune-cpu"="generic" }
attributes #11 = { sspstrong uwtable "frame-pointer"="none" "min-legal-vector-width"="0" "no-trapping-math"="true" "stack-protector-buffer-size"="8" "target-cpu"="x86-64" "target-features"="+cx8,+fxsr,+mmx,+sse,+sse2,+x87" "tune-cpu"="generic" }
attributes #12 = { argmemonly mustprogress nofree nounwind willreturn }
attributes #13 = { argmemonly nofree nounwind willreturn writeonly }
attributes #14 = { nounwind }
attributes #15 = { noreturn }
attributes #16 = { allocsize(0) }
attributes #17 = { noreturn nounwind }

!llvm.module.flags = !{!0, !1, !2, !3}
!llvm.ident = !{!4}

!0 = !{i32 1, !"wchar_size", i32 4}
!1 = !{i32 7, !"PIC Level", i32 2}
!2 = !{i32 7, !"PIE Level", i32 2}
!3 = !{i32 7, !"uwtable", i32 1}
!4 = !{!"clang version 13.0.0"}
!5 = !{!6, !6, i64 0}
!6 = !{!"vtable pointer", !7, i64 0}
!7 = !{!"Simple C++ TBAA"}
!8 = !{!9, !10, i64 216}
!9 = !{!"_ZTSSt9basic_iosIcSt11char_traitsIcEE", !10, i64 216, !11, i64 224, !12, i64 225, !10, i64 232, !10, i64 240, !10, i64 248, !10, i64 256}
!10 = !{!"any pointer", !11, i64 0}
!11 = !{!"omnipotent char", !7, i64 0}
!12 = !{!"bool", !11, i64 0}
!13 = !{!14, !14, i64 0}
!14 = !{!"int", !11, i64 0}
!15 = !{!16, !10, i64 0}
!16 = !{!"_ZTSNSt12_Vector_baseIiSaIiEE17_Vector_impl_dataE", !10, i64 0, !10, i64 8, !10, i64 16}
!17 = !{!16, !10, i64 16}
!18 = !{!16, !10, i64 8}
!19 = distinct !{!19, !20}
!20 = !{!"llvm.loop.mustprogress"}
!21 = !{!22, !10, i64 0}
!22 = !{!"_ZTSNSt12_Vector_baseISt6vectorIiSaIiEESaIS2_EE17_Vector_impl_dataE", !10, i64 0, !10, i64 8, !10, i64 16}
!23 = !{!22, !10, i64 8}
!24 = !{!22, !10, i64 16}
!25 = !{!9, !10, i64 240}
!26 = !{!27, !11, i64 56}
!27 = !{!"_ZTSSt5ctypeIcE", !10, i64 16, !12, i64 24, !10, i64 32, !10, i64 40, !10, i64 48, !11, i64 56, !11, i64 57, !11, i64 313, !11, i64 569}
!28 = !{!11, !11, i64 0}
!29 = distinct !{!29, !20}
!30 = distinct !{!30, !20}
!31 = !{!"branch_weights", i32 1, i32 2000}
!32 = !{!10, !10, i64 0}
!33 = distinct !{!33, !20}
