; ModuleID = 'Project_CodeNet_C++1400/p03247/s354324478.cpp'
source_filename = "Project_CodeNet_C++1400/p03247/s354324478.cpp"
target datalayout = "e-m:e-p270:32:32-p271:32:32-p272:64:64-i64:64-f80:128-n8:16:32:64-S128"
target triple = "x86_64-pc-linux-gnu"

%"class.std::ios_base::Init" = type { i8 }
%"class.std::vector" = type { %"struct.std::_Vector_base" }
%"struct.std::_Vector_base" = type { %"struct.std::_Vector_base<long long, std::allocator<long long>>::_Vector_impl" }
%"struct.std::_Vector_base<long long, std::allocator<long long>>::_Vector_impl" = type { %"struct.std::_Vector_base<long long, std::allocator<long long>>::_Vector_impl_data" }
%"struct.std::_Vector_base<long long, std::allocator<long long>>::_Vector_impl_data" = type { i64*, i64*, i64* }
%"class.std::basic_ostream" = type { i32 (...)**, %"class.std::basic_ios" }
%"class.std::basic_ios" = type { %"class.std::ios_base", %"class.std::basic_ostream"*, i8, i8, %"class.std::basic_streambuf"*, %"class.std::ctype"*, %"class.std::num_put"*, %"class.std::num_get"* }
%"class.std::ios_base" = type { i32 (...)**, i64, i64, i32, i32, i32, %"struct.std::ios_base::_Callback_list"*, %"struct.std::ios_base::_Words", [8 x %"struct.std::ios_base::_Words"], i32, %"struct.std::ios_base::_Words"*, %"class.std::locale" }
%"struct.std::ios_base::_Callback_list" = type { %"struct.std::ios_base::_Callback_list"*, void (i32, %"class.std::ios_base"*, i32)*, i32, i32 }
%"struct.std::ios_base::_Words" = type { i8*, i64 }
%"class.std::locale" = type { %"class.std::locale::_Impl"* }
%"class.std::locale::_Impl" = type { i32, %"class.std::locale::facet"**, i64, %"class.std::locale::facet"**, i8** }
%"class.std::locale::facet" = type <{ i32 (...)**, i32, [4 x i8] }>
%"class.std::basic_streambuf" = type { i32 (...)**, i8*, i8*, i8*, i8*, i8*, i8*, %"class.std::locale" }
%"class.std::ctype" = type <{ %"class.std::locale::facet.base", [4 x i8], %struct.__locale_struct*, i8, [7 x i8], i32*, i32*, i16*, i8, [256 x i8], [256 x i8], i8, [6 x i8] }>
%"class.std::locale::facet.base" = type <{ i32 (...)**, i32 }>
%struct.__locale_struct = type { [13 x %struct.__locale_data*], i16*, i32*, i32*, [13 x i8*] }
%struct.__locale_data = type opaque
%"class.std::num_put" = type { %"class.std::locale::facet.base", [4 x i8] }
%"class.std::num_get" = type { %"class.std::locale::facet.base", [4 x i8] }
%"class.std::__cxx11::basic_string" = type { %"struct.std::__cxx11::basic_string<char>::_Alloc_hider", i64, %union.anon }
%"struct.std::__cxx11::basic_string<char>::_Alloc_hider" = type { i8* }
%union.anon = type { i64, [8 x i8] }
%"class.std::allocator.0" = type { i8 }
%"class.std::allocator" = type { i8 }
%"class.__gnu_cxx::new_allocator" = type { i8 }

$_ZNSt6vectorIxSaIxEED2Ev = comdat any

$_ZNSt6vectorIxSaIxEE9push_backERKx = comdat any

$_ZNSt12_Vector_baseIxSaIxEED2Ev = comdat any

$_ZNSt6vectorIxSaIxEE12emplace_backIJxEEEvDpOT_ = comdat any

$_ZNSt6vectorIxSaIxEE17_M_realloc_insertIJxEEEvN9__gnu_cxx17__normal_iteratorIPxS1_EEDpOT_ = comdat any

$_ZNKSt6vectorIxSaIxEE12_M_check_lenEmPKc = comdat any

$_ZNSt12_Vector_baseIxSaIxEE11_M_allocateEm = comdat any

$_ZNSt16allocator_traitsISaIxEE8allocateERS0_m = comdat any

$_ZN9__gnu_cxx13new_allocatorIxE8allocateEmPKv = comdat any

$_ZNSt6vectorIxSaIxEE17_M_realloc_insertIJRKxEEEvN9__gnu_cxx17__normal_iteratorIPxS1_EEDpOT_ = comdat any

$_ZSt9__reverseIN9__gnu_cxx17__normal_iteratorIPcNSt7__cxx1112basic_stringIcSt11char_traitsIcESaIcEEEEEEvT_SA_St26random_access_iterator_tag = comdat any

@_ZStL8__ioinit = internal global %"class.std::ios_base::Init" zeroinitializer, align 1
@__dso_handle = external hidden global i8
@n = dso_local global i32 0, align 4
@x = dso_local global [1050 x i32] zeroinitializer, align 16
@y = dso_local global [1050 x i32] zeroinitializer, align 16
@odd = dso_local local_unnamed_addr global i32 0, align 4
@even = dso_local local_unnamed_addr global i32 0, align 4
@ans = dso_local global %"class.std::vector" zeroinitializer, align 8
@evenStart = dso_local local_unnamed_addr global i32 0, align 4
@totalSum = dso_local local_unnamed_addr global i64 0, align 8
@maxSum = dso_local local_unnamed_addr global i64 0, align 8
@.str = private unnamed_addr constant [3 x i8] c"%d\00", align 1
@.str.2 = private unnamed_addr constant [6 x i8] c"%d %d\00", align 1
@.str.3 = private unnamed_addr constant [3 x i8] c"-1\00", align 1
@.str.4 = private unnamed_addr constant [4 x i8] c"%d\0A\00", align 1
@.str.5 = private unnamed_addr constant [6 x i8] c"%lld \00", align 1
@_ZSt4cout = external global %"class.std::basic_ostream", align 8
@.str.6 = private unnamed_addr constant [1 x i8] zeroinitializer, align 1
@.str.7 = private unnamed_addr constant [26 x i8] c"vector::_M_realloc_insert\00", align 1
@llvm.global_ctors = appending global [1 x { i32, void ()*, i8* }] [{ i32, void ()*, i8* } { i32 65535, void ()* @_GLOBAL__sub_I_s354324478.cpp, i8* null }]

; Function Attrs: minsize optsize
declare void @_ZNSt8ios_base4InitC1Ev(%"class.std::ios_base::Init"* nonnull align 1 dereferenceable(1)) unnamed_addr #0

; Function Attrs: minsize nounwind optsize
declare void @_ZNSt8ios_base4InitD1Ev(%"class.std::ios_base::Init"* nonnull align 1 dereferenceable(1)) unnamed_addr #1

; Function Attrs: nofree nounwind
declare i32 @__cxa_atexit(void (i8*)*, i8*, i8*) local_unnamed_addr #2

; Function Attrs: minsize nounwind optsize sspstrong uwtable
define linkonce_odr dso_local void @_ZNSt6vectorIxSaIxEED2Ev(%"class.std::vector"* nonnull align 8 dereferenceable(24) %0) unnamed_addr #3 comdat align 2 personality i8* bitcast (i32 (...)* @__gxx_personality_v0 to i8*) {
  %2 = getelementptr inbounds %"class.std::vector", %"class.std::vector"* %0, i64 0, i32 0
  tail call void @_ZNSt12_Vector_baseIxSaIxEED2Ev(%"struct.std::_Vector_base"* nonnull align 8 dereferenceable(24) %2) #17
  ret void
}

; Function Attrs: minsize mustprogress nofree nosync nounwind optsize readnone sspstrong uwtable willreturn
define dso_local zeroext i1 @_Z2okxxx(i64 %0, i64 %1, i64 %2) local_unnamed_addr #4 {
  %4 = tail call i64 @llvm.abs.i64(i64 %0, i1 true) #18
  %5 = tail call i64 @llvm.abs.i64(i64 %1, i1 true) #18
  %6 = add nuw nsw i64 %5, %4
  %7 = icmp sle i64 %6, %2
  ret i1 %7
}

; Function Attrs: minsize norecurse optsize sspstrong uwtable
define dso_local i32 @main() local_unnamed_addr #5 personality i8* bitcast (i32 (...)* @__gxx_personality_v0 to i8*) {
  %1 = alloca i64, align 8
  %2 = alloca i64, align 8
  %3 = alloca %"class.std::__cxx11::basic_string", align 8
  %4 = alloca %"class.std::allocator.0", align 1
  %5 = tail call i32 (i8*, ...) @__isoc99_scanf(i8* getelementptr inbounds ([3 x i8], [3 x i8]* @.str, i64 0, i64 0), i32* nonnull @n) #19
  br label %6

6:                                                ; preds = %17, %0
  %7 = phi i64 [ %36, %17 ], [ 0, %0 ]
  %8 = load i32, i32* @n, align 4, !tbaa !5
  %9 = sext i32 %8 to i64
  %10 = icmp slt i64 %7, %9
  br i1 %10, label %17, label %11

11:                                               ; preds = %6
  %12 = load i32, i32* @even, align 4, !tbaa !5
  %13 = icmp ne i32 %12, 0
  %14 = load i32, i32* @odd, align 4
  %15 = icmp ne i32 %14, 0
  %16 = select i1 %13, i1 %15, i1 false
  br i1 %16, label %37, label %39

17:                                               ; preds = %6
  %18 = getelementptr inbounds [1050 x i32], [1050 x i32]* @x, i64 0, i64 %7
  %19 = getelementptr inbounds [1050 x i32], [1050 x i32]* @y, i64 0, i64 %7
  %20 = tail call i32 (i8*, ...) @__isoc99_scanf(i8* getelementptr inbounds ([6 x i8], [6 x i8]* @.str.2, i64 0, i64 0), i32* nonnull %18, i32* nonnull %19) #19
  %21 = load i32, i32* %18, align 4, !tbaa !5
  %22 = load i32, i32* %19, align 4, !tbaa !5
  %23 = add i32 %22, %21
  %24 = and i32 %23, 1
  %25 = icmp eq i32 %24, 0
  %26 = select i1 %25, i32* @even, i32* @odd
  %27 = load i32, i32* %26, align 4, !tbaa !5
  %28 = add nsw i32 %27, 1
  store i32 %28, i32* %26, align 4, !tbaa !5
  %29 = tail call i32 @llvm.abs.i32(i32 %21, i1 true)
  %30 = tail call i32 @llvm.abs.i32(i32 %22, i1 true)
  %31 = add nuw nsw i32 %30, %29
  %32 = zext i32 %31 to i64
  %33 = load i64, i64* @maxSum, align 8, !tbaa !9
  %34 = icmp slt i64 %33, %32
  %35 = select i1 %34, i64 %32, i64 %33
  store i64 %35, i64* @maxSum, align 8, !tbaa !9
  %36 = add nuw nsw i64 %7, 1
  br label %6, !llvm.loop !11

37:                                               ; preds = %11
  %38 = tail call i32 @puts(i8* nonnull dereferenceable(1) getelementptr inbounds ([3 x i8], [3 x i8]* @.str.3, i64 0, i64 0)) #19
  br label %170

39:                                               ; preds = %11
  br i1 %13, label %42, label %40

40:                                               ; preds = %39
  %41 = load i64, i64* @totalSum, align 8, !tbaa !9
  br label %48

42:                                               ; preds = %39
  %43 = bitcast i64* %1 to i8*
  call void @llvm.lifetime.start.p0i8(i64 8, i8* nonnull %43) #18
  store i64 1, i64* %1, align 8, !tbaa !9
  call void @_ZNSt6vectorIxSaIxEE12emplace_backIJxEEEvDpOT_(%"class.std::vector"* nonnull align 8 dereferenceable(24) @ans, i64* nonnull align 8 dereferenceable(8) %1) #19
  call void @llvm.lifetime.end.p0i8(i64 8, i8* nonnull %43) #18
  %44 = load i32, i32* @evenStart, align 4, !tbaa !5
  %45 = add nsw i32 %44, 1
  store i32 %45, i32* @evenStart, align 4, !tbaa !5
  %46 = load i64, i64* @totalSum, align 8, !tbaa !9
  %47 = add nsw i64 %46, 1
  store i64 %47, i64* @totalSum, align 8, !tbaa !9
  br label %48

48:                                               ; preds = %40, %42
  %49 = phi i64 [ %41, %40 ], [ %47, %42 ]
  %50 = bitcast i64* %2 to i8*
  call void @llvm.lifetime.start.p0i8(i64 8, i8* nonnull %50) #18
  br label %51

51:                                               ; preds = %56, %48
  %52 = phi i64 [ %49, %48 ], [ %59, %56 ]
  %53 = phi i64 [ 1, %48 ], [ %60, %56 ]
  store i64 %53, i64* %2, align 8, !tbaa !9
  %54 = load i64, i64* @maxSum, align 8, !tbaa !9
  %55 = icmp slt i64 %52, %54
  br i1 %55, label %56, label %61

56:                                               ; preds = %51
  call void @_ZNSt6vectorIxSaIxEE9push_backERKx(%"class.std::vector"* nonnull align 8 dereferenceable(24) @ans, i64* nonnull align 8 dereferenceable(8) %2) #19
  %57 = load i64, i64* %2, align 8, !tbaa !9
  %58 = load i64, i64* @totalSum, align 8, !tbaa !9
  %59 = add nsw i64 %58, %57
  store i64 %59, i64* @totalSum, align 8, !tbaa !9
  %60 = shl nsw i64 %57, 1
  br label %51, !llvm.loop !13

61:                                               ; preds = %51
  %62 = load i64*, i64** getelementptr inbounds (%"class.std::vector", %"class.std::vector"* @ans, i64 0, i32 0, i32 0, i32 0, i32 1), align 8, !tbaa !14
  %63 = load i64*, i64** getelementptr inbounds (%"class.std::vector", %"class.std::vector"* @ans, i64 0, i32 0, i32 0, i32 0, i32 0), align 8, !tbaa !17
  %64 = ptrtoint i64* %62 to i64
  %65 = ptrtoint i64* %63 to i64
  %66 = sub i64 %64, %65
  %67 = lshr exact i64 %66, 3
  %68 = trunc i64 %67 to i32
  %69 = call i32 (i8*, ...) @printf(i8* nonnull dereferenceable(1) getelementptr inbounds ([4 x i8], [4 x i8]* @.str.4, i64 0, i64 0), i32 %68) #19
  %70 = load i64*, i64** getelementptr inbounds (%"class.std::vector", %"class.std::vector"* @ans, i64 0, i32 0, i32 0, i32 0, i32 0), align 8, !tbaa !18
  %71 = load i64*, i64** getelementptr inbounds (%"class.std::vector", %"class.std::vector"* @ans, i64 0, i32 0, i32 0, i32 0, i32 1), align 8, !tbaa !18
  br label %72

72:                                               ; preds = %81, %61
  %73 = phi i64* [ %70, %61 ], [ %84, %81 ]
  %74 = icmp eq i64* %73, %71
  br i1 %74, label %75, label %81

75:                                               ; preds = %72
  %76 = call nonnull align 8 dereferenceable(8) %"class.std::basic_ostream"* @_ZSt4endlIcSt11char_traitsIcEERSt13basic_ostreamIT_T0_ES6_(%"class.std::basic_ostream"* nonnull align 8 dereferenceable(8) @_ZSt4cout) #19
  %77 = bitcast %"class.std::__cxx11::basic_string"* %3 to i8*
  %78 = getelementptr inbounds %"class.std::allocator.0", %"class.std::allocator.0"* %4, i64 0, i32 0
  %79 = getelementptr inbounds %"class.std::__cxx11::basic_string", %"class.std::__cxx11::basic_string"* %3, i64 0, i32 0, i32 0
  %80 = getelementptr inbounds %"class.std::__cxx11::basic_string", %"class.std::__cxx11::basic_string"* %3, i64 0, i32 1
  br label %85

81:                                               ; preds = %72
  %82 = load i64, i64* %73, align 8, !tbaa !9
  %83 = call i32 (i8*, ...) @printf(i8* nonnull dereferenceable(1) getelementptr inbounds ([6 x i8], [6 x i8]* @.str.5, i64 0, i64 0), i64 %82) #19
  %84 = getelementptr inbounds i64, i64* %73, i64 1
  br label %72

85:                                               ; preds = %164, %75
  %86 = phi i64 [ %165, %164 ], [ 0, %75 ]
  %87 = load i32, i32* @n, align 4, !tbaa !5
  %88 = sext i32 %87 to i64
  %89 = icmp slt i64 %86, %88
  br i1 %89, label %91, label %90

90:                                               ; preds = %85
  call void @llvm.lifetime.end.p0i8(i64 8, i8* nonnull %50) #18
  br label %170

91:                                               ; preds = %85
  call void @llvm.lifetime.start.p0i8(i64 32, i8* nonnull %77) #18
  call void @llvm.lifetime.start.p0i8(i64 1, i8* nonnull %78) #18
  call void @_ZNSt7__cxx1112basic_stringIcSt11char_traitsIcESaIcEEC2EPKcRKS3_(%"class.std::__cxx11::basic_string"* nonnull align 8 dereferenceable(32) %3, i8* getelementptr inbounds ([1 x i8], [1 x i8]* @.str.6, i64 0, i64 0), %"class.std::allocator.0"* nonnull align 1 dereferenceable(1) %4) #19
  call void @llvm.lifetime.end.p0i8(i64 1, i8* nonnull %78) #18
  %92 = load i64, i64* @totalSum, align 8, !tbaa !9
  %93 = getelementptr inbounds [1050 x i32], [1050 x i32]* @x, i64 0, i64 %86
  %94 = load i32, i32* %93, align 4, !tbaa !5
  %95 = sext i32 %94 to i64
  %96 = getelementptr inbounds [1050 x i32], [1050 x i32]* @y, i64 0, i64 %86
  %97 = load i32, i32* %96, align 4, !tbaa !5
  %98 = sext i32 %97 to i64
  %99 = load i64*, i64** getelementptr inbounds (%"class.std::vector", %"class.std::vector"* @ans, i64 0, i32 0, i32 0, i32 0, i32 1), align 8, !tbaa !14
  %100 = load i64*, i64** getelementptr inbounds (%"class.std::vector", %"class.std::vector"* @ans, i64 0, i32 0, i32 0, i32 0, i32 0), align 8, !tbaa !17
  %101 = ptrtoint i64* %99 to i64
  %102 = ptrtoint i64* %100 to i64
  %103 = sub i64 %101, %102
  %104 = lshr exact i64 %103, 3
  %105 = and i64 %104, 4294967295
  br label %106

106:                                              ; preds = %135, %91
  %107 = phi i64 [ %105, %91 ], [ %116, %135 ]
  %108 = phi i64 [ %92, %91 ], [ %127, %135 ]
  %109 = phi i64 [ %95, %91 ], [ %136, %135 ]
  %110 = phi i64 [ %98, %91 ], [ %115, %135 ]
  %111 = call i64 @llvm.abs.i64(i64 %109, i1 true) #18
  br label %112

112:                                              ; preds = %155, %106
  %113 = phi i64 [ %107, %106 ], [ %116, %155 ]
  %114 = phi i64 [ %108, %106 ], [ %127, %155 ]
  %115 = phi i64 [ %110, %106 ], [ %156, %155 ]
  %116 = add nsw i64 %113, -1
  %117 = trunc i64 %113 to i32
  %118 = icmp sgt i32 %117, 0
  br i1 %118, label %123, label %119

119:                                              ; preds = %112
  %120 = load i8*, i8** %79, align 8, !tbaa !19
  %121 = load i64, i64* %80, align 8, !tbaa !23
  %122 = getelementptr inbounds i8, i8* %120, i64 %121
  invoke void @_ZSt9__reverseIN9__gnu_cxx17__normal_iteratorIPcNSt7__cxx1112basic_stringIcSt11char_traitsIcESaIcEEEEEEvT_SA_St26random_access_iterator_tag(i8* %120, i8* %122) #19
          to label %160 unwind label %166

123:                                              ; preds = %112
  %124 = load i64*, i64** getelementptr inbounds (%"class.std::vector", %"class.std::vector"* @ans, i64 0, i32 0, i32 0, i32 0, i32 0), align 8, !tbaa !17
  %125 = getelementptr inbounds i64, i64* %124, i64 %116
  %126 = load i64, i64* %125, align 8, !tbaa !9
  %127 = sub nsw i64 %114, %126
  %128 = add nsw i64 %126, %109
  %129 = call i64 @llvm.abs.i64(i64 %128, i1 true) #18
  %130 = call i64 @llvm.abs.i64(i64 %115, i1 true) #18
  %131 = add nuw nsw i64 %129, %130
  %132 = icmp sgt i64 %131, %127
  br i1 %132, label %141, label %133

133:                                              ; preds = %123
  %134 = invoke nonnull align 8 dereferenceable(32) %"class.std::__cxx11::basic_string"* @_ZNSt7__cxx1112basic_stringIcSt11char_traitsIcESaIcEE6appendEmc(%"class.std::__cxx11::basic_string"* nonnull align 8 dereferenceable(32) %3, i64 1, i8 signext 76) #19
          to label %135 unwind label %139

135:                                              ; preds = %133, %146
  %136 = phi i64 [ %142, %146 ], [ %128, %133 ]
  br label %106, !llvm.loop !24

137:                                              ; preds = %153, %157
  %138 = landingpad { i8*, i32 }
          cleanup
  br label %168

139:                                              ; preds = %133, %146
  %140 = landingpad { i8*, i32 }
          cleanup
  br label %168

141:                                              ; preds = %123
  %142 = sub nsw i64 %109, %126
  %143 = call i64 @llvm.abs.i64(i64 %142, i1 true) #18
  %144 = add nuw nsw i64 %143, %130
  %145 = icmp sgt i64 %144, %127
  br i1 %145, label %148, label %146

146:                                              ; preds = %141
  %147 = invoke nonnull align 8 dereferenceable(32) %"class.std::__cxx11::basic_string"* @_ZNSt7__cxx1112basic_stringIcSt11char_traitsIcESaIcEE6appendEmc(%"class.std::__cxx11::basic_string"* nonnull align 8 dereferenceable(32) %3, i64 1, i8 signext 82) #19
          to label %135 unwind label %139

148:                                              ; preds = %141
  %149 = add nsw i64 %126, %115
  %150 = call i64 @llvm.abs.i64(i64 %149, i1 true) #18
  %151 = add nuw nsw i64 %150, %111
  %152 = icmp sgt i64 %151, %127
  br i1 %152, label %157, label %153

153:                                              ; preds = %148
  %154 = invoke nonnull align 8 dereferenceable(32) %"class.std::__cxx11::basic_string"* @_ZNSt7__cxx1112basic_stringIcSt11char_traitsIcESaIcEE6appendEmc(%"class.std::__cxx11::basic_string"* nonnull align 8 dereferenceable(32) %3, i64 1, i8 signext 68) #19
          to label %155 unwind label %137

155:                                              ; preds = %153, %157
  %156 = phi i64 [ %149, %153 ], [ %158, %157 ]
  br label %112, !llvm.loop !24

157:                                              ; preds = %148
  %158 = sub nsw i64 %115, %126
  %159 = invoke nonnull align 8 dereferenceable(32) %"class.std::__cxx11::basic_string"* @_ZNSt7__cxx1112basic_stringIcSt11char_traitsIcESaIcEE6appendEmc(%"class.std::__cxx11::basic_string"* nonnull align 8 dereferenceable(32) %3, i64 1, i8 signext 85) #19
          to label %155 unwind label %137

160:                                              ; preds = %119
  %161 = invoke nonnull align 8 dereferenceable(8) %"class.std::basic_ostream"* @_ZStlsIcSt11char_traitsIcESaIcEERSt13basic_ostreamIT_T0_ES7_RKNSt7__cxx1112basic_stringIS4_S5_T1_EE(%"class.std::basic_ostream"* nonnull align 8 dereferenceable(8) @_ZSt4cout, %"class.std::__cxx11::basic_string"* nonnull align 8 dereferenceable(32) %3) #19
          to label %162 unwind label %166

162:                                              ; preds = %160
  %163 = invoke nonnull align 8 dereferenceable(8) %"class.std::basic_ostream"* @_ZSt4endlIcSt11char_traitsIcEERSt13basic_ostreamIT_T0_ES6_(%"class.std::basic_ostream"* nonnull align 8 dereferenceable(8) %161) #19
          to label %164 unwind label %166

164:                                              ; preds = %162
  call void @_ZNSt7__cxx1112basic_stringIcSt11char_traitsIcESaIcEED2Ev(%"class.std::__cxx11::basic_string"* nonnull align 8 dereferenceable(32) %3) #17
  call void @llvm.lifetime.end.p0i8(i64 32, i8* nonnull %77) #18
  %165 = add nuw nsw i64 %86, 1
  br label %85, !llvm.loop !25

166:                                              ; preds = %162, %119, %160
  %167 = landingpad { i8*, i32 }
          cleanup
  br label %168

168:                                              ; preds = %137, %139, %166
  %169 = phi { i8*, i32 } [ %167, %166 ], [ %138, %137 ], [ %140, %139 ]
  call void @_ZNSt7__cxx1112basic_stringIcSt11char_traitsIcESaIcEED2Ev(%"class.std::__cxx11::basic_string"* nonnull align 8 dereferenceable(32) %3) #17
  call void @llvm.lifetime.end.p0i8(i64 32, i8* nonnull %77) #18
  call void @llvm.lifetime.end.p0i8(i64 8, i8* nonnull %50) #18
  resume { i8*, i32 } %169

170:                                              ; preds = %90, %37
  ret i32 0
}

; Function Attrs: minsize nofree nounwind optsize
declare noundef i32 @__isoc99_scanf(i8* nocapture noundef readonly, ...) local_unnamed_addr #6

; Function Attrs: argmemonly mustprogress nofree nosync nounwind willreturn
declare void @llvm.lifetime.start.p0i8(i64 immarg, i8* nocapture) #7

; Function Attrs: argmemonly mustprogress nofree nosync nounwind willreturn
declare void @llvm.lifetime.end.p0i8(i64 immarg, i8* nocapture) #7

; Function Attrs: minsize nofree nounwind optsize
declare noundef i32 @puts(i8* nocapture noundef readonly) local_unnamed_addr #6

; Function Attrs: minsize optsize sspstrong uwtable
define linkonce_odr dso_local void @_ZNSt6vectorIxSaIxEE9push_backERKx(%"class.std::vector"* nonnull align 8 dereferenceable(24) %0, i64* nonnull align 8 dereferenceable(8) %1) local_unnamed_addr #8 comdat align 2 {
  %3 = getelementptr inbounds %"class.std::vector", %"class.std::vector"* %0, i64 0, i32 0, i32 0, i32 0, i32 1
  %4 = load i64*, i64** %3, align 8, !tbaa !14
  %5 = getelementptr inbounds %"class.std::vector", %"class.std::vector"* %0, i64 0, i32 0, i32 0, i32 0, i32 2
  %6 = load i64*, i64** %5, align 8, !tbaa !26
  %7 = icmp eq i64* %4, %6
  br i1 %7, label %11, label %8

8:                                                ; preds = %2
  %9 = load i64, i64* %1, align 8, !tbaa !9
  store i64 %9, i64* %4, align 8, !tbaa !9
  %10 = getelementptr inbounds i64, i64* %4, i64 1
  store i64* %10, i64** %3, align 8, !tbaa !14
  br label %12

11:                                               ; preds = %2
  tail call void @_ZNSt6vectorIxSaIxEE17_M_realloc_insertIJRKxEEEvN9__gnu_cxx17__normal_iteratorIPxS1_EEDpOT_(%"class.std::vector"* nonnull align 8 dereferenceable(24) %0, i64* %4, i64* nonnull align 8 dereferenceable(8) %1) #19
  br label %12

12:                                               ; preds = %11, %8
  ret void
}

; Function Attrs: minsize nofree nounwind optsize
declare noundef i32 @printf(i8* nocapture noundef readonly, ...) local_unnamed_addr #6

; Function Attrs: inlinehint minsize mustprogress optsize sspstrong uwtable
declare nonnull align 8 dereferenceable(8) %"class.std::basic_ostream"* @_ZSt4endlIcSt11char_traitsIcEERSt13basic_ostreamIT_T0_ES6_(%"class.std::basic_ostream"* nonnull align 8 dereferenceable(8)) local_unnamed_addr #9

; Function Attrs: minsize optsize sspstrong uwtable
declare void @_ZNSt7__cxx1112basic_stringIcSt11char_traitsIcESaIcEEC2EPKcRKS3_(%"class.std::__cxx11::basic_string"* nonnull align 8 dereferenceable(32), i8*, %"class.std::allocator.0"* nonnull align 1 dereferenceable(1)) unnamed_addr #8 align 2

declare i32 @__gxx_personality_v0(...)

; Function Attrs: minsize mustprogress optsize sspstrong uwtable
declare nonnull align 8 dereferenceable(32) %"class.std::__cxx11::basic_string"* @_ZNSt7__cxx1112basic_stringIcSt11char_traitsIcESaIcEE6appendEmc(%"class.std::__cxx11::basic_string"* nonnull align 8 dereferenceable(32), i64, i8 signext) local_unnamed_addr #10 align 2

; Function Attrs: inlinehint minsize mustprogress optsize sspstrong uwtable
declare nonnull align 8 dereferenceable(8) %"class.std::basic_ostream"* @_ZStlsIcSt11char_traitsIcESaIcEERSt13basic_ostreamIT_T0_ES7_RKNSt7__cxx1112basic_stringIS4_S5_T1_EE(%"class.std::basic_ostream"* nonnull align 8 dereferenceable(8), %"class.std::__cxx11::basic_string"* nonnull align 8 dereferenceable(32)) local_unnamed_addr #9

; Function Attrs: minsize nounwind optsize sspstrong uwtable
declare void @_ZNSt7__cxx1112basic_stringIcSt11char_traitsIcESaIcEED2Ev(%"class.std::__cxx11::basic_string"* nonnull align 8 dereferenceable(32)) unnamed_addr #3 align 2

; Function Attrs: minsize nobuiltin nounwind optsize
declare void @_ZdlPv(i8*) local_unnamed_addr #11

; Function Attrs: minsize nounwind optsize sspstrong uwtable
define linkonce_odr dso_local void @_ZNSt12_Vector_baseIxSaIxEED2Ev(%"struct.std::_Vector_base"* nonnull align 8 dereferenceable(24) %0) unnamed_addr #3 comdat align 2 personality i8* bitcast (i32 (...)* @__gxx_personality_v0 to i8*) {
  %2 = getelementptr inbounds %"struct.std::_Vector_base", %"struct.std::_Vector_base"* %0, i64 0, i32 0, i32 0, i32 0
  %3 = load i64*, i64** %2, align 8, !tbaa !17
  %4 = icmp eq i64* %3, null
  br i1 %4, label %7, label %5

5:                                                ; preds = %1
  %6 = bitcast i64* %3 to i8*
  tail call void @_ZdlPv(i8* nonnull %6) #17
  br label %7

7:                                                ; preds = %5, %1
  ret void
}

; Function Attrs: minsize optsize sspstrong uwtable
define linkonce_odr dso_local void @_ZNSt6vectorIxSaIxEE12emplace_backIJxEEEvDpOT_(%"class.std::vector"* nonnull align 8 dereferenceable(24) %0, i64* nonnull align 8 dereferenceable(8) %1) local_unnamed_addr #8 comdat align 2 {
  %3 = getelementptr inbounds %"class.std::vector", %"class.std::vector"* %0, i64 0, i32 0, i32 0, i32 0, i32 1
  %4 = load i64*, i64** %3, align 8, !tbaa !14
  %5 = getelementptr inbounds %"class.std::vector", %"class.std::vector"* %0, i64 0, i32 0, i32 0, i32 0, i32 2
  %6 = load i64*, i64** %5, align 8, !tbaa !26
  %7 = icmp eq i64* %4, %6
  br i1 %7, label %11, label %8

8:                                                ; preds = %2
  %9 = load i64, i64* %1, align 8, !tbaa !9
  store i64 %9, i64* %4, align 8, !tbaa !9
  %10 = getelementptr inbounds i64, i64* %4, i64 1
  store i64* %10, i64** %3, align 8, !tbaa !14
  br label %12

11:                                               ; preds = %2
  tail call void @_ZNSt6vectorIxSaIxEE17_M_realloc_insertIJxEEEvN9__gnu_cxx17__normal_iteratorIPxS1_EEDpOT_(%"class.std::vector"* nonnull align 8 dereferenceable(24) %0, i64* %4, i64* nonnull align 8 dereferenceable(8) %1) #19
  br label %12

12:                                               ; preds = %11, %8
  ret void
}

; Function Attrs: minsize optsize sspstrong uwtable
define linkonce_odr dso_local void @_ZNSt6vectorIxSaIxEE17_M_realloc_insertIJxEEEvN9__gnu_cxx17__normal_iteratorIPxS1_EEDpOT_(%"class.std::vector"* nonnull align 8 dereferenceable(24) %0, i64* %1, i64* nonnull align 8 dereferenceable(8) %2) local_unnamed_addr #8 comdat align 2 {
  %4 = tail call i64 @_ZNKSt6vectorIxSaIxEE12_M_check_lenEmPKc(%"class.std::vector"* nonnull align 8 dereferenceable(24) %0, i64 1, i8* getelementptr inbounds ([26 x i8], [26 x i8]* @.str.7, i64 0, i64 0)) #19
  %5 = getelementptr inbounds %"class.std::vector", %"class.std::vector"* %0, i64 0, i32 0
  %6 = getelementptr inbounds %"class.std::vector", %"class.std::vector"* %0, i64 0, i32 0, i32 0, i32 0, i32 0
  %7 = load i64*, i64** %6, align 8, !tbaa !17
  %8 = getelementptr inbounds %"class.std::vector", %"class.std::vector"* %0, i64 0, i32 0, i32 0, i32 0, i32 1
  %9 = load i64*, i64** %8, align 8, !tbaa !14
  %10 = ptrtoint i64* %1 to i64
  %11 = ptrtoint i64* %7 to i64
  %12 = sub i64 %10, %11
  %13 = ashr exact i64 %12, 3
  %14 = tail call i64* @_ZNSt12_Vector_baseIxSaIxEE11_M_allocateEm(%"struct.std::_Vector_base"* nonnull align 8 dereferenceable(24) %5, i64 %4) #19
  %15 = getelementptr inbounds i64, i64* %14, i64 %13
  %16 = load i64, i64* %2, align 8, !tbaa !9
  store i64 %16, i64* %15, align 8, !tbaa !9
  %17 = icmp sgt i64 %12, 0
  br i1 %17, label %18, label %21

18:                                               ; preds = %3
  %19 = bitcast i64* %14 to i8*
  %20 = bitcast i64* %7 to i8*
  tail call void @llvm.memmove.p0i8.p0i8.i64(i8* align 8 %19, i8* align 8 %20, i64 %12, i1 false) #18
  br label %21

21:                                               ; preds = %3, %18
  %22 = getelementptr inbounds i64, i64* %15, i64 1
  %23 = ptrtoint i64* %9 to i64
  %24 = sub i64 %23, %10
  %25 = icmp sgt i64 %24, 0
  br i1 %25, label %26, label %29

26:                                               ; preds = %21
  %27 = bitcast i64* %22 to i8*
  %28 = bitcast i64* %1 to i8*
  tail call void @llvm.memmove.p0i8.p0i8.i64(i8* nonnull align 8 %27, i8* align 8 %28, i64 %24, i1 false) #18
  br label %29

29:                                               ; preds = %21, %26
  %30 = icmp eq i64* %7, null
  br i1 %30, label %33, label %31

31:                                               ; preds = %29
  %32 = bitcast i64* %7 to i8*
  tail call void @_ZdlPv(i8* nonnull %32) #17
  br label %33

33:                                               ; preds = %29, %31
  %34 = getelementptr inbounds %"class.std::vector", %"class.std::vector"* %0, i64 0, i32 0, i32 0, i32 0, i32 2
  %35 = ashr exact i64 %24, 3
  %36 = getelementptr inbounds i64, i64* %22, i64 %35
  store i64* %14, i64** %6, align 8, !tbaa !17
  store i64* %36, i64** %8, align 8, !tbaa !14
  %37 = getelementptr inbounds i64, i64* %14, i64 %4
  store i64* %37, i64** %34, align 8, !tbaa !26
  ret void
}

; Function Attrs: minsize mustprogress optsize sspstrong uwtable
define linkonce_odr dso_local i64 @_ZNKSt6vectorIxSaIxEE12_M_check_lenEmPKc(%"class.std::vector"* nonnull align 8 dereferenceable(24) %0, i64 %1, i8* %2) local_unnamed_addr #10 comdat align 2 personality i32 (...)* @__gxx_personality_v0 {
  %4 = getelementptr inbounds %"class.std::vector", %"class.std::vector"* %0, i64 0, i32 0, i32 0, i32 0, i32 1
  %5 = load i64*, i64** %4, align 8, !tbaa !14
  %6 = getelementptr inbounds %"class.std::vector", %"class.std::vector"* %0, i64 0, i32 0, i32 0, i32 0, i32 0
  %7 = load i64*, i64** %6, align 8, !tbaa !17
  %8 = ptrtoint i64* %5 to i64
  %9 = ptrtoint i64* %7 to i64
  %10 = sub i64 %8, %9
  %11 = ashr exact i64 %10, 3
  %12 = sub nsw i64 1152921504606846975, %11
  %13 = icmp ult i64 %12, %1
  br i1 %13, label %14, label %15

14:                                               ; preds = %3
  tail call void @_ZSt20__throw_length_errorPKc(i8* %2) #20
  unreachable

15:                                               ; preds = %3
  %16 = icmp ult i64 %11, %1
  %17 = select i1 %16, i64 %1, i64 %11
  %18 = add i64 %17, %11
  %19 = icmp ult i64 %18, %11
  %20 = icmp ugt i64 %18, 1152921504606846975
  %21 = or i1 %19, %20
  %22 = select i1 %21, i64 1152921504606846975, i64 %18
  ret i64 %22
}

; Function Attrs: minsize mustprogress optsize sspstrong uwtable
define linkonce_odr dso_local i64* @_ZNSt12_Vector_baseIxSaIxEE11_M_allocateEm(%"struct.std::_Vector_base"* nonnull align 8 dereferenceable(24) %0, i64 %1) local_unnamed_addr #10 comdat align 2 {
  %3 = icmp eq i64 %1, 0
  br i1 %3, label %7, label %4

4:                                                ; preds = %2
  %5 = bitcast %"struct.std::_Vector_base"* %0 to %"class.std::allocator"*
  %6 = tail call i64* @_ZNSt16allocator_traitsISaIxEE8allocateERS0_m(%"class.std::allocator"* nonnull align 1 dereferenceable(1) %5, i64 %1) #19
  br label %7

7:                                                ; preds = %2, %4
  %8 = phi i64* [ %6, %4 ], [ null, %2 ]
  ret i64* %8
}

; Function Attrs: minsize noreturn optsize
declare void @_ZSt20__throw_length_errorPKc(i8*) local_unnamed_addr #12

; Function Attrs: minsize mustprogress optsize sspstrong uwtable
define linkonce_odr dso_local i64* @_ZNSt16allocator_traitsISaIxEE8allocateERS0_m(%"class.std::allocator"* nonnull align 1 dereferenceable(1) %0, i64 %1) local_unnamed_addr #10 comdat align 2 {
  %3 = bitcast %"class.std::allocator"* %0 to %"class.__gnu_cxx::new_allocator"*
  %4 = tail call i64* @_ZN9__gnu_cxx13new_allocatorIxE8allocateEmPKv(%"class.__gnu_cxx::new_allocator"* nonnull align 1 dereferenceable(1) %3, i64 %1, i8* null) #19
  ret i64* %4
}

; Function Attrs: minsize mustprogress optsize sspstrong uwtable
define linkonce_odr dso_local i64* @_ZN9__gnu_cxx13new_allocatorIxE8allocateEmPKv(%"class.__gnu_cxx::new_allocator"* nonnull align 1 dereferenceable(1) %0, i64 %1, i8* %2) local_unnamed_addr #10 comdat align 2 {
  %4 = icmp ugt i64 %1, 1152921504606846975
  br i1 %4, label %5, label %9, !prof !27

5:                                                ; preds = %3
  %6 = icmp ugt i64 %1, 2305843009213693951
  br i1 %6, label %7, label %8

7:                                                ; preds = %5
  tail call void @_ZSt28__throw_bad_array_new_lengthv() #20
  unreachable

8:                                                ; preds = %5
  tail call void @_ZSt17__throw_bad_allocv() #20
  unreachable

9:                                                ; preds = %3
  %10 = shl nuw nsw i64 %1, 3
  %11 = tail call noalias nonnull i8* @_Znwm(i64 %10) #21
  %12 = bitcast i8* %11 to i64*
  ret i64* %12
}

; Function Attrs: minsize noreturn optsize
declare void @_ZSt28__throw_bad_array_new_lengthv() local_unnamed_addr #12

; Function Attrs: minsize noreturn optsize
declare void @_ZSt17__throw_bad_allocv() local_unnamed_addr #12

; Function Attrs: minsize nobuiltin optsize allocsize(0)
declare nonnull i8* @_Znwm(i64) local_unnamed_addr #13

; Function Attrs: argmemonly mustprogress nofree nounwind willreturn
declare void @llvm.memmove.p0i8.p0i8.i64(i8* nocapture writeonly, i8* nocapture readonly, i64, i1 immarg) #14

; Function Attrs: minsize optsize sspstrong uwtable
define linkonce_odr dso_local void @_ZNSt6vectorIxSaIxEE17_M_realloc_insertIJRKxEEEvN9__gnu_cxx17__normal_iteratorIPxS1_EEDpOT_(%"class.std::vector"* nonnull align 8 dereferenceable(24) %0, i64* %1, i64* nonnull align 8 dereferenceable(8) %2) local_unnamed_addr #8 comdat align 2 {
  %4 = tail call i64 @_ZNKSt6vectorIxSaIxEE12_M_check_lenEmPKc(%"class.std::vector"* nonnull align 8 dereferenceable(24) %0, i64 1, i8* getelementptr inbounds ([26 x i8], [26 x i8]* @.str.7, i64 0, i64 0)) #19
  %5 = getelementptr inbounds %"class.std::vector", %"class.std::vector"* %0, i64 0, i32 0
  %6 = getelementptr inbounds %"class.std::vector", %"class.std::vector"* %0, i64 0, i32 0, i32 0, i32 0, i32 0
  %7 = load i64*, i64** %6, align 8, !tbaa !17
  %8 = getelementptr inbounds %"class.std::vector", %"class.std::vector"* %0, i64 0, i32 0, i32 0, i32 0, i32 1
  %9 = load i64*, i64** %8, align 8, !tbaa !14
  %10 = ptrtoint i64* %1 to i64
  %11 = ptrtoint i64* %7 to i64
  %12 = sub i64 %10, %11
  %13 = ashr exact i64 %12, 3
  %14 = tail call i64* @_ZNSt12_Vector_baseIxSaIxEE11_M_allocateEm(%"struct.std::_Vector_base"* nonnull align 8 dereferenceable(24) %5, i64 %4) #19
  %15 = getelementptr inbounds i64, i64* %14, i64 %13
  %16 = load i64, i64* %2, align 8, !tbaa !9
  store i64 %16, i64* %15, align 8, !tbaa !9
  %17 = icmp sgt i64 %12, 0
  br i1 %17, label %18, label %21

18:                                               ; preds = %3
  %19 = bitcast i64* %14 to i8*
  %20 = bitcast i64* %7 to i8*
  tail call void @llvm.memmove.p0i8.p0i8.i64(i8* align 8 %19, i8* align 8 %20, i64 %12, i1 false) #18
  br label %21

21:                                               ; preds = %3, %18
  %22 = getelementptr inbounds i64, i64* %15, i64 1
  %23 = ptrtoint i64* %9 to i64
  %24 = sub i64 %23, %10
  %25 = icmp sgt i64 %24, 0
  br i1 %25, label %26, label %29

26:                                               ; preds = %21
  %27 = bitcast i64* %22 to i8*
  %28 = bitcast i64* %1 to i8*
  tail call void @llvm.memmove.p0i8.p0i8.i64(i8* nonnull align 8 %27, i8* align 8 %28, i64 %24, i1 false) #18
  br label %29

29:                                               ; preds = %21, %26
  %30 = icmp eq i64* %7, null
  br i1 %30, label %33, label %31

31:                                               ; preds = %29
  %32 = bitcast i64* %7 to i8*
  tail call void @_ZdlPv(i8* nonnull %32) #17
  br label %33

33:                                               ; preds = %29, %31
  %34 = getelementptr inbounds %"class.std::vector", %"class.std::vector"* %0, i64 0, i32 0, i32 0, i32 0, i32 2
  %35 = ashr exact i64 %24, 3
  %36 = getelementptr inbounds i64, i64* %22, i64 %35
  store i64* %14, i64** %6, align 8, !tbaa !17
  store i64* %36, i64** %8, align 8, !tbaa !14
  %37 = getelementptr inbounds i64, i64* %14, i64 %4
  store i64* %37, i64** %34, align 8, !tbaa !26
  ret void
}

; Function Attrs: minsize mustprogress optsize sspstrong uwtable
define linkonce_odr dso_local void @_ZSt9__reverseIN9__gnu_cxx17__normal_iteratorIPcNSt7__cxx1112basic_stringIcSt11char_traitsIcESaIcEEEEEEvT_SA_St26random_access_iterator_tag(i8* %0, i8* %1) local_unnamed_addr #10 comdat {
  %3 = icmp eq i8* %0, %1
  br i1 %3, label %13, label %4

4:                                                ; preds = %2, %9
  %5 = phi i8* [ %12, %9 ], [ %0, %2 ]
  %6 = phi i8* [ %7, %9 ], [ %1, %2 ]
  %7 = getelementptr inbounds i8, i8* %6, i64 -1
  %8 = icmp ult i8* %5, %7
  br i1 %8, label %9, label %13

9:                                                ; preds = %4
  %10 = load i8, i8* %5, align 1, !tbaa !28
  %11 = load i8, i8* %7, align 1, !tbaa !28
  store i8 %11, i8* %5, align 1, !tbaa !28
  store i8 %10, i8* %7, align 1, !tbaa !28
  %12 = getelementptr inbounds i8, i8* %5, i64 1
  br label %4, !llvm.loop !29

13:                                               ; preds = %4, %2
  ret void
}

; Function Attrs: minsize optsize sspstrong uwtable
define internal void @_GLOBAL__sub_I_s354324478.cpp() #8 section ".text.startup" {
  tail call void @_ZNSt8ios_base4InitC1Ev(%"class.std::ios_base::Init"* nonnull align 1 dereferenceable(1) @_ZStL8__ioinit) #19
  %1 = tail call i32 @__cxa_atexit(void (i8*)* bitcast (void (%"class.std::ios_base::Init"*)* @_ZNSt8ios_base4InitD1Ev to void (i8*)*), i8* getelementptr inbounds (%"class.std::ios_base::Init", %"class.std::ios_base::Init"* @_ZStL8__ioinit, i64 0, i32 0), i8* nonnull @__dso_handle) #18
  tail call void @llvm.memset.p0i8.i64(i8* noundef nonnull align 8 dereferenceable(24) bitcast (%"class.std::vector"* @ans to i8*), i8 0, i64 24, i1 false) #18
  %2 = tail call i32 @__cxa_atexit(void (i8*)* bitcast (void (%"class.std::vector"*)* @_ZNSt6vectorIxSaIxEED2Ev to void (i8*)*), i8* bitcast (%"class.std::vector"* @ans to i8*), i8* nonnull @__dso_handle) #18
  ret void
}

; Function Attrs: nofree nosync nounwind readnone speculatable willreturn
declare i64 @llvm.abs.i64(i64, i1 immarg) #15

; Function Attrs: nofree nosync nounwind readnone speculatable willreturn
declare i32 @llvm.abs.i32(i32, i1 immarg) #15

; Function Attrs: argmemonly nofree nounwind willreturn writeonly
declare void @llvm.memset.p0i8.i64(i8* nocapture writeonly, i8, i64, i1 immarg) #16

attributes #0 = { minsize optsize "frame-pointer"="none" "no-trapping-math"="true" "stack-protector-buffer-size"="8" "target-cpu"="x86-64" "target-features"="+cx8,+fxsr,+mmx,+sse,+sse2,+x87" "tune-cpu"="generic" }
attributes #1 = { minsize nounwind optsize "frame-pointer"="none" "no-trapping-math"="true" "stack-protector-buffer-size"="8" "target-cpu"="x86-64" "target-features"="+cx8,+fxsr,+mmx,+sse,+sse2,+x87" "tune-cpu"="generic" }
attributes #2 = { nofree nounwind }
attributes #3 = { minsize nounwind optsize sspstrong uwtable "frame-pointer"="none" "min-legal-vector-width"="0" "no-trapping-math"="true" "stack-protector-buffer-size"="8" "target-cpu"="x86-64" "target-features"="+cx8,+fxsr,+mmx,+sse,+sse2,+x87" "tune-cpu"="generic" }
attributes #4 = { minsize mustprogress nofree nosync nounwind optsize readnone sspstrong uwtable willreturn "frame-pointer"="none" "min-legal-vector-width"="0" "no-trapping-math"="true" "stack-protector-buffer-size"="8" "target-cpu"="x86-64" "target-features"="+cx8,+fxsr,+mmx,+sse,+sse2,+x87" "tune-cpu"="generic" }
attributes #5 = { minsize norecurse optsize sspstrong uwtable "frame-pointer"="none" "min-legal-vector-width"="0" "no-trapping-math"="true" "stack-protector-buffer-size"="8" "target-cpu"="x86-64" "target-features"="+cx8,+fxsr,+mmx,+sse,+sse2,+x87" "tune-cpu"="generic" }
attributes #6 = { minsize nofree nounwind optsize "frame-pointer"="none" "no-trapping-math"="true" "stack-protector-buffer-size"="8" "target-cpu"="x86-64" "target-features"="+cx8,+fxsr,+mmx,+sse,+sse2,+x87" "tune-cpu"="generic" }
attributes #7 = { argmemonly mustprogress nofree nosync nounwind willreturn }
attributes #8 = { minsize optsize sspstrong uwtable "frame-pointer"="none" "min-legal-vector-width"="0" "no-trapping-math"="true" "stack-protector-buffer-size"="8" "target-cpu"="x86-64" "target-features"="+cx8,+fxsr,+mmx,+sse,+sse2,+x87" "tune-cpu"="generic" }
attributes #9 = { inlinehint minsize mustprogress optsize sspstrong uwtable "frame-pointer"="none" "min-legal-vector-width"="0" "no-trapping-math"="true" "stack-protector-buffer-size"="8" "target-cpu"="x86-64" "target-features"="+cx8,+fxsr,+mmx,+sse,+sse2,+x87" "tune-cpu"="generic" }
attributes #10 = { minsize mustprogress optsize sspstrong uwtable "frame-pointer"="none" "min-legal-vector-width"="0" "no-trapping-math"="true" "stack-protector-buffer-size"="8" "target-cpu"="x86-64" "target-features"="+cx8,+fxsr,+mmx,+sse,+sse2,+x87" "tune-cpu"="generic" }
attributes #11 = { minsize nobuiltin nounwind optsize "frame-pointer"="none" "no-trapping-math"="true" "stack-protector-buffer-size"="8" "target-cpu"="x86-64" "target-features"="+cx8,+fxsr,+mmx,+sse,+sse2,+x87" "tune-cpu"="generic" }
attributes #12 = { minsize noreturn optsize "frame-pointer"="none" "no-trapping-math"="true" "stack-protector-buffer-size"="8" "target-cpu"="x86-64" "target-features"="+cx8,+fxsr,+mmx,+sse,+sse2,+x87" "tune-cpu"="generic" }
attributes #13 = { minsize nobuiltin optsize allocsize(0) "frame-pointer"="none" "no-trapping-math"="true" "stack-protector-buffer-size"="8" "target-cpu"="x86-64" "target-features"="+cx8,+fxsr,+mmx,+sse,+sse2,+x87" "tune-cpu"="generic" }
attributes #14 = { argmemonly mustprogress nofree nounwind willreturn }
attributes #15 = { nofree nosync nounwind readnone speculatable willreturn }
attributes #16 = { argmemonly nofree nounwind willreturn writeonly }
attributes #17 = { minsize nounwind optsize }
attributes #18 = { nounwind }
attributes #19 = { minsize optsize }
attributes #20 = { minsize noreturn optsize }
attributes #21 = { minsize optsize allocsize(0) }

!llvm.module.flags = !{!0, !1, !2, !3}
!llvm.ident = !{!4}

!0 = !{i32 1, !"wchar_size", i32 4}
!1 = !{i32 7, !"PIC Level", i32 2}
!2 = !{i32 7, !"PIE Level", i32 2}
!3 = !{i32 7, !"uwtable", i32 1}
!4 = !{!"clang version 13.0.0"}
!5 = !{!6, !6, i64 0}
!6 = !{!"int", !7, i64 0}
!7 = !{!"omnipotent char", !8, i64 0}
!8 = !{!"Simple C++ TBAA"}
!9 = !{!10, !10, i64 0}
!10 = !{!"long long", !7, i64 0}
!11 = distinct !{!11, !12}
!12 = !{!"llvm.loop.mustprogress"}
!13 = distinct !{!13, !12}
!14 = !{!15, !16, i64 8}
!15 = !{!"_ZTSNSt12_Vector_baseIxSaIxEE17_Vector_impl_dataE", !16, i64 0, !16, i64 8, !16, i64 16}
!16 = !{!"any pointer", !7, i64 0}
!17 = !{!15, !16, i64 0}
!18 = !{!16, !16, i64 0}
!19 = !{!20, !16, i64 0}
!20 = !{!"_ZTSNSt7__cxx1112basic_stringIcSt11char_traitsIcESaIcEEE", !21, i64 0, !22, i64 8, !7, i64 16}
!21 = !{!"_ZTSNSt7__cxx1112basic_stringIcSt11char_traitsIcESaIcEE12_Alloc_hiderE", !16, i64 0}
!22 = !{!"long", !7, i64 0}
!23 = !{!20, !22, i64 8}
!24 = distinct !{!24, !12}
!25 = distinct !{!25, !12}
!26 = !{!15, !16, i64 16}
!27 = !{!"branch_weights", i32 1, i32 2000}
!28 = !{!7, !7, i64 0}
!29 = distinct !{!29, !12}
