; ModuleID = 'Project_CodeNet_C++1400/p03814/s566309244.cpp'
source_filename = "Project_CodeNet_C++1400/p03814/s566309244.cpp"
target datalayout = "e-m:e-p270:32:32-p271:32:32-p272:64:64-i64:64-f80:128-n8:16:32:64-S128"
target triple = "x86_64-pc-linux-gnu"

%"class.std::ios_base::Init" = type { i8 }
%"class.std::basic_istream" = type { i32 (...)**, i64, %"class.std::basic_ios" }
%"class.std::basic_ios" = type { %"class.std::ios_base", %"class.std::basic_ostream"*, i8, i8, %"class.std::basic_streambuf"*, %"class.std::ctype"*, %"class.std::num_put"*, %"class.std::num_get"* }
%"class.std::ios_base" = type { i32 (...)**, i64, i64, i32, i32, i32, %"struct.std::ios_base::_Callback_list"*, %"struct.std::ios_base::_Words", [8 x %"struct.std::ios_base::_Words"], i32, %"struct.std::ios_base::_Words"*, %"class.std::locale" }
%"struct.std::ios_base::_Callback_list" = type { %"struct.std::ios_base::_Callback_list"*, void (i32, %"class.std::ios_base"*, i32)*, i32, i32 }
%"struct.std::ios_base::_Words" = type { i8*, i64 }
%"class.std::locale" = type { %"class.std::locale::_Impl"* }
%"class.std::locale::_Impl" = type { i32, %"class.std::locale::facet"**, i64, %"class.std::locale::facet"**, i8** }
%"class.std::locale::facet" = type <{ i32 (...)**, i32, [4 x i8] }>
%"class.std::basic_ostream" = type { i32 (...)**, %"class.std::basic_ios" }
%"class.std::basic_streambuf" = type { i32 (...)**, i8*, i8*, i8*, i8*, i8*, i8*, %"class.std::locale" }
%"class.std::ctype" = type <{ %"class.std::locale::facet.base", [4 x i8], %struct.__locale_struct*, i8, [7 x i8], i32*, i32*, i16*, i8, [256 x i8], [256 x i8], i8, [6 x i8] }>
%"class.std::locale::facet.base" = type <{ i32 (...)**, i32 }>
%struct.__locale_struct = type { [13 x %struct.__locale_data*], i16*, i32*, i32*, [13 x i8*] }
%struct.__locale_data = type opaque
%"class.std::num_put" = type { %"class.std::locale::facet.base", [4 x i8] }
%"class.std::num_get" = type { %"class.std::locale::facet.base", [4 x i8] }
%"class.std::__cxx11::basic_string" = type { %"struct.std::__cxx11::basic_string<char>::_Alloc_hider", i64, %union.anon }
%"struct.std::__cxx11::basic_string<char>::_Alloc_hider" = type { i8* }
%union.anon = type { i64, [8 x i8] }

@_ZStL8__ioinit = internal global %"class.std::ios_base::Init" zeroinitializer, align 1
@__dso_handle = external hidden global i8
@_ZSt3cin = external global %"class.std::basic_istream", align 8
@_ZSt4cout = external global %"class.std::basic_ostream", align 8
@llvm.global_ctors = appending global [1 x { i32, void ()*, i8* }] [{ i32, void ()*, i8* } { i32 65535, void ()* @_GLOBAL__sub_I_s566309244.cpp, i8* null }]

declare void @_ZNSt8ios_base4InitC1Ev(%"class.std::ios_base::Init"* nonnull align 1 dereferenceable(1)) unnamed_addr #0

; Function Attrs: nounwind
declare void @_ZNSt8ios_base4InitD1Ev(%"class.std::ios_base::Init"* nonnull align 1 dereferenceable(1)) unnamed_addr #1

; Function Attrs: nofree nounwind
declare i32 @__cxa_atexit(void (i8*)*, i8*, i8*) local_unnamed_addr #2

; Function Attrs: norecurse sspstrong uwtable
define dso_local i32 @main() local_unnamed_addr #3 personality i8* bitcast (i32 (...)* @__gxx_personality_v0 to i8*) {
  %1 = alloca %"class.std::__cxx11::basic_string", align 8
  %2 = bitcast %"class.std::__cxx11::basic_string"* %1 to i8*
  call void @llvm.lifetime.start.p0i8(i64 32, i8* nonnull %2) #8
  %3 = getelementptr inbounds %"class.std::__cxx11::basic_string", %"class.std::__cxx11::basic_string"* %1, i64 0, i32 2
  %4 = bitcast %"class.std::__cxx11::basic_string"* %1 to %union.anon**
  store %union.anon* %3, %union.anon** %4, align 8, !tbaa !5
  %5 = getelementptr inbounds %"class.std::__cxx11::basic_string", %"class.std::__cxx11::basic_string"* %1, i64 0, i32 1
  store i64 0, i64* %5, align 8, !tbaa !10
  %6 = bitcast %union.anon* %3 to i8*
  store i8 0, i8* %6, align 8, !tbaa !13
  %7 = invoke nonnull align 8 dereferenceable(16) %"class.std::basic_istream"* @_ZStrsIcSt11char_traitsIcESaIcEERSt13basic_istreamIT_T0_ES7_RNSt7__cxx1112basic_stringIS4_S5_T1_EE(%"class.std::basic_istream"* nonnull align 8 dereferenceable(16) @_ZSt3cin, %"class.std::__cxx11::basic_string"* nonnull align 8 dereferenceable(32) %1)
          to label %8 unwind label %13

8:                                                ; preds = %0
  %9 = getelementptr inbounds %"class.std::__cxx11::basic_string", %"class.std::__cxx11::basic_string"* %1, i64 0, i32 0, i32 0
  %10 = load i64, i64* %5, align 8, !tbaa !10
  %11 = load i8*, i8** %9, align 8
  %12 = icmp eq i64 %10, 0
  br i1 %12, label %50, label %15

13:                                               ; preds = %0
  %14 = landingpad { i8*, i32 }
          cleanup
  br label %126

15:                                               ; preds = %8, %20
  %16 = phi i64 [ %21, %20 ], [ 0, %8 ]
  %17 = getelementptr inbounds i8, i8* %11, i64 %16
  %18 = load i8, i8* %17, align 1, !tbaa !13
  %19 = icmp eq i8 %18, 65
  br i1 %19, label %23, label %20

20:                                               ; preds = %15
  %21 = add nuw i64 %16, 1
  %22 = icmp eq i64 %21, %10
  br i1 %22, label %25, label %15, !llvm.loop !14

23:                                               ; preds = %15
  %24 = trunc i64 %16 to i32
  br label %25

25:                                               ; preds = %20, %23
  %26 = phi i32 [ %24, %23 ], [ 0, %20 ]
  br i1 %12, label %50, label %27

27:                                               ; preds = %25
  %28 = add i64 %10, -1
  %29 = and i64 %10, 3
  %30 = icmp ult i64 %28, 3
  br i1 %30, label %33, label %31

31:                                               ; preds = %27
  %32 = and i64 %10, -4
  br label %56

33:                                               ; preds = %56, %27
  %34 = phi i32 [ undef, %27 ], [ %82, %56 ]
  %35 = phi i64 [ 0, %27 ], [ %83, %56 ]
  %36 = phi i32 [ 0, %27 ], [ %82, %56 ]
  %37 = icmp eq i64 %29, 0
  br i1 %37, label %50, label %38

38:                                               ; preds = %33, %38
  %39 = phi i64 [ %47, %38 ], [ %35, %33 ]
  %40 = phi i32 [ %46, %38 ], [ %36, %33 ]
  %41 = phi i64 [ %48, %38 ], [ %29, %33 ]
  %42 = getelementptr inbounds i8, i8* %11, i64 %39
  %43 = load i8, i8* %42, align 1, !tbaa !13
  %44 = icmp eq i8 %43, 90
  %45 = trunc i64 %39 to i32
  %46 = select i1 %44, i32 %45, i32 %40
  %47 = add nuw nsw i64 %39, 1
  %48 = add i64 %41, -1
  %49 = icmp eq i64 %48, 0
  br i1 %49, label %50, label %38, !llvm.loop !16

50:                                               ; preds = %33, %38, %8, %25
  %51 = phi i32 [ %26, %25 ], [ 0, %8 ], [ %26, %38 ], [ %26, %33 ]
  %52 = phi i32 [ 0, %25 ], [ 0, %8 ], [ %34, %33 ], [ %46, %38 ]
  %53 = sub nsw i32 1, %51
  %54 = add i32 %53, %52
  %55 = invoke nonnull align 8 dereferenceable(8) %"class.std::basic_ostream"* @_ZNSolsEi(%"class.std::basic_ostream"* nonnull align 8 dereferenceable(8) @_ZSt4cout, i32 %54)
          to label %86 unwind label %124

56:                                               ; preds = %56, %31
  %57 = phi i64 [ 0, %31 ], [ %83, %56 ]
  %58 = phi i32 [ 0, %31 ], [ %82, %56 ]
  %59 = phi i64 [ %32, %31 ], [ %84, %56 ]
  %60 = getelementptr inbounds i8, i8* %11, i64 %57
  %61 = load i8, i8* %60, align 1, !tbaa !13
  %62 = icmp eq i8 %61, 90
  %63 = trunc i64 %57 to i32
  %64 = select i1 %62, i32 %63, i32 %58
  %65 = or i64 %57, 1
  %66 = getelementptr inbounds i8, i8* %11, i64 %65
  %67 = load i8, i8* %66, align 1, !tbaa !13
  %68 = icmp eq i8 %67, 90
  %69 = trunc i64 %65 to i32
  %70 = select i1 %68, i32 %69, i32 %64
  %71 = or i64 %57, 2
  %72 = getelementptr inbounds i8, i8* %11, i64 %71
  %73 = load i8, i8* %72, align 1, !tbaa !13
  %74 = icmp eq i8 %73, 90
  %75 = trunc i64 %71 to i32
  %76 = select i1 %74, i32 %75, i32 %70
  %77 = or i64 %57, 3
  %78 = getelementptr inbounds i8, i8* %11, i64 %77
  %79 = load i8, i8* %78, align 1, !tbaa !13
  %80 = icmp eq i8 %79, 90
  %81 = trunc i64 %77 to i32
  %82 = select i1 %80, i32 %81, i32 %76
  %83 = add nuw nsw i64 %57, 4
  %84 = add i64 %59, -4
  %85 = icmp eq i64 %84, 0
  br i1 %85, label %33, label %56, !llvm.loop !18

86:                                               ; preds = %50
  %87 = bitcast %"class.std::basic_ostream"* %55 to i8**
  %88 = load i8*, i8** %87, align 8, !tbaa !19
  %89 = getelementptr i8, i8* %88, i64 -24
  %90 = bitcast i8* %89 to i64*
  %91 = load i64, i64* %90, align 8
  %92 = bitcast %"class.std::basic_ostream"* %55 to i8*
  %93 = add nsw i64 %91, 240
  %94 = getelementptr inbounds i8, i8* %92, i64 %93
  %95 = bitcast i8* %94 to %"class.std::ctype"**
  %96 = load %"class.std::ctype"*, %"class.std::ctype"** %95, align 8, !tbaa !21
  %97 = icmp eq %"class.std::ctype"* %96, null
  br i1 %97, label %98, label %100

98:                                               ; preds = %86
  invoke void @_ZSt16__throw_bad_castv() #9
          to label %99 unwind label %124

99:                                               ; preds = %98
  unreachable

100:                                              ; preds = %86
  %101 = getelementptr inbounds %"class.std::ctype", %"class.std::ctype"* %96, i64 0, i32 8
  %102 = load i8, i8* %101, align 8, !tbaa !24
  %103 = icmp eq i8 %102, 0
  br i1 %103, label %107, label %104

104:                                              ; preds = %100
  %105 = getelementptr inbounds %"class.std::ctype", %"class.std::ctype"* %96, i64 0, i32 9, i64 10
  %106 = load i8, i8* %105, align 1, !tbaa !13
  br label %114

107:                                              ; preds = %100
  invoke void @_ZNKSt5ctypeIcE13_M_widen_initEv(%"class.std::ctype"* nonnull align 8 dereferenceable(570) %96)
          to label %108 unwind label %124

108:                                              ; preds = %107
  %109 = bitcast %"class.std::ctype"* %96 to i8 (%"class.std::ctype"*, i8)***
  %110 = load i8 (%"class.std::ctype"*, i8)**, i8 (%"class.std::ctype"*, i8)*** %109, align 8, !tbaa !19
  %111 = getelementptr inbounds i8 (%"class.std::ctype"*, i8)*, i8 (%"class.std::ctype"*, i8)** %110, i64 6
  %112 = load i8 (%"class.std::ctype"*, i8)*, i8 (%"class.std::ctype"*, i8)** %111, align 8
  %113 = invoke signext i8 %112(%"class.std::ctype"* nonnull align 8 dereferenceable(570) %96, i8 signext 10)
          to label %114 unwind label %124

114:                                              ; preds = %108, %104
  %115 = phi i8 [ %106, %104 ], [ %113, %108 ]
  %116 = invoke nonnull align 8 dereferenceable(8) %"class.std::basic_ostream"* @_ZNSo3putEc(%"class.std::basic_ostream"* nonnull align 8 dereferenceable(8) %55, i8 signext %115)
          to label %117 unwind label %124

117:                                              ; preds = %114
  %118 = invoke nonnull align 8 dereferenceable(8) %"class.std::basic_ostream"* @_ZNSo5flushEv(%"class.std::basic_ostream"* nonnull align 8 dereferenceable(8) %116)
          to label %119 unwind label %124

119:                                              ; preds = %117
  %120 = load i8*, i8** %9, align 8, !tbaa !26
  %121 = icmp eq i8* %120, %6
  br i1 %121, label %123, label %122

122:                                              ; preds = %119
  call void @_ZdlPv(i8* %120) #8
  br label %123

123:                                              ; preds = %119, %122
  call void @llvm.lifetime.end.p0i8(i64 32, i8* nonnull %2) #8
  ret i32 0

124:                                              ; preds = %117, %114, %108, %107, %98, %50
  %125 = landingpad { i8*, i32 }
          cleanup
  br label %126

126:                                              ; preds = %124, %13
  %127 = phi { i8*, i32 } [ %125, %124 ], [ %14, %13 ]
  %128 = getelementptr inbounds %"class.std::__cxx11::basic_string", %"class.std::__cxx11::basic_string"* %1, i64 0, i32 0, i32 0
  %129 = load i8*, i8** %128, align 8, !tbaa !26
  %130 = icmp eq i8* %129, %6
  br i1 %130, label %132, label %131

131:                                              ; preds = %126
  call void @_ZdlPv(i8* %129) #8
  br label %132

132:                                              ; preds = %126, %131
  call void @llvm.lifetime.end.p0i8(i64 32, i8* nonnull %2) #8
  resume { i8*, i32 } %127
}

; Function Attrs: argmemonly mustprogress nofree nosync nounwind willreturn
declare void @llvm.lifetime.start.p0i8(i64 immarg, i8* nocapture) #4

declare nonnull align 8 dereferenceable(16) %"class.std::basic_istream"* @_ZStrsIcSt11char_traitsIcESaIcEERSt13basic_istreamIT_T0_ES7_RNSt7__cxx1112basic_stringIS4_S5_T1_EE(%"class.std::basic_istream"* nonnull align 8 dereferenceable(16), %"class.std::__cxx11::basic_string"* nonnull align 8 dereferenceable(32)) local_unnamed_addr #0

declare i32 @__gxx_personality_v0(...)

; Function Attrs: argmemonly mustprogress nofree nosync nounwind willreturn
declare void @llvm.lifetime.end.p0i8(i64 immarg, i8* nocapture) #4

declare nonnull align 8 dereferenceable(8) %"class.std::basic_ostream"* @_ZNSolsEi(%"class.std::basic_ostream"* nonnull align 8 dereferenceable(8), i32) local_unnamed_addr #0

; Function Attrs: nobuiltin nounwind
declare void @_ZdlPv(i8*) local_unnamed_addr #5

declare nonnull align 8 dereferenceable(8) %"class.std::basic_ostream"* @_ZNSo3putEc(%"class.std::basic_ostream"* nonnull align 8 dereferenceable(8), i8 signext) local_unnamed_addr #0

declare nonnull align 8 dereferenceable(8) %"class.std::basic_ostream"* @_ZNSo5flushEv(%"class.std::basic_ostream"* nonnull align 8 dereferenceable(8)) local_unnamed_addr #0

; Function Attrs: noreturn
declare void @_ZSt16__throw_bad_castv() local_unnamed_addr #6

declare void @_ZNKSt5ctypeIcE13_M_widen_initEv(%"class.std::ctype"* nonnull align 8 dereferenceable(570)) local_unnamed_addr #0

; Function Attrs: sspstrong uwtable
define internal void @_GLOBAL__sub_I_s566309244.cpp() #7 section ".text.startup" {
  tail call void @_ZNSt8ios_base4InitC1Ev(%"class.std::ios_base::Init"* nonnull align 1 dereferenceable(1) @_ZStL8__ioinit)
  %1 = tail call i32 @__cxa_atexit(void (i8*)* bitcast (void (%"class.std::ios_base::Init"*)* @_ZNSt8ios_base4InitD1Ev to void (i8*)*), i8* getelementptr inbounds (%"class.std::ios_base::Init", %"class.std::ios_base::Init"* @_ZStL8__ioinit, i64 0, i32 0), i8* nonnull @__dso_handle) #8
  ret void
}

attributes #0 = { "frame-pointer"="none" "no-trapping-math"="true" "stack-protector-buffer-size"="8" "target-cpu"="x86-64" "target-features"="+cx8,+fxsr,+mmx,+sse,+sse2,+x87" "tune-cpu"="generic" }
attributes #1 = { nounwind "frame-pointer"="none" "no-trapping-math"="true" "stack-protector-buffer-size"="8" "target-cpu"="x86-64" "target-features"="+cx8,+fxsr,+mmx,+sse,+sse2,+x87" "tune-cpu"="generic" }
attributes #2 = { nofree nounwind }
attributes #3 = { norecurse sspstrong uwtable "frame-pointer"="none" "min-legal-vector-width"="0" "no-trapping-math"="true" "stack-protector-buffer-size"="8" "target-cpu"="x86-64" "target-features"="+cx8,+fxsr,+mmx,+sse,+sse2,+x87" "tune-cpu"="generic" }
attributes #4 = { argmemonly mustprogress nofree nosync nounwind willreturn }
attributes #5 = { nobuiltin nounwind "frame-pointer"="none" "no-trapping-math"="true" "stack-protector-buffer-size"="8" "target-cpu"="x86-64" "target-features"="+cx8,+fxsr,+mmx,+sse,+sse2,+x87" "tune-cpu"="generic" }
attributes #6 = { noreturn "frame-pointer"="none" "no-trapping-math"="true" "stack-protector-buffer-size"="8" "target-cpu"="x86-64" "target-features"="+cx8,+fxsr,+mmx,+sse,+sse2,+x87" "tune-cpu"="generic" }
attributes #7 = { sspstrong uwtable "frame-pointer"="none" "min-legal-vector-width"="0" "no-trapping-math"="true" "stack-protector-buffer-size"="8" "target-cpu"="x86-64" "target-features"="+cx8,+fxsr,+mmx,+sse,+sse2,+x87" "tune-cpu"="generic" }
attributes #8 = { nounwind }
attributes #9 = { noreturn }

!llvm.module.flags = !{!0, !1, !2, !3}
!llvm.ident = !{!4}

!0 = !{i32 1, !"wchar_size", i32 4}
!1 = !{i32 7, !"PIC Level", i32 2}
!2 = !{i32 7, !"PIE Level", i32 2}
!3 = !{i32 7, !"uwtable", i32 1}
!4 = !{!"clang version 13.0.0"}
!5 = !{!6, !7, i64 0}
!6 = !{!"_ZTSNSt7__cxx1112basic_stringIcSt11char_traitsIcESaIcEE12_Alloc_hiderE", !7, i64 0}
!7 = !{!"any pointer", !8, i64 0}
!8 = !{!"omnipotent char", !9, i64 0}
!9 = !{!"Simple C++ TBAA"}
!10 = !{!11, !12, i64 8}
!11 = !{!"_ZTSNSt7__cxx1112basic_stringIcSt11char_traitsIcESaIcEEE", !6, i64 0, !12, i64 8, !8, i64 16}
!12 = !{!"long", !8, i64 0}
!13 = !{!8, !8, i64 0}
!14 = distinct !{!14, !15}
!15 = !{!"llvm.loop.mustprogress"}
!16 = distinct !{!16, !17}
!17 = !{!"llvm.loop.unroll.disable"}
!18 = distinct !{!18, !15}
!19 = !{!20, !20, i64 0}
!20 = !{!"vtable pointer", !9, i64 0}
!21 = !{!22, !7, i64 240}
!22 = !{!"_ZTSSt9basic_iosIcSt11char_traitsIcEE", !7, i64 216, !8, i64 224, !23, i64 225, !7, i64 232, !7, i64 240, !7, i64 248, !7, i64 256}
!23 = !{!"bool", !8, i64 0}
!24 = !{!25, !8, i64 56}
!25 = !{!"_ZTSSt5ctypeIcE", !7, i64 16, !23, i64 24, !7, i64 32, !7, i64 40, !7, i64 48, !8, i64 56, !8, i64 57, !8, i64 313, !8, i64 569}
!26 = !{!11, !7, i64 0}
